ARM GAS  C:\Users\klabu\AppData\Local\Temp\ccJA4uAm.s 			page 1


   1              		.syntax unified
   2              		.cpu cortex-m3
   3              		.fpu softvfp
   4              		.eabi_attribute 20, 1
   5              		.eabi_attribute 21, 1
   6              		.eabi_attribute 23, 3
   7              		.eabi_attribute 24, 1
   8              		.eabi_attribute 25, 1
   9              		.eabi_attribute 26, 1
  10              		.eabi_attribute 30, 6
  11              		.eabi_attribute 34, 1
  12              		.eabi_attribute 18, 4
  13              		.thumb
  14              		.syntax unified
  15              		.file	"ADC_PM.c"
  16              		.text
  17              	.Ltext0:
  18              		.cfi_sections	.debug_frame
  19              		.data
  20              		.align	2
  21              		.type	ADC_backup, %object
  22              		.size	ADC_backup, 2
  23              	ADC_backup:
  24 0000 00       		.byte	0
  25 0001 30       		.byte	48
  26              		.section	.text.ADC_SaveConfig,"ax",%progbits
  27              		.align	2
  28              		.global	ADC_SaveConfig
  29              		.thumb
  30              		.thumb_func
  31              		.type	ADC_SaveConfig, %function
  32              	ADC_SaveConfig:
  33              	.LFB0:
  34              		.file 1 "Generated_Source\\PSoC5\\ADC_PM.c"
   1:Generated_Source\PSoC5/ADC_PM.c **** /*******************************************************************************
   2:Generated_Source\PSoC5/ADC_PM.c **** * File Name: ADC_PM.c
   3:Generated_Source\PSoC5/ADC_PM.c **** * Version 3.30
   4:Generated_Source\PSoC5/ADC_PM.c **** *
   5:Generated_Source\PSoC5/ADC_PM.c **** * Description:
   6:Generated_Source\PSoC5/ADC_PM.c **** *  This file provides the power manager source code to the API for the
   7:Generated_Source\PSoC5/ADC_PM.c **** *  Delta-Sigma ADC Component.
   8:Generated_Source\PSoC5/ADC_PM.c **** *
   9:Generated_Source\PSoC5/ADC_PM.c **** * Note:
  10:Generated_Source\PSoC5/ADC_PM.c **** *
  11:Generated_Source\PSoC5/ADC_PM.c **** ********************************************************************************
  12:Generated_Source\PSoC5/ADC_PM.c **** * Copyright 2008-2017, Cypress Semiconductor Corporation.  All rights reserved.
  13:Generated_Source\PSoC5/ADC_PM.c **** * You may use this file only in accordance with the license, terms, conditions,
  14:Generated_Source\PSoC5/ADC_PM.c **** * disclaimers, and limitations in the end user license agreement accompanying
  15:Generated_Source\PSoC5/ADC_PM.c **** * the software package with which this file was provided.
  16:Generated_Source\PSoC5/ADC_PM.c **** *******************************************************************************/
  17:Generated_Source\PSoC5/ADC_PM.c **** 
  18:Generated_Source\PSoC5/ADC_PM.c **** #include "ADC.h"
  19:Generated_Source\PSoC5/ADC_PM.c **** 
  20:Generated_Source\PSoC5/ADC_PM.c **** static ADC_BACKUP_STRUCT ADC_backup =
  21:Generated_Source\PSoC5/ADC_PM.c **** {
  22:Generated_Source\PSoC5/ADC_PM.c ****     ADC_DISABLED,
  23:Generated_Source\PSoC5/ADC_PM.c ****     ADC_CFG1_DEC_CR
ARM GAS  C:\Users\klabu\AppData\Local\Temp\ccJA4uAm.s 			page 2


  24:Generated_Source\PSoC5/ADC_PM.c **** };
  25:Generated_Source\PSoC5/ADC_PM.c **** 
  26:Generated_Source\PSoC5/ADC_PM.c **** 
  27:Generated_Source\PSoC5/ADC_PM.c **** /*******************************************************************************
  28:Generated_Source\PSoC5/ADC_PM.c **** * Function Name: ADC_SaveConfig
  29:Generated_Source\PSoC5/ADC_PM.c **** ********************************************************************************
  30:Generated_Source\PSoC5/ADC_PM.c **** *
  31:Generated_Source\PSoC5/ADC_PM.c **** * Summary:
  32:Generated_Source\PSoC5/ADC_PM.c **** *  Save the register configuration which are not retention.
  33:Generated_Source\PSoC5/ADC_PM.c **** *
  34:Generated_Source\PSoC5/ADC_PM.c **** * Parameters:
  35:Generated_Source\PSoC5/ADC_PM.c **** *  None
  36:Generated_Source\PSoC5/ADC_PM.c **** *
  37:Generated_Source\PSoC5/ADC_PM.c **** * Return:
  38:Generated_Source\PSoC5/ADC_PM.c **** *  None
  39:Generated_Source\PSoC5/ADC_PM.c **** *
  40:Generated_Source\PSoC5/ADC_PM.c **** * Global variables:
  41:Generated_Source\PSoC5/ADC_PM.c **** *  ADC_backup:  This global structure variable is used to store
  42:Generated_Source\PSoC5/ADC_PM.c **** *  configuration registers which are non retention whenever user wants to go
  43:Generated_Source\PSoC5/ADC_PM.c **** *  sleep mode by calling Sleep() API.
  44:Generated_Source\PSoC5/ADC_PM.c **** *
  45:Generated_Source\PSoC5/ADC_PM.c **** *******************************************************************************/
  46:Generated_Source\PSoC5/ADC_PM.c **** void ADC_SaveConfig(void) 
  47:Generated_Source\PSoC5/ADC_PM.c **** {
  35              		.loc 1 47 0
  36              		.cfi_startproc
  37              		@ args = 0, pretend = 0, frame = 0
  38              		@ frame_needed = 1, uses_anonymous_args = 0
  39              		@ link register save eliminated.
  40 0000 80B4     		push	{r7}
  41              		.cfi_def_cfa_offset 4
  42              		.cfi_offset 7, -4
  43 0002 00AF     		add	r7, sp, #0
  44              		.cfi_def_cfa_register 7
  48:Generated_Source\PSoC5/ADC_PM.c ****     ADC_backup.deccr = ADC_DEC_CR_REG;
  45              		.loc 1 48 0
  46 0004 044B     		ldr	r3, .L2
  47 0006 1B78     		ldrb	r3, [r3]
  48 0008 DAB2     		uxtb	r2, r3
  49 000a 044B     		ldr	r3, .L2+4
  50 000c 5A70     		strb	r2, [r3, #1]
  49:Generated_Source\PSoC5/ADC_PM.c **** }
  51              		.loc 1 49 0
  52 000e 00BF     		nop
  53 0010 BD46     		mov	sp, r7
  54              		.cfi_def_cfa_register 13
  55              		@ sp needed
  56 0012 80BC     		pop	{r7}
  57              		.cfi_restore 7
  58              		.cfi_def_cfa_offset 0
  59 0014 7047     		bx	lr
  60              	.L3:
  61 0016 00BF     		.align	2
  62              	.L2:
  63 0018 004E0040 		.word	1073761792
  64 001c 00000000 		.word	ADC_backup
  65              		.cfi_endproc
ARM GAS  C:\Users\klabu\AppData\Local\Temp\ccJA4uAm.s 			page 3


  66              	.LFE0:
  67              		.size	ADC_SaveConfig, .-ADC_SaveConfig
  68              		.section	.text.ADC_RestoreConfig,"ax",%progbits
  69              		.align	2
  70              		.global	ADC_RestoreConfig
  71              		.thumb
  72              		.thumb_func
  73              		.type	ADC_RestoreConfig, %function
  74              	ADC_RestoreConfig:
  75              	.LFB1:
  50:Generated_Source\PSoC5/ADC_PM.c **** 
  51:Generated_Source\PSoC5/ADC_PM.c **** 
  52:Generated_Source\PSoC5/ADC_PM.c **** /*******************************************************************************
  53:Generated_Source\PSoC5/ADC_PM.c **** * Function Name: ADC_RestoreConfig
  54:Generated_Source\PSoC5/ADC_PM.c **** ********************************************************************************
  55:Generated_Source\PSoC5/ADC_PM.c **** *
  56:Generated_Source\PSoC5/ADC_PM.c **** * Summary:
  57:Generated_Source\PSoC5/ADC_PM.c **** *  Restore the register configurations which are not retention.
  58:Generated_Source\PSoC5/ADC_PM.c **** *
  59:Generated_Source\PSoC5/ADC_PM.c **** * Parameters:
  60:Generated_Source\PSoC5/ADC_PM.c **** *  None
  61:Generated_Source\PSoC5/ADC_PM.c **** *
  62:Generated_Source\PSoC5/ADC_PM.c **** * Return:
  63:Generated_Source\PSoC5/ADC_PM.c **** *  None
  64:Generated_Source\PSoC5/ADC_PM.c **** *
  65:Generated_Source\PSoC5/ADC_PM.c **** * Global variables:
  66:Generated_Source\PSoC5/ADC_PM.c **** *  ADC_backup:  This global structure variable is used to restore
  67:Generated_Source\PSoC5/ADC_PM.c **** *  configuration registers which are non retention whenever user wants to switch
  68:Generated_Source\PSoC5/ADC_PM.c **** *  to active power mode by calling Wakeup() API.
  69:Generated_Source\PSoC5/ADC_PM.c **** *
  70:Generated_Source\PSoC5/ADC_PM.c **** *******************************************************************************/
  71:Generated_Source\PSoC5/ADC_PM.c **** void ADC_RestoreConfig(void) 
  72:Generated_Source\PSoC5/ADC_PM.c **** {
  76              		.loc 1 72 0
  77              		.cfi_startproc
  78              		@ args = 0, pretend = 0, frame = 0
  79              		@ frame_needed = 1, uses_anonymous_args = 0
  80              		@ link register save eliminated.
  81 0000 80B4     		push	{r7}
  82              		.cfi_def_cfa_offset 4
  83              		.cfi_offset 7, -4
  84 0002 00AF     		add	r7, sp, #0
  85              		.cfi_def_cfa_register 7
  73:Generated_Source\PSoC5/ADC_PM.c ****     ADC_DEC_CR_REG = ADC_backup.deccr;
  86              		.loc 1 73 0
  87 0004 034B     		ldr	r3, .L5
  88 0006 044A     		ldr	r2, .L5+4
  89 0008 5278     		ldrb	r2, [r2, #1]	@ zero_extendqisi2
  90 000a 1A70     		strb	r2, [r3]
  74:Generated_Source\PSoC5/ADC_PM.c **** }
  91              		.loc 1 74 0
  92 000c 00BF     		nop
  93 000e BD46     		mov	sp, r7
  94              		.cfi_def_cfa_register 13
  95              		@ sp needed
  96 0010 80BC     		pop	{r7}
  97              		.cfi_restore 7
ARM GAS  C:\Users\klabu\AppData\Local\Temp\ccJA4uAm.s 			page 4


  98              		.cfi_def_cfa_offset 0
  99 0012 7047     		bx	lr
 100              	.L6:
 101              		.align	2
 102              	.L5:
 103 0014 004E0040 		.word	1073761792
 104 0018 00000000 		.word	ADC_backup
 105              		.cfi_endproc
 106              	.LFE1:
 107              		.size	ADC_RestoreConfig, .-ADC_RestoreConfig
 108              		.section	.text.ADC_Sleep,"ax",%progbits
 109              		.align	2
 110              		.global	ADC_Sleep
 111              		.thumb
 112              		.thumb_func
 113              		.type	ADC_Sleep, %function
 114              	ADC_Sleep:
 115              	.LFB2:
  75:Generated_Source\PSoC5/ADC_PM.c **** 
  76:Generated_Source\PSoC5/ADC_PM.c **** 
  77:Generated_Source\PSoC5/ADC_PM.c **** /*******************************************************************************
  78:Generated_Source\PSoC5/ADC_PM.c **** * Function Name: ADC_Sleep
  79:Generated_Source\PSoC5/ADC_PM.c **** ********************************************************************************
  80:Generated_Source\PSoC5/ADC_PM.c **** *
  81:Generated_Source\PSoC5/ADC_PM.c **** * Summary:
  82:Generated_Source\PSoC5/ADC_PM.c **** *  Stops the operation of the block and saves the user configuration.
  83:Generated_Source\PSoC5/ADC_PM.c **** *
  84:Generated_Source\PSoC5/ADC_PM.c **** * Parameters:
  85:Generated_Source\PSoC5/ADC_PM.c **** *  None
  86:Generated_Source\PSoC5/ADC_PM.c **** *
  87:Generated_Source\PSoC5/ADC_PM.c **** * Return:
  88:Generated_Source\PSoC5/ADC_PM.c **** *  None
  89:Generated_Source\PSoC5/ADC_PM.c **** *
  90:Generated_Source\PSoC5/ADC_PM.c **** * Global variables:
  91:Generated_Source\PSoC5/ADC_PM.c **** *  ADC_backup:  The structure field 'enableState' is modified
  92:Generated_Source\PSoC5/ADC_PM.c **** *  depending on the enable state of the block before entering to sleep mode.
  93:Generated_Source\PSoC5/ADC_PM.c **** *
  94:Generated_Source\PSoC5/ADC_PM.c **** *******************************************************************************/
  95:Generated_Source\PSoC5/ADC_PM.c **** void ADC_Sleep(void) 
  96:Generated_Source\PSoC5/ADC_PM.c **** {
 116              		.loc 1 96 0
 117              		.cfi_startproc
 118              		@ args = 0, pretend = 0, frame = 0
 119              		@ frame_needed = 1, uses_anonymous_args = 0
 120 0000 80B5     		push	{r7, lr}
 121              		.cfi_def_cfa_offset 8
 122              		.cfi_offset 7, -8
 123              		.cfi_offset 14, -4
 124 0002 00AF     		add	r7, sp, #0
 125              		.cfi_def_cfa_register 7
  97:Generated_Source\PSoC5/ADC_PM.c ****     /* Save ADC enable state */
  98:Generated_Source\PSoC5/ADC_PM.c ****     if((ADC_ACT_PWR_DEC_EN == (ADC_PWRMGR_DEC_REG & ADC_ACT_PWR_DEC_EN)) &&
 126              		.loc 1 98 0
 127 0004 144B     		ldr	r3, .L11
 128 0006 1B78     		ldrb	r3, [r3]
 129 0008 DBB2     		uxtb	r3, r3
 130 000a 03F00103 		and	r3, r3, #1
ARM GAS  C:\Users\klabu\AppData\Local\Temp\ccJA4uAm.s 			page 5


 131 000e 002B     		cmp	r3, #0
 132 0010 1AD0     		beq	.L8
  99:Generated_Source\PSoC5/ADC_PM.c ****        (ADC_ACT_PWR_DSM_EN == (ADC_PWRMGR_DSM_REG & ADC_ACT_PWR_DSM_EN)))
 133              		.loc 1 99 0 discriminator 1
 134 0012 114B     		ldr	r3, .L11
 135 0014 1B78     		ldrb	r3, [r3]
 136 0016 DBB2     		uxtb	r3, r3
 137 0018 03F01003 		and	r3, r3, #16
  98:Generated_Source\PSoC5/ADC_PM.c ****        (ADC_ACT_PWR_DSM_EN == (ADC_PWRMGR_DSM_REG & ADC_ACT_PWR_DSM_EN)))
 138              		.loc 1 98 0 discriminator 1
 139 001c 002B     		cmp	r3, #0
 140 001e 13D0     		beq	.L8
 100:Generated_Source\PSoC5/ADC_PM.c ****     {
 101:Generated_Source\PSoC5/ADC_PM.c ****         /* Component is enabled */
 102:Generated_Source\PSoC5/ADC_PM.c ****         ADC_backup.enableState = ADC_ENABLED;
 141              		.loc 1 102 0
 142 0020 0E4B     		ldr	r3, .L11+4
 143 0022 0122     		movs	r2, #1
 144 0024 1A70     		strb	r2, [r3]
 103:Generated_Source\PSoC5/ADC_PM.c ****         if((ADC_DEC_CR_REG & ADC_DEC_START_CONV) != 0u)
 145              		.loc 1 103 0
 146 0026 0E4B     		ldr	r3, .L11+8
 147 0028 1B78     		ldrb	r3, [r3]
 148 002a DBB2     		uxtb	r3, r3
 149 002c 03F00103 		and	r3, r3, #1
 150 0030 002B     		cmp	r3, #0
 151 0032 06D0     		beq	.L9
 104:Generated_Source\PSoC5/ADC_PM.c ****         {   
 105:Generated_Source\PSoC5/ADC_PM.c ****             /* Conversion is started */
 106:Generated_Source\PSoC5/ADC_PM.c ****             ADC_backup.enableState |= ADC_STARTED;
 152              		.loc 1 106 0
 153 0034 094B     		ldr	r3, .L11+4
 154 0036 1B78     		ldrb	r3, [r3]	@ zero_extendqisi2
 155 0038 43F00203 		orr	r3, r3, #2
 156 003c DAB2     		uxtb	r2, r3
 157 003e 074B     		ldr	r3, .L11+4
 158 0040 1A70     		strb	r2, [r3]
 159              	.L9:
 107:Generated_Source\PSoC5/ADC_PM.c ****         }
 108:Generated_Source\PSoC5/ADC_PM.c **** 		
 109:Generated_Source\PSoC5/ADC_PM.c ****         /* Stop the configuration */
 110:Generated_Source\PSoC5/ADC_PM.c ****         ADC_Stop();
 160              		.loc 1 110 0
 161 0042 FFF7FEFF 		bl	ADC_Stop
 162 0046 02E0     		b	.L10
 163              	.L8:
 111:Generated_Source\PSoC5/ADC_PM.c ****     }
 112:Generated_Source\PSoC5/ADC_PM.c ****     else
 113:Generated_Source\PSoC5/ADC_PM.c ****     {
 114:Generated_Source\PSoC5/ADC_PM.c ****         /* Component is disabled */
 115:Generated_Source\PSoC5/ADC_PM.c ****         ADC_backup.enableState = ADC_DISABLED;
 164              		.loc 1 115 0
 165 0048 044B     		ldr	r3, .L11+4
 166 004a 0022     		movs	r2, #0
 167 004c 1A70     		strb	r2, [r3]
 168              	.L10:
 116:Generated_Source\PSoC5/ADC_PM.c ****     }
ARM GAS  C:\Users\klabu\AppData\Local\Temp\ccJA4uAm.s 			page 6


 117:Generated_Source\PSoC5/ADC_PM.c **** 
 118:Generated_Source\PSoC5/ADC_PM.c ****     /* Save the user configuration */
 119:Generated_Source\PSoC5/ADC_PM.c ****     ADC_SaveConfig();
 169              		.loc 1 119 0
 170 004e FFF7FEFF 		bl	ADC_SaveConfig
 120:Generated_Source\PSoC5/ADC_PM.c **** }
 171              		.loc 1 120 0
 172 0052 00BF     		nop
 173 0054 80BD     		pop	{r7, pc}
 174              	.L12:
 175 0056 00BF     		.align	2
 176              	.L11:
 177 0058 AA430040 		.word	1073759146
 178 005c 00000000 		.word	ADC_backup
 179 0060 004E0040 		.word	1073761792
 180              		.cfi_endproc
 181              	.LFE2:
 182              		.size	ADC_Sleep, .-ADC_Sleep
 183              		.section	.text.ADC_Wakeup,"ax",%progbits
 184              		.align	2
 185              		.global	ADC_Wakeup
 186              		.thumb
 187              		.thumb_func
 188              		.type	ADC_Wakeup, %function
 189              	ADC_Wakeup:
 190              	.LFB3:
 121:Generated_Source\PSoC5/ADC_PM.c **** 
 122:Generated_Source\PSoC5/ADC_PM.c **** 
 123:Generated_Source\PSoC5/ADC_PM.c **** /*******************************************************************************
 124:Generated_Source\PSoC5/ADC_PM.c **** * Function Name: ADC_Wakeup
 125:Generated_Source\PSoC5/ADC_PM.c **** ********************************************************************************
 126:Generated_Source\PSoC5/ADC_PM.c **** *
 127:Generated_Source\PSoC5/ADC_PM.c **** * Summary:
 128:Generated_Source\PSoC5/ADC_PM.c **** *  Restores the user configuration and enables the power to the block.
 129:Generated_Source\PSoC5/ADC_PM.c **** *
 130:Generated_Source\PSoC5/ADC_PM.c **** * Parameters:
 131:Generated_Source\PSoC5/ADC_PM.c **** *  None
 132:Generated_Source\PSoC5/ADC_PM.c **** *
 133:Generated_Source\PSoC5/ADC_PM.c **** * Return:
 134:Generated_Source\PSoC5/ADC_PM.c **** *  None
 135:Generated_Source\PSoC5/ADC_PM.c **** *
 136:Generated_Source\PSoC5/ADC_PM.c **** * Global variables:
 137:Generated_Source\PSoC5/ADC_PM.c **** *  ADC_backup:  The structure field 'enableState' is used to
 138:Generated_Source\PSoC5/ADC_PM.c **** *  restore the enable state of block after wakeup from sleep mode.
 139:Generated_Source\PSoC5/ADC_PM.c **** *
 140:Generated_Source\PSoC5/ADC_PM.c **** *******************************************************************************/
 141:Generated_Source\PSoC5/ADC_PM.c **** void ADC_Wakeup(void) 
 142:Generated_Source\PSoC5/ADC_PM.c **** {
 191              		.loc 1 142 0
 192              		.cfi_startproc
 193              		@ args = 0, pretend = 0, frame = 0
 194              		@ frame_needed = 1, uses_anonymous_args = 0
 195 0000 80B5     		push	{r7, lr}
 196              		.cfi_def_cfa_offset 8
 197              		.cfi_offset 7, -8
 198              		.cfi_offset 14, -4
 199 0002 00AF     		add	r7, sp, #0
ARM GAS  C:\Users\klabu\AppData\Local\Temp\ccJA4uAm.s 			page 7


 200              		.cfi_def_cfa_register 7
 143:Generated_Source\PSoC5/ADC_PM.c ****     /* Restore the configuration */
 144:Generated_Source\PSoC5/ADC_PM.c ****     ADC_RestoreConfig();
 201              		.loc 1 144 0
 202 0004 FFF7FEFF 		bl	ADC_RestoreConfig
 145:Generated_Source\PSoC5/ADC_PM.c **** 
 146:Generated_Source\PSoC5/ADC_PM.c ****     /* Enables the component operation */
 147:Generated_Source\PSoC5/ADC_PM.c ****     if(ADC_backup.enableState != ADC_DISABLED)
 203              		.loc 1 147 0
 204 0008 074B     		ldr	r3, .L16
 205 000a 1B78     		ldrb	r3, [r3]	@ zero_extendqisi2
 206 000c 002B     		cmp	r3, #0
 207 000e 09D0     		beq	.L15
 148:Generated_Source\PSoC5/ADC_PM.c ****     {
 149:Generated_Source\PSoC5/ADC_PM.c ****         ADC_Enable();
 208              		.loc 1 149 0
 209 0010 FFF7FEFF 		bl	ADC_Enable
 150:Generated_Source\PSoC5/ADC_PM.c ****         if((ADC_backup.enableState & ADC_STARTED) != 0u)
 210              		.loc 1 150 0
 211 0014 044B     		ldr	r3, .L16
 212 0016 1B78     		ldrb	r3, [r3]	@ zero_extendqisi2
 213 0018 03F00203 		and	r3, r3, #2
 214 001c 002B     		cmp	r3, #0
 215 001e 01D0     		beq	.L15
 151:Generated_Source\PSoC5/ADC_PM.c ****         {
 152:Generated_Source\PSoC5/ADC_PM.c ****             ADC_StartConvert();
 216              		.loc 1 152 0
 217 0020 FFF7FEFF 		bl	ADC_StartConvert
 218              	.L15:
 153:Generated_Source\PSoC5/ADC_PM.c ****         }
 154:Generated_Source\PSoC5/ADC_PM.c ****     } /* Do nothing if component was disable before */
 155:Generated_Source\PSoC5/ADC_PM.c **** }
 219              		.loc 1 155 0
 220 0024 00BF     		nop
 221 0026 80BD     		pop	{r7, pc}
 222              	.L17:
 223              		.align	2
 224              	.L16:
 225 0028 00000000 		.word	ADC_backup
 226              		.cfi_endproc
 227              	.LFE3:
 228              		.size	ADC_Wakeup, .-ADC_Wakeup
 229              		.text
 230              	.Letext0:
 231              		.file 2 "Generated_Source\\PSoC5\\cytypes.h"
 232              		.file 3 "Generated_Source\\PSoC5\\ADC.h"