ARM GAS  C:\Users\klabu\AppData\Local\Temp\cclBK9ZD.s 			page 1


   1              		.syntax unified
   2              		.cpu cortex-m3
   3              		.fpu softvfp
   4              		.eabi_attribute 20, 1
   5              		.eabi_attribute 21, 1
   6              		.eabi_attribute 23, 3
   7              		.eabi_attribute 24, 1
   8              		.eabi_attribute 25, 1
   9              		.eabi_attribute 26, 1
  10              		.eabi_attribute 30, 6
  11              		.eabi_attribute 34, 1
  12              		.eabi_attribute 18, 4
  13              		.thumb
  14              		.syntax unified
  15              		.file	"App_LED.c"
  16              		.text
  17              	.Ltext0:
  18              		.cfi_sections	.debug_frame
  19              		.comm	buffer_overflow,1,1
  20              		.comm	dataPointsInStack,2,2
  21              		.comm	dataPointsInStackDesired,2,2
  22              		.comm	data,6600,4
  23              		.comm	modem_state,1,1
  24              		.comm	modem_start_time_stamp,4,4
  25              		.comm	modem_info,60,4
  26              		.comm	modem_stats,32,4
  27              		.comm	updatable_parameters,10,4
  28              		.syntax unified
  29              		.global _printf_float
  30              		.thumb
  31              		.syntax unified
  32              		.comm	App_LED_enabled,1,1
  33              		.comm	app_led_inbox,100,4
  34              		.comm	level_sensor_inbox,100,4
  35              		.comm	level_sensor_enabled,1,1
  36              		.comm	downstream_level_sensor_inbox,100,4
  37              		.comm	downstream_level_sensor_enabled,1,1
  38              		.comm	valve_diameter,4,4
  39              		.comm	valve_type,10,4
  40              		.comm	valve_enabled,1,1
  41              		.comm	valve_inbox,100,4
  42              		.comm	autosampler_enabled,1,1
  43              		.comm	autosampler_inbox,100,4
  44              		.comm	http_request,10000,4
  45              		.comm	http_body,10000,4
  46              		.comm	http_route,200,4
  47              		.comm	system_info,28,4
  48              		.comm	system_settings,104,4
  49              		.comm	alarmMeasure,6,4
  50              		.comm	timeToMeasure,1,1
  51              		.comm	alarmSync,6,4
  52              		.comm	timeToSync,1,1
  53              		.comm	timeToSycnRemoteParams,1,1
  54              		.comm	hey,1,1
  55              		.comm	alarmAppLED,6,4
  56              		.comm	timeToAppLED,1,1
  57              		.comm	alarmLevelSensor,6,4
ARM GAS  C:\Users\klabu\AppData\Local\Temp\cclBK9ZD.s 			page 2


  58              		.comm	timeToLevelSensor,1,1
  59              		.comm	alarmDownstreamLevelSensor,6,4
  60              		.comm	timeToDownstreamLevelSensor,1,1
  61              		.comm	alarmValve,6,4
  62              		.comm	timeToValve,1,1
  63              		.comm	alarmAutosampler,6,4
  64              		.comm	timeToAutosampler,1,1
  65              		.section	.rodata
  66              		.align	2
  67              	.LC0:
  68 0000 4170705F 		.ascii	"App_LED_State\000"
  68      4C45445F 
  68      53746174 
  68      6500
  69 000e 0000     		.align	2
  70              	.LC1:
  71 0010 4170705F 		.ascii	"App_LED_State: \000"
  71      4C45445F 
  71      53746174 
  71      653A2000 
  72              		.align	2
  73              	.LC2:
  74 0020 4F4E00   		.ascii	"ON\000"
  75 0023 00       		.align	2
  76              	.LC3:
  77 0024 3100     		.ascii	"1\000"
  78 0026 0000     		.align	2
  79              	.LC4:
  80 0028 0A0A2D2D 		.ascii	"\012\012------------  BLINK ON ---------------\012\012"
  80      2D2D2D2D 
  80      2D2D2D2D 
  80      2D2D2020 
  80      424C494E 
  81 0052 00       		.ascii	"\000"
  82 0053 00       		.align	2
  83              	.LC5:
  84 0054 4F464600 		.ascii	"OFF\000"
  85              		.align	2
  86              	.LC6:
  87 0058 3000     		.ascii	"0\000"
  88 005a 0000     		.align	2
  89              	.LC7:
  90 005c 0A0A2D2D 		.ascii	"\012\012------------  BLINK OFF ---------------\012"
  90      2D2D2D2D 
  90      2D2D2D2D 
  90      2D2D2020 
  90      424C494E 
  91 0086 0A00     		.ascii	"\012\000"
  92              		.section	.text.App_LED,"ax",%progbits
  93              		.align	2
  94              		.global	App_LED
  95              		.thumb
  96              		.thumb_func
  97              		.type	App_LED, %function
  98              	App_LED:
  99              	.LFB64:
 100              		.file 1 "App_LED.c"
ARM GAS  C:\Users\klabu\AppData\Local\Temp\cclBK9ZD.s 			page 3


   1:App_LED.c     **** /* ========================================
   2:App_LED.c     ****  *
   3:App_LED.c     ****  * Copyright YOUR COMPANY, THE YEAR
   4:App_LED.c     ****  * All Rights Reserved
   5:App_LED.c     ****  * UNPUBLISHED, LICENSED SOFTWARE.
   6:App_LED.c     ****  *
   7:App_LED.c     ****  * CONFIDENTIAL AND PROPRIETARY INFORMATION
   8:App_LED.c     ****  * WHICH IS THE PROPERTY OF your company.
   9:App_LED.c     ****  *
  10:App_LED.c     ****  * ========================================
  11:App_LED.c     **** */
  12:App_LED.c     **** 
  13:App_LED.c     **** /* [] END OF FILE */
  14:App_LED.c     **** #include "LED.h"
  15:App_LED.c     **** #include "notoriOS.h"
  16:App_LED.c     **** #include "debug.h"
  17:App_LED.c     **** 
  18:App_LED.c     **** uint8 App_LED(){
 101              		.loc 1 18 0
 102              		.cfi_startproc
 103              		@ args = 0, pretend = 0, frame = 48
 104              		@ frame_needed = 1, uses_anonymous_args = 0
 105 0000 B0B5     		push	{r4, r5, r7, lr}
 106              		.cfi_def_cfa_offset 16
 107              		.cfi_offset 4, -16
 108              		.cfi_offset 5, -12
 109              		.cfi_offset 7, -8
 110              		.cfi_offset 14, -4
 111 0002 8CB0     		sub	sp, sp, #48
 112              		.cfi_def_cfa_offset 64
 113 0004 00AF     		add	r7, sp, #0
 114              		.cfi_def_cfa_register 7
  19:App_LED.c     ****     
  20:App_LED.c     ****     //LED_Write(!LED_Read()); <- local blinky
  21:App_LED.c     ****     // printNotif(NOTIF_TYPE_EVENT,"\n\n------------  BLINK ---------------\n\n");
  22:App_LED.c     ****     
  23:App_LED.c     ****     char * compare_location;
  24:App_LED.c     ****     uint8 LED_State = LED_Read();
 115              		.loc 1 24 0
 116 0006 FFF7FEFF 		bl	LED_Read
 117 000a 0346     		mov	r3, r0
 118 000c 87F82F30 		strb	r3, [r7, #47]
  25:App_LED.c     ****     char c_LED_State[3];
  26:App_LED.c     ****     itoa(LED_State,c_LED_State,10); // "10" is for "base 10"
 119              		.loc 1 26 0
 120 0010 97F82F30 		ldrb	r3, [r7, #47]	@ zero_extendqisi2
 121 0014 07F12401 		add	r1, r7, #36
 122 0018 0A22     		movs	r2, #10
 123 001a 1846     		mov	r0, r3
 124 001c FFF7FEFF 		bl	itoa
  27:App_LED.c     ****     pushData("App_LED_State", c_LED_State, getTimeStamp());
 125              		.loc 1 27 0
 126 0020 FFF7FEFF 		bl	getTimeStamp
 127 0024 0246     		mov	r2, r0
 128 0026 07F12403 		add	r3, r7, #36
 129 002a 1946     		mov	r1, r3
 130 002c 2C48     		ldr	r0, .L5
ARM GAS  C:\Users\klabu\AppData\Local\Temp\cclBK9ZD.s 			page 4


 131 002e FFF7FEFF 		bl	pushData
  28:App_LED.c     ****     char notification[30];
  29:App_LED.c     ****     notification[0] = '\0';
 132              		.loc 1 29 0
 133 0032 0023     		movs	r3, #0
 134 0034 3B71     		strb	r3, [r7, #4]
  30:App_LED.c     ****     strcat(notification,"App_LED_State: ");
 135              		.loc 1 30 0
 136 0036 3B1D     		adds	r3, r7, #4
 137 0038 1846     		mov	r0, r3
 138 003a FFF7FEFF 		bl	strlen
 139 003e 0346     		mov	r3, r0
 140 0040 1A46     		mov	r2, r3
 141 0042 3B1D     		adds	r3, r7, #4
 142 0044 1344     		add	r3, r3, r2
 143 0046 274A     		ldr	r2, .L5+4
 144 0048 1C46     		mov	r4, r3
 145 004a 1546     		mov	r5, r2
 146 004c 0FCD     		ldmia	r5!, {r0, r1, r2, r3}
 147 004e 2060     		str	r0, [r4]	@ unaligned
 148 0050 6160     		str	r1, [r4, #4]	@ unaligned
 149 0052 A260     		str	r2, [r4, #8]	@ unaligned
 150 0054 E360     		str	r3, [r4, #12]	@ unaligned
  31:App_LED.c     ****     strcat(notification,c_LED_State);
 151              		.loc 1 31 0
 152 0056 07F12402 		add	r2, r7, #36
 153 005a 3B1D     		adds	r3, r7, #4
 154 005c 1146     		mov	r1, r2
 155 005e 1846     		mov	r0, r3
 156 0060 FFF7FEFF 		bl	strcat
  32:App_LED.c     ****     strcat(notification,"\0");
  33:App_LED.c     ****     printNotif(NOTIF_TYPE_EVENT,notification);
 157              		.loc 1 33 0
 158 0064 3B1D     		adds	r3, r7, #4
 159 0066 1946     		mov	r1, r3
 160 0068 0020     		movs	r0, #0
 161 006a FFF7FEFF 		bl	printNotif
  34:App_LED.c     ****     
  35:App_LED.c     ****     compare_location = strstr(app_led_inbox,"ON");        
 162              		.loc 1 35 0
 163 006e 1E49     		ldr	r1, .L5+8
 164 0070 1E48     		ldr	r0, .L5+12
 165 0072 FFF7FEFF 		bl	strstr
 166 0076 B862     		str	r0, [r7, #40]
  36:App_LED.c     ****     if(compare_location!=NULL){
 167              		.loc 1 36 0
 168 0078 BB6A     		ldr	r3, [r7, #40]
 169 007a 002B     		cmp	r3, #0
 170 007c 11D0     		beq	.L2
  37:App_LED.c     ****         LED_Write(1u);
 171              		.loc 1 37 0
 172 007e 0120     		movs	r0, #1
 173 0080 FFF7FEFF 		bl	LED_Write
  38:App_LED.c     ****         app_led_inbox[0] = '\0';
 174              		.loc 1 38 0
 175 0084 194B     		ldr	r3, .L5+12
 176 0086 0022     		movs	r2, #0
ARM GAS  C:\Users\klabu\AppData\Local\Temp\cclBK9ZD.s 			page 5


 177 0088 1A70     		strb	r2, [r3]
  39:App_LED.c     ****         pushData("App_LED_State", "1", getTimeStamp());
 178              		.loc 1 39 0
 179 008a FFF7FEFF 		bl	getTimeStamp
 180 008e 0346     		mov	r3, r0
 181 0090 1A46     		mov	r2, r3
 182 0092 1749     		ldr	r1, .L5+16
 183 0094 1248     		ldr	r0, .L5
 184 0096 FFF7FEFF 		bl	pushData
  40:App_LED.c     ****         printNotif(NOTIF_TYPE_EVENT,"\n\n------------  BLINK ON ---------------\n\n");   
 185              		.loc 1 40 0
 186 009a 1649     		ldr	r1, .L5+20
 187 009c 0020     		movs	r0, #0
 188 009e FFF7FEFF 		bl	printNotif
 189              	.L2:
  41:App_LED.c     ****     }
  42:App_LED.c     ****     
  43:App_LED.c     ****     compare_location = strstr(app_led_inbox,"OFF");        
 190              		.loc 1 43 0
 191 00a2 1549     		ldr	r1, .L5+24
 192 00a4 1148     		ldr	r0, .L5+12
 193 00a6 FFF7FEFF 		bl	strstr
 194 00aa B862     		str	r0, [r7, #40]
  44:App_LED.c     ****     if(compare_location!=NULL){
 195              		.loc 1 44 0
 196 00ac BB6A     		ldr	r3, [r7, #40]
 197 00ae 002B     		cmp	r3, #0
 198 00b0 11D0     		beq	.L3
  45:App_LED.c     ****         LED_Write(0u);
 199              		.loc 1 45 0
 200 00b2 0020     		movs	r0, #0
 201 00b4 FFF7FEFF 		bl	LED_Write
  46:App_LED.c     ****         app_led_inbox[0] = '\0';
 202              		.loc 1 46 0
 203 00b8 0C4B     		ldr	r3, .L5+12
 204 00ba 0022     		movs	r2, #0
 205 00bc 1A70     		strb	r2, [r3]
  47:App_LED.c     ****         pushData("App_LED_State", "0", getTimeStamp());
 206              		.loc 1 47 0
 207 00be FFF7FEFF 		bl	getTimeStamp
 208 00c2 0346     		mov	r3, r0
 209 00c4 1A46     		mov	r2, r3
 210 00c6 0D49     		ldr	r1, .L5+28
 211 00c8 0548     		ldr	r0, .L5
 212 00ca FFF7FEFF 		bl	pushData
  48:App_LED.c     ****         printNotif(NOTIF_TYPE_EVENT,"\n\n------------  BLINK OFF ---------------\n\n");
 213              		.loc 1 48 0
 214 00ce 0C49     		ldr	r1, .L5+32
 215 00d0 0020     		movs	r0, #0
 216 00d2 FFF7FEFF 		bl	printNotif
 217              	.L3:
  49:App_LED.c     ****     }
  50:App_LED.c     ****     return 0u;
 218              		.loc 1 50 0
 219 00d6 0023     		movs	r3, #0
  51:App_LED.c     **** }
 220              		.loc 1 51 0
ARM GAS  C:\Users\klabu\AppData\Local\Temp\cclBK9ZD.s 			page 6


 221 00d8 1846     		mov	r0, r3
 222 00da 3037     		adds	r7, r7, #48
 223              		.cfi_def_cfa_offset 16
 224 00dc BD46     		mov	sp, r7
 225              		.cfi_def_cfa_register 13
 226              		@ sp needed
 227 00de B0BD     		pop	{r4, r5, r7, pc}
 228              	.L6:
 229              		.align	2
 230              	.L5:
 231 00e0 00000000 		.word	.LC0
 232 00e4 10000000 		.word	.LC1
 233 00e8 20000000 		.word	.LC2
 234 00ec 00000000 		.word	app_led_inbox
 235 00f0 24000000 		.word	.LC3
 236 00f4 28000000 		.word	.LC4
 237 00f8 54000000 		.word	.LC5
 238 00fc 58000000 		.word	.LC6
 239 0100 5C000000 		.word	.LC7
 240              		.cfi_endproc
 241              	.LFE64:
 242              		.size	App_LED, .-App_LED
 243              		.section	.text.App_LED_Update,"ax",%progbits
 244              		.align	2
 245              		.global	App_LED_Update
 246              		.thumb
 247              		.thumb_func
 248              		.type	App_LED_Update, %function
 249              	App_LED_Update:
 250              	.LFB65:
  52:App_LED.c     **** 
  53:App_LED.c     **** void App_LED_Update(char * message){
 251              		.loc 1 53 0
 252              		.cfi_startproc
 253              		@ args = 0, pretend = 0, frame = 8
 254              		@ frame_needed = 1, uses_anonymous_args = 0
 255 0000 80B5     		push	{r7, lr}
 256              		.cfi_def_cfa_offset 8
 257              		.cfi_offset 7, -8
 258              		.cfi_offset 14, -4
 259 0002 82B0     		sub	sp, sp, #8
 260              		.cfi_def_cfa_offset 16
 261 0004 00AF     		add	r7, sp, #0
 262              		.cfi_def_cfa_register 7
 263 0006 7860     		str	r0, [r7, #4]
  54:App_LED.c     ****     strcpy(app_led_inbox, message);
 264              		.loc 1 54 0
 265 0008 7968     		ldr	r1, [r7, #4]
 266 000a 0348     		ldr	r0, .L8
 267 000c FFF7FEFF 		bl	strcpy
  55:App_LED.c     **** }
 268              		.loc 1 55 0
 269 0010 00BF     		nop
 270 0012 0837     		adds	r7, r7, #8
 271              		.cfi_def_cfa_offset 8
 272 0014 BD46     		mov	sp, r7
 273              		.cfi_def_cfa_register 13
ARM GAS  C:\Users\klabu\AppData\Local\Temp\cclBK9ZD.s 			page 7


 274              		@ sp needed
 275 0016 80BD     		pop	{r7, pc}
 276              	.L9:
 277              		.align	2
 278              	.L8:
 279 0018 00000000 		.word	app_led_inbox
 280              		.cfi_endproc
 281              	.LFE65:
 282              		.size	App_LED_Update, .-App_LED_Update
 283              		.text
 284              	.Letext0:
 285              		.file 2 "c:\\program files (x86)\\cypress\\psoc creator\\4.4\\psoc creator\\import\\gnu\\arm\\5.4.
 286              		.file 3 "c:\\program files (x86)\\cypress\\psoc creator\\4.4\\psoc creator\\import\\gnu\\arm\\5.4.
 287              		.file 4 "Generated_Source\\PSoC5/cytypes.h"
 288              		.file 5 "data.h"
 289              		.file 6 "modem.h"
 290              		.file 7 "notoriOS.h"
 291              		.file 8 "Generated_Source\\PSoC5/core_cm3.h"
 292              		.file 9 "App_LED.h"
 293              		.file 10 "level_sensor.h"
 294              		.file 11 "downstream_level_sensor.h"
 295              		.file 12 "valve.h"
 296              		.file 13 "autosampler.h"