ARM GAS  C:\Users\klabu\AppData\Local\Temp\ccpPcDql.s 			page 1


   1              		.syntax unified
   2              		.cpu cortex-m3
   3              		.fpu softvfp
   4              		.eabi_attribute 20, 1
   5              		.eabi_attribute 21, 1
   6              		.eabi_attribute 23, 3
   7              		.eabi_attribute 24, 1
   8              		.eabi_attribute 25, 1
   9              		.eabi_attribute 26, 1
  10              		.eabi_attribute 30, 6
  11              		.eabi_attribute 34, 1
  12              		.eabi_attribute 18, 4
  13              		.thumb
  14              		.syntax unified
  15              		.file	"autosampler.c"
  16              		.text
  17              	.Ltext0:
  18              		.cfi_sections	.debug_frame
  19              		.comm	buffer_overflow,1,1
  20              		.comm	dataPointsInStack,2,2
  21              		.comm	dataPointsInStackDesired,2,2
  22              		.comm	data,6600,4
  23              		.comm	modem_state,1,1
  24              		.comm	modem_start_time_stamp,4,4
  25              		.comm	modem_info,60,4
  26              		.comm	modem_stats,32,4
  27              		.comm	updatable_parameters,5,4
  28              		.syntax unified
  29              		.global _printf_float
  30              		.thumb
  31              		.syntax unified
  32              		.global	SampleCount
  33              		.bss
  34              		.type	SampleCount, %object
  35              		.size	SampleCount, 1
  36              	SampleCount:
  37 0000 00       		.space	1
  38              		.global	SampleCount1
  39              		.type	SampleCount1, %object
  40              		.size	SampleCount1, 1
  41              	SampleCount1:
  42 0001 00       		.space	1
  43              		.comm	autosampler_state,1,1
  44              		.section	.text.autosampler_start,"ax",%progbits
  45              		.align	2
  46              		.global	autosampler_start
  47              		.thumb
  48              		.thumb_func
  49              		.type	autosampler_start, %function
  50              	autosampler_start:
  51              	.LFB64:
  52              		.file 1 "autosampler.c"
   1:autosampler.c **** /**
   2:autosampler.c ****  * @file autosampler.c
   3:autosampler.c ****  * @brief Implements functions for ISCO autosampler
   4:autosampler.c ****  * @author Brandon Wong, Matt Bartos, and Meagan Tobias
   5:autosampler.c ****  * @version TODO
ARM GAS  C:\Users\klabu\AppData\Local\Temp\ccpPcDql.s 			page 2


   6:autosampler.c ****  * @date 2021-04-06
   7:autosampler.c ****  */
   8:autosampler.c **** 
   9:autosampler.c **** #include "autosampler.h"
  10:autosampler.c **** #include "debug.h"
  11:autosampler.c **** 
  12:autosampler.c **** // prototype bottle_count interrupt  isr_SamplerCounter is the address of the function to run when 
  13:autosampler.c **** CY_ISR_PROTO(isr_SampleCounter);
  14:autosampler.c **** 
  15:autosampler.c **** // Declare variables
  16:autosampler.c **** uint8 SampleCount = 0, SampleCount1 = 0, autosampler_state;;
  17:autosampler.c **** 
  18:autosampler.c **** void autosampler_start(){
  53              		.loc 1 18 0
  54              		.cfi_startproc
  55              		@ args = 0, pretend = 0, frame = 0
  56              		@ frame_needed = 1, uses_anonymous_args = 0
  57 0000 80B5     		push	{r7, lr}
  58              		.cfi_def_cfa_offset 8
  59              		.cfi_offset 7, -8
  60              		.cfi_offset 14, -4
  61 0002 00AF     		add	r7, sp, #0
  62              		.cfi_def_cfa_register 7
  19:autosampler.c ****     isr_SampleCounter_StartEx(isr_SampleCounter);       //  start isr to count bottle number and ru
  63              		.loc 1 19 0
  64 0004 0448     		ldr	r0, .L2
  65 0006 FFF7FEFF 		bl	isr_SampleCounter_StartEx
  20:autosampler.c ****     BottleCounter_Start();
  66              		.loc 1 20 0
  67 000a FFF7FEFF 		bl	BottleCounter_Start
  21:autosampler.c ****     autosampler_state = AUTOSAMPLER_STATE_OFF;
  68              		.loc 1 21 0
  69 000e 034B     		ldr	r3, .L2+4
  70 0010 0022     		movs	r2, #0
  71 0012 1A70     		strb	r2, [r3]
  22:autosampler.c ****     
  23:autosampler.c **** }
  72              		.loc 1 23 0
  73 0014 00BF     		nop
  74 0016 80BD     		pop	{r7, pc}
  75              	.L3:
  76              		.align	2
  77              	.L2:
  78 0018 00000000 		.word	isr_SampleCounter
  79 001c 00000000 		.word	autosampler_state
  80              		.cfi_endproc
  81              	.LFE64:
  82              		.size	autosampler_start, .-autosampler_start
  83              		.section	.text.autosampler_stop,"ax",%progbits
  84              		.align	2
  85              		.global	autosampler_stop
  86              		.thumb
  87              		.thumb_func
  88              		.type	autosampler_stop, %function
  89              	autosampler_stop:
  90              	.LFB65:
  24:autosampler.c **** 
ARM GAS  C:\Users\klabu\AppData\Local\Temp\ccpPcDql.s 			page 3


  25:autosampler.c **** void autosampler_stop() {
  91              		.loc 1 25 0
  92              		.cfi_startproc
  93              		@ args = 0, pretend = 0, frame = 0
  94              		@ frame_needed = 1, uses_anonymous_args = 0
  95 0000 80B5     		push	{r7, lr}
  96              		.cfi_def_cfa_offset 8
  97              		.cfi_offset 7, -8
  98              		.cfi_offset 14, -4
  99 0002 00AF     		add	r7, sp, #0
 100              		.cfi_def_cfa_register 7
  26:autosampler.c ****     isr_SampleCounter_Stop();
 101              		.loc 1 26 0
 102 0004 FFF7FEFF 		bl	isr_SampleCounter_Stop
  27:autosampler.c ****     BottleCounter_Stop();
 103              		.loc 1 27 0
 104 0008 FFF7FEFF 		bl	BottleCounter_Stop
  28:autosampler.c ****     autosampler_state = AUTOSAMPLER_STATE_OFF;
 105              		.loc 1 28 0
 106 000c 024B     		ldr	r3, .L5
 107 000e 0022     		movs	r2, #0
 108 0010 1A70     		strb	r2, [r3]
  29:autosampler.c **** }
 109              		.loc 1 29 0
 110 0012 00BF     		nop
 111 0014 80BD     		pop	{r7, pc}
 112              	.L6:
 113 0016 00BF     		.align	2
 114              	.L5:
 115 0018 00000000 		.word	autosampler_state
 116              		.cfi_endproc
 117              	.LFE65:
 118              		.size	autosampler_stop, .-autosampler_stop
 119              		.section	.text.autosampler_power_on,"ax",%progbits
 120              		.align	2
 121              		.global	autosampler_power_on
 122              		.thumb
 123              		.thumb_func
 124              		.type	autosampler_power_on, %function
 125              	autosampler_power_on:
 126              	.LFB66:
  30:autosampler.c **** 
  31:autosampler.c **** /*
  32:autosampler.c **** Start the autosampler.  Then power it on.
  33:autosampler.c **** */
  34:autosampler.c **** void autosampler_power_on() {
 127              		.loc 1 34 0
 128              		.cfi_startproc
 129              		@ args = 0, pretend = 0, frame = 0
 130              		@ frame_needed = 1, uses_anonymous_args = 0
 131 0000 80B5     		push	{r7, lr}
 132              		.cfi_def_cfa_offset 8
 133              		.cfi_offset 7, -8
 134              		.cfi_offset 14, -4
 135 0002 00AF     		add	r7, sp, #0
 136              		.cfi_def_cfa_register 7
  35:autosampler.c ****     Pin_Sampler_Power_Write(1u);
ARM GAS  C:\Users\klabu\AppData\Local\Temp\ccpPcDql.s 			page 4


 137              		.loc 1 35 0
 138 0004 0120     		movs	r0, #1
 139 0006 FFF7FEFF 		bl	Pin_Sampler_Power_Write
  36:autosampler.c ****     CyDelay(1000u);//give the sampler time to boot
 140              		.loc 1 36 0
 141 000a 4FF47A70 		mov	r0, #1000
 142 000e FFF7FEFF 		bl	CyDelay
  37:autosampler.c ****     
  38:autosampler.c ****     autosampler_state = AUTOSAMPLER_STATE_IDLE;
 143              		.loc 1 38 0
 144 0012 024B     		ldr	r3, .L8
 145 0014 0122     		movs	r2, #1
 146 0016 1A70     		strb	r2, [r3]
  39:autosampler.c **** }
 147              		.loc 1 39 0
 148 0018 00BF     		nop
 149 001a 80BD     		pop	{r7, pc}
 150              	.L9:
 151              		.align	2
 152              	.L8:
 153 001c 00000000 		.word	autosampler_state
 154              		.cfi_endproc
 155              	.LFE66:
 156              		.size	autosampler_power_on, .-autosampler_power_on
 157              		.section	.text.autosampler_power_off,"ax",%progbits
 158              		.align	2
 159              		.global	autosampler_power_off
 160              		.thumb
 161              		.thumb_func
 162              		.type	autosampler_power_off, %function
 163              	autosampler_power_off:
 164              	.LFB67:
  40:autosampler.c **** 
  41:autosampler.c **** void autosampler_power_off() {
 165              		.loc 1 41 0
 166              		.cfi_startproc
 167              		@ args = 0, pretend = 0, frame = 0
 168              		@ frame_needed = 1, uses_anonymous_args = 0
 169 0000 80B5     		push	{r7, lr}
 170              		.cfi_def_cfa_offset 8
 171              		.cfi_offset 7, -8
 172              		.cfi_offset 14, -4
 173 0002 00AF     		add	r7, sp, #0
 174              		.cfi_def_cfa_register 7
  42:autosampler.c ****     Pin_Sampler_Power_Write(0u);
 175              		.loc 1 42 0
 176 0004 0020     		movs	r0, #0
 177 0006 FFF7FEFF 		bl	Pin_Sampler_Power_Write
  43:autosampler.c ****     autosampler_state = AUTOSAMPLER_STATE_OFF;
 178              		.loc 1 43 0
 179 000a 024B     		ldr	r3, .L11
 180 000c 0022     		movs	r2, #0
 181 000e 1A70     		strb	r2, [r3]
  44:autosampler.c **** }
 182              		.loc 1 44 0
 183 0010 00BF     		nop
 184 0012 80BD     		pop	{r7, pc}
ARM GAS  C:\Users\klabu\AppData\Local\Temp\ccpPcDql.s 			page 5


 185              	.L12:
 186              		.align	2
 187              	.L11:
 188 0014 00000000 		.word	autosampler_state
 189              		.cfi_endproc
 190              	.LFE67:
 191              		.size	autosampler_power_off, .-autosampler_power_off
 192              		.section	.rodata
 193              		.align	2
 194              	.LC0:
 195 0000 256C6400 		.ascii	"%ld\000"
 196              		.align	2
 197              	.LC1:
 198 0004 256400   		.ascii	"%d\000"
 199 0007 00       		.align	2
 200              	.LC2:
 201 0008 626F7474 		.ascii	"bottle_count=%s\000"
 201      6C655F63 
 201      6F756E74 
 201      3D257300 
 202              		.section	.text.autosampler_take_sample,"ax",%progbits
 203              		.align	2
 204              		.global	autosampler_take_sample
 205              		.thumb
 206              		.thumb_func
 207              		.type	autosampler_take_sample, %function
 208              	autosampler_take_sample:
 209              	.LFB68:
  45:autosampler.c **** 
  46:autosampler.c **** uint8 autosampler_take_sample(uint8 *count){
 210              		.loc 1 46 0
 211              		.cfi_startproc
 212              		@ args = 0, pretend = 0, frame = 80
 213              		@ frame_needed = 1, uses_anonymous_args = 0
 214 0000 80B5     		push	{r7, lr}
 215              		.cfi_def_cfa_offset 8
 216              		.cfi_offset 7, -8
 217              		.cfi_offset 14, -4
 218 0002 94B0     		sub	sp, sp, #80
 219              		.cfi_def_cfa_offset 88
 220 0004 00AF     		add	r7, sp, #0
 221              		.cfi_def_cfa_register 7
 222 0006 7860     		str	r0, [r7, #4]
  47:autosampler.c ****     uint8 count2 = 0;
 223              		.loc 1 47 0
 224 0008 0023     		movs	r3, #0
 225 000a 87F84B30 		strb	r3, [r7, #75]
  48:autosampler.c ****     
  49:autosampler.c ****     autosampler_start();
 226              		.loc 1 49 0
 227 000e FFF7FEFF 		bl	autosampler_start
  50:autosampler.c ****     autosampler_power_on();    
 228              		.loc 1 50 0
 229 0012 FFF7FEFF 		bl	autosampler_power_on
  51:autosampler.c ****         
  52:autosampler.c ****     if (*count >= MAX_BOTTLE_COUNT) {        
 230              		.loc 1 52 0
ARM GAS  C:\Users\klabu\AppData\Local\Temp\ccpPcDql.s 			page 6


 231 0016 7B68     		ldr	r3, [r7, #4]
 232 0018 1B78     		ldrb	r3, [r3]	@ zero_extendqisi2
 233 001a 172B     		cmp	r3, #23
 234 001c 01D9     		bls	.L14
  53:autosampler.c ****         return 0;
 235              		.loc 1 53 0
 236 001e 0023     		movs	r3, #0
 237 0020 85E0     		b	.L26
 238              	.L14:
  54:autosampler.c ****     }
  55:autosampler.c ****     
  56:autosampler.c ****     uint32 i = 0u, delay = 100u, interval;
 239              		.loc 1 56 0
 240 0022 0023     		movs	r3, #0
 241 0024 FB64     		str	r3, [r7, #76]
 242 0026 6423     		movs	r3, #100
 243 0028 7B64     		str	r3, [r7, #68]
  57:autosampler.c ****     
  58:autosampler.c ****     // Reset the bottle Counter
  59:autosampler.c ****     BottleCounter_WriteCounter(0u);
 244              		.loc 1 59 0
 245 002a 0020     		movs	r0, #0
 246 002c FFF7FEFF 		bl	BottleCounter_WriteCounter
  60:autosampler.c ****     autosampler_state = AUTOSAMPLER_STATE_BUSY;
 247              		.loc 1 60 0
 248 0030 414B     		ldr	r3, .L29
 249 0032 0222     		movs	r2, #2
 250 0034 1A70     		strb	r2, [r3]
  61:autosampler.c ****             
  62:autosampler.c ****     // Send PULSE_COUNT pulses @ 10Hz to trigger sampler
  63:autosampler.c ****     for(i=0; i < PULSE_COUNT; i++){
 251              		.loc 1 63 0
 252 0036 0023     		movs	r3, #0
 253 0038 FB64     		str	r3, [r7, #76]
 254 003a 0EE0     		b	.L16
 255              	.L17:
  64:autosampler.c ****         Pin_Sampler_Trigger_Write(1u);
 256              		.loc 1 64 0 discriminator 3
 257 003c 0120     		movs	r0, #1
 258 003e FFF7FEFF 		bl	Pin_Sampler_Trigger_Write
  65:autosampler.c ****         CyDelay(100u);
 259              		.loc 1 65 0 discriminator 3
 260 0042 6420     		movs	r0, #100
 261 0044 FFF7FEFF 		bl	CyDelay
  66:autosampler.c ****         Pin_Sampler_Trigger_Write(0u);
 262              		.loc 1 66 0 discriminator 3
 263 0048 0020     		movs	r0, #0
 264 004a FFF7FEFF 		bl	Pin_Sampler_Trigger_Write
  67:autosampler.c ****         CyDelay(100u);
 265              		.loc 1 67 0 discriminator 3
 266 004e 6420     		movs	r0, #100
 267 0050 FFF7FEFF 		bl	CyDelay
  63:autosampler.c ****         Pin_Sampler_Trigger_Write(1u);
 268              		.loc 1 63 0 discriminator 3
 269 0054 FB6C     		ldr	r3, [r7, #76]
 270 0056 0133     		adds	r3, r3, #1
 271 0058 FB64     		str	r3, [r7, #76]
ARM GAS  C:\Users\klabu\AppData\Local\Temp\ccpPcDql.s 			page 7


 272              	.L16:
  63:autosampler.c ****         Pin_Sampler_Trigger_Write(1u);
 273              		.loc 1 63 0 is_stmt 0 discriminator 1
 274 005a FB6C     		ldr	r3, [r7, #76]
 275 005c 122B     		cmp	r3, #18
 276 005e EDD9     		bls	.L17
  68:autosampler.c ****     }
  69:autosampler.c ****     
  70:autosampler.c ****     interval =  2u*60*1000/delay;           // Wait Max of 2 Minutes for distributor arm to move
 277              		.loc 1 70 0 is_stmt 1
 278 0060 364A     		ldr	r2, .L29+4
 279 0062 7B6C     		ldr	r3, [r7, #68]
 280 0064 B2FBF3F3 		udiv	r3, r2, r3
 281 0068 3B64     		str	r3, [r7, #64]
  71:autosampler.c ****     
  72:autosampler.c ****     for (i = 0; i < interval ; i++) {  
 282              		.loc 1 72 0
 283 006a 0023     		movs	r3, #0
 284 006c FB64     		str	r3, [r7, #76]
 285 006e 0AE0     		b	.L18
 286              	.L21:
  73:autosampler.c ****         CyDelay(delay);
 287              		.loc 1 73 0
 288 0070 786C     		ldr	r0, [r7, #68]
 289 0072 FFF7FEFF 		bl	CyDelay
  74:autosampler.c ****         if (Pin_Sampler_Completed_Sample_Read()!=0) { // Event pin on autosampler is HI
 290              		.loc 1 74 0
 291 0076 FFF7FEFF 		bl	Pin_Sampler_Completed_Sample_Read
 292 007a 0346     		mov	r3, r0
 293 007c 002B     		cmp	r3, #0
 294 007e 07D1     		bne	.L27
  72:autosampler.c ****         CyDelay(delay);
 295              		.loc 1 72 0 discriminator 2
 296 0080 FB6C     		ldr	r3, [r7, #76]
 297 0082 0133     		adds	r3, r3, #1
 298 0084 FB64     		str	r3, [r7, #76]
 299              	.L18:
  72:autosampler.c ****         CyDelay(delay);
 300              		.loc 1 72 0 is_stmt 0 discriminator 1
 301 0086 FA6C     		ldr	r2, [r7, #76]
 302 0088 3B6C     		ldr	r3, [r7, #64]
 303 008a 9A42     		cmp	r2, r3
 304 008c F0D3     		bcc	.L21
 305 008e 00E0     		b	.L20
 306              	.L27:
  75:autosampler.c ****             break;
 307              		.loc 1 75 0 is_stmt 1
 308 0090 00BF     		nop
 309              	.L20:
  76:autosampler.c ****         }
  77:autosampler.c ****     }
  78:autosampler.c ****     
  79:autosampler.c ****     
  80:autosampler.c ****     if (Pin_Sampler_Completed_Sample_Read() != 0) {
 310              		.loc 1 80 0
 311 0092 FFF7FEFF 		bl	Pin_Sampler_Completed_Sample_Read
 312 0096 0346     		mov	r3, r0
ARM GAS  C:\Users\klabu\AppData\Local\Temp\ccpPcDql.s 			page 8


 313 0098 002B     		cmp	r3, #0
 314 009a 1ED0     		beq	.L22
  81:autosampler.c ****         
  82:autosampler.c ****         interval =  4u*60*1000/delay;       // Wait Max of 4 Minutes for pumping to complete -- is 
 315              		.loc 1 82 0
 316 009c 284A     		ldr	r2, .L29+8
 317 009e 7B6C     		ldr	r3, [r7, #68]
 318 00a0 B2FBF3F3 		udiv	r3, r2, r3
 319 00a4 3B64     		str	r3, [r7, #64]
  83:autosampler.c ****         interval = 5u*100/delay; //wait 0.5 second for pumping to compelete FOR TESTING ONLY
 320              		.loc 1 83 0
 321 00a6 4FF4FA72 		mov	r2, #500
 322 00aa 7B6C     		ldr	r3, [r7, #68]
 323 00ac B2FBF3F3 		udiv	r3, r2, r3
 324 00b0 3B64     		str	r3, [r7, #64]
  84:autosampler.c ****         for (i = 0; i < interval ; i++) { 
 325              		.loc 1 84 0
 326 00b2 0023     		movs	r3, #0
 327 00b4 FB64     		str	r3, [r7, #76]
 328 00b6 0AE0     		b	.L23
 329              	.L25:
  85:autosampler.c ****             CyDelay(delay);
 330              		.loc 1 85 0
 331 00b8 786C     		ldr	r0, [r7, #68]
 332 00ba FFF7FEFF 		bl	CyDelay
  86:autosampler.c ****             if (Pin_Sampler_Completed_Sample_Read()==0) { // Event pin on autosampler is HI
 333              		.loc 1 86 0
 334 00be FFF7FEFF 		bl	Pin_Sampler_Completed_Sample_Read
 335 00c2 0346     		mov	r3, r0
 336 00c4 002B     		cmp	r3, #0
 337 00c6 07D0     		beq	.L28
  84:autosampler.c ****         for (i = 0; i < interval ; i++) { 
 338              		.loc 1 84 0 discriminator 2
 339 00c8 FB6C     		ldr	r3, [r7, #76]
 340 00ca 0133     		adds	r3, r3, #1
 341 00cc FB64     		str	r3, [r7, #76]
 342              	.L23:
  84:autosampler.c ****         for (i = 0; i < interval ; i++) { 
 343              		.loc 1 84 0 is_stmt 0 discriminator 1
 344 00ce FA6C     		ldr	r2, [r7, #76]
 345 00d0 3B6C     		ldr	r3, [r7, #64]
 346 00d2 9A42     		cmp	r2, r3
 347 00d4 F0D3     		bcc	.L25
 348 00d6 00E0     		b	.L22
 349              	.L28:
  87:autosampler.c ****                 break;
 350              		.loc 1 87 0 is_stmt 1
 351 00d8 00BF     		nop
 352              	.L22:
  88:autosampler.c ****             }
  89:autosampler.c ****         }
  90:autosampler.c ****     }
  91:autosampler.c ****     
  92:autosampler.c ****     autosampler_state = AUTOSAMPLER_STATE_IDLE;
 353              		.loc 1 92 0
 354 00da 174B     		ldr	r3, .L29
 355 00dc 0122     		movs	r2, #1
ARM GAS  C:\Users\klabu\AppData\Local\Temp\ccpPcDql.s 			page 9


 356 00de 1A70     		strb	r2, [r3]
  93:autosampler.c ****     
  94:autosampler.c ****     //*count = BottleCount_Read(); //this function throws and error
  95:autosampler.c ****     count2 = BottleCounter_ReadCounter(); //set count2 equal to the number of pulses sent for bottl
 357              		.loc 1 95 0
 358 00e0 FFF7FEFF 		bl	BottleCounter_ReadCounter
 359 00e4 0346     		mov	r3, r0
 360 00e6 87F84B30 		strb	r3, [r7, #75]
  96:autosampler.c ****     *count = count2;
 361              		.loc 1 96 0
 362 00ea 7B68     		ldr	r3, [r7, #4]
 363 00ec 97F84B20 		ldrb	r2, [r7, #75]
 364 00f0 1A70     		strb	r2, [r3]
  97:autosampler.c ****                                                   
  98:autosampler.c ****         autosampler_power_off(); 
 365              		.loc 1 98 0
 366 00f2 FFF7FEFF 		bl	autosampler_power_off
  99:autosampler.c ****         autosampler_stop();
 367              		.loc 1 99 0
 368 00f6 FFF7FEFF 		bl	autosampler_stop
 100:autosampler.c ****     //to bypass everything and just get bottle countss
 101:autosampler.c ****     // Get clock time and save to timeStamp
 102:autosampler.c ****     long timeStamp = getTimeStamp();
 369              		.loc 1 102 0
 370 00fa FFF7FEFF 		bl	getTimeStamp
 371 00fe F863     		str	r0, [r7, #60]
 103:autosampler.c ****     char c_timeStamp[32];
 104:autosampler.c ****     snprintf(c_timeStamp,sizeof(c_timeStamp),"%ld",timeStamp);
 372              		.loc 1 104 0
 373 0100 07F11C00 		add	r0, r7, #28
 374 0104 FB6B     		ldr	r3, [r7, #60]
 375 0106 0F4A     		ldr	r2, .L29+12
 376 0108 2021     		movs	r1, #32
 377 010a FFF7FEFF 		bl	snprintf
 105:autosampler.c ****     
 106:autosampler.c ****     // Holds string for value that will be written 
 107:autosampler.c ****     char value[DATA_MAX_KEY_LENGTH];
 108:autosampler.c ****     snprintf(value,sizeof(value),"%d",count2);
 378              		.loc 1 108 0
 379 010e 97F84B30 		ldrb	r3, [r7, #75]	@ zero_extendqisi2
 380 0112 07F10800 		add	r0, r7, #8
 381 0116 0C4A     		ldr	r2, .L29+16
 382 0118 1421     		movs	r1, #20
 383 011a FFF7FEFF 		bl	snprintf
 109:autosampler.c ****      printNotif(NOTIF_TYPE_EVENT,"bottle_count=%s",value);
 384              		.loc 1 109 0
 385 011e 07F10803 		add	r3, r7, #8
 386 0122 1A46     		mov	r2, r3
 387 0124 0949     		ldr	r1, .L29+20
 388 0126 0020     		movs	r0, #0
 389 0128 FFF7FEFF 		bl	printNotif
 110:autosampler.c ****     return 1u;
 390              		.loc 1 110 0
 391 012c 0123     		movs	r3, #1
 392              	.L26:
 111:autosampler.c **** }
 393              		.loc 1 111 0 discriminator 1
ARM GAS  C:\Users\klabu\AppData\Local\Temp\ccpPcDql.s 			page 10


 394 012e 1846     		mov	r0, r3
 395 0130 5037     		adds	r7, r7, #80
 396              		.cfi_def_cfa_offset 8
 397 0132 BD46     		mov	sp, r7
 398              		.cfi_def_cfa_register 13
 399              		@ sp needed
 400 0134 80BD     		pop	{r7, pc}
 401              	.L30:
 402 0136 00BF     		.align	2
 403              	.L29:
 404 0138 00000000 		.word	autosampler_state
 405 013c C0D40100 		.word	120000
 406 0140 80A90300 		.word	240000
 407 0144 00000000 		.word	.LC0
 408 0148 04000000 		.word	.LC1
 409 014c 08000000 		.word	.LC2
 410              		.cfi_endproc
 411              	.LFE68:
 412              		.size	autosampler_take_sample, .-autosampler_take_sample
 413              		.section	.rodata
 414              		.align	2
 415              	.LC3:
 416 0018 6175746F 		.ascii	"autosampler_trigger\000"
 416      73616D70 
 416      6C65725F 
 416      74726967 
 416      67657200 
 417              		.align	2
 418              	.LC4:
 419 002c 6973636F 		.ascii	"isco_bottle\000"
 419      5F626F74 
 419      746C6500 
 420              		.global	__aeabi_ui2f
 421              		.section	.text.zip_autosampler,"ax",%progbits
 422              		.align	2
 423              		.global	zip_autosampler
 424              		.thumb
 425              		.thumb_func
 426              		.type	zip_autosampler, %function
 427              	zip_autosampler:
 428              	.LFB69:
 112:autosampler.c **** 
 113:autosampler.c **** uint8 zip_autosampler(char *labels[], float readings[], uint8 *array_ix, int *autosampler_trigger, 
 429              		.loc 1 113 0
 430              		.cfi_startproc
 431              		@ args = 8, pretend = 0, frame = 24
 432              		@ frame_needed = 1, uses_anonymous_args = 0
 433 0000 90B5     		push	{r4, r7, lr}
 434              		.cfi_def_cfa_offset 12
 435              		.cfi_offset 4, -12
 436              		.cfi_offset 7, -8
 437              		.cfi_offset 14, -4
 438 0002 87B0     		sub	sp, sp, #28
 439              		.cfi_def_cfa_offset 40
 440 0004 00AF     		add	r7, sp, #0
 441              		.cfi_def_cfa_register 7
 442 0006 F860     		str	r0, [r7, #12]
ARM GAS  C:\Users\klabu\AppData\Local\Temp\ccpPcDql.s 			page 11


 443 0008 B960     		str	r1, [r7, #8]
 444 000a 7A60     		str	r2, [r7, #4]
 445 000c 3B60     		str	r3, [r7]
 114:autosampler.c ****     // Ensure we don't access nonexistent array index
 115:autosampler.c ****     uint8 nvars = 2;
 446              		.loc 1 115 0
 447 000e 0223     		movs	r3, #2
 448 0010 FB75     		strb	r3, [r7, #23]
 116:autosampler.c ****     if(*array_ix + nvars >= max_size){
 449              		.loc 1 116 0
 450 0012 7B68     		ldr	r3, [r7, #4]
 451 0014 1B78     		ldrb	r3, [r3]	@ zero_extendqisi2
 452 0016 1A46     		mov	r2, r3
 453 0018 FB7D     		ldrb	r3, [r7, #23]	@ zero_extendqisi2
 454 001a 1A44     		add	r2, r2, r3
 455 001c 97F82C30 		ldrb	r3, [r7, #44]	@ zero_extendqisi2
 456 0020 9A42     		cmp	r2, r3
 457 0022 02DB     		blt	.L32
 117:autosampler.c ****         return *array_ix;
 458              		.loc 1 117 0
 459 0024 7B68     		ldr	r3, [r7, #4]
 460 0026 1B78     		ldrb	r3, [r3]	@ zero_extendqisi2
 461 0028 4CE0     		b	.L33
 462              	.L32:
 118:autosampler.c ****     }
 119:autosampler.c ****     (*autosampler_trigger) = 0u; // Update the value locally
 463              		.loc 1 119 0
 464 002a 3B68     		ldr	r3, [r7]
 465 002c 0022     		movs	r2, #0
 466 002e 1A60     		str	r2, [r3]
 120:autosampler.c ****     labels[*array_ix] = "autosampler_trigger"; // Update the database
 467              		.loc 1 120 0
 468 0030 7B68     		ldr	r3, [r7, #4]
 469 0032 1B78     		ldrb	r3, [r3]	@ zero_extendqisi2
 470 0034 9B00     		lsls	r3, r3, #2
 471 0036 FA68     		ldr	r2, [r7, #12]
 472 0038 1344     		add	r3, r3, r2
 473 003a 244A     		ldr	r2, .L37
 474 003c 1A60     		str	r2, [r3]
 121:autosampler.c ****     readings[*array_ix] = 0;
 475              		.loc 1 121 0
 476 003e 7B68     		ldr	r3, [r7, #4]
 477 0040 1B78     		ldrb	r3, [r3]	@ zero_extendqisi2
 478 0042 9B00     		lsls	r3, r3, #2
 479 0044 BA68     		ldr	r2, [r7, #8]
 480 0046 1344     		add	r3, r3, r2
 481 0048 4FF00002 		mov	r2, #0
 482 004c 1A60     		str	r2, [r3]	@ float
 122:autosampler.c ****     (*array_ix)++;
 483              		.loc 1 122 0
 484 004e 7B68     		ldr	r3, [r7, #4]
 485 0050 1B78     		ldrb	r3, [r3]	@ zero_extendqisi2
 486 0052 0133     		adds	r3, r3, #1
 487 0054 DAB2     		uxtb	r2, r3
 488 0056 7B68     		ldr	r3, [r7, #4]
 489 0058 1A70     		strb	r2, [r3]
 123:autosampler.c ****         
ARM GAS  C:\Users\klabu\AppData\Local\Temp\ccpPcDql.s 			page 12


 124:autosampler.c ****     if (*bottle_count < MAX_BOTTLE_COUNT) {
 490              		.loc 1 124 0
 491 005a BB6A     		ldr	r3, [r7, #40]
 492 005c 1B78     		ldrb	r3, [r3]	@ zero_extendqisi2
 493 005e 172B     		cmp	r3, #23
 494 0060 2ED8     		bhi	.L34
 125:autosampler.c **** 	    labels[*array_ix] = "isco_bottle";
 495              		.loc 1 125 0
 496 0062 7B68     		ldr	r3, [r7, #4]
 497 0064 1B78     		ldrb	r3, [r3]	@ zero_extendqisi2
 498 0066 9B00     		lsls	r3, r3, #2
 499 0068 FA68     		ldr	r2, [r7, #12]
 500 006a 1344     		add	r3, r3, r2
 501 006c 184A     		ldr	r2, .L37+4
 502 006e 1A60     		str	r2, [r3]
 126:autosampler.c ****         autosampler_start();
 503              		.loc 1 126 0
 504 0070 FFF7FEFF 		bl	autosampler_start
 127:autosampler.c ****         autosampler_power_on();                                    
 505              		.loc 1 127 0
 506 0074 FFF7FEFF 		bl	autosampler_power_on
 128:autosampler.c ****         if (autosampler_take_sample(bottle_count) ) {
 507              		.loc 1 128 0
 508 0078 B86A     		ldr	r0, [r7, #40]
 509 007a FFF7FEFF 		bl	autosampler_take_sample
 510 007e 0346     		mov	r3, r0
 511 0080 002B     		cmp	r3, #0
 512 0082 0CD0     		beq	.L35
 129:autosampler.c **** 			readings[*array_ix] = *bottle_count;
 513              		.loc 1 129 0
 514 0084 7B68     		ldr	r3, [r7, #4]
 515 0086 1B78     		ldrb	r3, [r3]	@ zero_extendqisi2
 516 0088 9B00     		lsls	r3, r3, #2
 517 008a BA68     		ldr	r2, [r7, #8]
 518 008c D418     		adds	r4, r2, r3
 519 008e BB6A     		ldr	r3, [r7, #40]
 520 0090 1B78     		ldrb	r3, [r3]	@ zero_extendqisi2
 521 0092 1846     		mov	r0, r3
 522 0094 FFF7FEFF 		bl	__aeabi_ui2f
 523 0098 0346     		mov	r3, r0
 524 009a 2360     		str	r3, [r4]	@ float
 525 009c 06E0     		b	.L36
 526              	.L35:
 130:autosampler.c **** 		}
 131:autosampler.c **** 		else {
 132:autosampler.c **** 			// Use -1 to flag when a triggered sample failed
 133:autosampler.c ****             readings[*array_ix] = -1;
 527              		.loc 1 133 0
 528 009e 7B68     		ldr	r3, [r7, #4]
 529 00a0 1B78     		ldrb	r3, [r3]	@ zero_extendqisi2
 530 00a2 9B00     		lsls	r3, r3, #2
 531 00a4 BA68     		ldr	r2, [r7, #8]
 532 00a6 1344     		add	r3, r3, r2
 533 00a8 0A4A     		ldr	r2, .L37+8
 534 00aa 1A60     		str	r2, [r3]	@ float
 535              	.L36:
 134:autosampler.c **** 		}                        
ARM GAS  C:\Users\klabu\AppData\Local\Temp\ccpPcDql.s 			page 13


 135:autosampler.c ****         autosampler_power_off(); 
 536              		.loc 1 135 0
 537 00ac FFF7FEFF 		bl	autosampler_power_off
 136:autosampler.c ****         autosampler_stop();
 538              		.loc 1 136 0
 539 00b0 FFF7FEFF 		bl	autosampler_stop
 137:autosampler.c **** 	    (*array_ix)++;
 540              		.loc 1 137 0
 541 00b4 7B68     		ldr	r3, [r7, #4]
 542 00b6 1B78     		ldrb	r3, [r3]	@ zero_extendqisi2
 543 00b8 0133     		adds	r3, r3, #1
 544 00ba DAB2     		uxtb	r2, r3
 545 00bc 7B68     		ldr	r3, [r7, #4]
 546 00be 1A70     		strb	r2, [r3]
 547              	.L34:
 138:autosampler.c **** 		}
 139:autosampler.c **** 	else {
 140:autosampler.c ****         //debug_write("bottle_count >= MAX_BOTTLE_COUNT");
 141:autosampler.c **** 		}
 142:autosampler.c ****     return *array_ix;
 548              		.loc 1 142 0
 549 00c0 7B68     		ldr	r3, [r7, #4]
 550 00c2 1B78     		ldrb	r3, [r3]	@ zero_extendqisi2
 551              	.L33:
 143:autosampler.c **** }
 552              		.loc 1 143 0
 553 00c4 1846     		mov	r0, r3
 554 00c6 1C37     		adds	r7, r7, #28
 555              		.cfi_def_cfa_offset 12
 556 00c8 BD46     		mov	sp, r7
 557              		.cfi_def_cfa_register 13
 558              		@ sp needed
 559 00ca 90BD     		pop	{r4, r7, pc}
 560              	.L38:
 561              		.align	2
 562              	.L37:
 563 00cc 18000000 		.word	.LC3
 564 00d0 2C000000 		.word	.LC4
 565 00d4 000080BF 		.word	-1082130432
 566              		.cfi_endproc
 567              	.LFE69:
 568              		.size	zip_autosampler, .-zip_autosampler
 569              		.section	.text.isr_SampleCounter,"ax",%progbits
 570              		.align	2
 571              		.global	isr_SampleCounter
 572              		.thumb
 573              		.thumb_func
 574              		.type	isr_SampleCounter, %function
 575              	isr_SampleCounter:
 576              	.LFB70:
 144:autosampler.c **** 
 145:autosampler.c **** CY_ISR(isr_SampleCounter){
 577              		.loc 1 145 0
 578              		.cfi_startproc
 579              		@ args = 0, pretend = 0, frame = 0
 580              		@ frame_needed = 1, uses_anonymous_args = 0
 581              		@ link register save eliminated.
ARM GAS  C:\Users\klabu\AppData\Local\Temp\ccpPcDql.s 			page 14


 582 0000 80B4     		push	{r7}
 583              		.cfi_def_cfa_offset 4
 584              		.cfi_offset 7, -4
 585 0002 00AF     		add	r7, sp, #0
 586              		.cfi_def_cfa_register 7
 146:autosampler.c ****     SampleCount1++;
 587              		.loc 1 146 0
 588 0004 044B     		ldr	r3, .L40
 589 0006 1B78     		ldrb	r3, [r3]	@ zero_extendqisi2
 590 0008 0133     		adds	r3, r3, #1
 591 000a DAB2     		uxtb	r2, r3
 592 000c 024B     		ldr	r3, .L40
 593 000e 1A70     		strb	r2, [r3]
 147:autosampler.c **** }
 594              		.loc 1 147 0
 595 0010 00BF     		nop
 596 0012 BD46     		mov	sp, r7
 597              		.cfi_def_cfa_register 13
 598              		@ sp needed
 599 0014 80BC     		pop	{r7}
 600              		.cfi_restore 7
 601              		.cfi_def_cfa_offset 0
 602 0016 7047     		bx	lr
 603              	.L41:
 604              		.align	2
 605              	.L40:
 606 0018 00000000 		.word	SampleCount1
 607              		.cfi_endproc
 608              	.LFE70:
 609              		.size	isr_SampleCounter, .-isr_SampleCounter
 610              		.text
 611              	.Letext0:
 612              		.file 2 "c:\\program files (x86)\\cypress\\psoc creator\\4.4\\psoc creator\\import\\gnu\\arm\\5.4.
 613              		.file 3 "c:\\program files (x86)\\cypress\\psoc creator\\4.4\\psoc creator\\import\\gnu\\arm\\5.4.
 614              		.file 4 "Generated_Source\\PSoC5/cytypes.h"
 615              		.file 5 "data.h"
 616              		.file 6 "modem.h"
 617              		.file 7 "Generated_Source\\PSoC5/core_cm3.h"