ARM GAS  C:\Users\klabu\AppData\Local\Temp\ccfNHxmV.s 			page 1


   1              		.syntax unified
   2              		.cpu cortex-m3
   3              		.fpu softvfp
   4              		.eabi_attribute 20, 1
   5              		.eabi_attribute 21, 1
   6              		.eabi_attribute 23, 3
   7              		.eabi_attribute 24, 1
   8              		.eabi_attribute 25, 1
   9              		.eabi_attribute 26, 1
  10              		.eabi_attribute 30, 6
  11              		.eabi_attribute 34, 1
  12              		.eabi_attribute 18, 4
  13              		.thumb
  14              		.syntax unified
  15              		.file	"BottleCounter.c"
  16              		.text
  17              	.Ltext0:
  18              		.cfi_sections	.debug_frame
  19              		.global	BottleCounter_initVar
  20              		.bss
  21              		.type	BottleCounter_initVar, %object
  22              		.size	BottleCounter_initVar, 1
  23              	BottleCounter_initVar:
  24 0000 00       		.space	1
  25              		.section	.text.BottleCounter_Init,"ax",%progbits
  26              		.align	2
  27              		.global	BottleCounter_Init
  28              		.thumb
  29              		.thumb_func
  30              		.type	BottleCounter_Init, %function
  31              	BottleCounter_Init:
  32              	.LFB0:
  33              		.file 1 "Generated_Source\\PSoC5\\BottleCounter.c"
   1:Generated_Source\PSoC5/BottleCounter.c **** /*******************************************************************************
   2:Generated_Source\PSoC5/BottleCounter.c **** * File Name: BottleCounter.c  
   3:Generated_Source\PSoC5/BottleCounter.c **** * Version 3.0
   4:Generated_Source\PSoC5/BottleCounter.c **** *
   5:Generated_Source\PSoC5/BottleCounter.c **** *  Description:
   6:Generated_Source\PSoC5/BottleCounter.c **** *     The Counter component consists of a 8, 16, 24 or 32-bit counter with
   7:Generated_Source\PSoC5/BottleCounter.c **** *     a selectable period between 2 and 2^Width - 1.  
   8:Generated_Source\PSoC5/BottleCounter.c **** *
   9:Generated_Source\PSoC5/BottleCounter.c **** *   Note:
  10:Generated_Source\PSoC5/BottleCounter.c **** *     None
  11:Generated_Source\PSoC5/BottleCounter.c **** *
  12:Generated_Source\PSoC5/BottleCounter.c **** ********************************************************************************
  13:Generated_Source\PSoC5/BottleCounter.c **** * Copyright 2008-2012, Cypress Semiconductor Corporation.  All rights reserved.
  14:Generated_Source\PSoC5/BottleCounter.c **** * You may use this file only in accordance with the license, terms, conditions, 
  15:Generated_Source\PSoC5/BottleCounter.c **** * disclaimers, and limitations in the end user license agreement accompanying 
  16:Generated_Source\PSoC5/BottleCounter.c **** * the software package with which this file was provided.
  17:Generated_Source\PSoC5/BottleCounter.c **** *******************************************************************************/
  18:Generated_Source\PSoC5/BottleCounter.c **** 
  19:Generated_Source\PSoC5/BottleCounter.c **** #include "BottleCounter.h"
  20:Generated_Source\PSoC5/BottleCounter.c **** 
  21:Generated_Source\PSoC5/BottleCounter.c **** uint8 BottleCounter_initVar = 0u;
  22:Generated_Source\PSoC5/BottleCounter.c **** 
  23:Generated_Source\PSoC5/BottleCounter.c **** 
  24:Generated_Source\PSoC5/BottleCounter.c **** /*******************************************************************************
ARM GAS  C:\Users\klabu\AppData\Local\Temp\ccfNHxmV.s 			page 2


  25:Generated_Source\PSoC5/BottleCounter.c **** * Function Name: BottleCounter_Init
  26:Generated_Source\PSoC5/BottleCounter.c **** ********************************************************************************
  27:Generated_Source\PSoC5/BottleCounter.c **** * Summary:
  28:Generated_Source\PSoC5/BottleCounter.c **** *     Initialize to the schematic state
  29:Generated_Source\PSoC5/BottleCounter.c **** * 
  30:Generated_Source\PSoC5/BottleCounter.c **** * Parameters:  
  31:Generated_Source\PSoC5/BottleCounter.c **** *  void  
  32:Generated_Source\PSoC5/BottleCounter.c **** *
  33:Generated_Source\PSoC5/BottleCounter.c **** * Return: 
  34:Generated_Source\PSoC5/BottleCounter.c **** *  void
  35:Generated_Source\PSoC5/BottleCounter.c **** *
  36:Generated_Source\PSoC5/BottleCounter.c **** *******************************************************************************/
  37:Generated_Source\PSoC5/BottleCounter.c **** void BottleCounter_Init(void) 
  38:Generated_Source\PSoC5/BottleCounter.c **** {
  34              		.loc 1 38 0
  35              		.cfi_startproc
  36              		@ args = 0, pretend = 0, frame = 8
  37              		@ frame_needed = 1, uses_anonymous_args = 0
  38 0000 80B5     		push	{r7, lr}
  39              		.cfi_def_cfa_offset 8
  40              		.cfi_offset 7, -8
  41              		.cfi_offset 14, -4
  42 0002 82B0     		sub	sp, sp, #8
  43              		.cfi_def_cfa_offset 16
  44 0004 00AF     		add	r7, sp, #0
  45              		.cfi_def_cfa_register 7
  39:Generated_Source\PSoC5/BottleCounter.c ****         #if (!BottleCounter_UsingFixedFunction && !BottleCounter_ControlRegRemoved)
  40:Generated_Source\PSoC5/BottleCounter.c ****             uint8 ctrl;
  41:Generated_Source\PSoC5/BottleCounter.c ****         #endif /* (!BottleCounter_UsingFixedFunction && !BottleCounter_ControlRegRemoved) */
  42:Generated_Source\PSoC5/BottleCounter.c ****         
  43:Generated_Source\PSoC5/BottleCounter.c ****         #if(!BottleCounter_UsingFixedFunction) 
  44:Generated_Source\PSoC5/BottleCounter.c ****             /* Interrupt State Backup for Critical Region*/
  45:Generated_Source\PSoC5/BottleCounter.c ****             uint8 BottleCounter_interruptState;
  46:Generated_Source\PSoC5/BottleCounter.c ****         #endif /* (!BottleCounter_UsingFixedFunction) */
  47:Generated_Source\PSoC5/BottleCounter.c ****         
  48:Generated_Source\PSoC5/BottleCounter.c ****         #if (BottleCounter_UsingFixedFunction)
  49:Generated_Source\PSoC5/BottleCounter.c ****             /* Clear all bits but the enable bit (if it's already set for Timer operation */
  50:Generated_Source\PSoC5/BottleCounter.c ****             BottleCounter_CONTROL &= BottleCounter_CTRL_ENABLE;
  51:Generated_Source\PSoC5/BottleCounter.c ****             
  52:Generated_Source\PSoC5/BottleCounter.c ****             /* Clear the mode bits for continuous run mode */
  53:Generated_Source\PSoC5/BottleCounter.c ****             #if (CY_PSOC5A)
  54:Generated_Source\PSoC5/BottleCounter.c ****                 BottleCounter_CONTROL2 &= ((uint8)(~BottleCounter_CTRL_MODE_MASK));
  55:Generated_Source\PSoC5/BottleCounter.c ****             #endif /* (CY_PSOC5A) */
  56:Generated_Source\PSoC5/BottleCounter.c ****             #if (CY_PSOC3 || CY_PSOC5LP)
  57:Generated_Source\PSoC5/BottleCounter.c ****                 BottleCounter_CONTROL3 &= ((uint8)(~BottleCounter_CTRL_MODE_MASK));                
  58:Generated_Source\PSoC5/BottleCounter.c ****             #endif /* (CY_PSOC3 || CY_PSOC5LP) */
  59:Generated_Source\PSoC5/BottleCounter.c ****             /* Check if One Shot mode is enabled i.e. RunMode !=0*/
  60:Generated_Source\PSoC5/BottleCounter.c ****             #if (BottleCounter_RunModeUsed != 0x0u)
  61:Generated_Source\PSoC5/BottleCounter.c ****                 /* Set 3rd bit of Control register to enable one shot mode */
  62:Generated_Source\PSoC5/BottleCounter.c ****                 BottleCounter_CONTROL |= BottleCounter_ONESHOT;
  63:Generated_Source\PSoC5/BottleCounter.c ****             #endif /* (BottleCounter_RunModeUsed != 0x0u) */
  64:Generated_Source\PSoC5/BottleCounter.c ****             
  65:Generated_Source\PSoC5/BottleCounter.c ****             /* Set the IRQ to use the status register interrupts */
  66:Generated_Source\PSoC5/BottleCounter.c ****             BottleCounter_CONTROL2 |= BottleCounter_CTRL2_IRQ_SEL;
  67:Generated_Source\PSoC5/BottleCounter.c ****             
  68:Generated_Source\PSoC5/BottleCounter.c ****             /* Clear and Set SYNCTC and SYNCCMP bits of RT1 register */
  69:Generated_Source\PSoC5/BottleCounter.c ****             BottleCounter_RT1 &= ((uint8)(~BottleCounter_RT1_MASK));
ARM GAS  C:\Users\klabu\AppData\Local\Temp\ccfNHxmV.s 			page 3


  70:Generated_Source\PSoC5/BottleCounter.c ****             BottleCounter_RT1 |= BottleCounter_SYNC;     
  71:Generated_Source\PSoC5/BottleCounter.c ****                     
  72:Generated_Source\PSoC5/BottleCounter.c ****             /*Enable DSI Sync all all inputs of the Timer*/
  73:Generated_Source\PSoC5/BottleCounter.c ****             BottleCounter_RT1 &= ((uint8)(~BottleCounter_SYNCDSI_MASK));
  74:Generated_Source\PSoC5/BottleCounter.c ****             BottleCounter_RT1 |= BottleCounter_SYNCDSI_EN;
  75:Generated_Source\PSoC5/BottleCounter.c **** 
  76:Generated_Source\PSoC5/BottleCounter.c ****         #else
  77:Generated_Source\PSoC5/BottleCounter.c ****             #if(!BottleCounter_ControlRegRemoved)
  78:Generated_Source\PSoC5/BottleCounter.c ****             /* Set the default compare mode defined in the parameter */
  79:Generated_Source\PSoC5/BottleCounter.c ****             ctrl = BottleCounter_CONTROL & ((uint8)(~BottleCounter_CTRL_CMPMODE_MASK));
  46              		.loc 1 79 0
  47 0006 1D4B     		ldr	r3, .L2
  48 0008 1B78     		ldrb	r3, [r3]
  49 000a DBB2     		uxtb	r3, r3
  50 000c 23F00703 		bic	r3, r3, #7
  51 0010 FB71     		strb	r3, [r7, #7]
  80:Generated_Source\PSoC5/BottleCounter.c ****             BottleCounter_CONTROL = ctrl | BottleCounter_DEFAULT_COMPARE_MODE;
  52              		.loc 1 80 0
  53 0012 1A4A     		ldr	r2, .L2
  54 0014 FB79     		ldrb	r3, [r7, #7]
  55 0016 43F00103 		orr	r3, r3, #1
  56 001a DBB2     		uxtb	r3, r3
  57 001c 1370     		strb	r3, [r2]
  81:Generated_Source\PSoC5/BottleCounter.c ****             
  82:Generated_Source\PSoC5/BottleCounter.c ****             /* Set the default capture mode defined in the parameter */
  83:Generated_Source\PSoC5/BottleCounter.c ****             ctrl = BottleCounter_CONTROL & ((uint8)(~BottleCounter_CTRL_CAPMODE_MASK));
  58              		.loc 1 83 0
  59 001e 174B     		ldr	r3, .L2
  60 0020 1B78     		ldrb	r3, [r3]
  61 0022 DBB2     		uxtb	r3, r3
  62 0024 23F00303 		bic	r3, r3, #3
  63 0028 FB71     		strb	r3, [r7, #7]
  84:Generated_Source\PSoC5/BottleCounter.c ****             
  85:Generated_Source\PSoC5/BottleCounter.c ****             #if( 0 != BottleCounter_CAPTURE_MODE_CONF)
  86:Generated_Source\PSoC5/BottleCounter.c ****                 BottleCounter_CONTROL = ctrl | BottleCounter_DEFAULT_CAPTURE_MODE;
  87:Generated_Source\PSoC5/BottleCounter.c ****             #else
  88:Generated_Source\PSoC5/BottleCounter.c ****                 BottleCounter_CONTROL = ctrl;
  64              		.loc 1 88 0
  65 002a 144A     		ldr	r2, .L2
  66 002c FB79     		ldrb	r3, [r7, #7]
  67 002e 1370     		strb	r3, [r2]
  89:Generated_Source\PSoC5/BottleCounter.c ****             #endif /* 0 != BottleCounter_CAPTURE_MODE */ 
  90:Generated_Source\PSoC5/BottleCounter.c ****             
  91:Generated_Source\PSoC5/BottleCounter.c ****             #endif /* (!BottleCounter_ControlRegRemoved) */
  92:Generated_Source\PSoC5/BottleCounter.c ****         #endif /* (BottleCounter_UsingFixedFunction) */
  93:Generated_Source\PSoC5/BottleCounter.c ****         
  94:Generated_Source\PSoC5/BottleCounter.c ****         /* Clear all data in the FIFO's */
  95:Generated_Source\PSoC5/BottleCounter.c ****         #if (!BottleCounter_UsingFixedFunction)
  96:Generated_Source\PSoC5/BottleCounter.c ****             BottleCounter_ClearFIFO();
  68              		.loc 1 96 0
  69 0030 FFF7FEFF 		bl	BottleCounter_ClearFIFO
  97:Generated_Source\PSoC5/BottleCounter.c ****         #endif /* (!BottleCounter_UsingFixedFunction) */
  98:Generated_Source\PSoC5/BottleCounter.c ****         
  99:Generated_Source\PSoC5/BottleCounter.c ****         /* Set Initial values from Configuration */
 100:Generated_Source\PSoC5/BottleCounter.c ****         BottleCounter_WritePeriod(BottleCounter_INIT_PERIOD_VALUE);
  70              		.loc 1 100 0
  71 0034 4FF6FE70 		movw	r0, #65534
ARM GAS  C:\Users\klabu\AppData\Local\Temp\ccfNHxmV.s 			page 4


  72 0038 FFF7FEFF 		bl	BottleCounter_WritePeriod
 101:Generated_Source\PSoC5/BottleCounter.c ****         #if (!(BottleCounter_UsingFixedFunction && (CY_PSOC5A)))
 102:Generated_Source\PSoC5/BottleCounter.c ****             BottleCounter_WriteCounter(BottleCounter_INIT_COUNTER_VALUE);
  73              		.loc 1 102 0
  74 003c 0020     		movs	r0, #0
  75 003e FFF7FEFF 		bl	BottleCounter_WriteCounter
 103:Generated_Source\PSoC5/BottleCounter.c ****         #endif /* (!(BottleCounter_UsingFixedFunction && (CY_PSOC5A))) */
 104:Generated_Source\PSoC5/BottleCounter.c ****         BottleCounter_SetInterruptMode(BottleCounter_INIT_INTERRUPTS_MASK);
  76              		.loc 1 104 0
  77 0042 0020     		movs	r0, #0
  78 0044 FFF7FEFF 		bl	BottleCounter_SetInterruptMode
 105:Generated_Source\PSoC5/BottleCounter.c ****         
 106:Generated_Source\PSoC5/BottleCounter.c ****         #if (!BottleCounter_UsingFixedFunction)
 107:Generated_Source\PSoC5/BottleCounter.c ****             /* Read the status register to clear the unwanted interrupts */
 108:Generated_Source\PSoC5/BottleCounter.c ****             (void)BottleCounter_ReadStatusRegister();
  79              		.loc 1 108 0
  80 0048 FFF7FEFF 		bl	BottleCounter_ReadStatusRegister
 109:Generated_Source\PSoC5/BottleCounter.c ****             /* Set the compare value (only available to non-fixed function implementation */
 110:Generated_Source\PSoC5/BottleCounter.c ****             BottleCounter_WriteCompare(BottleCounter_INIT_COMPARE_VALUE);
  81              		.loc 1 110 0
  82 004c 8020     		movs	r0, #128
  83 004e FFF7FEFF 		bl	BottleCounter_WriteCompare
 111:Generated_Source\PSoC5/BottleCounter.c ****             /* Use the interrupt output of the status register for IRQ output */
 112:Generated_Source\PSoC5/BottleCounter.c ****             
 113:Generated_Source\PSoC5/BottleCounter.c ****             /* CyEnterCriticalRegion and CyExitCriticalRegion are used to mark following region cri
 114:Generated_Source\PSoC5/BottleCounter.c ****             /* Enter Critical Region*/
 115:Generated_Source\PSoC5/BottleCounter.c ****             BottleCounter_interruptState = CyEnterCriticalSection();
  84              		.loc 1 115 0
  85 0052 FFF7FEFF 		bl	CyEnterCriticalSection
  86 0056 0346     		mov	r3, r0
  87 0058 BB71     		strb	r3, [r7, #6]
 116:Generated_Source\PSoC5/BottleCounter.c ****             
 117:Generated_Source\PSoC5/BottleCounter.c ****             BottleCounter_STATUS_AUX_CTRL |= BottleCounter_STATUS_ACTL_INT_EN_MASK;
  88              		.loc 1 117 0
  89 005a 094A     		ldr	r2, .L2+4
  90 005c 084B     		ldr	r3, .L2+4
  91 005e 1B78     		ldrb	r3, [r3]
  92 0060 DBB2     		uxtb	r3, r3
  93 0062 43F01003 		orr	r3, r3, #16
  94 0066 DBB2     		uxtb	r3, r3
  95 0068 1370     		strb	r3, [r2]
 118:Generated_Source\PSoC5/BottleCounter.c ****             
 119:Generated_Source\PSoC5/BottleCounter.c ****             /* Exit Critical Region*/
 120:Generated_Source\PSoC5/BottleCounter.c ****             CyExitCriticalSection(BottleCounter_interruptState);
  96              		.loc 1 120 0
  97 006a BB79     		ldrb	r3, [r7, #6]	@ zero_extendqisi2
  98 006c 1846     		mov	r0, r3
  99 006e FFF7FEFF 		bl	CyExitCriticalSection
 121:Generated_Source\PSoC5/BottleCounter.c ****             
 122:Generated_Source\PSoC5/BottleCounter.c ****         #endif /* (!BottleCounter_UsingFixedFunction) */
 123:Generated_Source\PSoC5/BottleCounter.c **** }
 100              		.loc 1 123 0
 101 0072 00BF     		nop
 102 0074 0837     		adds	r7, r7, #8
 103              		.cfi_def_cfa_offset 8
 104 0076 BD46     		mov	sp, r7
 105              		.cfi_def_cfa_register 13
ARM GAS  C:\Users\klabu\AppData\Local\Temp\ccfNHxmV.s 			page 5


 106              		@ sp needed
 107 0078 80BD     		pop	{r7, pc}
 108              	.L3:
 109 007a 00BF     		.align	2
 110              	.L2:
 111 007c 7B650040 		.word	1073767803
 112 0080 9B650040 		.word	1073767835
 113              		.cfi_endproc
 114              	.LFE0:
 115              		.size	BottleCounter_Init, .-BottleCounter_Init
 116              		.section	.text.BottleCounter_Enable,"ax",%progbits
 117              		.align	2
 118              		.global	BottleCounter_Enable
 119              		.thumb
 120              		.thumb_func
 121              		.type	BottleCounter_Enable, %function
 122              	BottleCounter_Enable:
 123              	.LFB1:
 124:Generated_Source\PSoC5/BottleCounter.c **** 
 125:Generated_Source\PSoC5/BottleCounter.c **** 
 126:Generated_Source\PSoC5/BottleCounter.c **** /*******************************************************************************
 127:Generated_Source\PSoC5/BottleCounter.c **** * Function Name: BottleCounter_Enable
 128:Generated_Source\PSoC5/BottleCounter.c **** ********************************************************************************
 129:Generated_Source\PSoC5/BottleCounter.c **** * Summary:
 130:Generated_Source\PSoC5/BottleCounter.c **** *     Enable the Counter
 131:Generated_Source\PSoC5/BottleCounter.c **** * 
 132:Generated_Source\PSoC5/BottleCounter.c **** * Parameters:  
 133:Generated_Source\PSoC5/BottleCounter.c **** *  void  
 134:Generated_Source\PSoC5/BottleCounter.c **** *
 135:Generated_Source\PSoC5/BottleCounter.c **** * Return: 
 136:Generated_Source\PSoC5/BottleCounter.c **** *  void
 137:Generated_Source\PSoC5/BottleCounter.c **** *
 138:Generated_Source\PSoC5/BottleCounter.c **** * Side Effects: 
 139:Generated_Source\PSoC5/BottleCounter.c **** *   If the Enable mode is set to Hardware only then this function has no effect 
 140:Generated_Source\PSoC5/BottleCounter.c **** *   on the operation of the counter.
 141:Generated_Source\PSoC5/BottleCounter.c **** *
 142:Generated_Source\PSoC5/BottleCounter.c **** *******************************************************************************/
 143:Generated_Source\PSoC5/BottleCounter.c **** void BottleCounter_Enable(void) 
 144:Generated_Source\PSoC5/BottleCounter.c **** {
 124              		.loc 1 144 0
 125              		.cfi_startproc
 126              		@ args = 0, pretend = 0, frame = 0
 127              		@ frame_needed = 1, uses_anonymous_args = 0
 128              		@ link register save eliminated.
 129 0000 80B4     		push	{r7}
 130              		.cfi_def_cfa_offset 4
 131              		.cfi_offset 7, -4
 132 0002 00AF     		add	r7, sp, #0
 133              		.cfi_def_cfa_register 7
 145:Generated_Source\PSoC5/BottleCounter.c ****     /* Globally Enable the Fixed Function Block chosen */
 146:Generated_Source\PSoC5/BottleCounter.c ****     #if (BottleCounter_UsingFixedFunction)
 147:Generated_Source\PSoC5/BottleCounter.c ****         BottleCounter_GLOBAL_ENABLE |= BottleCounter_BLOCK_EN_MASK;
 148:Generated_Source\PSoC5/BottleCounter.c ****         BottleCounter_GLOBAL_STBY_ENABLE |= BottleCounter_BLOCK_STBY_EN_MASK;
 149:Generated_Source\PSoC5/BottleCounter.c ****     #endif /* (BottleCounter_UsingFixedFunction) */  
 150:Generated_Source\PSoC5/BottleCounter.c ****         
 151:Generated_Source\PSoC5/BottleCounter.c ****     /* Enable the counter from the control register  */
 152:Generated_Source\PSoC5/BottleCounter.c ****     /* If Fixed Function then make sure Mode is set correctly */
ARM GAS  C:\Users\klabu\AppData\Local\Temp\ccfNHxmV.s 			page 6


 153:Generated_Source\PSoC5/BottleCounter.c ****     /* else make sure reset is clear */
 154:Generated_Source\PSoC5/BottleCounter.c ****     #if(!BottleCounter_ControlRegRemoved || BottleCounter_UsingFixedFunction)
 155:Generated_Source\PSoC5/BottleCounter.c ****         BottleCounter_CONTROL |= BottleCounter_CTRL_ENABLE;                
 134              		.loc 1 155 0
 135 0004 054A     		ldr	r2, .L5
 136 0006 054B     		ldr	r3, .L5
 137 0008 1B78     		ldrb	r3, [r3]
 138 000a DBB2     		uxtb	r3, r3
 139 000c 63F07F03 		orn	r3, r3, #127
 140 0010 DBB2     		uxtb	r3, r3
 141 0012 1370     		strb	r3, [r2]
 156:Generated_Source\PSoC5/BottleCounter.c ****     #endif /* (!BottleCounter_ControlRegRemoved || BottleCounter_UsingFixedFunction) */
 157:Generated_Source\PSoC5/BottleCounter.c ****     
 158:Generated_Source\PSoC5/BottleCounter.c **** }
 142              		.loc 1 158 0
 143 0014 00BF     		nop
 144 0016 BD46     		mov	sp, r7
 145              		.cfi_def_cfa_register 13
 146              		@ sp needed
 147 0018 80BC     		pop	{r7}
 148              		.cfi_restore 7
 149              		.cfi_def_cfa_offset 0
 150 001a 7047     		bx	lr
 151              	.L6:
 152              		.align	2
 153              	.L5:
 154 001c 7B650040 		.word	1073767803
 155              		.cfi_endproc
 156              	.LFE1:
 157              		.size	BottleCounter_Enable, .-BottleCounter_Enable
 158              		.section	.text.BottleCounter_Start,"ax",%progbits
 159              		.align	2
 160              		.global	BottleCounter_Start
 161              		.thumb
 162              		.thumb_func
 163              		.type	BottleCounter_Start, %function
 164              	BottleCounter_Start:
 165              	.LFB2:
 159:Generated_Source\PSoC5/BottleCounter.c **** 
 160:Generated_Source\PSoC5/BottleCounter.c **** 
 161:Generated_Source\PSoC5/BottleCounter.c **** /*******************************************************************************
 162:Generated_Source\PSoC5/BottleCounter.c **** * Function Name: BottleCounter_Start
 163:Generated_Source\PSoC5/BottleCounter.c **** ********************************************************************************
 164:Generated_Source\PSoC5/BottleCounter.c **** * Summary:
 165:Generated_Source\PSoC5/BottleCounter.c **** *  Enables the counter for operation 
 166:Generated_Source\PSoC5/BottleCounter.c **** *
 167:Generated_Source\PSoC5/BottleCounter.c **** * Parameters:  
 168:Generated_Source\PSoC5/BottleCounter.c **** *  void  
 169:Generated_Source\PSoC5/BottleCounter.c **** *
 170:Generated_Source\PSoC5/BottleCounter.c **** * Return: 
 171:Generated_Source\PSoC5/BottleCounter.c **** *  void
 172:Generated_Source\PSoC5/BottleCounter.c **** *
 173:Generated_Source\PSoC5/BottleCounter.c **** * Global variables:
 174:Generated_Source\PSoC5/BottleCounter.c **** *  BottleCounter_initVar: Is modified when this function is called for the  
 175:Generated_Source\PSoC5/BottleCounter.c **** *   first time. Is used to ensure that initialization happens only once.
 176:Generated_Source\PSoC5/BottleCounter.c **** *
 177:Generated_Source\PSoC5/BottleCounter.c **** *******************************************************************************/
ARM GAS  C:\Users\klabu\AppData\Local\Temp\ccfNHxmV.s 			page 7


 178:Generated_Source\PSoC5/BottleCounter.c **** void BottleCounter_Start(void) 
 179:Generated_Source\PSoC5/BottleCounter.c **** {
 166              		.loc 1 179 0
 167              		.cfi_startproc
 168              		@ args = 0, pretend = 0, frame = 0
 169              		@ frame_needed = 1, uses_anonymous_args = 0
 170 0000 80B5     		push	{r7, lr}
 171              		.cfi_def_cfa_offset 8
 172              		.cfi_offset 7, -8
 173              		.cfi_offset 14, -4
 174 0002 00AF     		add	r7, sp, #0
 175              		.cfi_def_cfa_register 7
 180:Generated_Source\PSoC5/BottleCounter.c ****     if(BottleCounter_initVar == 0u)
 176              		.loc 1 180 0
 177 0004 064B     		ldr	r3, .L9
 178 0006 1B78     		ldrb	r3, [r3]	@ zero_extendqisi2
 179 0008 002B     		cmp	r3, #0
 180 000a 04D1     		bne	.L8
 181:Generated_Source\PSoC5/BottleCounter.c ****     {
 182:Generated_Source\PSoC5/BottleCounter.c ****         BottleCounter_Init();
 181              		.loc 1 182 0
 182 000c FFF7FEFF 		bl	BottleCounter_Init
 183:Generated_Source\PSoC5/BottleCounter.c ****         
 184:Generated_Source\PSoC5/BottleCounter.c ****         BottleCounter_initVar = 1u; /* Clear this bit for Initialization */        
 183              		.loc 1 184 0
 184 0010 034B     		ldr	r3, .L9
 185 0012 0122     		movs	r2, #1
 186 0014 1A70     		strb	r2, [r3]
 187              	.L8:
 185:Generated_Source\PSoC5/BottleCounter.c ****     }
 186:Generated_Source\PSoC5/BottleCounter.c ****     
 187:Generated_Source\PSoC5/BottleCounter.c ****     /* Enable the Counter */
 188:Generated_Source\PSoC5/BottleCounter.c ****     BottleCounter_Enable();        
 188              		.loc 1 188 0
 189 0016 FFF7FEFF 		bl	BottleCounter_Enable
 189:Generated_Source\PSoC5/BottleCounter.c **** }
 190              		.loc 1 189 0
 191 001a 00BF     		nop
 192 001c 80BD     		pop	{r7, pc}
 193              	.L10:
 194 001e 00BF     		.align	2
 195              	.L9:
 196 0020 00000000 		.word	BottleCounter_initVar
 197              		.cfi_endproc
 198              	.LFE2:
 199              		.size	BottleCounter_Start, .-BottleCounter_Start
 200              		.section	.text.BottleCounter_Stop,"ax",%progbits
 201              		.align	2
 202              		.global	BottleCounter_Stop
 203              		.thumb
 204              		.thumb_func
 205              		.type	BottleCounter_Stop, %function
 206              	BottleCounter_Stop:
 207              	.LFB3:
 190:Generated_Source\PSoC5/BottleCounter.c **** 
 191:Generated_Source\PSoC5/BottleCounter.c **** 
 192:Generated_Source\PSoC5/BottleCounter.c **** /*******************************************************************************
ARM GAS  C:\Users\klabu\AppData\Local\Temp\ccfNHxmV.s 			page 8


 193:Generated_Source\PSoC5/BottleCounter.c **** * Function Name: BottleCounter_Stop
 194:Generated_Source\PSoC5/BottleCounter.c **** ********************************************************************************
 195:Generated_Source\PSoC5/BottleCounter.c **** * Summary:
 196:Generated_Source\PSoC5/BottleCounter.c **** * Halts the counter, but does not change any modes or disable interrupts.
 197:Generated_Source\PSoC5/BottleCounter.c **** *
 198:Generated_Source\PSoC5/BottleCounter.c **** * Parameters:  
 199:Generated_Source\PSoC5/BottleCounter.c **** *  void  
 200:Generated_Source\PSoC5/BottleCounter.c **** *
 201:Generated_Source\PSoC5/BottleCounter.c **** * Return: 
 202:Generated_Source\PSoC5/BottleCounter.c **** *  void
 203:Generated_Source\PSoC5/BottleCounter.c **** *
 204:Generated_Source\PSoC5/BottleCounter.c **** * Side Effects: If the Enable mode is set to Hardware only then this function
 205:Generated_Source\PSoC5/BottleCounter.c **** *               has no effect on the operation of the counter.
 206:Generated_Source\PSoC5/BottleCounter.c **** *
 207:Generated_Source\PSoC5/BottleCounter.c **** *******************************************************************************/
 208:Generated_Source\PSoC5/BottleCounter.c **** void BottleCounter_Stop(void) 
 209:Generated_Source\PSoC5/BottleCounter.c **** {
 208              		.loc 1 209 0
 209              		.cfi_startproc
 210              		@ args = 0, pretend = 0, frame = 0
 211              		@ frame_needed = 1, uses_anonymous_args = 0
 212              		@ link register save eliminated.
 213 0000 80B4     		push	{r7}
 214              		.cfi_def_cfa_offset 4
 215              		.cfi_offset 7, -4
 216 0002 00AF     		add	r7, sp, #0
 217              		.cfi_def_cfa_register 7
 210:Generated_Source\PSoC5/BottleCounter.c ****     /* Disable Counter */
 211:Generated_Source\PSoC5/BottleCounter.c ****     #if(!BottleCounter_ControlRegRemoved || BottleCounter_UsingFixedFunction)
 212:Generated_Source\PSoC5/BottleCounter.c ****         BottleCounter_CONTROL &= ((uint8)(~BottleCounter_CTRL_ENABLE));        
 218              		.loc 1 212 0
 219 0004 054A     		ldr	r2, .L12
 220 0006 054B     		ldr	r3, .L12
 221 0008 1B78     		ldrb	r3, [r3]
 222 000a DBB2     		uxtb	r3, r3
 223 000c 03F07F03 		and	r3, r3, #127
 224 0010 DBB2     		uxtb	r3, r3
 225 0012 1370     		strb	r3, [r2]
 213:Generated_Source\PSoC5/BottleCounter.c ****     #endif /* (!BottleCounter_ControlRegRemoved || BottleCounter_UsingFixedFunction) */
 214:Generated_Source\PSoC5/BottleCounter.c ****     
 215:Generated_Source\PSoC5/BottleCounter.c ****     /* Globally disable the Fixed Function Block chosen */
 216:Generated_Source\PSoC5/BottleCounter.c ****     #if (BottleCounter_UsingFixedFunction)
 217:Generated_Source\PSoC5/BottleCounter.c ****         BottleCounter_GLOBAL_ENABLE &= ((uint8)(~BottleCounter_BLOCK_EN_MASK));
 218:Generated_Source\PSoC5/BottleCounter.c ****         BottleCounter_GLOBAL_STBY_ENABLE &= ((uint8)(~BottleCounter_BLOCK_STBY_EN_MASK));
 219:Generated_Source\PSoC5/BottleCounter.c ****     #endif /* (BottleCounter_UsingFixedFunction) */
 220:Generated_Source\PSoC5/BottleCounter.c **** }
 226              		.loc 1 220 0
 227 0014 00BF     		nop
 228 0016 BD46     		mov	sp, r7
 229              		.cfi_def_cfa_register 13
 230              		@ sp needed
 231 0018 80BC     		pop	{r7}
 232              		.cfi_restore 7
 233              		.cfi_def_cfa_offset 0
 234 001a 7047     		bx	lr
 235              	.L13:
 236              		.align	2
ARM GAS  C:\Users\klabu\AppData\Local\Temp\ccfNHxmV.s 			page 9


 237              	.L12:
 238 001c 7B650040 		.word	1073767803
 239              		.cfi_endproc
 240              	.LFE3:
 241              		.size	BottleCounter_Stop, .-BottleCounter_Stop
 242              		.section	.text.BottleCounter_SetInterruptMode,"ax",%progbits
 243              		.align	2
 244              		.global	BottleCounter_SetInterruptMode
 245              		.thumb
 246              		.thumb_func
 247              		.type	BottleCounter_SetInterruptMode, %function
 248              	BottleCounter_SetInterruptMode:
 249              	.LFB4:
 221:Generated_Source\PSoC5/BottleCounter.c **** 
 222:Generated_Source\PSoC5/BottleCounter.c **** 
 223:Generated_Source\PSoC5/BottleCounter.c **** /*******************************************************************************
 224:Generated_Source\PSoC5/BottleCounter.c **** * Function Name: BottleCounter_SetInterruptMode
 225:Generated_Source\PSoC5/BottleCounter.c **** ********************************************************************************
 226:Generated_Source\PSoC5/BottleCounter.c **** * Summary:
 227:Generated_Source\PSoC5/BottleCounter.c **** * Configures which interrupt sources are enabled to generate the final interrupt
 228:Generated_Source\PSoC5/BottleCounter.c **** *
 229:Generated_Source\PSoC5/BottleCounter.c **** * Parameters:  
 230:Generated_Source\PSoC5/BottleCounter.c **** *  InterruptsMask: This parameter is an or'd collection of the status bits
 231:Generated_Source\PSoC5/BottleCounter.c **** *                   which will be allowed to generate the counters interrupt.   
 232:Generated_Source\PSoC5/BottleCounter.c **** *
 233:Generated_Source\PSoC5/BottleCounter.c **** * Return: 
 234:Generated_Source\PSoC5/BottleCounter.c **** *  void
 235:Generated_Source\PSoC5/BottleCounter.c **** *
 236:Generated_Source\PSoC5/BottleCounter.c **** *******************************************************************************/
 237:Generated_Source\PSoC5/BottleCounter.c **** void BottleCounter_SetInterruptMode(uint8 interruptsMask) 
 238:Generated_Source\PSoC5/BottleCounter.c **** {
 250              		.loc 1 238 0
 251              		.cfi_startproc
 252              		@ args = 0, pretend = 0, frame = 8
 253              		@ frame_needed = 1, uses_anonymous_args = 0
 254              		@ link register save eliminated.
 255 0000 80B4     		push	{r7}
 256              		.cfi_def_cfa_offset 4
 257              		.cfi_offset 7, -4
 258 0002 83B0     		sub	sp, sp, #12
 259              		.cfi_def_cfa_offset 16
 260 0004 00AF     		add	r7, sp, #0
 261              		.cfi_def_cfa_register 7
 262 0006 0346     		mov	r3, r0
 263 0008 FB71     		strb	r3, [r7, #7]
 239:Generated_Source\PSoC5/BottleCounter.c ****     BottleCounter_STATUS_MASK = interruptsMask;
 264              		.loc 1 239 0
 265 000a 044A     		ldr	r2, .L15
 266 000c FB79     		ldrb	r3, [r7, #7]
 267 000e 1370     		strb	r3, [r2]
 240:Generated_Source\PSoC5/BottleCounter.c **** }
 268              		.loc 1 240 0
 269 0010 00BF     		nop
 270 0012 0C37     		adds	r7, r7, #12
 271              		.cfi_def_cfa_offset 4
 272 0014 BD46     		mov	sp, r7
 273              		.cfi_def_cfa_register 13
ARM GAS  C:\Users\klabu\AppData\Local\Temp\ccfNHxmV.s 			page 10


 274              		@ sp needed
 275 0016 80BC     		pop	{r7}
 276              		.cfi_restore 7
 277              		.cfi_def_cfa_offset 0
 278 0018 7047     		bx	lr
 279              	.L16:
 280 001a 00BF     		.align	2
 281              	.L15:
 282 001c 8B650040 		.word	1073767819
 283              		.cfi_endproc
 284              	.LFE4:
 285              		.size	BottleCounter_SetInterruptMode, .-BottleCounter_SetInterruptMode
 286              		.section	.text.BottleCounter_ReadStatusRegister,"ax",%progbits
 287              		.align	2
 288              		.global	BottleCounter_ReadStatusRegister
 289              		.thumb
 290              		.thumb_func
 291              		.type	BottleCounter_ReadStatusRegister, %function
 292              	BottleCounter_ReadStatusRegister:
 293              	.LFB5:
 241:Generated_Source\PSoC5/BottleCounter.c **** 
 242:Generated_Source\PSoC5/BottleCounter.c **** 
 243:Generated_Source\PSoC5/BottleCounter.c **** /*******************************************************************************
 244:Generated_Source\PSoC5/BottleCounter.c **** * Function Name: BottleCounter_ReadStatusRegister
 245:Generated_Source\PSoC5/BottleCounter.c **** ********************************************************************************
 246:Generated_Source\PSoC5/BottleCounter.c **** * Summary:
 247:Generated_Source\PSoC5/BottleCounter.c **** *   Reads the status register and returns it's state. This function should use
 248:Generated_Source\PSoC5/BottleCounter.c **** *       defined types for the bit-field information as the bits in this
 249:Generated_Source\PSoC5/BottleCounter.c **** *       register may be permuteable.
 250:Generated_Source\PSoC5/BottleCounter.c **** *
 251:Generated_Source\PSoC5/BottleCounter.c **** * Parameters:  
 252:Generated_Source\PSoC5/BottleCounter.c **** *  void
 253:Generated_Source\PSoC5/BottleCounter.c **** *
 254:Generated_Source\PSoC5/BottleCounter.c **** * Return: 
 255:Generated_Source\PSoC5/BottleCounter.c **** *  (uint8) The contents of the status register
 256:Generated_Source\PSoC5/BottleCounter.c **** *
 257:Generated_Source\PSoC5/BottleCounter.c **** * Side Effects:
 258:Generated_Source\PSoC5/BottleCounter.c **** *   Status register bits may be clear on read. 
 259:Generated_Source\PSoC5/BottleCounter.c **** *
 260:Generated_Source\PSoC5/BottleCounter.c **** *******************************************************************************/
 261:Generated_Source\PSoC5/BottleCounter.c **** uint8   BottleCounter_ReadStatusRegister(void) 
 262:Generated_Source\PSoC5/BottleCounter.c **** {
 294              		.loc 1 262 0
 295              		.cfi_startproc
 296              		@ args = 0, pretend = 0, frame = 0
 297              		@ frame_needed = 1, uses_anonymous_args = 0
 298              		@ link register save eliminated.
 299 0000 80B4     		push	{r7}
 300              		.cfi_def_cfa_offset 4
 301              		.cfi_offset 7, -4
 302 0002 00AF     		add	r7, sp, #0
 303              		.cfi_def_cfa_register 7
 263:Generated_Source\PSoC5/BottleCounter.c ****     return BottleCounter_STATUS;
 304              		.loc 1 263 0
 305 0004 034B     		ldr	r3, .L19
 306 0006 1B78     		ldrb	r3, [r3]
 307 0008 DBB2     		uxtb	r3, r3
ARM GAS  C:\Users\klabu\AppData\Local\Temp\ccfNHxmV.s 			page 11


 264:Generated_Source\PSoC5/BottleCounter.c **** }
 308              		.loc 1 264 0
 309 000a 1846     		mov	r0, r3
 310 000c BD46     		mov	sp, r7
 311              		.cfi_def_cfa_register 13
 312              		@ sp needed
 313 000e 80BC     		pop	{r7}
 314              		.cfi_restore 7
 315              		.cfi_def_cfa_offset 0
 316 0010 7047     		bx	lr
 317              	.L20:
 318 0012 00BF     		.align	2
 319              	.L19:
 320 0014 6B650040 		.word	1073767787
 321              		.cfi_endproc
 322              	.LFE5:
 323              		.size	BottleCounter_ReadStatusRegister, .-BottleCounter_ReadStatusRegister
 324              		.section	.text.BottleCounter_ReadControlRegister,"ax",%progbits
 325              		.align	2
 326              		.global	BottleCounter_ReadControlRegister
 327              		.thumb
 328              		.thumb_func
 329              		.type	BottleCounter_ReadControlRegister, %function
 330              	BottleCounter_ReadControlRegister:
 331              	.LFB6:
 265:Generated_Source\PSoC5/BottleCounter.c **** 
 266:Generated_Source\PSoC5/BottleCounter.c **** 
 267:Generated_Source\PSoC5/BottleCounter.c **** #if(!BottleCounter_ControlRegRemoved)
 268:Generated_Source\PSoC5/BottleCounter.c **** /*******************************************************************************
 269:Generated_Source\PSoC5/BottleCounter.c **** * Function Name: BottleCounter_ReadControlRegister
 270:Generated_Source\PSoC5/BottleCounter.c **** ********************************************************************************
 271:Generated_Source\PSoC5/BottleCounter.c **** * Summary:
 272:Generated_Source\PSoC5/BottleCounter.c **** *   Reads the control register and returns it's state. This function should use
 273:Generated_Source\PSoC5/BottleCounter.c **** *       defined types for the bit-field information as the bits in this
 274:Generated_Source\PSoC5/BottleCounter.c **** *       register may be permuteable.
 275:Generated_Source\PSoC5/BottleCounter.c **** *
 276:Generated_Source\PSoC5/BottleCounter.c **** * Parameters:  
 277:Generated_Source\PSoC5/BottleCounter.c **** *  void
 278:Generated_Source\PSoC5/BottleCounter.c **** *
 279:Generated_Source\PSoC5/BottleCounter.c **** * Return: 
 280:Generated_Source\PSoC5/BottleCounter.c **** *  (uint8) The contents of the control register
 281:Generated_Source\PSoC5/BottleCounter.c **** *
 282:Generated_Source\PSoC5/BottleCounter.c **** *******************************************************************************/
 283:Generated_Source\PSoC5/BottleCounter.c **** uint8   BottleCounter_ReadControlRegister(void) 
 284:Generated_Source\PSoC5/BottleCounter.c **** {
 332              		.loc 1 284 0
 333              		.cfi_startproc
 334              		@ args = 0, pretend = 0, frame = 0
 335              		@ frame_needed = 1, uses_anonymous_args = 0
 336              		@ link register save eliminated.
 337 0000 80B4     		push	{r7}
 338              		.cfi_def_cfa_offset 4
 339              		.cfi_offset 7, -4
 340 0002 00AF     		add	r7, sp, #0
 341              		.cfi_def_cfa_register 7
 285:Generated_Source\PSoC5/BottleCounter.c ****     return BottleCounter_CONTROL;
 342              		.loc 1 285 0
ARM GAS  C:\Users\klabu\AppData\Local\Temp\ccfNHxmV.s 			page 12


 343 0004 034B     		ldr	r3, .L23
 344 0006 1B78     		ldrb	r3, [r3]
 345 0008 DBB2     		uxtb	r3, r3
 286:Generated_Source\PSoC5/BottleCounter.c **** }
 346              		.loc 1 286 0
 347 000a 1846     		mov	r0, r3
 348 000c BD46     		mov	sp, r7
 349              		.cfi_def_cfa_register 13
 350              		@ sp needed
 351 000e 80BC     		pop	{r7}
 352              		.cfi_restore 7
 353              		.cfi_def_cfa_offset 0
 354 0010 7047     		bx	lr
 355              	.L24:
 356 0012 00BF     		.align	2
 357              	.L23:
 358 0014 7B650040 		.word	1073767803
 359              		.cfi_endproc
 360              	.LFE6:
 361              		.size	BottleCounter_ReadControlRegister, .-BottleCounter_ReadControlRegister
 362              		.section	.text.BottleCounter_WriteControlRegister,"ax",%progbits
 363              		.align	2
 364              		.global	BottleCounter_WriteControlRegister
 365              		.thumb
 366              		.thumb_func
 367              		.type	BottleCounter_WriteControlRegister, %function
 368              	BottleCounter_WriteControlRegister:
 369              	.LFB7:
 287:Generated_Source\PSoC5/BottleCounter.c **** 
 288:Generated_Source\PSoC5/BottleCounter.c **** 
 289:Generated_Source\PSoC5/BottleCounter.c **** /*******************************************************************************
 290:Generated_Source\PSoC5/BottleCounter.c **** * Function Name: BottleCounter_WriteControlRegister
 291:Generated_Source\PSoC5/BottleCounter.c **** ********************************************************************************
 292:Generated_Source\PSoC5/BottleCounter.c **** * Summary:
 293:Generated_Source\PSoC5/BottleCounter.c **** *   Sets the bit-field of the control register.  This function should use
 294:Generated_Source\PSoC5/BottleCounter.c **** *       defined types for the bit-field information as the bits in this
 295:Generated_Source\PSoC5/BottleCounter.c **** *       register may be permuteable.
 296:Generated_Source\PSoC5/BottleCounter.c **** *
 297:Generated_Source\PSoC5/BottleCounter.c **** * Parameters:  
 298:Generated_Source\PSoC5/BottleCounter.c **** *  void
 299:Generated_Source\PSoC5/BottleCounter.c **** *
 300:Generated_Source\PSoC5/BottleCounter.c **** * Return: 
 301:Generated_Source\PSoC5/BottleCounter.c **** *  (uint8) The contents of the control register
 302:Generated_Source\PSoC5/BottleCounter.c **** *
 303:Generated_Source\PSoC5/BottleCounter.c **** *******************************************************************************/
 304:Generated_Source\PSoC5/BottleCounter.c **** void    BottleCounter_WriteControlRegister(uint8 control) 
 305:Generated_Source\PSoC5/BottleCounter.c **** {
 370              		.loc 1 305 0
 371              		.cfi_startproc
 372              		@ args = 0, pretend = 0, frame = 8
 373              		@ frame_needed = 1, uses_anonymous_args = 0
 374              		@ link register save eliminated.
 375 0000 80B4     		push	{r7}
 376              		.cfi_def_cfa_offset 4
 377              		.cfi_offset 7, -4
 378 0002 83B0     		sub	sp, sp, #12
 379              		.cfi_def_cfa_offset 16
ARM GAS  C:\Users\klabu\AppData\Local\Temp\ccfNHxmV.s 			page 13


 380 0004 00AF     		add	r7, sp, #0
 381              		.cfi_def_cfa_register 7
 382 0006 0346     		mov	r3, r0
 383 0008 FB71     		strb	r3, [r7, #7]
 306:Generated_Source\PSoC5/BottleCounter.c ****     BottleCounter_CONTROL = control;
 384              		.loc 1 306 0
 385 000a 044A     		ldr	r2, .L26
 386 000c FB79     		ldrb	r3, [r7, #7]
 387 000e 1370     		strb	r3, [r2]
 307:Generated_Source\PSoC5/BottleCounter.c **** }
 388              		.loc 1 307 0
 389 0010 00BF     		nop
 390 0012 0C37     		adds	r7, r7, #12
 391              		.cfi_def_cfa_offset 4
 392 0014 BD46     		mov	sp, r7
 393              		.cfi_def_cfa_register 13
 394              		@ sp needed
 395 0016 80BC     		pop	{r7}
 396              		.cfi_restore 7
 397              		.cfi_def_cfa_offset 0
 398 0018 7047     		bx	lr
 399              	.L27:
 400 001a 00BF     		.align	2
 401              	.L26:
 402 001c 7B650040 		.word	1073767803
 403              		.cfi_endproc
 404              	.LFE7:
 405              		.size	BottleCounter_WriteControlRegister, .-BottleCounter_WriteControlRegister
 406              		.section	.text.BottleCounter_WriteCounter,"ax",%progbits
 407              		.align	2
 408              		.global	BottleCounter_WriteCounter
 409              		.thumb
 410              		.thumb_func
 411              		.type	BottleCounter_WriteCounter, %function
 412              	BottleCounter_WriteCounter:
 413              	.LFB8:
 308:Generated_Source\PSoC5/BottleCounter.c **** 
 309:Generated_Source\PSoC5/BottleCounter.c **** #endif  /* (!BottleCounter_ControlRegRemoved) */
 310:Generated_Source\PSoC5/BottleCounter.c **** 
 311:Generated_Source\PSoC5/BottleCounter.c **** 
 312:Generated_Source\PSoC5/BottleCounter.c **** #if (!(BottleCounter_UsingFixedFunction && (CY_PSOC5A)))
 313:Generated_Source\PSoC5/BottleCounter.c **** /*******************************************************************************
 314:Generated_Source\PSoC5/BottleCounter.c **** * Function Name: BottleCounter_WriteCounter
 315:Generated_Source\PSoC5/BottleCounter.c **** ********************************************************************************
 316:Generated_Source\PSoC5/BottleCounter.c **** * Summary:
 317:Generated_Source\PSoC5/BottleCounter.c **** *   This funtion is used to set the counter to a specific value
 318:Generated_Source\PSoC5/BottleCounter.c **** *
 319:Generated_Source\PSoC5/BottleCounter.c **** * Parameters:  
 320:Generated_Source\PSoC5/BottleCounter.c **** *  counter:  New counter value. 
 321:Generated_Source\PSoC5/BottleCounter.c **** *
 322:Generated_Source\PSoC5/BottleCounter.c **** * Return: 
 323:Generated_Source\PSoC5/BottleCounter.c **** *  void 
 324:Generated_Source\PSoC5/BottleCounter.c **** *
 325:Generated_Source\PSoC5/BottleCounter.c **** *******************************************************************************/
 326:Generated_Source\PSoC5/BottleCounter.c **** void BottleCounter_WriteCounter(uint16 counter) \
 327:Generated_Source\PSoC5/BottleCounter.c ****                                    
 328:Generated_Source\PSoC5/BottleCounter.c **** {
ARM GAS  C:\Users\klabu\AppData\Local\Temp\ccfNHxmV.s 			page 14


 414              		.loc 1 328 0
 415              		.cfi_startproc
 416              		@ args = 0, pretend = 0, frame = 8
 417              		@ frame_needed = 1, uses_anonymous_args = 0
 418              		@ link register save eliminated.
 419 0000 80B4     		push	{r7}
 420              		.cfi_def_cfa_offset 4
 421              		.cfi_offset 7, -4
 422 0002 83B0     		sub	sp, sp, #12
 423              		.cfi_def_cfa_offset 16
 424 0004 00AF     		add	r7, sp, #0
 425              		.cfi_def_cfa_register 7
 426 0006 0346     		mov	r3, r0
 427 0008 FB80     		strh	r3, [r7, #6]	@ movhi
 329:Generated_Source\PSoC5/BottleCounter.c ****     #if(BottleCounter_UsingFixedFunction)
 330:Generated_Source\PSoC5/BottleCounter.c ****         /* assert if block is already enabled */
 331:Generated_Source\PSoC5/BottleCounter.c ****         CYASSERT (0u == (BottleCounter_GLOBAL_ENABLE & BottleCounter_BLOCK_EN_MASK));
 332:Generated_Source\PSoC5/BottleCounter.c ****         /* If block is disabled, enable it and then write the counter */
 333:Generated_Source\PSoC5/BottleCounter.c ****         BottleCounter_GLOBAL_ENABLE |= BottleCounter_BLOCK_EN_MASK;
 334:Generated_Source\PSoC5/BottleCounter.c ****         CY_SET_REG16(BottleCounter_COUNTER_LSB_PTR, (uint16)counter);
 335:Generated_Source\PSoC5/BottleCounter.c ****         BottleCounter_GLOBAL_ENABLE &= ((uint8)(~BottleCounter_BLOCK_EN_MASK));
 336:Generated_Source\PSoC5/BottleCounter.c ****     #else
 337:Generated_Source\PSoC5/BottleCounter.c ****         CY_SET_REG16(BottleCounter_COUNTER_LSB_PTR, counter);
 428              		.loc 1 337 0
 429 000a 044A     		ldr	r2, .L29
 430 000c FB88     		ldrh	r3, [r7, #6]	@ movhi
 431 000e 1380     		strh	r3, [r2]	@ movhi
 338:Generated_Source\PSoC5/BottleCounter.c ****     #endif /* (BottleCounter_UsingFixedFunction) */
 339:Generated_Source\PSoC5/BottleCounter.c **** }
 432              		.loc 1 339 0
 433 0010 00BF     		nop
 434 0012 0C37     		adds	r7, r7, #12
 435              		.cfi_def_cfa_offset 4
 436 0014 BD46     		mov	sp, r7
 437              		.cfi_def_cfa_register 13
 438              		@ sp needed
 439 0016 80BC     		pop	{r7}
 440              		.cfi_restore 7
 441              		.cfi_def_cfa_offset 0
 442 0018 7047     		bx	lr
 443              	.L30:
 444 001a 00BF     		.align	2
 445              	.L29:
 446 001c 146A0040 		.word	1073768980
 447              		.cfi_endproc
 448              	.LFE8:
 449              		.size	BottleCounter_WriteCounter, .-BottleCounter_WriteCounter
 450              		.section	.text.BottleCounter_ReadCounter,"ax",%progbits
 451              		.align	2
 452              		.global	BottleCounter_ReadCounter
 453              		.thumb
 454              		.thumb_func
 455              		.type	BottleCounter_ReadCounter, %function
 456              	BottleCounter_ReadCounter:
 457              	.LFB9:
 340:Generated_Source\PSoC5/BottleCounter.c **** #endif /* (!(BottleCounter_UsingFixedFunction && (CY_PSOC5A))) */
 341:Generated_Source\PSoC5/BottleCounter.c **** 
ARM GAS  C:\Users\klabu\AppData\Local\Temp\ccfNHxmV.s 			page 15


 342:Generated_Source\PSoC5/BottleCounter.c **** 
 343:Generated_Source\PSoC5/BottleCounter.c **** /*******************************************************************************
 344:Generated_Source\PSoC5/BottleCounter.c **** * Function Name: BottleCounter_ReadCounter
 345:Generated_Source\PSoC5/BottleCounter.c **** ********************************************************************************
 346:Generated_Source\PSoC5/BottleCounter.c **** * Summary:
 347:Generated_Source\PSoC5/BottleCounter.c **** * Returns the current value of the counter.  It doesn't matter
 348:Generated_Source\PSoC5/BottleCounter.c **** * if the counter is enabled or running.
 349:Generated_Source\PSoC5/BottleCounter.c **** *
 350:Generated_Source\PSoC5/BottleCounter.c **** * Parameters:  
 351:Generated_Source\PSoC5/BottleCounter.c **** *  void:  
 352:Generated_Source\PSoC5/BottleCounter.c **** *
 353:Generated_Source\PSoC5/BottleCounter.c **** * Return: 
 354:Generated_Source\PSoC5/BottleCounter.c **** *  (uint16) The present value of the counter.
 355:Generated_Source\PSoC5/BottleCounter.c **** *
 356:Generated_Source\PSoC5/BottleCounter.c **** *******************************************************************************/
 357:Generated_Source\PSoC5/BottleCounter.c **** uint16 BottleCounter_ReadCounter(void) 
 358:Generated_Source\PSoC5/BottleCounter.c **** {
 458              		.loc 1 358 0
 459              		.cfi_startproc
 460              		@ args = 0, pretend = 0, frame = 0
 461              		@ frame_needed = 1, uses_anonymous_args = 0
 462              		@ link register save eliminated.
 463 0000 80B4     		push	{r7}
 464              		.cfi_def_cfa_offset 4
 465              		.cfi_offset 7, -4
 466 0002 00AF     		add	r7, sp, #0
 467              		.cfi_def_cfa_register 7
 359:Generated_Source\PSoC5/BottleCounter.c ****     /* Force capture by reading Accumulator */
 360:Generated_Source\PSoC5/BottleCounter.c ****     /* Must first do a software capture to be able to read the counter */
 361:Generated_Source\PSoC5/BottleCounter.c ****     /* It is up to the user code to make sure there isn't already captured data in the FIFO */
 362:Generated_Source\PSoC5/BottleCounter.c ****     #if(BottleCounter_UsingFixedFunction)
 363:Generated_Source\PSoC5/BottleCounter.c **** 		(void)CY_GET_REG16(BottleCounter_COUNTER_LSB_PTR);
 364:Generated_Source\PSoC5/BottleCounter.c **** 	#else
 365:Generated_Source\PSoC5/BottleCounter.c **** 		(void)CY_GET_REG8(BottleCounter_COUNTER_LSB_PTR_8BIT);
 468              		.loc 1 365 0
 469 0004 044B     		ldr	r3, .L33
 470 0006 1B78     		ldrb	r3, [r3]
 366:Generated_Source\PSoC5/BottleCounter.c **** 	#endif/* (BottleCounter_UsingFixedFunction) */
 367:Generated_Source\PSoC5/BottleCounter.c ****     
 368:Generated_Source\PSoC5/BottleCounter.c ****     /* Read the data from the FIFO (or capture register for Fixed Function)*/
 369:Generated_Source\PSoC5/BottleCounter.c ****     #if(BottleCounter_UsingFixedFunction)
 370:Generated_Source\PSoC5/BottleCounter.c ****         return ((uint16)CY_GET_REG16(BottleCounter_STATICCOUNT_LSB_PTR));
 371:Generated_Source\PSoC5/BottleCounter.c ****     #else
 372:Generated_Source\PSoC5/BottleCounter.c ****         return (CY_GET_REG16(BottleCounter_STATICCOUNT_LSB_PTR));
 471              		.loc 1 372 0
 472 0008 044B     		ldr	r3, .L33+4
 473 000a 1B88     		ldrh	r3, [r3]	@ movhi
 474 000c 9BB2     		uxth	r3, r3
 373:Generated_Source\PSoC5/BottleCounter.c ****     #endif /* (BottleCounter_UsingFixedFunction) */
 374:Generated_Source\PSoC5/BottleCounter.c **** }
 475              		.loc 1 374 0
 476 000e 1846     		mov	r0, r3
 477 0010 BD46     		mov	sp, r7
 478              		.cfi_def_cfa_register 13
 479              		@ sp needed
 480 0012 80BC     		pop	{r7}
 481              		.cfi_restore 7
ARM GAS  C:\Users\klabu\AppData\Local\Temp\ccfNHxmV.s 			page 16


 482              		.cfi_def_cfa_offset 0
 483 0014 7047     		bx	lr
 484              	.L34:
 485 0016 00BF     		.align	2
 486              	.L33:
 487 0018 0A650040 		.word	1073767690
 488 001c 946A0040 		.word	1073769108
 489              		.cfi_endproc
 490              	.LFE9:
 491              		.size	BottleCounter_ReadCounter, .-BottleCounter_ReadCounter
 492              		.section	.text.BottleCounter_ReadCapture,"ax",%progbits
 493              		.align	2
 494              		.global	BottleCounter_ReadCapture
 495              		.thumb
 496              		.thumb_func
 497              		.type	BottleCounter_ReadCapture, %function
 498              	BottleCounter_ReadCapture:
 499              	.LFB10:
 375:Generated_Source\PSoC5/BottleCounter.c **** 
 376:Generated_Source\PSoC5/BottleCounter.c **** 
 377:Generated_Source\PSoC5/BottleCounter.c **** /*******************************************************************************
 378:Generated_Source\PSoC5/BottleCounter.c **** * Function Name: BottleCounter_ReadCapture
 379:Generated_Source\PSoC5/BottleCounter.c **** ********************************************************************************
 380:Generated_Source\PSoC5/BottleCounter.c **** * Summary:
 381:Generated_Source\PSoC5/BottleCounter.c **** *   This function returns the last value captured.
 382:Generated_Source\PSoC5/BottleCounter.c **** *
 383:Generated_Source\PSoC5/BottleCounter.c **** * Parameters:  
 384:Generated_Source\PSoC5/BottleCounter.c **** *  void
 385:Generated_Source\PSoC5/BottleCounter.c **** *
 386:Generated_Source\PSoC5/BottleCounter.c **** * Return: 
 387:Generated_Source\PSoC5/BottleCounter.c **** *  (uint16) Present Capture value.
 388:Generated_Source\PSoC5/BottleCounter.c **** *
 389:Generated_Source\PSoC5/BottleCounter.c **** *******************************************************************************/
 390:Generated_Source\PSoC5/BottleCounter.c **** uint16 BottleCounter_ReadCapture(void) 
 391:Generated_Source\PSoC5/BottleCounter.c **** {
 500              		.loc 1 391 0
 501              		.cfi_startproc
 502              		@ args = 0, pretend = 0, frame = 0
 503              		@ frame_needed = 1, uses_anonymous_args = 0
 504              		@ link register save eliminated.
 505 0000 80B4     		push	{r7}
 506              		.cfi_def_cfa_offset 4
 507              		.cfi_offset 7, -4
 508 0002 00AF     		add	r7, sp, #0
 509              		.cfi_def_cfa_register 7
 392:Generated_Source\PSoC5/BottleCounter.c ****     #if(BottleCounter_UsingFixedFunction)
 393:Generated_Source\PSoC5/BottleCounter.c ****         return ((uint16)CY_GET_REG16(BottleCounter_STATICCOUNT_LSB_PTR));
 394:Generated_Source\PSoC5/BottleCounter.c ****     #else
 395:Generated_Source\PSoC5/BottleCounter.c ****         return (CY_GET_REG16(BottleCounter_STATICCOUNT_LSB_PTR));
 510              		.loc 1 395 0
 511 0004 034B     		ldr	r3, .L37
 512 0006 1B88     		ldrh	r3, [r3]	@ movhi
 513 0008 9BB2     		uxth	r3, r3
 396:Generated_Source\PSoC5/BottleCounter.c ****     #endif /* (BottleCounter_UsingFixedFunction) */
 397:Generated_Source\PSoC5/BottleCounter.c **** }
 514              		.loc 1 397 0
 515 000a 1846     		mov	r0, r3
ARM GAS  C:\Users\klabu\AppData\Local\Temp\ccfNHxmV.s 			page 17


 516 000c BD46     		mov	sp, r7
 517              		.cfi_def_cfa_register 13
 518              		@ sp needed
 519 000e 80BC     		pop	{r7}
 520              		.cfi_restore 7
 521              		.cfi_def_cfa_offset 0
 522 0010 7047     		bx	lr
 523              	.L38:
 524 0012 00BF     		.align	2
 525              	.L37:
 526 0014 946A0040 		.word	1073769108
 527              		.cfi_endproc
 528              	.LFE10:
 529              		.size	BottleCounter_ReadCapture, .-BottleCounter_ReadCapture
 530              		.section	.text.BottleCounter_WritePeriod,"ax",%progbits
 531              		.align	2
 532              		.global	BottleCounter_WritePeriod
 533              		.thumb
 534              		.thumb_func
 535              		.type	BottleCounter_WritePeriod, %function
 536              	BottleCounter_WritePeriod:
 537              	.LFB11:
 398:Generated_Source\PSoC5/BottleCounter.c **** 
 399:Generated_Source\PSoC5/BottleCounter.c **** 
 400:Generated_Source\PSoC5/BottleCounter.c **** /*******************************************************************************
 401:Generated_Source\PSoC5/BottleCounter.c **** * Function Name: BottleCounter_WritePeriod
 402:Generated_Source\PSoC5/BottleCounter.c **** ********************************************************************************
 403:Generated_Source\PSoC5/BottleCounter.c **** * Summary:
 404:Generated_Source\PSoC5/BottleCounter.c **** * Changes the period of the counter.  The new period 
 405:Generated_Source\PSoC5/BottleCounter.c **** * will be loaded the next time terminal count is detected.
 406:Generated_Source\PSoC5/BottleCounter.c **** *
 407:Generated_Source\PSoC5/BottleCounter.c **** * Parameters:  
 408:Generated_Source\PSoC5/BottleCounter.c **** *  period: (uint16) A value of 0 will result in
 409:Generated_Source\PSoC5/BottleCounter.c **** *         the counter remaining at zero.  
 410:Generated_Source\PSoC5/BottleCounter.c **** *
 411:Generated_Source\PSoC5/BottleCounter.c **** * Return: 
 412:Generated_Source\PSoC5/BottleCounter.c **** *  void
 413:Generated_Source\PSoC5/BottleCounter.c **** *
 414:Generated_Source\PSoC5/BottleCounter.c **** *******************************************************************************/
 415:Generated_Source\PSoC5/BottleCounter.c **** void BottleCounter_WritePeriod(uint16 period) 
 416:Generated_Source\PSoC5/BottleCounter.c **** {
 538              		.loc 1 416 0
 539              		.cfi_startproc
 540              		@ args = 0, pretend = 0, frame = 8
 541              		@ frame_needed = 1, uses_anonymous_args = 0
 542              		@ link register save eliminated.
 543 0000 80B4     		push	{r7}
 544              		.cfi_def_cfa_offset 4
 545              		.cfi_offset 7, -4
 546 0002 83B0     		sub	sp, sp, #12
 547              		.cfi_def_cfa_offset 16
 548 0004 00AF     		add	r7, sp, #0
 549              		.cfi_def_cfa_register 7
 550 0006 0346     		mov	r3, r0
 551 0008 FB80     		strh	r3, [r7, #6]	@ movhi
 417:Generated_Source\PSoC5/BottleCounter.c ****     #if(BottleCounter_UsingFixedFunction)
 418:Generated_Source\PSoC5/BottleCounter.c ****         CY_SET_REG16(BottleCounter_PERIOD_LSB_PTR,(uint16)period);
ARM GAS  C:\Users\klabu\AppData\Local\Temp\ccfNHxmV.s 			page 18


 419:Generated_Source\PSoC5/BottleCounter.c ****     #else
 420:Generated_Source\PSoC5/BottleCounter.c ****         CY_SET_REG16(BottleCounter_PERIOD_LSB_PTR, period);
 552              		.loc 1 420 0
 553 000a 044A     		ldr	r2, .L40
 554 000c FB88     		ldrh	r3, [r7, #6]	@ movhi
 555 000e 1380     		strh	r3, [r2]	@ movhi
 421:Generated_Source\PSoC5/BottleCounter.c ****     #endif /* (BottleCounter_UsingFixedFunction) */
 422:Generated_Source\PSoC5/BottleCounter.c **** }
 556              		.loc 1 422 0
 557 0010 00BF     		nop
 558 0012 0C37     		adds	r7, r7, #12
 559              		.cfi_def_cfa_offset 4
 560 0014 BD46     		mov	sp, r7
 561              		.cfi_def_cfa_register 13
 562              		@ sp needed
 563 0016 80BC     		pop	{r7}
 564              		.cfi_restore 7
 565              		.cfi_def_cfa_offset 0
 566 0018 7047     		bx	lr
 567              	.L41:
 568 001a 00BF     		.align	2
 569              	.L40:
 570 001c 546A0040 		.word	1073769044
 571              		.cfi_endproc
 572              	.LFE11:
 573              		.size	BottleCounter_WritePeriod, .-BottleCounter_WritePeriod
 574              		.section	.text.BottleCounter_ReadPeriod,"ax",%progbits
 575              		.align	2
 576              		.global	BottleCounter_ReadPeriod
 577              		.thumb
 578              		.thumb_func
 579              		.type	BottleCounter_ReadPeriod, %function
 580              	BottleCounter_ReadPeriod:
 581              	.LFB12:
 423:Generated_Source\PSoC5/BottleCounter.c **** 
 424:Generated_Source\PSoC5/BottleCounter.c **** 
 425:Generated_Source\PSoC5/BottleCounter.c **** /*******************************************************************************
 426:Generated_Source\PSoC5/BottleCounter.c **** * Function Name: BottleCounter_ReadPeriod
 427:Generated_Source\PSoC5/BottleCounter.c **** ********************************************************************************
 428:Generated_Source\PSoC5/BottleCounter.c **** * Summary:
 429:Generated_Source\PSoC5/BottleCounter.c **** * Reads the current period value without affecting counter operation.
 430:Generated_Source\PSoC5/BottleCounter.c **** *
 431:Generated_Source\PSoC5/BottleCounter.c **** * Parameters:  
 432:Generated_Source\PSoC5/BottleCounter.c **** *  void:  
 433:Generated_Source\PSoC5/BottleCounter.c **** *
 434:Generated_Source\PSoC5/BottleCounter.c **** * Return: 
 435:Generated_Source\PSoC5/BottleCounter.c **** *  (uint16) Present period value.
 436:Generated_Source\PSoC5/BottleCounter.c **** *
 437:Generated_Source\PSoC5/BottleCounter.c **** *******************************************************************************/
 438:Generated_Source\PSoC5/BottleCounter.c **** uint16 BottleCounter_ReadPeriod(void) 
 439:Generated_Source\PSoC5/BottleCounter.c **** {
 582              		.loc 1 439 0
 583              		.cfi_startproc
 584              		@ args = 0, pretend = 0, frame = 0
 585              		@ frame_needed = 1, uses_anonymous_args = 0
 586              		@ link register save eliminated.
 587 0000 80B4     		push	{r7}
ARM GAS  C:\Users\klabu\AppData\Local\Temp\ccfNHxmV.s 			page 19


 588              		.cfi_def_cfa_offset 4
 589              		.cfi_offset 7, -4
 590 0002 00AF     		add	r7, sp, #0
 591              		.cfi_def_cfa_register 7
 440:Generated_Source\PSoC5/BottleCounter.c ****     #if(BottleCounter_UsingFixedFunction)
 441:Generated_Source\PSoC5/BottleCounter.c ****         return ((uint16)CY_GET_REG16(BottleCounter_PERIOD_LSB_PTR));
 442:Generated_Source\PSoC5/BottleCounter.c ****     #else
 443:Generated_Source\PSoC5/BottleCounter.c ****         return (CY_GET_REG16(BottleCounter_PERIOD_LSB_PTR));
 592              		.loc 1 443 0
 593 0004 034B     		ldr	r3, .L44
 594 0006 1B88     		ldrh	r3, [r3]	@ movhi
 595 0008 9BB2     		uxth	r3, r3
 444:Generated_Source\PSoC5/BottleCounter.c ****     #endif /* (BottleCounter_UsingFixedFunction) */
 445:Generated_Source\PSoC5/BottleCounter.c **** }
 596              		.loc 1 445 0
 597 000a 1846     		mov	r0, r3
 598 000c BD46     		mov	sp, r7
 599              		.cfi_def_cfa_register 13
 600              		@ sp needed
 601 000e 80BC     		pop	{r7}
 602              		.cfi_restore 7
 603              		.cfi_def_cfa_offset 0
 604 0010 7047     		bx	lr
 605              	.L45:
 606 0012 00BF     		.align	2
 607              	.L44:
 608 0014 546A0040 		.word	1073769044
 609              		.cfi_endproc
 610              	.LFE12:
 611              		.size	BottleCounter_ReadPeriod, .-BottleCounter_ReadPeriod
 612              		.section	.text.BottleCounter_WriteCompare,"ax",%progbits
 613              		.align	2
 614              		.global	BottleCounter_WriteCompare
 615              		.thumb
 616              		.thumb_func
 617              		.type	BottleCounter_WriteCompare, %function
 618              	BottleCounter_WriteCompare:
 619              	.LFB13:
 446:Generated_Source\PSoC5/BottleCounter.c **** 
 447:Generated_Source\PSoC5/BottleCounter.c **** 
 448:Generated_Source\PSoC5/BottleCounter.c **** #if (!BottleCounter_UsingFixedFunction)
 449:Generated_Source\PSoC5/BottleCounter.c **** /*******************************************************************************
 450:Generated_Source\PSoC5/BottleCounter.c **** * Function Name: BottleCounter_WriteCompare
 451:Generated_Source\PSoC5/BottleCounter.c **** ********************************************************************************
 452:Generated_Source\PSoC5/BottleCounter.c **** * Summary:
 453:Generated_Source\PSoC5/BottleCounter.c **** * Changes the compare value.  The compare output will 
 454:Generated_Source\PSoC5/BottleCounter.c **** * reflect the new value on the next UDB clock.  The compare output will be 
 455:Generated_Source\PSoC5/BottleCounter.c **** * driven high when the present counter value compares true based on the 
 456:Generated_Source\PSoC5/BottleCounter.c **** * configured compare mode setting. 
 457:Generated_Source\PSoC5/BottleCounter.c **** *
 458:Generated_Source\PSoC5/BottleCounter.c **** * Parameters:  
 459:Generated_Source\PSoC5/BottleCounter.c **** *  Compare:  New compare value. 
 460:Generated_Source\PSoC5/BottleCounter.c **** *
 461:Generated_Source\PSoC5/BottleCounter.c **** * Return: 
 462:Generated_Source\PSoC5/BottleCounter.c **** *  void
 463:Generated_Source\PSoC5/BottleCounter.c **** *
 464:Generated_Source\PSoC5/BottleCounter.c **** *******************************************************************************/
ARM GAS  C:\Users\klabu\AppData\Local\Temp\ccfNHxmV.s 			page 20


 465:Generated_Source\PSoC5/BottleCounter.c **** void BottleCounter_WriteCompare(uint16 compare) \
 466:Generated_Source\PSoC5/BottleCounter.c ****                                    
 467:Generated_Source\PSoC5/BottleCounter.c **** {
 620              		.loc 1 467 0
 621              		.cfi_startproc
 622              		@ args = 0, pretend = 0, frame = 8
 623              		@ frame_needed = 1, uses_anonymous_args = 0
 624              		@ link register save eliminated.
 625 0000 80B4     		push	{r7}
 626              		.cfi_def_cfa_offset 4
 627              		.cfi_offset 7, -4
 628 0002 83B0     		sub	sp, sp, #12
 629              		.cfi_def_cfa_offset 16
 630 0004 00AF     		add	r7, sp, #0
 631              		.cfi_def_cfa_register 7
 632 0006 0346     		mov	r3, r0
 633 0008 FB80     		strh	r3, [r7, #6]	@ movhi
 468:Generated_Source\PSoC5/BottleCounter.c ****     #if(BottleCounter_UsingFixedFunction)
 469:Generated_Source\PSoC5/BottleCounter.c ****         CY_SET_REG16(BottleCounter_COMPARE_LSB_PTR, (uint16)compare);
 470:Generated_Source\PSoC5/BottleCounter.c ****     #else
 471:Generated_Source\PSoC5/BottleCounter.c ****         CY_SET_REG16(BottleCounter_COMPARE_LSB_PTR, compare);
 634              		.loc 1 471 0
 635 000a 044A     		ldr	r2, .L47
 636 000c FB88     		ldrh	r3, [r7, #6]	@ movhi
 637 000e 1380     		strh	r3, [r2]	@ movhi
 472:Generated_Source\PSoC5/BottleCounter.c ****     #endif /* (BottleCounter_UsingFixedFunction) */
 473:Generated_Source\PSoC5/BottleCounter.c **** }
 638              		.loc 1 473 0
 639 0010 00BF     		nop
 640 0012 0C37     		adds	r7, r7, #12
 641              		.cfi_def_cfa_offset 4
 642 0014 BD46     		mov	sp, r7
 643              		.cfi_def_cfa_register 13
 644              		@ sp needed
 645 0016 80BC     		pop	{r7}
 646              		.cfi_restore 7
 647              		.cfi_def_cfa_offset 0
 648 0018 7047     		bx	lr
 649              	.L48:
 650 001a 00BF     		.align	2
 651              	.L47:
 652 001c 746A0040 		.word	1073769076
 653              		.cfi_endproc
 654              	.LFE13:
 655              		.size	BottleCounter_WriteCompare, .-BottleCounter_WriteCompare
 656              		.section	.text.BottleCounter_ReadCompare,"ax",%progbits
 657              		.align	2
 658              		.global	BottleCounter_ReadCompare
 659              		.thumb
 660              		.thumb_func
 661              		.type	BottleCounter_ReadCompare, %function
 662              	BottleCounter_ReadCompare:
 663              	.LFB14:
 474:Generated_Source\PSoC5/BottleCounter.c **** 
 475:Generated_Source\PSoC5/BottleCounter.c **** 
 476:Generated_Source\PSoC5/BottleCounter.c **** /*******************************************************************************
 477:Generated_Source\PSoC5/BottleCounter.c **** * Function Name: BottleCounter_ReadCompare
ARM GAS  C:\Users\klabu\AppData\Local\Temp\ccfNHxmV.s 			page 21


 478:Generated_Source\PSoC5/BottleCounter.c **** ********************************************************************************
 479:Generated_Source\PSoC5/BottleCounter.c **** * Summary:
 480:Generated_Source\PSoC5/BottleCounter.c **** * Returns the compare value.
 481:Generated_Source\PSoC5/BottleCounter.c **** *
 482:Generated_Source\PSoC5/BottleCounter.c **** * Parameters:  
 483:Generated_Source\PSoC5/BottleCounter.c **** *  void:
 484:Generated_Source\PSoC5/BottleCounter.c **** *
 485:Generated_Source\PSoC5/BottleCounter.c **** * Return: 
 486:Generated_Source\PSoC5/BottleCounter.c **** *  (uint16) Present compare value.
 487:Generated_Source\PSoC5/BottleCounter.c **** *
 488:Generated_Source\PSoC5/BottleCounter.c **** *******************************************************************************/
 489:Generated_Source\PSoC5/BottleCounter.c **** uint16 BottleCounter_ReadCompare(void) 
 490:Generated_Source\PSoC5/BottleCounter.c **** {
 664              		.loc 1 490 0
 665              		.cfi_startproc
 666              		@ args = 0, pretend = 0, frame = 0
 667              		@ frame_needed = 1, uses_anonymous_args = 0
 668              		@ link register save eliminated.
 669 0000 80B4     		push	{r7}
 670              		.cfi_def_cfa_offset 4
 671              		.cfi_offset 7, -4
 672 0002 00AF     		add	r7, sp, #0
 673              		.cfi_def_cfa_register 7
 491:Generated_Source\PSoC5/BottleCounter.c ****     return (CY_GET_REG16(BottleCounter_COMPARE_LSB_PTR));
 674              		.loc 1 491 0
 675 0004 034B     		ldr	r3, .L51
 676 0006 1B88     		ldrh	r3, [r3]	@ movhi
 677 0008 9BB2     		uxth	r3, r3
 492:Generated_Source\PSoC5/BottleCounter.c **** }
 678              		.loc 1 492 0
 679 000a 1846     		mov	r0, r3
 680 000c BD46     		mov	sp, r7
 681              		.cfi_def_cfa_register 13
 682              		@ sp needed
 683 000e 80BC     		pop	{r7}
 684              		.cfi_restore 7
 685              		.cfi_def_cfa_offset 0
 686 0010 7047     		bx	lr
 687              	.L52:
 688 0012 00BF     		.align	2
 689              	.L51:
 690 0014 746A0040 		.word	1073769076
 691              		.cfi_endproc
 692              	.LFE14:
 693              		.size	BottleCounter_ReadCompare, .-BottleCounter_ReadCompare
 694              		.section	.text.BottleCounter_ClearFIFO,"ax",%progbits
 695              		.align	2
 696              		.global	BottleCounter_ClearFIFO
 697              		.thumb
 698              		.thumb_func
 699              		.type	BottleCounter_ClearFIFO, %function
 700              	BottleCounter_ClearFIFO:
 701              	.LFB15:
 493:Generated_Source\PSoC5/BottleCounter.c **** 
 494:Generated_Source\PSoC5/BottleCounter.c **** 
 495:Generated_Source\PSoC5/BottleCounter.c **** #if (BottleCounter_COMPARE_MODE_SOFTWARE)
 496:Generated_Source\PSoC5/BottleCounter.c **** /*******************************************************************************
ARM GAS  C:\Users\klabu\AppData\Local\Temp\ccfNHxmV.s 			page 22


 497:Generated_Source\PSoC5/BottleCounter.c **** * Function Name: BottleCounter_SetCompareMode
 498:Generated_Source\PSoC5/BottleCounter.c **** ********************************************************************************
 499:Generated_Source\PSoC5/BottleCounter.c **** * Summary:
 500:Generated_Source\PSoC5/BottleCounter.c **** *  Sets the software controlled Compare Mode.
 501:Generated_Source\PSoC5/BottleCounter.c **** *
 502:Generated_Source\PSoC5/BottleCounter.c **** * Parameters:
 503:Generated_Source\PSoC5/BottleCounter.c **** *  compareMode:  Compare Mode Enumerated Type.
 504:Generated_Source\PSoC5/BottleCounter.c **** *
 505:Generated_Source\PSoC5/BottleCounter.c **** * Return:
 506:Generated_Source\PSoC5/BottleCounter.c **** *  void
 507:Generated_Source\PSoC5/BottleCounter.c **** *
 508:Generated_Source\PSoC5/BottleCounter.c **** *******************************************************************************/
 509:Generated_Source\PSoC5/BottleCounter.c **** void BottleCounter_SetCompareMode(uint8 compareMode) 
 510:Generated_Source\PSoC5/BottleCounter.c **** {
 511:Generated_Source\PSoC5/BottleCounter.c ****     /* Clear the compare mode bits in the control register */
 512:Generated_Source\PSoC5/BottleCounter.c ****     BottleCounter_CONTROL &= ((uint8)(~BottleCounter_CTRL_CMPMODE_MASK));
 513:Generated_Source\PSoC5/BottleCounter.c ****     
 514:Generated_Source\PSoC5/BottleCounter.c ****     /* Write the new setting */
 515:Generated_Source\PSoC5/BottleCounter.c ****     BottleCounter_CONTROL |= compareMode;
 516:Generated_Source\PSoC5/BottleCounter.c **** }
 517:Generated_Source\PSoC5/BottleCounter.c **** #endif  /* (BottleCounter_COMPARE_MODE_SOFTWARE) */
 518:Generated_Source\PSoC5/BottleCounter.c **** 
 519:Generated_Source\PSoC5/BottleCounter.c **** 
 520:Generated_Source\PSoC5/BottleCounter.c **** #if (BottleCounter_CAPTURE_MODE_SOFTWARE)
 521:Generated_Source\PSoC5/BottleCounter.c **** /*******************************************************************************
 522:Generated_Source\PSoC5/BottleCounter.c **** * Function Name: BottleCounter_SetCaptureMode
 523:Generated_Source\PSoC5/BottleCounter.c **** ********************************************************************************
 524:Generated_Source\PSoC5/BottleCounter.c **** * Summary:
 525:Generated_Source\PSoC5/BottleCounter.c **** *  Sets the software controlled Capture Mode.
 526:Generated_Source\PSoC5/BottleCounter.c **** *
 527:Generated_Source\PSoC5/BottleCounter.c **** * Parameters:
 528:Generated_Source\PSoC5/BottleCounter.c **** *  captureMode:  Capture Mode Enumerated Type.
 529:Generated_Source\PSoC5/BottleCounter.c **** *
 530:Generated_Source\PSoC5/BottleCounter.c **** * Return:
 531:Generated_Source\PSoC5/BottleCounter.c **** *  void
 532:Generated_Source\PSoC5/BottleCounter.c **** *
 533:Generated_Source\PSoC5/BottleCounter.c **** *******************************************************************************/
 534:Generated_Source\PSoC5/BottleCounter.c **** void BottleCounter_SetCaptureMode(uint8 captureMode) 
 535:Generated_Source\PSoC5/BottleCounter.c **** {
 536:Generated_Source\PSoC5/BottleCounter.c ****     /* Clear the capture mode bits in the control register */
 537:Generated_Source\PSoC5/BottleCounter.c ****     BottleCounter_CONTROL &= ((uint8)(~BottleCounter_CTRL_CAPMODE_MASK));
 538:Generated_Source\PSoC5/BottleCounter.c ****     
 539:Generated_Source\PSoC5/BottleCounter.c ****     /* Write the new setting */
 540:Generated_Source\PSoC5/BottleCounter.c ****     BottleCounter_CONTROL |= ((uint8)((uint8)captureMode << BottleCounter_CTRL_CAPMODE0_SHIFT));
 541:Generated_Source\PSoC5/BottleCounter.c **** }
 542:Generated_Source\PSoC5/BottleCounter.c **** #endif  /* (BottleCounter_CAPTURE_MODE_SOFTWARE) */
 543:Generated_Source\PSoC5/BottleCounter.c **** 
 544:Generated_Source\PSoC5/BottleCounter.c **** 
 545:Generated_Source\PSoC5/BottleCounter.c **** /*******************************************************************************
 546:Generated_Source\PSoC5/BottleCounter.c **** * Function Name: BottleCounter_ClearFIFO
 547:Generated_Source\PSoC5/BottleCounter.c **** ********************************************************************************
 548:Generated_Source\PSoC5/BottleCounter.c **** * Summary:
 549:Generated_Source\PSoC5/BottleCounter.c **** *   This function clears all capture data from the capture FIFO
 550:Generated_Source\PSoC5/BottleCounter.c **** *
 551:Generated_Source\PSoC5/BottleCounter.c **** * Parameters:  
 552:Generated_Source\PSoC5/BottleCounter.c **** *  void:
 553:Generated_Source\PSoC5/BottleCounter.c **** *
ARM GAS  C:\Users\klabu\AppData\Local\Temp\ccfNHxmV.s 			page 23


 554:Generated_Source\PSoC5/BottleCounter.c **** * Return: 
 555:Generated_Source\PSoC5/BottleCounter.c **** *  None
 556:Generated_Source\PSoC5/BottleCounter.c **** *
 557:Generated_Source\PSoC5/BottleCounter.c **** *******************************************************************************/
 558:Generated_Source\PSoC5/BottleCounter.c **** void BottleCounter_ClearFIFO(void) 
 559:Generated_Source\PSoC5/BottleCounter.c **** {
 702              		.loc 1 559 0
 703              		.cfi_startproc
 704              		@ args = 0, pretend = 0, frame = 0
 705              		@ frame_needed = 1, uses_anonymous_args = 0
 706 0000 80B5     		push	{r7, lr}
 707              		.cfi_def_cfa_offset 8
 708              		.cfi_offset 7, -8
 709              		.cfi_offset 14, -4
 710 0002 00AF     		add	r7, sp, #0
 711              		.cfi_def_cfa_register 7
 560:Generated_Source\PSoC5/BottleCounter.c **** 
 561:Generated_Source\PSoC5/BottleCounter.c ****     while(0u != (BottleCounter_ReadStatusRegister() & BottleCounter_STATUS_FIFONEMP))
 712              		.loc 1 561 0
 713 0004 01E0     		b	.L54
 714              	.L55:
 562:Generated_Source\PSoC5/BottleCounter.c ****     {
 563:Generated_Source\PSoC5/BottleCounter.c ****         (void)BottleCounter_ReadCapture();
 715              		.loc 1 563 0
 716 0006 FFF7FEFF 		bl	BottleCounter_ReadCapture
 717              	.L54:
 561:Generated_Source\PSoC5/BottleCounter.c ****     {
 718              		.loc 1 561 0
 719 000a FFF7FEFF 		bl	BottleCounter_ReadStatusRegister
 720 000e 0346     		mov	r3, r0
 721 0010 03F04003 		and	r3, r3, #64
 722 0014 002B     		cmp	r3, #0
 723 0016 F6D1     		bne	.L55
 564:Generated_Source\PSoC5/BottleCounter.c ****     }
 565:Generated_Source\PSoC5/BottleCounter.c **** 
 566:Generated_Source\PSoC5/BottleCounter.c **** }
 724              		.loc 1 566 0
 725 0018 00BF     		nop
 726 001a 80BD     		pop	{r7, pc}
 727              		.cfi_endproc
 728              	.LFE15:
 729              		.size	BottleCounter_ClearFIFO, .-BottleCounter_ClearFIFO
 730              		.text
 731              	.Letext0:
 732              		.file 2 "Generated_Source\\PSoC5\\cytypes.h"