ARM GAS  C:\Users\dantz\AppData\Local\Temp\ccA5mggQ.s 			page 1


   1              		.syntax unified
   2              		.cpu cortex-m3
   3              		.fpu softvfp
   4              		.eabi_attribute 20, 1
   5              		.eabi_attribute 21, 1
   6              		.eabi_attribute 23, 3
   7              		.eabi_attribute 24, 1
   8              		.eabi_attribute 25, 1
   9              		.eabi_attribute 26, 1
  10              		.eabi_attribute 30, 6
  11              		.eabi_attribute 34, 1
  12              		.eabi_attribute 18, 4
  13              		.thumb
  14              		.syntax unified
  15              		.file	"cyfitter_cfg.c"
  16              		.text
  17              	.Ltext0:
  18              		.cfi_sections	.debug_frame
  19              		.section	.text.CYMEMZERO,"ax",%progbits
  20              		.align	2
  21              		.thumb
  22              		.thumb_func
  23              		.type	CYMEMZERO, %function
  24              	CYMEMZERO:
  25              	.LFB0:
  26              		.file 1 "Generated_Source\\PSoC5\\cyfitter_cfg.c"
   1:Generated_Source\PSoC5/cyfitter_cfg.c **** 
   2:Generated_Source\PSoC5/cyfitter_cfg.c **** /*******************************************************************************
   3:Generated_Source\PSoC5/cyfitter_cfg.c **** * File Name: cyfitter_cfg.c
   4:Generated_Source\PSoC5/cyfitter_cfg.c **** * 
   5:Generated_Source\PSoC5/cyfitter_cfg.c **** * PSoC Creator  4.4
   6:Generated_Source\PSoC5/cyfitter_cfg.c **** *
   7:Generated_Source\PSoC5/cyfitter_cfg.c **** * Description:
   8:Generated_Source\PSoC5/cyfitter_cfg.c **** * This file contains device initialization code.
   9:Generated_Source\PSoC5/cyfitter_cfg.c **** * Except for the user defined sections in CyClockStartupError(), this file should not be modified.
  10:Generated_Source\PSoC5/cyfitter_cfg.c **** * This file is automatically generated by PSoC Creator.
  11:Generated_Source\PSoC5/cyfitter_cfg.c **** *
  12:Generated_Source\PSoC5/cyfitter_cfg.c **** ********************************************************************************
  13:Generated_Source\PSoC5/cyfitter_cfg.c **** * Copyright (c) 2007-2020 Cypress Semiconductor.  All rights reserved.
  14:Generated_Source\PSoC5/cyfitter_cfg.c **** * You may use this file only in accordance with the license, terms, conditions, 
  15:Generated_Source\PSoC5/cyfitter_cfg.c **** * disclaimers, and limitations in the end user license agreement accompanying 
  16:Generated_Source\PSoC5/cyfitter_cfg.c **** * the software package with which this file was provided.
  17:Generated_Source\PSoC5/cyfitter_cfg.c **** ********************************************************************************/
  18:Generated_Source\PSoC5/cyfitter_cfg.c **** 
  19:Generated_Source\PSoC5/cyfitter_cfg.c **** #include <string.h>
  20:Generated_Source\PSoC5/cyfitter_cfg.c **** #include "cytypes.h"
  21:Generated_Source\PSoC5/cyfitter_cfg.c **** #include "cydevice_trm.h"
  22:Generated_Source\PSoC5/cyfitter_cfg.c **** #include "cyfitter.h"
  23:Generated_Source\PSoC5/cyfitter_cfg.c **** #include "CyLib.h"
  24:Generated_Source\PSoC5/cyfitter_cfg.c **** #include "cyfitter_cfg.h"
  25:Generated_Source\PSoC5/cyfitter_cfg.c **** #include "cyapicallbacks.h"
  26:Generated_Source\PSoC5/cyfitter_cfg.c **** 
  27:Generated_Source\PSoC5/cyfitter_cfg.c **** #define CY_NEED_CYCLOCKSTARTUPERROR 1
  28:Generated_Source\PSoC5/cyfitter_cfg.c **** 
  29:Generated_Source\PSoC5/cyfitter_cfg.c **** 
  30:Generated_Source\PSoC5/cyfitter_cfg.c **** #if defined(__GNUC__) || defined(__ARMCC_VERSION)
  31:Generated_Source\PSoC5/cyfitter_cfg.c ****     #define CYPACKED 
ARM GAS  C:\Users\dantz\AppData\Local\Temp\ccA5mggQ.s 			page 2


  32:Generated_Source\PSoC5/cyfitter_cfg.c ****     #define CYPACKED_ATTR __attribute__ ((packed))
  33:Generated_Source\PSoC5/cyfitter_cfg.c ****     #define CYALIGNED __attribute__ ((aligned))
  34:Generated_Source\PSoC5/cyfitter_cfg.c ****     #define CY_CFG_UNUSED __attribute__ ((unused))
  35:Generated_Source\PSoC5/cyfitter_cfg.c ****     #ifndef CY_CFG_SECTION
  36:Generated_Source\PSoC5/cyfitter_cfg.c ****         #define CY_CFG_SECTION __attribute__ ((section(".psocinit")))
  37:Generated_Source\PSoC5/cyfitter_cfg.c ****     #endif
  38:Generated_Source\PSoC5/cyfitter_cfg.c ****     
  39:Generated_Source\PSoC5/cyfitter_cfg.c ****     #if defined(__ARMCC_VERSION)
  40:Generated_Source\PSoC5/cyfitter_cfg.c ****         #define CY_CFG_MEMORY_BARRIER() __memory_changed()
  41:Generated_Source\PSoC5/cyfitter_cfg.c ****     #else
  42:Generated_Source\PSoC5/cyfitter_cfg.c ****         #define CY_CFG_MEMORY_BARRIER() __sync_synchronize()
  43:Generated_Source\PSoC5/cyfitter_cfg.c ****     #endif
  44:Generated_Source\PSoC5/cyfitter_cfg.c ****     
  45:Generated_Source\PSoC5/cyfitter_cfg.c **** #elif defined(__ICCARM__)
  46:Generated_Source\PSoC5/cyfitter_cfg.c ****     #include <intrinsics.h>
  47:Generated_Source\PSoC5/cyfitter_cfg.c **** 
  48:Generated_Source\PSoC5/cyfitter_cfg.c ****     #define CYPACKED __packed
  49:Generated_Source\PSoC5/cyfitter_cfg.c ****     #define CYPACKED_ATTR 
  50:Generated_Source\PSoC5/cyfitter_cfg.c ****     #define CYALIGNED _Pragma("data_alignment=4")
  51:Generated_Source\PSoC5/cyfitter_cfg.c ****     #define CY_CFG_UNUSED _Pragma("diag_suppress=Pe177")
  52:Generated_Source\PSoC5/cyfitter_cfg.c ****     #define CY_CFG_SECTION _Pragma("location=\".psocinit\"")
  53:Generated_Source\PSoC5/cyfitter_cfg.c ****     
  54:Generated_Source\PSoC5/cyfitter_cfg.c ****     #define CY_CFG_MEMORY_BARRIER() __DMB()
  55:Generated_Source\PSoC5/cyfitter_cfg.c ****     
  56:Generated_Source\PSoC5/cyfitter_cfg.c **** #else
  57:Generated_Source\PSoC5/cyfitter_cfg.c ****     #error Unsupported toolchain
  58:Generated_Source\PSoC5/cyfitter_cfg.c **** #endif
  59:Generated_Source\PSoC5/cyfitter_cfg.c **** 
  60:Generated_Source\PSoC5/cyfitter_cfg.c **** #ifndef CYCODE
  61:Generated_Source\PSoC5/cyfitter_cfg.c ****     #define CYCODE
  62:Generated_Source\PSoC5/cyfitter_cfg.c **** #endif
  63:Generated_Source\PSoC5/cyfitter_cfg.c **** #ifndef CYDATA
  64:Generated_Source\PSoC5/cyfitter_cfg.c ****     #define CYDATA
  65:Generated_Source\PSoC5/cyfitter_cfg.c **** #endif
  66:Generated_Source\PSoC5/cyfitter_cfg.c **** #ifndef CYFAR
  67:Generated_Source\PSoC5/cyfitter_cfg.c ****     #define CYFAR
  68:Generated_Source\PSoC5/cyfitter_cfg.c **** #endif
  69:Generated_Source\PSoC5/cyfitter_cfg.c **** #ifndef CYXDATA
  70:Generated_Source\PSoC5/cyfitter_cfg.c ****     #define CYXDATA
  71:Generated_Source\PSoC5/cyfitter_cfg.c **** #endif
  72:Generated_Source\PSoC5/cyfitter_cfg.c **** 
  73:Generated_Source\PSoC5/cyfitter_cfg.c **** 
  74:Generated_Source\PSoC5/cyfitter_cfg.c **** CY_CFG_UNUSED
  75:Generated_Source\PSoC5/cyfitter_cfg.c **** static void CYMEMZERO(void *s, size_t n);
  76:Generated_Source\PSoC5/cyfitter_cfg.c **** CY_CFG_UNUSED
  77:Generated_Source\PSoC5/cyfitter_cfg.c **** static void CYMEMZERO(void *s, size_t n)
  78:Generated_Source\PSoC5/cyfitter_cfg.c **** {
  27              		.loc 1 78 0
  28              		.cfi_startproc
  29              		@ args = 0, pretend = 0, frame = 8
  30              		@ frame_needed = 1, uses_anonymous_args = 0
  31 0000 80B5     		push	{r7, lr}
  32              		.cfi_def_cfa_offset 8
  33              		.cfi_offset 7, -8
  34              		.cfi_offset 14, -4
  35 0002 82B0     		sub	sp, sp, #8
  36              		.cfi_def_cfa_offset 16
ARM GAS  C:\Users\dantz\AppData\Local\Temp\ccA5mggQ.s 			page 3


  37 0004 00AF     		add	r7, sp, #0
  38              		.cfi_def_cfa_register 7
  39 0006 7860     		str	r0, [r7, #4]
  40 0008 3960     		str	r1, [r7]
  79:Generated_Source\PSoC5/cyfitter_cfg.c **** 	(void)memset(s, 0, n);
  41              		.loc 1 79 0
  42 000a 3A68     		ldr	r2, [r7]
  43 000c 0021     		movs	r1, #0
  44 000e 7868     		ldr	r0, [r7, #4]
  45 0010 FFF7FEFF 		bl	memset
  80:Generated_Source\PSoC5/cyfitter_cfg.c **** }
  46              		.loc 1 80 0
  47 0014 00BF     		nop
  48 0016 0837     		adds	r7, r7, #8
  49              		.cfi_def_cfa_offset 8
  50 0018 BD46     		mov	sp, r7
  51              		.cfi_def_cfa_register 13
  52              		@ sp needed
  53 001a 80BD     		pop	{r7, pc}
  54              		.cfi_endproc
  55              	.LFE0:
  56              		.size	CYMEMZERO, .-CYMEMZERO
  57              		.section	.text.CYCONFIGCPY,"ax",%progbits
  58              		.align	2
  59              		.thumb
  60              		.thumb_func
  61              		.type	CYCONFIGCPY, %function
  62              	CYCONFIGCPY:
  63              	.LFB1:
  81:Generated_Source\PSoC5/cyfitter_cfg.c **** CY_CFG_UNUSED
  82:Generated_Source\PSoC5/cyfitter_cfg.c **** static void CYCONFIGCPY(void *dest, const void *src, size_t n);
  83:Generated_Source\PSoC5/cyfitter_cfg.c **** CY_CFG_UNUSED
  84:Generated_Source\PSoC5/cyfitter_cfg.c **** static void CYCONFIGCPY(void *dest, const void *src, size_t n)
  85:Generated_Source\PSoC5/cyfitter_cfg.c **** {
  64              		.loc 1 85 0
  65              		.cfi_startproc
  66              		@ args = 0, pretend = 0, frame = 16
  67              		@ frame_needed = 1, uses_anonymous_args = 0
  68 0000 80B5     		push	{r7, lr}
  69              		.cfi_def_cfa_offset 8
  70              		.cfi_offset 7, -8
  71              		.cfi_offset 14, -4
  72 0002 84B0     		sub	sp, sp, #16
  73              		.cfi_def_cfa_offset 24
  74 0004 00AF     		add	r7, sp, #0
  75              		.cfi_def_cfa_register 7
  76 0006 F860     		str	r0, [r7, #12]
  77 0008 B960     		str	r1, [r7, #8]
  78 000a 7A60     		str	r2, [r7, #4]
  86:Generated_Source\PSoC5/cyfitter_cfg.c **** 	(void)memcpy(dest, src, n);
  79              		.loc 1 86 0
  80 000c 7A68     		ldr	r2, [r7, #4]
  81 000e B968     		ldr	r1, [r7, #8]
  82 0010 F868     		ldr	r0, [r7, #12]
  83 0012 FFF7FEFF 		bl	memcpy
  87:Generated_Source\PSoC5/cyfitter_cfg.c **** }
  84              		.loc 1 87 0
ARM GAS  C:\Users\dantz\AppData\Local\Temp\ccA5mggQ.s 			page 4


  85 0016 00BF     		nop
  86 0018 1037     		adds	r7, r7, #16
  87              		.cfi_def_cfa_offset 8
  88 001a BD46     		mov	sp, r7
  89              		.cfi_def_cfa_register 13
  90              		@ sp needed
  91 001c 80BD     		pop	{r7, pc}
  92              		.cfi_endproc
  93              	.LFE1:
  94              		.size	CYCONFIGCPY, .-CYCONFIGCPY
  95 001e 00BF     		.section	.text.CYCONFIGCPYCODE,"ax",%progbits
  96              		.align	2
  97              		.thumb
  98              		.thumb_func
  99              		.type	CYCONFIGCPYCODE, %function
 100              	CYCONFIGCPYCODE:
 101              	.LFB2:
  88:Generated_Source\PSoC5/cyfitter_cfg.c **** CY_CFG_UNUSED
  89:Generated_Source\PSoC5/cyfitter_cfg.c **** static void CYCONFIGCPYCODE(void *dest, const void *src, size_t n);
  90:Generated_Source\PSoC5/cyfitter_cfg.c **** CY_CFG_UNUSED
  91:Generated_Source\PSoC5/cyfitter_cfg.c **** static void CYCONFIGCPYCODE(void *dest, const void *src, size_t n)
  92:Generated_Source\PSoC5/cyfitter_cfg.c **** {
 102              		.loc 1 92 0
 103              		.cfi_startproc
 104              		@ args = 0, pretend = 0, frame = 16
 105              		@ frame_needed = 1, uses_anonymous_args = 0
 106 0000 80B5     		push	{r7, lr}
 107              		.cfi_def_cfa_offset 8
 108              		.cfi_offset 7, -8
 109              		.cfi_offset 14, -4
 110 0002 84B0     		sub	sp, sp, #16
 111              		.cfi_def_cfa_offset 24
 112 0004 00AF     		add	r7, sp, #0
 113              		.cfi_def_cfa_register 7
 114 0006 F860     		str	r0, [r7, #12]
 115 0008 B960     		str	r1, [r7, #8]
 116 000a 7A60     		str	r2, [r7, #4]
  93:Generated_Source\PSoC5/cyfitter_cfg.c **** 	(void)memcpy(dest, src, n);
 117              		.loc 1 93 0
 118 000c 7A68     		ldr	r2, [r7, #4]
 119 000e B968     		ldr	r1, [r7, #8]
 120 0010 F868     		ldr	r0, [r7, #12]
 121 0012 FFF7FEFF 		bl	memcpy
  94:Generated_Source\PSoC5/cyfitter_cfg.c **** }
 122              		.loc 1 94 0
 123 0016 00BF     		nop
 124 0018 1037     		adds	r7, r7, #16
 125              		.cfi_def_cfa_offset 8
 126 001a BD46     		mov	sp, r7
 127              		.cfi_def_cfa_register 13
 128              		@ sp needed
 129 001c 80BD     		pop	{r7, pc}
 130              		.cfi_endproc
 131              	.LFE2:
 132              		.size	CYCONFIGCPYCODE, .-CYCONFIGCPYCODE
 133 001e 00BF     		.section	.text.CyClockStartupError,"ax",%progbits
 134              		.align	2
ARM GAS  C:\Users\dantz\AppData\Local\Temp\ccA5mggQ.s 			page 5


 135              		.thumb
 136              		.thumb_func
 137              		.type	CyClockStartupError, %function
 138              	CyClockStartupError:
 139              	.LFB3:
  95:Generated_Source\PSoC5/cyfitter_cfg.c **** 
  96:Generated_Source\PSoC5/cyfitter_cfg.c **** 
  97:Generated_Source\PSoC5/cyfitter_cfg.c **** 
  98:Generated_Source\PSoC5/cyfitter_cfg.c **** 
  99:Generated_Source\PSoC5/cyfitter_cfg.c **** /* Clock startup error codes                                                   */
 100:Generated_Source\PSoC5/cyfitter_cfg.c **** #define CYCLOCKSTART_NO_ERROR    0u
 101:Generated_Source\PSoC5/cyfitter_cfg.c **** #define CYCLOCKSTART_XTAL_ERROR  1u
 102:Generated_Source\PSoC5/cyfitter_cfg.c **** #define CYCLOCKSTART_32KHZ_ERROR 2u
 103:Generated_Source\PSoC5/cyfitter_cfg.c **** #define CYCLOCKSTART_PLL_ERROR   3u
 104:Generated_Source\PSoC5/cyfitter_cfg.c **** #define CYCLOCKSTART_FLL_ERROR   4u
 105:Generated_Source\PSoC5/cyfitter_cfg.c **** #define CYCLOCKSTART_WCO_ERROR   5u
 106:Generated_Source\PSoC5/cyfitter_cfg.c **** 
 107:Generated_Source\PSoC5/cyfitter_cfg.c **** 
 108:Generated_Source\PSoC5/cyfitter_cfg.c **** #ifdef CY_NEED_CYCLOCKSTARTUPERROR
 109:Generated_Source\PSoC5/cyfitter_cfg.c **** /*******************************************************************************
 110:Generated_Source\PSoC5/cyfitter_cfg.c **** * Function Name: CyClockStartupError
 111:Generated_Source\PSoC5/cyfitter_cfg.c **** ********************************************************************************
 112:Generated_Source\PSoC5/cyfitter_cfg.c **** * Summary:
 113:Generated_Source\PSoC5/cyfitter_cfg.c **** *  If an error is encountered during clock configuration (crystal startup error,
 114:Generated_Source\PSoC5/cyfitter_cfg.c **** *  PLL lock error, etc.), the system will end up here.  Unless reimplemented by
 115:Generated_Source\PSoC5/cyfitter_cfg.c **** *  the customer, this function will stop in an infinite loop.
 116:Generated_Source\PSoC5/cyfitter_cfg.c **** *
 117:Generated_Source\PSoC5/cyfitter_cfg.c **** * Parameters:
 118:Generated_Source\PSoC5/cyfitter_cfg.c **** *   void
 119:Generated_Source\PSoC5/cyfitter_cfg.c **** *
 120:Generated_Source\PSoC5/cyfitter_cfg.c **** * Return:
 121:Generated_Source\PSoC5/cyfitter_cfg.c **** *   void
 122:Generated_Source\PSoC5/cyfitter_cfg.c **** *
 123:Generated_Source\PSoC5/cyfitter_cfg.c **** *******************************************************************************/
 124:Generated_Source\PSoC5/cyfitter_cfg.c **** CY_CFG_UNUSED
 125:Generated_Source\PSoC5/cyfitter_cfg.c **** static void CyClockStartupError(uint8 errorCode);
 126:Generated_Source\PSoC5/cyfitter_cfg.c **** CY_CFG_UNUSED
 127:Generated_Source\PSoC5/cyfitter_cfg.c **** static void CyClockStartupError(uint8 errorCode)
 128:Generated_Source\PSoC5/cyfitter_cfg.c **** {
 140              		.loc 1 128 0
 141              		.cfi_startproc
 142              		@ args = 0, pretend = 0, frame = 8
 143              		@ frame_needed = 1, uses_anonymous_args = 0
 144              		@ link register save eliminated.
 145 0000 80B4     		push	{r7}
 146              		.cfi_def_cfa_offset 4
 147              		.cfi_offset 7, -4
 148 0002 83B0     		sub	sp, sp, #12
 149              		.cfi_def_cfa_offset 16
 150 0004 00AF     		add	r7, sp, #0
 151              		.cfi_def_cfa_register 7
 152 0006 0346     		mov	r3, r0
 153 0008 FB71     		strb	r3, [r7, #7]
 154              	.L5:
 129:Generated_Source\PSoC5/cyfitter_cfg.c ****     /* To remove the compiler warning if errorCode not used.                */
 130:Generated_Source\PSoC5/cyfitter_cfg.c ****     errorCode = errorCode;
 131:Generated_Source\PSoC5/cyfitter_cfg.c **** 
ARM GAS  C:\Users\dantz\AppData\Local\Temp\ccA5mggQ.s 			page 6


 132:Generated_Source\PSoC5/cyfitter_cfg.c ****     /* If we have a clock startup error (bad MHz crystal, PLL lock, etc.),  */
 133:Generated_Source\PSoC5/cyfitter_cfg.c ****     /* we will end up here to allow the customer to implement something to  */
 134:Generated_Source\PSoC5/cyfitter_cfg.c ****     /* deal with the clock condition.                                       */
 135:Generated_Source\PSoC5/cyfitter_cfg.c **** 
 136:Generated_Source\PSoC5/cyfitter_cfg.c **** #ifdef CY_CFG_CLOCK_STARTUP_ERROR_CALLBACK
 137:Generated_Source\PSoC5/cyfitter_cfg.c ****     CY_CFG_Clock_Startup_ErrorCallback();
 138:Generated_Source\PSoC5/cyfitter_cfg.c **** #else
 139:Generated_Source\PSoC5/cyfitter_cfg.c ****     /*  If not using CY_CFG_CLOCK_STARTUP_ERROR_CALLBACK, place your clock startup code here. */
 140:Generated_Source\PSoC5/cyfitter_cfg.c ****     /* `#START CyClockStartupError` */
 141:Generated_Source\PSoC5/cyfitter_cfg.c **** 
 142:Generated_Source\PSoC5/cyfitter_cfg.c **** 
 143:Generated_Source\PSoC5/cyfitter_cfg.c **** 
 144:Generated_Source\PSoC5/cyfitter_cfg.c ****     /* `#END` */
 145:Generated_Source\PSoC5/cyfitter_cfg.c **** 
 146:Generated_Source\PSoC5/cyfitter_cfg.c ****     while(1) {}
 155              		.loc 1 146 0 discriminator 1
 156 000a FEE7     		b	.L5
 157              		.cfi_endproc
 158              	.LFE3:
 159              		.size	CyClockStartupError, .-CyClockStartupError
 160              		.section	.text.cfg_write_bytes32,"ax",%progbits
 161              		.align	2
 162              		.thumb
 163              		.thumb_func
 164              		.type	cfg_write_bytes32, %function
 165              	cfg_write_bytes32:
 166              	.LFB4:
 147:Generated_Source\PSoC5/cyfitter_cfg.c **** #endif /* CY_CFG_CLOCK_STARTUP_ERROR_CALLBACK */
 148:Generated_Source\PSoC5/cyfitter_cfg.c **** }
 149:Generated_Source\PSoC5/cyfitter_cfg.c **** #endif
 150:Generated_Source\PSoC5/cyfitter_cfg.c **** 
 151:Generated_Source\PSoC5/cyfitter_cfg.c **** #define CY_CFG_BASE_ADDR_COUNT 37u
 152:Generated_Source\PSoC5/cyfitter_cfg.c **** CYPACKED typedef struct
 153:Generated_Source\PSoC5/cyfitter_cfg.c **** {
 154:Generated_Source\PSoC5/cyfitter_cfg.c **** 	uint8 offset;
 155:Generated_Source\PSoC5/cyfitter_cfg.c **** 	uint8 value;
 156:Generated_Source\PSoC5/cyfitter_cfg.c **** } CYPACKED_ATTR cy_cfg_addrvalue_t;
 157:Generated_Source\PSoC5/cyfitter_cfg.c **** 
 158:Generated_Source\PSoC5/cyfitter_cfg.c **** #define cy_cfg_addr_table ((const uint32 CYFAR *)0x48000000u)
 159:Generated_Source\PSoC5/cyfitter_cfg.c **** #define cy_cfg_data_table ((const cy_cfg_addrvalue_t CYFAR *)0x48000094u)
 160:Generated_Source\PSoC5/cyfitter_cfg.c **** 
 161:Generated_Source\PSoC5/cyfitter_cfg.c **** /* IOPORT_7 Address: CYDEV_PRTDSI_PRT12_BASE Size (bytes): 6 */
 162:Generated_Source\PSoC5/cyfitter_cfg.c **** #define BS_IOPORT_7_VAL ((const uint8 CYFAR *)0x48000BA8u)
 163:Generated_Source\PSoC5/cyfitter_cfg.c **** 
 164:Generated_Source\PSoC5/cyfitter_cfg.c **** /* UDB_0_1_1_CONFIG Address: CYDEV_UCFG_B1_P4_U0_BASE Size (bytes): 128 */
 165:Generated_Source\PSoC5/cyfitter_cfg.c **** #define BS_UDB_0_1_1_CONFIG_VAL ((const uint8 CYFAR *)0x48000BB0u)
 166:Generated_Source\PSoC5/cyfitter_cfg.c **** 
 167:Generated_Source\PSoC5/cyfitter_cfg.c **** /* IOPINS0_0 Address: CYREG_PRT0_DM0 Size (bytes): 8 */
 168:Generated_Source\PSoC5/cyfitter_cfg.c **** #define BS_IOPINS0_0_VAL ((const uint8 CYFAR *)0x48000C30u)
 169:Generated_Source\PSoC5/cyfitter_cfg.c **** 
 170:Generated_Source\PSoC5/cyfitter_cfg.c **** /* IOPINS0_7 Address: CYREG_PRT12_DM0 Size (bytes): 8 */
 171:Generated_Source\PSoC5/cyfitter_cfg.c **** #define BS_IOPINS0_7_VAL ((const uint8 CYFAR *)0x48000C38u)
 172:Generated_Source\PSoC5/cyfitter_cfg.c **** 
 173:Generated_Source\PSoC5/cyfitter_cfg.c **** /* IOPINS0_8 Address: CYREG_PRT15_DR Size (bytes): 10 */
 174:Generated_Source\PSoC5/cyfitter_cfg.c **** #define BS_IOPINS0_8_VAL ((const uint8 CYFAR *)0x48000C40u)
 175:Generated_Source\PSoC5/cyfitter_cfg.c **** 
 176:Generated_Source\PSoC5/cyfitter_cfg.c **** /* IOPINS0_2 Address: CYREG_PRT2_DM0 Size (bytes): 8 */
ARM GAS  C:\Users\dantz\AppData\Local\Temp\ccA5mggQ.s 			page 7


 177:Generated_Source\PSoC5/cyfitter_cfg.c **** #define BS_IOPINS0_2_VAL ((const uint8 CYFAR *)0x48000C4Cu)
 178:Generated_Source\PSoC5/cyfitter_cfg.c **** 
 179:Generated_Source\PSoC5/cyfitter_cfg.c **** /* IOPINS0_3 Address: CYREG_PRT3_DM0 Size (bytes): 8 */
 180:Generated_Source\PSoC5/cyfitter_cfg.c **** #define BS_IOPINS0_3_VAL ((const uint8 CYFAR *)0x48000C54u)
 181:Generated_Source\PSoC5/cyfitter_cfg.c **** 
 182:Generated_Source\PSoC5/cyfitter_cfg.c **** /* CYDEV_CLKDIST_ACFG0_CFG0 Address: CYREG_CLKDIST_ACFG0_CFG0 Size (bytes): 4 */
 183:Generated_Source\PSoC5/cyfitter_cfg.c **** #define BS_CYDEV_CLKDIST_ACFG0_CFG0_VAL ((const uint8 CYFAR *)0x48000C5Cu)
 184:Generated_Source\PSoC5/cyfitter_cfg.c **** 
 185:Generated_Source\PSoC5/cyfitter_cfg.c **** 
 186:Generated_Source\PSoC5/cyfitter_cfg.c **** /*******************************************************************************
 187:Generated_Source\PSoC5/cyfitter_cfg.c **** * Function Name: cfg_write_bytes32
 188:Generated_Source\PSoC5/cyfitter_cfg.c **** ********************************************************************************
 189:Generated_Source\PSoC5/cyfitter_cfg.c **** * Summary:
 190:Generated_Source\PSoC5/cyfitter_cfg.c **** *  This function is used for setting up the chip configuration areas that
 191:Generated_Source\PSoC5/cyfitter_cfg.c **** *  contain relatively sparse data.
 192:Generated_Source\PSoC5/cyfitter_cfg.c **** *
 193:Generated_Source\PSoC5/cyfitter_cfg.c **** * Parameters:
 194:Generated_Source\PSoC5/cyfitter_cfg.c **** *   void
 195:Generated_Source\PSoC5/cyfitter_cfg.c **** *
 196:Generated_Source\PSoC5/cyfitter_cfg.c **** * Return:
 197:Generated_Source\PSoC5/cyfitter_cfg.c **** *   void
 198:Generated_Source\PSoC5/cyfitter_cfg.c **** *
 199:Generated_Source\PSoC5/cyfitter_cfg.c **** *******************************************************************************/
 200:Generated_Source\PSoC5/cyfitter_cfg.c **** static void cfg_write_bytes32(const uint32 addr_table[], const cy_cfg_addrvalue_t data_table[]);
 201:Generated_Source\PSoC5/cyfitter_cfg.c **** static void cfg_write_bytes32(const uint32 addr_table[], const cy_cfg_addrvalue_t data_table[])
 202:Generated_Source\PSoC5/cyfitter_cfg.c **** {
 167              		.loc 1 202 0
 168              		.cfi_startproc
 169              		@ args = 0, pretend = 0, frame = 24
 170              		@ frame_needed = 1, uses_anonymous_args = 0
 171              		@ link register save eliminated.
 172 0000 80B4     		push	{r7}
 173              		.cfi_def_cfa_offset 4
 174              		.cfi_offset 7, -4
 175 0002 87B0     		sub	sp, sp, #28
 176              		.cfi_def_cfa_offset 32
 177 0004 00AF     		add	r7, sp, #0
 178              		.cfi_def_cfa_register 7
 179 0006 7860     		str	r0, [r7, #4]
 180 0008 3960     		str	r1, [r7]
 203:Generated_Source\PSoC5/cyfitter_cfg.c **** 	/* For 32-bit little-endian architectures */
 204:Generated_Source\PSoC5/cyfitter_cfg.c **** 	uint32 i, j = 0u;
 181              		.loc 1 204 0
 182 000a 0023     		movs	r3, #0
 183 000c 3B61     		str	r3, [r7, #16]
 205:Generated_Source\PSoC5/cyfitter_cfg.c **** 	for (i = 0u; i < CY_CFG_BASE_ADDR_COUNT; i++)
 184              		.loc 1 205 0
 185 000e 0023     		movs	r3, #0
 186 0010 7B61     		str	r3, [r7, #20]
 187 0012 27E0     		b	.L7
 188              	.L10:
 189              	.LBB2:
 206:Generated_Source\PSoC5/cyfitter_cfg.c **** 	{
 207:Generated_Source\PSoC5/cyfitter_cfg.c **** 		uint32 baseAddr = addr_table[i];
 190              		.loc 1 207 0
 191 0014 7B69     		ldr	r3, [r7, #20]
 192 0016 9B00     		lsls	r3, r3, #2
ARM GAS  C:\Users\dantz\AppData\Local\Temp\ccA5mggQ.s 			page 8


 193 0018 7A68     		ldr	r2, [r7, #4]
 194 001a 1344     		add	r3, r3, r2
 195 001c 1B68     		ldr	r3, [r3]
 196 001e BB60     		str	r3, [r7, #8]
 208:Generated_Source\PSoC5/cyfitter_cfg.c **** 		uint8 count = (uint8)baseAddr;
 197              		.loc 1 208 0
 198 0020 BB68     		ldr	r3, [r7, #8]
 199 0022 FB73     		strb	r3, [r7, #15]
 209:Generated_Source\PSoC5/cyfitter_cfg.c **** 		baseAddr &= 0xFFFFFF00u;
 200              		.loc 1 209 0
 201 0024 BB68     		ldr	r3, [r7, #8]
 202 0026 23F0FF03 		bic	r3, r3, #255
 203 002a BB60     		str	r3, [r7, #8]
 210:Generated_Source\PSoC5/cyfitter_cfg.c **** 		while (count != 0u)
 204              		.loc 1 210 0
 205 002c 14E0     		b	.L8
 206              	.L9:
 211:Generated_Source\PSoC5/cyfitter_cfg.c **** 		{
 212:Generated_Source\PSoC5/cyfitter_cfg.c **** 			CY_SET_REG8((void *)(baseAddr + data_table[j].offset), data_table[j].value);
 207              		.loc 1 212 0
 208 002e 3B69     		ldr	r3, [r7, #16]
 209 0030 5B00     		lsls	r3, r3, #1
 210 0032 3A68     		ldr	r2, [r7]
 211 0034 1344     		add	r3, r3, r2
 212 0036 1B78     		ldrb	r3, [r3]	@ zero_extendqisi2
 213 0038 1A46     		mov	r2, r3
 214 003a BB68     		ldr	r3, [r7, #8]
 215 003c 1344     		add	r3, r3, r2
 216 003e 1946     		mov	r1, r3
 217 0040 3B69     		ldr	r3, [r7, #16]
 218 0042 5B00     		lsls	r3, r3, #1
 219 0044 3A68     		ldr	r2, [r7]
 220 0046 1344     		add	r3, r3, r2
 221 0048 5B78     		ldrb	r3, [r3, #1]	@ zero_extendqisi2
 222 004a 0B70     		strb	r3, [r1]
 213:Generated_Source\PSoC5/cyfitter_cfg.c **** 			j++;
 223              		.loc 1 213 0
 224 004c 3B69     		ldr	r3, [r7, #16]
 225 004e 0133     		adds	r3, r3, #1
 226 0050 3B61     		str	r3, [r7, #16]
 214:Generated_Source\PSoC5/cyfitter_cfg.c **** 			count--;
 227              		.loc 1 214 0
 228 0052 FB7B     		ldrb	r3, [r7, #15]	@ zero_extendqisi2
 229 0054 013B     		subs	r3, r3, #1
 230 0056 FB73     		strb	r3, [r7, #15]
 231              	.L8:
 210:Generated_Source\PSoC5/cyfitter_cfg.c **** 		{
 232              		.loc 1 210 0
 233 0058 FB7B     		ldrb	r3, [r7, #15]	@ zero_extendqisi2
 234 005a 002B     		cmp	r3, #0
 235 005c E7D1     		bne	.L9
 236              	.LBE2:
 205:Generated_Source\PSoC5/cyfitter_cfg.c **** 	{
 237              		.loc 1 205 0 discriminator 2
 238 005e 7B69     		ldr	r3, [r7, #20]
 239 0060 0133     		adds	r3, r3, #1
 240 0062 7B61     		str	r3, [r7, #20]
ARM GAS  C:\Users\dantz\AppData\Local\Temp\ccA5mggQ.s 			page 9


 241              	.L7:
 205:Generated_Source\PSoC5/cyfitter_cfg.c **** 	{
 242              		.loc 1 205 0 is_stmt 0 discriminator 1
 243 0064 7B69     		ldr	r3, [r7, #20]
 244 0066 242B     		cmp	r3, #36
 245 0068 D4D9     		bls	.L10
 215:Generated_Source\PSoC5/cyfitter_cfg.c **** 		}
 216:Generated_Source\PSoC5/cyfitter_cfg.c **** 	}
 217:Generated_Source\PSoC5/cyfitter_cfg.c **** }
 246              		.loc 1 217 0 is_stmt 1
 247 006a 00BF     		nop
 248 006c 1C37     		adds	r7, r7, #28
 249              		.cfi_def_cfa_offset 4
 250 006e BD46     		mov	sp, r7
 251              		.cfi_def_cfa_register 13
 252              		@ sp needed
 253 0070 80BC     		pop	{r7}
 254              		.cfi_restore 7
 255              		.cfi_def_cfa_offset 0
 256 0072 7047     		bx	lr
 257              		.cfi_endproc
 258              	.LFE4:
 259              		.size	cfg_write_bytes32, .-cfg_write_bytes32
 260              		.section	.text.ClockSetup,"ax",%progbits
 261              		.align	2
 262              		.thumb
 263              		.thumb_func
 264              		.type	ClockSetup, %function
 265              	ClockSetup:
 266              	.LFB5:
 218:Generated_Source\PSoC5/cyfitter_cfg.c **** 
 219:Generated_Source\PSoC5/cyfitter_cfg.c **** /*******************************************************************************
 220:Generated_Source\PSoC5/cyfitter_cfg.c **** * Function Name: ClockSetup
 221:Generated_Source\PSoC5/cyfitter_cfg.c **** ********************************************************************************
 222:Generated_Source\PSoC5/cyfitter_cfg.c **** *
 223:Generated_Source\PSoC5/cyfitter_cfg.c **** * Summary:
 224:Generated_Source\PSoC5/cyfitter_cfg.c **** *  Performs the initialization of all of the clocks in the device based on the
 225:Generated_Source\PSoC5/cyfitter_cfg.c **** *  settings in the Clock tab of the DWR.  This includes enabling the requested
 226:Generated_Source\PSoC5/cyfitter_cfg.c **** *  clocks and setting the necessary dividers to produce the desired frequency. 
 227:Generated_Source\PSoC5/cyfitter_cfg.c **** *
 228:Generated_Source\PSoC5/cyfitter_cfg.c **** * Parameters:
 229:Generated_Source\PSoC5/cyfitter_cfg.c **** *  void
 230:Generated_Source\PSoC5/cyfitter_cfg.c **** *
 231:Generated_Source\PSoC5/cyfitter_cfg.c **** * Return:
 232:Generated_Source\PSoC5/cyfitter_cfg.c **** *  void
 233:Generated_Source\PSoC5/cyfitter_cfg.c **** *
 234:Generated_Source\PSoC5/cyfitter_cfg.c **** *******************************************************************************/
 235:Generated_Source\PSoC5/cyfitter_cfg.c **** static void ClockSetup(void);
 236:Generated_Source\PSoC5/cyfitter_cfg.c **** static void ClockSetup(void)
 237:Generated_Source\PSoC5/cyfitter_cfg.c **** {
 267              		.loc 1 237 0
 268              		.cfi_startproc
 269              		@ args = 0, pretend = 0, frame = 8
 270              		@ frame_needed = 1, uses_anonymous_args = 0
 271 0000 80B5     		push	{r7, lr}
 272              		.cfi_def_cfa_offset 8
 273              		.cfi_offset 7, -8
ARM GAS  C:\Users\dantz\AppData\Local\Temp\ccA5mggQ.s 			page 10


 274              		.cfi_offset 14, -4
 275 0002 82B0     		sub	sp, sp, #8
 276              		.cfi_def_cfa_offset 16
 277 0004 00AF     		add	r7, sp, #0
 278              		.cfi_def_cfa_register 7
 238:Generated_Source\PSoC5/cyfitter_cfg.c **** 	uint8 x32TrHold;
 239:Generated_Source\PSoC5/cyfitter_cfg.c **** 	uint32 timeout;
 240:Generated_Source\PSoC5/cyfitter_cfg.c **** 	uint8 pllLock;
 241:Generated_Source\PSoC5/cyfitter_cfg.c **** 
 242:Generated_Source\PSoC5/cyfitter_cfg.c **** 	x32TrHold = CY_GET_XTND_REG8((void CYFAR *)CYREG_X32_TR);
 279              		.loc 1 242 0
 280 0006 634B     		ldr	r3, .L19
 281 0008 1B78     		ldrb	r3, [r3]
 282 000a BB70     		strb	r3, [r7, #2]
 243:Generated_Source\PSoC5/cyfitter_cfg.c **** 
 244:Generated_Source\PSoC5/cyfitter_cfg.c **** 	/* Configure Digital Clocks based on settings from Clock DWR */
 245:Generated_Source\PSoC5/cyfitter_cfg.c **** 	CY_SET_XTND_REG16((void CYFAR *)(CYREG_CLKDIST_DCFG0_CFG0), 0x0000u);
 283              		.loc 1 245 0
 284 000c 624B     		ldr	r3, .L19+4
 285 000e 0022     		movs	r2, #0
 286 0010 1A80     		strh	r2, [r3]	@ movhi
 246:Generated_Source\PSoC5/cyfitter_cfg.c **** 	CY_SET_XTND_REG8((void CYFAR *)(CYREG_CLKDIST_DCFG0_CFG0 + 0x2u), 0x58u);
 287              		.loc 1 246 0
 288 0012 624B     		ldr	r3, .L19+8
 289 0014 5822     		movs	r2, #88
 290 0016 1A70     		strb	r2, [r3]
 247:Generated_Source\PSoC5/cyfitter_cfg.c **** 	CY_SET_XTND_REG16((void CYFAR *)(CYREG_CLKDIST_DCFG1_CFG0), 0x0000u);
 291              		.loc 1 247 0
 292 0018 614B     		ldr	r3, .L19+12
 293 001a 0022     		movs	r2, #0
 294 001c 1A80     		strh	r2, [r3]	@ movhi
 248:Generated_Source\PSoC5/cyfitter_cfg.c **** 	CY_SET_XTND_REG8((void CYFAR *)(CYREG_CLKDIST_DCFG1_CFG0 + 0x2u), 0x50u);
 295              		.loc 1 248 0
 296 001e 614B     		ldr	r3, .L19+16
 297 0020 5022     		movs	r2, #80
 298 0022 1A70     		strb	r2, [r3]
 249:Generated_Source\PSoC5/cyfitter_cfg.c **** 	CY_SET_XTND_REG16((void CYFAR *)(CYREG_CLKDIST_DCFG2_CFG0), 0x0019u);
 299              		.loc 1 249 0
 300 0024 604B     		ldr	r3, .L19+20
 301 0026 1922     		movs	r2, #25
 302 0028 1A80     		strh	r2, [r3]	@ movhi
 250:Generated_Source\PSoC5/cyfitter_cfg.c **** 	CY_SET_XTND_REG8((void CYFAR *)(CYREG_CLKDIST_DCFG2_CFG0 + 0x2u), 0x19u);
 303              		.loc 1 250 0
 304 002a 604B     		ldr	r3, .L19+24
 305 002c 1922     		movs	r2, #25
 306 002e 1A70     		strb	r2, [r3]
 251:Generated_Source\PSoC5/cyfitter_cfg.c **** 	CY_SET_XTND_REG16((void CYFAR *)(CYREG_CLKDIST_DCFG3_CFG0), 0x0019u);
 307              		.loc 1 251 0
 308 0030 5F4B     		ldr	r3, .L19+28
 309 0032 1922     		movs	r2, #25
 310 0034 1A80     		strh	r2, [r3]	@ movhi
 252:Generated_Source\PSoC5/cyfitter_cfg.c **** 	CY_SET_XTND_REG8((void CYFAR *)(CYREG_CLKDIST_DCFG3_CFG0 + 0x2u), 0x19u);
 311              		.loc 1 252 0
 312 0036 5F4B     		ldr	r3, .L19+32
 313 0038 1922     		movs	r2, #25
 314 003a 1A70     		strb	r2, [r3]
 253:Generated_Source\PSoC5/cyfitter_cfg.c **** 	CY_SET_XTND_REG16((void CYFAR *)(CYREG_CLKDIST_DCFG4_CFG0), 0x0138u);
ARM GAS  C:\Users\dantz\AppData\Local\Temp\ccA5mggQ.s 			page 11


 315              		.loc 1 253 0
 316 003c 5E4B     		ldr	r3, .L19+36
 317 003e 4FF49C72 		mov	r2, #312
 318 0042 1A80     		strh	r2, [r3]	@ movhi
 254:Generated_Source\PSoC5/cyfitter_cfg.c **** 	CY_SET_XTND_REG8((void CYFAR *)(CYREG_CLKDIST_DCFG4_CFG0 + 0x2u), 0x18u);
 319              		.loc 1 254 0
 320 0044 5D4B     		ldr	r3, .L19+40
 321 0046 1822     		movs	r2, #24
 322 0048 1A70     		strb	r2, [r3]
 255:Generated_Source\PSoC5/cyfitter_cfg.c **** 	CY_SET_XTND_REG16((void CYFAR *)(CYREG_CLKDIST_DCFG5_CFG0), 0x0138u);
 323              		.loc 1 255 0
 324 004a 5D4B     		ldr	r3, .L19+44
 325 004c 4FF49C72 		mov	r2, #312
 326 0050 1A80     		strh	r2, [r3]	@ movhi
 256:Generated_Source\PSoC5/cyfitter_cfg.c **** 	CY_SET_XTND_REG8((void CYFAR *)(CYREG_CLKDIST_DCFG5_CFG0 + 0x2u), 0x18u);
 327              		.loc 1 256 0
 328 0052 5C4B     		ldr	r3, .L19+48
 329 0054 1822     		movs	r2, #24
 330 0056 1A70     		strb	r2, [r3]
 257:Generated_Source\PSoC5/cyfitter_cfg.c **** 	CY_SET_XTND_REG16((void CYFAR *)(CYREG_CLKDIST_DCFG6_CFG0), 0x0138u);
 331              		.loc 1 257 0
 332 0058 5B4B     		ldr	r3, .L19+52
 333 005a 4FF49C72 		mov	r2, #312
 334 005e 1A80     		strh	r2, [r3]	@ movhi
 258:Generated_Source\PSoC5/cyfitter_cfg.c **** 	CY_SET_XTND_REG8((void CYFAR *)(CYREG_CLKDIST_DCFG6_CFG0 + 0x2u), 0x19u);
 335              		.loc 1 258 0
 336 0060 5A4B     		ldr	r3, .L19+56
 337 0062 1922     		movs	r2, #25
 338 0064 1A70     		strb	r2, [r3]
 259:Generated_Source\PSoC5/cyfitter_cfg.c **** 
 260:Generated_Source\PSoC5/cyfitter_cfg.c **** 	/* Configure Analog Clocks based on settings from Clock DWR */
 261:Generated_Source\PSoC5/cyfitter_cfg.c **** 	CYCONFIGCPY((void CYFAR *)(CYREG_CLKDIST_ACFG0_CFG0), (const void CYFAR *)(BS_CYDEV_CLKDIST_ACFG0_
 339              		.loc 1 261 0
 340 0066 0422     		movs	r2, #4
 341 0068 5949     		ldr	r1, .L19+60
 342 006a 5A48     		ldr	r0, .L19+64
 343 006c FFF7FEFF 		bl	CYCONFIGCPY
 262:Generated_Source\PSoC5/cyfitter_cfg.c **** 
 263:Generated_Source\PSoC5/cyfitter_cfg.c **** 	/* Configure ILO based on settings from Clock DWR */
 264:Generated_Source\PSoC5/cyfitter_cfg.c **** 	CY_SET_XTND_REG8((void CYFAR *)(CYREG_SLOWCLK_ILO_CR0), 0x02u);
 344              		.loc 1 264 0
 345 0070 594B     		ldr	r3, .L19+68
 346 0072 0222     		movs	r2, #2
 347 0074 1A70     		strb	r2, [r3]
 265:Generated_Source\PSoC5/cyfitter_cfg.c **** 	CY_SET_XTND_REG8((void CYFAR *)(CYREG_CLKDIST_CR), 0x08u);
 348              		.loc 1 265 0
 349 0076 4FF04023 		mov	r3, #1073758208
 350 007a 0822     		movs	r2, #8
 351 007c 1A70     		strb	r2, [r3]
 266:Generated_Source\PSoC5/cyfitter_cfg.c **** 
 267:Generated_Source\PSoC5/cyfitter_cfg.c **** 	/* Configure XTAL 32kHz based on settings from Clock DWR */
 268:Generated_Source\PSoC5/cyfitter_cfg.c **** 	CY_SET_XTND_REG8((void CYFAR *)(CYREG_SLOWCLK_X32_TST), 0xF3u);
 352              		.loc 1 268 0
 353 007e 574B     		ldr	r3, .L19+72
 354 0080 F322     		movs	r2, #243
 355 0082 1A70     		strb	r2, [r3]
 269:Generated_Source\PSoC5/cyfitter_cfg.c **** 	CY_SET_XTND_REG8((void CYFAR *)(CYREG_X32_TR), 0x03u);
ARM GAS  C:\Users\dantz\AppData\Local\Temp\ccA5mggQ.s 			page 12


 356              		.loc 1 269 0
 357 0084 434B     		ldr	r3, .L19
 358 0086 0322     		movs	r2, #3
 359 0088 1A70     		strb	r2, [r3]
 270:Generated_Source\PSoC5/cyfitter_cfg.c **** 	CY_SET_XTND_REG8((void CYFAR *)(CYREG_SLOWCLK_X32_CFG), 0x84u);
 360              		.loc 1 270 0
 361 008a 554B     		ldr	r3, .L19+76
 362 008c 8422     		movs	r2, #132
 363 008e 1A70     		strb	r2, [r3]
 271:Generated_Source\PSoC5/cyfitter_cfg.c **** 	CY_SET_XTND_REG8((void CYFAR *)(CYREG_SLOWCLK_X32_CR), 0x05u);
 364              		.loc 1 271 0
 365 0090 544B     		ldr	r3, .L19+80
 366 0092 0522     		movs	r2, #5
 367 0094 1A70     		strb	r2, [r3]
 272:Generated_Source\PSoC5/cyfitter_cfg.c **** 	/* Wait up to 1000000us for the XTAL 32kHz to lock */
 273:Generated_Source\PSoC5/cyfitter_cfg.c **** 	for (timeout = 1000000u / 10u; (timeout > 0u) && ((CY_GET_XTND_REG8((void CYFAR *)CYREG_SLOWCLK_X3
 368              		.loc 1 273 0
 369 0096 544B     		ldr	r3, .L19+84
 370 0098 7B60     		str	r3, [r7, #4]
 371 009a 06E0     		b	.L12
 372              	.L14:
 274:Generated_Source\PSoC5/cyfitter_cfg.c **** 	{ 
 275:Generated_Source\PSoC5/cyfitter_cfg.c **** 		
 276:Generated_Source\PSoC5/cyfitter_cfg.c **** 		CyDelayCycles(10u * 48u); /* Delay 10us based on 48MHz clock */
 373              		.loc 1 276 0 discriminator 4
 374 009c 4FF4F070 		mov	r0, #480
 375 00a0 FFF7FEFF 		bl	CyDelayCycles
 273:Generated_Source\PSoC5/cyfitter_cfg.c **** 	{ 
 376              		.loc 1 273 0 discriminator 4
 377 00a4 7B68     		ldr	r3, [r7, #4]
 378 00a6 013B     		subs	r3, r3, #1
 379 00a8 7B60     		str	r3, [r7, #4]
 380              	.L12:
 273:Generated_Source\PSoC5/cyfitter_cfg.c **** 	{ 
 381              		.loc 1 273 0 is_stmt 0 discriminator 1
 382 00aa 7B68     		ldr	r3, [r7, #4]
 383 00ac 002B     		cmp	r3, #0
 384 00ae 06D0     		beq	.L13
 273:Generated_Source\PSoC5/cyfitter_cfg.c **** 	{ 
 385              		.loc 1 273 0 discriminator 3
 386 00b0 4C4B     		ldr	r3, .L19+80
 387 00b2 1B78     		ldrb	r3, [r3]
 388 00b4 DBB2     		uxtb	r3, r3
 389 00b6 03F02003 		and	r3, r3, #32
 390 00ba 002B     		cmp	r3, #0
 391 00bc EED0     		beq	.L14
 392              	.L13:
 277:Generated_Source\PSoC5/cyfitter_cfg.c **** 	}
 278:Generated_Source\PSoC5/cyfitter_cfg.c **** 	CY_SET_XTND_REG8((void CYFAR *)(CYREG_X32_TR), (x32TrHold));
 393              		.loc 1 278 0 is_stmt 1
 394 00be 354A     		ldr	r2, .L19
 395 00c0 BB78     		ldrb	r3, [r7, #2]
 396 00c2 1370     		strb	r3, [r2]
 279:Generated_Source\PSoC5/cyfitter_cfg.c **** 
 280:Generated_Source\PSoC5/cyfitter_cfg.c **** 	/* Configure IMO based on settings from Clock DWR */
 281:Generated_Source\PSoC5/cyfitter_cfg.c **** 	CY_SET_XTND_REG8((void CYFAR *)(CYREG_FASTCLK_IMO_CR), 0x02u);
 397              		.loc 1 281 0
ARM GAS  C:\Users\dantz\AppData\Local\Temp\ccA5mggQ.s 			page 13


 398 00c4 494B     		ldr	r3, .L19+88
 399 00c6 0222     		movs	r2, #2
 400 00c8 1A70     		strb	r2, [r3]
 282:Generated_Source\PSoC5/cyfitter_cfg.c **** 	CY_SET_XTND_REG8((void CYFAR *)(CYREG_IMO_TR1), (CY_GET_XTND_REG8((void CYFAR *)CYREG_FLSHID_CUST_
 401              		.loc 1 282 0
 402 00ca 494B     		ldr	r3, .L19+92
 403 00cc 494A     		ldr	r2, .L19+96
 404 00ce 1278     		ldrb	r2, [r2]
 405 00d0 D2B2     		uxtb	r2, r2
 406 00d2 1A70     		strb	r2, [r3]
 283:Generated_Source\PSoC5/cyfitter_cfg.c **** 
 284:Generated_Source\PSoC5/cyfitter_cfg.c **** 	/* Configure PLL based on settings from Clock DWR */
 285:Generated_Source\PSoC5/cyfitter_cfg.c **** 	CY_SET_XTND_REG16((void CYFAR *)(CYREG_FASTCLK_PLL_P), 0x0708u);
 407              		.loc 1 285 0
 408 00d4 484B     		ldr	r3, .L19+100
 409 00d6 4FF4E162 		mov	r2, #1800
 410 00da 1A80     		strh	r2, [r3]	@ movhi
 286:Generated_Source\PSoC5/cyfitter_cfg.c **** 	CY_SET_XTND_REG16((void CYFAR *)(CYREG_FASTCLK_PLL_CFG0), 0x1251u);
 411              		.loc 1 286 0
 412 00dc 474B     		ldr	r3, .L19+104
 413 00de 41F25122 		movw	r2, #4689
 414 00e2 1A80     		strh	r2, [r3]	@ movhi
 287:Generated_Source\PSoC5/cyfitter_cfg.c **** 	/* Wait up to 250us for the PLL to lock */
 288:Generated_Source\PSoC5/cyfitter_cfg.c **** 	pllLock = 0u;
 415              		.loc 1 288 0
 416 00e4 0023     		movs	r3, #0
 417 00e6 FB70     		strb	r3, [r7, #3]
 289:Generated_Source\PSoC5/cyfitter_cfg.c **** 	for (timeout = 250u / 10u; (timeout > 0u) && (pllLock != 0x03u); timeout--)
 418              		.loc 1 289 0
 419 00e8 1923     		movs	r3, #25
 420 00ea 7B60     		str	r3, [r7, #4]
 421 00ec 14E0     		b	.L15
 422              	.L17:
 290:Generated_Source\PSoC5/cyfitter_cfg.c **** 	{ 
 291:Generated_Source\PSoC5/cyfitter_cfg.c **** 		pllLock = 0x03u & ((uint8)((uint8)pllLock << 1) | ((CY_GET_XTND_REG8((void CYFAR *)CYREG_FASTCLK_
 423              		.loc 1 291 0 discriminator 4
 424 00ee FB78     		ldrb	r3, [r7, #3]
 425 00f0 5B00     		lsls	r3, r3, #1
 426 00f2 DAB2     		uxtb	r2, r3
 427 00f4 424B     		ldr	r3, .L19+108
 428 00f6 1B78     		ldrb	r3, [r3]
 429 00f8 DBB2     		uxtb	r3, r3
 430 00fa 03F00103 		and	r3, r3, #1
 431 00fe DBB2     		uxtb	r3, r3
 432 0100 1343     		orrs	r3, r3, r2
 433 0102 DBB2     		uxtb	r3, r3
 434 0104 03F00303 		and	r3, r3, #3
 435 0108 FB70     		strb	r3, [r7, #3]
 292:Generated_Source\PSoC5/cyfitter_cfg.c **** 		CyDelayCycles(10u * 48u); /* Delay 10us based on 48MHz clock */
 436              		.loc 1 292 0 discriminator 4
 437 010a 4FF4F070 		mov	r0, #480
 438 010e FFF7FEFF 		bl	CyDelayCycles
 289:Generated_Source\PSoC5/cyfitter_cfg.c **** 	for (timeout = 250u / 10u; (timeout > 0u) && (pllLock != 0x03u); timeout--)
 439              		.loc 1 289 0 discriminator 4
 440 0112 7B68     		ldr	r3, [r7, #4]
 441 0114 013B     		subs	r3, r3, #1
 442 0116 7B60     		str	r3, [r7, #4]
ARM GAS  C:\Users\dantz\AppData\Local\Temp\ccA5mggQ.s 			page 14


 443              	.L15:
 289:Generated_Source\PSoC5/cyfitter_cfg.c **** 	for (timeout = 250u / 10u; (timeout > 0u) && (pllLock != 0x03u); timeout--)
 444              		.loc 1 289 0 is_stmt 0 discriminator 1
 445 0118 7B68     		ldr	r3, [r7, #4]
 446 011a 002B     		cmp	r3, #0
 447 011c 02D0     		beq	.L16
 289:Generated_Source\PSoC5/cyfitter_cfg.c **** 	for (timeout = 250u / 10u; (timeout > 0u) && (pllLock != 0x03u); timeout--)
 448              		.loc 1 289 0 discriminator 3
 449 011e FB78     		ldrb	r3, [r7, #3]	@ zero_extendqisi2
 450 0120 032B     		cmp	r3, #3
 451 0122 E4D1     		bne	.L17
 452              	.L16:
 293:Generated_Source\PSoC5/cyfitter_cfg.c **** 	}
 294:Generated_Source\PSoC5/cyfitter_cfg.c **** 	/* If we ran out of time the PLL didn't lock so go to the error function */
 295:Generated_Source\PSoC5/cyfitter_cfg.c **** 	if (timeout == 0u)
 453              		.loc 1 295 0 is_stmt 1
 454 0124 7B68     		ldr	r3, [r7, #4]
 455 0126 002B     		cmp	r3, #0
 456 0128 02D1     		bne	.L18
 296:Generated_Source\PSoC5/cyfitter_cfg.c **** 	{
 297:Generated_Source\PSoC5/cyfitter_cfg.c **** 		CyClockStartupError(CYCLOCKSTART_PLL_ERROR);
 457              		.loc 1 297 0
 458 012a 0320     		movs	r0, #3
 459 012c FFF7FEFF 		bl	CyClockStartupError
 460              	.L18:
 298:Generated_Source\PSoC5/cyfitter_cfg.c **** 	}
 299:Generated_Source\PSoC5/cyfitter_cfg.c **** 
 300:Generated_Source\PSoC5/cyfitter_cfg.c **** 	/* Configure Bus/Master Clock based on settings from Clock DWR */
 301:Generated_Source\PSoC5/cyfitter_cfg.c **** 	CY_SET_XTND_REG16((void CYFAR *)(CYREG_CLKDIST_MSTR0), 0x0100u);
 461              		.loc 1 301 0
 462 0130 344B     		ldr	r3, .L19+112
 463 0132 4FF48072 		mov	r2, #256
 464 0136 1A80     		strh	r2, [r3]	@ movhi
 302:Generated_Source\PSoC5/cyfitter_cfg.c **** 	CY_SET_XTND_REG8((void CYFAR *)(CYREG_CLKDIST_MSTR0), 0x07u);
 465              		.loc 1 302 0
 466 0138 324B     		ldr	r3, .L19+112
 467 013a 0722     		movs	r2, #7
 468 013c 1A70     		strb	r2, [r3]
 303:Generated_Source\PSoC5/cyfitter_cfg.c **** 	CY_SET_XTND_REG8((void CYFAR *)(CYREG_CLKDIST_BCFG0), 0x00u);
 469              		.loc 1 303 0
 470 013e 324B     		ldr	r3, .L19+116
 471 0140 0022     		movs	r2, #0
 472 0142 1A70     		strb	r2, [r3]
 304:Generated_Source\PSoC5/cyfitter_cfg.c **** 	CY_SET_XTND_REG8((void CYFAR *)(CYREG_CLKDIST_BCFG2), 0x48u);
 473              		.loc 1 304 0
 474 0144 314B     		ldr	r3, .L19+120
 475 0146 4822     		movs	r2, #72
 476 0148 1A70     		strb	r2, [r3]
 305:Generated_Source\PSoC5/cyfitter_cfg.c **** 	CY_SET_XTND_REG8((void CYFAR *)(CYREG_CLKDIST_MSTR0), 0x00u);
 477              		.loc 1 305 0
 478 014a 2E4B     		ldr	r3, .L19+112
 479 014c 0022     		movs	r2, #0
 480 014e 1A70     		strb	r2, [r3]
 306:Generated_Source\PSoC5/cyfitter_cfg.c **** 	CY_SET_XTND_REG8((void CYFAR *)(CYREG_CLKDIST_LD), 0x02u);
 481              		.loc 1 306 0
 482 0150 2F4B     		ldr	r3, .L19+124
 483 0152 0222     		movs	r2, #2
ARM GAS  C:\Users\dantz\AppData\Local\Temp\ccA5mggQ.s 			page 15


 484 0154 1A70     		strb	r2, [r3]
 307:Generated_Source\PSoC5/cyfitter_cfg.c **** 	CY_SET_XTND_REG8((void CYFAR *)(CYREG_CLKDIST_DLY1), 0x04u);
 485              		.loc 1 307 0
 486 0156 2F4B     		ldr	r3, .L19+128
 487 0158 0422     		movs	r2, #4
 488 015a 1A70     		strb	r2, [r3]
 308:Generated_Source\PSoC5/cyfitter_cfg.c **** 
 309:Generated_Source\PSoC5/cyfitter_cfg.c **** 	CY_SET_XTND_REG8((void CYFAR *)(CYREG_PM_ACT_CFG2), ((CY_GET_XTND_REG8((void CYFAR *)CYREG_PM_ACT_
 489              		.loc 1 309 0
 490 015c 2E4A     		ldr	r2, .L19+132
 491 015e 2E4B     		ldr	r3, .L19+132
 492 0160 1B78     		ldrb	r3, [r3]
 493 0162 DBB2     		uxtb	r3, r3
 494 0164 43F07F03 		orr	r3, r3, #127
 495 0168 DBB2     		uxtb	r3, r3
 496 016a 1370     		strb	r3, [r2]
 310:Generated_Source\PSoC5/cyfitter_cfg.c **** 	CY_SET_XTND_REG8((void CYFAR *)(CYREG_PM_ACT_CFG1), ((CY_GET_XTND_REG8((void CYFAR *)CYREG_PM_ACT_
 497              		.loc 1 310 0
 498 016c 2B4A     		ldr	r2, .L19+136
 499 016e 2B4B     		ldr	r3, .L19+136
 500 0170 1B78     		ldrb	r3, [r3]
 501 0172 DBB2     		uxtb	r3, r3
 502 0174 43F00103 		orr	r3, r3, #1
 503 0178 DBB2     		uxtb	r3, r3
 504 017a 1370     		strb	r3, [r2]
 311:Generated_Source\PSoC5/cyfitter_cfg.c **** 	CY_SET_XTND_REG8((void CYFAR *)(CYREG_PM_ACT_CFG0), ((CY_GET_XTND_REG8((void CYFAR *)CYREG_PM_ACT_
 505              		.loc 1 311 0
 506 017c 284A     		ldr	r2, .L19+140
 507 017e 284B     		ldr	r3, .L19+140
 508 0180 1B78     		ldrb	r3, [r3]
 509 0182 DBB2     		uxtb	r3, r3
 510 0184 63F07F03 		orn	r3, r3, #127
 511 0188 DBB2     		uxtb	r3, r3
 512 018a 1370     		strb	r3, [r2]
 312:Generated_Source\PSoC5/cyfitter_cfg.c **** }
 513              		.loc 1 312 0
 514 018c 00BF     		nop
 515 018e 0837     		adds	r7, r7, #8
 516              		.cfi_def_cfa_offset 8
 517 0190 BD46     		mov	sp, r7
 518              		.cfi_def_cfa_register 13
 519              		@ sp needed
 520 0192 80BD     		pop	{r7, pc}
 521              	.L20:
 522              		.align	2
 523              	.L19:
 524 0194 98460040 		.word	1073759896
 525 0198 80400040 		.word	1073758336
 526 019c 82400040 		.word	1073758338
 527 01a0 84400040 		.word	1073758340
 528 01a4 86400040 		.word	1073758342
 529 01a8 88400040 		.word	1073758344
 530 01ac 8A400040 		.word	1073758346
 531 01b0 8C400040 		.word	1073758348
 532 01b4 8E400040 		.word	1073758350
 533 01b8 90400040 		.word	1073758352
 534 01bc 92400040 		.word	1073758354
ARM GAS  C:\Users\dantz\AppData\Local\Temp\ccA5mggQ.s 			page 16


 535 01c0 94400040 		.word	1073758356
 536 01c4 96400040 		.word	1073758358
 537 01c8 98400040 		.word	1073758360
 538 01cc 9A400040 		.word	1073758362
 539 01d0 5C0C0048 		.word	1207962716
 540 01d4 00410040 		.word	1073758464
 541 01d8 00430040 		.word	1073758976
 542 01dc 0A430040 		.word	1073758986
 543 01e0 09430040 		.word	1073758985
 544 01e4 08430040 		.word	1073758984
 545 01e8 A0860100 		.word	100000
 546 01ec 00420040 		.word	1073758720
 547 01f0 A1460040 		.word	1073759905
 548 01f4 0B010049 		.word	1224737035
 549 01f8 22420040 		.word	1073758754
 550 01fc 20420040 		.word	1073758752
 551 0200 25420040 		.word	1073758757
 552 0204 04400040 		.word	1073758212
 553 0208 06400040 		.word	1073758214
 554 020c 08400040 		.word	1073758216
 555 0210 01400040 		.word	1073758209
 556 0214 0B400040 		.word	1073758219
 557 0218 A2430040 		.word	1073759138
 558 021c A1430040 		.word	1073759137
 559 0220 A0430040 		.word	1073759136
 560              		.cfi_endproc
 561              	.LFE5:
 562              		.size	ClockSetup, .-ClockSetup
 563              		.section	.text.AnalogSetDefault,"ax",%progbits
 564              		.align	2
 565              		.thumb
 566              		.thumb_func
 567              		.type	AnalogSetDefault, %function
 568              	AnalogSetDefault:
 569              	.LFB6:
 313:Generated_Source\PSoC5/cyfitter_cfg.c **** 
 314:Generated_Source\PSoC5/cyfitter_cfg.c **** 
 315:Generated_Source\PSoC5/cyfitter_cfg.c **** /* Analog API Functions */
 316:Generated_Source\PSoC5/cyfitter_cfg.c **** 
 317:Generated_Source\PSoC5/cyfitter_cfg.c **** 
 318:Generated_Source\PSoC5/cyfitter_cfg.c **** /*******************************************************************************
 319:Generated_Source\PSoC5/cyfitter_cfg.c **** * Function Name: AnalogSetDefault
 320:Generated_Source\PSoC5/cyfitter_cfg.c **** ********************************************************************************
 321:Generated_Source\PSoC5/cyfitter_cfg.c **** *
 322:Generated_Source\PSoC5/cyfitter_cfg.c **** * Summary:
 323:Generated_Source\PSoC5/cyfitter_cfg.c **** *  Sets up the analog portions of the chip to default values based on chip
 324:Generated_Source\PSoC5/cyfitter_cfg.c **** *  configuration options from the project.
 325:Generated_Source\PSoC5/cyfitter_cfg.c **** *
 326:Generated_Source\PSoC5/cyfitter_cfg.c **** * Parameters:
 327:Generated_Source\PSoC5/cyfitter_cfg.c **** *  void
 328:Generated_Source\PSoC5/cyfitter_cfg.c **** *
 329:Generated_Source\PSoC5/cyfitter_cfg.c **** * Return:
 330:Generated_Source\PSoC5/cyfitter_cfg.c **** *  void
 331:Generated_Source\PSoC5/cyfitter_cfg.c **** *
 332:Generated_Source\PSoC5/cyfitter_cfg.c **** *******************************************************************************/
 333:Generated_Source\PSoC5/cyfitter_cfg.c **** static void AnalogSetDefault(void);
 334:Generated_Source\PSoC5/cyfitter_cfg.c **** static void AnalogSetDefault(void)
ARM GAS  C:\Users\dantz\AppData\Local\Temp\ccA5mggQ.s 			page 17


 335:Generated_Source\PSoC5/cyfitter_cfg.c **** {
 570              		.loc 1 335 0
 571              		.cfi_startproc
 572              		@ args = 0, pretend = 0, frame = 8
 573              		@ frame_needed = 1, uses_anonymous_args = 0
 574              		@ link register save eliminated.
 575 0000 80B4     		push	{r7}
 576              		.cfi_def_cfa_offset 4
 577              		.cfi_offset 7, -4
 578 0002 83B0     		sub	sp, sp, #12
 579              		.cfi_def_cfa_offset 16
 580 0004 00AF     		add	r7, sp, #0
 581              		.cfi_def_cfa_register 7
 336:Generated_Source\PSoC5/cyfitter_cfg.c **** 	uint8 bg_xover_inl_trim = CY_GET_XTND_REG8((void CYFAR *)(CYREG_FLSHID_MFG_CFG_BG_XOVER_INL_TRIM +
 582              		.loc 1 336 0
 583 0006 114B     		ldr	r3, .L22
 584 0008 1B78     		ldrb	r3, [r3]
 585 000a FB71     		strb	r3, [r7, #7]
 337:Generated_Source\PSoC5/cyfitter_cfg.c **** 	CY_SET_XTND_REG8((void CYFAR *)(CYREG_BG_DFT0), (bg_xover_inl_trim & 0x07u));
 586              		.loc 1 337 0
 587 000c 104A     		ldr	r2, .L22+4
 588 000e FB79     		ldrb	r3, [r7, #7]
 589 0010 03F00703 		and	r3, r3, #7
 590 0014 DBB2     		uxtb	r3, r3
 591 0016 1370     		strb	r3, [r2]
 338:Generated_Source\PSoC5/cyfitter_cfg.c **** 	CY_SET_XTND_REG8((void CYFAR *)(CYREG_BG_DFT1), ((bg_xover_inl_trim >> 4) & 0x0Fu));
 592              		.loc 1 338 0
 593 0018 0E4A     		ldr	r2, .L22+8
 594 001a FB79     		ldrb	r3, [r7, #7]	@ zero_extendqisi2
 595 001c 1B09     		lsrs	r3, r3, #4
 596 001e DBB2     		uxtb	r3, r3
 597 0020 1370     		strb	r3, [r2]
 339:Generated_Source\PSoC5/cyfitter_cfg.c **** 	CY_SET_XTND_REG8((void CYFAR *)CYREG_CMP0_CR, 0x02u);
 598              		.loc 1 339 0
 599 0022 0D4B     		ldr	r3, .L22+12
 600 0024 0222     		movs	r2, #2
 601 0026 1A70     		strb	r2, [r3]
 340:Generated_Source\PSoC5/cyfitter_cfg.c **** 	CY_SET_XTND_REG8((void CYFAR *)CYREG_PM_ACT_CFG7, 0x01u);
 602              		.loc 1 340 0
 603 0028 0C4B     		ldr	r3, .L22+16
 604 002a 0122     		movs	r2, #1
 605 002c 1A70     		strb	r2, [r3]
 341:Generated_Source\PSoC5/cyfitter_cfg.c **** 	CY_SET_XTND_REG8((void CYFAR *)CYREG_CMP0_SW3, 0x20u);
 606              		.loc 1 341 0
 607 002e 0C4B     		ldr	r3, .L22+20
 608 0030 2022     		movs	r2, #32
 609 0032 1A70     		strb	r2, [r3]
 342:Generated_Source\PSoC5/cyfitter_cfg.c **** 	CY_SET_XTND_REG8((void CYFAR *)CYREG_BUS_SW0, 0x40u);
 610              		.loc 1 342 0
 611 0034 0B4B     		ldr	r3, .L22+24
 612 0036 4022     		movs	r2, #64
 613 0038 1A70     		strb	r2, [r3]
 343:Generated_Source\PSoC5/cyfitter_cfg.c **** 	CY_SET_XTND_REG8((void CYFAR *)CYREG_PUMP_CR0, 0x66u);
 614              		.loc 1 343 0
 615 003a 0B4B     		ldr	r3, .L22+28
 616 003c 6622     		movs	r2, #102
 617 003e 1A70     		strb	r2, [r3]
ARM GAS  C:\Users\dantz\AppData\Local\Temp\ccA5mggQ.s 			page 18


 344:Generated_Source\PSoC5/cyfitter_cfg.c **** }
 618              		.loc 1 344 0
 619 0040 00BF     		nop
 620 0042 0C37     		adds	r7, r7, #12
 621              		.cfi_def_cfa_offset 4
 622 0044 BD46     		mov	sp, r7
 623              		.cfi_def_cfa_register 13
 624              		@ sp needed
 625 0046 80BC     		pop	{r7}
 626              		.cfi_restore 7
 627              		.cfi_def_cfa_offset 0
 628 0048 7047     		bx	lr
 629              	.L23:
 630 004a 00BF     		.align	2
 631              	.L22:
 632 004c CF010049 		.word	1224737231
 633 0050 6E580040 		.word	1073764462
 634 0054 6F580040 		.word	1073764463
 635 0058 40580040 		.word	1073764416
 636 005c A7430040 		.word	1073759143
 637 0060 C35A0040 		.word	1073765059
 638 0064 585B0040 		.word	1073765208
 639 0068 76580040 		.word	1073764470
 640              		.cfi_endproc
 641              	.LFE6:
 642              		.size	AnalogSetDefault, .-AnalogSetDefault
 643              		.section	.text.SetAnalogRoutingPumps,"ax",%progbits
 644              		.align	2
 645              		.global	SetAnalogRoutingPumps
 646              		.thumb
 647              		.thumb_func
 648              		.type	SetAnalogRoutingPumps, %function
 649              	SetAnalogRoutingPumps:
 650              	.LFB7:
 345:Generated_Source\PSoC5/cyfitter_cfg.c **** 
 346:Generated_Source\PSoC5/cyfitter_cfg.c **** 
 347:Generated_Source\PSoC5/cyfitter_cfg.c **** /*******************************************************************************
 348:Generated_Source\PSoC5/cyfitter_cfg.c **** * Function Name: SetAnalogRoutingPumps
 349:Generated_Source\PSoC5/cyfitter_cfg.c **** ********************************************************************************
 350:Generated_Source\PSoC5/cyfitter_cfg.c **** *
 351:Generated_Source\PSoC5/cyfitter_cfg.c **** * Summary:
 352:Generated_Source\PSoC5/cyfitter_cfg.c **** * Enables or disables the analog pumps feeding analog routing switches.
 353:Generated_Source\PSoC5/cyfitter_cfg.c **** * Intended to be called at startup, based on the Vdda system configuration;
 354:Generated_Source\PSoC5/cyfitter_cfg.c **** * may be called during operation when the user informs us that the Vdda voltage
 355:Generated_Source\PSoC5/cyfitter_cfg.c **** * crossed the pump threshold.
 356:Generated_Source\PSoC5/cyfitter_cfg.c **** *
 357:Generated_Source\PSoC5/cyfitter_cfg.c **** * Parameters:
 358:Generated_Source\PSoC5/cyfitter_cfg.c **** *  enabled - 1 to enable the pumps, 0 to disable the pumps
 359:Generated_Source\PSoC5/cyfitter_cfg.c **** *
 360:Generated_Source\PSoC5/cyfitter_cfg.c **** * Return:
 361:Generated_Source\PSoC5/cyfitter_cfg.c **** *  void
 362:Generated_Source\PSoC5/cyfitter_cfg.c **** *
 363:Generated_Source\PSoC5/cyfitter_cfg.c **** *******************************************************************************/
 364:Generated_Source\PSoC5/cyfitter_cfg.c **** void SetAnalogRoutingPumps(uint8 enabled)
 365:Generated_Source\PSoC5/cyfitter_cfg.c **** {
 651              		.loc 1 365 0
 652              		.cfi_startproc
ARM GAS  C:\Users\dantz\AppData\Local\Temp\ccA5mggQ.s 			page 19


 653              		@ args = 0, pretend = 0, frame = 16
 654              		@ frame_needed = 1, uses_anonymous_args = 0
 655              		@ link register save eliminated.
 656 0000 80B4     		push	{r7}
 657              		.cfi_def_cfa_offset 4
 658              		.cfi_offset 7, -4
 659 0002 85B0     		sub	sp, sp, #20
 660              		.cfi_def_cfa_offset 24
 661 0004 00AF     		add	r7, sp, #0
 662              		.cfi_def_cfa_register 7
 663 0006 0346     		mov	r3, r0
 664 0008 FB71     		strb	r3, [r7, #7]
 366:Generated_Source\PSoC5/cyfitter_cfg.c **** 	uint8 regValue = CY_GET_XTND_REG8((void CYFAR *)CYREG_PUMP_CR0);
 665              		.loc 1 366 0
 666 000a 0B4B     		ldr	r3, .L27
 667 000c 1B78     		ldrb	r3, [r3]
 668 000e FB73     		strb	r3, [r7, #15]
 367:Generated_Source\PSoC5/cyfitter_cfg.c **** 	if (enabled != 0u)
 669              		.loc 1 367 0
 670 0010 FB79     		ldrb	r3, [r7, #7]	@ zero_extendqisi2
 671 0012 002B     		cmp	r3, #0
 672 0014 04D0     		beq	.L25
 368:Generated_Source\PSoC5/cyfitter_cfg.c **** 	{
 369:Generated_Source\PSoC5/cyfitter_cfg.c **** 		regValue |= 0x22u;
 673              		.loc 1 369 0
 674 0016 FB7B     		ldrb	r3, [r7, #15]
 675 0018 43F02203 		orr	r3, r3, #34
 676 001c FB73     		strb	r3, [r7, #15]
 677 001e 03E0     		b	.L26
 678              	.L25:
 370:Generated_Source\PSoC5/cyfitter_cfg.c **** 	}
 371:Generated_Source\PSoC5/cyfitter_cfg.c **** 	else
 372:Generated_Source\PSoC5/cyfitter_cfg.c **** 	{
 373:Generated_Source\PSoC5/cyfitter_cfg.c **** 		regValue &= (uint8)~0x22u;
 679              		.loc 1 373 0
 680 0020 FB7B     		ldrb	r3, [r7, #15]
 681 0022 23F02203 		bic	r3, r3, #34
 682 0026 FB73     		strb	r3, [r7, #15]
 683              	.L26:
 374:Generated_Source\PSoC5/cyfitter_cfg.c **** 	}
 375:Generated_Source\PSoC5/cyfitter_cfg.c **** 	CY_SET_XTND_REG8((void CYFAR *)CYREG_PUMP_CR0, regValue);
 684              		.loc 1 375 0
 685 0028 034A     		ldr	r2, .L27
 686 002a FB7B     		ldrb	r3, [r7, #15]
 687 002c 1370     		strb	r3, [r2]
 376:Generated_Source\PSoC5/cyfitter_cfg.c **** }
 688              		.loc 1 376 0
 689 002e 00BF     		nop
 690 0030 1437     		adds	r7, r7, #20
 691              		.cfi_def_cfa_offset 4
 692 0032 BD46     		mov	sp, r7
 693              		.cfi_def_cfa_register 13
 694              		@ sp needed
 695 0034 80BC     		pop	{r7}
 696              		.cfi_restore 7
 697              		.cfi_def_cfa_offset 0
 698 0036 7047     		bx	lr
ARM GAS  C:\Users\dantz\AppData\Local\Temp\ccA5mggQ.s 			page 20


 699              	.L28:
 700              		.align	2
 701              	.L27:
 702 0038 76580040 		.word	1073764470
 703              		.cfi_endproc
 704              	.LFE7:
 705              		.size	SetAnalogRoutingPumps, .-SetAnalogRoutingPumps
 706              		.section	.rodata
 707              		.align	2
 708              		.type	AMux__outerAddr, %object
 709              		.size	AMux__outerAddr, 16
 710              	AMux__outerAddr:
 711 0000 C45A0040 		.word	1073765060
 712 0004 0D510040 		.word	1073762573
 713 0008 0D510040 		.word	1073762573
 714 000c 3D510040 		.word	1073762621
 715              		.align	2
 716              		.type	AMux__outerMask, %object
 717              		.size	AMux__outerMask, 4
 718              	AMux__outerMask:
 719 0010 40       		.byte	64
 720 0011 01       		.byte	1
 721 0012 20       		.byte	32
 722 0013 04       		.byte	4
 723              		.align	2
 724              		.type	AMux__innerAddr, %object
 725              		.size	AMux__innerAddr, 12
 726              	AMux__innerAddr:
 727 0014 005B0040 		.word	1073765120
 728 0018 005B0040 		.word	1073765120
 729 001c 005B0040 		.word	1073765120
 730              		.align	2
 731              		.type	AMux__innerMask, %object
 732              		.size	AMux__innerMask, 3
 733              	AMux__innerMask:
 734 0020 40       		.byte	64
 735 0021 10       		.byte	16
 736 0022 20       		.byte	32
 737 0023 00       		.align	2
 738              		.type	AMux__innerMap, %object
 739              		.size	AMux__innerMap, 4
 740              	AMux__innerMap:
 741 0024 00       		.byte	0
 742 0025 01       		.byte	1
 743 0026 02       		.byte	2
 744 0027 00       		.byte	0
 745              		.bss
 746              	AMux__armsEnabled:
 747 0000 00       		.space	1
 748 0001 000000   		.align	2
 749              	AMux__refCnt:
 750 0004 000000   		.space	3
 751              		.section	.text.AMux_Set,"ax",%progbits
 752              		.align	2
 753              		.global	AMux_Set
 754              		.thumb
 755              		.thumb_func
ARM GAS  C:\Users\dantz\AppData\Local\Temp\ccA5mggQ.s 			page 21


 756              		.type	AMux_Set, %function
 757              	AMux_Set:
 758              	.LFB8:
 377:Generated_Source\PSoC5/cyfitter_cfg.c **** 
 378:Generated_Source\PSoC5/cyfitter_cfg.c **** 
 379:Generated_Source\PSoC5/cyfitter_cfg.c **** #define CY_AMUX_UNUSED CYREG_BOOST_SR
 380:Generated_Source\PSoC5/cyfitter_cfg.c **** static uint8 CYXDATA * const CYCODE AMux__outerAddr[4] = {
 381:Generated_Source\PSoC5/cyfitter_cfg.c **** 	(uint8 CYXDATA *)CYREG_CMP0_SW4, 
 382:Generated_Source\PSoC5/cyfitter_cfg.c **** 	(uint8 CYXDATA *)CYREG_PRT0_AG, 
 383:Generated_Source\PSoC5/cyfitter_cfg.c **** 	(uint8 CYXDATA *)CYREG_PRT0_AG, 
 384:Generated_Source\PSoC5/cyfitter_cfg.c **** 	(uint8 CYXDATA *)CYREG_PRT3_AG, 
 385:Generated_Source\PSoC5/cyfitter_cfg.c **** };
 386:Generated_Source\PSoC5/cyfitter_cfg.c **** 
 387:Generated_Source\PSoC5/cyfitter_cfg.c **** static const uint8 CYCODE AMux__outerMask[4] = {
 388:Generated_Source\PSoC5/cyfitter_cfg.c **** 	0x40u, 
 389:Generated_Source\PSoC5/cyfitter_cfg.c **** 	0x01u, 
 390:Generated_Source\PSoC5/cyfitter_cfg.c **** 	0x20u, 
 391:Generated_Source\PSoC5/cyfitter_cfg.c **** 	0x04u, 
 392:Generated_Source\PSoC5/cyfitter_cfg.c **** };
 393:Generated_Source\PSoC5/cyfitter_cfg.c **** 
 394:Generated_Source\PSoC5/cyfitter_cfg.c **** static uint8 CYXDATA * const CYCODE AMux__innerAddr[3] = {
 395:Generated_Source\PSoC5/cyfitter_cfg.c **** 	(uint8 CYXDATA *)CYREG_DSM0_SW0, 
 396:Generated_Source\PSoC5/cyfitter_cfg.c **** 	(uint8 CYXDATA *)CYREG_DSM0_SW0, 
 397:Generated_Source\PSoC5/cyfitter_cfg.c **** 	(uint8 CYXDATA *)CYREG_DSM0_SW0, 
 398:Generated_Source\PSoC5/cyfitter_cfg.c **** };
 399:Generated_Source\PSoC5/cyfitter_cfg.c **** 
 400:Generated_Source\PSoC5/cyfitter_cfg.c **** static const uint8 CYCODE AMux__innerMask[3] = {
 401:Generated_Source\PSoC5/cyfitter_cfg.c **** 	0x40u, 
 402:Generated_Source\PSoC5/cyfitter_cfg.c **** 	0x10u, 
 403:Generated_Source\PSoC5/cyfitter_cfg.c **** 	0x20u, 
 404:Generated_Source\PSoC5/cyfitter_cfg.c **** };
 405:Generated_Source\PSoC5/cyfitter_cfg.c **** 
 406:Generated_Source\PSoC5/cyfitter_cfg.c **** static const uint8 CYCODE AMux__innerMap[4] = {
 407:Generated_Source\PSoC5/cyfitter_cfg.c **** 	0u, 
 408:Generated_Source\PSoC5/cyfitter_cfg.c **** 	1u, 
 409:Generated_Source\PSoC5/cyfitter_cfg.c **** 	2u, 
 410:Generated_Source\PSoC5/cyfitter_cfg.c **** 	0u, 
 411:Generated_Source\PSoC5/cyfitter_cfg.c **** };
 412:Generated_Source\PSoC5/cyfitter_cfg.c **** 
 413:Generated_Source\PSoC5/cyfitter_cfg.c **** static uint8 AMux__armsEnabled = 0u;
 414:Generated_Source\PSoC5/cyfitter_cfg.c **** static uint8 AMux__refCnt[] = {0u, 0u, 0u};
 415:Generated_Source\PSoC5/cyfitter_cfg.c **** 
 416:Generated_Source\PSoC5/cyfitter_cfg.c **** /*******************************************************************************
 417:Generated_Source\PSoC5/cyfitter_cfg.c **** * Function Name: AMux_Set
 418:Generated_Source\PSoC5/cyfitter_cfg.c **** ********************************************************************************
 419:Generated_Source\PSoC5/cyfitter_cfg.c **** * Summary:
 420:Generated_Source\PSoC5/cyfitter_cfg.c **** *  This function is used to set a particular channel as active on the AMux.
 421:Generated_Source\PSoC5/cyfitter_cfg.c **** *
 422:Generated_Source\PSoC5/cyfitter_cfg.c **** * Parameters:  
 423:Generated_Source\PSoC5/cyfitter_cfg.c **** *   channel - The mux channel input to set as active
 424:Generated_Source\PSoC5/cyfitter_cfg.c **** *
 425:Generated_Source\PSoC5/cyfitter_cfg.c **** * Return:
 426:Generated_Source\PSoC5/cyfitter_cfg.c **** *   void
 427:Generated_Source\PSoC5/cyfitter_cfg.c **** *
 428:Generated_Source\PSoC5/cyfitter_cfg.c **** *******************************************************************************/
 429:Generated_Source\PSoC5/cyfitter_cfg.c **** void AMux_Set(uint8 channel)
 430:Generated_Source\PSoC5/cyfitter_cfg.c **** {
ARM GAS  C:\Users\dantz\AppData\Local\Temp\ccA5mggQ.s 			page 22


 759              		.loc 1 430 0
 760              		.cfi_startproc
 761              		@ args = 0, pretend = 0, frame = 16
 762              		@ frame_needed = 1, uses_anonymous_args = 0
 763              		@ link register save eliminated.
 764 0000 80B4     		push	{r7}
 765              		.cfi_def_cfa_offset 4
 766              		.cfi_offset 7, -4
 767 0002 85B0     		sub	sp, sp, #20
 768              		.cfi_def_cfa_offset 24
 769 0004 00AF     		add	r7, sp, #0
 770              		.cfi_def_cfa_register 7
 771 0006 0346     		mov	r3, r0
 772 0008 FB71     		strb	r3, [r7, #7]
 431:Generated_Source\PSoC5/cyfitter_cfg.c **** 	uint8 i;
 432:Generated_Source\PSoC5/cyfitter_cfg.c **** 	uint8 channelMask = (1UL << channel);
 773              		.loc 1 432 0
 774 000a FB79     		ldrb	r3, [r7, #7]	@ zero_extendqisi2
 775 000c 0122     		movs	r2, #1
 776 000e 02FA03F3 		lsl	r3, r2, r3
 777 0012 FB73     		strb	r3, [r7, #15]
 433:Generated_Source\PSoC5/cyfitter_cfg.c **** 	if ((channel < 4u) && ((AMux__armsEnabled & channelMask) == ((uint32)0u)))
 778              		.loc 1 433 0
 779 0014 FB79     		ldrb	r3, [r7, #7]	@ zero_extendqisi2
 780 0016 032B     		cmp	r3, #3
 781 0018 3BD8     		bhi	.L32
 782              		.loc 1 433 0 is_stmt 0 discriminator 1
 783 001a 204B     		ldr	r3, .L33
 784 001c 1A78     		ldrb	r2, [r3]	@ zero_extendqisi2
 785 001e FB7B     		ldrb	r3, [r7, #15]
 786 0020 1340     		ands	r3, r3, r2
 787 0022 DBB2     		uxtb	r3, r3
 788 0024 002B     		cmp	r3, #0
 789 0026 34D1     		bne	.L32
 434:Generated_Source\PSoC5/cyfitter_cfg.c **** 	{
 435:Generated_Source\PSoC5/cyfitter_cfg.c **** 		AMux__armsEnabled |= channelMask;
 790              		.loc 1 435 0 is_stmt 1
 791 0028 1C4B     		ldr	r3, .L33
 792 002a 1A78     		ldrb	r2, [r3]	@ zero_extendqisi2
 793 002c FB7B     		ldrb	r3, [r7, #15]
 794 002e 1343     		orrs	r3, r3, r2
 795 0030 DAB2     		uxtb	r2, r3
 796 0032 1A4B     		ldr	r3, .L33
 797 0034 1A70     		strb	r2, [r3]
 436:Generated_Source\PSoC5/cyfitter_cfg.c **** 		*AMux__outerAddr[channel] |= AMux__outerMask[channel];
 798              		.loc 1 436 0
 799 0036 FB79     		ldrb	r3, [r7, #7]	@ zero_extendqisi2
 800 0038 194A     		ldr	r2, .L33+4
 801 003a 52F82330 		ldr	r3, [r2, r3, lsl #2]
 802 003e FA79     		ldrb	r2, [r7, #7]	@ zero_extendqisi2
 803 0040 1749     		ldr	r1, .L33+4
 804 0042 51F82220 		ldr	r2, [r1, r2, lsl #2]
 805 0046 1178     		ldrb	r1, [r2]	@ zero_extendqisi2
 806 0048 FA79     		ldrb	r2, [r7, #7]	@ zero_extendqisi2
 807 004a 1648     		ldr	r0, .L33+8
 808 004c 825C     		ldrb	r2, [r0, r2]	@ zero_extendqisi2
 809 004e 0A43     		orrs	r2, r2, r1
ARM GAS  C:\Users\dantz\AppData\Local\Temp\ccA5mggQ.s 			page 23


 810 0050 D2B2     		uxtb	r2, r2
 811 0052 1A70     		strb	r2, [r3]
 437:Generated_Source\PSoC5/cyfitter_cfg.c **** 		i = AMux__innerMap[channel];
 812              		.loc 1 437 0
 813 0054 FB79     		ldrb	r3, [r7, #7]	@ zero_extendqisi2
 814 0056 144A     		ldr	r2, .L33+12
 815 0058 D35C     		ldrb	r3, [r2, r3]
 816 005a BB73     		strb	r3, [r7, #14]
 438:Generated_Source\PSoC5/cyfitter_cfg.c **** 		if (AMux__refCnt[i] == 0u)
 817              		.loc 1 438 0
 818 005c BB7B     		ldrb	r3, [r7, #14]	@ zero_extendqisi2
 819 005e 134A     		ldr	r2, .L33+16
 820 0060 D35C     		ldrb	r3, [r2, r3]	@ zero_extendqisi2
 821 0062 002B     		cmp	r3, #0
 822 0064 0ED1     		bne	.L31
 439:Generated_Source\PSoC5/cyfitter_cfg.c **** 		{
 440:Generated_Source\PSoC5/cyfitter_cfg.c **** 			*AMux__innerAddr[i] |= AMux__innerMask[i];
 823              		.loc 1 440 0
 824 0066 BB7B     		ldrb	r3, [r7, #14]	@ zero_extendqisi2
 825 0068 114A     		ldr	r2, .L33+20
 826 006a 52F82330 		ldr	r3, [r2, r3, lsl #2]
 827 006e BA7B     		ldrb	r2, [r7, #14]	@ zero_extendqisi2
 828 0070 0F49     		ldr	r1, .L33+20
 829 0072 51F82220 		ldr	r2, [r1, r2, lsl #2]
 830 0076 1178     		ldrb	r1, [r2]	@ zero_extendqisi2
 831 0078 BA7B     		ldrb	r2, [r7, #14]	@ zero_extendqisi2
 832 007a 0E48     		ldr	r0, .L33+24
 833 007c 825C     		ldrb	r2, [r0, r2]	@ zero_extendqisi2
 834 007e 0A43     		orrs	r2, r2, r1
 835 0080 D2B2     		uxtb	r2, r2
 836 0082 1A70     		strb	r2, [r3]
 837              	.L31:
 441:Generated_Source\PSoC5/cyfitter_cfg.c **** 		}
 442:Generated_Source\PSoC5/cyfitter_cfg.c **** 		AMux__refCnt[i]++;
 838              		.loc 1 442 0
 839 0084 BB7B     		ldrb	r3, [r7, #14]	@ zero_extendqisi2
 840 0086 094A     		ldr	r2, .L33+16
 841 0088 D25C     		ldrb	r2, [r2, r3]	@ zero_extendqisi2
 842 008a 0132     		adds	r2, r2, #1
 843 008c D1B2     		uxtb	r1, r2
 844 008e 074A     		ldr	r2, .L33+16
 845 0090 D154     		strb	r1, [r2, r3]
 846              	.L32:
 443:Generated_Source\PSoC5/cyfitter_cfg.c **** 	}
 444:Generated_Source\PSoC5/cyfitter_cfg.c **** }
 847              		.loc 1 444 0
 848 0092 00BF     		nop
 849 0094 1437     		adds	r7, r7, #20
 850              		.cfi_def_cfa_offset 4
 851 0096 BD46     		mov	sp, r7
 852              		.cfi_def_cfa_register 13
 853              		@ sp needed
 854 0098 80BC     		pop	{r7}
 855              		.cfi_restore 7
 856              		.cfi_def_cfa_offset 0
 857 009a 7047     		bx	lr
 858              	.L34:
ARM GAS  C:\Users\dantz\AppData\Local\Temp\ccA5mggQ.s 			page 24


 859              		.align	2
 860              	.L33:
 861 009c 00000000 		.word	AMux__armsEnabled
 862 00a0 00000000 		.word	AMux__outerAddr
 863 00a4 10000000 		.word	AMux__outerMask
 864 00a8 24000000 		.word	AMux__innerMap
 865 00ac 04000000 		.word	AMux__refCnt
 866 00b0 14000000 		.word	AMux__innerAddr
 867 00b4 20000000 		.word	AMux__innerMask
 868              		.cfi_endproc
 869              	.LFE8:
 870              		.size	AMux_Set, .-AMux_Set
 871              		.section	.text.AMux_Unset,"ax",%progbits
 872              		.align	2
 873              		.global	AMux_Unset
 874              		.thumb
 875              		.thumb_func
 876              		.type	AMux_Unset, %function
 877              	AMux_Unset:
 878              	.LFB9:
 445:Generated_Source\PSoC5/cyfitter_cfg.c **** 
 446:Generated_Source\PSoC5/cyfitter_cfg.c **** /*******************************************************************************
 447:Generated_Source\PSoC5/cyfitter_cfg.c **** * Function Name: AMux_Unset
 448:Generated_Source\PSoC5/cyfitter_cfg.c **** ********************************************************************************
 449:Generated_Source\PSoC5/cyfitter_cfg.c **** * Summary:
 450:Generated_Source\PSoC5/cyfitter_cfg.c **** *  This function is used to clear a particular channel from being active on the
 451:Generated_Source\PSoC5/cyfitter_cfg.c **** *  AMux.
 452:Generated_Source\PSoC5/cyfitter_cfg.c **** *
 453:Generated_Source\PSoC5/cyfitter_cfg.c **** * Parameters:  
 454:Generated_Source\PSoC5/cyfitter_cfg.c **** *   channel - The mux channel input to mark inactive
 455:Generated_Source\PSoC5/cyfitter_cfg.c **** *
 456:Generated_Source\PSoC5/cyfitter_cfg.c **** * Return:
 457:Generated_Source\PSoC5/cyfitter_cfg.c **** *   void
 458:Generated_Source\PSoC5/cyfitter_cfg.c **** *
 459:Generated_Source\PSoC5/cyfitter_cfg.c **** *******************************************************************************/
 460:Generated_Source\PSoC5/cyfitter_cfg.c **** void AMux_Unset(uint8 channel)
 461:Generated_Source\PSoC5/cyfitter_cfg.c **** {
 879              		.loc 1 461 0
 880              		.cfi_startproc
 881              		@ args = 0, pretend = 0, frame = 16
 882              		@ frame_needed = 1, uses_anonymous_args = 0
 883              		@ link register save eliminated.
 884 0000 80B4     		push	{r7}
 885              		.cfi_def_cfa_offset 4
 886              		.cfi_offset 7, -4
 887 0002 85B0     		sub	sp, sp, #20
 888              		.cfi_def_cfa_offset 24
 889 0004 00AF     		add	r7, sp, #0
 890              		.cfi_def_cfa_register 7
 891 0006 0346     		mov	r3, r0
 892 0008 FB71     		strb	r3, [r7, #7]
 462:Generated_Source\PSoC5/cyfitter_cfg.c **** 	uint8 i;
 463:Generated_Source\PSoC5/cyfitter_cfg.c **** 	uint8 channelMask = (1UL << channel);
 893              		.loc 1 463 0
 894 000a FB79     		ldrb	r3, [r7, #7]	@ zero_extendqisi2
 895 000c 0122     		movs	r2, #1
 896 000e 02FA03F3 		lsl	r3, r2, r3
ARM GAS  C:\Users\dantz\AppData\Local\Temp\ccA5mggQ.s 			page 25


 897 0012 FB73     		strb	r3, [r7, #15]
 464:Generated_Source\PSoC5/cyfitter_cfg.c **** 	if ((channel < 4u) && ((AMux__armsEnabled & channelMask) != ((uint32)0u)))
 898              		.loc 1 464 0
 899 0014 FB79     		ldrb	r3, [r7, #7]	@ zero_extendqisi2
 900 0016 032B     		cmp	r3, #3
 901 0018 41D8     		bhi	.L37
 902              		.loc 1 464 0 is_stmt 0 discriminator 1
 903 001a 234B     		ldr	r3, .L38
 904 001c 1A78     		ldrb	r2, [r3]	@ zero_extendqisi2
 905 001e FB7B     		ldrb	r3, [r7, #15]
 906 0020 1340     		ands	r3, r3, r2
 907 0022 DBB2     		uxtb	r3, r3
 908 0024 002B     		cmp	r3, #0
 909 0026 3AD0     		beq	.L37
 465:Generated_Source\PSoC5/cyfitter_cfg.c **** 	{
 466:Generated_Source\PSoC5/cyfitter_cfg.c **** 		AMux__armsEnabled &= (uint8)~channelMask;
 910              		.loc 1 466 0 is_stmt 1
 911 0028 FB7B     		ldrb	r3, [r7, #15]
 912 002a DB43     		mvns	r3, r3
 913 002c DAB2     		uxtb	r2, r3
 914 002e 1E4B     		ldr	r3, .L38
 915 0030 1B78     		ldrb	r3, [r3]	@ zero_extendqisi2
 916 0032 1340     		ands	r3, r3, r2
 917 0034 DAB2     		uxtb	r2, r3
 918 0036 1C4B     		ldr	r3, .L38
 919 0038 1A70     		strb	r2, [r3]
 467:Generated_Source\PSoC5/cyfitter_cfg.c **** 		*AMux__outerAddr[channel] &= (uint8)~AMux__outerMask[channel];
 920              		.loc 1 467 0
 921 003a FB79     		ldrb	r3, [r7, #7]	@ zero_extendqisi2
 922 003c 1B4A     		ldr	r2, .L38+4
 923 003e 52F82330 		ldr	r3, [r2, r3, lsl #2]
 924 0042 FA79     		ldrb	r2, [r7, #7]	@ zero_extendqisi2
 925 0044 1949     		ldr	r1, .L38+4
 926 0046 51F82220 		ldr	r2, [r1, r2, lsl #2]
 927 004a 1178     		ldrb	r1, [r2]	@ zero_extendqisi2
 928 004c FA79     		ldrb	r2, [r7, #7]	@ zero_extendqisi2
 929 004e 1848     		ldr	r0, .L38+8
 930 0050 825C     		ldrb	r2, [r0, r2]	@ zero_extendqisi2
 931 0052 D243     		mvns	r2, r2
 932 0054 D2B2     		uxtb	r2, r2
 933 0056 0A40     		ands	r2, r2, r1
 934 0058 D2B2     		uxtb	r2, r2
 935 005a 1A70     		strb	r2, [r3]
 468:Generated_Source\PSoC5/cyfitter_cfg.c **** 		i = AMux__innerMap[channel];
 936              		.loc 1 468 0
 937 005c FB79     		ldrb	r3, [r7, #7]	@ zero_extendqisi2
 938 005e 154A     		ldr	r2, .L38+12
 939 0060 D35C     		ldrb	r3, [r2, r3]
 940 0062 BB73     		strb	r3, [r7, #14]
 469:Generated_Source\PSoC5/cyfitter_cfg.c **** 		AMux__refCnt[i]--;
 941              		.loc 1 469 0
 942 0064 BB7B     		ldrb	r3, [r7, #14]	@ zero_extendqisi2
 943 0066 144A     		ldr	r2, .L38+16
 944 0068 D25C     		ldrb	r2, [r2, r3]	@ zero_extendqisi2
 945 006a 013A     		subs	r2, r2, #1
 946 006c D1B2     		uxtb	r1, r2
 947 006e 124A     		ldr	r2, .L38+16
ARM GAS  C:\Users\dantz\AppData\Local\Temp\ccA5mggQ.s 			page 26


 948 0070 D154     		strb	r1, [r2, r3]
 470:Generated_Source\PSoC5/cyfitter_cfg.c **** 		if (AMux__refCnt[i] == 0)
 949              		.loc 1 470 0
 950 0072 BB7B     		ldrb	r3, [r7, #14]	@ zero_extendqisi2
 951 0074 104A     		ldr	r2, .L38+16
 952 0076 D35C     		ldrb	r3, [r2, r3]	@ zero_extendqisi2
 953 0078 002B     		cmp	r3, #0
 954 007a 10D1     		bne	.L37
 471:Generated_Source\PSoC5/cyfitter_cfg.c **** 		{
 472:Generated_Source\PSoC5/cyfitter_cfg.c **** 			*AMux__innerAddr[i] &= (uint8)~AMux__innerMask[i];
 955              		.loc 1 472 0
 956 007c BB7B     		ldrb	r3, [r7, #14]	@ zero_extendqisi2
 957 007e 0F4A     		ldr	r2, .L38+20
 958 0080 52F82330 		ldr	r3, [r2, r3, lsl #2]
 959 0084 BA7B     		ldrb	r2, [r7, #14]	@ zero_extendqisi2
 960 0086 0D49     		ldr	r1, .L38+20
 961 0088 51F82220 		ldr	r2, [r1, r2, lsl #2]
 962 008c 1178     		ldrb	r1, [r2]	@ zero_extendqisi2
 963 008e BA7B     		ldrb	r2, [r7, #14]	@ zero_extendqisi2
 964 0090 0B48     		ldr	r0, .L38+24
 965 0092 825C     		ldrb	r2, [r0, r2]	@ zero_extendqisi2
 966 0094 D243     		mvns	r2, r2
 967 0096 D2B2     		uxtb	r2, r2
 968 0098 0A40     		ands	r2, r2, r1
 969 009a D2B2     		uxtb	r2, r2
 970 009c 1A70     		strb	r2, [r3]
 971              	.L37:
 473:Generated_Source\PSoC5/cyfitter_cfg.c **** 		}
 474:Generated_Source\PSoC5/cyfitter_cfg.c **** 	}
 475:Generated_Source\PSoC5/cyfitter_cfg.c **** }
 972              		.loc 1 475 0
 973 009e 00BF     		nop
 974 00a0 1437     		adds	r7, r7, #20
 975              		.cfi_def_cfa_offset 4
 976 00a2 BD46     		mov	sp, r7
 977              		.cfi_def_cfa_register 13
 978              		@ sp needed
 979 00a4 80BC     		pop	{r7}
 980              		.cfi_restore 7
 981              		.cfi_def_cfa_offset 0
 982 00a6 7047     		bx	lr
 983              	.L39:
 984              		.align	2
 985              	.L38:
 986 00a8 00000000 		.word	AMux__armsEnabled
 987 00ac 00000000 		.word	AMux__outerAddr
 988 00b0 10000000 		.word	AMux__outerMask
 989 00b4 24000000 		.word	AMux__innerMap
 990 00b8 04000000 		.word	AMux__refCnt
 991 00bc 14000000 		.word	AMux__innerAddr
 992 00c0 20000000 		.word	AMux__innerMask
 993              		.cfi_endproc
 994              	.LFE9:
 995              		.size	AMux_Unset, .-AMux_Unset
 996              		.global	ADC_AMux__addrTable
 997              		.section	.rodata
 998              		.align	2
ARM GAS  C:\Users\dantz\AppData\Local\Temp\ccA5mggQ.s 			page 27


 999              		.type	ADC_AMux__addrTable, %object
 1000              		.size	ADC_AMux__addrTable, 8
 1001              	ADC_AMux__addrTable:
 1002 0028 035B0040 		.word	1073765123
 1003 002c 24430040 		.word	1073759012
 1004              		.global	ADC_AMux__maskTable
 1005              		.align	2
 1006              		.type	ADC_AMux__maskTable, %object
 1007              		.size	ADC_AMux__maskTable, 2
 1008              	ADC_AMux__maskTable:
 1009 0030 40       		.byte	64
 1010 0031 00       		.byte	0
 1011              		.section	.text.ADC_AMux_Set,"ax",%progbits
 1012              		.align	2
 1013              		.global	ADC_AMux_Set
 1014              		.thumb
 1015              		.thumb_func
 1016              		.type	ADC_AMux_Set, %function
 1017              	ADC_AMux_Set:
 1018              	.LFB10:
 476:Generated_Source\PSoC5/cyfitter_cfg.c **** 
 477:Generated_Source\PSoC5/cyfitter_cfg.c **** /* This is an implementation detail of the AMux. Code that depends on it may be
 478:Generated_Source\PSoC5/cyfitter_cfg.c ****    incompatible with other versions of PSoC Creator. */
 479:Generated_Source\PSoC5/cyfitter_cfg.c **** uint8 CYXDATA * const CYCODE ADC_AMux__addrTable[2] = {
 480:Generated_Source\PSoC5/cyfitter_cfg.c **** 	(uint8 CYXDATA *)CYREG_DSM0_SW3, 
 481:Generated_Source\PSoC5/cyfitter_cfg.c **** 	(uint8 CYXDATA *)CY_AMUX_UNUSED, 
 482:Generated_Source\PSoC5/cyfitter_cfg.c **** };
 483:Generated_Source\PSoC5/cyfitter_cfg.c **** 
 484:Generated_Source\PSoC5/cyfitter_cfg.c **** /* This is an implementation detail of the AMux. Code that depends on it may be
 485:Generated_Source\PSoC5/cyfitter_cfg.c ****    incompatible with other versions of PSoC Creator. */
 486:Generated_Source\PSoC5/cyfitter_cfg.c **** const uint8 CYCODE ADC_AMux__maskTable[2] = {
 487:Generated_Source\PSoC5/cyfitter_cfg.c **** 	0x40u, 
 488:Generated_Source\PSoC5/cyfitter_cfg.c **** 	0x00u, 
 489:Generated_Source\PSoC5/cyfitter_cfg.c **** };
 490:Generated_Source\PSoC5/cyfitter_cfg.c **** 
 491:Generated_Source\PSoC5/cyfitter_cfg.c **** /*******************************************************************************
 492:Generated_Source\PSoC5/cyfitter_cfg.c **** * Function Name: ADC_AMux_Set
 493:Generated_Source\PSoC5/cyfitter_cfg.c **** ********************************************************************************
 494:Generated_Source\PSoC5/cyfitter_cfg.c **** * Summary:
 495:Generated_Source\PSoC5/cyfitter_cfg.c **** *  This function is used to set a particular channel as active on the AMux.
 496:Generated_Source\PSoC5/cyfitter_cfg.c **** *
 497:Generated_Source\PSoC5/cyfitter_cfg.c **** * Parameters:  
 498:Generated_Source\PSoC5/cyfitter_cfg.c **** *   channel - The mux channel input to set as active
 499:Generated_Source\PSoC5/cyfitter_cfg.c **** *
 500:Generated_Source\PSoC5/cyfitter_cfg.c **** * Return:
 501:Generated_Source\PSoC5/cyfitter_cfg.c **** *   void
 502:Generated_Source\PSoC5/cyfitter_cfg.c **** *
 503:Generated_Source\PSoC5/cyfitter_cfg.c **** *******************************************************************************/
 504:Generated_Source\PSoC5/cyfitter_cfg.c **** void ADC_AMux_Set(uint8 channel)
 505:Generated_Source\PSoC5/cyfitter_cfg.c **** {
 1019              		.loc 1 505 0
 1020              		.cfi_startproc
 1021              		@ args = 0, pretend = 0, frame = 8
 1022              		@ frame_needed = 1, uses_anonymous_args = 0
 1023              		@ link register save eliminated.
 1024 0000 80B4     		push	{r7}
 1025              		.cfi_def_cfa_offset 4
ARM GAS  C:\Users\dantz\AppData\Local\Temp\ccA5mggQ.s 			page 28


 1026              		.cfi_offset 7, -4
 1027 0002 83B0     		sub	sp, sp, #12
 1028              		.cfi_def_cfa_offset 16
 1029 0004 00AF     		add	r7, sp, #0
 1030              		.cfi_def_cfa_register 7
 1031 0006 0346     		mov	r3, r0
 1032 0008 FB71     		strb	r3, [r7, #7]
 506:Generated_Source\PSoC5/cyfitter_cfg.c **** 	if (channel < 2)
 1033              		.loc 1 506 0
 1034 000a FB79     		ldrb	r3, [r7, #7]	@ zero_extendqisi2
 1035 000c 012B     		cmp	r3, #1
 1036 000e 0ED8     		bhi	.L42
 507:Generated_Source\PSoC5/cyfitter_cfg.c **** 	{
 508:Generated_Source\PSoC5/cyfitter_cfg.c **** 		*ADC_AMux__addrTable[channel] |= ADC_AMux__maskTable[channel];
 1037              		.loc 1 508 0
 1038 0010 FB79     		ldrb	r3, [r7, #7]	@ zero_extendqisi2
 1039 0012 094A     		ldr	r2, .L43
 1040 0014 52F82330 		ldr	r3, [r2, r3, lsl #2]
 1041 0018 FA79     		ldrb	r2, [r7, #7]	@ zero_extendqisi2
 1042 001a 0749     		ldr	r1, .L43
 1043 001c 51F82220 		ldr	r2, [r1, r2, lsl #2]
 1044 0020 1178     		ldrb	r1, [r2]	@ zero_extendqisi2
 1045 0022 FA79     		ldrb	r2, [r7, #7]	@ zero_extendqisi2
 1046 0024 0548     		ldr	r0, .L43+4
 1047 0026 825C     		ldrb	r2, [r0, r2]	@ zero_extendqisi2
 1048 0028 0A43     		orrs	r2, r2, r1
 1049 002a D2B2     		uxtb	r2, r2
 1050 002c 1A70     		strb	r2, [r3]
 1051              	.L42:
 509:Generated_Source\PSoC5/cyfitter_cfg.c **** 	}
 510:Generated_Source\PSoC5/cyfitter_cfg.c **** }
 1052              		.loc 1 510 0
 1053 002e 00BF     		nop
 1054 0030 0C37     		adds	r7, r7, #12
 1055              		.cfi_def_cfa_offset 4
 1056 0032 BD46     		mov	sp, r7
 1057              		.cfi_def_cfa_register 13
 1058              		@ sp needed
 1059 0034 80BC     		pop	{r7}
 1060              		.cfi_restore 7
 1061              		.cfi_def_cfa_offset 0
 1062 0036 7047     		bx	lr
 1063              	.L44:
 1064              		.align	2
 1065              	.L43:
 1066 0038 00000000 		.word	ADC_AMux__addrTable
 1067 003c 00000000 		.word	ADC_AMux__maskTable
 1068              		.cfi_endproc
 1069              	.LFE10:
 1070              		.size	ADC_AMux_Set, .-ADC_AMux_Set
 1071              		.section	.text.ADC_AMux_Unset,"ax",%progbits
 1072              		.align	2
 1073              		.global	ADC_AMux_Unset
 1074              		.thumb
 1075              		.thumb_func
 1076              		.type	ADC_AMux_Unset, %function
 1077              	ADC_AMux_Unset:
ARM GAS  C:\Users\dantz\AppData\Local\Temp\ccA5mggQ.s 			page 29


 1078              	.LFB11:
 511:Generated_Source\PSoC5/cyfitter_cfg.c **** 
 512:Generated_Source\PSoC5/cyfitter_cfg.c **** /*******************************************************************************
 513:Generated_Source\PSoC5/cyfitter_cfg.c **** * Function Name: ADC_AMux_Unset
 514:Generated_Source\PSoC5/cyfitter_cfg.c **** ********************************************************************************
 515:Generated_Source\PSoC5/cyfitter_cfg.c **** * Summary:
 516:Generated_Source\PSoC5/cyfitter_cfg.c **** *  This function is used to clear a particular channel from being active on the
 517:Generated_Source\PSoC5/cyfitter_cfg.c **** *  AMux.
 518:Generated_Source\PSoC5/cyfitter_cfg.c **** *
 519:Generated_Source\PSoC5/cyfitter_cfg.c **** * Parameters:  
 520:Generated_Source\PSoC5/cyfitter_cfg.c **** *   channel - The mux channel input to mark inactive
 521:Generated_Source\PSoC5/cyfitter_cfg.c **** *
 522:Generated_Source\PSoC5/cyfitter_cfg.c **** * Return:
 523:Generated_Source\PSoC5/cyfitter_cfg.c **** *   void
 524:Generated_Source\PSoC5/cyfitter_cfg.c **** *
 525:Generated_Source\PSoC5/cyfitter_cfg.c **** *******************************************************************************/
 526:Generated_Source\PSoC5/cyfitter_cfg.c **** void ADC_AMux_Unset(uint8 channel)
 527:Generated_Source\PSoC5/cyfitter_cfg.c **** {
 1079              		.loc 1 527 0
 1080              		.cfi_startproc
 1081              		@ args = 0, pretend = 0, frame = 8
 1082              		@ frame_needed = 1, uses_anonymous_args = 0
 1083              		@ link register save eliminated.
 1084 0000 80B4     		push	{r7}
 1085              		.cfi_def_cfa_offset 4
 1086              		.cfi_offset 7, -4
 1087 0002 83B0     		sub	sp, sp, #12
 1088              		.cfi_def_cfa_offset 16
 1089 0004 00AF     		add	r7, sp, #0
 1090              		.cfi_def_cfa_register 7
 1091 0006 0346     		mov	r3, r0
 1092 0008 FB71     		strb	r3, [r7, #7]
 528:Generated_Source\PSoC5/cyfitter_cfg.c **** 	if (channel < 2)
 1093              		.loc 1 528 0
 1094 000a FB79     		ldrb	r3, [r7, #7]	@ zero_extendqisi2
 1095 000c 012B     		cmp	r3, #1
 1096 000e 10D8     		bhi	.L47
 529:Generated_Source\PSoC5/cyfitter_cfg.c **** 	{
 530:Generated_Source\PSoC5/cyfitter_cfg.c **** 		*ADC_AMux__addrTable[channel] &= (uint8)~ADC_AMux__maskTable[channel];
 1097              		.loc 1 530 0
 1098 0010 FB79     		ldrb	r3, [r7, #7]	@ zero_extendqisi2
 1099 0012 0A4A     		ldr	r2, .L48
 1100 0014 52F82330 		ldr	r3, [r2, r3, lsl #2]
 1101 0018 FA79     		ldrb	r2, [r7, #7]	@ zero_extendqisi2
 1102 001a 0849     		ldr	r1, .L48
 1103 001c 51F82220 		ldr	r2, [r1, r2, lsl #2]
 1104 0020 1178     		ldrb	r1, [r2]	@ zero_extendqisi2
 1105 0022 FA79     		ldrb	r2, [r7, #7]	@ zero_extendqisi2
 1106 0024 0648     		ldr	r0, .L48+4
 1107 0026 825C     		ldrb	r2, [r0, r2]	@ zero_extendqisi2
 1108 0028 D243     		mvns	r2, r2
 1109 002a D2B2     		uxtb	r2, r2
 1110 002c 0A40     		ands	r2, r2, r1
 1111 002e D2B2     		uxtb	r2, r2
 1112 0030 1A70     		strb	r2, [r3]
 1113              	.L47:
 531:Generated_Source\PSoC5/cyfitter_cfg.c **** 	}
ARM GAS  C:\Users\dantz\AppData\Local\Temp\ccA5mggQ.s 			page 30


 532:Generated_Source\PSoC5/cyfitter_cfg.c **** }
 1114              		.loc 1 532 0
 1115 0032 00BF     		nop
 1116 0034 0C37     		adds	r7, r7, #12
 1117              		.cfi_def_cfa_offset 4
 1118 0036 BD46     		mov	sp, r7
 1119              		.cfi_def_cfa_register 13
 1120              		@ sp needed
 1121 0038 80BC     		pop	{r7}
 1122              		.cfi_restore 7
 1123              		.cfi_def_cfa_offset 0
 1124 003a 7047     		bx	lr
 1125              	.L49:
 1126              		.align	2
 1127              	.L48:
 1128 003c 00000000 		.word	ADC_AMux__addrTable
 1129 0040 00000000 		.word	ADC_AMux__maskTable
 1130              		.cfi_endproc
 1131              	.LFE11:
 1132              		.size	ADC_AMux_Unset, .-ADC_AMux_Unset
 1133              		.section	.text.cyfitter_cfg,"ax",%progbits
 1134              		.align	2
 1135              		.global	cyfitter_cfg
 1136              		.thumb
 1137              		.thumb_func
 1138              		.type	cyfitter_cfg, %function
 1139              	cyfitter_cfg:
 1140              	.LFB12:
 533:Generated_Source\PSoC5/cyfitter_cfg.c **** 
 534:Generated_Source\PSoC5/cyfitter_cfg.c **** 
 535:Generated_Source\PSoC5/cyfitter_cfg.c **** 
 536:Generated_Source\PSoC5/cyfitter_cfg.c **** /*******************************************************************************
 537:Generated_Source\PSoC5/cyfitter_cfg.c **** * Function Name: cyfitter_cfg
 538:Generated_Source\PSoC5/cyfitter_cfg.c **** ********************************************************************************
 539:Generated_Source\PSoC5/cyfitter_cfg.c **** * Summary:
 540:Generated_Source\PSoC5/cyfitter_cfg.c **** *  This function is called by the start-up code for the selected device. It
 541:Generated_Source\PSoC5/cyfitter_cfg.c **** *  performs all of the necessary device configuration based on the design
 542:Generated_Source\PSoC5/cyfitter_cfg.c **** *  settings.  This includes settings from the Design Wide Resources (DWR) such
 543:Generated_Source\PSoC5/cyfitter_cfg.c **** *  as Clocks and Pins as well as any component configuration that is necessary.
 544:Generated_Source\PSoC5/cyfitter_cfg.c **** *
 545:Generated_Source\PSoC5/cyfitter_cfg.c **** * Parameters:
 546:Generated_Source\PSoC5/cyfitter_cfg.c **** *   void
 547:Generated_Source\PSoC5/cyfitter_cfg.c **** *
 548:Generated_Source\PSoC5/cyfitter_cfg.c **** * Return:
 549:Generated_Source\PSoC5/cyfitter_cfg.c **** *   void
 550:Generated_Source\PSoC5/cyfitter_cfg.c **** *
 551:Generated_Source\PSoC5/cyfitter_cfg.c **** *******************************************************************************/
 552:Generated_Source\PSoC5/cyfitter_cfg.c **** 
 553:Generated_Source\PSoC5/cyfitter_cfg.c **** void cyfitter_cfg(void)
 554:Generated_Source\PSoC5/cyfitter_cfg.c **** {
 1141              		.loc 1 554 0
 1142              		.cfi_startproc
 1143              		@ args = 0, pretend = 0, frame = 24
 1144              		@ frame_needed = 1, uses_anonymous_args = 0
 1145 0000 80B5     		push	{r7, lr}
 1146              		.cfi_def_cfa_offset 8
 1147              		.cfi_offset 7, -8
ARM GAS  C:\Users\dantz\AppData\Local\Temp\ccA5mggQ.s 			page 31


 1148              		.cfi_offset 14, -4
 1149 0002 86B0     		sub	sp, sp, #24
 1150              		.cfi_def_cfa_offset 32
 1151 0004 00AF     		add	r7, sp, #0
 1152              		.cfi_def_cfa_register 7
 555:Generated_Source\PSoC5/cyfitter_cfg.c **** #ifdef CYGlobalIntDisable
 556:Generated_Source\PSoC5/cyfitter_cfg.c **** 	/* Disable interrupts by default. Let user enable if/when they want. */
 557:Generated_Source\PSoC5/cyfitter_cfg.c **** 	CYGlobalIntDisable
 1153              		.loc 1 557 0
 1154              		.syntax unified
 1155              	@ 557 "Generated_Source\PSoC5\cyfitter_cfg.c" 1
 1156 0006 72B6     		CPSID   i
 1157              	@ 0 "" 2
 1158              		.thumb
 1159              		.syntax unified
 1160              	.LBB3:
 558:Generated_Source\PSoC5/cyfitter_cfg.c **** #endif
 559:Generated_Source\PSoC5/cyfitter_cfg.c **** 
 560:Generated_Source\PSoC5/cyfitter_cfg.c **** 	{
 561:Generated_Source\PSoC5/cyfitter_cfg.c **** 
 562:Generated_Source\PSoC5/cyfitter_cfg.c **** 		CYPACKED typedef struct {
 563:Generated_Source\PSoC5/cyfitter_cfg.c **** 			void CYFAR *address;
 564:Generated_Source\PSoC5/cyfitter_cfg.c **** 			uint16 size;
 565:Generated_Source\PSoC5/cyfitter_cfg.c **** 		} CYPACKED_ATTR cfg_memset_t;
 566:Generated_Source\PSoC5/cyfitter_cfg.c **** 
 567:Generated_Source\PSoC5/cyfitter_cfg.c **** 
 568:Generated_Source\PSoC5/cyfitter_cfg.c **** 		CYPACKED typedef struct {
 569:Generated_Source\PSoC5/cyfitter_cfg.c **** 			void CYFAR *dest;
 570:Generated_Source\PSoC5/cyfitter_cfg.c **** 			const void CYFAR *src;
 571:Generated_Source\PSoC5/cyfitter_cfg.c **** 			uint16 size;
 572:Generated_Source\PSoC5/cyfitter_cfg.c **** 		} CYPACKED_ATTR cfg_memcpy_t;
 573:Generated_Source\PSoC5/cyfitter_cfg.c **** 
 574:Generated_Source\PSoC5/cyfitter_cfg.c **** 		static const cfg_memset_t CYCODE cfg_memset_list[] = {
 575:Generated_Source\PSoC5/cyfitter_cfg.c **** 			/* address, size */
 576:Generated_Source\PSoC5/cyfitter_cfg.c **** 			{(void CYFAR *)(CYREG_PRT1_DR), 16u},
 577:Generated_Source\PSoC5/cyfitter_cfg.c **** 			{(void CYFAR *)(CYREG_PRT4_DR), 48u},
 578:Generated_Source\PSoC5/cyfitter_cfg.c **** 			{(void CYFAR *)(CYDEV_UCFG_B0_P0_U0_BASE), 4096u},
 579:Generated_Source\PSoC5/cyfitter_cfg.c **** 			{(void CYFAR *)(CYDEV_UCFG_B1_P2_U0_BASE), 1024u},
 580:Generated_Source\PSoC5/cyfitter_cfg.c **** 			{(void CYFAR *)(CYDEV_UCFG_B1_P4_U1_BASE), 896u},
 581:Generated_Source\PSoC5/cyfitter_cfg.c **** 			{(void CYFAR *)(CYDEV_UCFG_DSI0_BASE), 2560u},
 582:Generated_Source\PSoC5/cyfitter_cfg.c **** 			{(void CYFAR *)(CYDEV_UCFG_DSI12_BASE), 512u},
 583:Generated_Source\PSoC5/cyfitter_cfg.c **** 			{(void CYFAR *)(CYREG_BCTL0_MDCLK_EN), 32u},
 584:Generated_Source\PSoC5/cyfitter_cfg.c **** 		};
 585:Generated_Source\PSoC5/cyfitter_cfg.c **** 
 586:Generated_Source\PSoC5/cyfitter_cfg.c **** 		static const cfg_memcpy_t CYCODE cfg_memcpy_list [] = {
 587:Generated_Source\PSoC5/cyfitter_cfg.c **** 			/* dest, src, size */
 588:Generated_Source\PSoC5/cyfitter_cfg.c **** 			{(void CYFAR *)(CYDEV_PRTDSI_PRT12_BASE), BS_IOPORT_7_VAL, 6u},
 589:Generated_Source\PSoC5/cyfitter_cfg.c **** 			{(void CYFAR *)(CYDEV_UCFG_B1_P4_U0_BASE), BS_UDB_0_1_1_CONFIG_VAL, 128u},
 590:Generated_Source\PSoC5/cyfitter_cfg.c **** 		};
 591:Generated_Source\PSoC5/cyfitter_cfg.c **** 
 592:Generated_Source\PSoC5/cyfitter_cfg.c **** 		uint8 CYDATA i;
 593:Generated_Source\PSoC5/cyfitter_cfg.c **** 
 594:Generated_Source\PSoC5/cyfitter_cfg.c **** 		/* Zero out critical memory blocks before beginning configuration */
 595:Generated_Source\PSoC5/cyfitter_cfg.c **** 		for (i = 0u; i < (sizeof(cfg_memset_list)/sizeof(cfg_memset_list[0])); i++)
 1161              		.loc 1 595 0
 1162 0008 0023     		movs	r3, #0
 1163 000a FB75     		strb	r3, [r7, #23]
ARM GAS  C:\Users\dantz\AppData\Local\Temp\ccA5mggQ.s 			page 32


 1164 000c 13E0     		b	.L51
 1165              	.L52:
 1166              	.LBB4:
 596:Generated_Source\PSoC5/cyfitter_cfg.c **** 		{
 597:Generated_Source\PSoC5/cyfitter_cfg.c **** 			const cfg_memset_t CYCODE * CYDATA ms = &cfg_memset_list[i];
 1167              		.loc 1 597 0 discriminator 3
 1168 000e FA7D     		ldrb	r2, [r7, #23]	@ zero_extendqisi2
 1169 0010 1346     		mov	r3, r2
 1170 0012 5B00     		lsls	r3, r3, #1
 1171 0014 1344     		add	r3, r3, r2
 1172 0016 5B00     		lsls	r3, r3, #1
 1173 0018 4B4A     		ldr	r2, .L55
 1174 001a 1344     		add	r3, r3, r2
 1175 001c 3B61     		str	r3, [r7, #16]
 598:Generated_Source\PSoC5/cyfitter_cfg.c **** 			CYMEMZERO(ms->address, (size_t)(uint32)(ms->size));
 1176              		.loc 1 598 0 discriminator 3
 1177 001e 3B69     		ldr	r3, [r7, #16]
 1178 0020 1A68     		ldr	r2, [r3]	@ unaligned
 1179 0022 3B69     		ldr	r3, [r7, #16]
 1180 0024 9B88     		ldrh	r3, [r3, #4]	@ unaligned
 1181 0026 9BB2     		uxth	r3, r3
 1182 0028 1946     		mov	r1, r3
 1183 002a 1046     		mov	r0, r2
 1184 002c FFF7FEFF 		bl	CYMEMZERO
 1185              	.LBE4:
 595:Generated_Source\PSoC5/cyfitter_cfg.c **** 		{
 1186              		.loc 1 595 0 discriminator 3
 1187 0030 FB7D     		ldrb	r3, [r7, #23]	@ zero_extendqisi2
 1188 0032 0133     		adds	r3, r3, #1
 1189 0034 FB75     		strb	r3, [r7, #23]
 1190              	.L51:
 595:Generated_Source\PSoC5/cyfitter_cfg.c **** 		{
 1191              		.loc 1 595 0 is_stmt 0 discriminator 1
 1192 0036 FB7D     		ldrb	r3, [r7, #23]	@ zero_extendqisi2
 1193 0038 072B     		cmp	r3, #7
 1194 003a E8D9     		bls	.L52
 599:Generated_Source\PSoC5/cyfitter_cfg.c **** 		}
 600:Generated_Source\PSoC5/cyfitter_cfg.c **** 
 601:Generated_Source\PSoC5/cyfitter_cfg.c **** 		/* Copy device configuration data into registers */
 602:Generated_Source\PSoC5/cyfitter_cfg.c **** 		for (i = 0u; i < (sizeof(cfg_memcpy_list)/sizeof(cfg_memcpy_list[0])); i++)
 1195              		.loc 1 602 0 is_stmt 1
 1196 003c 0023     		movs	r3, #0
 1197 003e FB75     		strb	r3, [r7, #23]
 1198 0040 1CE0     		b	.L53
 1199              	.L54:
 1200              	.LBB5:
 603:Generated_Source\PSoC5/cyfitter_cfg.c **** 		{
 604:Generated_Source\PSoC5/cyfitter_cfg.c **** 			const cfg_memcpy_t CYCODE * CYDATA mc = &cfg_memcpy_list[i];
 1201              		.loc 1 604 0 discriminator 3
 1202 0042 FA7D     		ldrb	r2, [r7, #23]	@ zero_extendqisi2
 1203 0044 1346     		mov	r3, r2
 1204 0046 9B00     		lsls	r3, r3, #2
 1205 0048 1344     		add	r3, r3, r2
 1206 004a 5B00     		lsls	r3, r3, #1
 1207 004c 3F4A     		ldr	r2, .L55+4
 1208 004e 1344     		add	r3, r3, r2
 1209 0050 FB60     		str	r3, [r7, #12]
ARM GAS  C:\Users\dantz\AppData\Local\Temp\ccA5mggQ.s 			page 33


 605:Generated_Source\PSoC5/cyfitter_cfg.c **** 			void * CYDATA destPtr = mc->dest;
 1210              		.loc 1 605 0 discriminator 3
 1211 0052 FB68     		ldr	r3, [r7, #12]
 1212 0054 1B68     		ldr	r3, [r3]	@ unaligned
 1213 0056 BB60     		str	r3, [r7, #8]
 606:Generated_Source\PSoC5/cyfitter_cfg.c **** 			const void * CYDATA srcPtr = mc->src;
 1214              		.loc 1 606 0 discriminator 3
 1215 0058 FB68     		ldr	r3, [r7, #12]
 1216 005a 5B68     		ldr	r3, [r3, #4]	@ unaligned
 1217 005c 7B60     		str	r3, [r7, #4]
 607:Generated_Source\PSoC5/cyfitter_cfg.c **** 			uint16 CYDATA numBytes = mc->size;
 1218              		.loc 1 607 0 discriminator 3
 1219 005e FB68     		ldr	r3, [r7, #12]
 1220 0060 1A7A     		ldrb	r2, [r3, #8]	@ zero_extendqisi2
 1221 0062 5B7A     		ldrb	r3, [r3, #9]	@ zero_extendqisi2
 1222 0064 1B02     		lsls	r3, r3, #8
 1223 0066 1343     		orrs	r3, r3, r2
 1224 0068 7B80     		strh	r3, [r7, #2]	@ movhi
 608:Generated_Source\PSoC5/cyfitter_cfg.c **** 			CYCONFIGCPY(destPtr, srcPtr, numBytes);
 1225              		.loc 1 608 0 discriminator 3
 1226 006a 7B88     		ldrh	r3, [r7, #2]
 1227 006c 1A46     		mov	r2, r3
 1228 006e 7968     		ldr	r1, [r7, #4]
 1229 0070 B868     		ldr	r0, [r7, #8]
 1230 0072 FFF7FEFF 		bl	CYCONFIGCPY
 1231              	.LBE5:
 602:Generated_Source\PSoC5/cyfitter_cfg.c **** 		{
 1232              		.loc 1 602 0 discriminator 3
 1233 0076 FB7D     		ldrb	r3, [r7, #23]	@ zero_extendqisi2
 1234 0078 0133     		adds	r3, r3, #1
 1235 007a FB75     		strb	r3, [r7, #23]
 1236              	.L53:
 602:Generated_Source\PSoC5/cyfitter_cfg.c **** 		{
 1237              		.loc 1 602 0 is_stmt 0 discriminator 1
 1238 007c FB7D     		ldrb	r3, [r7, #23]	@ zero_extendqisi2
 1239 007e 012B     		cmp	r3, #1
 1240 0080 DFD9     		bls	.L54
 609:Generated_Source\PSoC5/cyfitter_cfg.c **** 		}
 610:Generated_Source\PSoC5/cyfitter_cfg.c **** 
 611:Generated_Source\PSoC5/cyfitter_cfg.c **** 		cfg_write_bytes32(cy_cfg_addr_table, cy_cfg_data_table);
 1241              		.loc 1 611 0 is_stmt 1
 1242 0082 3349     		ldr	r1, .L55+8
 1243 0084 4FF09040 		mov	r0, #1207959552
 1244 0088 FFF7FEFF 		bl	cfg_write_bytes32
 612:Generated_Source\PSoC5/cyfitter_cfg.c **** 
 613:Generated_Source\PSoC5/cyfitter_cfg.c **** 		/* Perform normal device configuration. Order is not critical for these items. */
 614:Generated_Source\PSoC5/cyfitter_cfg.c **** 		CY_SET_XTND_REG8((void CYFAR *)(CYREG_DSM0_CR3), 0x0Au);
 1245              		.loc 1 614 0
 1246 008c 314B     		ldr	r3, .L55+12
 1247 008e 0A22     		movs	r2, #10
 1248 0090 1A70     		strb	r2, [r3]
 615:Generated_Source\PSoC5/cyfitter_cfg.c **** 		CY_SET_XTND_REG16((void CYFAR *)(CYREG_LUT0_CR), 0x0003u);
 1249              		.loc 1 615 0
 1250 0092 314B     		ldr	r3, .L55+16
 1251 0094 0322     		movs	r2, #3
 1252 0096 1A80     		strh	r2, [r3]	@ movhi
 616:Generated_Source\PSoC5/cyfitter_cfg.c **** 
ARM GAS  C:\Users\dantz\AppData\Local\Temp\ccA5mggQ.s 			page 34


 617:Generated_Source\PSoC5/cyfitter_cfg.c **** 		/* Enable digital routing */
 618:Generated_Source\PSoC5/cyfitter_cfg.c **** 		CY_SET_XTND_REG8((void CYFAR *)CYREG_BCTL0_BANK_CTL, CY_GET_XTND_REG8((void CYFAR *)CYREG_BCTL0_B
 1253              		.loc 1 618 0
 1254 0098 304A     		ldr	r2, .L55+20
 1255 009a 304B     		ldr	r3, .L55+20
 1256 009c 1B78     		ldrb	r3, [r3]
 1257 009e DBB2     		uxtb	r3, r3
 1258 00a0 43F00203 		orr	r3, r3, #2
 1259 00a4 DBB2     		uxtb	r3, r3
 1260 00a6 1370     		strb	r3, [r2]
 619:Generated_Source\PSoC5/cyfitter_cfg.c **** 		CY_SET_XTND_REG8((void CYFAR *)CYREG_BCTL1_BANK_CTL, CY_GET_XTND_REG8((void CYFAR *)CYREG_BCTL1_B
 1261              		.loc 1 619 0
 1262 00a8 2D4A     		ldr	r2, .L55+24
 1263 00aa 2D4B     		ldr	r3, .L55+24
 1264 00ac 1B78     		ldrb	r3, [r3]
 1265 00ae DBB2     		uxtb	r3, r3
 1266 00b0 43F00203 		orr	r3, r3, #2
 1267 00b4 DBB2     		uxtb	r3, r3
 1268 00b6 1370     		strb	r3, [r2]
 620:Generated_Source\PSoC5/cyfitter_cfg.c **** 
 621:Generated_Source\PSoC5/cyfitter_cfg.c **** 		/* Enable UDB array */
 622:Generated_Source\PSoC5/cyfitter_cfg.c **** 		CY_SET_XTND_REG8((void CYFAR *)CYREG_PM_ACT_CFG0, CY_GET_XTND_REG8((void CYFAR *)CYREG_PM_ACT_CFG
 1269              		.loc 1 622 0
 1270 00b8 2A4A     		ldr	r2, .L55+28
 1271 00ba 2A4B     		ldr	r3, .L55+28
 1272 00bc 1B78     		ldrb	r3, [r3]
 1273 00be DBB2     		uxtb	r3, r3
 1274 00c0 43F04003 		orr	r3, r3, #64
 1275 00c4 DBB2     		uxtb	r3, r3
 1276 00c6 1370     		strb	r3, [r2]
 623:Generated_Source\PSoC5/cyfitter_cfg.c **** 		CY_SET_XTND_REG8((void CYFAR *)CYREG_PM_AVAIL_CR2, CY_GET_XTND_REG8((void CYFAR *)CYREG_PM_AVAIL_
 1277              		.loc 1 623 0
 1278 00c8 274A     		ldr	r2, .L55+32
 1279 00ca 274B     		ldr	r3, .L55+32
 1280 00cc 1B78     		ldrb	r3, [r3]
 1281 00ce DBB2     		uxtb	r3, r3
 1282 00d0 43F01003 		orr	r3, r3, #16
 1283 00d4 DBB2     		uxtb	r3, r3
 1284 00d6 1370     		strb	r3, [r2]
 1285              	.LBE3:
 624:Generated_Source\PSoC5/cyfitter_cfg.c **** 	}
 625:Generated_Source\PSoC5/cyfitter_cfg.c **** 
 626:Generated_Source\PSoC5/cyfitter_cfg.c **** 
 627:Generated_Source\PSoC5/cyfitter_cfg.c **** 	/* Perform second pass device configuration. These items must be configured in specific order afte
 628:Generated_Source\PSoC5/cyfitter_cfg.c **** 	CYCONFIGCPY((void CYFAR *)(CYREG_PRT0_DM0), (const void CYFAR *)(BS_IOPINS0_0_VAL), 8u);
 1286              		.loc 1 628 0
 1287 00d8 0822     		movs	r2, #8
 1288 00da 2449     		ldr	r1, .L55+36
 1289 00dc 2448     		ldr	r0, .L55+40
 1290 00de FFF7FEFF 		bl	CYCONFIGCPY
 629:Generated_Source\PSoC5/cyfitter_cfg.c **** 	CYCONFIGCPY((void CYFAR *)(CYREG_PRT12_DM0), (const void CYFAR *)(BS_IOPINS0_7_VAL), 8u);
 1291              		.loc 1 629 0
 1292 00e2 0822     		movs	r2, #8
 1293 00e4 2349     		ldr	r1, .L55+44
 1294 00e6 2448     		ldr	r0, .L55+48
 1295 00e8 FFF7FEFF 		bl	CYCONFIGCPY
 630:Generated_Source\PSoC5/cyfitter_cfg.c **** 	CYCONFIGCPY((void CYFAR *)(CYREG_PRT15_DR), (const void CYFAR *)(BS_IOPINS0_8_VAL), 10u);
ARM GAS  C:\Users\dantz\AppData\Local\Temp\ccA5mggQ.s 			page 35


 1296              		.loc 1 630 0
 1297 00ec 0A22     		movs	r2, #10
 1298 00ee 2349     		ldr	r1, .L55+52
 1299 00f0 2348     		ldr	r0, .L55+56
 1300 00f2 FFF7FEFF 		bl	CYCONFIGCPY
 631:Generated_Source\PSoC5/cyfitter_cfg.c **** 	CYCONFIGCPY((void CYFAR *)(CYREG_PRT2_DM0), (const void CYFAR *)(BS_IOPINS0_2_VAL), 8u);
 1301              		.loc 1 631 0
 1302 00f6 0822     		movs	r2, #8
 1303 00f8 2249     		ldr	r1, .L55+60
 1304 00fa 2348     		ldr	r0, .L55+64
 1305 00fc FFF7FEFF 		bl	CYCONFIGCPY
 632:Generated_Source\PSoC5/cyfitter_cfg.c **** 	CYCONFIGCPY((void CYFAR *)(CYREG_PRT3_DM0), (const void CYFAR *)(BS_IOPINS0_3_VAL), 8u);
 1306              		.loc 1 632 0
 1307 0100 0822     		movs	r2, #8
 1308 0102 2249     		ldr	r1, .L55+68
 1309 0104 2248     		ldr	r0, .L55+72
 1310 0106 FFF7FEFF 		bl	CYCONFIGCPY
 633:Generated_Source\PSoC5/cyfitter_cfg.c **** 	/* Switch Boost to the precision bandgap reference from its internal reference */
 634:Generated_Source\PSoC5/cyfitter_cfg.c **** 	CY_SET_REG8((void CYXDATA *)CYREG_BOOST_CR2, (CY_GET_REG8((void CYXDATA *)CYREG_BOOST_CR2) | 0x08u
 1311              		.loc 1 634 0
 1312 010a 224A     		ldr	r2, .L55+76
 1313 010c 214B     		ldr	r3, .L55+76
 1314 010e 1B78     		ldrb	r3, [r3]
 1315 0110 DBB2     		uxtb	r3, r3
 1316 0112 43F00803 		orr	r3, r3, #8
 1317 0116 DBB2     		uxtb	r3, r3
 1318 0118 1370     		strb	r3, [r2]
 635:Generated_Source\PSoC5/cyfitter_cfg.c **** 
 636:Generated_Source\PSoC5/cyfitter_cfg.c **** 	/* Set Flash Cycles based on max possible frequency in case a glitch occurs during ClockSetup(). *
 637:Generated_Source\PSoC5/cyfitter_cfg.c **** 	CY_SET_XTND_REG8((void CYFAR *)(CYREG_CACHE_CC_CTL), (((CYDEV_INSTRUCT_CACHE_ENABLED) != 0) ? 0x61
 1319              		.loc 1 637 0
 1320 011a 1F4B     		ldr	r3, .L55+80
 1321 011c 6122     		movs	r2, #97
 1322 011e 1A70     		strb	r2, [r3]
 638:Generated_Source\PSoC5/cyfitter_cfg.c **** 	/* Setup clocks based on selections from Clock DWR */
 639:Generated_Source\PSoC5/cyfitter_cfg.c **** 	ClockSetup();
 1323              		.loc 1 639 0
 1324 0120 FFF7FEFF 		bl	ClockSetup
 640:Generated_Source\PSoC5/cyfitter_cfg.c **** 	/* Set Flash Cycles based on newly configured 24.00MHz Bus Clock. */
 641:Generated_Source\PSoC5/cyfitter_cfg.c **** 	CY_SET_XTND_REG8((void CYFAR *)(CYREG_CACHE_CC_CTL), (((CYDEV_INSTRUCT_CACHE_ENABLED) != 0) ? 0x81
 1325              		.loc 1 641 0
 1326 0124 1C4B     		ldr	r3, .L55+80
 1327 0126 8122     		movs	r2, #129
 1328 0128 1A70     		strb	r2, [r3]
 642:Generated_Source\PSoC5/cyfitter_cfg.c **** 	CY_SET_XTND_REG8((void CYFAR *)(CYREG_PANTHER_WAITPIPE), 0x01u);
 1329              		.loc 1 642 0
 1330 012a 1C4B     		ldr	r3, .L55+84
 1331 012c 0122     		movs	r2, #1
 1332 012e 1A70     		strb	r2, [r3]
 643:Generated_Source\PSoC5/cyfitter_cfg.c **** 
 644:Generated_Source\PSoC5/cyfitter_cfg.c **** 	/* Perform basic analog initialization to defaults */
 645:Generated_Source\PSoC5/cyfitter_cfg.c **** 	AnalogSetDefault();
 1333              		.loc 1 645 0
 1334 0130 FFF7FEFF 		bl	AnalogSetDefault
 646:Generated_Source\PSoC5/cyfitter_cfg.c **** 
 647:Generated_Source\PSoC5/cyfitter_cfg.c **** 	/* Configure alternate active mode */
 648:Generated_Source\PSoC5/cyfitter_cfg.c **** 	CYCONFIGCPY((void CYFAR *)CYDEV_PM_STBY_BASE, (const void CYFAR *)CYDEV_PM_ACT_BASE, 14u);
ARM GAS  C:\Users\dantz\AppData\Local\Temp\ccA5mggQ.s 			page 36


 1335              		.loc 1 648 0
 1336 0134 0E22     		movs	r2, #14
 1337 0136 0B49     		ldr	r1, .L55+28
 1338 0138 1948     		ldr	r0, .L55+88
 1339 013a FFF7FEFF 		bl	CYCONFIGCPY
 649:Generated_Source\PSoC5/cyfitter_cfg.c **** }
 1340              		.loc 1 649 0
 1341 013e 00BF     		nop
 1342 0140 1837     		adds	r7, r7, #24
 1343              		.cfi_def_cfa_offset 8
 1344 0142 BD46     		mov	sp, r7
 1345              		.cfi_def_cfa_register 13
 1346              		@ sp needed
 1347 0144 80BD     		pop	{r7, pc}
 1348              	.L56:
 1349 0146 00BF     		.align	2
 1350              	.L55:
 1351 0148 34000000 		.word	cfg_memset_list.5047
 1352 014c 64000000 		.word	cfg_memcpy_list.5048
 1353 0150 94000048 		.word	1207959700
 1354 0154 83580040 		.word	1073764483
 1355 0158 48580040 		.word	1073764424
 1356 015c 03500140 		.word	1073827843
 1357 0160 13500140 		.word	1073827859
 1358 0164 A0430040 		.word	1073759136
 1359 0168 C2430040 		.word	1073759170
 1360 016c 300C0048 		.word	1207962672
 1361 0170 02510040 		.word	1073762562
 1362 0174 380C0048 		.word	1207962680
 1363 0178 C2510040 		.word	1073762754
 1364 017c 400C0048 		.word	1207962688
 1365 0180 F0510040 		.word	1073762800
 1366 0184 4C0C0048 		.word	1207962700
 1367 0188 22510040 		.word	1073762594
 1368 018c 540C0048 		.word	1207962708
 1369 0190 32510040 		.word	1073762610
 1370 0194 22430040 		.word	1073759010
 1371 0198 00480040 		.word	1073760256
 1372 019c 04000840 		.word	1074266116
 1373 01a0 B0430040 		.word	1073759152
 1374              		.cfi_endproc
 1375              	.LFE12:
 1376              		.size	cyfitter_cfg, .-cyfitter_cfg
 1377              		.section	.rodata
 1378 0032 0000     		.align	2
 1379              		.type	cfg_memset_list.5047, %object
 1380              		.size	cfg_memset_list.5047, 48
 1381              	cfg_memset_list.5047:
 1382 0034 10510040 		.word	1073762576
 1383 0038 1000     		.short	16
 1384 003a 40510040 		.4byte	1073762624
 1385 003e 3000     		.short	48
 1386 0040 00000140 		.word	1073807360
 1387 0044 0010     		.short	4096
 1388 0046 00140140 		.4byte	1073812480
 1389 004a 0004     		.short	1024
 1390 004c 80180140 		.word	1073813632
ARM GAS  C:\Users\dantz\AppData\Local\Temp\ccA5mggQ.s 			page 37


 1391 0050 8003     		.short	896
 1392 0052 00400140 		.4byte	1073823744
 1393 0056 000A     		.short	2560
 1394 0058 004C0140 		.word	1073826816
 1395 005c 0002     		.short	512
 1396 005e 00500140 		.4byte	1073827840
 1397 0062 2000     		.short	32
 1398              		.align	2
 1399              		.type	cfg_memcpy_list.5048, %object
 1400              		.size	cfg_memcpy_list.5048, 20
 1401              	cfg_memcpy_list.5048:
 1402 0064 60520040 		.word	1073762912
 1403 0068 A80B0048 		.word	1207962536
 1404 006c 0600     		.short	6
 1405 006e 00180140 		.4byte	1073813504
 1406 0072 B00B0048 		.4byte	1207962544
 1407 0076 8000     		.short	128
 1408              		.text
 1409              	.Letext0:
 1410              		.file 2 "c:\\program files (x86)\\cypress\\psoc creator\\4.4\\psoc creator\\import\\gnu\\arm\\5.4.
 1411              		.file 3 "Generated_Source\\PSoC5\\cytypes.h"