ARM GAS  C:\Users\dantz\AppData\Local\Temp\ccguT6UF.s 			page 1


   1              		.syntax unified
   2              		.cpu cortex-m3
   3              		.fpu softvfp
   4              		.eabi_attribute 20, 1
   5              		.eabi_attribute 21, 1
   6              		.eabi_attribute 23, 3
   7              		.eabi_attribute 24, 1
   8              		.eabi_attribute 25, 1
   9              		.eabi_attribute 26, 1
  10              		.eabi_attribute 30, 6
  11              		.eabi_attribute 34, 1
  12              		.eabi_attribute 18, 4
  13              		.thumb
  14              		.syntax unified
  15              		.file	"data.c"
  16              		.text
  17              	.Ltext0:
  18              		.cfi_sections	.debug_frame
  19              		.comm	modem_state,1,1
  20              		.comm	modem_start_time_stamp,4,4
  21              		.comm	modem_info,60,4
  22              		.comm	modem_stats,32,4
  23              		.comm	updatable_parameters,7,4
  24              		.syntax unified
  25              		.global _printf_float
  26              		.thumb
  27              		.syntax unified
  28              		.comm	buffer_overflow,1,1
  29              		.comm	dataPointsInStack,2,2
  30              		.comm	dataPointsInStackDesired,2,2
  31              		.comm	data,6600,4
  32              		.comm	level_sensor_inbox,100,4
  33              		.comm	level_sensor_enabled,1,1
  34              		.comm	App_LED_enabled,1,1
  35              		.comm	app_led_inbox,100,4
  36              		.comm	http_request,10000,4
  37              		.comm	http_body,10000,4
  38              		.comm	http_route,200,4
  39              		.comm	system_info,28,4
  40              		.comm	system_settings,104,4
  41              		.comm	alarmMeasure,6,4
  42              		.comm	timeToMeasure,1,1
  43              		.comm	alarmSync,6,4
  44              		.comm	timeToSync,1,1
  45              		.comm	timeToSycnRemoteParams,1,1
  46              		.comm	hey,1,1
  47              		.comm	alarmAppLED,6,4
  48              		.comm	timeToAppLED,1,1
  49              		.comm	alarmLevelSensor,6,4
  50              		.comm	timetoLevelSensor,1,1
  51              		.section	.rodata
  52              		.align	2
  53              	.LC0:
  54 0000 257300   		.ascii	"%s\000"
  55 0003 00       		.align	2
  56              	.LC1:
  57 0004 44617461 		.ascii	"Data stack full. Begin overwrite of circular buffer"
ARM GAS  C:\Users\dantz\AppData\Local\Temp\ccguT6UF.s 			page 2


  57      20737461 
  57      636B2066 
  57      756C6C2E 
  57      20426567 
  58 0037 2E00     		.ascii	".\000"
  59              		.section	.text.pushData,"ax",%progbits
  60              		.align	2
  61              		.global	pushData
  62              		.thumb
  63              		.thumb_func
  64              		.type	pushData, %function
  65              	pushData:
  66              	.LFB64:
  67              		.file 1 "data.c"
   1:data.c        **** // ==============================================
   2:data.c        **** //  I got stacks on stacks (on stacks)
   3:data.c        **** //      - Soulja Boy (2011)
   4:data.c        **** //
   5:data.c        **** // This defines methods for the core data stack, which will be syunced with the server
   6:data.c        **** // ==============================================
   7:data.c        **** #include "data.h"
   8:data.c        **** #include "notoriOS.h"
   9:data.c        **** 
  10:data.c        **** 
  11:data.c        **** // ==============================================
  12:data.c        **** //  Push It
  13:data.c        **** //      - Salt-n-Peppa (1987)
  14:data.c        **** //
  15:data.c        **** // This pushes data onto the stack
  16:data.c        **** // ==============================================
  17:data.c        **** uint8 pushData(char * key, char *value, int32 timestamp){
  68              		.loc 1 17 0
  69              		.cfi_startproc
  70              		@ args = 0, pretend = 0, frame = 16
  71              		@ frame_needed = 1, uses_anonymous_args = 0
  72 0000 80B5     		push	{r7, lr}
  73              		.cfi_def_cfa_offset 8
  74              		.cfi_offset 7, -8
  75              		.cfi_offset 14, -4
  76 0002 84B0     		sub	sp, sp, #16
  77              		.cfi_def_cfa_offset 24
  78 0004 00AF     		add	r7, sp, #0
  79              		.cfi_def_cfa_register 7
  80 0006 F860     		str	r0, [r7, #12]
  81 0008 B960     		str	r1, [r7, #8]
  82 000a 7A60     		str	r2, [r7, #4]
  18:data.c        ****     // Print data key, value and timestamp
  19:data.c        ****     snprintf(data[dataPointsInStack].key,sizeof(data[dataPointsInStack].key), "%s", key);
  83              		.loc 1 19 0
  84 000c 234B     		ldr	r3, .L4
  85 000e 1B88     		ldrh	r3, [r3]
  86 0010 1A46     		mov	r2, r3
  87 0012 2C23     		movs	r3, #44
  88 0014 03FB02F3 		mul	r3, r3, r2
  89 0018 214A     		ldr	r2, .L4+4
  90 001a 9818     		adds	r0, r3, r2
  91 001c FB68     		ldr	r3, [r7, #12]
ARM GAS  C:\Users\dantz\AppData\Local\Temp\ccguT6UF.s 			page 3


  92 001e 214A     		ldr	r2, .L4+8
  93 0020 1421     		movs	r1, #20
  94 0022 FFF7FEFF 		bl	snprintf
  20:data.c        ****     snprintf(data[dataPointsInStack].value,sizeof(data[dataPointsInStack].value), "%s", value);
  95              		.loc 1 20 0
  96 0026 1D4B     		ldr	r3, .L4
  97 0028 1B88     		ldrh	r3, [r3]
  98 002a 1A46     		mov	r2, r3
  99 002c 2C23     		movs	r3, #44
 100 002e 03FB02F3 		mul	r3, r3, r2
 101 0032 1033     		adds	r3, r3, #16
 102 0034 1A4A     		ldr	r2, .L4+4
 103 0036 1344     		add	r3, r3, r2
 104 0038 181D     		adds	r0, r3, #4
 105 003a BB68     		ldr	r3, [r7, #8]
 106 003c 194A     		ldr	r2, .L4+8
 107 003e 1421     		movs	r1, #20
 108 0040 FFF7FEFF 		bl	snprintf
  21:data.c        ****     data[dataPointsInStack].timeStamp = timestamp;
 109              		.loc 1 21 0
 110 0044 154B     		ldr	r3, .L4
 111 0046 1B88     		ldrh	r3, [r3]
 112 0048 1946     		mov	r1, r3
 113 004a 154A     		ldr	r2, .L4+4
 114 004c 2C23     		movs	r3, #44
 115 004e 03FB01F3 		mul	r3, r3, r1
 116 0052 1344     		add	r3, r3, r2
 117 0054 2833     		adds	r3, r3, #40
 118 0056 7A68     		ldr	r2, [r7, #4]
 119 0058 1A60     		str	r2, [r3]
  22:data.c        ****     
  23:data.c        ****     // Track the number of actual (dataPointsInStack) and desired (dataPointsInStackPointer) data p
  24:data.c        ****     dataPointsInStack++;
 120              		.loc 1 24 0
 121 005a 104B     		ldr	r3, .L4
 122 005c 1B88     		ldrh	r3, [r3]
 123 005e 0133     		adds	r3, r3, #1
 124 0060 9AB2     		uxth	r2, r3
 125 0062 0E4B     		ldr	r3, .L4
 126 0064 1A80     		strh	r2, [r3]	@ movhi
  25:data.c        ****     dataPointsInStackDesired++;
 127              		.loc 1 25 0
 128 0066 104B     		ldr	r3, .L4+12
 129 0068 1B88     		ldrh	r3, [r3]
 130 006a 0133     		adds	r3, r3, #1
 131 006c 9AB2     		uxth	r2, r3
 132 006e 0E4B     		ldr	r3, .L4+12
 133 0070 1A80     		strh	r2, [r3]	@ movhi
  26:data.c        ****     
  27:data.c        ****     // Circular buffer
  28:data.c        ****     // If stack is full, loop around and rewrite over the first point.
  29:data.c        ****     // Keep datPointsInStackDesired increasing to track total number of desired points.
  30:data.c        ****     // Both reset to zero once buffer is flushed ( see Clear_Data_Stack() ).
  31:data.c        ****     
  32:data.c        ****     if(dataPointsInStack >= DATA_MAX_VALUES){    
 134              		.loc 1 32 0
 135 0072 0A4B     		ldr	r3, .L4
ARM GAS  C:\Users\dantz\AppData\Local\Temp\ccguT6UF.s 			page 4


 136 0074 1B88     		ldrh	r3, [r3]
 137 0076 952B     		cmp	r3, #149
 138 0078 0BD9     		bls	.L2
  33:data.c        ****         dataPointsInStack = 0;
 139              		.loc 1 33 0
 140 007a 084B     		ldr	r3, .L4
 141 007c 0022     		movs	r2, #0
 142 007e 1A80     		strh	r2, [r3]	@ movhi
  34:data.c        ****         buffer_overflow = true;
 143              		.loc 1 34 0
 144 0080 0A4B     		ldr	r3, .L4+16
 145 0082 0122     		movs	r2, #1
 146 0084 1A70     		strb	r2, [r3]
  35:data.c        ****         printNotif(NOTIF_TYPE_ERROR,"Data stack full. Begin overwrite of circular buffer.");
 147              		.loc 1 35 0
 148 0086 0A49     		ldr	r1, .L4+20
 149 0088 0220     		movs	r0, #2
 150 008a FFF7FEFF 		bl	printNotif
  36:data.c        ****         return 0; // If stack full, and points need to be deleted, return 0 
 151              		.loc 1 36 0
 152 008e 0023     		movs	r3, #0
 153 0090 00E0     		b	.L3
 154              	.L2:
  37:data.c        ****     }
  38:data.c        ****     
  39:data.c        ****     return 1; // If data pushed succesfully, return 1
 155              		.loc 1 39 0
 156 0092 0123     		movs	r3, #1
 157              	.L3:
  40:data.c        ****     
  41:data.c        **** }
 158              		.loc 1 41 0
 159 0094 1846     		mov	r0, r3
 160 0096 1037     		adds	r7, r7, #16
 161              		.cfi_def_cfa_offset 8
 162 0098 BD46     		mov	sp, r7
 163              		.cfi_def_cfa_register 13
 164              		@ sp needed
 165 009a 80BD     		pop	{r7, pc}
 166              	.L5:
 167              		.align	2
 168              	.L4:
 169 009c 00000000 		.word	dataPointsInStack
 170 00a0 00000000 		.word	data
 171 00a4 00000000 		.word	.LC0
 172 00a8 00000000 		.word	dataPointsInStackDesired
 173 00ac 00000000 		.word	buffer_overflow
 174 00b0 04000000 		.word	.LC1
 175              		.cfi_endproc
 176              	.LFE64:
 177              		.size	pushData, .-pushData
 178              		.section	.text.Initialize_Data_Stack,"ax",%progbits
 179              		.align	2
 180              		.global	Initialize_Data_Stack
 181              		.thumb
 182              		.thumb_func
 183              		.type	Initialize_Data_Stack, %function
ARM GAS  C:\Users\dantz\AppData\Local\Temp\ccguT6UF.s 			page 5


 184              	Initialize_Data_Stack:
 185              	.LFB65:
  42:data.c        **** 
  43:data.c        **** // Initalize Data Stack -- sets counter and pointer to zero
  44:data.c        **** void Initialize_Data_Stack(){
 186              		.loc 1 44 0
 187              		.cfi_startproc
 188              		@ args = 0, pretend = 0, frame = 0
 189              		@ frame_needed = 1, uses_anonymous_args = 0
 190 0000 80B5     		push	{r7, lr}
 191              		.cfi_def_cfa_offset 8
 192              		.cfi_offset 7, -8
 193              		.cfi_offset 14, -4
 194 0002 00AF     		add	r7, sp, #0
 195              		.cfi_def_cfa_register 7
  45:data.c        ****     Clear_Data_Stack(); // Clear out whatever data was in the stack.
 196              		.loc 1 45 0
 197 0004 FFF7FEFF 		bl	Clear_Data_Stack
  46:data.c        **** }
 198              		.loc 1 46 0
 199 0008 00BF     		nop
 200 000a 80BD     		pop	{r7, pc}
 201              		.cfi_endproc
 202              	.LFE65:
 203              		.size	Initialize_Data_Stack, .-Initialize_Data_Stack
 204              		.section	.text.Clear_Data_Stack,"ax",%progbits
 205              		.align	2
 206              		.global	Clear_Data_Stack
 207              		.thumb
 208              		.thumb_func
 209              		.type	Clear_Data_Stack, %function
 210              	Clear_Data_Stack:
 211              	.LFB66:
  47:data.c        **** 
  48:data.c        **** // Clear the data stack
  49:data.c        **** void Clear_Data_Stack(){
 212              		.loc 1 49 0
 213              		.cfi_startproc
 214              		@ args = 0, pretend = 0, frame = 8
 215              		@ frame_needed = 1, uses_anonymous_args = 0
 216              		@ link register save eliminated.
 217 0000 80B4     		push	{r7}
 218              		.cfi_def_cfa_offset 4
 219              		.cfi_offset 7, -4
 220 0002 83B0     		sub	sp, sp, #12
 221              		.cfi_def_cfa_offset 16
 222 0004 00AF     		add	r7, sp, #0
 223              		.cfi_def_cfa_register 7
 224              	.LBB2:
  50:data.c        ****     for(uint16 i;i<DATA_MAX_VALUES;i++){
 225              		.loc 1 50 0
 226 0006 1CE0     		b	.L8
 227              	.L9:
  51:data.c        ****         data[i].key[0] = '\0';
 228              		.loc 1 51 0 discriminator 2
 229 0008 FB88     		ldrh	r3, [r7, #6]
 230 000a 164A     		ldr	r2, .L10
ARM GAS  C:\Users\dantz\AppData\Local\Temp\ccguT6UF.s 			page 6


 231 000c 2C21     		movs	r1, #44
 232 000e 01FB03F3 		mul	r3, r1, r3
 233 0012 1344     		add	r3, r3, r2
 234 0014 0022     		movs	r2, #0
 235 0016 1A70     		strb	r2, [r3]
  52:data.c        ****         data[i].value[0] = '\0';
 236              		.loc 1 52 0 discriminator 2
 237 0018 FB88     		ldrh	r3, [r7, #6]
 238 001a 124A     		ldr	r2, .L10
 239 001c 2C21     		movs	r1, #44
 240 001e 01FB03F3 		mul	r3, r1, r3
 241 0022 1344     		add	r3, r3, r2
 242 0024 1433     		adds	r3, r3, #20
 243 0026 0022     		movs	r2, #0
 244 0028 1A70     		strb	r2, [r3]
  53:data.c        ****         data[i].timeStamp = 0;
 245              		.loc 1 53 0 discriminator 2
 246 002a FB88     		ldrh	r3, [r7, #6]
 247 002c 0D4A     		ldr	r2, .L10
 248 002e 2C21     		movs	r1, #44
 249 0030 01FB03F3 		mul	r3, r1, r3
 250 0034 1344     		add	r3, r3, r2
 251 0036 2833     		adds	r3, r3, #40
 252 0038 0022     		movs	r2, #0
 253 003a 1A60     		str	r2, [r3]
  50:data.c        ****         data[i].key[0] = '\0';
 254              		.loc 1 50 0 discriminator 2
 255 003c FB88     		ldrh	r3, [r7, #6]
 256 003e 0133     		adds	r3, r3, #1
 257 0040 FB80     		strh	r3, [r7, #6]	@ movhi
 258              	.L8:
  50:data.c        ****         data[i].key[0] = '\0';
 259              		.loc 1 50 0 is_stmt 0 discriminator 1
 260 0042 FB88     		ldrh	r3, [r7, #6]
 261 0044 952B     		cmp	r3, #149
 262 0046 DFD9     		bls	.L9
 263              	.LBE2:
  54:data.c        ****     }
  55:data.c        ****     dataPointsInStack = 0;
 264              		.loc 1 55 0 is_stmt 1
 265 0048 074B     		ldr	r3, .L10+4
 266 004a 0022     		movs	r2, #0
 267 004c 1A80     		strh	r2, [r3]	@ movhi
  56:data.c        ****     dataPointsInStackDesired = 0;
 268              		.loc 1 56 0
 269 004e 074B     		ldr	r3, .L10+8
 270 0050 0022     		movs	r2, #0
 271 0052 1A80     		strh	r2, [r3]	@ movhi
  57:data.c        ****     buffer_overflow = false;
 272              		.loc 1 57 0
 273 0054 064B     		ldr	r3, .L10+12
 274 0056 0022     		movs	r2, #0
 275 0058 1A70     		strb	r2, [r3]
  58:data.c        ****    
  59:data.c        **** }
 276              		.loc 1 59 0
 277 005a 00BF     		nop
ARM GAS  C:\Users\dantz\AppData\Local\Temp\ccguT6UF.s 			page 7


 278 005c 0C37     		adds	r7, r7, #12
 279              		.cfi_def_cfa_offset 4
 280 005e BD46     		mov	sp, r7
 281              		.cfi_def_cfa_register 13
 282              		@ sp needed
 283 0060 80BC     		pop	{r7}
 284              		.cfi_restore 7
 285              		.cfi_def_cfa_offset 0
 286 0062 7047     		bx	lr
 287              	.L11:
 288              		.align	2
 289              	.L10:
 290 0064 00000000 		.word	data
 291 0068 00000000 		.word	dataPointsInStack
 292 006c 00000000 		.word	dataPointsInStackDesired
 293 0070 00000000 		.word	buffer_overflow
 294              		.cfi_endproc
 295              	.LFE66:
 296              		.size	Clear_Data_Stack, .-Clear_Data_Stack
 297              		.section	.text.sizeOfDataStackDesired,"ax",%progbits
 298              		.align	2
 299              		.global	sizeOfDataStackDesired
 300              		.thumb
 301              		.thumb_func
 302              		.type	sizeOfDataStackDesired, %function
 303              	sizeOfDataStackDesired:
 304              	.LFB67:
  60:data.c        **** 
  61:data.c        **** // Return the desired number of points in the stack
  62:data.c        **** uint16 sizeOfDataStackDesired(){
 305              		.loc 1 62 0
 306              		.cfi_startproc
 307              		@ args = 0, pretend = 0, frame = 0
 308              		@ frame_needed = 1, uses_anonymous_args = 0
 309              		@ link register save eliminated.
 310 0000 80B4     		push	{r7}
 311              		.cfi_def_cfa_offset 4
 312              		.cfi_offset 7, -4
 313 0002 00AF     		add	r7, sp, #0
 314              		.cfi_def_cfa_register 7
  63:data.c        ****     return dataPointsInStackDesired;
 315              		.loc 1 63 0
 316 0004 024B     		ldr	r3, .L14
 317 0006 1B88     		ldrh	r3, [r3]
  64:data.c        **** }
 318              		.loc 1 64 0
 319 0008 1846     		mov	r0, r3
 320 000a BD46     		mov	sp, r7
 321              		.cfi_def_cfa_register 13
 322              		@ sp needed
 323 000c 80BC     		pop	{r7}
 324              		.cfi_restore 7
 325              		.cfi_def_cfa_offset 0
 326 000e 7047     		bx	lr
 327              	.L15:
 328              		.align	2
 329              	.L14:
ARM GAS  C:\Users\dantz\AppData\Local\Temp\ccguT6UF.s 			page 8


 330 0010 00000000 		.word	dataPointsInStackDesired
 331              		.cfi_endproc
 332              	.LFE67:
 333              		.size	sizeOfDataStackDesired, .-sizeOfDataStackDesired
 334              		.section	.text.sizeOfDataStack,"ax",%progbits
 335              		.align	2
 336              		.global	sizeOfDataStack
 337              		.thumb
 338              		.thumb_func
 339              		.type	sizeOfDataStack, %function
 340              	sizeOfDataStack:
 341              	.LFB68:
  65:data.c        **** 
  66:data.c        **** // Return the actual number of points in the stack 
  67:data.c        **** uint16 sizeOfDataStack(){
 342              		.loc 1 67 0
 343              		.cfi_startproc
 344              		@ args = 0, pretend = 0, frame = 0
 345              		@ frame_needed = 1, uses_anonymous_args = 0
 346              		@ link register save eliminated.
 347 0000 80B4     		push	{r7}
 348              		.cfi_def_cfa_offset 4
 349              		.cfi_offset 7, -4
 350 0002 00AF     		add	r7, sp, #0
 351              		.cfi_def_cfa_register 7
  68:data.c        ****     return dataPointsInStack;
 352              		.loc 1 68 0
 353 0004 024B     		ldr	r3, .L18
 354 0006 1B88     		ldrh	r3, [r3]
  69:data.c        **** }
 355              		.loc 1 69 0
 356 0008 1846     		mov	r0, r3
 357 000a BD46     		mov	sp, r7
 358              		.cfi_def_cfa_register 13
 359              		@ sp needed
 360 000c 80BC     		pop	{r7}
 361              		.cfi_restore 7
 362              		.cfi_def_cfa_offset 0
 363 000e 7047     		bx	lr
 364              	.L19:
 365              		.align	2
 366              	.L18:
 367 0010 00000000 		.word	dataPointsInStack
 368              		.cfi_endproc
 369              	.LFE68:
 370              		.size	sizeOfDataStack, .-sizeOfDataStack
 371              		.section	.rodata
 372 0039 000000   		.align	2
 373              	.LC2:
 374 003c 2573202F 		.ascii	"%s /%s HTTP/%s\015\012\000"
 374      25732048 
 374      5454502F 
 374      25730D0A 
 374      00
 375 004d 000000   		.align	2
 376              	.LC3:
 377 0050 25732573 		.ascii	"%s%s%s%s%d%s%s%s%s\000"
ARM GAS  C:\Users\dantz\AppData\Local\Temp\ccguT6UF.s 			page 9


 377      25732573 
 377      25642573 
 377      25732573 
 377      257300
 378 0063 00       		.align	2
 379              	.LC4:
 380 0064 0D0A00   		.ascii	"\015\012\000"
 381 0067 00       		.align	2
 382              	.LC5:
 383 0068 436F6E6E 		.ascii	"Connection: \000"
 383      65637469 
 383      6F6E3A20 
 383      00
 384 0075 000000   		.align	2
 385              	.LC6:
 386 0078 3A00     		.ascii	":\000"
 387 007a 0000     		.align	2
 388              	.LC7:
 389 007c 486F7374 		.ascii	"Host: \000"
 389      3A2000
 390 0083 00       		.align	2
 391              	.LC8:
 392 0084 25732573 		.ascii	"%s%s\000"
 392      00
 393 0089 000000   		.align	2
 394              	.LC9:
 395 008c 47455400 		.ascii	"GET\000"
 396              		.align	2
 397              	.LC10:
 398 0090 25732573 		.ascii	"%s%s%s%d%s\000"
 398      25732564 
 398      257300
 399 009b 00       		.align	2
 400              	.LC11:
 401 009c 0D0A0D0A 		.ascii	"\015\012\015\012\000"
 401      00
 402 00a1 000000   		.align	2
 403              	.LC12:
 404 00a4 436F6E74 		.ascii	"Content-Length: \000"
 404      656E742D 
 404      4C656E67 
 404      74683A20 
 404      00
 405 00b5 000000   		.align	2
 406              	.LC13:
 407 00b8 436F6E74 		.ascii	"Content-Type: text/plain\015\012\000"
 407      656E742D 
 407      54797065 
 407      3A207465 
 407      78742F70 
 408 00d3 00       		.align	2
 409              	.LC14:
 410 00d4 25732573 		.ascii	"%s%s\015\012\000"
 410      0D0A00
 411              		.section	.text.construct_generic_HTTP_request,"ax",%progbits
 412              		.align	2
 413              		.global	construct_generic_HTTP_request
ARM GAS  C:\Users\dantz\AppData\Local\Temp\ccguT6UF.s 			page 10


 414              		.thumb
 415              		.thumb_func
 416              		.type	construct_generic_HTTP_request, %function
 417              	construct_generic_HTTP_request:
 418              	.LFB69:
  70:data.c        **** 
  71:data.c        **** // This function could really use a test
  72:data.c        **** void construct_generic_HTTP_request(char* request, char* body, char* host, char* route,
  73:data.c        ****                                int port, char* method, char* connection_type,
  74:data.c        **** 	                           char *extra_headers, int extra_len, char* http_protocol){
 419              		.loc 1 74 0
 420              		.cfi_startproc
 421              		@ args = 24, pretend = 0, frame = 16
 422              		@ frame_needed = 1, uses_anonymous_args = 0
 423 0000 80B5     		push	{r7, lr}
 424              		.cfi_def_cfa_offset 8
 425              		.cfi_offset 7, -8
 426              		.cfi_offset 14, -4
 427 0002 8CB0     		sub	sp, sp, #48
 428              		.cfi_def_cfa_offset 56
 429 0004 08AF     		add	r7, sp, #32
 430              		.cfi_def_cfa 7, 24
 431 0006 F860     		str	r0, [r7, #12]
 432 0008 B960     		str	r1, [r7, #8]
 433 000a 7A60     		str	r2, [r7, #4]
 434 000c 3B60     		str	r3, [r7]
  75:data.c        **** 
  76:data.c        ****     snprintf(request,sizeof(http_request),"%s /%s HTTP/%s\r\n", method, route, http_protocol);
 435              		.loc 1 76 0
 436 000e FB6A     		ldr	r3, [r7, #44]
 437 0010 0193     		str	r3, [sp, #4]
 438 0012 3B68     		ldr	r3, [r7]
 439 0014 0093     		str	r3, [sp]
 440 0016 FB69     		ldr	r3, [r7, #28]
 441 0018 2A4A     		ldr	r2, .L23
 442 001a 42F21071 		movw	r1, #10000
 443 001e F868     		ldr	r0, [r7, #12]
 444 0020 FFF7FEFF 		bl	snprintf
  77:data.c        ****     snprintf(request,sizeof(http_request),"%s%s%s%s%d%s%s%s%s",
 445              		.loc 1 77 0
 446 0024 284B     		ldr	r3, .L23+4
 447 0026 0793     		str	r3, [sp, #28]
 448 0028 3B6A     		ldr	r3, [r7, #32]
 449 002a 0693     		str	r3, [sp, #24]
 450 002c 274B     		ldr	r3, .L23+8
 451 002e 0593     		str	r3, [sp, #20]
 452 0030 254B     		ldr	r3, .L23+4
 453 0032 0493     		str	r3, [sp, #16]
 454 0034 BB69     		ldr	r3, [r7, #24]
 455 0036 0393     		str	r3, [sp, #12]
 456 0038 254B     		ldr	r3, .L23+12
 457 003a 0293     		str	r3, [sp, #8]
 458 003c 7B68     		ldr	r3, [r7, #4]
 459 003e 0193     		str	r3, [sp, #4]
 460 0040 244B     		ldr	r3, .L23+16
 461 0042 0093     		str	r3, [sp]
 462 0044 FB68     		ldr	r3, [r7, #12]
ARM GAS  C:\Users\dantz\AppData\Local\Temp\ccguT6UF.s 			page 11


 463 0046 244A     		ldr	r2, .L23+20
 464 0048 42F21071 		movw	r1, #10000
 465 004c F868     		ldr	r0, [r7, #12]
 466 004e FFF7FEFF 		bl	snprintf
  78:data.c        ****             request, // 1
  79:data.c        ****             "Host: ", host, ":", port, "\r\n", // 2 3 4 5 6
  80:data.c        ****             "Connection: ", connection_type, "\r\n"); // 7 8 9
  81:data.c        **** 	if (extra_headers && strlen(extra_headers) > 0){
 467              		.loc 1 81 0
 468 0052 7B6A     		ldr	r3, [r7, #36]
 469 0054 002B     		cmp	r3, #0
 470 0056 0CD0     		beq	.L21
 471              		.loc 1 81 0 is_stmt 0 discriminator 1
 472 0058 7B6A     		ldr	r3, [r7, #36]
 473 005a 1B78     		ldrb	r3, [r3]	@ zero_extendqisi2
 474 005c 002B     		cmp	r3, #0
 475 005e 08D0     		beq	.L21
  82:data.c        **** 		snprintf(request,sizeof(http_request), "%s%s", request, extra_headers);
 476              		.loc 1 82 0 is_stmt 1
 477 0060 7B6A     		ldr	r3, [r7, #36]
 478 0062 0093     		str	r3, [sp]
 479 0064 FB68     		ldr	r3, [r7, #12]
 480 0066 1D4A     		ldr	r2, .L23+24
 481 0068 42F21071 		movw	r1, #10000
 482 006c F868     		ldr	r0, [r7, #12]
 483 006e FFF7FEFF 		bl	snprintf
 484              	.L21:
  83:data.c        **** 	}
  84:data.c        **** 	if (strcmp(method, "GET") != 0){
 485              		.loc 1 84 0
 486 0072 1B49     		ldr	r1, .L23+28
 487 0074 F869     		ldr	r0, [r7, #28]
 488 0076 FFF7FEFF 		bl	strcmp
 489 007a 0346     		mov	r3, r0
 490 007c 002B     		cmp	r3, #0
 491 007e 13D0     		beq	.L22
  85:data.c        **** 		snprintf(request,sizeof(http_request), "%s%s%s%d%s",
  86:data.c        **** 			request,
  87:data.c        ****             "Content-Type: text/plain\r\n", // 10
  88:data.c        ****             "Content-Length: ", (extra_len + strlen(body)), //11 12 (Extra len should be 2 for flas
 492              		.loc 1 88 0
 493 0080 B868     		ldr	r0, [r7, #8]
 494 0082 FFF7FEFF 		bl	strlen
 495 0086 0246     		mov	r2, r0
  85:data.c        **** 		snprintf(request,sizeof(http_request), "%s%s%s%d%s",
 496              		.loc 1 85 0
 497 0088 BB6A     		ldr	r3, [r7, #40]
 498 008a 1344     		add	r3, r3, r2
 499 008c 154A     		ldr	r2, .L23+32
 500 008e 0392     		str	r2, [sp, #12]
 501 0090 0293     		str	r3, [sp, #8]
 502 0092 154B     		ldr	r3, .L23+36
 503 0094 0193     		str	r3, [sp, #4]
 504 0096 154B     		ldr	r3, .L23+40
 505 0098 0093     		str	r3, [sp]
 506 009a FB68     		ldr	r3, [r7, #12]
 507 009c 144A     		ldr	r2, .L23+44
ARM GAS  C:\Users\dantz\AppData\Local\Temp\ccguT6UF.s 			page 12


 508 009e 42F21071 		movw	r1, #10000
 509 00a2 F868     		ldr	r0, [r7, #12]
 510 00a4 FFF7FEFF 		bl	snprintf
 511              	.L22:
  89:data.c        ****             "\r\n\r\n"); // 13 14 15
  90:data.c        **** 	}
  91:data.c        **** 	snprintf(request,sizeof(http_request), "%s%s\r\n", request, body); 
 512              		.loc 1 91 0
 513 00a8 BB68     		ldr	r3, [r7, #8]
 514 00aa 0093     		str	r3, [sp]
 515 00ac FB68     		ldr	r3, [r7, #12]
 516 00ae 114A     		ldr	r2, .L23+48
 517 00b0 42F21071 		movw	r1, #10000
 518 00b4 F868     		ldr	r0, [r7, #12]
 519 00b6 FFF7FEFF 		bl	snprintf
  92:data.c        ****     
  93:data.c        **** }
 520              		.loc 1 93 0
 521 00ba 00BF     		nop
 522 00bc 1037     		adds	r7, r7, #16
 523              		.cfi_def_cfa_offset 8
 524 00be BD46     		mov	sp, r7
 525              		.cfi_def_cfa_register 13
 526              		@ sp needed
 527 00c0 80BD     		pop	{r7, pc}
 528              	.L24:
 529 00c2 00BF     		.align	2
 530              	.L23:
 531 00c4 3C000000 		.word	.LC2
 532 00c8 64000000 		.word	.LC4
 533 00cc 68000000 		.word	.LC5
 534 00d0 78000000 		.word	.LC6
 535 00d4 7C000000 		.word	.LC7
 536 00d8 50000000 		.word	.LC3
 537 00dc 84000000 		.word	.LC8
 538 00e0 8C000000 		.word	.LC9
 539 00e4 9C000000 		.word	.LC11
 540 00e8 A4000000 		.word	.LC12
 541 00ec B8000000 		.word	.LC13
 542 00f0 90000000 		.word	.LC10
 543 00f4 D4000000 		.word	.LC14
 544              		.cfi_endproc
 545              	.LFE69:
 546              		.size	construct_generic_HTTP_request, .-construct_generic_HTTP_request
 547              		.section	.rodata
 548 00db 00       		.align	2
 549              	.LC15:
 550 00dc 25732573 		.ascii	"%s%s, value=%s %ld000000000\012\000"
 550      2C207661 
 550      6C75653D 
 550      25732025 
 550      6C643030 
 551              		.section	.text.construct_malcom_body,"ax",%progbits
 552              		.align	2
 553              		.global	construct_malcom_body
 554              		.thumb
 555              		.thumb_func
ARM GAS  C:\Users\dantz\AppData\Local\Temp\ccguT6UF.s 			page 13


 556              		.type	construct_malcom_body, %function
 557              	construct_malcom_body:
 558              	.LFB70:
  94:data.c        ****                             
  95:data.c        **** // Construct middle layer called Malcom (aka Malcom in the Middle)                                 
  96:data.c        **** unsigned int construct_malcom_body(char* body){
 559              		.loc 1 96 0
 560              		.cfi_startproc
 561              		@ args = 0, pretend = 0, frame = 16
 562              		@ frame_needed = 1, uses_anonymous_args = 0
 563 0000 90B5     		push	{r4, r7, lr}
 564              		.cfi_def_cfa_offset 12
 565              		.cfi_offset 4, -12
 566              		.cfi_offset 7, -8
 567              		.cfi_offset 14, -4
 568 0002 89B0     		sub	sp, sp, #36
 569              		.cfi_def_cfa_offset 48
 570 0004 04AF     		add	r7, sp, #16
 571              		.cfi_def_cfa 7, 32
 572 0006 7860     		str	r0, [r7, #4]
  97:data.c        ****    
  98:data.c        ****     body[0] = '\0';
 573              		.loc 1 98 0
 574 0008 7B68     		ldr	r3, [r7, #4]
 575 000a 0022     		movs	r2, #0
 576 000c 1A70     		strb	r2, [r3]
  99:data.c        ****     
 100:data.c        ****     // Construct influx body
 101:data.c        ****     // if the buffer didn't overflow, send however many data points we have in the buffer
 102:data.c        ****     if (buffer_overflow == false){
 577              		.loc 1 102 0
 578 000e 334B     		ldr	r3, .L33
 579 0010 1B78     		ldrb	r3, [r3]	@ zero_extendqisi2
 580 0012 83F00103 		eor	r3, r3, #1
 581 0016 DBB2     		uxtb	r3, r3
 582 0018 002B     		cmp	r3, #0
 583 001a 2DD0     		beq	.L26
 584              	.LBB3:
 103:data.c        ****         for(uint16 i = 0;i < sizeOfDataStack();i++){
 585              		.loc 1 103 0
 586 001c 0023     		movs	r3, #0
 587 001e FB81     		strh	r3, [r7, #14]	@ movhi
 588 0020 22E0     		b	.L27
 589              	.L28:
 104:data.c        ****             // Note that influx uses a timestamp in nano-seconds, so we have to add 9 zeros
 105:data.c        ****             snprintf(body,sizeof(http_body), "%s%s, value=%s %ld000000000\n", body, data[i].key, da
 590              		.loc 1 105 0 discriminator 3
 591 0022 FB89     		ldrh	r3, [r7, #14]
 592 0024 2C22     		movs	r2, #44
 593 0026 02FB03F3 		mul	r3, r2, r3
 594 002a 2D4A     		ldr	r2, .L33+4
 595 002c 1344     		add	r3, r3, r2
 596 002e FA89     		ldrh	r2, [r7, #14]
 597 0030 2C21     		movs	r1, #44
 598 0032 01FB02F2 		mul	r2, r1, r2
 599 0036 1032     		adds	r2, r2, #16
 600 0038 2949     		ldr	r1, .L33+4
ARM GAS  C:\Users\dantz\AppData\Local\Temp\ccguT6UF.s 			page 14


 601 003a 0A44     		add	r2, r2, r1
 602 003c 0432     		adds	r2, r2, #4
 603 003e F989     		ldrh	r1, [r7, #14]
 604 0040 2748     		ldr	r0, .L33+4
 605 0042 2C24     		movs	r4, #44
 606 0044 04FB01F1 		mul	r1, r4, r1
 607 0048 0144     		add	r1, r1, r0
 608 004a 2831     		adds	r1, r1, #40
 609 004c 0968     		ldr	r1, [r1]
 610 004e 0291     		str	r1, [sp, #8]
 611 0050 0192     		str	r2, [sp, #4]
 612 0052 0093     		str	r3, [sp]
 613 0054 7B68     		ldr	r3, [r7, #4]
 614 0056 234A     		ldr	r2, .L33+8
 615 0058 42F21071 		movw	r1, #10000
 616 005c 7868     		ldr	r0, [r7, #4]
 617 005e FFF7FEFF 		bl	snprintf
 103:data.c        ****         for(uint16 i = 0;i < sizeOfDataStack();i++){
 618              		.loc 1 103 0 discriminator 3
 619 0062 FB89     		ldrh	r3, [r7, #14]
 620 0064 0133     		adds	r3, r3, #1
 621 0066 FB81     		strh	r3, [r7, #14]	@ movhi
 622              	.L27:
 103:data.c        ****         for(uint16 i = 0;i < sizeOfDataStack();i++){
 623              		.loc 1 103 0 is_stmt 0 discriminator 1
 624 0068 FFF7FEFF 		bl	sizeOfDataStack
 625 006c 0346     		mov	r3, r0
 626 006e 1A46     		mov	r2, r3
 627 0070 FB89     		ldrh	r3, [r7, #14]
 628 0072 9342     		cmp	r3, r2
 629 0074 D5D3     		bcc	.L28
 630 0076 28E0     		b	.L29
 631              	.L26:
 632              	.LBE3:
 633              	.LBB4:
 106:data.c        ****         }
 107:data.c        ****     }else{
 108:data.c        ****         // if buffer did overflow, then send the max number of values allowed in the buffer
 109:data.c        ****         for(uint16 i = 0;i < DATA_MAX_VALUES;i++){
 634              		.loc 1 109 0 is_stmt 1
 635 0078 0023     		movs	r3, #0
 636 007a BB81     		strh	r3, [r7, #12]	@ movhi
 637 007c 22E0     		b	.L30
 638              	.L31:
 110:data.c        ****             // Note that influx uses a timestamp in nano-seconds, so we have to add 9 zeros
 111:data.c        ****             snprintf(body,sizeof(http_body), "%s%s, value=%s %ld000000000\n", body, data[i].key, da
 639              		.loc 1 111 0 discriminator 3
 640 007e BB89     		ldrh	r3, [r7, #12]
 641 0080 2C22     		movs	r2, #44
 642 0082 02FB03F3 		mul	r3, r2, r3
 643 0086 164A     		ldr	r2, .L33+4
 644 0088 1344     		add	r3, r3, r2
 645 008a BA89     		ldrh	r2, [r7, #12]
 646 008c 2C21     		movs	r1, #44
 647 008e 01FB02F2 		mul	r2, r1, r2
 648 0092 1032     		adds	r2, r2, #16
 649 0094 1249     		ldr	r1, .L33+4
ARM GAS  C:\Users\dantz\AppData\Local\Temp\ccguT6UF.s 			page 15


 650 0096 0A44     		add	r2, r2, r1
 651 0098 0432     		adds	r2, r2, #4
 652 009a B989     		ldrh	r1, [r7, #12]
 653 009c 1048     		ldr	r0, .L33+4
 654 009e 2C24     		movs	r4, #44
 655 00a0 04FB01F1 		mul	r1, r4, r1
 656 00a4 0144     		add	r1, r1, r0
 657 00a6 2831     		adds	r1, r1, #40
 658 00a8 0968     		ldr	r1, [r1]
 659 00aa 0291     		str	r1, [sp, #8]
 660 00ac 0192     		str	r2, [sp, #4]
 661 00ae 0093     		str	r3, [sp]
 662 00b0 7B68     		ldr	r3, [r7, #4]
 663 00b2 0C4A     		ldr	r2, .L33+8
 664 00b4 42F21071 		movw	r1, #10000
 665 00b8 7868     		ldr	r0, [r7, #4]
 666 00ba FFF7FEFF 		bl	snprintf
 109:data.c        ****             // Note that influx uses a timestamp in nano-seconds, so we have to add 9 zeros
 667              		.loc 1 109 0 discriminator 3
 668 00be BB89     		ldrh	r3, [r7, #12]
 669 00c0 0133     		adds	r3, r3, #1
 670 00c2 BB81     		strh	r3, [r7, #12]	@ movhi
 671              	.L30:
 109:data.c        ****             // Note that influx uses a timestamp in nano-seconds, so we have to add 9 zeros
 672              		.loc 1 109 0 is_stmt 0 discriminator 1
 673 00c4 BB89     		ldrh	r3, [r7, #12]
 674 00c6 952B     		cmp	r3, #149
 675 00c8 D9D9     		bls	.L31
 676              	.L29:
 677              	.LBE4:
 112:data.c        ****         }
 113:data.c        ****     }
 114:data.c        ****         
 115:data.c        ****         
 116:data.c        ****     // Get the length of the influx body and save to request_len
 117:data.c        ****     unsigned int request_len = strlen(body);
 678              		.loc 1 117 0 is_stmt 1
 679 00ca 7868     		ldr	r0, [r7, #4]
 680 00cc FFF7FEFF 		bl	strlen
 681 00d0 B860     		str	r0, [r7, #8]
 118:data.c        ****    
 119:data.c        ****     return request_len; // Return the length of the influx body
 682              		.loc 1 119 0
 683 00d2 BB68     		ldr	r3, [r7, #8]
 120:data.c        **** }
 684              		.loc 1 120 0
 685 00d4 1846     		mov	r0, r3
 686 00d6 1437     		adds	r7, r7, #20
 687              		.cfi_def_cfa_offset 12
 688 00d8 BD46     		mov	sp, r7
 689              		.cfi_def_cfa_register 13
 690              		@ sp needed
 691 00da 90BD     		pop	{r4, r7, pc}
 692              	.L34:
 693              		.align	2
 694              	.L33:
 695 00dc 00000000 		.word	buffer_overflow
ARM GAS  C:\Users\dantz\AppData\Local\Temp\ccguT6UF.s 			page 16


 696 00e0 00000000 		.word	data
 697 00e4 DC000000 		.word	.LC15
 698              		.cfi_endproc
 699              	.LFE70:
 700              		.size	construct_malcom_body, .-construct_malcom_body
 701              		.section	.rodata
 702 00f9 000000   		.align	2
 703              	.LC16:
 704 00fc 25732573 		.ascii	"%s%s?d=%s&h=%s\000"
 704      3F643D25 
 704      7326683D 
 704      257300
 705              		.section	.text.construct_malcom_route,"ax",%progbits
 706              		.align	2
 707              		.global	construct_malcom_route
 708              		.thumb
 709              		.thumb_func
 710              		.type	construct_malcom_route, %function
 711              	construct_malcom_route:
 712              	.LFB71:
 121:data.c        **** 
 122:data.c        **** // Construct the route to the Malcom middle layer
 123:data.c        **** void construct_malcom_route(char* route, char* base, char* device, char* hash){
 713              		.loc 1 123 0
 714              		.cfi_startproc
 715              		@ args = 0, pretend = 0, frame = 16
 716              		@ frame_needed = 1, uses_anonymous_args = 0
 717 0000 80B5     		push	{r7, lr}
 718              		.cfi_def_cfa_offset 8
 719              		.cfi_offset 7, -8
 720              		.cfi_offset 14, -4
 721 0002 88B0     		sub	sp, sp, #32
 722              		.cfi_def_cfa_offset 40
 723 0004 04AF     		add	r7, sp, #16
 724              		.cfi_def_cfa 7, 24
 725 0006 F860     		str	r0, [r7, #12]
 726 0008 B960     		str	r1, [r7, #8]
 727 000a 7A60     		str	r2, [r7, #4]
 728 000c 3B60     		str	r3, [r7]
 124:data.c        ****     route[0] = '\0';
 729              		.loc 1 124 0
 730 000e FB68     		ldr	r3, [r7, #12]
 731 0010 0022     		movs	r2, #0
 732 0012 1A70     		strb	r2, [r3]
 125:data.c        ****     snprintf(route,sizeof(http_route), "%s%s?d=%s&h=%s", route, base, device, hash); 
 733              		.loc 1 125 0
 734 0014 3B68     		ldr	r3, [r7]
 735 0016 0293     		str	r3, [sp, #8]
 736 0018 7B68     		ldr	r3, [r7, #4]
 737 001a 0193     		str	r3, [sp, #4]
 738 001c BB68     		ldr	r3, [r7, #8]
 739 001e 0093     		str	r3, [sp]
 740 0020 FB68     		ldr	r3, [r7, #12]
 741 0022 044A     		ldr	r2, .L36
 742 0024 C821     		movs	r1, #200
 743 0026 F868     		ldr	r0, [r7, #12]
 744 0028 FFF7FEFF 		bl	snprintf
ARM GAS  C:\Users\dantz\AppData\Local\Temp\ccguT6UF.s 			page 17


 126:data.c        **** }
 745              		.loc 1 126 0
 746 002c 00BF     		nop
 747 002e 1037     		adds	r7, r7, #16
 748              		.cfi_def_cfa_offset 8
 749 0030 BD46     		mov	sp, r7
 750              		.cfi_def_cfa_register 13
 751              		@ sp needed
 752 0032 80BD     		pop	{r7, pc}
 753              	.L37:
 754              		.align	2
 755              	.L36:
 756 0034 FC000000 		.word	.LC16
 757              		.cfi_endproc
 758              	.LFE71:
 759              		.size	construct_malcom_route, .-construct_malcom_route
 760              		.text
 761              	.Letext0:
 762              		.file 2 "c:\\program files (x86)\\cypress\\psoc creator\\4.2\\psoc creator\\import\\gnu\\arm\\5.4.
 763              		.file 3 "c:\\program files (x86)\\cypress\\psoc creator\\4.2\\psoc creator\\import\\gnu\\arm\\5.4.
 764              		.file 4 "Generated_Source\\PSoC5/cytypes.h"
 765              		.file 5 "modem.h"
 766              		.file 6 "data.h"
 767              		.file 7 "notoriOS.h"
 768              		.file 8 "Generated_Source\\PSoC5/core_cm3.h"
 769              		.file 9 "level_sensor.h"
 770              		.file 10 "App_LED.h"