ARM GAS  C:\Users\dantz\AppData\Local\Temp\ccgIUsQg.s 			page 1


   1              		.syntax unified
   2              		.cpu cortex-m3
   3              		.fpu softvfp
   4              		.eabi_attribute 20, 1
   5              		.eabi_attribute 21, 1
   6              		.eabi_attribute 23, 3
   7              		.eabi_attribute 24, 1
   8              		.eabi_attribute 25, 1
   9              		.eabi_attribute 26, 1
  10              		.eabi_attribute 30, 6
  11              		.eabi_attribute 34, 1
  12              		.eabi_attribute 18, 4
  13              		.thumb
  14              		.syntax unified
  15              		.file	"Debug_UART_PM.c"
  16              		.text
  17              	.Ltext0:
  18              		.cfi_sections	.debug_frame
  19              		.bss
  20              		.align	2
  21              	Debug_UART_backup:
  22 0000 00       		.space	1
  23              		.section	.text.Debug_UART_SaveConfig,"ax",%progbits
  24              		.align	2
  25              		.global	Debug_UART_SaveConfig
  26              		.thumb
  27              		.thumb_func
  28              		.type	Debug_UART_SaveConfig, %function
  29              	Debug_UART_SaveConfig:
  30              	.LFB0:
  31              		.file 1 "Generated_Source\\PSoC5\\Debug_UART_PM.c"
   1:Generated_Source\PSoC5/Debug_UART_PM.c **** /*******************************************************************************
   2:Generated_Source\PSoC5/Debug_UART_PM.c **** * File Name: Debug_UART_PM.c
   3:Generated_Source\PSoC5/Debug_UART_PM.c **** * Version 2.50
   4:Generated_Source\PSoC5/Debug_UART_PM.c **** *
   5:Generated_Source\PSoC5/Debug_UART_PM.c **** * Description:
   6:Generated_Source\PSoC5/Debug_UART_PM.c **** *  This file provides Sleep/WakeUp APIs functionality.
   7:Generated_Source\PSoC5/Debug_UART_PM.c **** *
   8:Generated_Source\PSoC5/Debug_UART_PM.c **** * Note:
   9:Generated_Source\PSoC5/Debug_UART_PM.c **** *
  10:Generated_Source\PSoC5/Debug_UART_PM.c **** ********************************************************************************
  11:Generated_Source\PSoC5/Debug_UART_PM.c **** * Copyright 2008-2015, Cypress Semiconductor Corporation.  All rights reserved.
  12:Generated_Source\PSoC5/Debug_UART_PM.c **** * You may use this file only in accordance with the license, terms, conditions,
  13:Generated_Source\PSoC5/Debug_UART_PM.c **** * disclaimers, and limitations in the end user license agreement accompanying
  14:Generated_Source\PSoC5/Debug_UART_PM.c **** * the software package with which this file was provided.
  15:Generated_Source\PSoC5/Debug_UART_PM.c **** *******************************************************************************/
  16:Generated_Source\PSoC5/Debug_UART_PM.c **** 
  17:Generated_Source\PSoC5/Debug_UART_PM.c **** #include "Debug_UART.h"
  18:Generated_Source\PSoC5/Debug_UART_PM.c **** 
  19:Generated_Source\PSoC5/Debug_UART_PM.c **** 
  20:Generated_Source\PSoC5/Debug_UART_PM.c **** /***************************************
  21:Generated_Source\PSoC5/Debug_UART_PM.c **** * Local data allocation
  22:Generated_Source\PSoC5/Debug_UART_PM.c **** ***************************************/
  23:Generated_Source\PSoC5/Debug_UART_PM.c **** 
  24:Generated_Source\PSoC5/Debug_UART_PM.c **** static Debug_UART_BACKUP_STRUCT  Debug_UART_backup =
  25:Generated_Source\PSoC5/Debug_UART_PM.c **** {
  26:Generated_Source\PSoC5/Debug_UART_PM.c ****     /* enableState - disabled */
ARM GAS  C:\Users\dantz\AppData\Local\Temp\ccgIUsQg.s 			page 2


  27:Generated_Source\PSoC5/Debug_UART_PM.c ****     0u,
  28:Generated_Source\PSoC5/Debug_UART_PM.c **** };
  29:Generated_Source\PSoC5/Debug_UART_PM.c **** 
  30:Generated_Source\PSoC5/Debug_UART_PM.c **** 
  31:Generated_Source\PSoC5/Debug_UART_PM.c **** 
  32:Generated_Source\PSoC5/Debug_UART_PM.c **** /*******************************************************************************
  33:Generated_Source\PSoC5/Debug_UART_PM.c **** * Function Name: Debug_UART_SaveConfig
  34:Generated_Source\PSoC5/Debug_UART_PM.c **** ********************************************************************************
  35:Generated_Source\PSoC5/Debug_UART_PM.c **** *
  36:Generated_Source\PSoC5/Debug_UART_PM.c **** * Summary:
  37:Generated_Source\PSoC5/Debug_UART_PM.c **** *  This function saves the component nonretention control register.
  38:Generated_Source\PSoC5/Debug_UART_PM.c **** *  Does not save the FIFO which is a set of nonretention registers.
  39:Generated_Source\PSoC5/Debug_UART_PM.c **** *  This function is called by the Debug_UART_Sleep() function.
  40:Generated_Source\PSoC5/Debug_UART_PM.c **** *
  41:Generated_Source\PSoC5/Debug_UART_PM.c **** * Parameters:
  42:Generated_Source\PSoC5/Debug_UART_PM.c **** *  None.
  43:Generated_Source\PSoC5/Debug_UART_PM.c **** *
  44:Generated_Source\PSoC5/Debug_UART_PM.c **** * Return:
  45:Generated_Source\PSoC5/Debug_UART_PM.c **** *  None.
  46:Generated_Source\PSoC5/Debug_UART_PM.c **** *
  47:Generated_Source\PSoC5/Debug_UART_PM.c **** * Global Variables:
  48:Generated_Source\PSoC5/Debug_UART_PM.c **** *  Debug_UART_backup - modified when non-retention registers are saved.
  49:Generated_Source\PSoC5/Debug_UART_PM.c **** *
  50:Generated_Source\PSoC5/Debug_UART_PM.c **** * Reentrant:
  51:Generated_Source\PSoC5/Debug_UART_PM.c **** *  No.
  52:Generated_Source\PSoC5/Debug_UART_PM.c **** *
  53:Generated_Source\PSoC5/Debug_UART_PM.c **** *******************************************************************************/
  54:Generated_Source\PSoC5/Debug_UART_PM.c **** void Debug_UART_SaveConfig(void)
  55:Generated_Source\PSoC5/Debug_UART_PM.c **** {
  32              		.loc 1 55 0
  33              		.cfi_startproc
  34              		@ args = 0, pretend = 0, frame = 0
  35              		@ frame_needed = 1, uses_anonymous_args = 0
  36              		@ link register save eliminated.
  37 0000 80B4     		push	{r7}
  38              		.cfi_def_cfa_offset 4
  39              		.cfi_offset 7, -4
  40 0002 00AF     		add	r7, sp, #0
  41              		.cfi_def_cfa_register 7
  56:Generated_Source\PSoC5/Debug_UART_PM.c ****     #if(Debug_UART_CONTROL_REG_REMOVED == 0u)
  57:Generated_Source\PSoC5/Debug_UART_PM.c ****         Debug_UART_backup.cr = Debug_UART_CONTROL_REG;
  58:Generated_Source\PSoC5/Debug_UART_PM.c ****     #endif /* End Debug_UART_CONTROL_REG_REMOVED */
  59:Generated_Source\PSoC5/Debug_UART_PM.c **** }
  42              		.loc 1 59 0
  43 0004 00BF     		nop
  44 0006 BD46     		mov	sp, r7
  45              		.cfi_def_cfa_register 13
  46              		@ sp needed
  47 0008 80BC     		pop	{r7}
  48              		.cfi_restore 7
  49              		.cfi_def_cfa_offset 0
  50 000a 7047     		bx	lr
  51              		.cfi_endproc
  52              	.LFE0:
  53              		.size	Debug_UART_SaveConfig, .-Debug_UART_SaveConfig
  54              		.section	.text.Debug_UART_RestoreConfig,"ax",%progbits
  55              		.align	2
ARM GAS  C:\Users\dantz\AppData\Local\Temp\ccgIUsQg.s 			page 3


  56              		.global	Debug_UART_RestoreConfig
  57              		.thumb
  58              		.thumb_func
  59              		.type	Debug_UART_RestoreConfig, %function
  60              	Debug_UART_RestoreConfig:
  61              	.LFB1:
  60:Generated_Source\PSoC5/Debug_UART_PM.c **** 
  61:Generated_Source\PSoC5/Debug_UART_PM.c **** 
  62:Generated_Source\PSoC5/Debug_UART_PM.c **** /*******************************************************************************
  63:Generated_Source\PSoC5/Debug_UART_PM.c **** * Function Name: Debug_UART_RestoreConfig
  64:Generated_Source\PSoC5/Debug_UART_PM.c **** ********************************************************************************
  65:Generated_Source\PSoC5/Debug_UART_PM.c **** *
  66:Generated_Source\PSoC5/Debug_UART_PM.c **** * Summary:
  67:Generated_Source\PSoC5/Debug_UART_PM.c **** *  Restores the nonretention control register except FIFO.
  68:Generated_Source\PSoC5/Debug_UART_PM.c **** *  Does not restore the FIFO which is a set of nonretention registers.
  69:Generated_Source\PSoC5/Debug_UART_PM.c **** *
  70:Generated_Source\PSoC5/Debug_UART_PM.c **** * Parameters:
  71:Generated_Source\PSoC5/Debug_UART_PM.c **** *  None.
  72:Generated_Source\PSoC5/Debug_UART_PM.c **** *
  73:Generated_Source\PSoC5/Debug_UART_PM.c **** * Return:
  74:Generated_Source\PSoC5/Debug_UART_PM.c **** *  None.
  75:Generated_Source\PSoC5/Debug_UART_PM.c **** *
  76:Generated_Source\PSoC5/Debug_UART_PM.c **** * Global Variables:
  77:Generated_Source\PSoC5/Debug_UART_PM.c **** *  Debug_UART_backup - used when non-retention registers are restored.
  78:Generated_Source\PSoC5/Debug_UART_PM.c **** *
  79:Generated_Source\PSoC5/Debug_UART_PM.c **** * Reentrant:
  80:Generated_Source\PSoC5/Debug_UART_PM.c **** *  No.
  81:Generated_Source\PSoC5/Debug_UART_PM.c **** *
  82:Generated_Source\PSoC5/Debug_UART_PM.c **** * Notes:
  83:Generated_Source\PSoC5/Debug_UART_PM.c **** *  If this function is called without calling Debug_UART_SaveConfig() 
  84:Generated_Source\PSoC5/Debug_UART_PM.c **** *  first, the data loaded may be incorrect.
  85:Generated_Source\PSoC5/Debug_UART_PM.c **** *
  86:Generated_Source\PSoC5/Debug_UART_PM.c **** *******************************************************************************/
  87:Generated_Source\PSoC5/Debug_UART_PM.c **** void Debug_UART_RestoreConfig(void)
  88:Generated_Source\PSoC5/Debug_UART_PM.c **** {
  62              		.loc 1 88 0
  63              		.cfi_startproc
  64              		@ args = 0, pretend = 0, frame = 0
  65              		@ frame_needed = 1, uses_anonymous_args = 0
  66              		@ link register save eliminated.
  67 0000 80B4     		push	{r7}
  68              		.cfi_def_cfa_offset 4
  69              		.cfi_offset 7, -4
  70 0002 00AF     		add	r7, sp, #0
  71              		.cfi_def_cfa_register 7
  89:Generated_Source\PSoC5/Debug_UART_PM.c ****     #if(Debug_UART_CONTROL_REG_REMOVED == 0u)
  90:Generated_Source\PSoC5/Debug_UART_PM.c ****         Debug_UART_CONTROL_REG = Debug_UART_backup.cr;
  91:Generated_Source\PSoC5/Debug_UART_PM.c ****     #endif /* End Debug_UART_CONTROL_REG_REMOVED */
  92:Generated_Source\PSoC5/Debug_UART_PM.c **** }
  72              		.loc 1 92 0
  73 0004 00BF     		nop
  74 0006 BD46     		mov	sp, r7
  75              		.cfi_def_cfa_register 13
  76              		@ sp needed
  77 0008 80BC     		pop	{r7}
  78              		.cfi_restore 7
  79              		.cfi_def_cfa_offset 0
ARM GAS  C:\Users\dantz\AppData\Local\Temp\ccgIUsQg.s 			page 4


  80 000a 7047     		bx	lr
  81              		.cfi_endproc
  82              	.LFE1:
  83              		.size	Debug_UART_RestoreConfig, .-Debug_UART_RestoreConfig
  84              		.section	.text.Debug_UART_Sleep,"ax",%progbits
  85              		.align	2
  86              		.global	Debug_UART_Sleep
  87              		.thumb
  88              		.thumb_func
  89              		.type	Debug_UART_Sleep, %function
  90              	Debug_UART_Sleep:
  91              	.LFB2:
  93:Generated_Source\PSoC5/Debug_UART_PM.c **** 
  94:Generated_Source\PSoC5/Debug_UART_PM.c **** 
  95:Generated_Source\PSoC5/Debug_UART_PM.c **** /*******************************************************************************
  96:Generated_Source\PSoC5/Debug_UART_PM.c **** * Function Name: Debug_UART_Sleep
  97:Generated_Source\PSoC5/Debug_UART_PM.c **** ********************************************************************************
  98:Generated_Source\PSoC5/Debug_UART_PM.c **** *
  99:Generated_Source\PSoC5/Debug_UART_PM.c **** * Summary:
 100:Generated_Source\PSoC5/Debug_UART_PM.c **** *  This is the preferred API to prepare the component for sleep. 
 101:Generated_Source\PSoC5/Debug_UART_PM.c **** *  The Debug_UART_Sleep() API saves the current component state. Then it
 102:Generated_Source\PSoC5/Debug_UART_PM.c **** *  calls the Debug_UART_Stop() function and calls 
 103:Generated_Source\PSoC5/Debug_UART_PM.c **** *  Debug_UART_SaveConfig() to save the hardware configuration.
 104:Generated_Source\PSoC5/Debug_UART_PM.c **** *  Call the Debug_UART_Sleep() function before calling the CyPmSleep() 
 105:Generated_Source\PSoC5/Debug_UART_PM.c **** *  or the CyPmHibernate() function. 
 106:Generated_Source\PSoC5/Debug_UART_PM.c **** *
 107:Generated_Source\PSoC5/Debug_UART_PM.c **** * Parameters:
 108:Generated_Source\PSoC5/Debug_UART_PM.c **** *  None.
 109:Generated_Source\PSoC5/Debug_UART_PM.c **** *
 110:Generated_Source\PSoC5/Debug_UART_PM.c **** * Return:
 111:Generated_Source\PSoC5/Debug_UART_PM.c **** *  None.
 112:Generated_Source\PSoC5/Debug_UART_PM.c **** *
 113:Generated_Source\PSoC5/Debug_UART_PM.c **** * Global Variables:
 114:Generated_Source\PSoC5/Debug_UART_PM.c **** *  Debug_UART_backup - modified when non-retention registers are saved.
 115:Generated_Source\PSoC5/Debug_UART_PM.c **** *
 116:Generated_Source\PSoC5/Debug_UART_PM.c **** * Reentrant:
 117:Generated_Source\PSoC5/Debug_UART_PM.c **** *  No.
 118:Generated_Source\PSoC5/Debug_UART_PM.c **** *
 119:Generated_Source\PSoC5/Debug_UART_PM.c **** *******************************************************************************/
 120:Generated_Source\PSoC5/Debug_UART_PM.c **** void Debug_UART_Sleep(void)
 121:Generated_Source\PSoC5/Debug_UART_PM.c **** {
  92              		.loc 1 121 0
  93              		.cfi_startproc
  94              		@ args = 0, pretend = 0, frame = 0
  95              		@ frame_needed = 1, uses_anonymous_args = 0
  96 0000 80B5     		push	{r7, lr}
  97              		.cfi_def_cfa_offset 8
  98              		.cfi_offset 7, -8
  99              		.cfi_offset 14, -4
 100 0002 00AF     		add	r7, sp, #0
 101              		.cfi_def_cfa_register 7
 122:Generated_Source\PSoC5/Debug_UART_PM.c ****     #if(Debug_UART_RX_ENABLED || Debug_UART_HD_ENABLED)
 123:Generated_Source\PSoC5/Debug_UART_PM.c ****         if((Debug_UART_RXSTATUS_ACTL_REG  & Debug_UART_INT_ENABLE) != 0u)
 124:Generated_Source\PSoC5/Debug_UART_PM.c ****         {
 125:Generated_Source\PSoC5/Debug_UART_PM.c ****             Debug_UART_backup.enableState = 1u;
 126:Generated_Source\PSoC5/Debug_UART_PM.c ****         }
 127:Generated_Source\PSoC5/Debug_UART_PM.c ****         else
ARM GAS  C:\Users\dantz\AppData\Local\Temp\ccgIUsQg.s 			page 5


 128:Generated_Source\PSoC5/Debug_UART_PM.c ****         {
 129:Generated_Source\PSoC5/Debug_UART_PM.c ****             Debug_UART_backup.enableState = 0u;
 130:Generated_Source\PSoC5/Debug_UART_PM.c ****         }
 131:Generated_Source\PSoC5/Debug_UART_PM.c ****     #else
 132:Generated_Source\PSoC5/Debug_UART_PM.c ****         if((Debug_UART_TXSTATUS_ACTL_REG  & Debug_UART_INT_ENABLE) !=0u)
 102              		.loc 1 132 0
 103 0004 094B     		ldr	r3, .L6
 104 0006 1B78     		ldrb	r3, [r3]
 105 0008 DBB2     		uxtb	r3, r3
 106 000a 03F01003 		and	r3, r3, #16
 107 000e 002B     		cmp	r3, #0
 108 0010 03D0     		beq	.L4
 133:Generated_Source\PSoC5/Debug_UART_PM.c ****         {
 134:Generated_Source\PSoC5/Debug_UART_PM.c ****             Debug_UART_backup.enableState = 1u;
 109              		.loc 1 134 0
 110 0012 074B     		ldr	r3, .L6+4
 111 0014 0122     		movs	r2, #1
 112 0016 1A70     		strb	r2, [r3]
 113 0018 02E0     		b	.L5
 114              	.L4:
 135:Generated_Source\PSoC5/Debug_UART_PM.c ****         }
 136:Generated_Source\PSoC5/Debug_UART_PM.c ****         else
 137:Generated_Source\PSoC5/Debug_UART_PM.c ****         {
 138:Generated_Source\PSoC5/Debug_UART_PM.c ****             Debug_UART_backup.enableState = 0u;
 115              		.loc 1 138 0
 116 001a 054B     		ldr	r3, .L6+4
 117 001c 0022     		movs	r2, #0
 118 001e 1A70     		strb	r2, [r3]
 119              	.L5:
 139:Generated_Source\PSoC5/Debug_UART_PM.c ****         }
 140:Generated_Source\PSoC5/Debug_UART_PM.c ****     #endif /* End Debug_UART_RX_ENABLED || Debug_UART_HD_ENABLED*/
 141:Generated_Source\PSoC5/Debug_UART_PM.c **** 
 142:Generated_Source\PSoC5/Debug_UART_PM.c ****     Debug_UART_Stop();
 120              		.loc 1 142 0
 121 0020 FFF7FEFF 		bl	Debug_UART_Stop
 143:Generated_Source\PSoC5/Debug_UART_PM.c ****     Debug_UART_SaveConfig();
 122              		.loc 1 143 0
 123 0024 FFF7FEFF 		bl	Debug_UART_SaveConfig
 144:Generated_Source\PSoC5/Debug_UART_PM.c **** }
 124              		.loc 1 144 0
 125 0028 00BF     		nop
 126 002a 80BD     		pop	{r7, pc}
 127              	.L7:
 128              		.align	2
 129              	.L6:
 130 002c 97640040 		.word	1073767575
 131 0030 00000000 		.word	Debug_UART_backup
 132              		.cfi_endproc
 133              	.LFE2:
 134              		.size	Debug_UART_Sleep, .-Debug_UART_Sleep
 135              		.section	.text.Debug_UART_Wakeup,"ax",%progbits
 136              		.align	2
 137              		.global	Debug_UART_Wakeup
 138              		.thumb
 139              		.thumb_func
 140              		.type	Debug_UART_Wakeup, %function
 141              	Debug_UART_Wakeup:
ARM GAS  C:\Users\dantz\AppData\Local\Temp\ccgIUsQg.s 			page 6


 142              	.LFB3:
 145:Generated_Source\PSoC5/Debug_UART_PM.c **** 
 146:Generated_Source\PSoC5/Debug_UART_PM.c **** 
 147:Generated_Source\PSoC5/Debug_UART_PM.c **** /*******************************************************************************
 148:Generated_Source\PSoC5/Debug_UART_PM.c **** * Function Name: Debug_UART_Wakeup
 149:Generated_Source\PSoC5/Debug_UART_PM.c **** ********************************************************************************
 150:Generated_Source\PSoC5/Debug_UART_PM.c **** *
 151:Generated_Source\PSoC5/Debug_UART_PM.c **** * Summary:
 152:Generated_Source\PSoC5/Debug_UART_PM.c **** *  This is the preferred API to restore the component to the state when 
 153:Generated_Source\PSoC5/Debug_UART_PM.c **** *  Debug_UART_Sleep() was called. The Debug_UART_Wakeup() function
 154:Generated_Source\PSoC5/Debug_UART_PM.c **** *  calls the Debug_UART_RestoreConfig() function to restore the 
 155:Generated_Source\PSoC5/Debug_UART_PM.c **** *  configuration. If the component was enabled before the 
 156:Generated_Source\PSoC5/Debug_UART_PM.c **** *  Debug_UART_Sleep() function was called, the Debug_UART_Wakeup()
 157:Generated_Source\PSoC5/Debug_UART_PM.c **** *  function will also re-enable the component.
 158:Generated_Source\PSoC5/Debug_UART_PM.c **** *
 159:Generated_Source\PSoC5/Debug_UART_PM.c **** * Parameters:
 160:Generated_Source\PSoC5/Debug_UART_PM.c **** *  None.
 161:Generated_Source\PSoC5/Debug_UART_PM.c **** *
 162:Generated_Source\PSoC5/Debug_UART_PM.c **** * Return:
 163:Generated_Source\PSoC5/Debug_UART_PM.c **** *  None.
 164:Generated_Source\PSoC5/Debug_UART_PM.c **** *
 165:Generated_Source\PSoC5/Debug_UART_PM.c **** * Global Variables:
 166:Generated_Source\PSoC5/Debug_UART_PM.c **** *  Debug_UART_backup - used when non-retention registers are restored.
 167:Generated_Source\PSoC5/Debug_UART_PM.c **** *
 168:Generated_Source\PSoC5/Debug_UART_PM.c **** * Reentrant:
 169:Generated_Source\PSoC5/Debug_UART_PM.c **** *  No.
 170:Generated_Source\PSoC5/Debug_UART_PM.c **** *
 171:Generated_Source\PSoC5/Debug_UART_PM.c **** *******************************************************************************/
 172:Generated_Source\PSoC5/Debug_UART_PM.c **** void Debug_UART_Wakeup(void)
 173:Generated_Source\PSoC5/Debug_UART_PM.c **** {
 143              		.loc 1 173 0
 144              		.cfi_startproc
 145              		@ args = 0, pretend = 0, frame = 0
 146              		@ frame_needed = 1, uses_anonymous_args = 0
 147 0000 80B5     		push	{r7, lr}
 148              		.cfi_def_cfa_offset 8
 149              		.cfi_offset 7, -8
 150              		.cfi_offset 14, -4
 151 0002 00AF     		add	r7, sp, #0
 152              		.cfi_def_cfa_register 7
 174:Generated_Source\PSoC5/Debug_UART_PM.c ****     Debug_UART_RestoreConfig();
 153              		.loc 1 174 0
 154 0004 FFF7FEFF 		bl	Debug_UART_RestoreConfig
 175:Generated_Source\PSoC5/Debug_UART_PM.c ****     #if( (Debug_UART_RX_ENABLED) || (Debug_UART_HD_ENABLED) )
 176:Generated_Source\PSoC5/Debug_UART_PM.c ****         Debug_UART_ClearRxBuffer();
 177:Generated_Source\PSoC5/Debug_UART_PM.c ****     #endif /* End (Debug_UART_RX_ENABLED) || (Debug_UART_HD_ENABLED) */
 178:Generated_Source\PSoC5/Debug_UART_PM.c ****     #if(Debug_UART_TX_ENABLED || Debug_UART_HD_ENABLED)
 179:Generated_Source\PSoC5/Debug_UART_PM.c ****         Debug_UART_ClearTxBuffer();
 155              		.loc 1 179 0
 156 0008 FFF7FEFF 		bl	Debug_UART_ClearTxBuffer
 180:Generated_Source\PSoC5/Debug_UART_PM.c ****     #endif /* End Debug_UART_TX_ENABLED || Debug_UART_HD_ENABLED */
 181:Generated_Source\PSoC5/Debug_UART_PM.c **** 
 182:Generated_Source\PSoC5/Debug_UART_PM.c ****     if(Debug_UART_backup.enableState != 0u)
 157              		.loc 1 182 0
 158 000c 034B     		ldr	r3, .L11
 159 000e 1B78     		ldrb	r3, [r3]	@ zero_extendqisi2
 160 0010 002B     		cmp	r3, #0
ARM GAS  C:\Users\dantz\AppData\Local\Temp\ccgIUsQg.s 			page 7


 161 0012 01D0     		beq	.L10
 183:Generated_Source\PSoC5/Debug_UART_PM.c ****     {
 184:Generated_Source\PSoC5/Debug_UART_PM.c ****         Debug_UART_Enable();
 162              		.loc 1 184 0
 163 0014 FFF7FEFF 		bl	Debug_UART_Enable
 164              	.L10:
 185:Generated_Source\PSoC5/Debug_UART_PM.c ****     }
 186:Generated_Source\PSoC5/Debug_UART_PM.c **** }
 165              		.loc 1 186 0
 166 0018 00BF     		nop
 167 001a 80BD     		pop	{r7, pc}
 168              	.L12:
 169              		.align	2
 170              	.L11:
 171 001c 00000000 		.word	Debug_UART_backup
 172              		.cfi_endproc
 173              	.LFE3:
 174              		.size	Debug_UART_Wakeup, .-Debug_UART_Wakeup
 175              		.text
 176              	.Letext0:
 177              		.file 2 "Generated_Source\\PSoC5\\cytypes.h"
 178              		.file 3 "Generated_Source\\PSoC5\\Debug_UART.h"