ARM GAS  C:\Users\dantz\AppData\Local\Temp\ccGcZMb9.s 			page 1


   1              		.syntax unified
   2              		.cpu cortex-m3
   3              		.fpu softvfp
   4              		.eabi_attribute 20, 1
   5              		.eabi_attribute 21, 1
   6              		.eabi_attribute 23, 3
   7              		.eabi_attribute 24, 1
   8              		.eabi_attribute 25, 1
   9              		.eabi_attribute 26, 1
  10              		.eabi_attribute 30, 6
  11              		.eabi_attribute 34, 1
  12              		.eabi_attribute 18, 4
  13              		.thumb
  14              		.syntax unified
  15              		.file	"diss_oxy.c"
  16              		.text
  17              	.Ltext0:
  18              		.cfi_sections	.debug_frame
  19              		.comm	buffer_overflow,1,1
  20              		.comm	dataPointsInStack,2,2
  21              		.comm	dataPointsInStackDesired,2,2
  22              		.comm	data,6600,4
  23              		.comm	modem_state,1,1
  24              		.comm	modem_start_time_stamp,4,4
  25              		.comm	modem_info,60,4
  26              		.comm	modem_stats,32,4
  27              		.comm	updatable_parameters,5,4
  28              		.syntax unified
  29              		.global _printf_float
  30              		.thumb
  31              		.syntax unified
  32              		.comm	http_request,10000,4
  33              		.comm	http_body,10000,4
  34              		.comm	http_route,200,4
  35              		.comm	system_info,28,4
  36              		.comm	system_settings,104,4
  37              		.comm	alarmMeasure,6,4
  38              		.comm	timeToMeasure,1,1
  39              		.comm	alarmSync,6,4
  40              		.comm	timeToSync,1,1
  41              		.comm	timeToSycnRemoteParams,1,1
  42              		.comm	hey,1,1
  43              		.comm	do_received_string,1024,4
  44              		.global	do_string_index
  45              		.bss
  46              		.align	1
  47              		.type	do_string_index, %object
  48              		.size	do_string_index, 2
  49              	do_string_index:
  50 0000 0000     		.space	2
  51              		.section	.text.DO_ISR,"ax",%progbits
  52              		.align	2
  53              		.global	DO_ISR
  54              		.thumb
  55              		.thumb_func
  56              		.type	DO_ISR, %function
  57              	DO_ISR:
ARM GAS  C:\Users\dantz\AppData\Local\Temp\ccGcZMb9.s 			page 2


  58              	.LFB64:
  59              		.file 1 "diss_oxy.c"
   1:diss_oxy.c    **** #include "notoriOS.h"
   2:diss_oxy.c    **** // #include diss_oxy.h  - this was causing a multiple definition error
   3:diss_oxy.c    **** char do_received_string[1024];
   4:diss_oxy.c    **** int16 do_string_index=0;
   5:diss_oxy.c    **** 
   6:diss_oxy.c    **** // adapted from modem.c and level_sensor.c
   7:diss_oxy.c    **** 
   8:diss_oxy.c    **** CY_ISR_PROTO(DO_ISR); // Declares a custom ISR function "isr_telit_rx" using the CY_ISR_PROTO macro
   9:diss_oxy.c    **** 
  10:diss_oxy.c    **** // Define the custom ISR function "isr_telit_rx" using the CY_ISR macro
  11:diss_oxy.c    **** // Get each character from Telit and saves it to uart_received_string
  12:diss_oxy.c    **** CY_ISR(DO_ISR){      
  60              		.loc 1 12 0
  61              		.cfi_startproc
  62              		@ args = 0, pretend = 0, frame = 0
  63              		@ frame_needed = 1, uses_anonymous_args = 0
  64 0000 98B5     		push	{r3, r4, r7, lr}
  65              		.cfi_def_cfa_offset 16
  66              		.cfi_offset 3, -16
  67              		.cfi_offset 4, -12
  68              		.cfi_offset 7, -8
  69              		.cfi_offset 14, -4
  70 0002 00AF     		add	r7, sp, #0
  71              		.cfi_def_cfa_register 7
  13:diss_oxy.c    ****     // UART_Telit_GetRxBufferSize() returns the number of received bytes available in the RX buffer
  14:diss_oxy.c    **** 
  15:diss_oxy.c    ****     while(DO_UART_GetRxBufferSize()==1){
  72              		.loc 1 15 0
  73 0004 12E0     		b	.L2
  74              	.L3:
  16:diss_oxy.c    ****         //char rx = DO_UART_GetChar();
  17:diss_oxy.c    ****         do_received_string[do_string_index]=DO_UART_GetChar();
  75              		.loc 1 17 0
  76 0006 0D4B     		ldr	r3, .L4
  77 0008 B3F90030 		ldrsh	r3, [r3]
  78 000c 1C46     		mov	r4, r3
  79 000e FFF7FEFF 		bl	DO_UART_GetChar
  80 0012 0346     		mov	r3, r0
  81 0014 1A46     		mov	r2, r3
  82 0016 0A4B     		ldr	r3, .L4+4
  83 0018 1A55     		strb	r2, [r3, r4]
  18:diss_oxy.c    ****         //printNotif(NOTIF_TYPE_EVENT, "received char: %c", rx);
  19:diss_oxy.c    ****         do_string_index++;
  84              		.loc 1 19 0
  85 001a 084B     		ldr	r3, .L4
  86 001c B3F90030 		ldrsh	r3, [r3]
  87 0020 9BB2     		uxth	r3, r3
  88 0022 0133     		adds	r3, r3, #1
  89 0024 9BB2     		uxth	r3, r3
  90 0026 1AB2     		sxth	r2, r3
  91 0028 044B     		ldr	r3, .L4
  92 002a 1A80     		strh	r2, [r3]	@ movhi
  93              	.L2:
  15:diss_oxy.c    ****         //char rx = DO_UART_GetChar();
  94              		.loc 1 15 0
ARM GAS  C:\Users\dantz\AppData\Local\Temp\ccGcZMb9.s 			page 3


  95 002c FFF7FEFF 		bl	DO_UART_GetRxBufferSize
  96 0030 0346     		mov	r3, r0
  97 0032 012B     		cmp	r3, #1
  98 0034 E7D0     		beq	.L3
  20:diss_oxy.c    **** 
  21:diss_oxy.c    ****     }
  22:diss_oxy.c    **** 
  23:diss_oxy.c    **** }
  99              		.loc 1 23 0
 100 0036 00BF     		nop
 101 0038 98BD     		pop	{r3, r4, r7, pc}
 102              	.L5:
 103 003a 00BF     		.align	2
 104              	.L4:
 105 003c 00000000 		.word	do_string_index
 106 0040 00000000 		.word	do_received_string
 107              		.cfi_endproc
 108              	.LFE64:
 109              		.size	DO_ISR, .-DO_ISR
 110              		.section	.text.do_uart_clear,"ax",%progbits
 111              		.align	2
 112              		.global	do_uart_clear
 113              		.thumb
 114              		.thumb_func
 115              		.type	do_uart_clear, %function
 116              	do_uart_clear:
 117              	.LFB65:
  24:diss_oxy.c    **** 
  25:diss_oxy.c    **** 
  26:diss_oxy.c    **** // Clears the sensor data 
  27:diss_oxy.c    **** void do_uart_clear(void) {
 118              		.loc 1 27 0
 119              		.cfi_startproc
 120              		@ args = 0, pretend = 0, frame = 0
 121              		@ frame_needed = 1, uses_anonymous_args = 0
 122 0000 80B5     		push	{r7, lr}
 123              		.cfi_def_cfa_offset 8
 124              		.cfi_offset 7, -8
 125              		.cfi_offset 14, -4
 126 0002 00AF     		add	r7, sp, #0
 127              		.cfi_def_cfa_register 7
  28:diss_oxy.c    ****   // UART_ClearRxBuffer(): Clears the receiver memory buffer and hardware RX FIFO of all received d
  29:diss_oxy.c    ****   DO_UART_ClearRxBuffer();
 128              		.loc 1 29 0
 129 0004 FFF7FEFF 		bl	DO_UART_ClearRxBuffer
  30:diss_oxy.c    ****   // void *memset(void *str, int c, size_t n) where str is a pointer to the block of memory to fill
  31:diss_oxy.c    ****   // The value is passed as an int, but the function fills the block of memory using the unsigned c
  32:diss_oxy.c    ****   // n is the number of bytes to be set to the value.
  33:diss_oxy.c    ****   memset((void*)do_received_string, 0, 1023);
 130              		.loc 1 33 0
 131 0008 40F2FF32 		movw	r2, #1023
 132 000c 0021     		movs	r1, #0
 133 000e 0448     		ldr	r0, .L7
 134 0010 FFF7FEFF 		bl	memset
  34:diss_oxy.c    ****   do_string_index = 0;
 135              		.loc 1 34 0
 136 0014 034B     		ldr	r3, .L7+4
ARM GAS  C:\Users\dantz\AppData\Local\Temp\ccGcZMb9.s 			page 4


 137 0016 0022     		movs	r2, #0
 138 0018 1A80     		strh	r2, [r3]	@ movhi
  35:diss_oxy.c    **** }
 139              		.loc 1 35 0
 140 001a 00BF     		nop
 141 001c 80BD     		pop	{r7, pc}
 142              	.L8:
 143 001e 00BF     		.align	2
 144              	.L7:
 145 0020 00000000 		.word	do_received_string
 146 0024 00000000 		.word	do_string_index
 147              		.cfi_endproc
 148              	.LFE65:
 149              		.size	do_uart_clear, .-do_uart_clear
 150              		.section	.text.DO_start_talking,"ax",%progbits
 151              		.align	2
 152              		.global	DO_start_talking
 153              		.thumb
 154              		.thumb_func
 155              		.type	DO_start_talking, %function
 156              	DO_start_talking:
 157              	.LFB66:
  36:diss_oxy.c    **** 
  37:diss_oxy.c    **** // get everything ready to communicate
  38:diss_oxy.c    **** void DO_start_talking(){
 158              		.loc 1 38 0
 159              		.cfi_startproc
 160              		@ args = 0, pretend = 0, frame = 0
 161              		@ frame_needed = 1, uses_anonymous_args = 0
 162 0000 80B5     		push	{r7, lr}
 163              		.cfi_def_cfa_offset 8
 164              		.cfi_offset 7, -8
 165              		.cfi_offset 14, -4
 166 0002 00AF     		add	r7, sp, #0
 167              		.cfi_def_cfa_register 7
  39:diss_oxy.c    ****     DO_UART_Start();
 168              		.loc 1 39 0
 169 0004 FFF7FEFF 		bl	DO_UART_Start
  40:diss_oxy.c    ****     DO_RX_SetDriveMode(PIN_DM_DIG_HIZ); // RX_SetDriveMode(): Sets the drive mode for each of the P
 170              		.loc 1 40 0
 171 0008 0220     		movs	r0, #2
 172 000a FFF7FEFF 		bl	DO_RX_SetDriveMode
  41:diss_oxy.c    ****     DO_UART_ClearRxBuffer();
 173              		.loc 1 41 0
 174 000e FFF7FEFF 		bl	DO_UART_ClearRxBuffer
  42:diss_oxy.c    ****     DO_ISR_StartEx(DO_ISR);
 175              		.loc 1 42 0
 176 0012 0648     		ldr	r0, .L10
 177 0014 FFF7FEFF 		bl	DO_ISR_StartEx
  43:diss_oxy.c    ****     Level_Sensor_Power_Write(ON); // Pulls pwr pin high (turns it on).
 178              		.loc 1 43 0
 179 0018 0120     		movs	r0, #1
 180 001a FFF7FEFF 		bl	Level_Sensor_Power_Write
  44:diss_oxy.c    ****     CyDelay(1000u); // reset sequence
 181              		.loc 1 44 0
 182 001e 4FF47A70 		mov	r0, #1000
 183 0022 FFF7FEFF 		bl	CyDelay
ARM GAS  C:\Users\dantz\AppData\Local\Temp\ccGcZMb9.s 			page 5


  45:diss_oxy.c    **** 
  46:diss_oxy.c    **** }
 184              		.loc 1 46 0
 185 0026 00BF     		nop
 186 0028 80BD     		pop	{r7, pc}
 187              	.L11:
 188 002a 00BF     		.align	2
 189              	.L10:
 190 002c 00000000 		.word	DO_ISR
 191              		.cfi_endproc
 192              	.LFE66:
 193              		.size	DO_start_talking, .-DO_start_talking
 194              		.section	.text.DO_stop_talking,"ax",%progbits
 195              		.align	2
 196              		.global	DO_stop_talking
 197              		.thumb
 198              		.thumb_func
 199              		.type	DO_stop_talking, %function
 200              	DO_stop_talking:
 201              	.LFB67:
  47:diss_oxy.c    **** 
  48:diss_oxy.c    **** // pull everything low to stop power leaks
  49:diss_oxy.c    **** void DO_stop_talking(){
 202              		.loc 1 49 0
 203              		.cfi_startproc
 204              		@ args = 0, pretend = 0, frame = 0
 205              		@ frame_needed = 1, uses_anonymous_args = 0
 206 0000 80B5     		push	{r7, lr}
 207              		.cfi_def_cfa_offset 8
 208              		.cfi_offset 7, -8
 209              		.cfi_offset 14, -4
 210 0002 00AF     		add	r7, sp, #0
 211              		.cfi_def_cfa_register 7
  50:diss_oxy.c    **** 
  51:diss_oxy.c    ****     Level_Sensor_Power_Write(OFF);
 212              		.loc 1 51 0
 213 0004 0020     		movs	r0, #0
 214 0006 FFF7FEFF 		bl	Level_Sensor_Power_Write
  52:diss_oxy.c    ****     DO_UART_Stop();
 215              		.loc 1 52 0
 216 000a FFF7FEFF 		bl	DO_UART_Stop
  53:diss_oxy.c    ****     DO_RX_SetDriveMode(PIN_DM_STRONG); // to die
 217              		.loc 1 53 0
 218 000e 0C20     		movs	r0, #12
 219 0010 FFF7FEFF 		bl	DO_RX_SetDriveMode
  54:diss_oxy.c    ****     DO_RX_Write(OFF);
 220              		.loc 1 54 0
 221 0014 0020     		movs	r0, #0
 222 0016 FFF7FEFF 		bl	DO_RX_Write
  55:diss_oxy.c    ****     DO_TX_Write(OFF);
 223              		.loc 1 55 0
 224 001a 0020     		movs	r0, #0
 225 001c FFF7FEFF 		bl	DO_TX_Write
  56:diss_oxy.c    ****     DO_ISR_Stop();
 226              		.loc 1 56 0
 227 0020 FFF7FEFF 		bl	DO_ISR_Stop
  57:diss_oxy.c    **** 
ARM GAS  C:\Users\dantz\AppData\Local\Temp\ccGcZMb9.s 			page 6


  58:diss_oxy.c    **** }
 228              		.loc 1 58 0
 229 0024 00BF     		nop
 230 0026 80BD     		pop	{r7, pc}
 231              		.cfi_endproc
 232              	.LFE67:
 233              		.size	DO_stop_talking, .-DO_stop_talking
 234              		.section	.rodata
 235              		.align	2
 236              	.LC0:
 237 0000 432C300D 		.ascii	"C,0\015\000"
 237      00
 238 0005 000000   		.align	2
 239              	.LC1:
 240 0008 2A4F4B2C 		.ascii	"*OK,0\015\000"
 240      300D00
 241 000f 00       		.align	2
 242              	.LC2:
 243 0010 520D00   		.ascii	"R\015\000"
 244 0013 00       		.align	2
 245              	.LC3:
 246 0014 0D00     		.ascii	"\015\000"
 247              		.global	__aeabi_d2f
 248 0016 0000     		.align	2
 249              	.LC4:
 250 0018 2A4F4B2C 		.ascii	"*OK,1\015\000"
 250      310D00
 251              		.section	.text.DO_read,"ax",%progbits
 252              		.align	2
 253              		.global	DO_read
 254              		.thumb
 255              		.thumb_func
 256              		.type	DO_read, %function
 257              	DO_read:
 258              	.LFB68:
  59:diss_oxy.c    **** 
  60:diss_oxy.c    **** DO_sensor_t DO_read(){
 259              		.loc 1 60 0
 260              		.cfi_startproc
 261              		@ args = 0, pretend = 0, frame = 72
 262              		@ frame_needed = 1, uses_anonymous_args = 0
 263 0000 B0B5     		push	{r4, r5, r7, lr}
 264              		.cfi_def_cfa_offset 16
 265              		.cfi_offset 4, -16
 266              		.cfi_offset 5, -12
 267              		.cfi_offset 7, -8
 268              		.cfi_offset 14, -4
 269 0002 92B0     		sub	sp, sp, #72
 270              		.cfi_def_cfa_offset 88
 271 0004 00AF     		add	r7, sp, #0
 272              		.cfi_def_cfa_register 7
 273 0006 7860     		str	r0, [r7, #4]
  61:diss_oxy.c    ****     
  62:diss_oxy.c    ****     DO_sensor_t output;
  63:diss_oxy.c    ****     
  64:diss_oxy.c    ****     DO_start_talking();
 274              		.loc 1 64 0
ARM GAS  C:\Users\dantz\AppData\Local\Temp\ccGcZMb9.s 			page 7


 275 0008 FFF7FEFF 		bl	DO_start_talking
  65:diss_oxy.c    ****     //char excerpt[80]; // for debugging
  66:diss_oxy.c    ****     DO_UART_PutString("C,0\r"); // turn off automated sampling
 276              		.loc 1 66 0
 277 000c 3648     		ldr	r0, .L19
 278 000e FFF7FEFF 		bl	DO_UART_PutString
  67:diss_oxy.c    ****     
  68:diss_oxy.c    ****     // turn "*OK" response off
  69:diss_oxy.c    ****     CyDelay(1000u);
 279              		.loc 1 69 0
 280 0012 4FF47A70 		mov	r0, #1000
 281 0016 FFF7FEFF 		bl	CyDelay
  70:diss_oxy.c    ****     DO_UART_PutString("*OK,0\r");
 282              		.loc 1 70 0
 283 001a 3448     		ldr	r0, .L19+4
 284 001c FFF7FEFF 		bl	DO_UART_PutString
  71:diss_oxy.c    ****     CyDelay(2000u);
 285              		.loc 1 71 0
 286 0020 4FF4FA60 		mov	r0, #2000
 287 0024 FFF7FEFF 		bl	CyDelay
  72:diss_oxy.c    ****     /*
  73:diss_oxy.c    ****     for (uint i = 0; i < 80; i++){
  74:diss_oxy.c    ****         excerpt[i] = do_received_string[i];  
  75:diss_oxy.c    ****         if (i>78u){
  76:diss_oxy.c    ****             printNotif(NOTIF_TYPE_EVENT,"asdf");
  77:diss_oxy.c    ****         }
  78:diss_oxy.c    ****     }
  79:diss_oxy.c    ****     */
  80:diss_oxy.c    ****     DO_UART_ClearRxBuffer();
 288              		.loc 1 80 0
 289 0028 FFF7FEFF 		bl	DO_UART_ClearRxBuffer
  81:diss_oxy.c    ****     do_uart_clear(); // get rid of anything we've received so far
 290              		.loc 1 81 0
 291 002c FFF7FEFF 		bl	do_uart_clear
 292              	.LBB2:
  82:diss_oxy.c    ****     // should just be the startup messages 
  83:diss_oxy.c    **** 
  84:diss_oxy.c    ****     // take 11 readings
  85:diss_oxy.c    ****     for (int i = 0; i < 11; i++){
 293              		.loc 1 85 0
 294 0030 0023     		movs	r3, #0
 295 0032 7B64     		str	r3, [r7, #68]
 296 0034 09E0     		b	.L14
 297              	.L15:
  86:diss_oxy.c    ****         DO_UART_PutString("R\r"); // take one reading
 298              		.loc 1 86 0 discriminator 3
 299 0036 2E48     		ldr	r0, .L19+8
 300 0038 FFF7FEFF 		bl	DO_UART_PutString
  87:diss_oxy.c    ****         CyDelay(1200u);
 301              		.loc 1 87 0 discriminator 3
 302 003c 4FF49660 		mov	r0, #1200
 303 0040 FFF7FEFF 		bl	CyDelay
  85:diss_oxy.c    ****         DO_UART_PutString("R\r"); // take one reading
 304              		.loc 1 85 0 discriminator 3
 305 0044 7B6C     		ldr	r3, [r7, #68]
 306 0046 0133     		adds	r3, r3, #1
 307 0048 7B64     		str	r3, [r7, #68]
ARM GAS  C:\Users\dantz\AppData\Local\Temp\ccGcZMb9.s 			page 8


 308              	.L14:
  85:diss_oxy.c    ****         DO_UART_PutString("R\r"); // take one reading
 309              		.loc 1 85 0 is_stmt 0 discriminator 1
 310 004a 7B6C     		ldr	r3, [r7, #68]
 311 004c 0A2B     		cmp	r3, #10
 312 004e F2DD     		ble	.L15
 313              	.LBE2:
  88:diss_oxy.c    ****     }
  89:diss_oxy.c    **** 
  90:diss_oxy.c    **** 
  91:diss_oxy.c    ****     char *token;    
  92:diss_oxy.c    ****     token = strtok(do_received_string, "\r");
 314              		.loc 1 92 0 is_stmt 1
 315 0050 2849     		ldr	r1, .L19+12
 316 0052 2948     		ldr	r0, .L19+16
 317 0054 FFF7FEFF 		bl	strtok
 318 0058 3864     		str	r0, [r7, #64]
  93:diss_oxy.c    **** 
  94:diss_oxy.c    ****     uint8 i = 0;
 319              		.loc 1 94 0
 320 005a 0023     		movs	r3, #0
 321 005c 87F83F30 		strb	r3, [r7, #63]
  95:diss_oxy.c    ****     float32 reading;
  96:diss_oxy.c    ****     while( token != NULL ) {
 322              		.loc 1 96 0
 323 0060 1DE0     		b	.L16
 324              	.L17:
  97:diss_oxy.c    ****         reading = atof(token);
 325              		.loc 1 97 0
 326 0062 386C     		ldr	r0, [r7, #64]
 327 0064 FFF7FEFF 		bl	atof
 328 0068 0346     		mov	r3, r0
 329 006a 0C46     		mov	r4, r1
 330 006c 1846     		mov	r0, r3
 331 006e 2146     		mov	r1, r4
 332 0070 FFF7FEFF 		bl	__aeabi_d2f
 333 0074 0346     		mov	r3, r0
 334 0076 BB63     		str	r3, [r7, #56]	@ float
  98:diss_oxy.c    ****         output.all_do_readings[i] = reading;
 335              		.loc 1 98 0
 336 0078 97F83F30 		ldrb	r3, [r7, #63]	@ zero_extendqisi2
 337 007c 9B00     		lsls	r3, r3, #2
 338 007e 07F14802 		add	r2, r7, #72
 339 0082 1344     		add	r3, r3, r2
 340 0084 BA6B     		ldr	r2, [r7, #56]	@ float
 341 0086 43F8402C 		str	r2, [r3, #-64]	@ float
  99:diss_oxy.c    ****         token = strtok(NULL, "\r"); // This "NULL" says to continue where you left off last time.  
 342              		.loc 1 99 0
 343 008a 1A49     		ldr	r1, .L19+12
 344 008c 0020     		movs	r0, #0
 345 008e FFF7FEFF 		bl	strtok
 346 0092 3864     		str	r0, [r7, #64]
 100:diss_oxy.c    ****         i++;
 347              		.loc 1 100 0
 348 0094 97F83F30 		ldrb	r3, [r7, #63]	@ zero_extendqisi2
 349 0098 0133     		adds	r3, r3, #1
 350 009a 87F83F30 		strb	r3, [r7, #63]
ARM GAS  C:\Users\dantz\AppData\Local\Temp\ccGcZMb9.s 			page 9


 351              	.L16:
  96:diss_oxy.c    ****         reading = atof(token);
 352              		.loc 1 96 0
 353 009e 3B6C     		ldr	r3, [r7, #64]
 354 00a0 002B     		cmp	r3, #0
 355 00a2 DED1     		bne	.L17
 101:diss_oxy.c    ****     }
 102:diss_oxy.c    **** 
 103:diss_oxy.c    ****     // readings array should have eleven nice floats now
 104:diss_oxy.c    ****     // TODO: check this and throw an error if not
 105:diss_oxy.c    ****    
 106:diss_oxy.c    ****     output.do_reading = float_find_median(output.all_do_readings, 11);
 356              		.loc 1 106 0
 357 00a4 07F10803 		add	r3, r7, #8
 358 00a8 0B21     		movs	r1, #11
 359 00aa 1846     		mov	r0, r3
 360 00ac FFF7FEFF 		bl	float_find_median
 361 00b0 0346     		mov	r3, r0
 362 00b2 7B63     		str	r3, [r7, #52]	@ float
 107:diss_oxy.c    ****     
 108:diss_oxy.c    ****     // turn "*OK" response back on (this is default and useful for debugging)
 109:diss_oxy.c    ****     DO_UART_PutString("*OK,1\r");
 363              		.loc 1 109 0
 364 00b4 1148     		ldr	r0, .L19+20
 365 00b6 FFF7FEFF 		bl	DO_UART_PutString
 110:diss_oxy.c    ****     CyDelay(1000u);
 366              		.loc 1 110 0
 367 00ba 4FF47A70 		mov	r0, #1000
 368 00be FFF7FEFF 		bl	CyDelay
 111:diss_oxy.c    ****     DO_stop_talking();
 369              		.loc 1 111 0
 370 00c2 FFF7FEFF 		bl	DO_stop_talking
 112:diss_oxy.c    ****     return output;
 371              		.loc 1 112 0
 372 00c6 7B68     		ldr	r3, [r7, #4]
 373 00c8 1D46     		mov	r5, r3
 374 00ca 07F10804 		add	r4, r7, #8
 375 00ce 0FCC     		ldmia	r4!, {r0, r1, r2, r3}
 376 00d0 0FC5     		stmia	r5!, {r0, r1, r2, r3}
 377 00d2 0FCC     		ldmia	r4!, {r0, r1, r2, r3}
 378 00d4 0FC5     		stmia	r5!, {r0, r1, r2, r3}
 379 00d6 94E80F00 		ldmia	r4, {r0, r1, r2, r3}
 380 00da 85E80F00 		stmia	r5, {r0, r1, r2, r3}
 113:diss_oxy.c    **** }
 381              		.loc 1 113 0
 382 00de 7868     		ldr	r0, [r7, #4]
 383 00e0 4837     		adds	r7, r7, #72
 384              		.cfi_def_cfa_offset 16
 385 00e2 BD46     		mov	sp, r7
 386              		.cfi_def_cfa_register 13
 387              		@ sp needed
 388 00e4 B0BD     		pop	{r4, r5, r7, pc}
 389              	.L20:
 390 00e6 00BF     		.align	2
 391              	.L19:
 392 00e8 00000000 		.word	.LC0
 393 00ec 08000000 		.word	.LC1
ARM GAS  C:\Users\dantz\AppData\Local\Temp\ccGcZMb9.s 			page 10


 394 00f0 10000000 		.word	.LC2
 395 00f4 14000000 		.word	.LC3
 396 00f8 00000000 		.word	do_received_string
 397 00fc 18000000 		.word	.LC4
 398              		.cfi_endproc
 399              	.LFE68:
 400              		.size	DO_read, .-DO_read
 401              		.global	__aeabi_f2d
 402              		.global	__aeabi_dcmplt
 403              		.section	.rodata
 404 001f 00       		.align	2
 405              	.LC5:
 406 0020 444F2072 		.ascii	"DO readings invalid\015\012Details:\015\012median r"
 406      65616469 
 406      6E677320 
 406      696E7661 
 406      6C69640D 
 407 0047 65616469 		.ascii	"eading:%f \015\012all readings (11): %f : %f : %f :"
 407      6E673A25 
 407      66200D0A 
 407      616C6C20 
 407      72656164 
 408 0074 20256620 		.ascii	" %f : %f : %f : %f : %f : %f : %f : %f\000"
 408      3A202566 
 408      203A2025 
 408      66203A20 
 408      2566203A 
 409 009b 00       		.align	2
 410              	.LC6:
 411 009c 54455354 		.ascii	"TEST_DO_SENSOR\000"
 411      5F444F5F 
 411      53454E53 
 411      4F5200
 412 00ab 00       		.align	2
 413              	.LC7:
 414 00ac 6D656469 		.ascii	"median reading:%f \015\012all readings (11): %f : %"
 414      616E2072 
 414      65616469 
 414      6E673A25 
 414      66200D0A 
 415 00d9 66203A20 		.ascii	"f : %f : %f : %f : %f : %f : %f : %f : %f : %f\000"
 415      2566203A 
 415      20256620 
 415      3A202566 
 415      203A2025 
 416              		.section	.text.DO_sensor_test,"ax",%progbits
 417              		.align	2
 418              		.global	DO_sensor_test
 419              		.thumb
 420              		.thumb_func
 421              		.type	DO_sensor_test, %function
 422              	DO_sensor_test:
 423              	.LFB69:
 114:diss_oxy.c    **** 
 115:diss_oxy.c    **** test_t DO_sensor_test(){
 424              		.loc 1 115 0
 425              		.cfi_startproc
ARM GAS  C:\Users\dantz\AppData\Local\Temp\ccGcZMb9.s 			page 11


 426              		@ args = 0, pretend = 0, frame = 512
 427              		@ frame_needed = 1, uses_anonymous_args = 0
 428 0000 2DE9B04F 		push	{r4, r5, r7, r8, r9, r10, fp, lr}
 429              		.cfi_def_cfa_offset 32
 430              		.cfi_offset 4, -32
 431              		.cfi_offset 5, -28
 432              		.cfi_offset 7, -24
 433              		.cfi_offset 8, -20
 434              		.cfi_offset 9, -16
 435              		.cfi_offset 10, -12
 436              		.cfi_offset 11, -8
 437              		.cfi_offset 14, -4
 438 0004 ADF5187D 		sub	sp, sp, #608
 439              		.cfi_def_cfa_offset 640
 440 0008 18AF     		add	r7, sp, #96
 441              		.cfi_def_cfa 7, 544
 442 000a 07F14403 		add	r3, r7, #68
 443 000e 1860     		str	r0, [r3]
 116:diss_oxy.c    **** 
 117:diss_oxy.c    ****     // only call this in the lab for initial setup (calibration to air)
 118:diss_oxy.c    ****     // DO_cal() should be commented out in the main repo and never called in the field
 119:diss_oxy.c    ****     DO_cal();
 444              		.loc 1 119 0
 445 0010 FFF7FEFF 		bl	DO_cal
 120:diss_oxy.c    ****     
 121:diss_oxy.c    ****     DO_sensor_t results = DO_read();
 446              		.loc 1 121 0
 447 0014 07F5E873 		add	r3, r7, #464
 448 0018 1846     		mov	r0, r3
 449 001a FFF7FEFF 		bl	DO_read
 122:diss_oxy.c    **** 
 123:diss_oxy.c    ****     test_t test;
 124:diss_oxy.c    ****     
 125:diss_oxy.c    ****     if (results.do_reading < 0.01){
 450              		.loc 1 125 0
 451 001e D7F8FC31 		ldr	r3, [r7, #508]	@ float
 452 0022 1846     		mov	r0, r3
 453 0024 FFF7FEFF 		bl	__aeabi_f2d
 454 0028 A5A3     		adr	r3, .L28
 455 002a D3E90023 		ldrd	r2, [r3]
 456 002e FFF7FEFF 		bl	__aeabi_dcmplt
 457 0032 0346     		mov	r3, r0
 458 0034 002B     		cmp	r3, #0
 459 0036 00F09780 		beq	.L27
 126:diss_oxy.c    ****         test.status = 0;
 460              		.loc 1 126 0
 461 003a 07F14C03 		add	r3, r7, #76
 462 003e 0022     		movs	r2, #0
 463 0040 83F88020 		strb	r2, [r3, #128]
 127:diss_oxy.c    ****         // test reason  
 128:diss_oxy.c    ****         snprintf(test.reason,sizeof(test.reason), 
 129:diss_oxy.c    ****         "DO readings invalid\r\nDetails:\r\nmedian reading:%f \r\nall readings (11): %f : %f : %f :
 130:diss_oxy.c    ****         results.do_reading,
 464              		.loc 1 130 0
 465 0044 D7F8FC31 		ldr	r3, [r7, #508]	@ float
 128:diss_oxy.c    ****         "DO readings invalid\r\nDetails:\r\nmedian reading:%f \r\nall readings (11): %f : %f : %f :
 466              		.loc 1 128 0
ARM GAS  C:\Users\dantz\AppData\Local\Temp\ccGcZMb9.s 			page 12


 467 0048 1846     		mov	r0, r3
 468 004a FFF7FEFF 		bl	__aeabi_f2d
 469 004e C7E90E01 		strd	r0, [r7, #56]
 131:diss_oxy.c    ****         results.all_do_readings[0], results.all_do_readings[1], results.all_do_readings[2], 
 470              		.loc 1 131 0
 471 0052 D7F8D031 		ldr	r3, [r7, #464]	@ float
 128:diss_oxy.c    ****         "DO readings invalid\r\nDetails:\r\nmedian reading:%f \r\nall readings (11): %f : %f : %f :
 472              		.loc 1 128 0
 473 0056 1846     		mov	r0, r3
 474 0058 FFF7FEFF 		bl	__aeabi_f2d
 475 005c C7E90C01 		strd	r0, [r7, #48]
 476              		.loc 1 131 0
 477 0060 D7F8D431 		ldr	r3, [r7, #468]	@ float
 128:diss_oxy.c    ****         "DO readings invalid\r\nDetails:\r\nmedian reading:%f \r\nall readings (11): %f : %f : %f :
 478              		.loc 1 128 0
 479 0064 1846     		mov	r0, r3
 480 0066 FFF7FEFF 		bl	__aeabi_f2d
 481 006a C7E90A01 		strd	r0, [r7, #40]
 482              		.loc 1 131 0
 483 006e D7F8D831 		ldr	r3, [r7, #472]	@ float
 128:diss_oxy.c    ****         "DO readings invalid\r\nDetails:\r\nmedian reading:%f \r\nall readings (11): %f : %f : %f :
 484              		.loc 1 128 0
 485 0072 1846     		mov	r0, r3
 486 0074 FFF7FEFF 		bl	__aeabi_f2d
 487 0078 C7E90801 		strd	r0, [r7, #32]
 132:diss_oxy.c    ****         results.all_do_readings[3], results.all_do_readings[4], results.all_do_readings[5], 
 488              		.loc 1 132 0
 489 007c D7F8DC31 		ldr	r3, [r7, #476]	@ float
 128:diss_oxy.c    ****         "DO readings invalid\r\nDetails:\r\nmedian reading:%f \r\nall readings (11): %f : %f : %f :
 490              		.loc 1 128 0
 491 0080 1846     		mov	r0, r3
 492 0082 FFF7FEFF 		bl	__aeabi_f2d
 493 0086 C7E90601 		strd	r0, [r7, #24]
 494              		.loc 1 132 0
 495 008a D7F8E031 		ldr	r3, [r7, #480]	@ float
 128:diss_oxy.c    ****         "DO readings invalid\r\nDetails:\r\nmedian reading:%f \r\nall readings (11): %f : %f : %f :
 496              		.loc 1 128 0
 497 008e 1846     		mov	r0, r3
 498 0090 FFF7FEFF 		bl	__aeabi_f2d
 499 0094 C7E90401 		strd	r0, [r7, #16]
 500              		.loc 1 132 0
 501 0098 D7F8E431 		ldr	r3, [r7, #484]	@ float
 128:diss_oxy.c    ****         "DO readings invalid\r\nDetails:\r\nmedian reading:%f \r\nall readings (11): %f : %f : %f :
 502              		.loc 1 128 0
 503 009c 1846     		mov	r0, r3
 504 009e FFF7FEFF 		bl	__aeabi_f2d
 505 00a2 C7E90201 		strd	r0, [r7, #8]
 133:diss_oxy.c    ****         results.all_do_readings[6], results.all_do_readings[7], results.all_do_readings[8], 
 506              		.loc 1 133 0
 507 00a6 D7F8E831 		ldr	r3, [r7, #488]	@ float
 128:diss_oxy.c    ****         "DO readings invalid\r\nDetails:\r\nmedian reading:%f \r\nall readings (11): %f : %f : %f :
 508              		.loc 1 128 0
 509 00aa 1846     		mov	r0, r3
 510 00ac FFF7FEFF 		bl	__aeabi_f2d
 511 00b0 C7E90001 		strd	r0, [r7]
 512              		.loc 1 133 0
 513 00b4 D7F8EC31 		ldr	r3, [r7, #492]	@ float
ARM GAS  C:\Users\dantz\AppData\Local\Temp\ccGcZMb9.s 			page 13


 128:diss_oxy.c    ****         "DO readings invalid\r\nDetails:\r\nmedian reading:%f \r\nall readings (11): %f : %f : %f :
 514              		.loc 1 128 0
 515 00b8 1846     		mov	r0, r3
 516 00ba FFF7FEFF 		bl	__aeabi_f2d
 517 00be 8246     		mov	r10, r0
 518 00c0 8B46     		mov	fp, r1
 519              		.loc 1 133 0
 520 00c2 D7F8F031 		ldr	r3, [r7, #496]	@ float
 128:diss_oxy.c    ****         "DO readings invalid\r\nDetails:\r\nmedian reading:%f \r\nall readings (11): %f : %f : %f :
 521              		.loc 1 128 0
 522 00c6 1846     		mov	r0, r3
 523 00c8 FFF7FEFF 		bl	__aeabi_f2d
 524 00cc 8046     		mov	r8, r0
 525 00ce 8946     		mov	r9, r1
 134:diss_oxy.c    ****         results.all_do_readings[9], results.all_do_readings[10]
 526              		.loc 1 134 0
 527 00d0 D7F8F431 		ldr	r3, [r7, #500]	@ float
 128:diss_oxy.c    ****         "DO readings invalid\r\nDetails:\r\nmedian reading:%f \r\nall readings (11): %f : %f : %f :
 528              		.loc 1 128 0
 529 00d4 1846     		mov	r0, r3
 530 00d6 FFF7FEFF 		bl	__aeabi_f2d
 531 00da 0446     		mov	r4, r0
 532 00dc 0D46     		mov	r5, r1
 533              		.loc 1 134 0
 534 00de D7F8F831 		ldr	r3, [r7, #504]	@ float
 128:diss_oxy.c    ****         "DO readings invalid\r\nDetails:\r\nmedian reading:%f \r\nall readings (11): %f : %f : %f :
 535              		.loc 1 128 0
 536 00e2 1846     		mov	r0, r3
 537 00e4 FFF7FEFF 		bl	__aeabi_f2d
 538 00e8 0A46     		mov	r2, r1
 539 00ea 0146     		mov	r1, r0
 540 00ec 07F14C03 		add	r3, r7, #76
 541 00f0 8133     		adds	r3, r3, #129
 542 00f2 CDE91612 		strd	r1, [sp, #88]
 543 00f6 CDE91445 		strd	r4, [sp, #80]
 544 00fa CDE91289 		strd	r8, [sp, #72]
 545 00fe CDE910AB 		strd	r10, [sp, #64]
 546 0102 D7E90012 		ldrd	r1, [r7]
 547 0106 CDE90E12 		strd	r1, [sp, #56]
 548 010a D7E90212 		ldrd	r1, [r7, #8]
 549 010e CDE90C12 		strd	r1, [sp, #48]
 550 0112 D7E90412 		ldrd	r1, [r7, #16]
 551 0116 CDE90A12 		strd	r1, [sp, #40]
 552 011a D7E90612 		ldrd	r1, [r7, #24]
 553 011e CDE90812 		strd	r1, [sp, #32]
 554 0122 D7E90812 		ldrd	r1, [r7, #32]
 555 0126 CDE90612 		strd	r1, [sp, #24]
 556 012a D7E90A12 		ldrd	r1, [r7, #40]
 557 012e CDE90412 		strd	r1, [sp, #16]
 558 0132 D7E90C12 		ldrd	r1, [r7, #48]
 559 0136 CDE90212 		strd	r1, [sp, #8]
 560 013a D7E90E12 		ldrd	r1, [r7, #56]
 561 013e CDE90012 		strd	r1, [sp]
 562 0142 614A     		ldr	r2, .L28+8
 563 0144 4FF48071 		mov	r1, #256
 564 0148 1846     		mov	r0, r3
 565 014a FFF7FEFF 		bl	snprintf
ARM GAS  C:\Users\dantz\AppData\Local\Temp\ccGcZMb9.s 			page 14


 135:diss_oxy.c    ****         );
 136:diss_oxy.c    ****         return test;
 566              		.loc 1 136 0
 567 014e 07F14403 		add	r3, r7, #68
 568 0152 1A68     		ldr	r2, [r3]
 569 0154 07F14C03 		add	r3, r7, #76
 570 0158 1046     		mov	r0, r2
 571 015a 1946     		mov	r1, r3
 572 015c 40F28113 		movw	r3, #385
 573 0160 1A46     		mov	r2, r3
 574 0162 FFF7FEFF 		bl	memcpy
 575 0166 A0E0     		b	.L21
 576              	.L27:
 137:diss_oxy.c    ****     }
 138:diss_oxy.c    **** 
 139:diss_oxy.c    ****     // for now, getting something besides zeros is valid
 140:diss_oxy.c    ****     test.status = 1; // set test status to zero
 577              		.loc 1 140 0
 578 0168 07F14C03 		add	r3, r7, #76
 579 016c 0122     		movs	r2, #1
 580 016e 83F88020 		strb	r2, [r3, #128]
 141:diss_oxy.c    ****     snprintf(test.test_name,sizeof(test.test_name),"TEST_DO_SENSOR");
 581              		.loc 1 141 0
 582 0172 07F14C03 		add	r3, r7, #76
 583 0176 554A     		ldr	r2, .L28+12
 584 0178 1C46     		mov	r4, r3
 585 017a 1346     		mov	r3, r2
 586 017c 0FCB     		ldmia	r3, {r0, r1, r2, r3}
 587 017e 07C4     		stmia	r4!, {r0, r1, r2}
 588 0180 2380     		strh	r3, [r4]	@ movhi
 589 0182 0234     		adds	r4, r4, #2
 590 0184 1B0C     		lsrs	r3, r3, #16
 591 0186 2370     		strb	r3, [r4]
 142:diss_oxy.c    ****    
 143:diss_oxy.c    ****     
 144:diss_oxy.c    ****     // test reason  
 145:diss_oxy.c    ****     snprintf(test.reason,sizeof(test.reason), 
 146:diss_oxy.c    ****     "median reading:%f \r\nall readings (11): %f : %f : %f : %f : %f : %f : %f : %f : %f : %f : %f"
 147:diss_oxy.c    ****     results.do_reading,
 592              		.loc 1 147 0
 593 0188 D7F8FC31 		ldr	r3, [r7, #508]	@ float
 145:diss_oxy.c    ****     "median reading:%f \r\nall readings (11): %f : %f : %f : %f : %f : %f : %f : %f : %f : %f : %f"
 594              		.loc 1 145 0
 595 018c 1846     		mov	r0, r3
 596 018e FFF7FEFF 		bl	__aeabi_f2d
 597 0192 C7E90E01 		strd	r0, [r7, #56]
 148:diss_oxy.c    ****     results.all_do_readings[0], results.all_do_readings[1], results.all_do_readings[2], 
 598              		.loc 1 148 0
 599 0196 D7F8D031 		ldr	r3, [r7, #464]	@ float
 145:diss_oxy.c    ****     "median reading:%f \r\nall readings (11): %f : %f : %f : %f : %f : %f : %f : %f : %f : %f : %f"
 600              		.loc 1 145 0
 601 019a 1846     		mov	r0, r3
 602 019c FFF7FEFF 		bl	__aeabi_f2d
 603 01a0 C7E90C01 		strd	r0, [r7, #48]
 604              		.loc 1 148 0
 605 01a4 D7F8D431 		ldr	r3, [r7, #468]	@ float
 145:diss_oxy.c    ****     "median reading:%f \r\nall readings (11): %f : %f : %f : %f : %f : %f : %f : %f : %f : %f : %f"
ARM GAS  C:\Users\dantz\AppData\Local\Temp\ccGcZMb9.s 			page 15


 606              		.loc 1 145 0
 607 01a8 1846     		mov	r0, r3
 608 01aa FFF7FEFF 		bl	__aeabi_f2d
 609 01ae C7E90A01 		strd	r0, [r7, #40]
 610              		.loc 1 148 0
 611 01b2 D7F8D831 		ldr	r3, [r7, #472]	@ float
 145:diss_oxy.c    ****     "median reading:%f \r\nall readings (11): %f : %f : %f : %f : %f : %f : %f : %f : %f : %f : %f"
 612              		.loc 1 145 0
 613 01b6 1846     		mov	r0, r3
 614 01b8 FFF7FEFF 		bl	__aeabi_f2d
 615 01bc C7E90801 		strd	r0, [r7, #32]
 149:diss_oxy.c    ****     results.all_do_readings[3], results.all_do_readings[4], results.all_do_readings[5], 
 616              		.loc 1 149 0
 617 01c0 D7F8DC31 		ldr	r3, [r7, #476]	@ float
 145:diss_oxy.c    ****     "median reading:%f \r\nall readings (11): %f : %f : %f : %f : %f : %f : %f : %f : %f : %f : %f"
 618              		.loc 1 145 0
 619 01c4 1846     		mov	r0, r3
 620 01c6 FFF7FEFF 		bl	__aeabi_f2d
 621 01ca C7E90601 		strd	r0, [r7, #24]
 622              		.loc 1 149 0
 623 01ce D7F8E031 		ldr	r3, [r7, #480]	@ float
 145:diss_oxy.c    ****     "median reading:%f \r\nall readings (11): %f : %f : %f : %f : %f : %f : %f : %f : %f : %f : %f"
 624              		.loc 1 145 0
 625 01d2 1846     		mov	r0, r3
 626 01d4 FFF7FEFF 		bl	__aeabi_f2d
 627 01d8 C7E90401 		strd	r0, [r7, #16]
 628              		.loc 1 149 0
 629 01dc D7F8E431 		ldr	r3, [r7, #484]	@ float
 145:diss_oxy.c    ****     "median reading:%f \r\nall readings (11): %f : %f : %f : %f : %f : %f : %f : %f : %f : %f : %f"
 630              		.loc 1 145 0
 631 01e0 1846     		mov	r0, r3
 632 01e2 FFF7FEFF 		bl	__aeabi_f2d
 633 01e6 C7E90201 		strd	r0, [r7, #8]
 150:diss_oxy.c    ****     results.all_do_readings[6], results.all_do_readings[7], results.all_do_readings[8], 
 634              		.loc 1 150 0
 635 01ea D7F8E831 		ldr	r3, [r7, #488]	@ float
 145:diss_oxy.c    ****     "median reading:%f \r\nall readings (11): %f : %f : %f : %f : %f : %f : %f : %f : %f : %f : %f"
 636              		.loc 1 145 0
 637 01ee 1846     		mov	r0, r3
 638 01f0 FFF7FEFF 		bl	__aeabi_f2d
 639 01f4 C7E90001 		strd	r0, [r7]
 640              		.loc 1 150 0
 641 01f8 D7F8EC31 		ldr	r3, [r7, #492]	@ float
 145:diss_oxy.c    ****     "median reading:%f \r\nall readings (11): %f : %f : %f : %f : %f : %f : %f : %f : %f : %f : %f"
 642              		.loc 1 145 0
 643 01fc 1846     		mov	r0, r3
 644 01fe FFF7FEFF 		bl	__aeabi_f2d
 645 0202 8246     		mov	r10, r0
 646 0204 8B46     		mov	fp, r1
 647              		.loc 1 150 0
 648 0206 D7F8F031 		ldr	r3, [r7, #496]	@ float
 145:diss_oxy.c    ****     "median reading:%f \r\nall readings (11): %f : %f : %f : %f : %f : %f : %f : %f : %f : %f : %f"
 649              		.loc 1 145 0
 650 020a 1846     		mov	r0, r3
 651 020c FFF7FEFF 		bl	__aeabi_f2d
 652 0210 8046     		mov	r8, r0
 653 0212 8946     		mov	r9, r1
ARM GAS  C:\Users\dantz\AppData\Local\Temp\ccGcZMb9.s 			page 16


 151:diss_oxy.c    ****     results.all_do_readings[9], results.all_do_readings[10]
 654              		.loc 1 151 0
 655 0214 D7F8F431 		ldr	r3, [r7, #500]	@ float
 145:diss_oxy.c    ****     "median reading:%f \r\nall readings (11): %f : %f : %f : %f : %f : %f : %f : %f : %f : %f : %f"
 656              		.loc 1 145 0
 657 0218 1846     		mov	r0, r3
 658 021a FFF7FEFF 		bl	__aeabi_f2d
 659 021e 0446     		mov	r4, r0
 660 0220 0D46     		mov	r5, r1
 661              		.loc 1 151 0
 662 0222 D7F8F831 		ldr	r3, [r7, #504]	@ float
 145:diss_oxy.c    ****     "median reading:%f \r\nall readings (11): %f : %f : %f : %f : %f : %f : %f : %f : %f : %f : %f"
 663              		.loc 1 145 0
 664 0226 1846     		mov	r0, r3
 665 0228 FFF7FEFF 		bl	__aeabi_f2d
 666 022c 0A46     		mov	r2, r1
 667 022e 0146     		mov	r1, r0
 668 0230 07F14C03 		add	r3, r7, #76
 669 0234 8133     		adds	r3, r3, #129
 670 0236 CDE91612 		strd	r1, [sp, #88]
 671 023a CDE91445 		strd	r4, [sp, #80]
 672 023e CDE91289 		strd	r8, [sp, #72]
 673 0242 CDE910AB 		strd	r10, [sp, #64]
 674 0246 D7E90012 		ldrd	r1, [r7]
 675 024a CDE90E12 		strd	r1, [sp, #56]
 676 024e D7E90212 		ldrd	r1, [r7, #8]
 677 0252 CDE90C12 		strd	r1, [sp, #48]
 678 0256 D7E90412 		ldrd	r1, [r7, #16]
 679 025a CDE90A12 		strd	r1, [sp, #40]
 680 025e D7E90612 		ldrd	r1, [r7, #24]
 681 0262 CDE90812 		strd	r1, [sp, #32]
 682 0266 D7E90812 		ldrd	r1, [r7, #32]
 683 026a CDE90612 		strd	r1, [sp, #24]
 684 026e D7E90A12 		ldrd	r1, [r7, #40]
 685 0272 CDE90412 		strd	r1, [sp, #16]
 686 0276 D7E90C12 		ldrd	r1, [r7, #48]
 687 027a CDE90212 		strd	r1, [sp, #8]
 688 027e D7E90E12 		ldrd	r1, [r7, #56]
 689 0282 CDE90012 		strd	r1, [sp]
 690 0286 124A     		ldr	r2, .L28+16
 691 0288 4FF48071 		mov	r1, #256
 692 028c 1846     		mov	r0, r3
 693 028e FFF7FEFF 		bl	snprintf
 152:diss_oxy.c    ****     );
 153:diss_oxy.c    ****     
 154:diss_oxy.c    ****     return test;
 694              		.loc 1 154 0
 695 0292 07F14403 		add	r3, r7, #68
 696 0296 1A68     		ldr	r2, [r3]
 697 0298 07F14C03 		add	r3, r7, #76
 698 029c 1046     		mov	r0, r2
 699 029e 1946     		mov	r1, r3
 700 02a0 40F28113 		movw	r3, #385
 701 02a4 1A46     		mov	r2, r3
 702 02a6 FFF7FEFF 		bl	memcpy
 703              	.L21:
 155:diss_oxy.c    ****     
ARM GAS  C:\Users\dantz\AppData\Local\Temp\ccGcZMb9.s 			page 17


 156:diss_oxy.c    **** }
 704              		.loc 1 156 0
 705 02aa 07F14403 		add	r3, r7, #68
 706 02ae 1868     		ldr	r0, [r3]
 707 02b0 07F50077 		add	r7, r7, #512
 708              		.cfi_def_cfa_offset 32
 709 02b4 BD46     		mov	sp, r7
 710              		.cfi_def_cfa_register 13
 711              		@ sp needed
 712 02b6 BDE8B08F 		pop	{r4, r5, r7, r8, r9, r10, fp, pc}
 713              	.L29:
 714 02ba 00BFAFF3 		.align	3
 714      0080
 715              	.L28:
 716 02c0 7B14AE47 		.word	1202590843
 717 02c4 E17A843F 		.word	1065646817
 718 02c8 20000000 		.word	.LC5
 719 02cc 9C000000 		.word	.LC6
 720 02d0 AC000000 		.word	.LC7
 721              		.cfi_endproc
 722              	.LFE69:
 723              		.size	DO_sensor_test, .-DO_sensor_test
 724              		.global	__aeabi_fsub
 725              		.global	__aeabi_dmul
 726              		.section	.rodata
 727              		.align	2
 728              	.LC8:
 729 0108 43616C2C 		.ascii	"Cal,clear\015\000"
 729      636C6561 
 729      720D00
 730 0113 00       		.align	2
 731              	.LC9:
 732 0114 43616C0D 		.ascii	"Cal\015\000"
 732      00
 733              		.global	__aeabi_fcmpgt
 734 0119 000000   		.align	2
 735              	.LC10:
 736 011c 53756363 		.ascii	"Successfully calibrated DO sensor\000"
 736      65737366 
 736      756C6C79 
 736      2063616C 
 736      69627261 
 737 013e 0000     		.align	2
 738              	.LC11:
 739 0140 63616C69 		.ascii	"calibrated DO reading: %f\015\012 Expected [9.0,9.3"
 739      62726174 
 739      65642044 
 739      4F207265 
 739      6164696E 
 740 016d 5D206D67 		.ascii	"] mg/L\000"
 740      2F4C00
 741              		.align	2
 742              	.LC12:
 743 0174 444F2072 		.ascii	"DO readings failed to converge\000"
 743      65616469 
 743      6E677320 
 743      6661696C 
ARM GAS  C:\Users\dantz\AppData\Local\Temp\ccGcZMb9.s 			page 18


 743      65642074 
 744              		.section	.text.DO_cal,"ax",%progbits
 745              		.align	2
 746              		.global	DO_cal
 747              		.thumb
 748              		.thumb_func
 749              		.type	DO_cal, %function
 750              	DO_cal:
 751              	.LFB70:
 157:diss_oxy.c    **** 
 158:diss_oxy.c    **** uint8 DO_cal(){
 752              		.loc 1 158 0
 753              		.cfi_startproc
 754              		@ args = 0, pretend = 0, frame = 104
 755              		@ frame_needed = 1, uses_anonymous_args = 0
 756 0000 B0B5     		push	{r4, r5, r7, lr}
 757              		.cfi_def_cfa_offset 16
 758              		.cfi_offset 4, -16
 759              		.cfi_offset 5, -12
 760              		.cfi_offset 7, -8
 761              		.cfi_offset 14, -4
 762 0002 9AB0     		sub	sp, sp, #104
 763              		.cfi_def_cfa_offset 120
 764 0004 00AF     		add	r7, sp, #0
 765              		.cfi_def_cfa_register 7
 766              	.LBB3:
 159:diss_oxy.c    **** 
 160:diss_oxy.c    ****     
 161:diss_oxy.c    ****     for (int i = 0; i < 2; i++){
 767              		.loc 1 161 0
 768 0006 0023     		movs	r3, #0
 769 0008 7B66     		str	r3, [r7, #100]
 770 000a 76E0     		b	.L31
 771              	.L39:
 772              	.LBB4:
 162:diss_oxy.c    ****         DO_sensor_t readings = DO_read();
 773              		.loc 1 162 0
 774 000c 3B46     		mov	r3, r7
 775 000e 1846     		mov	r0, r3
 776 0010 FFF7FEFF 		bl	DO_read
 163:diss_oxy.c    ****         // I'll take convergence as the range less than 5 percent the median
 164:diss_oxy.c    ****         // this is arbitrary but information we can already generate
 165:diss_oxy.c    ****         fsort(readings.all_do_readings,DO_N_READINGS); // sort it
 777              		.loc 1 165 0
 778 0014 3B46     		mov	r3, r7
 779 0016 0B21     		movs	r1, #11
 780 0018 1846     		mov	r0, r3
 781 001a FFF7FEFF 		bl	fsort
 166:diss_oxy.c    ****         float32 range = readings.all_do_readings[DO_N_READINGS-1] - readings.all_do_readings[0];
 782              		.loc 1 166 0
 783 001e BB6A     		ldr	r3, [r7, #40]	@ float
 784 0020 3A68     		ldr	r2, [r7]	@ float
 785 0022 1146     		mov	r1, r2
 786 0024 1846     		mov	r0, r3
 787 0026 FFF7FEFF 		bl	__aeabi_fsub
 788 002a 0346     		mov	r3, r0
 789 002c 3B66     		str	r3, [r7, #96]	@ float
ARM GAS  C:\Users\dantz\AppData\Local\Temp\ccGcZMb9.s 			page 19


 167:diss_oxy.c    ****         
 168:diss_oxy.c    ****         // we did it in less than two tries so it's converging quickly as expected
 169:diss_oxy.c    ****         // send calibration command and return 1 indicating success
 170:diss_oxy.c    ****         if (range < (0.05*readings.do_reading)){
 790              		.loc 1 170 0
 791 002e 386E     		ldr	r0, [r7, #96]	@ float
 792 0030 FFF7FEFF 		bl	__aeabi_f2d
 793 0034 0446     		mov	r4, r0
 794 0036 0D46     		mov	r5, r1
 795 0038 FB6A     		ldr	r3, [r7, #44]	@ float
 796 003a 1846     		mov	r0, r3
 797 003c FFF7FEFF 		bl	__aeabi_f2d
 798 0040 35A3     		adr	r3, .L44
 799 0042 D3E90023 		ldrd	r2, [r3]
 800 0046 FFF7FEFF 		bl	__aeabi_dmul
 801 004a 0246     		mov	r2, r0
 802 004c 0B46     		mov	r3, r1
 803 004e 2046     		mov	r0, r4
 804 0050 2946     		mov	r1, r5
 805 0052 FFF7FEFF 		bl	__aeabi_dcmplt
 806 0056 0346     		mov	r3, r0
 807 0058 002B     		cmp	r3, #0
 808 005a 4BD0     		beq	.L43
 809              	.LBB5:
 171:diss_oxy.c    ****             do_uart_clear(); // forget what you think you know
 810              		.loc 1 171 0
 811 005c FFF7FEFF 		bl	do_uart_clear
 172:diss_oxy.c    ****             DO_start_talking();
 812              		.loc 1 172 0
 813 0060 FFF7FEFF 		bl	DO_start_talking
 173:diss_oxy.c    ****             /*
 174:diss_oxy.c    ****             // char excerpt[100]; // for debugging
 175:diss_oxy.c    ****             //DO_UART_PutString("*OK,1\r"); // are you hearing me?
 176:diss_oxy.c    ****             // 
 177:diss_oxy.c    ****             //CyDelay(1000u); 
 178:diss_oxy.c    ****             */
 179:diss_oxy.c    ****             DO_UART_PutString("C,0\r"); // turn off automated sampling
 814              		.loc 1 179 0
 815 0064 3048     		ldr	r0, .L44+16
 816 0066 FFF7FEFF 		bl	DO_UART_PutString
 180:diss_oxy.c    ****             CyDelay(1000u); 
 817              		.loc 1 180 0
 818 006a 4FF47A70 		mov	r0, #1000
 819 006e FFF7FEFF 		bl	CyDelay
 181:diss_oxy.c    ****             DO_UART_PutString("Cal,clear\r"); // clear existing calibration data
 820              		.loc 1 181 0
 821 0072 2E48     		ldr	r0, .L44+20
 822 0074 FFF7FEFF 		bl	DO_UART_PutString
 182:diss_oxy.c    ****             CyDelay(1000u);
 823              		.loc 1 182 0
 824 0078 4FF47A70 		mov	r0, #1000
 825 007c FFF7FEFF 		bl	CyDelay
 183:diss_oxy.c    ****             DO_UART_PutString("Cal\r"); // calibrate to atmospheric oxygen
 826              		.loc 1 183 0
 827 0080 2B48     		ldr	r0, .L44+24
 828 0082 FFF7FEFF 		bl	DO_UART_PutString
 184:diss_oxy.c    ****             /*CyDelay(1000u); 
ARM GAS  C:\Users\dantz\AppData\Local\Temp\ccGcZMb9.s 			page 20


 185:diss_oxy.c    ****             // "temp, salinity, and pressure compensation values have no effect on calibration"
 186:diss_oxy.c    ****             DO_UART_PutString("T,?\r"); // compensated temp value?
 187:diss_oxy.c    ****             CyDelay(1000u); 
 188:diss_oxy.c    ****             //DO_UART_PutString("T,20\r"); // for some reason temp was set to 0 C
 189:diss_oxy.c    ****             //CyDelay(1000u); 
 190:diss_oxy.c    ****             //DO_UART_PutString("T,?\r"); // compensated temp value?
 191:diss_oxy.c    ****             //CyDelay(1000u); 
 192:diss_oxy.c    ****             DO_UART_PutString("S,?\r"); // salinity?
 193:diss_oxy.c    ****             CyDelay(1000u); 
 194:diss_oxy.c    ****             DO_UART_PutString("P,?\r"); // pressure?
 195:diss_oxy.c    ****             */
 196:diss_oxy.c    ****             CyDelay(2000u); 
 829              		.loc 1 196 0
 830 0086 4FF4FA60 		mov	r0, #2000
 831 008a FFF7FEFF 		bl	CyDelay
 197:diss_oxy.c    ****             DO_stop_talking();
 832              		.loc 1 197 0
 833 008e FFF7FEFF 		bl	DO_stop_talking
 198:diss_oxy.c    ****             // "After calibration is complete, you should see readings between 9.09 - 9.2 mg/l
 199:diss_oxy.c    ****             // if temperature, salinity, and pressure compensation are at default values"
 200:diss_oxy.c    ****             /*
 201:diss_oxy.c    ****             for (uint i = 0; i < 100; i++){
 202:diss_oxy.c    ****                 excerpt[i] = do_received_string[i];  
 203:diss_oxy.c    ****                 if (i>98u){
 204:diss_oxy.c    ****                     printNotif(NOTIF_TYPE_EVENT,"asdf");
 205:diss_oxy.c    ****                 }
 206:diss_oxy.c    ****             }
 207:diss_oxy.c    ****             */
 208:diss_oxy.c    ****             CyDelay(1000u);
 834              		.loc 1 208 0
 835 0092 4FF47A70 		mov	r0, #1000
 836 0096 FFF7FEFF 		bl	CyDelay
 209:diss_oxy.c    ****             DO_sensor_t calibrated = DO_read();
 837              		.loc 1 209 0
 838 009a 07F13003 		add	r3, r7, #48
 839 009e 1846     		mov	r0, r3
 840 00a0 FFF7FEFF 		bl	DO_read
 210:diss_oxy.c    ****             
 211:diss_oxy.c    ****             if (calibrated.do_reading > 9.0 && calibrated.do_reading < 9.3){
 841              		.loc 1 211 0
 842 00a4 FB6D     		ldr	r3, [r7, #92]	@ float
 843 00a6 2349     		ldr	r1, .L44+28
 844 00a8 1846     		mov	r0, r3
 845 00aa FFF7FEFF 		bl	__aeabi_fcmpgt
 846 00ae 0346     		mov	r3, r0
 847 00b0 002B     		cmp	r3, #0
 848 00b2 11D0     		beq	.L34
 849              		.loc 1 211 0 is_stmt 0 discriminator 1
 850 00b4 FB6D     		ldr	r3, [r7, #92]	@ float
 851 00b6 1846     		mov	r0, r3
 852 00b8 FFF7FEFF 		bl	__aeabi_f2d
 853 00bc 18A3     		adr	r3, .L44+8
 854 00be D3E90023 		ldrd	r2, [r3]
 855 00c2 FFF7FEFF 		bl	__aeabi_dcmplt
 856 00c6 0346     		mov	r3, r0
 857 00c8 002B     		cmp	r3, #0
 858 00ca 05D0     		beq	.L34
ARM GAS  C:\Users\dantz\AppData\Local\Temp\ccGcZMb9.s 			page 21


 212:diss_oxy.c    ****                 printNotif(NOTIF_TYPE_EVENT, "Successfully calibrated DO sensor");
 859              		.loc 1 212 0 is_stmt 1
 860 00cc 1A49     		ldr	r1, .L44+32
 861 00ce 0020     		movs	r0, #0
 862 00d0 FFF7FEFF 		bl	printNotif
 213:diss_oxy.c    ****                 return 1;
 863              		.loc 1 213 0
 864 00d4 0123     		movs	r3, #1
 865 00d6 18E0     		b	.L38
 866              	.L34:
 214:diss_oxy.c    ****             }
 215:diss_oxy.c    ****             // if we didn't get what we expected, let us know what we did get
 216:diss_oxy.c    ****             printNotif(NOTIF_TYPE_ERROR, "calibrated DO reading: %f\r\n Expected [9.0,9.3] mg/L", c
 867              		.loc 1 216 0
 868 00d8 FB6D     		ldr	r3, [r7, #92]	@ float
 869 00da 1846     		mov	r0, r3
 870 00dc FFF7FEFF 		bl	__aeabi_f2d
 871 00e0 0346     		mov	r3, r0
 872 00e2 0C46     		mov	r4, r1
 873 00e4 1A46     		mov	r2, r3
 874 00e6 2346     		mov	r3, r4
 875 00e8 1449     		ldr	r1, .L44+36
 876 00ea 0220     		movs	r0, #2
 877 00ec FFF7FEFF 		bl	printNotif
 217:diss_oxy.c    ****             return 0;
 878              		.loc 1 217 0
 879 00f0 0023     		movs	r3, #0
 880 00f2 0AE0     		b	.L38
 881              	.L43:
 882              	.LBE5:
 883              	.LBE4:
 161:diss_oxy.c    ****         DO_sensor_t readings = DO_read();
 884              		.loc 1 161 0
 885 00f4 7B6E     		ldr	r3, [r7, #100]
 886 00f6 0133     		adds	r3, r3, #1
 887 00f8 7B66     		str	r3, [r7, #100]
 888              	.L31:
 161:diss_oxy.c    ****         DO_sensor_t readings = DO_read();
 889              		.loc 1 161 0 is_stmt 0 discriminator 1
 890 00fa 7B6E     		ldr	r3, [r7, #100]
 891 00fc 012B     		cmp	r3, #1
 892 00fe 85DD     		ble	.L39
 893              	.LBE3:
 218:diss_oxy.c    ****             
 219:diss_oxy.c    ****         }
 220:diss_oxy.c    ****     
 221:diss_oxy.c    ****     }
 222:diss_oxy.c    ****     
 223:diss_oxy.c    ****     printNotif(NOTIF_TYPE_ERROR, "DO readings failed to converge");
 894              		.loc 1 223 0 is_stmt 1
 895 0100 0F49     		ldr	r1, .L44+40
 896 0102 0220     		movs	r0, #2
 897 0104 FFF7FEFF 		bl	printNotif
 224:diss_oxy.c    ****     return 0;   
 898              		.loc 1 224 0
 899 0108 0023     		movs	r3, #0
 900              	.L38:
ARM GAS  C:\Users\dantz\AppData\Local\Temp\ccGcZMb9.s 			page 22


 225:diss_oxy.c    **** }
 901              		.loc 1 225 0 discriminator 2
 902 010a 1846     		mov	r0, r3
 903 010c 6837     		adds	r7, r7, #104
 904              		.cfi_def_cfa_offset 16
 905 010e BD46     		mov	sp, r7
 906              		.cfi_def_cfa_register 13
 907              		@ sp needed
 908 0110 B0BD     		pop	{r4, r5, r7, pc}
 909              	.L45:
 910 0112 00BFAFF3 		.align	3
 910      0080
 911              	.L44:
 912 0118 9A999999 		.word	-1717986918
 913 011c 9999A93F 		.word	1068079513
 914 0120 9A999999 		.word	-1717986918
 915 0124 99992240 		.word	1076009369
 916 0128 00000000 		.word	.LC0
 917 012c 08010000 		.word	.LC8
 918 0130 14010000 		.word	.LC9
 919 0134 00001041 		.word	1091567616
 920 0138 1C010000 		.word	.LC10
 921 013c 40010000 		.word	.LC11
 922 0140 74010000 		.word	.LC12
 923              		.cfi_endproc
 924              	.LFE70:
 925              		.size	DO_cal, .-DO_cal
 926              		.global	__aeabi_fadd
 927              		.global	__aeabi_fdiv
 928              		.section	.text.float_find_median,"ax",%progbits
 929              		.align	2
 930              		.global	float_find_median
 931              		.thumb
 932              		.thumb_func
 933              		.type	float_find_median, %function
 934              	float_find_median:
 935              	.LFB71:
 226:diss_oxy.c    **** 
 227:diss_oxy.c    **** 
 228:diss_oxy.c    **** // code for finding medians duplicated from level_sensor because we need floats not longs
 229:diss_oxy.c    **** 
 230:diss_oxy.c    **** // function to calculate the median of the array, after array is sorted
 231:diss_oxy.c    **** float32 float_find_median(float32 array[] , uint8 n){
 936              		.loc 1 231 0
 937              		.cfi_startproc
 938              		@ args = 0, pretend = 0, frame = 16
 939              		@ frame_needed = 1, uses_anonymous_args = 0
 940 0000 80B5     		push	{r7, lr}
 941              		.cfi_def_cfa_offset 8
 942              		.cfi_offset 7, -8
 943              		.cfi_offset 14, -4
 944 0002 84B0     		sub	sp, sp, #16
 945              		.cfi_def_cfa_offset 24
 946 0004 00AF     		add	r7, sp, #0
 947              		.cfi_def_cfa_register 7
 948 0006 7860     		str	r0, [r7, #4]
 949 0008 0B46     		mov	r3, r1
ARM GAS  C:\Users\dantz\AppData\Local\Temp\ccGcZMb9.s 			page 23


 950 000a FB70     		strb	r3, [r7, #3]
 232:diss_oxy.c    ****     float32 median=0;
 951              		.loc 1 232 0
 952 000c 4FF00003 		mov	r3, #0
 953 0010 FB60     		str	r3, [r7, #12]	@ float
 233:diss_oxy.c    ****     fsort(array,n);
 954              		.loc 1 233 0
 955 0012 FB78     		ldrb	r3, [r7, #3]	@ zero_extendqisi2
 956 0014 1946     		mov	r1, r3
 957 0016 7868     		ldr	r0, [r7, #4]
 958 0018 FFF7FEFF 		bl	fsort
 234:diss_oxy.c    ****     
 235:diss_oxy.c    ****     // if number of elements are even
 236:diss_oxy.c    ****     if(n%2 == 0)
 959              		.loc 1 236 0
 960 001c FB78     		ldrb	r3, [r7, #3]
 961 001e 03F00103 		and	r3, r3, #1
 962 0022 DBB2     		uxtb	r3, r3
 963 0024 002B     		cmp	r3, #0
 964 0026 1BD1     		bne	.L47
 237:diss_oxy.c    ****         // median is the average of the  two middle sorted numbers
 238:diss_oxy.c    ****         median = (array[(n-1)/2] + array[n/2])/2.0;
 965              		.loc 1 238 0
 966 0028 FB78     		ldrb	r3, [r7, #3]	@ zero_extendqisi2
 967 002a 013B     		subs	r3, r3, #1
 968 002c DA0F     		lsrs	r2, r3, #31
 969 002e 1344     		add	r3, r3, r2
 970 0030 5B10     		asrs	r3, r3, #1
 971 0032 9B00     		lsls	r3, r3, #2
 972 0034 7A68     		ldr	r2, [r7, #4]
 973 0036 1344     		add	r3, r3, r2
 974 0038 1868     		ldr	r0, [r3]	@ float
 975 003a FB78     		ldrb	r3, [r7, #3]	@ zero_extendqisi2
 976 003c 5B08     		lsrs	r3, r3, #1
 977 003e DBB2     		uxtb	r3, r3
 978 0040 9B00     		lsls	r3, r3, #2
 979 0042 7A68     		ldr	r2, [r7, #4]
 980 0044 1344     		add	r3, r3, r2
 981 0046 1B68     		ldr	r3, [r3]	@ float
 982 0048 1946     		mov	r1, r3
 983 004a FFF7FEFF 		bl	__aeabi_fadd
 984 004e 0346     		mov	r3, r0
 985 0050 4FF08041 		mov	r1, #1073741824
 986 0054 1846     		mov	r0, r3
 987 0056 FFF7FEFF 		bl	__aeabi_fdiv
 988 005a 0346     		mov	r3, r0
 989 005c FB60     		str	r3, [r7, #12]	@ float
 990 005e 07E0     		b	.L48
 991              	.L47:
 239:diss_oxy.c    ****     // if number of elements are odd
 240:diss_oxy.c    ****     else
 241:diss_oxy.c    ****         // median is the the middle sorted number 
 242:diss_oxy.c    ****         median = array[n/2];
 992              		.loc 1 242 0
 993 0060 FB78     		ldrb	r3, [r7, #3]	@ zero_extendqisi2
 994 0062 5B08     		lsrs	r3, r3, #1
 995 0064 DBB2     		uxtb	r3, r3
ARM GAS  C:\Users\dantz\AppData\Local\Temp\ccGcZMb9.s 			page 24


 996 0066 9B00     		lsls	r3, r3, #2
 997 0068 7A68     		ldr	r2, [r7, #4]
 998 006a 1344     		add	r3, r3, r2
 999 006c 1B68     		ldr	r3, [r3]	@ float
 1000 006e FB60     		str	r3, [r7, #12]	@ float
 1001              	.L48:
 243:diss_oxy.c    ****     
 244:diss_oxy.c    ****     return median;
 1002              		.loc 1 244 0
 1003 0070 FB68     		ldr	r3, [r7, #12]	@ float
 245:diss_oxy.c    **** }
 1004              		.loc 1 245 0
 1005 0072 1846     		mov	r0, r3
 1006 0074 1037     		adds	r7, r7, #16
 1007              		.cfi_def_cfa_offset 8
 1008 0076 BD46     		mov	sp, r7
 1009              		.cfi_def_cfa_register 13
 1010              		@ sp needed
 1011 0078 80BD     		pop	{r7, pc}
 1012              		.cfi_endproc
 1013              	.LFE71:
 1014              		.size	float_find_median, .-float_find_median
 1015 007a 00BF     		.section	.text.fsort,"ax",%progbits
 1016              		.align	2
 1017              		.global	fsort
 1018              		.thumb
 1019              		.thumb_func
 1020              		.type	fsort, %function
 1021              	fsort:
 1022              	.LFB72:
 246:diss_oxy.c    **** 
 247:diss_oxy.c    **** // function to sort the elements in the level readings array
 248:diss_oxy.c    **** void fsort(float32 a[],uint8 n) { 
 1023              		.loc 1 248 0
 1024              		.cfi_startproc
 1025              		@ args = 0, pretend = 0, frame = 16
 1026              		@ frame_needed = 1, uses_anonymous_args = 0
 1027 0000 80B5     		push	{r7, lr}
 1028              		.cfi_def_cfa_offset 8
 1029              		.cfi_offset 7, -8
 1030              		.cfi_offset 14, -4
 1031 0002 84B0     		sub	sp, sp, #16
 1032              		.cfi_def_cfa_offset 24
 1033 0004 00AF     		add	r7, sp, #0
 1034              		.cfi_def_cfa_register 7
 1035 0006 7860     		str	r0, [r7, #4]
 1036 0008 0B46     		mov	r3, r1
 1037 000a FB70     		strb	r3, [r7, #3]
 249:diss_oxy.c    ****    uint8 i,j;
 250:diss_oxy.c    **** 
 251:diss_oxy.c    ****    for(i = 0;i < n-1;i++) {
 1038              		.loc 1 251 0
 1039 000c 0023     		movs	r3, #0
 1040 000e FB73     		strb	r3, [r7, #15]
 1041 0010 2CE0     		b	.L51
 1042              	.L56:
 252:diss_oxy.c    ****       for(j = 0;j < n-i-1;j++) {
ARM GAS  C:\Users\dantz\AppData\Local\Temp\ccGcZMb9.s 			page 25


 1043              		.loc 1 252 0
 1044 0012 0023     		movs	r3, #0
 1045 0014 BB73     		strb	r3, [r7, #14]
 1046 0016 1FE0     		b	.L52
 1047              	.L55:
 253:diss_oxy.c    ****          if(a[j] > a[j+1])
 1048              		.loc 1 253 0
 1049 0018 BB7B     		ldrb	r3, [r7, #14]	@ zero_extendqisi2
 1050 001a 9B00     		lsls	r3, r3, #2
 1051 001c 7A68     		ldr	r2, [r7, #4]
 1052 001e 1344     		add	r3, r3, r2
 1053 0020 1868     		ldr	r0, [r3]	@ float
 1054 0022 BB7B     		ldrb	r3, [r7, #14]	@ zero_extendqisi2
 1055 0024 0133     		adds	r3, r3, #1
 1056 0026 9B00     		lsls	r3, r3, #2
 1057 0028 7A68     		ldr	r2, [r7, #4]
 1058 002a 1344     		add	r3, r3, r2
 1059 002c 1B68     		ldr	r3, [r3]	@ float
 1060 002e 1946     		mov	r1, r3
 1061 0030 FFF7FEFF 		bl	__aeabi_fcmpgt
 1062 0034 0346     		mov	r3, r0
 1063 0036 002B     		cmp	r3, #0
 1064 0038 0BD0     		beq	.L53
 254:diss_oxy.c    ****             fswap(&a[j],&a[j+1]); // swap the address of a[j] and a[j+1]
 1065              		.loc 1 254 0
 1066 003a BB7B     		ldrb	r3, [r7, #14]	@ zero_extendqisi2
 1067 003c 9B00     		lsls	r3, r3, #2
 1068 003e 7A68     		ldr	r2, [r7, #4]
 1069 0040 D018     		adds	r0, r2, r3
 1070 0042 BB7B     		ldrb	r3, [r7, #14]	@ zero_extendqisi2
 1071 0044 0133     		adds	r3, r3, #1
 1072 0046 9B00     		lsls	r3, r3, #2
 1073 0048 7A68     		ldr	r2, [r7, #4]
 1074 004a 1344     		add	r3, r3, r2
 1075 004c 1946     		mov	r1, r3
 1076 004e FFF7FEFF 		bl	fswap
 1077              	.L53:
 252:diss_oxy.c    ****       for(j = 0;j < n-i-1;j++) {
 1078              		.loc 1 252 0 discriminator 2
 1079 0052 BB7B     		ldrb	r3, [r7, #14]	@ zero_extendqisi2
 1080 0054 0133     		adds	r3, r3, #1
 1081 0056 BB73     		strb	r3, [r7, #14]
 1082              	.L52:
 252:diss_oxy.c    ****       for(j = 0;j < n-i-1;j++) {
 1083              		.loc 1 252 0 is_stmt 0 discriminator 1
 1084 0058 BA7B     		ldrb	r2, [r7, #14]	@ zero_extendqisi2
 1085 005a F978     		ldrb	r1, [r7, #3]	@ zero_extendqisi2
 1086 005c FB7B     		ldrb	r3, [r7, #15]	@ zero_extendqisi2
 1087 005e CB1A     		subs	r3, r1, r3
 1088 0060 013B     		subs	r3, r3, #1
 1089 0062 9A42     		cmp	r2, r3
 1090 0064 D8DB     		blt	.L55
 251:diss_oxy.c    ****       for(j = 0;j < n-i-1;j++) {
 1091              		.loc 1 251 0 is_stmt 1 discriminator 2
 1092 0066 FB7B     		ldrb	r3, [r7, #15]	@ zero_extendqisi2
 1093 0068 0133     		adds	r3, r3, #1
 1094 006a FB73     		strb	r3, [r7, #15]
ARM GAS  C:\Users\dantz\AppData\Local\Temp\ccGcZMb9.s 			page 26


 1095              	.L51:
 251:diss_oxy.c    ****       for(j = 0;j < n-i-1;j++) {
 1096              		.loc 1 251 0 is_stmt 0 discriminator 1
 1097 006c FA7B     		ldrb	r2, [r7, #15]	@ zero_extendqisi2
 1098 006e FB78     		ldrb	r3, [r7, #3]	@ zero_extendqisi2
 1099 0070 013B     		subs	r3, r3, #1
 1100 0072 9A42     		cmp	r2, r3
 1101 0074 CDDB     		blt	.L56
 255:diss_oxy.c    ****       }
 256:diss_oxy.c    ****    }
 257:diss_oxy.c    **** }
 1102              		.loc 1 257 0 is_stmt 1
 1103 0076 00BF     		nop
 1104 0078 1037     		adds	r7, r7, #16
 1105              		.cfi_def_cfa_offset 8
 1106 007a BD46     		mov	sp, r7
 1107              		.cfi_def_cfa_register 13
 1108              		@ sp needed
 1109 007c 80BD     		pop	{r7, pc}
 1110              		.cfi_endproc
 1111              	.LFE72:
 1112              		.size	fsort, .-fsort
 1113 007e 00BF     		.section	.text.fswap,"ax",%progbits
 1114              		.align	2
 1115              		.global	fswap
 1116              		.thumb
 1117              		.thumb_func
 1118              		.type	fswap, %function
 1119              	fswap:
 1120              	.LFB73:
 258:diss_oxy.c    **** 
 259:diss_oxy.c    **** // function to swap elements in the level readings array in order to sort them
 260:diss_oxy.c    **** void fswap(float32 *p,float32 *q) {
 1121              		.loc 1 260 0
 1122              		.cfi_startproc
 1123              		@ args = 0, pretend = 0, frame = 16
 1124              		@ frame_needed = 1, uses_anonymous_args = 0
 1125              		@ link register save eliminated.
 1126 0000 80B4     		push	{r7}
 1127              		.cfi_def_cfa_offset 4
 1128              		.cfi_offset 7, -4
 1129 0002 85B0     		sub	sp, sp, #20
 1130              		.cfi_def_cfa_offset 24
 1131 0004 00AF     		add	r7, sp, #0
 1132              		.cfi_def_cfa_register 7
 1133 0006 7860     		str	r0, [r7, #4]
 1134 0008 3960     		str	r1, [r7]
 261:diss_oxy.c    ****    float32 t;
 262:diss_oxy.c    ****    
 263:diss_oxy.c    ****    t=*p; 
 1135              		.loc 1 263 0
 1136 000a 7B68     		ldr	r3, [r7, #4]
 1137 000c 1B68     		ldr	r3, [r3]	@ float
 1138 000e FB60     		str	r3, [r7, #12]	@ float
 264:diss_oxy.c    ****    *p=*q; 
 1139              		.loc 1 264 0
 1140 0010 3B68     		ldr	r3, [r7]
ARM GAS  C:\Users\dantz\AppData\Local\Temp\ccGcZMb9.s 			page 27


 1141 0012 1A68     		ldr	r2, [r3]	@ float
 1142 0014 7B68     		ldr	r3, [r7, #4]
 1143 0016 1A60     		str	r2, [r3]	@ float
 265:diss_oxy.c    ****    *q=t;
 1144              		.loc 1 265 0
 1145 0018 3B68     		ldr	r3, [r7]
 1146 001a FA68     		ldr	r2, [r7, #12]	@ float
 1147 001c 1A60     		str	r2, [r3]	@ float
 266:diss_oxy.c    **** }
 1148              		.loc 1 266 0
 1149 001e 00BF     		nop
 1150 0020 1437     		adds	r7, r7, #20
 1151              		.cfi_def_cfa_offset 4
 1152 0022 BD46     		mov	sp, r7
 1153              		.cfi_def_cfa_register 13
 1154              		@ sp needed
 1155 0024 80BC     		pop	{r7}
 1156              		.cfi_restore 7
 1157              		.cfi_def_cfa_offset 0
 1158 0026 7047     		bx	lr
 1159              		.cfi_endproc
 1160              	.LFE73:
 1161              		.size	fswap, .-fswap
 1162              		.text
 1163              	.Letext0:
 1164              		.file 2 "c:\\program files (x86)\\cypress\\psoc creator\\4.4\\psoc creator\\import\\gnu\\arm\\5.4.
 1165              		.file 3 "c:\\program files (x86)\\cypress\\psoc creator\\4.4\\psoc creator\\import\\gnu\\arm\\5.4.
 1166              		.file 4 "Generated_Source\\PSoC5/cytypes.h"
 1167              		.file 5 "testing.h"
 1168              		.file 6 "data.h"
 1169              		.file 7 "modem.h"
 1170              		.file 8 "diss_oxy.h"
 1171              		.file 9 "notoriOS.h"
 1172              		.file 10 "Generated_Source\\PSoC5/core_cm3.h"
 1173              		.section	.debug_info,"",%progbits
 1174              	.Ldebug_info0:
 1175 0000 72070000 		.4byte	0x772
 1176 0004 0400     		.2byte	0x4
 1177 0006 00000000 		.4byte	.Ldebug_abbrev0
 1178 000a 04       		.byte	0x4
 1179 000b 01       		.uleb128 0x1
 1180 000c 87000000 		.4byte	.LASF101
 1181 0010 0C       		.byte	0xc
 1182 0011 7C000000 		.4byte	.LASF102
 1183 0015 ED010000 		.4byte	.LASF103
 1184 0019 00000000 		.4byte	.Ldebug_ranges0+0
 1185 001d 00000000 		.4byte	0
 1186 0021 00000000 		.4byte	.Ldebug_line0
 1187 0025 02       		.uleb128 0x2
 1188 0026 01       		.byte	0x1
 1189 0027 06       		.byte	0x6
 1190 0028 CF020000 		.4byte	.LASF0
 1191 002c 02       		.uleb128 0x2
 1192 002d 01       		.byte	0x1
 1193 002e 08       		.byte	0x8
 1194 002f 7D020000 		.4byte	.LASF1
 1195 0033 02       		.uleb128 0x2
ARM GAS  C:\Users\dantz\AppData\Local\Temp\ccGcZMb9.s 			page 28


 1196 0034 02       		.byte	0x2
 1197 0035 05       		.byte	0x5
 1198 0036 61000000 		.4byte	.LASF2
 1199 003a 02       		.uleb128 0x2
 1200 003b 02       		.byte	0x2
 1201 003c 07       		.byte	0x7
 1202 003d 8D030000 		.4byte	.LASF3
 1203 0041 03       		.uleb128 0x3
 1204 0042 B2040000 		.4byte	.LASF9
 1205 0046 02       		.byte	0x2
 1206 0047 3F       		.byte	0x3f
 1207 0048 4C000000 		.4byte	0x4c
 1208 004c 02       		.uleb128 0x2
 1209 004d 04       		.byte	0x4
 1210 004e 05       		.byte	0x5
 1211 004f C9010000 		.4byte	.LASF4
 1212 0053 02       		.uleb128 0x2
 1213 0054 04       		.byte	0x4
 1214 0055 07       		.byte	0x7
 1215 0056 59040000 		.4byte	.LASF5
 1216 005a 02       		.uleb128 0x2
 1217 005b 08       		.byte	0x8
 1218 005c 05       		.byte	0x5
 1219 005d 9C010000 		.4byte	.LASF6
 1220 0061 02       		.uleb128 0x2
 1221 0062 08       		.byte	0x8
 1222 0063 07       		.byte	0x7
 1223 0064 DB020000 		.4byte	.LASF7
 1224 0068 04       		.uleb128 0x4
 1225 0069 04       		.byte	0x4
 1226 006a 05       		.byte	0x5
 1227 006b 696E7400 		.ascii	"int\000"
 1228 006f 02       		.uleb128 0x2
 1229 0070 04       		.byte	0x4
 1230 0071 07       		.byte	0x7
 1231 0072 1F030000 		.4byte	.LASF8
 1232 0076 03       		.uleb128 0x3
 1233 0077 F0030000 		.4byte	.LASF10
 1234 007b 03       		.byte	0x3
 1235 007c 2C       		.byte	0x2c
 1236 007d 41000000 		.4byte	0x41
 1237 0081 05       		.uleb128 0x5
 1238 0082 52010000 		.4byte	.LASF11
 1239 0086 04       		.byte	0x4
 1240 0087 9201     		.2byte	0x192
 1241 0089 2C000000 		.4byte	0x2c
 1242 008d 05       		.uleb128 0x5
 1243 008e 3D010000 		.4byte	.LASF12
 1244 0092 04       		.byte	0x4
 1245 0093 9301     		.2byte	0x193
 1246 0095 3A000000 		.4byte	0x3a
 1247 0099 05       		.uleb128 0x5
 1248 009a AA010000 		.4byte	.LASF13
 1249 009e 04       		.byte	0x4
 1250 009f 9601     		.2byte	0x196
 1251 00a1 33000000 		.4byte	0x33
 1252 00a5 05       		.uleb128 0x5
ARM GAS  C:\Users\dantz\AppData\Local\Temp\ccGcZMb9.s 			page 29


 1253 00a6 96010000 		.4byte	.LASF14
 1254 00aa 04       		.byte	0x4
 1255 00ab 9701     		.2byte	0x197
 1256 00ad 4C000000 		.4byte	0x4c
 1257 00b1 05       		.uleb128 0x5
 1258 00b2 2D000000 		.4byte	.LASF15
 1259 00b6 04       		.byte	0x4
 1260 00b7 9801     		.2byte	0x198
 1261 00b9 BD000000 		.4byte	0xbd
 1262 00bd 02       		.uleb128 0x2
 1263 00be 04       		.byte	0x4
 1264 00bf 04       		.byte	0x4
 1265 00c0 80010000 		.4byte	.LASF16
 1266 00c4 02       		.uleb128 0x2
 1267 00c5 08       		.byte	0x8
 1268 00c6 04       		.byte	0x4
 1269 00c7 6B040000 		.4byte	.LASF17
 1270 00cb 02       		.uleb128 0x2
 1271 00cc 01       		.byte	0x1
 1272 00cd 08       		.byte	0x8
 1273 00ce BD010000 		.4byte	.LASF18
 1274 00d2 02       		.uleb128 0x2
 1275 00d3 08       		.byte	0x8
 1276 00d4 04       		.byte	0x4
 1277 00d5 5F020000 		.4byte	.LASF19
 1278 00d9 02       		.uleb128 0x2
 1279 00da 04       		.byte	0x4
 1280 00db 07       		.byte	0x7
 1281 00dc 6B000000 		.4byte	.LASF20
 1282 00e0 06       		.uleb128 0x6
 1283 00e1 04       		.byte	0x4
 1284 00e2 CB000000 		.4byte	0xcb
 1285 00e6 07       		.uleb128 0x7
 1286 00e7 CB000000 		.4byte	0xcb
 1287 00eb F6000000 		.4byte	0xf6
 1288 00ef 08       		.uleb128 0x8
 1289 00f0 D9000000 		.4byte	0xd9
 1290 00f4 17       		.byte	0x17
 1291 00f5 00       		.byte	0
 1292 00f6 09       		.uleb128 0x9
 1293 00f7 8101     		.2byte	0x181
 1294 00f9 05       		.byte	0x5
 1295 00fa 0A       		.byte	0xa
 1296 00fb 24010000 		.4byte	0x124
 1297 00ff 0A       		.uleb128 0xa
 1298 0100 EF040000 		.4byte	.LASF21
 1299 0104 05       		.byte	0x5
 1300 0105 0C       		.byte	0xc
 1301 0106 24010000 		.4byte	0x124
 1302 010a 00       		.byte	0
 1303 010b 0A       		.uleb128 0xa
 1304 010c B8030000 		.4byte	.LASF22
 1305 0110 05       		.byte	0x5
 1306 0111 0D       		.byte	0xd
 1307 0112 81000000 		.4byte	0x81
 1308 0116 80       		.byte	0x80
 1309 0117 0A       		.uleb128 0xa
ARM GAS  C:\Users\dantz\AppData\Local\Temp\ccGcZMb9.s 			page 30


 1310 0118 C2010000 		.4byte	.LASF23
 1311 011c 05       		.byte	0x5
 1312 011d 0F       		.byte	0xf
 1313 011e 34010000 		.4byte	0x134
 1314 0122 81       		.byte	0x81
 1315 0123 00       		.byte	0
 1316 0124 07       		.uleb128 0x7
 1317 0125 CB000000 		.4byte	0xcb
 1318 0129 34010000 		.4byte	0x134
 1319 012d 08       		.uleb128 0x8
 1320 012e D9000000 		.4byte	0xd9
 1321 0132 7F       		.byte	0x7f
 1322 0133 00       		.byte	0
 1323 0134 07       		.uleb128 0x7
 1324 0135 CB000000 		.4byte	0xcb
 1325 0139 44010000 		.4byte	0x144
 1326 013d 08       		.uleb128 0x8
 1327 013e D9000000 		.4byte	0xd9
 1328 0142 FF       		.byte	0xff
 1329 0143 00       		.byte	0
 1330 0144 03       		.uleb128 0x3
 1331 0145 E8040000 		.4byte	.LASF24
 1332 0149 05       		.byte	0x5
 1333 014a 10       		.byte	0x10
 1334 014b F6000000 		.4byte	0xf6
 1335 014f 0B       		.uleb128 0xb
 1336 0150 2C       		.byte	0x2c
 1337 0151 06       		.byte	0x6
 1338 0152 14       		.byte	0x14
 1339 0153 7C010000 		.4byte	0x17c
 1340 0157 0C       		.uleb128 0xc
 1341 0158 6B657900 		.ascii	"key\000"
 1342 015c 06       		.byte	0x6
 1343 015d 15       		.byte	0x15
 1344 015e 7C010000 		.4byte	0x17c
 1345 0162 00       		.byte	0
 1346 0163 0A       		.uleb128 0xa
 1347 0164 37010000 		.4byte	.LASF25
 1348 0168 06       		.byte	0x6
 1349 0169 16       		.byte	0x16
 1350 016a 7C010000 		.4byte	0x17c
 1351 016e 14       		.byte	0x14
 1352 016f 0A       		.uleb128 0xa
 1353 0170 5D010000 		.4byte	.LASF26
 1354 0174 06       		.byte	0x6
 1355 0175 17       		.byte	0x17
 1356 0176 A5000000 		.4byte	0xa5
 1357 017a 28       		.byte	0x28
 1358 017b 00       		.byte	0
 1359 017c 07       		.uleb128 0x7
 1360 017d CB000000 		.4byte	0xcb
 1361 0181 8C010000 		.4byte	0x18c
 1362 0185 08       		.uleb128 0x8
 1363 0186 D9000000 		.4byte	0xd9
 1364 018a 13       		.byte	0x13
 1365 018b 00       		.byte	0
 1366 018c 03       		.uleb128 0x3
ARM GAS  C:\Users\dantz\AppData\Local\Temp\ccGcZMb9.s 			page 31


 1367 018d 2C030000 		.4byte	.LASF27
 1368 0191 06       		.byte	0x6
 1369 0192 19       		.byte	0x19
 1370 0193 4F010000 		.4byte	0x14f
 1371 0197 0B       		.uleb128 0xb
 1372 0198 3C       		.byte	0x3c
 1373 0199 07       		.byte	0x7
 1374 019a 37       		.byte	0x37
 1375 019b C4010000 		.4byte	0x1c4
 1376 019f 0A       		.uleb128 0xa
 1377 01a0 10000000 		.4byte	.LASF28
 1378 01a4 07       		.byte	0x7
 1379 01a5 38       		.byte	0x38
 1380 01a6 7C010000 		.4byte	0x17c
 1381 01aa 00       		.byte	0
 1382 01ab 0A       		.uleb128 0xa
 1383 01ac 00000000 		.4byte	.LASF29
 1384 01b0 07       		.byte	0x7
 1385 01b1 39       		.byte	0x39
 1386 01b2 7C010000 		.4byte	0x17c
 1387 01b6 14       		.byte	0x14
 1388 01b7 0A       		.uleb128 0xa
 1389 01b8 EB030000 		.4byte	.LASF30
 1390 01bc 07       		.byte	0x7
 1391 01bd 3A       		.byte	0x3a
 1392 01be 7C010000 		.4byte	0x17c
 1393 01c2 28       		.byte	0x28
 1394 01c3 00       		.byte	0
 1395 01c4 03       		.uleb128 0x3
 1396 01c5 97040000 		.4byte	.LASF31
 1397 01c9 07       		.byte	0x7
 1398 01ca 3C       		.byte	0x3c
 1399 01cb 97010000 		.4byte	0x197
 1400 01cf 0B       		.uleb128 0xb
 1401 01d0 20       		.byte	0x20
 1402 01d1 07       		.byte	0x7
 1403 01d2 3E       		.byte	0x3e
 1404 01d3 38020000 		.4byte	0x238
 1405 01d7 0A       		.uleb128 0xa
 1406 01d8 38030000 		.4byte	.LASF32
 1407 01dc 07       		.byte	0x7
 1408 01dd 3F       		.byte	0x3f
 1409 01de 68000000 		.4byte	0x68
 1410 01e2 00       		.byte	0
 1411 01e3 0C       		.uleb128 0xc
 1412 01e4 62657200 		.ascii	"ber\000"
 1413 01e8 07       		.byte	0x7
 1414 01e9 40       		.byte	0x40
 1415 01ea 68000000 		.4byte	0x68
 1416 01ee 04       		.byte	0x4
 1417 01ef 0A       		.uleb128 0xa
 1418 01f0 58010000 		.4byte	.LASF33
 1419 01f4 07       		.byte	0x7
 1420 01f5 41       		.byte	0x41
 1421 01f6 68000000 		.4byte	0x68
 1422 01fa 08       		.byte	0x8
 1423 01fb 0A       		.uleb128 0xa
ARM GAS  C:\Users\dantz\AppData\Local\Temp\ccGcZMb9.s 			page 32


 1424 01fc 32010000 		.4byte	.LASF34
 1425 0200 07       		.byte	0x7
 1426 0201 42       		.byte	0x42
 1427 0202 68000000 		.4byte	0x68
 1428 0206 0C       		.byte	0xc
 1429 0207 0A       		.uleb128 0xa
 1430 0208 2E040000 		.4byte	.LASF35
 1431 020c 07       		.byte	0x7
 1432 020d 43       		.byte	0x43
 1433 020e 68000000 		.4byte	0x68
 1434 0212 10       		.byte	0x10
 1435 0213 0A       		.uleb128 0xa
 1436 0214 8B020000 		.4byte	.LASF36
 1437 0218 07       		.byte	0x7
 1438 0219 44       		.byte	0x44
 1439 021a 68000000 		.4byte	0x68
 1440 021e 14       		.byte	0x14
 1441 021f 0A       		.uleb128 0xa
 1442 0220 A0030000 		.4byte	.LASF37
 1443 0224 07       		.byte	0x7
 1444 0225 45       		.byte	0x45
 1445 0226 68000000 		.4byte	0x68
 1446 022a 18       		.byte	0x18
 1447 022b 0A       		.uleb128 0xa
 1448 022c CB030000 		.4byte	.LASF38
 1449 0230 07       		.byte	0x7
 1450 0231 46       		.byte	0x46
 1451 0232 68000000 		.4byte	0x68
 1452 0236 1C       		.byte	0x1c
 1453 0237 00       		.byte	0
 1454 0238 03       		.uleb128 0x3
 1455 0239 FE030000 		.4byte	.LASF39
 1456 023d 07       		.byte	0x7
 1457 023e 48       		.byte	0x48
 1458 023f CF010000 		.4byte	0x1cf
 1459 0243 0B       		.uleb128 0xb
 1460 0244 05       		.byte	0x5
 1461 0245 07       		.byte	0x7
 1462 0246 54       		.byte	0x54
 1463 0247 88020000 		.4byte	0x288
 1464 024b 0A       		.uleb128 0xa
 1465 024c 38050000 		.4byte	.LASF40
 1466 0250 07       		.byte	0x7
 1467 0251 56       		.byte	0x56
 1468 0252 81000000 		.4byte	0x81
 1469 0256 00       		.byte	0
 1470 0257 0A       		.uleb128 0xa
 1471 0258 79030000 		.4byte	.LASF41
 1472 025c 07       		.byte	0x7
 1473 025d 58       		.byte	0x58
 1474 025e 88020000 		.4byte	0x288
 1475 0262 01       		.byte	0x1
 1476 0263 0A       		.uleb128 0xa
 1477 0264 3D020000 		.4byte	.LASF42
 1478 0268 07       		.byte	0x7
 1479 0269 5A       		.byte	0x5a
 1480 026a 81000000 		.4byte	0x81
ARM GAS  C:\Users\dantz\AppData\Local\Temp\ccGcZMb9.s 			page 33


 1481 026e 02       		.byte	0x2
 1482 026f 0A       		.uleb128 0xa
 1483 0270 3E030000 		.4byte	.LASF43
 1484 0274 07       		.byte	0x7
 1485 0275 5C       		.byte	0x5c
 1486 0276 81000000 		.4byte	0x81
 1487 027a 03       		.byte	0x3
 1488 027b 0A       		.uleb128 0xa
 1489 027c 8B040000 		.4byte	.LASF44
 1490 0280 07       		.byte	0x7
 1491 0281 5F       		.byte	0x5f
 1492 0282 81000000 		.4byte	0x81
 1493 0286 04       		.byte	0x4
 1494 0287 00       		.byte	0
 1495 0288 02       		.uleb128 0x2
 1496 0289 01       		.byte	0x1
 1497 028a 02       		.byte	0x2
 1498 028b 0C040000 		.4byte	.LASF45
 1499 028f 03       		.uleb128 0x3
 1500 0290 62030000 		.4byte	.LASF46
 1501 0294 07       		.byte	0x7
 1502 0295 61       		.byte	0x61
 1503 0296 43020000 		.4byte	0x243
 1504 029a 0B       		.uleb128 0xb
 1505 029b 30       		.byte	0x30
 1506 029c 08       		.byte	0x8
 1507 029d 07       		.byte	0x7
 1508 029e BB020000 		.4byte	0x2bb
 1509 02a2 0A       		.uleb128 0xa
 1510 02a3 90020000 		.4byte	.LASF47
 1511 02a7 08       		.byte	0x8
 1512 02a8 08       		.byte	0x8
 1513 02a9 BB020000 		.4byte	0x2bb
 1514 02ad 00       		.byte	0
 1515 02ae 0A       		.uleb128 0xa
 1516 02af 4E040000 		.4byte	.LASF48
 1517 02b3 08       		.byte	0x8
 1518 02b4 09       		.byte	0x9
 1519 02b5 B1000000 		.4byte	0xb1
 1520 02b9 2C       		.byte	0x2c
 1521 02ba 00       		.byte	0
 1522 02bb 07       		.uleb128 0x7
 1523 02bc B1000000 		.4byte	0xb1
 1524 02c0 CB020000 		.4byte	0x2cb
 1525 02c4 08       		.uleb128 0x8
 1526 02c5 D9000000 		.4byte	0xd9
 1527 02c9 0A       		.byte	0xa
 1528 02ca 00       		.byte	0
 1529 02cb 03       		.uleb128 0x3
 1530 02cc B7020000 		.4byte	.LASF49
 1531 02d0 08       		.byte	0x8
 1532 02d1 0A       		.byte	0xa
 1533 02d2 9A020000 		.4byte	0x29a
 1534 02d6 0B       		.uleb128 0xb
 1535 02d7 06       		.byte	0x6
 1536 02d8 09       		.byte	0x9
 1537 02d9 2E       		.byte	0x2e
ARM GAS  C:\Users\dantz\AppData\Local\Temp\ccGcZMb9.s 			page 34


 1538 02da 0F030000 		.4byte	0x30f
 1539 02de 0A       		.uleb128 0xa
 1540 02df 52000000 		.4byte	.LASF50
 1541 02e3 09       		.byte	0x9
 1542 02e4 30       		.byte	0x30
 1543 02e5 8D000000 		.4byte	0x8d
 1544 02e9 00       		.byte	0
 1545 02ea 0A       		.uleb128 0xa
 1546 02eb 35000000 		.4byte	.LASF51
 1547 02ef 09       		.byte	0x9
 1548 02f0 31       		.byte	0x31
 1549 02f1 99000000 		.4byte	0x99
 1550 02f5 02       		.byte	0x2
 1551 02f6 0A       		.uleb128 0xa
 1552 02f7 A4040000 		.4byte	.LASF52
 1553 02fb 09       		.byte	0x9
 1554 02fc 32       		.byte	0x32
 1555 02fd 81000000 		.4byte	0x81
 1556 0301 04       		.byte	0x4
 1557 0302 0A       		.uleb128 0xa
 1558 0303 D0040000 		.4byte	.LASF53
 1559 0307 09       		.byte	0x9
 1560 0308 33       		.byte	0x33
 1561 0309 81000000 		.4byte	0x81
 1562 030d 05       		.byte	0x5
 1563 030e 00       		.byte	0
 1564 030f 03       		.uleb128 0x3
 1565 0310 37020000 		.4byte	.LASF54
 1566 0314 09       		.byte	0x9
 1567 0315 36       		.byte	0x36
 1568 0316 1A030000 		.4byte	0x31a
 1569 031a 0D       		.uleb128 0xd
 1570 031b D6020000 		.4byte	0x2d6
 1571 031f 0B       		.uleb128 0xb
 1572 0320 1C       		.byte	0x1c
 1573 0321 09       		.byte	0x9
 1574 0322 39       		.byte	0x39
 1575 0323 40030000 		.4byte	0x340
 1576 0327 0A       		.uleb128 0xa
 1577 0328 E2010000 		.4byte	.LASF55
 1578 032c 09       		.byte	0x9
 1579 032d 3B       		.byte	0x3b
 1580 032e 40030000 		.4byte	0x340
 1581 0332 00       		.byte	0
 1582 0333 0A       		.uleb128 0xa
 1583 0334 11030000 		.4byte	.LASF56
 1584 0338 09       		.byte	0x9
 1585 0339 3C       		.byte	0x3c
 1586 033a E6000000 		.4byte	0xe6
 1587 033e 04       		.byte	0x4
 1588 033f 00       		.byte	0
 1589 0340 06       		.uleb128 0x6
 1590 0341 04       		.byte	0x4
 1591 0342 C4010000 		.4byte	0x1c4
 1592 0346 03       		.uleb128 0x3
 1593 0347 82030000 		.4byte	.LASF57
 1594 034b 09       		.byte	0x9
ARM GAS  C:\Users\dantz\AppData\Local\Temp\ccGcZMb9.s 			page 35


 1595 034c 3E       		.byte	0x3e
 1596 034d 1F030000 		.4byte	0x31f
 1597 0351 0B       		.uleb128 0xb
 1598 0352 68       		.byte	0x68
 1599 0353 09       		.byte	0x9
 1600 0354 44       		.byte	0x44
 1601 0355 72030000 		.4byte	0x372
 1602 0359 0A       		.uleb128 0xa
 1603 035a 74000000 		.4byte	.LASF58
 1604 035e 09       		.byte	0x9
 1605 035f 49       		.byte	0x49
 1606 0360 72030000 		.4byte	0x372
 1607 0364 00       		.byte	0
 1608 0365 0A       		.uleb128 0xa
 1609 0366 26050000 		.4byte	.LASF59
 1610 036a 09       		.byte	0x9
 1611 036b 4A       		.byte	0x4a
 1612 036c 68000000 		.4byte	0x68
 1613 0370 64       		.byte	0x64
 1614 0371 00       		.byte	0
 1615 0372 07       		.uleb128 0x7
 1616 0373 CB000000 		.4byte	0xcb
 1617 0377 82030000 		.4byte	0x382
 1618 037b 08       		.uleb128 0x8
 1619 037c D9000000 		.4byte	0xd9
 1620 0380 63       		.byte	0x63
 1621 0381 00       		.byte	0
 1622 0382 03       		.uleb128 0x3
 1623 0383 1E000000 		.4byte	.LASF60
 1624 0387 09       		.byte	0x9
 1625 0388 50       		.byte	0x50
 1626 0389 51030000 		.4byte	0x351
 1627 038d 0E       		.uleb128 0xe
 1628 038e 09000000 		.4byte	.LASF61
 1629 0392 01       		.byte	0x1
 1630 0393 0C       		.byte	0xc
 1631 0394 00000000 		.4byte	.LFB64
 1632 0398 44000000 		.4byte	.LFE64-.LFB64
 1633 039c 01       		.uleb128 0x1
 1634 039d 9C       		.byte	0x9c
 1635 039e 0E       		.uleb128 0xe
 1636 039f 44010000 		.4byte	.LASF62
 1637 03a3 01       		.byte	0x1
 1638 03a4 1B       		.byte	0x1b
 1639 03a5 00000000 		.4byte	.LFB65
 1640 03a9 28000000 		.4byte	.LFE65-.LFB65
 1641 03ad 01       		.uleb128 0x1
 1642 03ae 9C       		.byte	0x9c
 1643 03af 0F       		.uleb128 0xf
 1644 03b0 00050000 		.4byte	.LASF63
 1645 03b4 01       		.byte	0x1
 1646 03b5 26       		.byte	0x26
 1647 03b6 00000000 		.4byte	.LFB66
 1648 03ba 30000000 		.4byte	.LFE66-.LFB66
 1649 03be 01       		.uleb128 0x1
 1650 03bf 9C       		.byte	0x9c
 1651 03c0 0F       		.uleb128 0xf
ARM GAS  C:\Users\dantz\AppData\Local\Temp\ccGcZMb9.s 			page 36


 1652 03c1 27020000 		.4byte	.LASF64
 1653 03c5 01       		.byte	0x1
 1654 03c6 31       		.byte	0x31
 1655 03c7 00000000 		.4byte	.LFB67
 1656 03cb 28000000 		.4byte	.LFE67-.LFB67
 1657 03cf 01       		.uleb128 0x1
 1658 03d0 9C       		.byte	0x9c
 1659 03d1 10       		.uleb128 0x10
 1660 03d2 BC040000 		.4byte	.LASF68
 1661 03d6 01       		.byte	0x1
 1662 03d7 3C       		.byte	0x3c
 1663 03d8 CB020000 		.4byte	0x2cb
 1664 03dc 00000000 		.4byte	.LFB68
 1665 03e0 00010000 		.4byte	.LFE68-.LFB68
 1666 03e4 01       		.uleb128 0x1
 1667 03e5 9C       		.byte	0x9c
 1668 03e6 38040000 		.4byte	0x438
 1669 03ea 11       		.uleb128 0x11
 1670 03eb F9040000 		.4byte	.LASF65
 1671 03ef 01       		.byte	0x1
 1672 03f0 3E       		.byte	0x3e
 1673 03f1 CB020000 		.4byte	0x2cb
 1674 03f5 03       		.uleb128 0x3
 1675 03f6 91       		.byte	0x91
 1676 03f7 B07F     		.sleb128 -80
 1677 03f9 11       		.uleb128 0x11
 1678 03fa CA040000 		.4byte	.LASF66
 1679 03fe 01       		.byte	0x1
 1680 03ff 5B       		.byte	0x5b
 1681 0400 E0000000 		.4byte	0xe0
 1682 0404 02       		.uleb128 0x2
 1683 0405 91       		.byte	0x91
 1684 0406 68       		.sleb128 -24
 1685 0407 12       		.uleb128 0x12
 1686 0408 6900     		.ascii	"i\000"
 1687 040a 01       		.byte	0x1
 1688 040b 5E       		.byte	0x5e
 1689 040c 81000000 		.4byte	0x81
 1690 0410 02       		.uleb128 0x2
 1691 0411 91       		.byte	0x91
 1692 0412 67       		.sleb128 -25
 1693 0413 11       		.uleb128 0x11
 1694 0414 3E040000 		.4byte	.LASF67
 1695 0418 01       		.byte	0x1
 1696 0419 5F       		.byte	0x5f
 1697 041a B1000000 		.4byte	0xb1
 1698 041e 02       		.uleb128 0x2
 1699 041f 91       		.byte	0x91
 1700 0420 60       		.sleb128 -32
 1701 0421 13       		.uleb128 0x13
 1702 0422 30000000 		.4byte	.LBB2
 1703 0426 20000000 		.4byte	.LBE2-.LBB2
 1704 042a 12       		.uleb128 0x12
 1705 042b 6900     		.ascii	"i\000"
 1706 042d 01       		.byte	0x1
 1707 042e 55       		.byte	0x55
 1708 042f 68000000 		.4byte	0x68
ARM GAS  C:\Users\dantz\AppData\Local\Temp\ccGcZMb9.s 			page 37


 1709 0433 02       		.uleb128 0x2
 1710 0434 91       		.byte	0x91
 1711 0435 6C       		.sleb128 -20
 1712 0436 00       		.byte	0
 1713 0437 00       		.byte	0
 1714 0438 10       		.uleb128 0x10
 1715 0439 02030000 		.4byte	.LASF69
 1716 043d 01       		.byte	0x1
 1717 043e 73       		.byte	0x73
 1718 043f 44010000 		.4byte	0x144
 1719 0443 00000000 		.4byte	.LFB69
 1720 0447 D4020000 		.4byte	.LFE69-.LFB69
 1721 044b 01       		.uleb128 0x1
 1722 044c 9C       		.byte	0x9c
 1723 044d 70040000 		.4byte	0x470
 1724 0451 11       		.uleb128 0x11
 1725 0452 46040000 		.4byte	.LASF70
 1726 0456 01       		.byte	0x1
 1727 0457 79       		.byte	0x79
 1728 0458 CB020000 		.4byte	0x2cb
 1729 045c 03       		.uleb128 0x3
 1730 045d 91       		.byte	0x91
 1731 045e B07F     		.sleb128 -80
 1732 0460 11       		.uleb128 0x11
 1733 0461 29040000 		.4byte	.LASF71
 1734 0465 01       		.byte	0x1
 1735 0466 7B       		.byte	0x7b
 1736 0467 44010000 		.4byte	0x144
 1737 046b 03       		.uleb128 0x3
 1738 046c 91       		.byte	0x91
 1739 046d AC7C     		.sleb128 -468
 1740 046f 00       		.byte	0
 1741 0470 10       		.uleb128 0x10
 1742 0471 17000000 		.4byte	.LASF72
 1743 0475 01       		.byte	0x1
 1744 0476 9E       		.byte	0x9e
 1745 0477 81000000 		.4byte	0x81
 1746 047b 00000000 		.4byte	.LFB70
 1747 047f 44010000 		.4byte	.LFE70-.LFB70
 1748 0483 01       		.uleb128 0x1
 1749 0484 9C       		.byte	0x9c
 1750 0485 E0040000 		.4byte	0x4e0
 1751 0489 13       		.uleb128 0x13
 1752 048a 06000000 		.4byte	.LBB3
 1753 048e FA000000 		.4byte	.LBE3-.LBB3
 1754 0492 12       		.uleb128 0x12
 1755 0493 6900     		.ascii	"i\000"
 1756 0495 01       		.byte	0x1
 1757 0496 A1       		.byte	0xa1
 1758 0497 68000000 		.4byte	0x68
 1759 049b 02       		.uleb128 0x2
 1760 049c 91       		.byte	0x91
 1761 049d 6C       		.sleb128 -20
 1762 049e 13       		.uleb128 0x13
 1763 049f 0C000000 		.4byte	.LBB4
 1764 04a3 E8000000 		.4byte	.LBE4-.LBB4
 1765 04a7 11       		.uleb128 0x11
ARM GAS  C:\Users\dantz\AppData\Local\Temp\ccGcZMb9.s 			page 38


 1766 04a8 5A050000 		.4byte	.LASF73
 1767 04ac 01       		.byte	0x1
 1768 04ad A2       		.byte	0xa2
 1769 04ae CB020000 		.4byte	0x2cb
 1770 04b2 03       		.uleb128 0x3
 1771 04b3 91       		.byte	0x91
 1772 04b4 887F     		.sleb128 -120
 1773 04b6 11       		.uleb128 0x11
 1774 04b7 C4040000 		.4byte	.LASF74
 1775 04bb 01       		.byte	0x1
 1776 04bc A6       		.byte	0xa6
 1777 04bd B1000000 		.4byte	0xb1
 1778 04c1 02       		.uleb128 0x2
 1779 04c2 91       		.byte	0x91
 1780 04c3 68       		.sleb128 -24
 1781 04c4 13       		.uleb128 0x13
 1782 04c5 5C000000 		.4byte	.LBB5
 1783 04c9 98000000 		.4byte	.LBE5-.LBB5
 1784 04cd 11       		.uleb128 0x11
 1785 04ce 4A020000 		.4byte	.LASF75
 1786 04d2 01       		.byte	0x1
 1787 04d3 D1       		.byte	0xd1
 1788 04d4 CB020000 		.4byte	0x2cb
 1789 04d8 03       		.uleb128 0x3
 1790 04d9 91       		.byte	0x91
 1791 04da B87F     		.sleb128 -72
 1792 04dc 00       		.byte	0
 1793 04dd 00       		.byte	0
 1794 04de 00       		.byte	0
 1795 04df 00       		.byte	0
 1796 04e0 14       		.uleb128 0x14
 1797 04e1 1A010000 		.4byte	.LASF104
 1798 04e5 01       		.byte	0x1
 1799 04e6 E7       		.byte	0xe7
 1800 04e7 B1000000 		.4byte	0xb1
 1801 04eb 00000000 		.4byte	.LFB71
 1802 04ef 7A000000 		.4byte	.LFE71-.LFB71
 1803 04f3 01       		.uleb128 0x1
 1804 04f4 9C       		.byte	0x9c
 1805 04f5 22050000 		.4byte	0x522
 1806 04f9 15       		.uleb128 0x15
 1807 04fa 72040000 		.4byte	.LASF76
 1808 04fe 01       		.byte	0x1
 1809 04ff E7       		.byte	0xe7
 1810 0500 22050000 		.4byte	0x522
 1811 0504 02       		.uleb128 0x2
 1812 0505 91       		.byte	0x91
 1813 0506 6C       		.sleb128 -20
 1814 0507 16       		.uleb128 0x16
 1815 0508 6E00     		.ascii	"n\000"
 1816 050a 01       		.byte	0x1
 1817 050b E7       		.byte	0xe7
 1818 050c 81000000 		.4byte	0x81
 1819 0510 02       		.uleb128 0x2
 1820 0511 91       		.byte	0x91
 1821 0512 6B       		.sleb128 -21
 1822 0513 11       		.uleb128 0x11
ARM GAS  C:\Users\dantz\AppData\Local\Temp\ccGcZMb9.s 			page 39


 1823 0514 4B000000 		.4byte	.LASF77
 1824 0518 01       		.byte	0x1
 1825 0519 E8       		.byte	0xe8
 1826 051a B1000000 		.4byte	0xb1
 1827 051e 02       		.uleb128 0x2
 1828 051f 91       		.byte	0x91
 1829 0520 74       		.sleb128 -12
 1830 0521 00       		.byte	0
 1831 0522 06       		.uleb128 0x6
 1832 0523 04       		.byte	0x4
 1833 0524 B1000000 		.4byte	0xb1
 1834 0528 17       		.uleb128 0x17
 1835 0529 F8030000 		.4byte	.LASF78
 1836 052d 01       		.byte	0x1
 1837 052e F8       		.byte	0xf8
 1838 052f 00000000 		.4byte	.LFB72
 1839 0533 7E000000 		.4byte	.LFE72-.LFB72
 1840 0537 01       		.uleb128 0x1
 1841 0538 9C       		.byte	0x9c
 1842 0539 6E050000 		.4byte	0x56e
 1843 053d 16       		.uleb128 0x16
 1844 053e 6100     		.ascii	"a\000"
 1845 0540 01       		.byte	0x1
 1846 0541 F8       		.byte	0xf8
 1847 0542 22050000 		.4byte	0x522
 1848 0546 02       		.uleb128 0x2
 1849 0547 91       		.byte	0x91
 1850 0548 6C       		.sleb128 -20
 1851 0549 16       		.uleb128 0x16
 1852 054a 6E00     		.ascii	"n\000"
 1853 054c 01       		.byte	0x1
 1854 054d F8       		.byte	0xf8
 1855 054e 81000000 		.4byte	0x81
 1856 0552 02       		.uleb128 0x2
 1857 0553 91       		.byte	0x91
 1858 0554 6B       		.sleb128 -21
 1859 0555 12       		.uleb128 0x12
 1860 0556 6900     		.ascii	"i\000"
 1861 0558 01       		.byte	0x1
 1862 0559 F9       		.byte	0xf9
 1863 055a 81000000 		.4byte	0x81
 1864 055e 02       		.uleb128 0x2
 1865 055f 91       		.byte	0x91
 1866 0560 77       		.sleb128 -9
 1867 0561 12       		.uleb128 0x12
 1868 0562 6A00     		.ascii	"j\000"
 1869 0564 01       		.byte	0x1
 1870 0565 F9       		.byte	0xf9
 1871 0566 81000000 		.4byte	0x81
 1872 056a 02       		.uleb128 0x2
 1873 056b 91       		.byte	0x91
 1874 056c 76       		.sleb128 -10
 1875 056d 00       		.byte	0
 1876 056e 18       		.uleb128 0x18
 1877 056f 2C010000 		.4byte	.LASF79
 1878 0573 01       		.byte	0x1
 1879 0574 0401     		.2byte	0x104
ARM GAS  C:\Users\dantz\AppData\Local\Temp\ccGcZMb9.s 			page 40


 1880 0576 00000000 		.4byte	.LFB73
 1881 057a 28000000 		.4byte	.LFE73-.LFB73
 1882 057e 01       		.uleb128 0x1
 1883 057f 9C       		.byte	0x9c
 1884 0580 AC050000 		.4byte	0x5ac
 1885 0584 19       		.uleb128 0x19
 1886 0585 7000     		.ascii	"p\000"
 1887 0587 01       		.byte	0x1
 1888 0588 0401     		.2byte	0x104
 1889 058a 22050000 		.4byte	0x522
 1890 058e 02       		.uleb128 0x2
 1891 058f 91       		.byte	0x91
 1892 0590 6C       		.sleb128 -20
 1893 0591 19       		.uleb128 0x19
 1894 0592 7100     		.ascii	"q\000"
 1895 0594 01       		.byte	0x1
 1896 0595 0401     		.2byte	0x104
 1897 0597 22050000 		.4byte	0x522
 1898 059b 02       		.uleb128 0x2
 1899 059c 91       		.byte	0x91
 1900 059d 68       		.sleb128 -24
 1901 059e 1A       		.uleb128 0x1a
 1902 059f 7400     		.ascii	"t\000"
 1903 05a1 01       		.byte	0x1
 1904 05a2 0501     		.2byte	0x105
 1905 05a4 B1000000 		.4byte	0xb1
 1906 05a8 02       		.uleb128 0x2
 1907 05a9 91       		.byte	0x91
 1908 05aa 74       		.sleb128 -12
 1909 05ab 00       		.byte	0
 1910 05ac 1B       		.uleb128 0x1b
 1911 05ad DE030000 		.4byte	.LASF80
 1912 05b1 0A       		.byte	0xa
 1913 05b2 1207     		.2byte	0x712
 1914 05b4 B8050000 		.4byte	0x5b8
 1915 05b8 0D       		.uleb128 0xd
 1916 05b9 76000000 		.4byte	0x76
 1917 05bd 1C       		.uleb128 0x1c
 1918 05be D2010000 		.4byte	.LASF81
 1919 05c2 06       		.byte	0x6
 1920 05c3 11       		.byte	0x11
 1921 05c4 88020000 		.4byte	0x288
 1922 05c8 05       		.uleb128 0x5
 1923 05c9 03       		.byte	0x3
 1924 05ca 00000000 		.4byte	buffer_overflow
 1925 05ce 1C       		.uleb128 0x1c
 1926 05cf 6B020000 		.4byte	.LASF82
 1927 05d3 06       		.byte	0x6
 1928 05d4 22       		.byte	0x22
 1929 05d5 8D000000 		.4byte	0x8d
 1930 05d9 05       		.uleb128 0x5
 1931 05da 03       		.byte	0x3
 1932 05db 00000000 		.4byte	dataPointsInStack
 1933 05df 1C       		.uleb128 0x1c
 1934 05e0 67010000 		.4byte	.LASF83
 1935 05e4 06       		.byte	0x6
 1936 05e5 23       		.byte	0x23
ARM GAS  C:\Users\dantz\AppData\Local\Temp\ccGcZMb9.s 			page 41


 1937 05e6 8D000000 		.4byte	0x8d
 1938 05ea 05       		.uleb128 0x5
 1939 05eb 03       		.byte	0x3
 1940 05ec 00000000 		.4byte	dataPointsInStackDesired
 1941 05f0 07       		.uleb128 0x7
 1942 05f1 8C010000 		.4byte	0x18c
 1943 05f5 00060000 		.4byte	0x600
 1944 05f9 08       		.uleb128 0x8
 1945 05fa D9000000 		.4byte	0xd9
 1946 05fe 95       		.byte	0x95
 1947 05ff 00       		.byte	0
 1948 0600 1C       		.uleb128 0x1c
 1949 0601 15010000 		.4byte	.LASF84
 1950 0605 06       		.byte	0x6
 1951 0606 24       		.byte	0x24
 1952 0607 F0050000 		.4byte	0x5f0
 1953 060b 05       		.uleb128 0x5
 1954 060c 03       		.byte	0x3
 1955 060d 00000000 		.4byte	data
 1956 0611 1C       		.uleb128 0x1c
 1957 0612 C3020000 		.4byte	.LASF85
 1958 0616 07       		.byte	0x7
 1959 0617 21       		.byte	0x21
 1960 0618 81000000 		.4byte	0x81
 1961 061c 05       		.uleb128 0x5
 1962 061d 03       		.byte	0x3
 1963 061e 00000000 		.4byte	modem_state
 1964 0622 1C       		.uleb128 0x1c
 1965 0623 A0020000 		.4byte	.LASF86
 1966 0627 07       		.byte	0x7
 1967 0628 64       		.byte	0x64
 1968 0629 A5000000 		.4byte	0xa5
 1969 062d 05       		.uleb128 0x5
 1970 062e 03       		.byte	0x3
 1971 062f 00000000 		.4byte	modem_start_time_stamp
 1972 0633 1C       		.uleb128 0x1c
 1973 0634 E2010000 		.4byte	.LASF55
 1974 0638 07       		.byte	0x7
 1975 0639 65       		.byte	0x65
 1976 063a C4010000 		.4byte	0x1c4
 1977 063e 05       		.uleb128 0x5
 1978 063f 03       		.byte	0x3
 1979 0640 00000000 		.4byte	modem_info
 1980 0644 1C       		.uleb128 0x1c
 1981 0645 48030000 		.4byte	.LASF87
 1982 0649 07       		.byte	0x7
 1983 064a 66       		.byte	0x66
 1984 064b 38020000 		.4byte	0x238
 1985 064f 05       		.uleb128 0x5
 1986 0650 03       		.byte	0x3
 1987 0651 00000000 		.4byte	modem_stats
 1988 0655 1C       		.uleb128 0x1c
 1989 0656 11050000 		.4byte	.LASF88
 1990 065a 07       		.byte	0x7
 1991 065b 67       		.byte	0x67
 1992 065c 8F020000 		.4byte	0x28f
 1993 0660 05       		.uleb128 0x5
ARM GAS  C:\Users\dantz\AppData\Local\Temp\ccGcZMb9.s 			page 42


 1994 0661 03       		.byte	0x3
 1995 0662 00000000 		.4byte	updatable_parameters
 1996 0666 07       		.uleb128 0x7
 1997 0667 CB000000 		.4byte	0xcb
 1998 066b 77060000 		.4byte	0x677
 1999 066f 1D       		.uleb128 0x1d
 2000 0670 D9000000 		.4byte	0xd9
 2001 0674 0F27     		.2byte	0x270f
 2002 0676 00       		.byte	0
 2003 0677 1C       		.uleb128 0x1c
 2004 0678 42050000 		.4byte	.LASF89
 2005 067c 09       		.byte	0x9
 2006 067d 18       		.byte	0x18
 2007 067e 66060000 		.4byte	0x666
 2008 0682 05       		.uleb128 0x5
 2009 0683 03       		.byte	0x3
 2010 0684 00000000 		.4byte	http_request
 2011 0688 1C       		.uleb128 0x1c
 2012 0689 2E050000 		.4byte	.LASF90
 2013 068d 09       		.byte	0x9
 2014 068e 19       		.byte	0x19
 2015 068f 66060000 		.4byte	0x666
 2016 0693 05       		.uleb128 0x5
 2017 0694 03       		.byte	0x3
 2018 0695 00000000 		.4byte	http_body
 2019 0699 07       		.uleb128 0x7
 2020 069a CB000000 		.4byte	0xcb
 2021 069e A9060000 		.4byte	0x6a9
 2022 06a2 08       		.uleb128 0x8
 2023 06a3 D9000000 		.4byte	0xd9
 2024 06a7 C7       		.byte	0xc7
 2025 06a8 00       		.byte	0
 2026 06a9 1C       		.uleb128 0x1c
 2027 06aa 33040000 		.4byte	.LASF91
 2028 06ae 09       		.byte	0x9
 2029 06af 1A       		.byte	0x1a
 2030 06b0 99060000 		.4byte	0x699
 2031 06b4 05       		.uleb128 0x5
 2032 06b5 03       		.byte	0x3
 2033 06b6 00000000 		.4byte	http_route
 2034 06ba 1C       		.uleb128 0x1c
 2035 06bb BF030000 		.4byte	.LASF92
 2036 06bf 09       		.byte	0x9
 2037 06c0 41       		.byte	0x41
 2038 06c1 46030000 		.4byte	0x346
 2039 06c5 05       		.uleb128 0x5
 2040 06c6 03       		.byte	0x3
 2041 06c7 00000000 		.4byte	system_info
 2042 06cb 1C       		.uleb128 0x1c
 2043 06cc F2020000 		.4byte	.LASF93
 2044 06d0 09       		.byte	0x9
 2045 06d1 53       		.byte	0x53
 2046 06d2 82030000 		.4byte	0x382
 2047 06d6 05       		.uleb128 0x5
 2048 06d7 03       		.byte	0x3
 2049 06d8 00000000 		.4byte	system_settings
 2050 06dc 1C       		.uleb128 0x1c
ARM GAS  C:\Users\dantz\AppData\Local\Temp\ccGcZMb9.s 			page 43


 2051 06dd B0010000 		.4byte	.LASF94
 2052 06e1 09       		.byte	0x9
 2053 06e2 6F       		.byte	0x6f
 2054 06e3 0F030000 		.4byte	0x30f
 2055 06e7 05       		.uleb128 0x5
 2056 06e8 03       		.byte	0x3
 2057 06e9 00000000 		.4byte	alarmMeasure
 2058 06ed 1C       		.uleb128 0x1c
 2059 06ee 54030000 		.4byte	.LASF95
 2060 06f2 09       		.byte	0x9
 2061 06f3 70       		.byte	0x70
 2062 06f4 81000000 		.4byte	0x81
 2063 06f8 05       		.uleb128 0x5
 2064 06f9 03       		.byte	0x3
 2065 06fa 00000000 		.4byte	timeToMeasure
 2066 06fe 1C       		.uleb128 0x1c
 2067 06ff 55020000 		.4byte	.LASF96
 2068 0703 09       		.byte	0x9
 2069 0704 71       		.byte	0x71
 2070 0705 0F030000 		.4byte	0x30f
 2071 0709 05       		.uleb128 0x5
 2072 070a 03       		.byte	0x3
 2073 070b 00000000 		.4byte	alarmSync
 2074 070f 1C       		.uleb128 0x1c
 2075 0710 4F050000 		.4byte	.LASF97
 2076 0714 09       		.byte	0x9
 2077 0715 72       		.byte	0x72
 2078 0716 81000000 		.4byte	0x81
 2079 071a 05       		.uleb128 0x5
 2080 071b 03       		.byte	0x3
 2081 071c 00000000 		.4byte	timeToSync
 2082 0720 1C       		.uleb128 0x1c
 2083 0721 12040000 		.4byte	.LASF98
 2084 0725 09       		.byte	0x9
 2085 0726 73       		.byte	0x73
 2086 0727 81000000 		.4byte	0x81
 2087 072b 05       		.uleb128 0x5
 2088 072c 03       		.byte	0x3
 2089 072d 00000000 		.4byte	timeToSycnRemoteParams
 2090 0731 1E       		.uleb128 0x1e
 2091 0732 68657900 		.ascii	"hey\000"
 2092 0736 09       		.byte	0x9
 2093 0737 74       		.byte	0x74
 2094 0738 81000000 		.4byte	0x81
 2095 073c 05       		.uleb128 0x5
 2096 073d 03       		.byte	0x3
 2097 073e 00000000 		.4byte	hey
 2098 0742 07       		.uleb128 0x7
 2099 0743 CB000000 		.4byte	0xcb
 2100 0747 53070000 		.4byte	0x753
 2101 074b 1D       		.uleb128 0x1d
 2102 074c D9000000 		.4byte	0xd9
 2103 0750 FF03     		.2byte	0x3ff
 2104 0752 00       		.byte	0
 2105 0753 1C       		.uleb128 0x1c
 2106 0754 78040000 		.4byte	.LASF99
 2107 0758 01       		.byte	0x1
ARM GAS  C:\Users\dantz\AppData\Local\Temp\ccGcZMb9.s 			page 44


 2108 0759 03       		.byte	0x3
 2109 075a 42070000 		.4byte	0x742
 2110 075e 05       		.uleb128 0x5
 2111 075f 03       		.byte	0x3
 2112 0760 00000000 		.4byte	do_received_string
 2113 0764 1C       		.uleb128 0x1c
 2114 0765 86010000 		.4byte	.LASF100
 2115 0769 01       		.byte	0x1
 2116 076a 04       		.byte	0x4
 2117 076b 99000000 		.4byte	0x99
 2118 076f 05       		.uleb128 0x5
 2119 0770 03       		.byte	0x3
 2120 0771 00000000 		.4byte	do_string_index
 2121 0775 00       		.byte	0
 2122              		.section	.debug_abbrev,"",%progbits
 2123              	.Ldebug_abbrev0:
 2124 0000 01       		.uleb128 0x1
 2125 0001 11       		.uleb128 0x11
 2126 0002 01       		.byte	0x1
 2127 0003 25       		.uleb128 0x25
 2128 0004 0E       		.uleb128 0xe
 2129 0005 13       		.uleb128 0x13
 2130 0006 0B       		.uleb128 0xb
 2131 0007 03       		.uleb128 0x3
 2132 0008 0E       		.uleb128 0xe
 2133 0009 1B       		.uleb128 0x1b
 2134 000a 0E       		.uleb128 0xe
 2135 000b 55       		.uleb128 0x55
 2136 000c 17       		.uleb128 0x17
 2137 000d 11       		.uleb128 0x11
 2138 000e 01       		.uleb128 0x1
 2139 000f 10       		.uleb128 0x10
 2140 0010 17       		.uleb128 0x17
 2141 0011 00       		.byte	0
 2142 0012 00       		.byte	0
 2143 0013 02       		.uleb128 0x2
 2144 0014 24       		.uleb128 0x24
 2145 0015 00       		.byte	0
 2146 0016 0B       		.uleb128 0xb
 2147 0017 0B       		.uleb128 0xb
 2148 0018 3E       		.uleb128 0x3e
 2149 0019 0B       		.uleb128 0xb
 2150 001a 03       		.uleb128 0x3
 2151 001b 0E       		.uleb128 0xe
 2152 001c 00       		.byte	0
 2153 001d 00       		.byte	0
 2154 001e 03       		.uleb128 0x3
 2155 001f 16       		.uleb128 0x16
 2156 0020 00       		.byte	0
 2157 0021 03       		.uleb128 0x3
 2158 0022 0E       		.uleb128 0xe
 2159 0023 3A       		.uleb128 0x3a
 2160 0024 0B       		.uleb128 0xb
 2161 0025 3B       		.uleb128 0x3b
 2162 0026 0B       		.uleb128 0xb
 2163 0027 49       		.uleb128 0x49
 2164 0028 13       		.uleb128 0x13
ARM GAS  C:\Users\dantz\AppData\Local\Temp\ccGcZMb9.s 			page 45


 2165 0029 00       		.byte	0
 2166 002a 00       		.byte	0
 2167 002b 04       		.uleb128 0x4
 2168 002c 24       		.uleb128 0x24
 2169 002d 00       		.byte	0
 2170 002e 0B       		.uleb128 0xb
 2171 002f 0B       		.uleb128 0xb
 2172 0030 3E       		.uleb128 0x3e
 2173 0031 0B       		.uleb128 0xb
 2174 0032 03       		.uleb128 0x3
 2175 0033 08       		.uleb128 0x8
 2176 0034 00       		.byte	0
 2177 0035 00       		.byte	0
 2178 0036 05       		.uleb128 0x5
 2179 0037 16       		.uleb128 0x16
 2180 0038 00       		.byte	0
 2181 0039 03       		.uleb128 0x3
 2182 003a 0E       		.uleb128 0xe
 2183 003b 3A       		.uleb128 0x3a
 2184 003c 0B       		.uleb128 0xb
 2185 003d 3B       		.uleb128 0x3b
 2186 003e 05       		.uleb128 0x5
 2187 003f 49       		.uleb128 0x49
 2188 0040 13       		.uleb128 0x13
 2189 0041 00       		.byte	0
 2190 0042 00       		.byte	0
 2191 0043 06       		.uleb128 0x6
 2192 0044 0F       		.uleb128 0xf
 2193 0045 00       		.byte	0
 2194 0046 0B       		.uleb128 0xb
 2195 0047 0B       		.uleb128 0xb
 2196 0048 49       		.uleb128 0x49
 2197 0049 13       		.uleb128 0x13
 2198 004a 00       		.byte	0
 2199 004b 00       		.byte	0
 2200 004c 07       		.uleb128 0x7
 2201 004d 01       		.uleb128 0x1
 2202 004e 01       		.byte	0x1
 2203 004f 49       		.uleb128 0x49
 2204 0050 13       		.uleb128 0x13
 2205 0051 01       		.uleb128 0x1
 2206 0052 13       		.uleb128 0x13
 2207 0053 00       		.byte	0
 2208 0054 00       		.byte	0
 2209 0055 08       		.uleb128 0x8
 2210 0056 21       		.uleb128 0x21
 2211 0057 00       		.byte	0
 2212 0058 49       		.uleb128 0x49
 2213 0059 13       		.uleb128 0x13
 2214 005a 2F       		.uleb128 0x2f
 2215 005b 0B       		.uleb128 0xb
 2216 005c 00       		.byte	0
 2217 005d 00       		.byte	0
 2218 005e 09       		.uleb128 0x9
 2219 005f 13       		.uleb128 0x13
 2220 0060 01       		.byte	0x1
 2221 0061 0B       		.uleb128 0xb
ARM GAS  C:\Users\dantz\AppData\Local\Temp\ccGcZMb9.s 			page 46


 2222 0062 05       		.uleb128 0x5
 2223 0063 3A       		.uleb128 0x3a
 2224 0064 0B       		.uleb128 0xb
 2225 0065 3B       		.uleb128 0x3b
 2226 0066 0B       		.uleb128 0xb
 2227 0067 01       		.uleb128 0x1
 2228 0068 13       		.uleb128 0x13
 2229 0069 00       		.byte	0
 2230 006a 00       		.byte	0
 2231 006b 0A       		.uleb128 0xa
 2232 006c 0D       		.uleb128 0xd
 2233 006d 00       		.byte	0
 2234 006e 03       		.uleb128 0x3
 2235 006f 0E       		.uleb128 0xe
 2236 0070 3A       		.uleb128 0x3a
 2237 0071 0B       		.uleb128 0xb
 2238 0072 3B       		.uleb128 0x3b
 2239 0073 0B       		.uleb128 0xb
 2240 0074 49       		.uleb128 0x49
 2241 0075 13       		.uleb128 0x13
 2242 0076 38       		.uleb128 0x38
 2243 0077 0B       		.uleb128 0xb
 2244 0078 00       		.byte	0
 2245 0079 00       		.byte	0
 2246 007a 0B       		.uleb128 0xb
 2247 007b 13       		.uleb128 0x13
 2248 007c 01       		.byte	0x1
 2249 007d 0B       		.uleb128 0xb
 2250 007e 0B       		.uleb128 0xb
 2251 007f 3A       		.uleb128 0x3a
 2252 0080 0B       		.uleb128 0xb
 2253 0081 3B       		.uleb128 0x3b
 2254 0082 0B       		.uleb128 0xb
 2255 0083 01       		.uleb128 0x1
 2256 0084 13       		.uleb128 0x13
 2257 0085 00       		.byte	0
 2258 0086 00       		.byte	0
 2259 0087 0C       		.uleb128 0xc
 2260 0088 0D       		.uleb128 0xd
 2261 0089 00       		.byte	0
 2262 008a 03       		.uleb128 0x3
 2263 008b 08       		.uleb128 0x8
 2264 008c 3A       		.uleb128 0x3a
 2265 008d 0B       		.uleb128 0xb
 2266 008e 3B       		.uleb128 0x3b
 2267 008f 0B       		.uleb128 0xb
 2268 0090 49       		.uleb128 0x49
 2269 0091 13       		.uleb128 0x13
 2270 0092 38       		.uleb128 0x38
 2271 0093 0B       		.uleb128 0xb
 2272 0094 00       		.byte	0
 2273 0095 00       		.byte	0
 2274 0096 0D       		.uleb128 0xd
 2275 0097 35       		.uleb128 0x35
 2276 0098 00       		.byte	0
 2277 0099 49       		.uleb128 0x49
 2278 009a 13       		.uleb128 0x13
ARM GAS  C:\Users\dantz\AppData\Local\Temp\ccGcZMb9.s 			page 47


 2279 009b 00       		.byte	0
 2280 009c 00       		.byte	0
 2281 009d 0E       		.uleb128 0xe
 2282 009e 2E       		.uleb128 0x2e
 2283 009f 00       		.byte	0
 2284 00a0 3F       		.uleb128 0x3f
 2285 00a1 19       		.uleb128 0x19
 2286 00a2 03       		.uleb128 0x3
 2287 00a3 0E       		.uleb128 0xe
 2288 00a4 3A       		.uleb128 0x3a
 2289 00a5 0B       		.uleb128 0xb
 2290 00a6 3B       		.uleb128 0x3b
 2291 00a7 0B       		.uleb128 0xb
 2292 00a8 27       		.uleb128 0x27
 2293 00a9 19       		.uleb128 0x19
 2294 00aa 11       		.uleb128 0x11
 2295 00ab 01       		.uleb128 0x1
 2296 00ac 12       		.uleb128 0x12
 2297 00ad 06       		.uleb128 0x6
 2298 00ae 40       		.uleb128 0x40
 2299 00af 18       		.uleb128 0x18
 2300 00b0 9642     		.uleb128 0x2116
 2301 00b2 19       		.uleb128 0x19
 2302 00b3 00       		.byte	0
 2303 00b4 00       		.byte	0
 2304 00b5 0F       		.uleb128 0xf
 2305 00b6 2E       		.uleb128 0x2e
 2306 00b7 00       		.byte	0
 2307 00b8 3F       		.uleb128 0x3f
 2308 00b9 19       		.uleb128 0x19
 2309 00ba 03       		.uleb128 0x3
 2310 00bb 0E       		.uleb128 0xe
 2311 00bc 3A       		.uleb128 0x3a
 2312 00bd 0B       		.uleb128 0xb
 2313 00be 3B       		.uleb128 0x3b
 2314 00bf 0B       		.uleb128 0xb
 2315 00c0 11       		.uleb128 0x11
 2316 00c1 01       		.uleb128 0x1
 2317 00c2 12       		.uleb128 0x12
 2318 00c3 06       		.uleb128 0x6
 2319 00c4 40       		.uleb128 0x40
 2320 00c5 18       		.uleb128 0x18
 2321 00c6 9642     		.uleb128 0x2116
 2322 00c8 19       		.uleb128 0x19
 2323 00c9 00       		.byte	0
 2324 00ca 00       		.byte	0
 2325 00cb 10       		.uleb128 0x10
 2326 00cc 2E       		.uleb128 0x2e
 2327 00cd 01       		.byte	0x1
 2328 00ce 3F       		.uleb128 0x3f
 2329 00cf 19       		.uleb128 0x19
 2330 00d0 03       		.uleb128 0x3
 2331 00d1 0E       		.uleb128 0xe
 2332 00d2 3A       		.uleb128 0x3a
 2333 00d3 0B       		.uleb128 0xb
 2334 00d4 3B       		.uleb128 0x3b
 2335 00d5 0B       		.uleb128 0xb
ARM GAS  C:\Users\dantz\AppData\Local\Temp\ccGcZMb9.s 			page 48


 2336 00d6 49       		.uleb128 0x49
 2337 00d7 13       		.uleb128 0x13
 2338 00d8 11       		.uleb128 0x11
 2339 00d9 01       		.uleb128 0x1
 2340 00da 12       		.uleb128 0x12
 2341 00db 06       		.uleb128 0x6
 2342 00dc 40       		.uleb128 0x40
 2343 00dd 18       		.uleb128 0x18
 2344 00de 9642     		.uleb128 0x2116
 2345 00e0 19       		.uleb128 0x19
 2346 00e1 01       		.uleb128 0x1
 2347 00e2 13       		.uleb128 0x13
 2348 00e3 00       		.byte	0
 2349 00e4 00       		.byte	0
 2350 00e5 11       		.uleb128 0x11
 2351 00e6 34       		.uleb128 0x34
 2352 00e7 00       		.byte	0
 2353 00e8 03       		.uleb128 0x3
 2354 00e9 0E       		.uleb128 0xe
 2355 00ea 3A       		.uleb128 0x3a
 2356 00eb 0B       		.uleb128 0xb
 2357 00ec 3B       		.uleb128 0x3b
 2358 00ed 0B       		.uleb128 0xb
 2359 00ee 49       		.uleb128 0x49
 2360 00ef 13       		.uleb128 0x13
 2361 00f0 02       		.uleb128 0x2
 2362 00f1 18       		.uleb128 0x18
 2363 00f2 00       		.byte	0
 2364 00f3 00       		.byte	0
 2365 00f4 12       		.uleb128 0x12
 2366 00f5 34       		.uleb128 0x34
 2367 00f6 00       		.byte	0
 2368 00f7 03       		.uleb128 0x3
 2369 00f8 08       		.uleb128 0x8
 2370 00f9 3A       		.uleb128 0x3a
 2371 00fa 0B       		.uleb128 0xb
 2372 00fb 3B       		.uleb128 0x3b
 2373 00fc 0B       		.uleb128 0xb
 2374 00fd 49       		.uleb128 0x49
 2375 00fe 13       		.uleb128 0x13
 2376 00ff 02       		.uleb128 0x2
 2377 0100 18       		.uleb128 0x18
 2378 0101 00       		.byte	0
 2379 0102 00       		.byte	0
 2380 0103 13       		.uleb128 0x13
 2381 0104 0B       		.uleb128 0xb
 2382 0105 01       		.byte	0x1
 2383 0106 11       		.uleb128 0x11
 2384 0107 01       		.uleb128 0x1
 2385 0108 12       		.uleb128 0x12
 2386 0109 06       		.uleb128 0x6
 2387 010a 00       		.byte	0
 2388 010b 00       		.byte	0
 2389 010c 14       		.uleb128 0x14
 2390 010d 2E       		.uleb128 0x2e
 2391 010e 01       		.byte	0x1
 2392 010f 3F       		.uleb128 0x3f
ARM GAS  C:\Users\dantz\AppData\Local\Temp\ccGcZMb9.s 			page 49


 2393 0110 19       		.uleb128 0x19
 2394 0111 03       		.uleb128 0x3
 2395 0112 0E       		.uleb128 0xe
 2396 0113 3A       		.uleb128 0x3a
 2397 0114 0B       		.uleb128 0xb
 2398 0115 3B       		.uleb128 0x3b
 2399 0116 0B       		.uleb128 0xb
 2400 0117 27       		.uleb128 0x27
 2401 0118 19       		.uleb128 0x19
 2402 0119 49       		.uleb128 0x49
 2403 011a 13       		.uleb128 0x13
 2404 011b 11       		.uleb128 0x11
 2405 011c 01       		.uleb128 0x1
 2406 011d 12       		.uleb128 0x12
 2407 011e 06       		.uleb128 0x6
 2408 011f 40       		.uleb128 0x40
 2409 0120 18       		.uleb128 0x18
 2410 0121 9642     		.uleb128 0x2116
 2411 0123 19       		.uleb128 0x19
 2412 0124 01       		.uleb128 0x1
 2413 0125 13       		.uleb128 0x13
 2414 0126 00       		.byte	0
 2415 0127 00       		.byte	0
 2416 0128 15       		.uleb128 0x15
 2417 0129 05       		.uleb128 0x5
 2418 012a 00       		.byte	0
 2419 012b 03       		.uleb128 0x3
 2420 012c 0E       		.uleb128 0xe
 2421 012d 3A       		.uleb128 0x3a
 2422 012e 0B       		.uleb128 0xb
 2423 012f 3B       		.uleb128 0x3b
 2424 0130 0B       		.uleb128 0xb
 2425 0131 49       		.uleb128 0x49
 2426 0132 13       		.uleb128 0x13
 2427 0133 02       		.uleb128 0x2
 2428 0134 18       		.uleb128 0x18
 2429 0135 00       		.byte	0
 2430 0136 00       		.byte	0
 2431 0137 16       		.uleb128 0x16
 2432 0138 05       		.uleb128 0x5
 2433 0139 00       		.byte	0
 2434 013a 03       		.uleb128 0x3
 2435 013b 08       		.uleb128 0x8
 2436 013c 3A       		.uleb128 0x3a
 2437 013d 0B       		.uleb128 0xb
 2438 013e 3B       		.uleb128 0x3b
 2439 013f 0B       		.uleb128 0xb
 2440 0140 49       		.uleb128 0x49
 2441 0141 13       		.uleb128 0x13
 2442 0142 02       		.uleb128 0x2
 2443 0143 18       		.uleb128 0x18
 2444 0144 00       		.byte	0
 2445 0145 00       		.byte	0
 2446 0146 17       		.uleb128 0x17
 2447 0147 2E       		.uleb128 0x2e
 2448 0148 01       		.byte	0x1
 2449 0149 3F       		.uleb128 0x3f
ARM GAS  C:\Users\dantz\AppData\Local\Temp\ccGcZMb9.s 			page 50


 2450 014a 19       		.uleb128 0x19
 2451 014b 03       		.uleb128 0x3
 2452 014c 0E       		.uleb128 0xe
 2453 014d 3A       		.uleb128 0x3a
 2454 014e 0B       		.uleb128 0xb
 2455 014f 3B       		.uleb128 0x3b
 2456 0150 0B       		.uleb128 0xb
 2457 0151 27       		.uleb128 0x27
 2458 0152 19       		.uleb128 0x19
 2459 0153 11       		.uleb128 0x11
 2460 0154 01       		.uleb128 0x1
 2461 0155 12       		.uleb128 0x12
 2462 0156 06       		.uleb128 0x6
 2463 0157 40       		.uleb128 0x40
 2464 0158 18       		.uleb128 0x18
 2465 0159 9642     		.uleb128 0x2116
 2466 015b 19       		.uleb128 0x19
 2467 015c 01       		.uleb128 0x1
 2468 015d 13       		.uleb128 0x13
 2469 015e 00       		.byte	0
 2470 015f 00       		.byte	0
 2471 0160 18       		.uleb128 0x18
 2472 0161 2E       		.uleb128 0x2e
 2473 0162 01       		.byte	0x1
 2474 0163 3F       		.uleb128 0x3f
 2475 0164 19       		.uleb128 0x19
 2476 0165 03       		.uleb128 0x3
 2477 0166 0E       		.uleb128 0xe
 2478 0167 3A       		.uleb128 0x3a
 2479 0168 0B       		.uleb128 0xb
 2480 0169 3B       		.uleb128 0x3b
 2481 016a 05       		.uleb128 0x5
 2482 016b 27       		.uleb128 0x27
 2483 016c 19       		.uleb128 0x19
 2484 016d 11       		.uleb128 0x11
 2485 016e 01       		.uleb128 0x1
 2486 016f 12       		.uleb128 0x12
 2487 0170 06       		.uleb128 0x6
 2488 0171 40       		.uleb128 0x40
 2489 0172 18       		.uleb128 0x18
 2490 0173 9742     		.uleb128 0x2117
 2491 0175 19       		.uleb128 0x19
 2492 0176 01       		.uleb128 0x1
 2493 0177 13       		.uleb128 0x13
 2494 0178 00       		.byte	0
 2495 0179 00       		.byte	0
 2496 017a 19       		.uleb128 0x19
 2497 017b 05       		.uleb128 0x5
 2498 017c 00       		.byte	0
 2499 017d 03       		.uleb128 0x3
 2500 017e 08       		.uleb128 0x8
 2501 017f 3A       		.uleb128 0x3a
 2502 0180 0B       		.uleb128 0xb
 2503 0181 3B       		.uleb128 0x3b
 2504 0182 05       		.uleb128 0x5
 2505 0183 49       		.uleb128 0x49
 2506 0184 13       		.uleb128 0x13
ARM GAS  C:\Users\dantz\AppData\Local\Temp\ccGcZMb9.s 			page 51


 2507 0185 02       		.uleb128 0x2
 2508 0186 18       		.uleb128 0x18
 2509 0187 00       		.byte	0
 2510 0188 00       		.byte	0
 2511 0189 1A       		.uleb128 0x1a
 2512 018a 34       		.uleb128 0x34
 2513 018b 00       		.byte	0
 2514 018c 03       		.uleb128 0x3
 2515 018d 08       		.uleb128 0x8
 2516 018e 3A       		.uleb128 0x3a
 2517 018f 0B       		.uleb128 0xb
 2518 0190 3B       		.uleb128 0x3b
 2519 0191 05       		.uleb128 0x5
 2520 0192 49       		.uleb128 0x49
 2521 0193 13       		.uleb128 0x13
 2522 0194 02       		.uleb128 0x2
 2523 0195 18       		.uleb128 0x18
 2524 0196 00       		.byte	0
 2525 0197 00       		.byte	0
 2526 0198 1B       		.uleb128 0x1b
 2527 0199 34       		.uleb128 0x34
 2528 019a 00       		.byte	0
 2529 019b 03       		.uleb128 0x3
 2530 019c 0E       		.uleb128 0xe
 2531 019d 3A       		.uleb128 0x3a
 2532 019e 0B       		.uleb128 0xb
 2533 019f 3B       		.uleb128 0x3b
 2534 01a0 05       		.uleb128 0x5
 2535 01a1 49       		.uleb128 0x49
 2536 01a2 13       		.uleb128 0x13
 2537 01a3 3F       		.uleb128 0x3f
 2538 01a4 19       		.uleb128 0x19
 2539 01a5 3C       		.uleb128 0x3c
 2540 01a6 19       		.uleb128 0x19
 2541 01a7 00       		.byte	0
 2542 01a8 00       		.byte	0
 2543 01a9 1C       		.uleb128 0x1c
 2544 01aa 34       		.uleb128 0x34
 2545 01ab 00       		.byte	0
 2546 01ac 03       		.uleb128 0x3
 2547 01ad 0E       		.uleb128 0xe
 2548 01ae 3A       		.uleb128 0x3a
 2549 01af 0B       		.uleb128 0xb
 2550 01b0 3B       		.uleb128 0x3b
 2551 01b1 0B       		.uleb128 0xb
 2552 01b2 49       		.uleb128 0x49
 2553 01b3 13       		.uleb128 0x13
 2554 01b4 3F       		.uleb128 0x3f
 2555 01b5 19       		.uleb128 0x19
 2556 01b6 02       		.uleb128 0x2
 2557 01b7 18       		.uleb128 0x18
 2558 01b8 00       		.byte	0
 2559 01b9 00       		.byte	0
 2560 01ba 1D       		.uleb128 0x1d
 2561 01bb 21       		.uleb128 0x21
 2562 01bc 00       		.byte	0
 2563 01bd 49       		.uleb128 0x49
ARM GAS  C:\Users\dantz\AppData\Local\Temp\ccGcZMb9.s 			page 52


 2564 01be 13       		.uleb128 0x13
 2565 01bf 2F       		.uleb128 0x2f
 2566 01c0 05       		.uleb128 0x5
 2567 01c1 00       		.byte	0
 2568 01c2 00       		.byte	0
 2569 01c3 1E       		.uleb128 0x1e
 2570 01c4 34       		.uleb128 0x34
 2571 01c5 00       		.byte	0
 2572 01c6 03       		.uleb128 0x3
 2573 01c7 08       		.uleb128 0x8
 2574 01c8 3A       		.uleb128 0x3a
 2575 01c9 0B       		.uleb128 0xb
 2576 01ca 3B       		.uleb128 0x3b
 2577 01cb 0B       		.uleb128 0xb
 2578 01cc 49       		.uleb128 0x49
 2579 01cd 13       		.uleb128 0x13
 2580 01ce 3F       		.uleb128 0x3f
 2581 01cf 19       		.uleb128 0x19
 2582 01d0 02       		.uleb128 0x2
 2583 01d1 18       		.uleb128 0x18
 2584 01d2 00       		.byte	0
 2585 01d3 00       		.byte	0
 2586 01d4 00       		.byte	0
 2587              		.section	.debug_aranges,"",%progbits
 2588 0000 64000000 		.4byte	0x64
 2589 0004 0200     		.2byte	0x2
 2590 0006 00000000 		.4byte	.Ldebug_info0
 2591 000a 04       		.byte	0x4
 2592 000b 00       		.byte	0
 2593 000c 0000     		.2byte	0
 2594 000e 0000     		.2byte	0
 2595 0010 00000000 		.4byte	.LFB64
 2596 0014 44000000 		.4byte	.LFE64-.LFB64
 2597 0018 00000000 		.4byte	.LFB65
 2598 001c 28000000 		.4byte	.LFE65-.LFB65
 2599 0020 00000000 		.4byte	.LFB66
 2600 0024 30000000 		.4byte	.LFE66-.LFB66
 2601 0028 00000000 		.4byte	.LFB67
 2602 002c 28000000 		.4byte	.LFE67-.LFB67
 2603 0030 00000000 		.4byte	.LFB68
 2604 0034 00010000 		.4byte	.LFE68-.LFB68
 2605 0038 00000000 		.4byte	.LFB69
 2606 003c D4020000 		.4byte	.LFE69-.LFB69
 2607 0040 00000000 		.4byte	.LFB70
 2608 0044 44010000 		.4byte	.LFE70-.LFB70
 2609 0048 00000000 		.4byte	.LFB71
 2610 004c 7A000000 		.4byte	.LFE71-.LFB71
 2611 0050 00000000 		.4byte	.LFB72
 2612 0054 7E000000 		.4byte	.LFE72-.LFB72
 2613 0058 00000000 		.4byte	.LFB73
 2614 005c 28000000 		.4byte	.LFE73-.LFB73
 2615 0060 00000000 		.4byte	0
 2616 0064 00000000 		.4byte	0
 2617              		.section	.debug_ranges,"",%progbits
 2618              	.Ldebug_ranges0:
 2619 0000 00000000 		.4byte	.LFB64
 2620 0004 44000000 		.4byte	.LFE64
ARM GAS  C:\Users\dantz\AppData\Local\Temp\ccGcZMb9.s 			page 53


 2621 0008 00000000 		.4byte	.LFB65
 2622 000c 28000000 		.4byte	.LFE65
 2623 0010 00000000 		.4byte	.LFB66
 2624 0014 30000000 		.4byte	.LFE66
 2625 0018 00000000 		.4byte	.LFB67
 2626 001c 28000000 		.4byte	.LFE67
 2627 0020 00000000 		.4byte	.LFB68
 2628 0024 00010000 		.4byte	.LFE68
 2629 0028 00000000 		.4byte	.LFB69
 2630 002c D4020000 		.4byte	.LFE69
 2631 0030 00000000 		.4byte	.LFB70
 2632 0034 44010000 		.4byte	.LFE70
 2633 0038 00000000 		.4byte	.LFB71
 2634 003c 7A000000 		.4byte	.LFE71
 2635 0040 00000000 		.4byte	.LFB72
 2636 0044 7E000000 		.4byte	.LFE72
 2637 0048 00000000 		.4byte	.LFB73
 2638 004c 28000000 		.4byte	.LFE73
 2639 0050 00000000 		.4byte	0
 2640 0054 00000000 		.4byte	0
 2641              		.section	.debug_line,"",%progbits
 2642              	.Ldebug_line0:
 2643 0000 1A030000 		.section	.debug_str,"MS",%progbits,1
 2643      02008E01 
 2643      00000201 
 2643      FB0E0D00 
 2643      01010101 
 2644              	.LASF29:
 2645 0000 6D6F6465 		.ascii	"model_id\000"
 2645      6C5F6964 
 2645      00
 2646              	.LASF61:
 2647 0009 444F5F49 		.ascii	"DO_ISR\000"
 2647      535200
 2648              	.LASF28:
 2649 0010 73696D5F 		.ascii	"sim_id\000"
 2649      696400
 2650              	.LASF72:
 2651 0017 444F5F63 		.ascii	"DO_cal\000"
 2651      616C00
 2652              	.LASF60:
 2653 001e 7379735F 		.ascii	"sys_settings_t\000"
 2653      73657474 
 2653      696E6773 
 2653      5F7400
 2654              	.LASF15:
 2655 002d 666C6F61 		.ascii	"float32\000"
 2655      74333200 
 2656              	.LASF51:
 2657 0035 63757272 		.ascii	"currentCountDownValue\000"
 2657      656E7443 
 2657      6F756E74 
 2657      446F776E 
 2657      56616C75 
 2658              	.LASF77:
 2659 004b 6D656469 		.ascii	"median\000"
 2659      616E00
ARM GAS  C:\Users\dantz\AppData\Local\Temp\ccGcZMb9.s 			page 54


 2660              	.LASF50:
 2661 0052 636F756E 		.ascii	"countDownValue\000"
 2661      74446F77 
 2661      6E56616C 
 2661      756500
 2662              	.LASF2:
 2663 0061 73686F72 		.ascii	"short int\000"
 2663      7420696E 
 2663      7400
 2664              	.LASF20:
 2665 006b 73697A65 		.ascii	"sizetype\000"
 2665      74797065 
 2665      00
 2666              	.LASF58:
 2667 0074 65705F68 		.ascii	"ep_host\000"
 2667      6F737400 
 2668              	.LASF102:
 2669 007c 64697373 		.ascii	"diss_oxy.c\000"
 2669      5F6F7879 
 2669      2E6300
 2670              	.LASF101:
 2671 0087 474E5520 		.ascii	"GNU C11 5.4.1 20160609 (release) [ARM/embedded-5-br"
 2671      43313120 
 2671      352E342E 
 2671      31203230 
 2671      31363036 
 2672 00ba 616E6368 		.ascii	"anch revision 237715] -mcpu=cortex-m3 -mthumb -g -O"
 2672      20726576 
 2672      6973696F 
 2672      6E203233 
 2672      37373135 
 2673 00ed 30202D66 		.ascii	"0 -ffunction-sections -ffat-lto-objects\000"
 2673      66756E63 
 2673      74696F6E 
 2673      2D736563 
 2673      74696F6E 
 2674              	.LASF84:
 2675 0115 64617461 		.ascii	"data\000"
 2675      00
 2676              	.LASF104:
 2677 011a 666C6F61 		.ascii	"float_find_median\000"
 2677      745F6669 
 2677      6E645F6D 
 2677      65646961 
 2677      6E00
 2678              	.LASF79:
 2679 012c 66737761 		.ascii	"fswap\000"
 2679      7000
 2680              	.LASF34:
 2681 0132 65636E6F 		.ascii	"ecno\000"
 2681      00
 2682              	.LASF25:
 2683 0137 76616C75 		.ascii	"value\000"
 2683      6500
 2684              	.LASF12:
 2685 013d 75696E74 		.ascii	"uint16\000"
 2685      313600
ARM GAS  C:\Users\dantz\AppData\Local\Temp\ccGcZMb9.s 			page 55


 2686              	.LASF62:
 2687 0144 646F5F75 		.ascii	"do_uart_clear\000"
 2687      6172745F 
 2687      636C6561 
 2687      7200
 2688              	.LASF11:
 2689 0152 75696E74 		.ascii	"uint8\000"
 2689      3800
 2690              	.LASF33:
 2691 0158 72736370 		.ascii	"rscp\000"
 2691      00
 2692              	.LASF26:
 2693 015d 74696D65 		.ascii	"timeStamp\000"
 2693      5374616D 
 2693      7000
 2694              	.LASF83:
 2695 0167 64617461 		.ascii	"dataPointsInStackDesired\000"
 2695      506F696E 
 2695      7473496E 
 2695      53746163 
 2695      6B446573 
 2696              	.LASF16:
 2697 0180 666C6F61 		.ascii	"float\000"
 2697      7400
 2698              	.LASF100:
 2699 0186 646F5F73 		.ascii	"do_string_index\000"
 2699      7472696E 
 2699      675F696E 
 2699      64657800 
 2700              	.LASF14:
 2701 0196 696E7433 		.ascii	"int32\000"
 2701      3200
 2702              	.LASF6:
 2703 019c 6C6F6E67 		.ascii	"long long int\000"
 2703      206C6F6E 
 2703      6720696E 
 2703      7400
 2704              	.LASF13:
 2705 01aa 696E7431 		.ascii	"int16\000"
 2705      3600
 2706              	.LASF94:
 2707 01b0 616C6172 		.ascii	"alarmMeasure\000"
 2707      6D4D6561 
 2707      73757265 
 2707      00
 2708              	.LASF18:
 2709 01bd 63686172 		.ascii	"char\000"
 2709      00
 2710              	.LASF23:
 2711 01c2 72656173 		.ascii	"reason\000"
 2711      6F6E00
 2712              	.LASF4:
 2713 01c9 6C6F6E67 		.ascii	"long int\000"
 2713      20696E74 
 2713      00
 2714              	.LASF81:
 2715 01d2 62756666 		.ascii	"buffer_overflow\000"
ARM GAS  C:\Users\dantz\AppData\Local\Temp\ccGcZMb9.s 			page 56


 2715      65725F6F 
 2715      76657266 
 2715      6C6F7700 
 2716              	.LASF55:
 2717 01e2 6D6F6465 		.ascii	"modem_info\000"
 2717      6D5F696E 
 2717      666F00
 2718              	.LASF103:
 2719 01ed 433A5C55 		.ascii	"C:\\Users\\dantz\\Documents\\notoriOS\\notoriOS\\no"
 2719      73657273 
 2719      5C64616E 
 2719      747A5C44 
 2719      6F63756D 
 2720 021a 746F7269 		.ascii	"toriOS.cydsn\000"
 2720      4F532E63 
 2720      7964736E 
 2720      00
 2721              	.LASF64:
 2722 0227 444F5F73 		.ascii	"DO_stop_talking\000"
 2722      746F705F 
 2722      74616C6B 
 2722      696E6700 
 2723              	.LASF54:
 2724 0237 616C6172 		.ascii	"alarm\000"
 2724      6D00
 2725              	.LASF42:
 2726 023d 6D656173 		.ascii	"measure_time\000"
 2726      7572655F 
 2726      74696D65 
 2726      00
 2727              	.LASF75:
 2728 024a 63616C69 		.ascii	"calibrated\000"
 2728      62726174 
 2728      656400
 2729              	.LASF96:
 2730 0255 616C6172 		.ascii	"alarmSync\000"
 2730      6D53796E 
 2730      6300
 2731              	.LASF19:
 2732 025f 6C6F6E67 		.ascii	"long double\000"
 2732      20646F75 
 2732      626C6500 
 2733              	.LASF82:
 2734 026b 64617461 		.ascii	"dataPointsInStack\000"
 2734      506F696E 
 2734      7473496E 
 2734      53746163 
 2734      6B00
 2735              	.LASF1:
 2736 027d 756E7369 		.ascii	"unsigned char\000"
 2736      676E6564 
 2736      20636861 
 2736      7200
 2737              	.LASF36:
 2738 028b 72737270 		.ascii	"rsrp\000"
 2738      00
 2739              	.LASF47:
ARM GAS  C:\Users\dantz\AppData\Local\Temp\ccGcZMb9.s 			page 57


 2740 0290 616C6C5F 		.ascii	"all_do_readings\000"
 2740      646F5F72 
 2740      65616469 
 2740      6E677300 
 2741              	.LASF86:
 2742 02a0 6D6F6465 		.ascii	"modem_start_time_stamp\000"
 2742      6D5F7374 
 2742      6172745F 
 2742      74696D65 
 2742      5F737461 
 2743              	.LASF49:
 2744 02b7 444F5F73 		.ascii	"DO_sensor_t\000"
 2744      656E736F 
 2744      725F7400 
 2745              	.LASF85:
 2746 02c3 6D6F6465 		.ascii	"modem_state\000"
 2746      6D5F7374 
 2746      61746500 
 2747              	.LASF0:
 2748 02cf 7369676E 		.ascii	"signed char\000"
 2748      65642063 
 2748      68617200 
 2749              	.LASF7:
 2750 02db 6C6F6E67 		.ascii	"long long unsigned int\000"
 2750      206C6F6E 
 2750      6720756E 
 2750      7369676E 
 2750      65642069 
 2751              	.LASF93:
 2752 02f2 73797374 		.ascii	"system_settings\000"
 2752      656D5F73 
 2752      65747469 
 2752      6E677300 
 2753              	.LASF69:
 2754 0302 444F5F73 		.ascii	"DO_sensor_test\000"
 2754      656E736F 
 2754      725F7465 
 2754      737400
 2755              	.LASF56:
 2756 0311 63686970 		.ascii	"chip_uniqueId\000"
 2756      5F756E69 
 2756      71756549 
 2756      6400
 2757              	.LASF8:
 2758 031f 756E7369 		.ascii	"unsigned int\000"
 2758      676E6564 
 2758      20696E74 
 2758      00
 2759              	.LASF27:
 2760 032c 6B65795F 		.ascii	"key_value_t\000"
 2760      76616C75 
 2760      655F7400 
 2761              	.LASF32:
 2762 0338 72786C65 		.ascii	"rxlev\000"
 2762      7600
 2763              	.LASF43:
 2764 033e 73796E63 		.ascii	"sync_time\000"
ARM GAS  C:\Users\dantz\AppData\Local\Temp\ccGcZMb9.s 			page 58


 2764      5F74696D 
 2764      6500
 2765              	.LASF87:
 2766 0348 6D6F6465 		.ascii	"modem_stats\000"
 2766      6D5F7374 
 2766      61747300 
 2767              	.LASF95:
 2768 0354 74696D65 		.ascii	"timeToMeasure\000"
 2768      546F4D65 
 2768      61737572 
 2768      6500
 2769              	.LASF46:
 2770 0362 75706461 		.ascii	"updatable_parameters_t\000"
 2770      7461626C 
 2770      655F7061 
 2770      72616D65 
 2770      74657273 
 2771              	.LASF41:
 2772 0379 73696D5F 		.ascii	"sim_type\000"
 2772      74797065 
 2772      00
 2773              	.LASF57:
 2774 0382 7379735F 		.ascii	"sys_info_t\000"
 2774      696E666F 
 2774      5F7400
 2775              	.LASF3:
 2776 038d 73686F72 		.ascii	"short unsigned int\000"
 2776      7420756E 
 2776      7369676E 
 2776      65642069 
 2776      6E7400
 2777              	.LASF37:
 2778 03a0 74696D65 		.ascii	"time_to_network_connect\000"
 2778      5F746F5F 
 2778      6E657477 
 2778      6F726B5F 
 2778      636F6E6E 
 2779              	.LASF22:
 2780 03b8 73746174 		.ascii	"status\000"
 2780      757300
 2781              	.LASF92:
 2782 03bf 73797374 		.ascii	"system_info\000"
 2782      656D5F69 
 2782      6E666F00 
 2783              	.LASF38:
 2784 03cb 74696D65 		.ascii	"time_to_acquire_ip\000"
 2784      5F746F5F 
 2784      61637175 
 2784      6972655F 
 2784      697000
 2785              	.LASF80:
 2786 03de 49544D5F 		.ascii	"ITM_RxBuffer\000"
 2786      52784275 
 2786      66666572 
 2786      00
 2787              	.LASF30:
 2788 03eb 696D6569 		.ascii	"imei\000"
ARM GAS  C:\Users\dantz\AppData\Local\Temp\ccGcZMb9.s 			page 59


 2788      00
 2789              	.LASF10:
 2790 03f0 696E7433 		.ascii	"int32_t\000"
 2790      325F7400 
 2791              	.LASF78:
 2792 03f8 66736F72 		.ascii	"fsort\000"
 2792      7400
 2793              	.LASF39:
 2794 03fe 6D6F6465 		.ascii	"modem_stats_t\000"
 2794      6D5F7374 
 2794      6174735F 
 2794      7400
 2795              	.LASF45:
 2796 040c 5F426F6F 		.ascii	"_Bool\000"
 2796      6C00
 2797              	.LASF98:
 2798 0412 74696D65 		.ascii	"timeToSycnRemoteParams\000"
 2798      546F5379 
 2798      636E5265 
 2798      6D6F7465 
 2798      50617261 
 2799              	.LASF71:
 2800 0429 74657374 		.ascii	"test\000"
 2800      00
 2801              	.LASF35:
 2802 042e 72737271 		.ascii	"rsrq\000"
 2802      00
 2803              	.LASF91:
 2804 0433 68747470 		.ascii	"http_route\000"
 2804      5F726F75 
 2804      746500
 2805              	.LASF67:
 2806 043e 72656164 		.ascii	"reading\000"
 2806      696E6700 
 2807              	.LASF70:
 2808 0446 72657375 		.ascii	"results\000"
 2808      6C747300 
 2809              	.LASF48:
 2810 044e 646F5F72 		.ascii	"do_reading\000"
 2810      65616469 
 2810      6E6700
 2811              	.LASF5:
 2812 0459 6C6F6E67 		.ascii	"long unsigned int\000"
 2812      20756E73 
 2812      69676E65 
 2812      6420696E 
 2812      7400
 2813              	.LASF17:
 2814 046b 646F7562 		.ascii	"double\000"
 2814      6C6500
 2815              	.LASF76:
 2816 0472 61727261 		.ascii	"array\000"
 2816      7900
 2817              	.LASF99:
 2818 0478 646F5F72 		.ascii	"do_received_string\000"
 2818      65636569 
 2818      7665645F 
ARM GAS  C:\Users\dantz\AppData\Local\Temp\ccGcZMb9.s 			page 60


 2818      73747269 
 2818      6E6700
 2819              	.LASF44:
 2820 048b 64656275 		.ascii	"debug_level\000"
 2820      675F6C65 
 2820      76656C00 
 2821              	.LASF31:
 2822 0497 6D6F6465 		.ascii	"modem_info_t\000"
 2822      6D5F696E 
 2822      666F5F74 
 2822      00
 2823              	.LASF52:
 2824 04a4 636F756E 		.ascii	"countDownType\000"
 2824      74446F77 
 2824      6E547970 
 2824      6500
 2825              	.LASF9:
 2826 04b2 5F5F696E 		.ascii	"__int32_t\000"
 2826      7433325F 
 2826      7400
 2827              	.LASF68:
 2828 04bc 444F5F72 		.ascii	"DO_read\000"
 2828      65616400 
 2829              	.LASF74:
 2830 04c4 72616E67 		.ascii	"range\000"
 2830      6500
 2831              	.LASF66:
 2832 04ca 746F6B65 		.ascii	"token\000"
 2832      6E00
 2833              	.LASF53:
 2834 04d0 636F756E 		.ascii	"countDownResetCondition\000"
 2834      74446F77 
 2834      6E526573 
 2834      6574436F 
 2834      6E646974 
 2835              	.LASF24:
 2836 04e8 74657374 		.ascii	"test_t\000"
 2836      5F7400
 2837              	.LASF21:
 2838 04ef 74657374 		.ascii	"test_name\000"
 2838      5F6E616D 
 2838      6500
 2839              	.LASF65:
 2840 04f9 6F757470 		.ascii	"output\000"
 2840      757400
 2841              	.LASF63:
 2842 0500 444F5F73 		.ascii	"DO_start_talking\000"
 2842      74617274 
 2842      5F74616C 
 2842      6B696E67 
 2842      00
 2843              	.LASF88:
 2844 0511 75706461 		.ascii	"updatable_parameters\000"
 2844      7461626C 
 2844      655F7061 
 2844      72616D65 
 2844      74657273 
ARM GAS  C:\Users\dantz\AppData\Local\Temp\ccGcZMb9.s 			page 61


 2845              	.LASF59:
 2846 0526 65705F70 		.ascii	"ep_port\000"
 2846      6F727400 
 2847              	.LASF90:
 2848 052e 68747470 		.ascii	"http_body\000"
 2848      5F626F64 
 2848      7900
 2849              	.LASF40:
 2850 0538 6E6F6465 		.ascii	"node_type\000"
 2850      5F747970 
 2850      6500
 2851              	.LASF89:
 2852 0542 68747470 		.ascii	"http_request\000"
 2852      5F726571 
 2852      75657374 
 2852      00
 2853              	.LASF97:
 2854 054f 74696D65 		.ascii	"timeToSync\000"
 2854      546F5379 
 2854      6E6300
 2855              	.LASF73:
 2856 055a 72656164 		.ascii	"readings\000"
 2856      696E6773 
 2856      00
 2857              		.ident	"GCC: (GNU Tools for ARM Embedded Processors) 5.4.1 20160609 (release) [ARM/embedded-5-bran
