ARM GAS  C:\Users\dantz\AppData\Local\Temp\cc2TrK4h.s 			page 1


   1              		.syntax unified
   2              		.cpu cortex-m3
   3              		.fpu softvfp
   4              		.eabi_attribute 20, 1
   5              		.eabi_attribute 21, 1
   6              		.eabi_attribute 23, 3
   7              		.eabi_attribute 24, 1
   8              		.eabi_attribute 25, 1
   9              		.eabi_attribute 26, 1
  10              		.eabi_attribute 30, 6
  11              		.eabi_attribute 34, 1
  12              		.eabi_attribute 18, 4
  13              		.thumb
  14              		.syntax unified
  15              		.file	"diss_oxy.c"
  16              		.text
  17              	.Ltext0:
  18              		.cfi_sections	.debug_frame
  19              		.comm	buffer_overflow,1,1
  20              		.comm	dataPointsInStack,2,2
  21              		.comm	dataPointsInStackDesired,2,2
  22              		.comm	data,6600,4
  23              		.comm	modem_state,1,1
  24              		.comm	modem_start_time_stamp,4,4
  25              		.comm	modem_info,60,4
  26              		.comm	modem_stats,32,4
  27              		.comm	updatable_parameters,5,4
  28              		.syntax unified
  29              		.global _printf_float
  30              		.thumb
  31              		.syntax unified
  32              		.comm	http_request,10000,4
  33              		.comm	http_body,10000,4
  34              		.comm	http_route,200,4
  35              		.comm	system_info,28,4
  36              		.comm	system_settings,104,4
  37              		.comm	alarmMeasure,6,4
  38              		.comm	timeToMeasure,1,1
  39              		.comm	alarmSync,6,4
  40              		.comm	timeToSync,1,1
  41              		.comm	timeToSycnRemoteParams,1,1
  42              		.comm	hey,1,1
  43              		.comm	do_received_string,1024,4
  44              		.global	do_string_index
  45              		.bss
  46              		.align	1
  47              		.type	do_string_index, %object
  48              		.size	do_string_index, 2
  49              	do_string_index:
  50 0000 0000     		.space	2
  51              		.section	.text.DO_ISR,"ax",%progbits
  52              		.align	2
  53              		.global	DO_ISR
  54              		.thumb
  55              		.thumb_func
  56              		.type	DO_ISR, %function
  57              	DO_ISR:
ARM GAS  C:\Users\dantz\AppData\Local\Temp\cc2TrK4h.s 			page 2


  58              	.LFB64:
  59              		.file 1 "diss_oxy.c"
   1:diss_oxy.c    **** #include "notoriOS.h"
   2:diss_oxy.c    **** // #include diss_oxy.h  - this was causing a multiple definition error
   3:diss_oxy.c    **** char do_received_string[1024];
   4:diss_oxy.c    **** int16 do_string_index=0;
   5:diss_oxy.c    **** 
   6:diss_oxy.c    **** // mostly copied from modem.c
   7:diss_oxy.c    **** 
   8:diss_oxy.c    **** CY_ISR_PROTO(DO_ISR); // Declares a custom ISR function "isr_telit_rx" using the CY_ISR_PROTO macro
   9:diss_oxy.c    **** 
  10:diss_oxy.c    **** // Define the custom ISR function "isr_telit_rx" using the CY_ISR macro
  11:diss_oxy.c    **** // Get each character from Telit and saves it to uart_received_string
  12:diss_oxy.c    **** CY_ISR(DO_ISR){      
  60              		.loc 1 12 0
  61              		.cfi_startproc
  62              		@ args = 0, pretend = 0, frame = 0
  63              		@ frame_needed = 1, uses_anonymous_args = 0
  64 0000 98B5     		push	{r3, r4, r7, lr}
  65              		.cfi_def_cfa_offset 16
  66              		.cfi_offset 3, -16
  67              		.cfi_offset 4, -12
  68              		.cfi_offset 7, -8
  69              		.cfi_offset 14, -4
  70 0002 00AF     		add	r7, sp, #0
  71              		.cfi_def_cfa_register 7
  13:diss_oxy.c    ****     // UART_Telit_GetRxBufferSize() returns the number of received bytes available in the RX buffer
  14:diss_oxy.c    **** 
  15:diss_oxy.c    ****     while(DO_UART_GetRxBufferSize()==1){
  72              		.loc 1 15 0
  73 0004 12E0     		b	.L2
  74              	.L3:
  16:diss_oxy.c    ****         //char rx = DO_UART_GetChar();
  17:diss_oxy.c    ****         do_received_string[do_string_index]=DO_UART_GetChar();
  75              		.loc 1 17 0
  76 0006 0D4B     		ldr	r3, .L4
  77 0008 B3F90030 		ldrsh	r3, [r3]
  78 000c 1C46     		mov	r4, r3
  79 000e FFF7FEFF 		bl	DO_UART_GetChar
  80 0012 0346     		mov	r3, r0
  81 0014 1A46     		mov	r2, r3
  82 0016 0A4B     		ldr	r3, .L4+4
  83 0018 1A55     		strb	r2, [r3, r4]
  18:diss_oxy.c    ****         //printNotif(NOTIF_TYPE_EVENT, "received char: %c", rx);
  19:diss_oxy.c    ****         do_string_index++;
  84              		.loc 1 19 0
  85 001a 084B     		ldr	r3, .L4
  86 001c B3F90030 		ldrsh	r3, [r3]
  87 0020 9BB2     		uxth	r3, r3
  88 0022 0133     		adds	r3, r3, #1
  89 0024 9BB2     		uxth	r3, r3
  90 0026 1AB2     		sxth	r2, r3
  91 0028 044B     		ldr	r3, .L4
  92 002a 1A80     		strh	r2, [r3]	@ movhi
  93              	.L2:
  15:diss_oxy.c    ****         //char rx = DO_UART_GetChar();
  94              		.loc 1 15 0
ARM GAS  C:\Users\dantz\AppData\Local\Temp\cc2TrK4h.s 			page 3


  95 002c FFF7FEFF 		bl	DO_UART_GetRxBufferSize
  96 0030 0346     		mov	r3, r0
  97 0032 012B     		cmp	r3, #1
  98 0034 E7D0     		beq	.L3
  20:diss_oxy.c    **** 
  21:diss_oxy.c    ****     }
  22:diss_oxy.c    **** 
  23:diss_oxy.c    **** }
  99              		.loc 1 23 0
 100 0036 00BF     		nop
 101 0038 98BD     		pop	{r3, r4, r7, pc}
 102              	.L5:
 103 003a 00BF     		.align	2
 104              	.L4:
 105 003c 00000000 		.word	do_string_index
 106 0040 00000000 		.word	do_received_string
 107              		.cfi_endproc
 108              	.LFE64:
 109              		.size	DO_ISR, .-DO_ISR
 110              		.section	.rodata
 111              		.align	2
 112              	.LC0:
 113 0000 432C3000 		.ascii	"C,0\000"
 114              		.align	2
 115              	.LC1:
 116 0004 5200     		.ascii	"R\000"
 117 0006 0000     		.align	2
 118              	.LC2:
 119 0008 0D00     		.ascii	"\015\000"
 120              		.global	__aeabi_d2f
 121              		.section	.text.DO_read,"ax",%progbits
 122              		.align	2
 123              		.global	DO_read
 124              		.thumb
 125              		.thumb_func
 126              		.type	DO_read, %function
 127              	DO_read:
 128              	.LFB65:
  24:diss_oxy.c    **** 
  25:diss_oxy.c    **** DO_sensor_t DO_read(){
 129              		.loc 1 25 0
 130              		.cfi_startproc
 131              		@ args = 0, pretend = 0, frame = 72
 132              		@ frame_needed = 1, uses_anonymous_args = 0
 133 0000 B0B5     		push	{r4, r5, r7, lr}
 134              		.cfi_def_cfa_offset 16
 135              		.cfi_offset 4, -16
 136              		.cfi_offset 5, -12
 137              		.cfi_offset 7, -8
 138              		.cfi_offset 14, -4
 139 0002 92B0     		sub	sp, sp, #72
 140              		.cfi_def_cfa_offset 88
 141 0004 00AF     		add	r7, sp, #0
 142              		.cfi_def_cfa_register 7
 143 0006 7860     		str	r0, [r7, #4]
  26:diss_oxy.c    ****     
  27:diss_oxy.c    ****     DO_sensor_t output;
ARM GAS  C:\Users\dantz\AppData\Local\Temp\cc2TrK4h.s 			page 4


  28:diss_oxy.c    ****     
  29:diss_oxy.c    ****     DO_UART_Start();
 144              		.loc 1 29 0
 145 0008 FFF7FEFF 		bl	DO_UART_Start
  30:diss_oxy.c    ****     DO_UART_ClearRxBuffer();
 146              		.loc 1 30 0
 147 000c FFF7FEFF 		bl	DO_UART_ClearRxBuffer
  31:diss_oxy.c    ****     DO_ISR_StartEx(DO_ISR);
 148              		.loc 1 31 0
 149 0010 3448     		ldr	r0, .L12
 150 0012 FFF7FEFF 		bl	DO_ISR_StartEx
  32:diss_oxy.c    ****     Level_Sensor_Power_Write(ON); // Pulls pwr pin high (turns it on).
 151              		.loc 1 32 0
 152 0016 0120     		movs	r0, #1
 153 0018 FFF7FEFF 		bl	Level_Sensor_Power_Write
  33:diss_oxy.c    ****     DO_UART_PutString("C,0"); // turn off automated sampling
 154              		.loc 1 33 0
 155 001c 3248     		ldr	r0, .L12+4
 156 001e FFF7FEFF 		bl	DO_UART_PutString
  34:diss_oxy.c    ****     CyDelay(2000u);
 157              		.loc 1 34 0
 158 0022 4FF4FA60 		mov	r0, #2000
 159 0026 FFF7FEFF 		bl	CyDelay
 160              	.LBB2:
  35:diss_oxy.c    ****     
  36:diss_oxy.c    ****     
  37:diss_oxy.c    ****     // get the tokens we actually want which are readings
  38:diss_oxy.c    **** 
  39:diss_oxy.c    ****     for (int i = 0; i < 11; i++){
 161              		.loc 1 39 0
 162 002a 0023     		movs	r3, #0
 163 002c 7B64     		str	r3, [r7, #68]
 164 002e 09E0     		b	.L7
 165              	.L8:
  40:diss_oxy.c    ****         DO_UART_PutString("R"); // take one reading
 166              		.loc 1 40 0 discriminator 3
 167 0030 2E48     		ldr	r0, .L12+8
 168 0032 FFF7FEFF 		bl	DO_UART_PutString
  41:diss_oxy.c    ****         CyDelay(1000u);
 169              		.loc 1 41 0 discriminator 3
 170 0036 4FF47A70 		mov	r0, #1000
 171 003a FFF7FEFF 		bl	CyDelay
  39:diss_oxy.c    ****         DO_UART_PutString("R"); // take one reading
 172              		.loc 1 39 0 discriminator 3
 173 003e 7B6C     		ldr	r3, [r7, #68]
 174 0040 0133     		adds	r3, r3, #1
 175 0042 7B64     		str	r3, [r7, #68]
 176              	.L7:
  39:diss_oxy.c    ****         DO_UART_PutString("R"); // take one reading
 177              		.loc 1 39 0 is_stmt 0 discriminator 1
 178 0044 7B6C     		ldr	r3, [r7, #68]
 179 0046 0A2B     		cmp	r3, #10
 180 0048 F2DD     		ble	.L8
 181              	.LBE2:
  42:diss_oxy.c    ****     }
  43:diss_oxy.c    **** 
  44:diss_oxy.c    ****     // eat the first two tokens because they're not measurements
ARM GAS  C:\Users\dantz\AppData\Local\Temp\cc2TrK4h.s 			page 5


  45:diss_oxy.c    ****     char *token;
  46:diss_oxy.c    ****     
  47:diss_oxy.c    ****     token = strtok(do_received_string, "\r");
 182              		.loc 1 47 0 is_stmt 1
 183 004a 2949     		ldr	r1, .L12+12
 184 004c 2948     		ldr	r0, .L12+16
 185 004e FFF7FEFF 		bl	strtok
 186 0052 3864     		str	r0, [r7, #64]
  48:diss_oxy.c    ****     token = strtok(NULL, "\r"); // eat *RS/r
 187              		.loc 1 48 0
 188 0054 2649     		ldr	r1, .L12+12
 189 0056 0020     		movs	r0, #0
 190 0058 FFF7FEFF 		bl	strtok
 191 005c 3864     		str	r0, [r7, #64]
  49:diss_oxy.c    ****     token = strtok(NULL, "\r"); // eat RE/r
 192              		.loc 1 49 0
 193 005e 2449     		ldr	r1, .L12+12
 194 0060 0020     		movs	r0, #0
 195 0062 FFF7FEFF 		bl	strtok
 196 0066 3864     		str	r0, [r7, #64]
  50:diss_oxy.c    ****     uint8 i = 0;
 197              		.loc 1 50 0
 198 0068 0023     		movs	r3, #0
 199 006a 87F83F30 		strb	r3, [r7, #63]
  51:diss_oxy.c    ****     float32 reading;
  52:diss_oxy.c    ****     while( token != NULL ) {
 200              		.loc 1 52 0
 201 006e 1DE0     		b	.L9
 202              	.L10:
  53:diss_oxy.c    ****         reading = atof(token);
 203              		.loc 1 53 0
 204 0070 386C     		ldr	r0, [r7, #64]
 205 0072 FFF7FEFF 		bl	atof
 206 0076 0346     		mov	r3, r0
 207 0078 0C46     		mov	r4, r1
 208 007a 1846     		mov	r0, r3
 209 007c 2146     		mov	r1, r4
 210 007e FFF7FEFF 		bl	__aeabi_d2f
 211 0082 0346     		mov	r3, r0
 212 0084 BB63     		str	r3, [r7, #56]	@ float
  54:diss_oxy.c    ****         output.all_do_readings[i] = reading;
 213              		.loc 1 54 0
 214 0086 97F83F30 		ldrb	r3, [r7, #63]	@ zero_extendqisi2
 215 008a 9B00     		lsls	r3, r3, #2
 216 008c 07F14802 		add	r2, r7, #72
 217 0090 1344     		add	r3, r3, r2
 218 0092 BA6B     		ldr	r2, [r7, #56]	@ float
 219 0094 43F8402C 		str	r2, [r3, #-64]	@ float
  55:diss_oxy.c    ****         token = strtok(NULL, "\r"); // This "NULL" says to continue where you left off last time.  
 220              		.loc 1 55 0
 221 0098 1549     		ldr	r1, .L12+12
 222 009a 0020     		movs	r0, #0
 223 009c FFF7FEFF 		bl	strtok
 224 00a0 3864     		str	r0, [r7, #64]
  56:diss_oxy.c    ****         i++;
 225              		.loc 1 56 0
 226 00a2 97F83F30 		ldrb	r3, [r7, #63]	@ zero_extendqisi2
ARM GAS  C:\Users\dantz\AppData\Local\Temp\cc2TrK4h.s 			page 6


 227 00a6 0133     		adds	r3, r3, #1
 228 00a8 87F83F30 		strb	r3, [r7, #63]
 229              	.L9:
  52:diss_oxy.c    ****         reading = atof(token);
 230              		.loc 1 52 0
 231 00ac 3B6C     		ldr	r3, [r7, #64]
 232 00ae 002B     		cmp	r3, #0
 233 00b0 DED1     		bne	.L10
  57:diss_oxy.c    ****     }
  58:diss_oxy.c    **** 
  59:diss_oxy.c    ****     // readings array should have eleven nice floats now
  60:diss_oxy.c    ****    
  61:diss_oxy.c    ****     output.do_reading = float_find_median(output.all_do_readings, 11);
 234              		.loc 1 61 0
 235 00b2 07F10803 		add	r3, r7, #8
 236 00b6 0B21     		movs	r1, #11
 237 00b8 1846     		mov	r0, r3
 238 00ba FFF7FEFF 		bl	float_find_median
 239 00be 0346     		mov	r3, r0
 240 00c0 7B63     		str	r3, [r7, #52]	@ float
  62:diss_oxy.c    **** 
  63:diss_oxy.c    ****     return output;
 241              		.loc 1 63 0
 242 00c2 7B68     		ldr	r3, [r7, #4]
 243 00c4 1D46     		mov	r5, r3
 244 00c6 07F10804 		add	r4, r7, #8
 245 00ca 0FCC     		ldmia	r4!, {r0, r1, r2, r3}
 246 00cc 0FC5     		stmia	r5!, {r0, r1, r2, r3}
 247 00ce 0FCC     		ldmia	r4!, {r0, r1, r2, r3}
 248 00d0 0FC5     		stmia	r5!, {r0, r1, r2, r3}
 249 00d2 94E80F00 		ldmia	r4, {r0, r1, r2, r3}
 250 00d6 85E80F00 		stmia	r5, {r0, r1, r2, r3}
  64:diss_oxy.c    **** }
 251              		.loc 1 64 0
 252 00da 7868     		ldr	r0, [r7, #4]
 253 00dc 4837     		adds	r7, r7, #72
 254              		.cfi_def_cfa_offset 16
 255 00de BD46     		mov	sp, r7
 256              		.cfi_def_cfa_register 13
 257              		@ sp needed
 258 00e0 B0BD     		pop	{r4, r5, r7, pc}
 259              	.L13:
 260 00e2 00BF     		.align	2
 261              	.L12:
 262 00e4 00000000 		.word	DO_ISR
 263 00e8 00000000 		.word	.LC0
 264 00ec 04000000 		.word	.LC1
 265 00f0 08000000 		.word	.LC2
 266 00f4 00000000 		.word	do_received_string
 267              		.cfi_endproc
 268              	.LFE65:
 269              		.size	DO_read, .-DO_read
 270              		.section	.rodata
 271 000a 0000     		.align	2
 272              	.LC3:
 273 000c 54455354 		.ascii	"TEST_DO_SENSOR\000"
 273      5F444F5F 
ARM GAS  C:\Users\dantz\AppData\Local\Temp\cc2TrK4h.s 			page 7


 273      53454E53 
 273      4F5200
 274              		.global	__aeabi_f2d
 275 001b 00       		.align	2
 276              	.LC4:
 277 001c 6D656469 		.ascii	"median reading:%f \015\012all readings: %f\015\012%"
 277      616E2072 
 277      65616469 
 277      6E673A25 
 277      66200D0A 
 278 0043 660D0A25 		.ascii	"f\015\012%f\015\012%f\015\012%f\015\012%f\015\012%f"
 278      660D0A25 
 278      660D0A25 
 278      660D0A25 
 278      660D0A25 
 279 0058 0D0A2566 		.ascii	"\015\012%f\015\012%f\015\012%f\015\012%f\015\012\000"
 279      0D0A2566 
 279      0D0A2566 
 279      0D0A2566 
 279      0D0A00
 280              		.section	.text.DO_sensor_test,"ax",%progbits
 281              		.align	2
 282              		.global	DO_sensor_test
 283              		.thumb
 284              		.thumb_func
 285              		.type	DO_sensor_test, %function
 286              	DO_sensor_test:
 287              	.LFB66:
  65:diss_oxy.c    **** 
  66:diss_oxy.c    **** test_t DO_sensor_test(){
 288              		.loc 1 66 0
 289              		.cfi_startproc
 290              		@ args = 0, pretend = 0, frame = 512
 291              		@ frame_needed = 1, uses_anonymous_args = 0
 292 0000 2DE9B04F 		push	{r4, r5, r7, r8, r9, r10, fp, lr}
 293              		.cfi_def_cfa_offset 32
 294              		.cfi_offset 4, -32
 295              		.cfi_offset 5, -28
 296              		.cfi_offset 7, -24
 297              		.cfi_offset 8, -20
 298              		.cfi_offset 9, -16
 299              		.cfi_offset 10, -12
 300              		.cfi_offset 11, -8
 301              		.cfi_offset 14, -4
 302 0004 ADF5187D 		sub	sp, sp, #608
 303              		.cfi_def_cfa_offset 640
 304 0008 18AF     		add	r7, sp, #96
 305              		.cfi_def_cfa 7, 544
 306 000a 07F14403 		add	r3, r7, #68
 307 000e 1860     		str	r0, [r3]
  67:diss_oxy.c    **** 
  68:diss_oxy.c    ****     
  69:diss_oxy.c    ****     DO_sensor_t results = DO_read();
 308              		.loc 1 69 0
 309 0010 07F5E873 		add	r3, r7, #464
 310 0014 1846     		mov	r0, r3
 311 0016 FFF7FEFF 		bl	DO_read
ARM GAS  C:\Users\dantz\AppData\Local\Temp\cc2TrK4h.s 			page 8


  70:diss_oxy.c    **** 
  71:diss_oxy.c    ****     test_t test;
  72:diss_oxy.c    **** 
  73:diss_oxy.c    ****     test.status = 0; // set test status to zero
 312              		.loc 1 73 0
 313 001a 07F14C03 		add	r3, r7, #76
 314 001e 0022     		movs	r2, #0
 315 0020 83F88020 		strb	r2, [r3, #128]
  74:diss_oxy.c    ****     snprintf(test.test_name,sizeof(test.test_name),"TEST_DO_SENSOR");
 316              		.loc 1 74 0
 317 0024 07F14C03 		add	r3, r7, #76
 318 0028 504A     		ldr	r2, .L16
 319 002a 1C46     		mov	r4, r3
 320 002c 1346     		mov	r3, r2
 321 002e 0FCB     		ldmia	r3, {r0, r1, r2, r3}
 322 0030 07C4     		stmia	r4!, {r0, r1, r2}
 323 0032 2380     		strh	r3, [r4]	@ movhi
 324 0034 0234     		adds	r4, r4, #2
 325 0036 1B0C     		lsrs	r3, r3, #16
 326 0038 2370     		strb	r3, [r4]
  75:diss_oxy.c    **** 
  76:diss_oxy.c    ****     
  77:diss_oxy.c    ****     /*
  78:diss_oxy.c    ****     DO_UART_Start();
  79:diss_oxy.c    ****     DO_ISR_StartEx(DO_ISR);
  80:diss_oxy.c    ****     Level_Sensor_Power_Write(ON); // Pulls pwr pin high (turns it on).
  81:diss_oxy.c    ****     CyDelay(6000u);
  82:diss_oxy.c    ****     DO_UART_PutString("i\r");
  83:diss_oxy.c    ****     
  84:diss_oxy.c    ****     CyDelay(6000u);
  85:diss_oxy.c    ****     DO_UART_PutString("Find\r");
  86:diss_oxy.c    ****     CyDelay(6000u);
  87:diss_oxy.c    ****     Level_Sensor_Power_Write(OFF);
  88:diss_oxy.c    ****     
  89:diss_oxy.c    ****     // as in level_sensor.c
  90:diss_oxy.c    ****     
  91:diss_oxy.c    ****     char *token;
  92:diss_oxy.c    ****     
  93:diss_oxy.c    ****     token = strtok(do_received_string, "\r");
  94:diss_oxy.c    ****         // walk through other tokens /
  95:diss_oxy.c    ****     while( token != NULL ) {
  96:diss_oxy.c    ****         float32 reading = atof(token);
  97:diss_oxy.c    ****         token = strtok(NULL, "\r"); // This "NULL" says to continue where you left off last time.
  98:diss_oxy.c    ****         printNotif(NOTIF_TYPE_EVENT,"%s",token);     
  99:diss_oxy.c    ****    }
 100:diss_oxy.c    ****     
 101:diss_oxy.c    ****     char excerpt[800];
 102:diss_oxy.c    ****     for (int i = 0; i < 800; i++){
 103:diss_oxy.c    ****         excerpt[i] = do_received_string[i];  
 104:diss_oxy.c    ****         if (i>797){
 105:diss_oxy.c    ****             printNotif(NOTIF_TYPE_EVENT,"asdf");
 106:diss_oxy.c    ****         }
 107:diss_oxy.c    ****     }
 108:diss_oxy.c    **** 
 109:diss_oxy.c    ****     Level_Sensor_Power_Write(OFF);
 110:diss_oxy.c    ****     */
 111:diss_oxy.c    ****     
ARM GAS  C:\Users\dantz\AppData\Local\Temp\cc2TrK4h.s 			page 9


 112:diss_oxy.c    **** 
 113:diss_oxy.c    ****     // test print
 114:diss_oxy.c    ****     
 115:diss_oxy.c    ****     snprintf(test.reason,sizeof(test.reason), 
 116:diss_oxy.c    ****     "median reading:%f \r\nall readings: %f\r\n%f\r\n%f\r\n%f\r\n%f\r\n%f\r\n%f\r\n%f\r\n%f\r\n%f\r
 117:diss_oxy.c    ****     results.do_reading,
 327              		.loc 1 117 0
 328 003a D7F8FC31 		ldr	r3, [r7, #508]	@ float
 115:diss_oxy.c    ****     "median reading:%f \r\nall readings: %f\r\n%f\r\n%f\r\n%f\r\n%f\r\n%f\r\n%f\r\n%f\r\n%f\r\n%f\r
 329              		.loc 1 115 0
 330 003e 1846     		mov	r0, r3
 331 0040 FFF7FEFF 		bl	__aeabi_f2d
 332 0044 C7E90E01 		strd	r0, [r7, #56]
 118:diss_oxy.c    ****     results.all_do_readings[0], results.all_do_readings[1], results.all_do_readings[2], 
 333              		.loc 1 118 0
 334 0048 D7F8D031 		ldr	r3, [r7, #464]	@ float
 115:diss_oxy.c    ****     "median reading:%f \r\nall readings: %f\r\n%f\r\n%f\r\n%f\r\n%f\r\n%f\r\n%f\r\n%f\r\n%f\r\n%f\r
 335              		.loc 1 115 0
 336 004c 1846     		mov	r0, r3
 337 004e FFF7FEFF 		bl	__aeabi_f2d
 338 0052 C7E90C01 		strd	r0, [r7, #48]
 339              		.loc 1 118 0
 340 0056 D7F8D431 		ldr	r3, [r7, #468]	@ float
 115:diss_oxy.c    ****     "median reading:%f \r\nall readings: %f\r\n%f\r\n%f\r\n%f\r\n%f\r\n%f\r\n%f\r\n%f\r\n%f\r\n%f\r
 341              		.loc 1 115 0
 342 005a 1846     		mov	r0, r3
 343 005c FFF7FEFF 		bl	__aeabi_f2d
 344 0060 C7E90A01 		strd	r0, [r7, #40]
 345              		.loc 1 118 0
 346 0064 D7F8D831 		ldr	r3, [r7, #472]	@ float
 115:diss_oxy.c    ****     "median reading:%f \r\nall readings: %f\r\n%f\r\n%f\r\n%f\r\n%f\r\n%f\r\n%f\r\n%f\r\n%f\r\n%f\r
 347              		.loc 1 115 0
 348 0068 1846     		mov	r0, r3
 349 006a FFF7FEFF 		bl	__aeabi_f2d
 350 006e C7E90801 		strd	r0, [r7, #32]
 119:diss_oxy.c    ****     results.all_do_readings[3], results.all_do_readings[4], results.all_do_readings[5], 
 351              		.loc 1 119 0
 352 0072 D7F8DC31 		ldr	r3, [r7, #476]	@ float
 115:diss_oxy.c    ****     "median reading:%f \r\nall readings: %f\r\n%f\r\n%f\r\n%f\r\n%f\r\n%f\r\n%f\r\n%f\r\n%f\r\n%f\r
 353              		.loc 1 115 0
 354 0076 1846     		mov	r0, r3
 355 0078 FFF7FEFF 		bl	__aeabi_f2d
 356 007c C7E90601 		strd	r0, [r7, #24]
 357              		.loc 1 119 0
 358 0080 D7F8E031 		ldr	r3, [r7, #480]	@ float
 115:diss_oxy.c    ****     "median reading:%f \r\nall readings: %f\r\n%f\r\n%f\r\n%f\r\n%f\r\n%f\r\n%f\r\n%f\r\n%f\r\n%f\r
 359              		.loc 1 115 0
 360 0084 1846     		mov	r0, r3
 361 0086 FFF7FEFF 		bl	__aeabi_f2d
 362 008a C7E90401 		strd	r0, [r7, #16]
 363              		.loc 1 119 0
 364 008e D7F8E431 		ldr	r3, [r7, #484]	@ float
 115:diss_oxy.c    ****     "median reading:%f \r\nall readings: %f\r\n%f\r\n%f\r\n%f\r\n%f\r\n%f\r\n%f\r\n%f\r\n%f\r\n%f\r
 365              		.loc 1 115 0
 366 0092 1846     		mov	r0, r3
 367 0094 FFF7FEFF 		bl	__aeabi_f2d
 368 0098 C7E90201 		strd	r0, [r7, #8]
ARM GAS  C:\Users\dantz\AppData\Local\Temp\cc2TrK4h.s 			page 10


 120:diss_oxy.c    ****     results.all_do_readings[6], results.all_do_readings[7], results.all_do_readings[8], 
 369              		.loc 1 120 0
 370 009c D7F8E831 		ldr	r3, [r7, #488]	@ float
 115:diss_oxy.c    ****     "median reading:%f \r\nall readings: %f\r\n%f\r\n%f\r\n%f\r\n%f\r\n%f\r\n%f\r\n%f\r\n%f\r\n%f\r
 371              		.loc 1 115 0
 372 00a0 1846     		mov	r0, r3
 373 00a2 FFF7FEFF 		bl	__aeabi_f2d
 374 00a6 C7E90001 		strd	r0, [r7]
 375              		.loc 1 120 0
 376 00aa D7F8EC31 		ldr	r3, [r7, #492]	@ float
 115:diss_oxy.c    ****     "median reading:%f \r\nall readings: %f\r\n%f\r\n%f\r\n%f\r\n%f\r\n%f\r\n%f\r\n%f\r\n%f\r\n%f\r
 377              		.loc 1 115 0
 378 00ae 1846     		mov	r0, r3
 379 00b0 FFF7FEFF 		bl	__aeabi_f2d
 380 00b4 8246     		mov	r10, r0
 381 00b6 8B46     		mov	fp, r1
 382              		.loc 1 120 0
 383 00b8 D7F8F031 		ldr	r3, [r7, #496]	@ float
 115:diss_oxy.c    ****     "median reading:%f \r\nall readings: %f\r\n%f\r\n%f\r\n%f\r\n%f\r\n%f\r\n%f\r\n%f\r\n%f\r\n%f\r
 384              		.loc 1 115 0
 385 00bc 1846     		mov	r0, r3
 386 00be FFF7FEFF 		bl	__aeabi_f2d
 387 00c2 8046     		mov	r8, r0
 388 00c4 8946     		mov	r9, r1
 121:diss_oxy.c    ****     results.all_do_readings[9], results.all_do_readings[10]
 389              		.loc 1 121 0
 390 00c6 D7F8F431 		ldr	r3, [r7, #500]	@ float
 115:diss_oxy.c    ****     "median reading:%f \r\nall readings: %f\r\n%f\r\n%f\r\n%f\r\n%f\r\n%f\r\n%f\r\n%f\r\n%f\r\n%f\r
 391              		.loc 1 115 0
 392 00ca 1846     		mov	r0, r3
 393 00cc FFF7FEFF 		bl	__aeabi_f2d
 394 00d0 0446     		mov	r4, r0
 395 00d2 0D46     		mov	r5, r1
 396              		.loc 1 121 0
 397 00d4 D7F8F831 		ldr	r3, [r7, #504]	@ float
 115:diss_oxy.c    ****     "median reading:%f \r\nall readings: %f\r\n%f\r\n%f\r\n%f\r\n%f\r\n%f\r\n%f\r\n%f\r\n%f\r\n%f\r
 398              		.loc 1 115 0
 399 00d8 1846     		mov	r0, r3
 400 00da FFF7FEFF 		bl	__aeabi_f2d
 401 00de 0A46     		mov	r2, r1
 402 00e0 0146     		mov	r1, r0
 403 00e2 07F14C03 		add	r3, r7, #76
 404 00e6 8133     		adds	r3, r3, #129
 405 00e8 CDE91612 		strd	r1, [sp, #88]
 406 00ec CDE91445 		strd	r4, [sp, #80]
 407 00f0 CDE91289 		strd	r8, [sp, #72]
 408 00f4 CDE910AB 		strd	r10, [sp, #64]
 409 00f8 D7E90012 		ldrd	r1, [r7]
 410 00fc CDE90E12 		strd	r1, [sp, #56]
 411 0100 D7E90212 		ldrd	r1, [r7, #8]
 412 0104 CDE90C12 		strd	r1, [sp, #48]
 413 0108 D7E90412 		ldrd	r1, [r7, #16]
 414 010c CDE90A12 		strd	r1, [sp, #40]
 415 0110 D7E90612 		ldrd	r1, [r7, #24]
 416 0114 CDE90812 		strd	r1, [sp, #32]
 417 0118 D7E90812 		ldrd	r1, [r7, #32]
 418 011c CDE90612 		strd	r1, [sp, #24]
ARM GAS  C:\Users\dantz\AppData\Local\Temp\cc2TrK4h.s 			page 11


 419 0120 D7E90A12 		ldrd	r1, [r7, #40]
 420 0124 CDE90412 		strd	r1, [sp, #16]
 421 0128 D7E90C12 		ldrd	r1, [r7, #48]
 422 012c CDE90212 		strd	r1, [sp, #8]
 423 0130 D7E90E12 		ldrd	r1, [r7, #56]
 424 0134 CDE90012 		strd	r1, [sp]
 425 0138 0D4A     		ldr	r2, .L16+4
 426 013a 4FF48071 		mov	r1, #256
 427 013e 1846     		mov	r0, r3
 428 0140 FFF7FEFF 		bl	snprintf
 122:diss_oxy.c    ****     );
 123:diss_oxy.c    ****     
 124:diss_oxy.c    ****     return test;
 429              		.loc 1 124 0
 430 0144 07F14403 		add	r3, r7, #68
 431 0148 1A68     		ldr	r2, [r3]
 432 014a 07F14C03 		add	r3, r7, #76
 433 014e 1046     		mov	r0, r2
 434 0150 1946     		mov	r1, r3
 435 0152 40F28113 		movw	r3, #385
 436 0156 1A46     		mov	r2, r3
 437 0158 FFF7FEFF 		bl	memcpy
 125:diss_oxy.c    ****     
 126:diss_oxy.c    **** }
 438              		.loc 1 126 0
 439 015c 07F14403 		add	r3, r7, #68
 440 0160 1868     		ldr	r0, [r3]
 441 0162 07F50077 		add	r7, r7, #512
 442              		.cfi_def_cfa_offset 32
 443 0166 BD46     		mov	sp, r7
 444              		.cfi_def_cfa_register 13
 445              		@ sp needed
 446 0168 BDE8B08F 		pop	{r4, r5, r7, r8, r9, r10, fp, pc}
 447              	.L17:
 448              		.align	2
 449              	.L16:
 450 016c 0C000000 		.word	.LC3
 451 0170 1C000000 		.word	.LC4
 452              		.cfi_endproc
 453              	.LFE66:
 454              		.size	DO_sensor_test, .-DO_sensor_test
 455              		.global	__aeabi_fadd
 456              		.global	__aeabi_fdiv
 457              		.section	.text.float_find_median,"ax",%progbits
 458              		.align	2
 459              		.global	float_find_median
 460              		.thumb
 461              		.thumb_func
 462              		.type	float_find_median, %function
 463              	float_find_median:
 464              	.LFB67:
 127:diss_oxy.c    **** 
 128:diss_oxy.c    **** // code for finding medians duplicated from level_sensor because we need floats not longs
 129:diss_oxy.c    **** 
 130:diss_oxy.c    **** // function to calculate the median of the array, after array is sorted
 131:diss_oxy.c    **** float32 float_find_median(float32 array[] , uint8 n)
 132:diss_oxy.c    **** {
ARM GAS  C:\Users\dantz\AppData\Local\Temp\cc2TrK4h.s 			page 12


 465              		.loc 1 132 0
 466              		.cfi_startproc
 467              		@ args = 0, pretend = 0, frame = 16
 468              		@ frame_needed = 1, uses_anonymous_args = 0
 469 0000 80B5     		push	{r7, lr}
 470              		.cfi_def_cfa_offset 8
 471              		.cfi_offset 7, -8
 472              		.cfi_offset 14, -4
 473 0002 84B0     		sub	sp, sp, #16
 474              		.cfi_def_cfa_offset 24
 475 0004 00AF     		add	r7, sp, #0
 476              		.cfi_def_cfa_register 7
 477 0006 7860     		str	r0, [r7, #4]
 478 0008 0B46     		mov	r3, r1
 479 000a FB70     		strb	r3, [r7, #3]
 133:diss_oxy.c    ****     float32 median=0;
 480              		.loc 1 133 0
 481 000c 4FF00003 		mov	r3, #0
 482 0010 FB60     		str	r3, [r7, #12]	@ float
 134:diss_oxy.c    ****     fsort(array,n);
 483              		.loc 1 134 0
 484 0012 FB78     		ldrb	r3, [r7, #3]	@ zero_extendqisi2
 485 0014 1946     		mov	r1, r3
 486 0016 7868     		ldr	r0, [r7, #4]
 487 0018 FFF7FEFF 		bl	fsort
 135:diss_oxy.c    ****     
 136:diss_oxy.c    ****     // if number of elements are even
 137:diss_oxy.c    ****     if(n%2 == 0)
 488              		.loc 1 137 0
 489 001c FB78     		ldrb	r3, [r7, #3]
 490 001e 03F00103 		and	r3, r3, #1
 491 0022 DBB2     		uxtb	r3, r3
 492 0024 002B     		cmp	r3, #0
 493 0026 1BD1     		bne	.L19
 138:diss_oxy.c    ****         // median is the average of the  two middle sorted numbers
 139:diss_oxy.c    ****         median = (array[(n-1)/2] + array[n/2])/2.0;
 494              		.loc 1 139 0
 495 0028 FB78     		ldrb	r3, [r7, #3]	@ zero_extendqisi2
 496 002a 013B     		subs	r3, r3, #1
 497 002c DA0F     		lsrs	r2, r3, #31
 498 002e 1344     		add	r3, r3, r2
 499 0030 5B10     		asrs	r3, r3, #1
 500 0032 9B00     		lsls	r3, r3, #2
 501 0034 7A68     		ldr	r2, [r7, #4]
 502 0036 1344     		add	r3, r3, r2
 503 0038 1868     		ldr	r0, [r3]	@ float
 504 003a FB78     		ldrb	r3, [r7, #3]	@ zero_extendqisi2
 505 003c 5B08     		lsrs	r3, r3, #1
 506 003e DBB2     		uxtb	r3, r3
 507 0040 9B00     		lsls	r3, r3, #2
 508 0042 7A68     		ldr	r2, [r7, #4]
 509 0044 1344     		add	r3, r3, r2
 510 0046 1B68     		ldr	r3, [r3]	@ float
 511 0048 1946     		mov	r1, r3
 512 004a FFF7FEFF 		bl	__aeabi_fadd
 513 004e 0346     		mov	r3, r0
 514 0050 4FF08041 		mov	r1, #1073741824
ARM GAS  C:\Users\dantz\AppData\Local\Temp\cc2TrK4h.s 			page 13


 515 0054 1846     		mov	r0, r3
 516 0056 FFF7FEFF 		bl	__aeabi_fdiv
 517 005a 0346     		mov	r3, r0
 518 005c FB60     		str	r3, [r7, #12]	@ float
 519 005e 07E0     		b	.L20
 520              	.L19:
 140:diss_oxy.c    ****     // if number of elements are odd
 141:diss_oxy.c    ****     else
 142:diss_oxy.c    ****         // median is the the middle sorted number 
 143:diss_oxy.c    ****         median = array[n/2];
 521              		.loc 1 143 0
 522 0060 FB78     		ldrb	r3, [r7, #3]	@ zero_extendqisi2
 523 0062 5B08     		lsrs	r3, r3, #1
 524 0064 DBB2     		uxtb	r3, r3
 525 0066 9B00     		lsls	r3, r3, #2
 526 0068 7A68     		ldr	r2, [r7, #4]
 527 006a 1344     		add	r3, r3, r2
 528 006c 1B68     		ldr	r3, [r3]	@ float
 529 006e FB60     		str	r3, [r7, #12]	@ float
 530              	.L20:
 144:diss_oxy.c    ****     
 145:diss_oxy.c    ****     return median;
 531              		.loc 1 145 0
 532 0070 FB68     		ldr	r3, [r7, #12]	@ float
 146:diss_oxy.c    **** }
 533              		.loc 1 146 0
 534 0072 1846     		mov	r0, r3
 535 0074 1037     		adds	r7, r7, #16
 536              		.cfi_def_cfa_offset 8
 537 0076 BD46     		mov	sp, r7
 538              		.cfi_def_cfa_register 13
 539              		@ sp needed
 540 0078 80BD     		pop	{r7, pc}
 541              		.cfi_endproc
 542              	.LFE67:
 543              		.size	float_find_median, .-float_find_median
 544              		.global	__aeabi_fcmpgt
 545 007a 00BF     		.section	.text.fsort,"ax",%progbits
 546              		.align	2
 547              		.global	fsort
 548              		.thumb
 549              		.thumb_func
 550              		.type	fsort, %function
 551              	fsort:
 552              	.LFB68:
 147:diss_oxy.c    **** 
 148:diss_oxy.c    **** // function to sort the elements in the level readings array
 149:diss_oxy.c    **** void fsort(float32 a[],uint8 n) { 
 553              		.loc 1 149 0
 554              		.cfi_startproc
 555              		@ args = 0, pretend = 0, frame = 16
 556              		@ frame_needed = 1, uses_anonymous_args = 0
 557 0000 80B5     		push	{r7, lr}
 558              		.cfi_def_cfa_offset 8
 559              		.cfi_offset 7, -8
 560              		.cfi_offset 14, -4
 561 0002 84B0     		sub	sp, sp, #16
ARM GAS  C:\Users\dantz\AppData\Local\Temp\cc2TrK4h.s 			page 14


 562              		.cfi_def_cfa_offset 24
 563 0004 00AF     		add	r7, sp, #0
 564              		.cfi_def_cfa_register 7
 565 0006 7860     		str	r0, [r7, #4]
 566 0008 0B46     		mov	r3, r1
 567 000a FB70     		strb	r3, [r7, #3]
 150:diss_oxy.c    ****    uint8 i,j;
 151:diss_oxy.c    **** 
 152:diss_oxy.c    ****    for(i = 0;i < n-1;i++) {
 568              		.loc 1 152 0
 569 000c 0023     		movs	r3, #0
 570 000e FB73     		strb	r3, [r7, #15]
 571 0010 2CE0     		b	.L23
 572              	.L28:
 153:diss_oxy.c    ****       for(j = 0;j < n-i-1;j++) {
 573              		.loc 1 153 0
 574 0012 0023     		movs	r3, #0
 575 0014 BB73     		strb	r3, [r7, #14]
 576 0016 1FE0     		b	.L24
 577              	.L27:
 154:diss_oxy.c    ****          if(a[j] > a[j+1])
 578              		.loc 1 154 0
 579 0018 BB7B     		ldrb	r3, [r7, #14]	@ zero_extendqisi2
 580 001a 9B00     		lsls	r3, r3, #2
 581 001c 7A68     		ldr	r2, [r7, #4]
 582 001e 1344     		add	r3, r3, r2
 583 0020 1868     		ldr	r0, [r3]	@ float
 584 0022 BB7B     		ldrb	r3, [r7, #14]	@ zero_extendqisi2
 585 0024 0133     		adds	r3, r3, #1
 586 0026 9B00     		lsls	r3, r3, #2
 587 0028 7A68     		ldr	r2, [r7, #4]
 588 002a 1344     		add	r3, r3, r2
 589 002c 1B68     		ldr	r3, [r3]	@ float
 590 002e 1946     		mov	r1, r3
 591 0030 FFF7FEFF 		bl	__aeabi_fcmpgt
 592 0034 0346     		mov	r3, r0
 593 0036 002B     		cmp	r3, #0
 594 0038 0BD0     		beq	.L25
 155:diss_oxy.c    ****             fswap(&a[j],&a[j+1]); // swap the address of a[j] and a[j+1]
 595              		.loc 1 155 0
 596 003a BB7B     		ldrb	r3, [r7, #14]	@ zero_extendqisi2
 597 003c 9B00     		lsls	r3, r3, #2
 598 003e 7A68     		ldr	r2, [r7, #4]
 599 0040 D018     		adds	r0, r2, r3
 600 0042 BB7B     		ldrb	r3, [r7, #14]	@ zero_extendqisi2
 601 0044 0133     		adds	r3, r3, #1
 602 0046 9B00     		lsls	r3, r3, #2
 603 0048 7A68     		ldr	r2, [r7, #4]
 604 004a 1344     		add	r3, r3, r2
 605 004c 1946     		mov	r1, r3
 606 004e FFF7FEFF 		bl	fswap
 607              	.L25:
 153:diss_oxy.c    ****       for(j = 0;j < n-i-1;j++) {
 608              		.loc 1 153 0 discriminator 2
 609 0052 BB7B     		ldrb	r3, [r7, #14]	@ zero_extendqisi2
 610 0054 0133     		adds	r3, r3, #1
 611 0056 BB73     		strb	r3, [r7, #14]
ARM GAS  C:\Users\dantz\AppData\Local\Temp\cc2TrK4h.s 			page 15


 612              	.L24:
 153:diss_oxy.c    ****       for(j = 0;j < n-i-1;j++) {
 613              		.loc 1 153 0 is_stmt 0 discriminator 1
 614 0058 BA7B     		ldrb	r2, [r7, #14]	@ zero_extendqisi2
 615 005a F978     		ldrb	r1, [r7, #3]	@ zero_extendqisi2
 616 005c FB7B     		ldrb	r3, [r7, #15]	@ zero_extendqisi2
 617 005e CB1A     		subs	r3, r1, r3
 618 0060 013B     		subs	r3, r3, #1
 619 0062 9A42     		cmp	r2, r3
 620 0064 D8DB     		blt	.L27
 152:diss_oxy.c    ****       for(j = 0;j < n-i-1;j++) {
 621              		.loc 1 152 0 is_stmt 1 discriminator 2
 622 0066 FB7B     		ldrb	r3, [r7, #15]	@ zero_extendqisi2
 623 0068 0133     		adds	r3, r3, #1
 624 006a FB73     		strb	r3, [r7, #15]
 625              	.L23:
 152:diss_oxy.c    ****       for(j = 0;j < n-i-1;j++) {
 626              		.loc 1 152 0 is_stmt 0 discriminator 1
 627 006c FA7B     		ldrb	r2, [r7, #15]	@ zero_extendqisi2
 628 006e FB78     		ldrb	r3, [r7, #3]	@ zero_extendqisi2
 629 0070 013B     		subs	r3, r3, #1
 630 0072 9A42     		cmp	r2, r3
 631 0074 CDDB     		blt	.L28
 156:diss_oxy.c    ****       }
 157:diss_oxy.c    ****    }
 158:diss_oxy.c    **** }
 632              		.loc 1 158 0 is_stmt 1
 633 0076 00BF     		nop
 634 0078 1037     		adds	r7, r7, #16
 635              		.cfi_def_cfa_offset 8
 636 007a BD46     		mov	sp, r7
 637              		.cfi_def_cfa_register 13
 638              		@ sp needed
 639 007c 80BD     		pop	{r7, pc}
 640              		.cfi_endproc
 641              	.LFE68:
 642              		.size	fsort, .-fsort
 643 007e 00BF     		.section	.text.fswap,"ax",%progbits
 644              		.align	2
 645              		.global	fswap
 646              		.thumb
 647              		.thumb_func
 648              		.type	fswap, %function
 649              	fswap:
 650              	.LFB69:
 159:diss_oxy.c    **** 
 160:diss_oxy.c    **** // function to swap elements in the level readings array in order to sort them
 161:diss_oxy.c    **** void fswap(float32 *p,float32 *q) {
 651              		.loc 1 161 0
 652              		.cfi_startproc
 653              		@ args = 0, pretend = 0, frame = 16
 654              		@ frame_needed = 1, uses_anonymous_args = 0
 655              		@ link register save eliminated.
 656 0000 80B4     		push	{r7}
 657              		.cfi_def_cfa_offset 4
 658              		.cfi_offset 7, -4
 659 0002 85B0     		sub	sp, sp, #20
ARM GAS  C:\Users\dantz\AppData\Local\Temp\cc2TrK4h.s 			page 16


 660              		.cfi_def_cfa_offset 24
 661 0004 00AF     		add	r7, sp, #0
 662              		.cfi_def_cfa_register 7
 663 0006 7860     		str	r0, [r7, #4]
 664 0008 3960     		str	r1, [r7]
 162:diss_oxy.c    ****    float32 t;
 163:diss_oxy.c    ****    
 164:diss_oxy.c    ****    t=*p; 
 665              		.loc 1 164 0
 666 000a 7B68     		ldr	r3, [r7, #4]
 667 000c 1B68     		ldr	r3, [r3]	@ float
 668 000e FB60     		str	r3, [r7, #12]	@ float
 165:diss_oxy.c    ****    *p=*q; 
 669              		.loc 1 165 0
 670 0010 3B68     		ldr	r3, [r7]
 671 0012 1A68     		ldr	r2, [r3]	@ float
 672 0014 7B68     		ldr	r3, [r7, #4]
 673 0016 1A60     		str	r2, [r3]	@ float
 166:diss_oxy.c    ****    *q=t;
 674              		.loc 1 166 0
 675 0018 3B68     		ldr	r3, [r7]
 676 001a FA68     		ldr	r2, [r7, #12]	@ float
 677 001c 1A60     		str	r2, [r3]	@ float
 167:diss_oxy.c    **** }...
 678              		.loc 1 167 0
 679 001e 00BF     		nop
 680 0020 1437     		adds	r7, r7, #20
 681              		.cfi_def_cfa_offset 4
 682 0022 BD46     		mov	sp, r7
 683              		.cfi_def_cfa_register 13
 684              		@ sp needed
 685 0024 80BC     		pop	{r7}
 686              		.cfi_restore 7
 687              		.cfi_def_cfa_offset 0
 688 0026 7047     		bx	lr
 689              		.cfi_endproc
 690              	.LFE69:
 691              		.size	fswap, .-fswap
 692              		.text
 693              	.Letext0:
 694              		.file 2 "c:\\program files (x86)\\cypress\\psoc creator\\4.4\\psoc creator\\import\\gnu\\arm\\5.4.
 695              		.file 3 "c:\\program files (x86)\\cypress\\psoc creator\\4.4\\psoc creator\\import\\gnu\\arm\\5.4.
 696              		.file 4 "Generated_Source\\PSoC5/cytypes.h"
 697              		.file 5 "testing.h"
 698              		.file 6 "data.h"
 699              		.file 7 "modem.h"
 700              		.file 8 "diss_oxy.h"
 701              		.file 9 "notoriOS.h"
 702              		.file 10 "Generated_Source\\PSoC5/core_cm3.h"