ARM GAS  C:\Users\hail\AppData\Local\Temp\ccq7P5NG.s 			page 1


   1              		.syntax unified
   2              		.cpu cortex-m3
   3              		.fpu softvfp
   4              		.eabi_attribute 20, 1
   5              		.eabi_attribute 21, 1
   6              		.eabi_attribute 23, 3
   7              		.eabi_attribute 24, 1
   8              		.eabi_attribute 25, 1
   9              		.eabi_attribute 26, 1
  10              		.eabi_attribute 30, 6
  11              		.eabi_attribute 34, 1
  12              		.eabi_attribute 18, 4
  13              		.thumb
  14              		.syntax unified
  15              		.file	"influx.c"
  16              		.text
  17              	.Ltext0:
  18              		.cfi_sections	.debug_frame
  19              		.comm	modem_state,1,1
  20              		.comm	modem_start_time_stamp,4,4
  21              		.comm	modem_info,60,4
  22              		.comm	modem_stats,16,4
  23              		.comm	updatable_parameters,3,4
  24              		.syntax unified
  25              		.global _printf_float
  26              		.thumb
  27              		.syntax unified
  28              		.comm	dataPointsInStack,2,2
  29              		.comm	dataPointsInStackDesired,2,2
  30              		.comm	data,6600,4
  31              		.comm	http_request,10000,4
  32              		.comm	http_body,10000,4
  33              		.comm	http_route,200,4
  34              		.comm	system_info,28,4
  35              		.comm	system_settings,324,4
  36              		.section	.rodata
  37              		.align	2
  38              	.LC0:
  39 0000 25732573 		.ascii	"%s%s,node_id=%s value=%s %ld000000000\012\000"
  39      2C6E6F64 
  39      655F6964 
  39      3D257320 
  39      76616C75 
  40              		.section	.text.construct_influx_write_body,"ax",%progbits
  41              		.align	2
  42              		.global	construct_influx_write_body
  43              		.thumb
  44              		.thumb_func
  45              		.type	construct_influx_write_body, %function
  46              	construct_influx_write_body:
  47              	.LFB64:
  48              		.file 1 "influx.c"
   1:influx.c      **** #include "influx.h"  
   2:influx.c      **** #include "notoriOS.h"
   3:influx.c      ****                         
   4:influx.c      **** // Prepare data from data wheel to send to influx
   5:influx.c      **** unsigned int construct_influx_write_body(char* body, char *node_id){
ARM GAS  C:\Users\hail\AppData\Local\Temp\ccq7P5NG.s 			page 2


  49              		.loc 1 5 0
  50              		.cfi_startproc
  51              		@ args = 0, pretend = 0, frame = 16
  52              		@ frame_needed = 1, uses_anonymous_args = 0
  53 0000 90B5     		push	{r4, r7, lr}
  54              		.cfi_def_cfa_offset 12
  55              		.cfi_offset 4, -12
  56              		.cfi_offset 7, -8
  57              		.cfi_offset 14, -4
  58 0002 89B0     		sub	sp, sp, #36
  59              		.cfi_def_cfa_offset 48
  60 0004 04AF     		add	r7, sp, #16
  61              		.cfi_def_cfa 7, 32
  62 0006 7860     		str	r0, [r7, #4]
  63 0008 3960     		str	r1, [r7]
   6:influx.c      ****    
   7:influx.c      ****     body[0] = '\0'; // Set the array variable body to be 0
  64              		.loc 1 7 0
  65 000a 7B68     		ldr	r3, [r7, #4]
  66 000c 0022     		movs	r2, #0
  67 000e 1A70     		strb	r2, [r3]
  68              	.LBB2:
   8:influx.c      ****  
   9:influx.c      ****     // Get data from the data stack and put into http body to send to influx
  10:influx.c      ****     for(uint16 i = 0;i<sizeOfDataStack();i++){
  69              		.loc 1 10 0
  70 0010 0023     		movs	r3, #0
  71 0012 FB81     		strh	r3, [r7, #14]	@ movhi
  72 0014 24E0     		b	.L2
  73              	.L3:
  11:influx.c      ****         // Note that influx uses a timestamp in nano-seconds, so we have to add 9 zeros
  12:influx.c      ****         snprintf(body,sizeof(http_body), "%s%s,node_id=%s value=%s %ld000000000\n", body, data[i].k
  74              		.loc 1 12 0 discriminator 3
  75 0016 FB89     		ldrh	r3, [r7, #14]
  76 0018 2C22     		movs	r2, #44
  77 001a 02FB03F3 		mul	r3, r2, r3
  78 001e 184A     		ldr	r2, .L5
  79 0020 1344     		add	r3, r3, r2
  80 0022 FA89     		ldrh	r2, [r7, #14]
  81 0024 2C21     		movs	r1, #44
  82 0026 01FB02F2 		mul	r2, r1, r2
  83 002a 1032     		adds	r2, r2, #16
  84 002c 1449     		ldr	r1, .L5
  85 002e 0A44     		add	r2, r2, r1
  86 0030 0432     		adds	r2, r2, #4
  87 0032 F989     		ldrh	r1, [r7, #14]
  88 0034 1248     		ldr	r0, .L5
  89 0036 2C24     		movs	r4, #44
  90 0038 04FB01F1 		mul	r1, r4, r1
  91 003c 0144     		add	r1, r1, r0
  92 003e 2831     		adds	r1, r1, #40
  93 0040 0968     		ldr	r1, [r1]
  94 0042 0391     		str	r1, [sp, #12]
  95 0044 0292     		str	r2, [sp, #8]
  96 0046 3A68     		ldr	r2, [r7]
  97 0048 0192     		str	r2, [sp, #4]
  98 004a 0093     		str	r3, [sp]
ARM GAS  C:\Users\hail\AppData\Local\Temp\ccq7P5NG.s 			page 3


  99 004c 7B68     		ldr	r3, [r7, #4]
 100 004e 0D4A     		ldr	r2, .L5+4
 101 0050 42F21071 		movw	r1, #10000
 102 0054 7868     		ldr	r0, [r7, #4]
 103 0056 FFF7FEFF 		bl	snprintf
  10:influx.c      ****         // Note that influx uses a timestamp in nano-seconds, so we have to add 9 zeros
 104              		.loc 1 10 0 discriminator 3
 105 005a FB89     		ldrh	r3, [r7, #14]
 106 005c 0133     		adds	r3, r3, #1
 107 005e FB81     		strh	r3, [r7, #14]	@ movhi
 108              	.L2:
  10:influx.c      ****         // Note that influx uses a timestamp in nano-seconds, so we have to add 9 zeros
 109              		.loc 1 10 0 is_stmt 0 discriminator 1
 110 0060 FFF7FEFF 		bl	sizeOfDataStack
 111 0064 0346     		mov	r3, r0
 112 0066 1A46     		mov	r2, r3
 113 0068 FB89     		ldrh	r3, [r7, #14]
 114 006a 9342     		cmp	r3, r2
 115 006c D3D3     		bcc	.L3
 116              	.LBE2:
  13:influx.c      ****     }
  14:influx.c      ****     
  15:influx.c      ****     // The strlen() function calculates the length of a given string. The strlen() function takes a
  16:influx.c      ****     unsigned int request_len = strlen(body);
 117              		.loc 1 16 0 is_stmt 1
 118 006e 7868     		ldr	r0, [r7, #4]
 119 0070 FFF7FEFF 		bl	strlen
 120 0074 B860     		str	r0, [r7, #8]
  17:influx.c      ****    
  18:influx.c      **** 
  19:influx.c      ****     return request_len;
 121              		.loc 1 19 0
 122 0076 BB68     		ldr	r3, [r7, #8]
  20:influx.c      **** }
 123              		.loc 1 20 0
 124 0078 1846     		mov	r0, r3
 125 007a 1437     		adds	r7, r7, #20
 126              		.cfi_def_cfa_offset 12
 127 007c BD46     		mov	sp, r7
 128              		.cfi_def_cfa_register 13
 129              		@ sp needed
 130 007e 90BD     		pop	{r4, r7, pc}
 131              	.L6:
 132              		.align	2
 133              	.L5:
 134 0080 00000000 		.word	data
 135 0084 00000000 		.word	.LC0
 136              		.cfi_endproc
 137              	.LFE64:
 138              		.size	construct_influx_write_body, .-construct_influx_write_body
 139              		.section	.rodata
 140 0027 00       		.align	2
 141              	.LC1:
 142 0028 25732573 		.ascii	"%s%s?u=%s&p=%s&db=%s\000"
 142      3F753D25 
 142      7326703D 
 142      25732664 
ARM GAS  C:\Users\hail\AppData\Local\Temp\ccq7P5NG.s 			page 4


 142      623D2573 
 143              		.section	.text.construct_influx_route,"ax",%progbits
 144              		.align	2
 145              		.global	construct_influx_route
 146              		.thumb
 147              		.thumb_func
 148              		.type	construct_influx_route, %function
 149              	construct_influx_route:
 150              	.LFB65:
  21:influx.c      **** 
  22:influx.c      **** // Create the route to connect to the influx database
  23:influx.c      **** void construct_influx_route(char* route, char* base, char* user, char* pass, char* database){
 151              		.loc 1 23 0
 152              		.cfi_startproc
 153              		@ args = 4, pretend = 0, frame = 16
 154              		@ frame_needed = 1, uses_anonymous_args = 0
 155 0000 80B5     		push	{r7, lr}
 156              		.cfi_def_cfa_offset 8
 157              		.cfi_offset 7, -8
 158              		.cfi_offset 14, -4
 159 0002 88B0     		sub	sp, sp, #32
 160              		.cfi_def_cfa_offset 40
 161 0004 04AF     		add	r7, sp, #16
 162              		.cfi_def_cfa 7, 24
 163 0006 F860     		str	r0, [r7, #12]
 164 0008 B960     		str	r1, [r7, #8]
 165 000a 7A60     		str	r2, [r7, #4]
 166 000c 3B60     		str	r3, [r7]
  24:influx.c      ****     // Detting a string to \0 is an easy way to set the string to be 0 because \0 denotes the end o
  25:influx.c      ****     route[0] = '\0';
 167              		.loc 1 25 0
 168 000e FB68     		ldr	r3, [r7, #12]
 169 0010 0022     		movs	r2, #0
 170 0012 1A70     		strb	r2, [r3]
  26:influx.c      ****     snprintf(route,sizeof(http_route), "%s%s?u=%s&p=%s&db=%s", route, base, user, pass, database); 
 171              		.loc 1 26 0
 172 0014 BB69     		ldr	r3, [r7, #24]
 173 0016 0393     		str	r3, [sp, #12]
 174 0018 3B68     		ldr	r3, [r7]
 175 001a 0293     		str	r3, [sp, #8]
 176 001c 7B68     		ldr	r3, [r7, #4]
 177 001e 0193     		str	r3, [sp, #4]
 178 0020 BB68     		ldr	r3, [r7, #8]
 179 0022 0093     		str	r3, [sp]
 180 0024 FB68     		ldr	r3, [r7, #12]
 181 0026 044A     		ldr	r2, .L8
 182 0028 C821     		movs	r1, #200
 183 002a F868     		ldr	r0, [r7, #12]
 184 002c FFF7FEFF 		bl	snprintf
  27:influx.c      **** }
 185              		.loc 1 27 0
 186 0030 00BF     		nop
 187 0032 1037     		adds	r7, r7, #16
 188              		.cfi_def_cfa_offset 8
 189 0034 BD46     		mov	sp, r7
 190              		.cfi_def_cfa_register 13
 191              		@ sp needed
ARM GAS  C:\Users\hail\AppData\Local\Temp\ccq7P5NG.s 			page 5


 192 0036 80BD     		pop	{r7, pc}
 193              	.L9:
 194              		.align	2
 195              	.L8:
 196 0038 28000000 		.word	.LC1
 197              		.cfi_endproc
 198              	.LFE65:
 199              		.size	construct_influx_route, .-construct_influx_route
 200              		.section	.rodata
 201 003d 000000   		.align	2
 202              	.LC2:
 203 0040 494E464C 		.ascii	"INFLUX\000"
 203      555800
 204 0047 00       		.align	2
 205              	.LC3:
 206 0048 74657374 		.ascii	"test_reading_1,node_id=XYZ10, value=000 12345\012te"
 206      5F726561 
 206      64696E67 
 206      5F312C6E 
 206      6F64655F 
 207 0078 73745F72 		.ascii	"st_reading_2,node_id=XYZ10, value=111 67890\015\012"
 207      65616469 
 207      6E675F32 
 207      2C6E6F64 
 207      655F6964 
 208 00a5 00       		.ascii	"\000"
 209 00a6 0000     		.align	2
 210              	.LC4:
 211 00a8 30303000 		.ascii	"000\000"
 212              		.align	2
 213              	.LC5:
 214 00ac 74657374 		.ascii	"test_reading_1\000"
 214      5F726561 
 214      64696E67 
 214      5F3100
 215 00bb 00       		.align	2
 216              	.LC6:
 217 00bc 31313100 		.ascii	"111\000"
 218              		.align	2
 219              	.LC7:
 220 00c0 74657374 		.ascii	"test_reading_2\000"
 220      5F726561 
 220      64696E67 
 220      5F3200
 221 00cf 00       		.align	2
 222              	.LC8:
 223 00d0 58595A31 		.ascii	"XYZ10\000"
 223      3000
 224 00d6 0000     		.align	2
 225              	.LC9:
 226 00d8 496E666C 		.ascii	"Influx body generated correctly.\000"
 226      75782062 
 226      6F647920 
 226      67656E65 
 226      72617465 
 227 00f9 000000   		.align	2
 228              	.LC10:
ARM GAS  C:\Users\hail\AppData\Local\Temp\ccq7P5NG.s 			page 6


 229 00fc 496E666C 		.ascii	"Influx body could not be generated correctly.\000"
 229      75782062 
 229      6F647920 
 229      636F756C 
 229      64206E6F 
 230              		.section	.text.influx_test,"ax",%progbits
 231              		.align	2
 232              		.global	influx_test
 233              		.thumb
 234              		.thumb_func
 235              		.type	influx_test, %function
 236              	influx_test:
 237              	.LFB66:
  28:influx.c      **** 
  29:influx.c      **** // Test the influx server
  30:influx.c      **** test_t influx_test(){
 238              		.loc 1 30 0
 239              		.cfi_startproc
 240              		@ args = 0, pretend = 0, frame = 608
 241              		@ frame_needed = 1, uses_anonymous_args = 0
 242 0000 F0B5     		push	{r4, r5, r6, r7, lr}
 243              		.cfi_def_cfa_offset 20
 244              		.cfi_offset 4, -20
 245              		.cfi_offset 5, -16
 246              		.cfi_offset 6, -12
 247              		.cfi_offset 7, -8
 248              		.cfi_offset 14, -4
 249 0002 ADF5197D 		sub	sp, sp, #612
 250              		.cfi_def_cfa_offset 632
 251 0006 00AF     		add	r7, sp, #0
 252              		.cfi_def_cfa_register 7
 253 0008 3B1D     		adds	r3, r7, #4
 254 000a 1860     		str	r0, [r3]
  31:influx.c      ****     test_t test; // Create variable test of data structure test_t
  32:influx.c      ****     test.status = 0u;
 255              		.loc 1 32 0
 256 000c 07F1D403 		add	r3, r7, #212
 257 0010 0022     		movs	r2, #0
 258 0012 83F88020 		strb	r2, [r3, #128]
  33:influx.c      ****     snprintf(test.test_name,sizeof(test.test_name),"INFLUX");
 259              		.loc 1 33 0
 260 0016 07F1D403 		add	r3, r7, #212
 261 001a 3C4A     		ldr	r2, .L16
 262 001c 92E80300 		ldmia	r2, {r0, r1}
 263 0020 1860     		str	r0, [r3]
 264 0022 0433     		adds	r3, r3, #4
 265 0024 1980     		strh	r1, [r3]	@ movhi
 266 0026 0233     		adds	r3, r3, #2
 267 0028 0A0C     		lsrs	r2, r1, #16
 268 002a 1A70     		strb	r2, [r3]
  34:influx.c      ****     
  35:influx.c      ****     //we'll create a few fake test, generate a string and compare it to a known value
  36:influx.c      ****     char *expected_string = "test_reading_1,node_id=XYZ10, value=000 12345\ntest_reading_2,node_id=
 269              		.loc 1 36 0
 270 002c 384B     		ldr	r3, .L16+4
 271 002e C7F85C32 		str	r3, [r7, #604]
  37:influx.c      ****     
ARM GAS  C:\Users\hail\AppData\Local\Temp\ccq7P5NG.s 			page 7


  38:influx.c      ****     Clear_Data_Stack();
 272              		.loc 1 38 0
 273 0032 FFF7FEFF 		bl	Clear_Data_Stack
  39:influx.c      ****     pushData("test_reading_1", "000", 12345);
 274              		.loc 1 39 0
 275 0036 43F23902 		movw	r2, #12345
 276 003a 3649     		ldr	r1, .L16+8
 277 003c 3648     		ldr	r0, .L16+12
 278 003e FFF7FEFF 		bl	pushData
  40:influx.c      ****     pushData("test_reading_2", "111", 67890);
 279              		.loc 1 40 0
 280 0042 364A     		ldr	r2, .L16+16
 281 0044 3649     		ldr	r1, .L16+20
 282 0046 3748     		ldr	r0, .L16+24
 283 0048 FFF7FEFF 		bl	pushData
  41:influx.c      ****     char test_write_body[200];
  42:influx.c      ****     construct_influx_write_body(test_write_body, "XYZ10");
 284              		.loc 1 42 0
 285 004c 07F10C03 		add	r3, r7, #12
 286 0050 3549     		ldr	r1, .L16+28
 287 0052 1846     		mov	r0, r3
 288 0054 FFF7FEFF 		bl	construct_influx_write_body
  43:influx.c      ****     
  44:influx.c      ****     // Will return zero if strings are identical.
  45:influx.c      ****     // int strcmp(const char *str1, const char *str2) compares the string pointed to, by str1 to th
  46:influx.c      ****     int compare = strcmp(test_write_body,expected_string);
 289              		.loc 1 46 0
 290 0058 07F10C03 		add	r3, r7, #12
 291 005c D7F85C12 		ldr	r1, [r7, #604]
 292 0060 1846     		mov	r0, r3
 293 0062 FFF7FEFF 		bl	strcmp
 294 0066 C7F85802 		str	r0, [r7, #600]
  47:influx.c      ****     
  48:influx.c      ****     // If strings identical, change test status to 1
  49:influx.c      ****     if(compare == 0){
 295              		.loc 1 49 0
 296 006a D7F85832 		ldr	r3, [r7, #600]
 297 006e 002B     		cmp	r3, #0
 298 0070 1DD1     		bne	.L11
  50:influx.c      ****         test.status = 1u;
 299              		.loc 1 50 0
 300 0072 07F1D403 		add	r3, r7, #212
 301 0076 0122     		movs	r2, #1
 302 0078 83F88020 		strb	r2, [r3, #128]
  51:influx.c      ****         snprintf(test.reason,sizeof(test.reason),"Influx body generated correctly.");
 303              		.loc 1 51 0
 304 007c 07F1D403 		add	r3, r7, #212
 305 0080 8133     		adds	r3, r3, #129
 306 0082 2A4A     		ldr	r2, .L16+32
 307 0084 1446     		mov	r4, r2
 308 0086 9E46     		mov	lr, r3
 309 0088 04F1200C 		add	ip, r4, #32
 310              	.L12:
 311 008c 7546     		mov	r5, lr
 312 008e 2646     		mov	r6, r4
 313 0090 0FCE     		ldmia	r6!, {r0, r1, r2, r3}
 314 0092 2860     		str	r0, [r5]	@ unaligned
ARM GAS  C:\Users\hail\AppData\Local\Temp\ccq7P5NG.s 			page 8


 315 0094 6960     		str	r1, [r5, #4]	@ unaligned
 316 0096 AA60     		str	r2, [r5, #8]	@ unaligned
 317 0098 EB60     		str	r3, [r5, #12]	@ unaligned
 318 009a 1034     		adds	r4, r4, #16
 319 009c 0EF1100E 		add	lr, lr, #16
 320 00a0 6445     		cmp	r4, ip
 321 00a2 F3D1     		bne	.L12
 322 00a4 7346     		mov	r3, lr
 323 00a6 2246     		mov	r2, r4
 324 00a8 1278     		ldrb	r2, [r2]
 325 00aa 1A70     		strb	r2, [r3]
 326 00ac 1BE0     		b	.L13
 327              	.L11:
  52:influx.c      ****     }else{
  53:influx.c      ****         snprintf(test.reason,sizeof(test.reason),"Influx body could not be generated correctly.");
 328              		.loc 1 53 0
 329 00ae 07F1D403 		add	r3, r7, #212
 330 00b2 8133     		adds	r3, r3, #129
 331 00b4 1E4A     		ldr	r2, .L16+36
 332 00b6 1446     		mov	r4, r2
 333 00b8 9E46     		mov	lr, r3
 334 00ba 04F1200C 		add	ip, r4, #32
 335              	.L14:
 336 00be 7546     		mov	r5, lr
 337 00c0 2646     		mov	r6, r4
 338 00c2 0FCE     		ldmia	r6!, {r0, r1, r2, r3}
 339 00c4 2860     		str	r0, [r5]	@ unaligned
 340 00c6 6960     		str	r1, [r5, #4]	@ unaligned
 341 00c8 AA60     		str	r2, [r5, #8]	@ unaligned
 342 00ca EB60     		str	r3, [r5, #12]	@ unaligned
 343 00cc 1034     		adds	r4, r4, #16
 344 00ce 0EF1100E 		add	lr, lr, #16
 345 00d2 6445     		cmp	r4, ip
 346 00d4 F3D1     		bne	.L14
 347 00d6 7546     		mov	r5, lr
 348 00d8 2346     		mov	r3, r4
 349 00da 07CB     		ldmia	r3!, {r0, r1, r2}
 350 00dc 2860     		str	r0, [r5]	@ unaligned
 351 00de 6960     		str	r1, [r5, #4]	@ unaligned
 352 00e0 AA60     		str	r2, [r5, #8]	@ unaligned
 353 00e2 1B88     		ldrh	r3, [r3]	@ unaligned
 354 00e4 AB81     		strh	r3, [r5, #12]	@ unaligned
 355              	.L13:
  54:influx.c      ****     }
  55:influx.c      ****     
  56:influx.c      ****     Clear_Data_Stack(); // Clear the data stack
 356              		.loc 1 56 0
 357 00e6 FFF7FEFF 		bl	Clear_Data_Stack
  57:influx.c      ****     
  58:influx.c      ****     return test;
 358              		.loc 1 58 0
 359 00ea 3B1D     		adds	r3, r7, #4
 360 00ec 1A68     		ldr	r2, [r3]
 361 00ee 07F1D403 		add	r3, r7, #212
 362 00f2 1046     		mov	r0, r2
 363 00f4 1946     		mov	r1, r3
 364 00f6 40F28113 		movw	r3, #385
ARM GAS  C:\Users\hail\AppData\Local\Temp\ccq7P5NG.s 			page 9


 365 00fa 1A46     		mov	r2, r3
 366 00fc FFF7FEFF 		bl	memcpy
  59:influx.c      **** }...
 367              		.loc 1 59 0
 368 0100 3B1D     		adds	r3, r7, #4
 369 0102 1868     		ldr	r0, [r3]
 370 0104 07F51977 		add	r7, r7, #612
 371              		.cfi_def_cfa_offset 20
 372 0108 BD46     		mov	sp, r7
 373              		.cfi_def_cfa_register 13
 374              		@ sp needed
 375 010a F0BD     		pop	{r4, r5, r6, r7, pc}
 376              	.L17:
 377              		.align	2
 378              	.L16:
 379 010c 40000000 		.word	.LC2
 380 0110 48000000 		.word	.LC3
 381 0114 A8000000 		.word	.LC4
 382 0118 AC000000 		.word	.LC5
 383 011c 32090100 		.word	67890
 384 0120 BC000000 		.word	.LC6
 385 0124 C0000000 		.word	.LC7
 386 0128 D0000000 		.word	.LC8
 387 012c D8000000 		.word	.LC9
 388 0130 FC000000 		.word	.LC10
 389              		.cfi_endproc
 390              	.LFE66:
 391              		.size	influx_test, .-influx_test
 392              		.text
 393              	.Letext0:
 394              		.file 2 "c:\\program files (x86)\\cypress\\psoc creator\\4.3\\psoc creator\\import\\gnu\\arm\\5.4.
 395              		.file 3 "c:\\program files (x86)\\cypress\\psoc creator\\4.3\\psoc creator\\import\\gnu\\arm\\5.4.
 396              		.file 4 "Generated_Source\\PSoC5/cytypes.h"
 397              		.file 5 "testing.h"
 398              		.file 6 "modem.h"
 399              		.file 7 "data.h"
 400              		.file 8 "notoriOS.h"
 401              		.file 9 "Generated_Source\\PSoC5/core_cm3.h"