ARM GAS  C:\Users\hail\AppData\Local\Temp\ccXSgjTH.s 			page 1


   1              		.syntax unified
   2              		.cpu cortex-m3
   3              		.fpu softvfp
   4              		.eabi_attribute 20, 1
   5              		.eabi_attribute 21, 1
   6              		.eabi_attribute 23, 3
   7              		.eabi_attribute 24, 1
   8              		.eabi_attribute 25, 1
   9              		.eabi_attribute 26, 1
  10              		.eabi_attribute 30, 6
  11              		.eabi_attribute 34, 1
  12              		.eabi_attribute 18, 4
  13              		.thumb
  14              		.syntax unified
  15              		.file	"level_sensor.c"
  16              		.text
  17              	.Ltext0:
  18              		.cfi_sections	.debug_frame
  19              		.comm	modem_state,1,1
  20              		.comm	modem_start_time_stamp,4,4
  21              		.comm	modem_info,60,4
  22              		.comm	modem_stats,16,4
  23              		.comm	updatable_parameters,3,4
  24              		.syntax unified
  25              		.global _printf_float
  26              		.thumb
  27              		.syntax unified
  28              		.comm	dataPointsInStack,2,2
  29              		.comm	dataPointsInStackDesired,2,2
  30              		.comm	data,6600,4
  31              		.comm	http_request,10000,4
  32              		.comm	http_body,10000,4
  33              		.comm	http_route,200,4
  34              		.comm	system_info,28,4
  35              		.comm	system_settings,324,4
  36              		.bss
  37              		.align	2
  38              	uart_chars:
  39 0000 00000000 		.space	257
  39      00000000 
  39      00000000 
  39      00000000 
  39      00000000 
  40              	num_chars:
  41 0101 00       		.space	1
  42              		.data
  43              		.align	2
  44              		.type	line, %object
  45              		.size	line, 4
  46              	line:
  47 0000 00000000 		.word	uart_chars
  48              		.bss
  49 0102 0000     		.align	2
  50              	match:
  51 0104 00000000 		.space	4
  52              		.align	2
  53              	pattern:
ARM GAS  C:\Users\hail\AppData\Local\Temp\ccXSgjTH.s 			page 2


  54 0108 00000000 		.space	4
  55              		.section	.text.uart_string,"ax",%progbits
  56              		.align	2
  57              		.global	uart_string
  58              		.thumb
  59              		.thumb_func
  60              		.type	uart_string, %function
  61              	uart_string:
  62              	.LFB64:
  63              		.file 1 "level_sensor.c"
   1:level_sensor.c **** #include "level_sensor.h"
   2:level_sensor.c **** #include <assert.h>     // Implements a runtime assertion, which can be used to verify assumptions 
   3:level_sensor.c **** #include <stdint.h>     // Defines a set of integral type aliases with specific width requirements,
   4:level_sensor.c **** #include <stdbool.h>    // Contains four macros for a Boolean data type.
   5:level_sensor.c **** #include <math.h>       // Designed for basic mathematical operations. Most of the functions involv
   6:level_sensor.c **** #include <stdio.h>      // Defines three variable types, several macros, and various functions for 
   7:level_sensor.c **** #include "level_sensor.h"
   8:level_sensor.c **** #include "notoriOS.h"
   9:level_sensor.c **** #include "project.h"
  10:level_sensor.c **** 
  11:level_sensor.c **** 
  12:level_sensor.c **** /* === Driver Functions === */
  13:level_sensor.c **** 
  14:level_sensor.c **** //sensor realated global calls
  15:level_sensor.c **** 
  16:level_sensor.c **** 
  17:level_sensor.c **** 
  18:level_sensor.c **** 
  19:level_sensor.c **** // Circular buffer of recently received chars.
  20:level_sensor.c **** // Initialize all the members of the array uart_chars to 0. 
  21:level_sensor.c **** static char uart_chars[257] = {0};
  22:level_sensor.c **** static uint8_t num_chars = 0;
  23:level_sensor.c **** 
  24:level_sensor.c **** static const char *line = uart_chars;
  25:level_sensor.c **** // Only pointers can be null, where null is a special address used to signify that the pointer is n
  26:level_sensor.c **** // Pointers are not initialized to null by default, you must do so if you want them initialized.
  27:level_sensor.c **** static const char *match = NULL;
  28:level_sensor.c **** static const char *pattern = NULL;
  29:level_sensor.c **** 
  30:level_sensor.c **** 
  31:level_sensor.c **** // This is only defined in c file so this function will return the location in memory where that va
  32:level_sensor.c **** const char *uart_string(void) {
  64              		.loc 1 32 0
  65              		.cfi_startproc
  66              		@ args = 0, pretend = 0, frame = 0
  67              		@ frame_needed = 1, uses_anonymous_args = 0
  68              		@ link register save eliminated.
  69 0000 80B4     		push	{r7}
  70              		.cfi_def_cfa_offset 4
  71              		.cfi_offset 7, -4
  72 0002 00AF     		add	r7, sp, #0
  73              		.cfi_def_cfa_register 7
  33:level_sensor.c ****     // Variables in front of a variable is casting 
  34:level_sensor.c ****     // uart_chars may be a different variable type, make sure to cast it as a char
  35:level_sensor.c ****   return (char*)uart_chars;
  74              		.loc 1 35 0
  75 0004 024B     		ldr	r3, .L3
ARM GAS  C:\Users\hail\AppData\Local\Temp\ccXSgjTH.s 			page 3


  36:level_sensor.c **** }
  76              		.loc 1 36 0
  77 0006 1846     		mov	r0, r3
  78 0008 BD46     		mov	sp, r7
  79              		.cfi_def_cfa_register 13
  80              		@ sp needed
  81 000a 80BC     		pop	{r7}
  82              		.cfi_restore 7
  83              		.cfi_def_cfa_offset 0
  84 000c 7047     		bx	lr
  85              	.L4:
  86 000e 00BF     		.align	2
  87              	.L3:
  88 0010 00000000 		.word	uart_chars
  89              		.cfi_endproc
  90              	.LFE64:
  91              		.size	uart_string, .-uart_string
  92              		.section	.text.uart_len,"ax",%progbits
  93              		.align	2
  94              		.global	uart_len
  95              		.thumb
  96              		.thumb_func
  97              		.type	uart_len, %function
  98              	uart_len:
  99              	.LFB65:
  37:level_sensor.c **** 
  38:level_sensor.c **** // Return the number of characters of the level sensor reading
  39:level_sensor.c **** uint8_t uart_len(void) {
 100              		.loc 1 39 0
 101              		.cfi_startproc
 102              		@ args = 0, pretend = 0, frame = 0
 103              		@ frame_needed = 1, uses_anonymous_args = 0
 104              		@ link register save eliminated.
 105 0000 80B4     		push	{r7}
 106              		.cfi_def_cfa_offset 4
 107              		.cfi_offset 7, -4
 108 0002 00AF     		add	r7, sp, #0
 109              		.cfi_def_cfa_register 7
  40:level_sensor.c ****   return num_chars;
 110              		.loc 1 40 0
 111 0004 024B     		ldr	r3, .L7
 112 0006 1B78     		ldrb	r3, [r3]	@ zero_extendqisi2
  41:level_sensor.c **** }
 113              		.loc 1 41 0
 114 0008 1846     		mov	r0, r3
 115 000a BD46     		mov	sp, r7
 116              		.cfi_def_cfa_register 13
 117              		@ sp needed
 118 000c 80BC     		pop	{r7}
 119              		.cfi_restore 7
 120              		.cfi_def_cfa_offset 0
 121 000e 7047     		bx	lr
 122              	.L8:
 123              		.align	2
 124              	.L7:
 125 0010 01010000 		.word	num_chars
 126              		.cfi_endproc
ARM GAS  C:\Users\hail\AppData\Local\Temp\ccXSgjTH.s 			page 4


 127              	.LFE65:
 128              		.size	uart_len, .-uart_len
 129              		.section	.text.uart_clear,"ax",%progbits
 130              		.align	2
 131              		.global	uart_clear
 132              		.thumb
 133              		.thumb_func
 134              		.type	uart_clear, %function
 135              	uart_clear:
 136              	.LFB66:
  42:level_sensor.c **** 
  43:level_sensor.c **** // Clears the sensor data 
  44:level_sensor.c **** void uart_clear(void) {
 137              		.loc 1 44 0
 138              		.cfi_startproc
 139              		@ args = 0, pretend = 0, frame = 0
 140              		@ frame_needed = 1, uses_anonymous_args = 0
 141 0000 80B5     		push	{r7, lr}
 142              		.cfi_def_cfa_offset 8
 143              		.cfi_offset 7, -8
 144              		.cfi_offset 14, -4
 145 0002 00AF     		add	r7, sp, #0
 146              		.cfi_def_cfa_register 7
  45:level_sensor.c ****   // UART_ClearRxBuffer(): Clears the receiver memory buffer and hardware RX FIFO of all received d
  46:level_sensor.c ****   Level_Sensor_UART_ClearRxBuffer();
 147              		.loc 1 46 0
 148 0004 FFF7FEFF 		bl	Level_Sensor_UART_ClearRxBuffer
  47:level_sensor.c ****   // void *memset(void *str, int c, size_t n) where str is a pointer to the block of memory to fill
  48:level_sensor.c ****   // The value is passed as an int, but the function fills the block of memory using the unsigned c
  49:level_sensor.c ****   // n is the number of bytes to be set to the value.
  50:level_sensor.c ****   memset((void*)uart_chars, 0, 256);
 149              		.loc 1 50 0
 150 0008 4FF48072 		mov	r2, #256
 151 000c 0021     		movs	r1, #0
 152 000e 0448     		ldr	r0, .L10
 153 0010 FFF7FEFF 		bl	memset
  51:level_sensor.c ****   num_chars = 0;
 154              		.loc 1 51 0
 155 0014 034B     		ldr	r3, .L10+4
 156 0016 0022     		movs	r2, #0
 157 0018 1A70     		strb	r2, [r3]
  52:level_sensor.c **** }
 158              		.loc 1 52 0
 159 001a 00BF     		nop
 160 001c 80BD     		pop	{r7, pc}
 161              	.L11:
 162 001e 00BF     		.align	2
 163              	.L10:
 164 0020 00000000 		.word	uart_chars
 165 0024 01010000 		.word	num_chars
 166              		.cfi_endproc
 167              	.LFE66:
 168              		.size	uart_clear, .-uart_clear
 169              		.section	.text.Level_Sensor_ISR,"ax",%progbits
 170              		.align	2
 171              		.global	Level_Sensor_ISR
 172              		.thumb
ARM GAS  C:\Users\hail\AppData\Local\Temp\ccXSgjTH.s 			page 5


 173              		.thumb_func
 174              		.type	Level_Sensor_ISR, %function
 175              	Level_Sensor_ISR:
 176              	.LFB67:
  53:level_sensor.c **** 
  54:level_sensor.c **** // ISR: Interrupt Service Routine
  55:level_sensor.c **** CY_ISR(Level_Sensor_ISR) {
 177              		.loc 1 55 0
 178              		.cfi_startproc
 179              		@ args = 0, pretend = 0, frame = 8
 180              		@ frame_needed = 1, uses_anonymous_args = 0
 181 0000 80B5     		push	{r7, lr}
 182              		.cfi_def_cfa_offset 8
 183              		.cfi_offset 7, -8
 184              		.cfi_offset 14, -4
 185 0002 82B0     		sub	sp, sp, #8
 186              		.cfi_def_cfa_offset 16
 187 0004 00AF     		add	r7, sp, #0
 188              		.cfi_def_cfa_register 7
  56:level_sensor.c ****     /* Store received char in uart_chars.
  57:level_sensor.c ****     Returns the last received byte of data. Level_Sensor_UART_GetChar() is designed for ASCII chara
  58:level_sensor.c ****     1 to 255 are values for valid characters and 0 indicats an error occurred or no data is present
  59:level_sensor.c ****     char rx_char = Level_Sensor_UART_GetChar();
 189              		.loc 1 59 0
 190 0006 FFF7FEFF 		bl	Level_Sensor_UART_GetChar
 191 000a 0346     		mov	r3, r0
 192 000c FB71     		strb	r3, [r7, #7]
  60:level_sensor.c ****     // UART_GetChar() returns data, then set the entire uart_chars array to rx_char.
  61:level_sensor.c ****     if (rx_char) uart_chars[num_chars++] = rx_char;
 193              		.loc 1 61 0
 194 000e FB79     		ldrb	r3, [r7, #7]	@ zero_extendqisi2
 195 0010 002B     		cmp	r3, #0
 196 0012 09D0     		beq	.L13
 197              		.loc 1 61 0 is_stmt 0 discriminator 1
 198 0014 114B     		ldr	r3, .L16
 199 0016 1B78     		ldrb	r3, [r3]	@ zero_extendqisi2
 200 0018 5A1C     		adds	r2, r3, #1
 201 001a D1B2     		uxtb	r1, r2
 202 001c 0F4A     		ldr	r2, .L16
 203 001e 1170     		strb	r1, [r2]
 204 0020 1946     		mov	r1, r3
 205 0022 0F4A     		ldr	r2, .L16+4
 206 0024 FB79     		ldrb	r3, [r7, #7]
 207 0026 5354     		strb	r3, [r2, r1]
 208              	.L13:
  62:level_sensor.c **** 
  63:level_sensor.c ****     /* Check pattern at end of line */
  64:level_sensor.c ****     if (rx_char == '\r') {
 209              		.loc 1 64 0 is_stmt 1
 210 0028 FB79     		ldrb	r3, [r7, #7]	@ zero_extendqisi2
 211 002a 0D2B     		cmp	r3, #13
 212 002c 11D1     		bne	.L15
  65:level_sensor.c ****         // strstr(): char *strstr(const char *haystack, const char *needle). haystack - main C stri
  66:level_sensor.c ****         match = strstr(line, pattern);
 213              		.loc 1 66 0
 214 002e 0D4B     		ldr	r3, .L16+8
 215 0030 1A68     		ldr	r2, [r3]
ARM GAS  C:\Users\hail\AppData\Local\Temp\ccXSgjTH.s 			page 6


 216 0032 0D4B     		ldr	r3, .L16+12
 217 0034 1B68     		ldr	r3, [r3]
 218 0036 1946     		mov	r1, r3
 219 0038 1046     		mov	r0, r2
 220 003a FFF7FEFF 		bl	strstr
 221 003e 0246     		mov	r2, r0
 222 0040 0A4B     		ldr	r3, .L16+16
 223 0042 1A60     		str	r2, [r3]
  67:level_sensor.c ****         line = uart_chars + num_chars;
 224              		.loc 1 67 0
 225 0044 054B     		ldr	r3, .L16
 226 0046 1B78     		ldrb	r3, [r3]	@ zero_extendqisi2
 227 0048 1A46     		mov	r2, r3
 228 004a 054B     		ldr	r3, .L16+4
 229 004c 1344     		add	r3, r3, r2
 230 004e 054A     		ldr	r2, .L16+8
 231 0050 1360     		str	r3, [r2]
 232              	.L15:
  68:level_sensor.c ****     }
  69:level_sensor.c **** }
 233              		.loc 1 69 0
 234 0052 00BF     		nop
 235 0054 0837     		adds	r7, r7, #8
 236              		.cfi_def_cfa_offset 8
 237 0056 BD46     		mov	sp, r7
 238              		.cfi_def_cfa_register 13
 239              		@ sp needed
 240 0058 80BD     		pop	{r7, pc}
 241              	.L17:
 242 005a 00BF     		.align	2
 243              	.L16:
 244 005c 01010000 		.word	num_chars
 245 0060 00000000 		.word	uart_chars
 246 0064 00000000 		.word	line
 247 0068 08010000 		.word	pattern
 248 006c 04010000 		.word	match
 249              		.cfi_endproc
 250              	.LFE67:
 251              		.size	Level_Sensor_ISR, .-Level_Sensor_ISR
 252              		.section	.rodata
 253              		.align	2
 254              	.LC0:
 255 0000 5200     		.ascii	"R\000"
 256              		.section	.text.level_sensor_take_reading,"ax",%progbits
 257              		.align	2
 258              		.global	level_sensor_take_reading
 259              		.thumb
 260              		.thumb_func
 261              		.type	level_sensor_take_reading, %function
 262              	level_sensor_take_reading:
 263              	.LFB68:
  70:level_sensor.c **** 
  71:level_sensor.c **** // takes level sensor measurements and calculates average level sensor reading
  72:level_sensor.c **** level_sensor_t level_sensor_take_reading(){
 264              		.loc 1 72 0
 265              		.cfi_startproc
 266              		@ args = 0, pretend = 0, frame = 40
ARM GAS  C:\Users\hail\AppData\Local\Temp\ccXSgjTH.s 			page 7


 267              		@ frame_needed = 1, uses_anonymous_args = 0
 268 0000 B0B5     		push	{r4, r5, r7, lr}
 269              		.cfi_def_cfa_offset 16
 270              		.cfi_offset 4, -16
 271              		.cfi_offset 5, -12
 272              		.cfi_offset 7, -8
 273              		.cfi_offset 14, -4
 274 0002 8AB0     		sub	sp, sp, #40
 275              		.cfi_def_cfa_offset 56
 276 0004 00AF     		add	r7, sp, #0
 277              		.cfi_def_cfa_register 7
 278 0006 7860     		str	r0, [r7, #4]
  73:level_sensor.c ****     
  74:level_sensor.c ****     // level_sensor_t is a new data type we defined in level_sensor.h. We then use that data type t
  75:level_sensor.c ****     level_sensor_t level_sensor_output;
  76:level_sensor.c ****     level_sensor_output.num_invalid_readings = 0;
 279              		.loc 1 76 0
 280 0008 0023     		movs	r3, #0
 281 000a 87F82130 		strb	r3, [r7, #33]
  77:level_sensor.c ****     level_sensor_output.num_valid_readings = 0;
 282              		.loc 1 77 0
 283 000e 0023     		movs	r3, #0
 284 0010 87F82030 		strb	r3, [r7, #32]
  78:level_sensor.c ****     
  79:level_sensor.c ****     uart_clear();
 285              		.loc 1 79 0
 286 0014 FFF7FEFF 		bl	uart_clear
  80:level_sensor.c ****     
  81:level_sensor.c ****     // Start sensor power, uart, and isr
  82:level_sensor.c ****     Level_Sensor_Power_Write(ON);   // Pulls Level Sensor power pin high (turns it on).
 287              		.loc 1 82 0
 288 0018 0120     		movs	r0, #1
 289 001a FFF7FEFF 		bl	Level_Sensor_Power_Write
  83:level_sensor.c ****     CyDelay(200u); // Sensor bootup sequence ~200ms -- senosor will spit out ID info, but we don't 
 290              		.loc 1 83 0
 291 001e C820     		movs	r0, #200
 292 0020 FFF7FEFF 		bl	CyDelay
  84:level_sensor.c ****     Level_Sensor_RX_SetDriveMode(PIN_DM_DIG_HIZ); // RX_SetDriveMode(): Sets the drive mode for eac
 293              		.loc 1 84 0
 294 0024 0220     		movs	r0, #2
 295 0026 FFF7FEFF 		bl	Level_Sensor_RX_SetDriveMode
  85:level_sensor.c ****     Level_Sensor_UART_Start(); // Level_Sensor_UART_Start() sets the initVar variable, calls the Le
 296              		.loc 1 85 0
 297 002a FFF7FEFF 		bl	Level_Sensor_UART_Start
  86:level_sensor.c ****     Level_Sensor_ISR_StartEx(Level_Sensor_ISR); // Sets up the interrupt and enables it.
 298              		.loc 1 86 0
 299 002e 3848     		ldr	r0, .L27
 300 0030 FFF7FEFF 		bl	Level_Sensor_ISR_StartEx
  87:level_sensor.c ****     
  88:level_sensor.c ****     // Wait to take  reading
  89:level_sensor.c ****     // Sensor will take ~200ms to send first reading, and 200ms for subsequent readings
  90:level_sensor.c ****     CyDelay(2000u); // Take a few seconds to get readings, 2 secs ~10 readings
 301              		.loc 1 90 0
 302 0034 4FF4FA60 		mov	r0, #2000
 303 0038 FFF7FEFF 		bl	CyDelay
  91:level_sensor.c ****     
  92:level_sensor.c ****     //stop all sensor processes
ARM GAS  C:\Users\hail\AppData\Local\Temp\ccXSgjTH.s 			page 8


  93:level_sensor.c ****     Level_Sensor_UART_Stop(); // Disables the UART operation.
 304              		.loc 1 93 0
 305 003c FFF7FEFF 		bl	Level_Sensor_UART_Stop
  94:level_sensor.c ****     Level_Sensor_ISR_Stop(); // Disables and removes the interrupt.
 306              		.loc 1 94 0
 307 0040 FFF7FEFF 		bl	Level_Sensor_ISR_Stop
  95:level_sensor.c ****     Level_Sensor_Power_Write(OFF); // Pulls Level Sensor Power pin low (turns it off).
 308              		.loc 1 95 0
 309 0044 0020     		movs	r0, #0
 310 0046 FFF7FEFF 		bl	Level_Sensor_Power_Write
  96:level_sensor.c ****     // RX_SetDriveMode(): Sets the drive mode for each of the Pins component's pins.
  97:level_sensor.c ****     // String Drive Mode means it will only be outputting a voltage (don't send any data) when pull
  98:level_sensor.c ****     // UART in PSOC starts high. Then pulls low to get data. When turn sensor off, still using powe
  99:level_sensor.c ****     // So turning it to Strong Drive has it stay low.
 100:level_sensor.c ****     Level_Sensor_RX_SetDriveMode(PIN_DM_STRONG);
 311              		.loc 1 100 0
 312 004a 0C20     		movs	r0, #12
 313 004c FFF7FEFF 		bl	Level_Sensor_RX_SetDriveMode
 101:level_sensor.c ****     // Stops writing the value to the physical port.
 102:level_sensor.c ****     // Just because turn power of sensor off, pin could still be high and getting power. This ensur
 103:level_sensor.c ****     Level_Sensor_RX_Write(OFF);
 314              		.loc 1 103 0
 315 0050 0020     		movs	r0, #0
 316 0052 FFF7FEFF 		bl	Level_Sensor_RX_Write
 104:level_sensor.c **** 
 105:level_sensor.c ****     /* Return parsed reading */
 106:level_sensor.c ****     // Parse string and put all values into array
 107:level_sensor.c ****     // The sensor will power on and do a few things, after which the readigs will follow with the s
 108:level_sensor.c ****     // Readings are stashed between "R" and "\000"
 109:level_sensor.c ****     char *token;
 110:level_sensor.c ****     // strtok(): breaks uart_chars into smaller string when sees "R".
 111:level_sensor.c ****     token = strtok(uart_chars, "R");
 317              		.loc 1 111 0
 318 0056 2F49     		ldr	r1, .L27+4
 319 0058 2F48     		ldr	r0, .L27+8
 320 005a FFF7FEFF 		bl	strtok
 321 005e 7862     		str	r0, [r7, #36]
 112:level_sensor.c ****     /* walk through other tokens */
 113:level_sensor.c ****    while( token != NULL ) 
 322              		.loc 1 113 0
 323 0060 33E0     		b	.L19
 324              	.L24:
 114:level_sensor.c ****    {
 115:level_sensor.c ****       if(strstr(token, "\r") != NULL){ // Full reading is delimieted by "R" + reading + "\r"
 325              		.loc 1 115 0
 326 0062 0D21     		movs	r1, #13
 327 0064 786A     		ldr	r0, [r7, #36]
 328 0066 FFF7FEFF 		bl	strchr
 329 006a 0346     		mov	r3, r0
 330 006c 002B     		cmp	r3, #0
 331 006e 27D0     		beq	.L20
 332              	.LBB2:
 116:level_sensor.c ****         // int atoi(const char *str) converts the string argument str to an integer (type int).
 117:level_sensor.c ****         uint16 reading = atoi(token);
 333              		.loc 1 117 0
 334 0070 786A     		ldr	r0, [r7, #36]
 335 0072 FFF7FEFF 		bl	atoi
ARM GAS  C:\Users\hail\AppData\Local\Temp\ccXSgjTH.s 			page 9


 336 0076 0346     		mov	r3, r0
 337 0078 7B84     		strh	r3, [r7, #34]	@ movhi
 118:level_sensor.c ****         if(reading != 0){
 338              		.loc 1 118 0
 339 007a 7B8C     		ldrh	r3, [r7, #34]
 340 007c 002B     		cmp	r3, #0
 341 007e 1FD0     		beq	.L20
 119:level_sensor.c ****             if(reading != READING_INVALID){ // Invald readings by maxbotix
 342              		.loc 1 119 0
 343 0080 7B8C     		ldrh	r3, [r7, #34]
 344 0082 42F20F72 		movw	r2, #9999
 345 0086 9342     		cmp	r3, r2
 346 0088 14D0     		beq	.L21
 120:level_sensor.c ****                 // Set the level readings array of the length of number of valid readings equal to 
 121:level_sensor.c ****                 level_sensor_output.all_level_readings[level_sensor_output.num_valid_readings] = re
 347              		.loc 1 121 0
 348 008a 97F82030 		ldrb	r3, [r7, #32]	@ zero_extendqisi2
 349 008e B7F92220 		ldrsh	r2, [r7, #34]
 350 0092 5B00     		lsls	r3, r3, #1
 351 0094 07F12801 		add	r1, r7, #40
 352 0098 0B44     		add	r3, r3, r1
 353 009a 23F8202C 		strh	r2, [r3, #-32]	@ movhi
 122:level_sensor.c ****                 // If number of valid readings less than 11 total readings, increase the count of v
 123:level_sensor.c ****                 if(level_sensor_output.num_valid_readings < N_READINGS){
 354              		.loc 1 123 0
 355 009e 97F82030 		ldrb	r3, [r7, #32]	@ zero_extendqisi2
 356 00a2 0A2B     		cmp	r3, #10
 357 00a4 15D8     		bhi	.L26
 124:level_sensor.c ****                     level_sensor_output.num_valid_readings++;
 358              		.loc 1 124 0
 359 00a6 97F82030 		ldrb	r3, [r7, #32]	@ zero_extendqisi2
 360 00aa 0133     		adds	r3, r3, #1
 361 00ac DBB2     		uxtb	r3, r3
 362 00ae 87F82030 		strb	r3, [r7, #32]
 363 00b2 05E0     		b	.L20
 364              	.L21:
 125:level_sensor.c ****                 }else{
 126:level_sensor.c ****                  break;   
 127:level_sensor.c ****                 }
 128:level_sensor.c ****                 
 129:level_sensor.c ****             }else{
 130:level_sensor.c ****                 // Otherwise increase the count of invalid readings
 131:level_sensor.c ****                 level_sensor_output.num_invalid_readings++;
 365              		.loc 1 131 0
 366 00b4 97F82130 		ldrb	r3, [r7, #33]	@ zero_extendqisi2
 367 00b8 0133     		adds	r3, r3, #1
 368 00ba DBB2     		uxtb	r3, r3
 369 00bc 87F82130 		strb	r3, [r7, #33]
 370              	.L20:
 371              	.LBE2:
 132:level_sensor.c ****             }
 133:level_sensor.c ****         }
 134:level_sensor.c ****       }
 135:level_sensor.c ****       token = strtok(NULL, "R"); // This "NULL" says to continue where you left off last time.
 372              		.loc 1 135 0
 373 00c0 1449     		ldr	r1, .L27+4
 374 00c2 0020     		movs	r0, #0
ARM GAS  C:\Users\hail\AppData\Local\Temp\ccXSgjTH.s 			page 10


 375 00c4 FFF7FEFF 		bl	strtok
 376 00c8 7862     		str	r0, [r7, #36]
 377              	.L19:
 113:level_sensor.c ****    {
 378              		.loc 1 113 0
 379 00ca 7B6A     		ldr	r3, [r7, #36]
 380 00cc 002B     		cmp	r3, #0
 381 00ce C8D1     		bne	.L24
 382 00d0 00E0     		b	.L23
 383              	.L26:
 384              	.LBB3:
 126:level_sensor.c ****                 }
 385              		.loc 1 126 0
 386 00d2 00BF     		nop
 387              	.L23:
 388              	.LBE3:
 136:level_sensor.c ****    }
 137:level_sensor.c ****     // Calculate median level reading
 138:level_sensor.c ****     level_sensor_output.level_reading = find_median(level_sensor_output.all_level_readings,level_se
 389              		.loc 1 138 0
 390 00d4 97F82020 		ldrb	r2, [r7, #32]	@ zero_extendqisi2
 391 00d8 07F10803 		add	r3, r7, #8
 392 00dc 1146     		mov	r1, r2
 393 00de 1846     		mov	r0, r3
 394 00e0 FFF7FEFF 		bl	find_median
 395 00e4 0346     		mov	r3, r0
 396 00e6 1BB2     		sxth	r3, r3
 397 00e8 FB83     		strh	r3, [r7, #30]	@ movhi
 139:level_sensor.c ****     
 140:level_sensor.c ****     return level_sensor_output;
 398              		.loc 1 140 0
 399 00ea 7B68     		ldr	r3, [r7, #4]
 400 00ec 1D46     		mov	r5, r3
 401 00ee 07F10804 		add	r4, r7, #8
 402 00f2 0FCC     		ldmia	r4!, {r0, r1, r2, r3}
 403 00f4 2860     		str	r0, [r5]	@ unaligned
 404 00f6 6960     		str	r1, [r5, #4]	@ unaligned
 405 00f8 AA60     		str	r2, [r5, #8]	@ unaligned
 406 00fa EB60     		str	r3, [r5, #12]	@ unaligned
 407 00fc 03CC     		ldmia	r4!, {r0, r1}
 408 00fe 2861     		str	r0, [r5, #16]	@ unaligned
 409 0100 6961     		str	r1, [r5, #20]	@ unaligned
 410 0102 2388     		ldrh	r3, [r4]	@ unaligned
 411 0104 2B83     		strh	r3, [r5, #24]	@ unaligned
 141:level_sensor.c **** }
 412              		.loc 1 141 0
 413 0106 7868     		ldr	r0, [r7, #4]
 414 0108 2837     		adds	r7, r7, #40
 415              		.cfi_def_cfa_offset 16
 416 010a BD46     		mov	sp, r7
 417              		.cfi_def_cfa_register 13
 418              		@ sp needed
 419 010c B0BD     		pop	{r4, r5, r7, pc}
 420              	.L28:
 421 010e 00BF     		.align	2
 422              	.L27:
 423 0110 00000000 		.word	Level_Sensor_ISR
ARM GAS  C:\Users\hail\AppData\Local\Temp\ccXSgjTH.s 			page 11


 424 0114 00000000 		.word	.LC0
 425 0118 00000000 		.word	uart_chars
 426              		.cfi_endproc
 427              	.LFE68:
 428              		.size	level_sensor_take_reading, .-level_sensor_take_reading
 429              		.section	.rodata
 430 0002 0000     		.align	2
 431              	.LC1:
 432 0004 54455354 		.ascii	"TEST_LEVEL_SENSOR\000"
 432      5F4C4556 
 432      454C5F53 
 432      454E534F 
 432      5200
 433 0016 0000     		.align	2
 434              	.LC2:
 435 0018 6E57414E 		.ascii	"nWANTED=%d,nRECEIVED=%d,nVALID=%d,nMEDIAN=%d.\000"
 435      5445443D 
 435      25642C6E 
 435      52454345 
 435      49564544 
 436              		.section	.text.level_sensor_test,"ax",%progbits
 437              		.align	2
 438              		.global	level_sensor_test
 439              		.thumb
 440              		.thumb_func
 441              		.type	level_sensor_test, %function
 442              	level_sensor_test:
 443              	.LFB69:
 142:level_sensor.c **** 
 143:level_sensor.c **** // Level sensor test
 144:level_sensor.c **** test_t level_sensor_test(){
 444              		.loc 1 144 0
 445              		.cfi_startproc
 446              		@ args = 0, pretend = 0, frame = 424
 447              		@ frame_needed = 1, uses_anonymous_args = 0
 448 0000 B0B5     		push	{r4, r5, r7, lr}
 449              		.cfi_def_cfa_offset 16
 450              		.cfi_offset 4, -16
 451              		.cfi_offset 5, -12
 452              		.cfi_offset 7, -8
 453              		.cfi_offset 14, -4
 454 0002 EEB0     		sub	sp, sp, #440
 455              		.cfi_def_cfa_offset 456
 456 0004 04AF     		add	r7, sp, #16
 457              		.cfi_def_cfa 7, 440
 458 0006 3B1D     		adds	r3, r7, #4
 459 0008 1860     		str	r0, [r3]
 145:level_sensor.c ****     
 146:level_sensor.c ****     test_t test; // test_t is a new data type we defined in test.h. We then use that data type to d
 147:level_sensor.c ****     test.status = 0; // set test status to zero
 460              		.loc 1 147 0
 461 000a 07F12403 		add	r3, r7, #36
 462 000e 0022     		movs	r2, #0
 463 0010 83F88020 		strb	r2, [r3, #128]
 148:level_sensor.c ****     snprintf(test.test_name,sizeof(test.test_name),"TEST_LEVEL_SENSOR");
 464              		.loc 1 148 0
 465 0014 07F12403 		add	r3, r7, #36
ARM GAS  C:\Users\hail\AppData\Local\Temp\ccXSgjTH.s 			page 12


 466 0018 2A4A     		ldr	r2, .L33
 467 001a 1C46     		mov	r4, r3
 468 001c 1546     		mov	r5, r2
 469 001e 0FCD     		ldmia	r5!, {r0, r1, r2, r3}
 470 0020 0FC4     		stmia	r4!, {r0, r1, r2, r3}
 471 0022 2B68     		ldr	r3, [r5]
 472 0024 2380     		strh	r3, [r4]	@ movhi
 149:level_sensor.c **** 
 150:level_sensor.c ****     // level_sensor_t is a new data type we defined in level_sensor.h. We then use that data type t
 151:level_sensor.c ****     level_sensor_t sensor = level_sensor_take_reading();
 473              		.loc 1 151 0
 474 0026 07F10803 		add	r3, r7, #8
 475 002a 1846     		mov	r0, r3
 476 002c FFF7FEFF 		bl	level_sensor_take_reading
 152:level_sensor.c ****     
 153:level_sensor.c ****     // print the max number of readings (11), the number of actual readings, the number of valid re
 154:level_sensor.c ****     snprintf(test.reason,sizeof(test.reason),"nWANTED=%d,nRECEIVED=%d,nVALID=%d,nMEDIAN=%d.",
 155:level_sensor.c ****         N_READINGS,
 156:level_sensor.c ****         sensor.num_valid_readings+sensor.num_invalid_readings,
 477              		.loc 1 156 0
 478 0030 07F10803 		add	r3, r7, #8
 479 0034 1B7E     		ldrb	r3, [r3, #24]	@ zero_extendqisi2
 154:level_sensor.c ****         N_READINGS,
 480              		.loc 1 154 0
 481 0036 1A46     		mov	r2, r3
 482              		.loc 1 156 0
 483 0038 07F10803 		add	r3, r7, #8
 484 003c 5B7E     		ldrb	r3, [r3, #25]	@ zero_extendqisi2
 154:level_sensor.c ****         N_READINGS,
 485              		.loc 1 154 0
 486 003e 1344     		add	r3, r3, r2
 157:level_sensor.c ****         sensor.num_valid_readings,
 487              		.loc 1 157 0
 488 0040 07F10802 		add	r2, r7, #8
 489 0044 127E     		ldrb	r2, [r2, #24]	@ zero_extendqisi2
 154:level_sensor.c ****         N_READINGS,
 490              		.loc 1 154 0
 491 0046 1146     		mov	r1, r2
 158:level_sensor.c ****         sensor.level_reading
 492              		.loc 1 158 0
 493 0048 07F10802 		add	r2, r7, #8
 494 004c B2F91620 		ldrsh	r2, [r2, #22]
 154:level_sensor.c ****         N_READINGS,
 495              		.loc 1 154 0
 496 0050 1446     		mov	r4, r2
 497 0052 07F12402 		add	r2, r7, #36
 498 0056 02F18100 		add	r0, r2, #129
 499 005a 0294     		str	r4, [sp, #8]
 500 005c 0191     		str	r1, [sp, #4]
 501 005e 0093     		str	r3, [sp]
 502 0060 0B23     		movs	r3, #11
 503 0062 194A     		ldr	r2, .L33+4
 504 0064 4FF48071 		mov	r1, #256
 505 0068 FFF7FEFF 		bl	snprintf
 159:level_sensor.c ****     );
 160:level_sensor.c ****    
 161:level_sensor.c ****     // if the number valid readings is the max number of readings (11), then the test passes with t
ARM GAS  C:\Users\hail\AppData\Local\Temp\ccXSgjTH.s 			page 13


 162:level_sensor.c ****     if(sensor.num_valid_readings == N_READINGS){//pass
 506              		.loc 1 162 0
 507 006c 07F10803 		add	r3, r7, #8
 508 0070 1B7E     		ldrb	r3, [r3, #24]	@ zero_extendqisi2
 509 0072 0B2B     		cmp	r3, #11
 510 0074 05D1     		bne	.L30
 163:level_sensor.c ****         test.status = 1;
 511              		.loc 1 163 0
 512 0076 07F12403 		add	r3, r7, #36
 513 007a 0122     		movs	r2, #1
 514 007c 83F88020 		strb	r2, [r3, #128]
 515 0080 0EE0     		b	.L31
 516              	.L30:
 164:level_sensor.c ****     // if the number of valid readings is greater than zero and less than the max number of reading
 165:level_sensor.c ****     }else if((sensor.num_valid_readings > 0) && (sensor.num_valid_readings < N_READINGS)){//pass
 517              		.loc 1 165 0
 518 0082 07F10803 		add	r3, r7, #8
 519 0086 1B7E     		ldrb	r3, [r3, #24]	@ zero_extendqisi2
 520 0088 002B     		cmp	r3, #0
 521 008a 09D0     		beq	.L31
 522              		.loc 1 165 0 is_stmt 0 discriminator 1
 523 008c 07F10803 		add	r3, r7, #8
 524 0090 1B7E     		ldrb	r3, [r3, #24]	@ zero_extendqisi2
 525 0092 0A2B     		cmp	r3, #10
 526 0094 04D8     		bhi	.L31
 166:level_sensor.c ****         test.status = 2; //not bad, since we got some OK readings
 527              		.loc 1 166 0 is_stmt 1
 528 0096 07F12403 		add	r3, r7, #36
 529 009a 0222     		movs	r2, #2
 530 009c 83F88020 		strb	r2, [r3, #128]
 531              	.L31:
 167:level_sensor.c ****     }
 168:level_sensor.c ****         
 169:level_sensor.c ****     return test;
 532              		.loc 1 169 0
 533 00a0 3B1D     		adds	r3, r7, #4
 534 00a2 1A68     		ldr	r2, [r3]
 535 00a4 07F12403 		add	r3, r7, #36
 536 00a8 1046     		mov	r0, r2
 537 00aa 1946     		mov	r1, r3
 538 00ac 40F28113 		movw	r3, #385
 539 00b0 1A46     		mov	r2, r3
 540 00b2 FFF7FEFF 		bl	memcpy
 170:level_sensor.c **** }
 541              		.loc 1 170 0
 542 00b6 3B1D     		adds	r3, r7, #4
 543 00b8 1868     		ldr	r0, [r3]
 544 00ba 07F5D477 		add	r7, r7, #424
 545              		.cfi_def_cfa_offset 16
 546 00be BD46     		mov	sp, r7
 547              		.cfi_def_cfa_register 13
 548              		@ sp needed
 549 00c0 B0BD     		pop	{r4, r5, r7, pc}
 550              	.L34:
 551 00c2 00BF     		.align	2
 552              	.L33:
 553 00c4 04000000 		.word	.LC1
ARM GAS  C:\Users\hail\AppData\Local\Temp\ccXSgjTH.s 			page 14


 554 00c8 18000000 		.word	.LC2
 555              		.cfi_endproc
 556              	.LFE69:
 557              		.size	level_sensor_test, .-level_sensor_test
 558              		.global	__aeabi_i2d
 559              		.global	__aeabi_ddiv
 560              		.global	__aeabi_d2iz
 561              		.section	.text.find_median,"ax",%progbits
 562              		.align	2
 563              		.global	find_median
 564              		.thumb
 565              		.thumb_func
 566              		.type	find_median, %function
 567              	find_median:
 568              	.LFB70:
 171:level_sensor.c **** 
 172:level_sensor.c **** 
 173:level_sensor.c **** // function to calculate the median of the array, after array is sorted
 174:level_sensor.c **** uint16 find_median(int16 array[] , uint8 n)
 175:level_sensor.c **** {
 569              		.loc 1 175 0
 570              		.cfi_startproc
 571              		@ args = 0, pretend = 0, frame = 16
 572              		@ frame_needed = 1, uses_anonymous_args = 0
 573 0000 90B5     		push	{r4, r7, lr}
 574              		.cfi_def_cfa_offset 12
 575              		.cfi_offset 4, -12
 576              		.cfi_offset 7, -8
 577              		.cfi_offset 14, -4
 578 0002 85B0     		sub	sp, sp, #20
 579              		.cfi_def_cfa_offset 32
 580 0004 00AF     		add	r7, sp, #0
 581              		.cfi_def_cfa_register 7
 582 0006 7860     		str	r0, [r7, #4]
 583 0008 0B46     		mov	r3, r1
 584 000a FB70     		strb	r3, [r7, #3]
 176:level_sensor.c ****     int16 median=0;
 585              		.loc 1 176 0
 586 000c 0023     		movs	r3, #0
 587 000e FB81     		strh	r3, [r7, #14]	@ movhi
 177:level_sensor.c ****     sort(array,n);
 588              		.loc 1 177 0
 589 0010 FB78     		ldrb	r3, [r7, #3]	@ zero_extendqisi2
 590 0012 1BB2     		sxth	r3, r3
 591 0014 1946     		mov	r1, r3
 592 0016 7868     		ldr	r0, [r7, #4]
 593 0018 FFF7FEFF 		bl	sort
 178:level_sensor.c ****     
 179:level_sensor.c ****     // if number of elements are even
 180:level_sensor.c ****     if(n%2 == 0)
 594              		.loc 1 180 0
 595 001c FB78     		ldrb	r3, [r7, #3]
 596 001e 03F00103 		and	r3, r3, #1
 597 0022 DBB2     		uxtb	r3, r3
 598 0024 002B     		cmp	r3, #0
 599 0026 25D1     		bne	.L36
 181:level_sensor.c ****         // median is the average of the  two middle sorted numbers
ARM GAS  C:\Users\hail\AppData\Local\Temp\ccXSgjTH.s 			page 15


 182:level_sensor.c ****         median = (array[(n-1)/2] + array[n/2])/2.0;
 600              		.loc 1 182 0
 601 0028 FB78     		ldrb	r3, [r7, #3]	@ zero_extendqisi2
 602 002a 013B     		subs	r3, r3, #1
 603 002c DA0F     		lsrs	r2, r3, #31
 604 002e 1344     		add	r3, r3, r2
 605 0030 5B10     		asrs	r3, r3, #1
 606 0032 5B00     		lsls	r3, r3, #1
 607 0034 7A68     		ldr	r2, [r7, #4]
 608 0036 1344     		add	r3, r3, r2
 609 0038 B3F90030 		ldrsh	r3, [r3]
 610 003c 1946     		mov	r1, r3
 611 003e FB78     		ldrb	r3, [r7, #3]	@ zero_extendqisi2
 612 0040 5B08     		lsrs	r3, r3, #1
 613 0042 DBB2     		uxtb	r3, r3
 614 0044 5B00     		lsls	r3, r3, #1
 615 0046 7A68     		ldr	r2, [r7, #4]
 616 0048 1344     		add	r3, r3, r2
 617 004a B3F90030 		ldrsh	r3, [r3]
 618 004e 0B44     		add	r3, r3, r1
 619 0050 1846     		mov	r0, r3
 620 0052 FFF7FEFF 		bl	__aeabi_i2d
 621 0056 4FF00002 		mov	r2, #0
 622 005a 4FF08043 		mov	r3, #1073741824
 623 005e FFF7FEFF 		bl	__aeabi_ddiv
 624 0062 0346     		mov	r3, r0
 625 0064 0C46     		mov	r4, r1
 626 0066 1846     		mov	r0, r3
 627 0068 2146     		mov	r1, r4
 628 006a FFF7FEFF 		bl	__aeabi_d2iz
 629 006e 0346     		mov	r3, r0
 630 0070 FB81     		strh	r3, [r7, #14]	@ movhi
 631 0072 07E0     		b	.L37
 632              	.L36:
 183:level_sensor.c ****     // if number of elements are odd
 184:level_sensor.c ****     else
 185:level_sensor.c ****         // median is the the middle sorted number 
 186:level_sensor.c ****         median = array[n/2];
 633              		.loc 1 186 0
 634 0074 FB78     		ldrb	r3, [r7, #3]	@ zero_extendqisi2
 635 0076 5B08     		lsrs	r3, r3, #1
 636 0078 DBB2     		uxtb	r3, r3
 637 007a 5B00     		lsls	r3, r3, #1
 638 007c 7A68     		ldr	r2, [r7, #4]
 639 007e 1344     		add	r3, r3, r2
 640 0080 1B88     		ldrh	r3, [r3]	@ movhi
 641 0082 FB81     		strh	r3, [r7, #14]	@ movhi
 642              	.L37:
 187:level_sensor.c ****     
 188:level_sensor.c ****     return median;
 643              		.loc 1 188 0
 644 0084 FB89     		ldrh	r3, [r7, #14]
 189:level_sensor.c **** }
 645              		.loc 1 189 0
 646 0086 1846     		mov	r0, r3
 647 0088 1437     		adds	r7, r7, #20
 648              		.cfi_def_cfa_offset 12
ARM GAS  C:\Users\hail\AppData\Local\Temp\ccXSgjTH.s 			page 16


 649 008a BD46     		mov	sp, r7
 650              		.cfi_def_cfa_register 13
 651              		@ sp needed
 652 008c 90BD     		pop	{r4, r7, pc}
 653              		.cfi_endproc
 654              	.LFE70:
 655              		.size	find_median, .-find_median
 656              		.section	.text.sort,"ax",%progbits
 657              		.align	2
 658              		.global	sort
 659              		.thumb
 660              		.thumb_func
 661              		.type	sort, %function
 662              	sort:
 663              	.LFB71:
 190:level_sensor.c **** 
 191:level_sensor.c **** // function to sort the elements in the level readings array
 192:level_sensor.c **** void sort(int16 a[],int16 n) { 
 664              		.loc 1 192 0
 665              		.cfi_startproc
 666              		@ args = 0, pretend = 0, frame = 16
 667              		@ frame_needed = 1, uses_anonymous_args = 0
 668 0000 80B5     		push	{r7, lr}
 669              		.cfi_def_cfa_offset 8
 670              		.cfi_offset 7, -8
 671              		.cfi_offset 14, -4
 672 0002 84B0     		sub	sp, sp, #16
 673              		.cfi_def_cfa_offset 24
 674 0004 00AF     		add	r7, sp, #0
 675              		.cfi_def_cfa_register 7
 676 0006 7860     		str	r0, [r7, #4]
 677 0008 0B46     		mov	r3, r1
 678 000a 7B80     		strh	r3, [r7, #2]	@ movhi
 193:level_sensor.c ****    int16 i,j;
 194:level_sensor.c **** 
 195:level_sensor.c ****    for(i = 0;i < n-1;i++) {
 679              		.loc 1 195 0
 680 000c 0023     		movs	r3, #0
 681 000e FB81     		strh	r3, [r7, #14]	@ movhi
 682 0010 37E0     		b	.L40
 683              	.L44:
 196:level_sensor.c ****       for(j = 0;j < n-i-1;j++) {
 684              		.loc 1 196 0
 685 0012 0023     		movs	r3, #0
 686 0014 BB81     		strh	r3, [r7, #12]	@ movhi
 687 0016 24E0     		b	.L41
 688              	.L43:
 197:level_sensor.c ****          if(a[j] > a[j+1])
 689              		.loc 1 197 0
 690 0018 B7F90C30 		ldrsh	r3, [r7, #12]
 691 001c 5B00     		lsls	r3, r3, #1
 692 001e 7A68     		ldr	r2, [r7, #4]
 693 0020 1344     		add	r3, r3, r2
 694 0022 B3F90020 		ldrsh	r2, [r3]
 695 0026 B7F90C30 		ldrsh	r3, [r7, #12]
 696 002a 0133     		adds	r3, r3, #1
 697 002c 5B00     		lsls	r3, r3, #1
ARM GAS  C:\Users\hail\AppData\Local\Temp\ccXSgjTH.s 			page 17


 698 002e 7968     		ldr	r1, [r7, #4]
 699 0030 0B44     		add	r3, r3, r1
 700 0032 B3F90030 		ldrsh	r3, [r3]
 701 0036 9A42     		cmp	r2, r3
 702 0038 0DDD     		ble	.L42
 198:level_sensor.c ****             swap(&a[j],&a[j+1]); // swap the address of a[j] and a[j+1]
 703              		.loc 1 198 0
 704 003a B7F90C30 		ldrsh	r3, [r7, #12]
 705 003e 5B00     		lsls	r3, r3, #1
 706 0040 7A68     		ldr	r2, [r7, #4]
 707 0042 D018     		adds	r0, r2, r3
 708 0044 B7F90C30 		ldrsh	r3, [r7, #12]
 709 0048 0133     		adds	r3, r3, #1
 710 004a 5B00     		lsls	r3, r3, #1
 711 004c 7A68     		ldr	r2, [r7, #4]
 712 004e 1344     		add	r3, r3, r2
 713 0050 1946     		mov	r1, r3
 714 0052 FFF7FEFF 		bl	swap
 715              	.L42:
 196:level_sensor.c ****       for(j = 0;j < n-i-1;j++) {
 716              		.loc 1 196 0 discriminator 2
 717 0056 B7F90C30 		ldrsh	r3, [r7, #12]
 718 005a 9BB2     		uxth	r3, r3
 719 005c 0133     		adds	r3, r3, #1
 720 005e 9BB2     		uxth	r3, r3
 721 0060 BB81     		strh	r3, [r7, #12]	@ movhi
 722              	.L41:
 196:level_sensor.c ****       for(j = 0;j < n-i-1;j++) {
 723              		.loc 1 196 0 is_stmt 0 discriminator 1
 724 0062 B7F90C20 		ldrsh	r2, [r7, #12]
 725 0066 B7F90210 		ldrsh	r1, [r7, #2]
 726 006a B7F90E30 		ldrsh	r3, [r7, #14]
 727 006e CB1A     		subs	r3, r1, r3
 728 0070 013B     		subs	r3, r3, #1
 729 0072 9A42     		cmp	r2, r3
 730 0074 D0DB     		blt	.L43
 195:level_sensor.c ****       for(j = 0;j < n-i-1;j++) {
 731              		.loc 1 195 0 is_stmt 1 discriminator 2
 732 0076 B7F90E30 		ldrsh	r3, [r7, #14]
 733 007a 9BB2     		uxth	r3, r3
 734 007c 0133     		adds	r3, r3, #1
 735 007e 9BB2     		uxth	r3, r3
 736 0080 FB81     		strh	r3, [r7, #14]	@ movhi
 737              	.L40:
 195:level_sensor.c ****       for(j = 0;j < n-i-1;j++) {
 738              		.loc 1 195 0 is_stmt 0 discriminator 1
 739 0082 B7F90E20 		ldrsh	r2, [r7, #14]
 740 0086 B7F90230 		ldrsh	r3, [r7, #2]
 741 008a 013B     		subs	r3, r3, #1
 742 008c 9A42     		cmp	r2, r3
 743 008e C0DB     		blt	.L44
 199:level_sensor.c ****       }
 200:level_sensor.c ****    }
 201:level_sensor.c **** }
 744              		.loc 1 201 0 is_stmt 1
 745 0090 00BF     		nop
 746 0092 1037     		adds	r7, r7, #16
ARM GAS  C:\Users\hail\AppData\Local\Temp\ccXSgjTH.s 			page 18


 747              		.cfi_def_cfa_offset 8
 748 0094 BD46     		mov	sp, r7
 749              		.cfi_def_cfa_register 13
 750              		@ sp needed
 751 0096 80BD     		pop	{r7, pc}
 752              		.cfi_endproc
 753              	.LFE71:
 754              		.size	sort, .-sort
 755              		.section	.text.swap,"ax",%progbits
 756              		.align	2
 757              		.global	swap
 758              		.thumb
 759              		.thumb_func
 760              		.type	swap, %function
 761              	swap:
 762              	.LFB72:
 202:level_sensor.c **** 
 203:level_sensor.c **** // function to swap elements in the level readings array in order to sort them
 204:level_sensor.c **** void swap(int16 *p,int16 *q) {
 763              		.loc 1 204 0
 764              		.cfi_startproc
 765              		@ args = 0, pretend = 0, frame = 16
 766              		@ frame_needed = 1, uses_anonymous_args = 0
 767              		@ link register save eliminated.
 768 0000 80B4     		push	{r7}
 769              		.cfi_def_cfa_offset 4
 770              		.cfi_offset 7, -4
 771 0002 85B0     		sub	sp, sp, #20
 772              		.cfi_def_cfa_offset 24
 773 0004 00AF     		add	r7, sp, #0
 774              		.cfi_def_cfa_register 7
 775 0006 7860     		str	r0, [r7, #4]
 776 0008 3960     		str	r1, [r7]
 205:level_sensor.c ****    int16 t;
 206:level_sensor.c ****    
 207:level_sensor.c ****    t=*p; 
 777              		.loc 1 207 0
 778 000a 7B68     		ldr	r3, [r7, #4]
 779 000c 1B88     		ldrh	r3, [r3]	@ movhi
 780 000e FB81     		strh	r3, [r7, #14]	@ movhi
 208:level_sensor.c ****    *p=*q; 
 781              		.loc 1 208 0
 782 0010 3B68     		ldr	r3, [r7]
 783 0012 B3F90020 		ldrsh	r2, [r3]
 784 0016 7B68     		ldr	r3, [r7, #4]
 785 0018 1A80     		strh	r2, [r3]	@ movhi
 209:level_sensor.c ****    *q=t;
 786              		.loc 1 209 0
 787 001a 3B68     		ldr	r3, [r7]
 788 001c FA89     		ldrh	r2, [r7, #14]	@ movhi
 789 001e 1A80     		strh	r2, [r3]	@ movhi
 210:level_sensor.c **** }
 790              		.loc 1 210 0
 791 0020 00BF     		nop
 792 0022 1437     		adds	r7, r7, #20
 793              		.cfi_def_cfa_offset 4
 794 0024 BD46     		mov	sp, r7
ARM GAS  C:\Users\hail\AppData\Local\Temp\ccXSgjTH.s 			page 19


 795              		.cfi_def_cfa_register 13
 796              		@ sp needed
 797 0026 80BC     		pop	{r7}
 798              		.cfi_restore 7
 799              		.cfi_def_cfa_offset 0
 800 0028 7047     		bx	lr
 801              		.cfi_endproc
 802              	.LFE72:
 803              		.size	swap, .-swap
 804 002a 00BF     		.text
 805              	.Letext0:
 806              		.file 2 "c:\\program files (x86)\\cypress\\psoc creator\\4.3\\psoc creator\\import\\gnu\\arm\\5.4.
 807              		.file 3 "c:\\program files (x86)\\cypress\\psoc creator\\4.3\\psoc creator\\import\\gnu\\arm\\5.4.
 808              		.file 4 "Generated_Source\\PSoC5/cytypes.h"
 809              		.file 5 "testing.h"
 810              		.file 6 "level_sensor.h"
 811              		.file 7 "modem.h"
 812              		.file 8 "data.h"
 813              		.file 9 "notoriOS.h"
 814              		.file 10 "Generated_Source\\PSoC5/core_cm3.h"