ARM GAS  C:\Users\hail\AppData\Local\Temp\ccsvwP8y.s 			page 1


   1              		.syntax unified
   2              		.cpu cortex-m3
   3              		.fpu softvfp
   4              		.eabi_attribute 20, 1
   5              		.eabi_attribute 21, 1
   6              		.eabi_attribute 23, 3
   7              		.eabi_attribute 24, 1
   8              		.eabi_attribute 25, 1
   9              		.eabi_attribute 26, 1
  10              		.eabi_attribute 30, 6
  11              		.eabi_attribute 34, 1
  12              		.eabi_attribute 18, 4
  13              		.thumb
  14              		.syntax unified
  15              		.file	"modem.c"
  16              		.text
  17              	.Ltext0:
  18              		.cfi_sections	.debug_frame
  19              		.syntax unified
  20              		.global _printf_float
  21              		.thumb
  22              		.syntax unified
  23              		.comm	modem_state,1,1
  24              		.comm	modem_start_time_stamp,4,4
  25              		.comm	modem_info,60,4
  26              		.comm	modem_stats,16,4
  27              		.comm	updatable_parameters,3,4
  28              		.comm	dataPointsInStack,2,2
  29              		.comm	dataPointsInStackDesired,2,2
  30              		.comm	data,6600,4
  31              		.comm	http_request,10000,4
  32              		.comm	http_body,10000,4
  33              		.comm	http_route,200,4
  34              		.comm	system_info,28,4
  35              		.comm	system_settings,104,4
  36              		.comm	alarmMeasure,6,4
  37              		.comm	timeToMeasure,1,1
  38              		.comm	alarmSync,6,4
  39              		.comm	timeToSync,1,1
  40              		.comm	timeToSycnRemoteParams,1,1
  41              		.comm	try_counter,1,1
  42              		.comm	uart_received_string,1024,4
  43              		.global	uart_string_index
  44              		.bss
  45              		.align	1
  46              		.type	uart_string_index, %object
  47              		.size	uart_string_index, 2
  48              	uart_string_index:
  49 0000 0000     		.space	2
  50              		.section	.text.isr_telit_rx,"ax",%progbits
  51              		.align	2
  52              		.global	isr_telit_rx
  53              		.thumb
  54              		.thumb_func
  55              		.type	isr_telit_rx, %function
  56              	isr_telit_rx:
  57              	.LFB64:
ARM GAS  C:\Users\hail\AppData\Local\Temp\ccsvwP8y.s 			page 2


  58              		.file 1 "modem.c"
   1:modem.c       **** //Methods for Telit modem 
   2:modem.c       **** #include "modem.h"
   3:modem.c       **** #include "notoriOS.h"
   4:modem.c       **** #include "debug.h"
   5:modem.c       **** #include "data.h"
   6:modem.c       **** #include <math.h>
   7:modem.c       **** #include <stdio.h>
   8:modem.c       **** 
   9:modem.c       **** char uart_received_string[1024];
  10:modem.c       **** int16 uart_string_index=0;
  11:modem.c       **** 
  12:modem.c       **** #define DEFAULT_AT_TIMEOUT 2000u // Send command and wait 2000 ms
  13:modem.c       **** #define NO_AT_TIMEOUT 0u // Send command, no timeout/ don't wait 
  14:modem.c       **** 
  15:modem.c       **** #define TIMEOUT_NETWORK_CONNECT 200 //seconds
  16:modem.c       **** #define TIMEOUT_IP_ACQUIRE 230 //seconds (cummulatinve) add to TIMEOUT_NETWORK_CONNECT
  17:modem.c       **** 
  18:modem.c       **** CY_ISR_PROTO(isr_telit_rx); // Declares a custom ISR function "isr_telit_rx" using the CY_ISR_PROTO
  19:modem.c       **** 
  20:modem.c       **** // Define the custom ISR function "isr_telit_rx" using the CY_ISR macro
  21:modem.c       **** // Get each character from Telit and saves it to uart_received_string
  22:modem.c       **** CY_ISR(isr_telit_rx){      
  59              		.loc 1 22 0
  60              		.cfi_startproc
  61              		@ args = 0, pretend = 0, frame = 0
  62              		@ frame_needed = 1, uses_anonymous_args = 0
  63 0000 98B5     		push	{r3, r4, r7, lr}
  64              		.cfi_def_cfa_offset 16
  65              		.cfi_offset 3, -16
  66              		.cfi_offset 4, -12
  67              		.cfi_offset 7, -8
  68              		.cfi_offset 14, -4
  69 0002 00AF     		add	r7, sp, #0
  70              		.cfi_def_cfa_register 7
  23:modem.c       ****     // UART_Telit_GetRxBufferSize() returns the number of received bytes available in the RX buffer
  24:modem.c       ****     while(UART_Telit_GetRxBufferSize()==1){
  71              		.loc 1 24 0
  72 0004 12E0     		b	.L2
  73              	.L3:
  25:modem.c       ****         uart_received_string[uart_string_index]=UART_Telit_GetChar();
  74              		.loc 1 25 0
  75 0006 0D4B     		ldr	r3, .L4
  76 0008 B3F90030 		ldrsh	r3, [r3]
  77 000c 1C46     		mov	r4, r3
  78 000e FFF7FEFF 		bl	UART_Telit_GetChar
  79 0012 0346     		mov	r3, r0
  80 0014 1A46     		mov	r2, r3
  81 0016 0A4B     		ldr	r3, .L4+4
  82 0018 1A55     		strb	r2, [r3, r4]
  26:modem.c       ****         uart_string_index++;
  83              		.loc 1 26 0
  84 001a 084B     		ldr	r3, .L4
  85 001c B3F90030 		ldrsh	r3, [r3]
  86 0020 9BB2     		uxth	r3, r3
  87 0022 0133     		adds	r3, r3, #1
  88 0024 9BB2     		uxth	r3, r3
ARM GAS  C:\Users\hail\AppData\Local\Temp\ccsvwP8y.s 			page 3


  89 0026 1AB2     		sxth	r2, r3
  90 0028 044B     		ldr	r3, .L4
  91 002a 1A80     		strh	r2, [r3]	@ movhi
  92              	.L2:
  24:modem.c       ****         uart_received_string[uart_string_index]=UART_Telit_GetChar();
  93              		.loc 1 24 0
  94 002c FFF7FEFF 		bl	UART_Telit_GetRxBufferSize
  95 0030 0346     		mov	r3, r0
  96 0032 012B     		cmp	r3, #1
  97 0034 E7D0     		beq	.L3
  27:modem.c       ****     }
  28:modem.c       **** 
  29:modem.c       **** }
  98              		.loc 1 29 0
  99 0036 00BF     		nop
 100 0038 98BD     		pop	{r3, r4, r7, pc}
 101              	.L5:
 102 003a 00BF     		.align	2
 103              	.L4:
 104 003c 00000000 		.word	uart_string_index
 105 0040 00000000 		.word	uart_received_string
 106              		.cfi_endproc
 107              	.LFE64:
 108              		.size	isr_telit_rx, .-isr_telit_rx
 109              		.section	.text.modem_initialize,"ax",%progbits
 110              		.align	2
 111              		.global	modem_initialize
 112              		.thumb
 113              		.thumb_func
 114              		.type	modem_initialize, %function
 115              	modem_initialize:
 116              	.LFB65:
  30:modem.c       **** 
  31:modem.c       **** // Initialize the modem
  32:modem.c       **** void modem_initialize(){
 117              		.loc 1 32 0
 118              		.cfi_startproc
 119              		@ args = 0, pretend = 0, frame = 0
 120              		@ frame_needed = 1, uses_anonymous_args = 0
 121 0000 80B5     		push	{r7, lr}
 122              		.cfi_def_cfa_offset 8
 123              		.cfi_offset 7, -8
 124              		.cfi_offset 14, -4
 125 0002 00AF     		add	r7, sp, #0
 126              		.cfi_def_cfa_register 7
  33:modem.c       ****     // Don't do much except make sure that all the modem pins are pulled low
  34:modem.c       ****     // Also make sure that the TX PIN is fully disabled
  35:modem.c       ****     pins_configure_inactive();
 127              		.loc 1 35 0
 128 0004 FFF7FEFF 		bl	pins_configure_inactive
  36:modem.c       ****     modem_state = 0;
 129              		.loc 1 36 0
 130 0008 154B     		ldr	r3, .L7
 131 000a 0022     		movs	r2, #0
 132 000c 1A70     		strb	r2, [r3]
  37:modem.c       ****     //initialize states
  38:modem.c       ****     modem_info.imei[0] = '\0';
ARM GAS  C:\Users\hail\AppData\Local\Temp\ccsvwP8y.s 			page 4


 133              		.loc 1 38 0
 134 000e 154B     		ldr	r3, .L7+4
 135 0010 0022     		movs	r2, #0
 136 0012 83F82820 		strb	r2, [r3, #40]
  39:modem.c       ****     modem_info.model_id[0] = '\0';
 137              		.loc 1 39 0
 138 0016 134B     		ldr	r3, .L7+4
 139 0018 0022     		movs	r2, #0
 140 001a 1A75     		strb	r2, [r3, #20]
  40:modem.c       ****     modem_info.sim_id[0] = '\0';
 141              		.loc 1 40 0
 142 001c 114B     		ldr	r3, .L7+4
 143 001e 0022     		movs	r2, #0
 144 0020 1A70     		strb	r2, [r3]
  41:modem.c       ****     modem_stats.rssi = 0;
 145              		.loc 1 41 0
 146 0022 114B     		ldr	r3, .L7+8
 147 0024 0022     		movs	r2, #0
 148 0026 1A70     		strb	r2, [r3]
  42:modem.c       ****     modem_stats.ber = 0;
 149              		.loc 1 42 0
 150 0028 0F4B     		ldr	r3, .L7+8
 151 002a 0022     		movs	r2, #0
 152 002c 5A70     		strb	r2, [r3, #1]
  43:modem.c       ****     modem_stats.rscp = 0;
 153              		.loc 1 43 0
 154 002e 0E4B     		ldr	r3, .L7+8
 155 0030 0022     		movs	r2, #0
 156 0032 9A70     		strb	r2, [r3, #2]
  44:modem.c       ****     modem_stats.ecno = 0;
 157              		.loc 1 44 0
 158 0034 0C4B     		ldr	r3, .L7+8
 159 0036 0022     		movs	r2, #0
 160 0038 DA70     		strb	r2, [r3, #3]
  45:modem.c       ****     modem_stats.rsrq = 0;
 161              		.loc 1 45 0
 162 003a 0B4B     		ldr	r3, .L7+8
 163 003c 0022     		movs	r2, #0
 164 003e 1A71     		strb	r2, [r3, #4]
  46:modem.c       ****     modem_stats.rsrp = 0;
 165              		.loc 1 46 0
 166 0040 094B     		ldr	r3, .L7+8
 167 0042 0022     		movs	r2, #0
 168 0044 5A71     		strb	r2, [r3, #5]
  47:modem.c       ****     modem_stats.time_to_acquire_ip = 0;
 169              		.loc 1 47 0
 170 0046 084B     		ldr	r3, .L7+8
 171 0048 0022     		movs	r2, #0
 172 004a DA60     		str	r2, [r3, #12]
  48:modem.c       ****     modem_stats.time_to_network_connect = 0;
 173              		.loc 1 48 0
 174 004c 064B     		ldr	r3, .L7+8
 175 004e 0022     		movs	r2, #0
 176 0050 9A60     		str	r2, [r3, #8]
  49:modem.c       ****     // Disable the RX Pin interrupt, and only enable it during long timeouts
  50:modem.c       ****     // Rx_Telit_SetInterruptMode(): Configures the interrupt mode for each of the Pins component's 
  51:modem.c       ****     // Rx_Telit_0_INTR selects the first pin in the list, and Rx_Telit_INTR_NONE disables the Rx pi
ARM GAS  C:\Users\hail\AppData\Local\Temp\ccsvwP8y.s 			page 5


  52:modem.c       ****     Rx_Telit_SetInterruptMode(Rx_Telit_0_INTR,Rx_Telit_INTR_NONE);
 177              		.loc 1 52 0
 178 0052 0021     		movs	r1, #0
 179 0054 4020     		movs	r0, #64
 180 0056 FFF7FEFF 		bl	Rx_Telit_SetInterruptMode
  53:modem.c       ****     
  54:modem.c       **** }
 181              		.loc 1 54 0
 182 005a 00BF     		nop
 183 005c 80BD     		pop	{r7, pc}
 184              	.L8:
 185 005e 00BF     		.align	2
 186              	.L7:
 187 0060 00000000 		.word	modem_state
 188 0064 00000000 		.word	modem_info
 189 0068 00000000 		.word	modem_stats
 190              		.cfi_endproc
 191              	.LFE65:
 192              		.size	modem_initialize, .-modem_initialize
 193              		.section	.text.pins_configure_inactive,"ax",%progbits
 194              		.align	2
 195              		.global	pins_configure_inactive
 196              		.thumb
 197              		.thumb_func
 198              		.type	pins_configure_inactive, %function
 199              	pins_configure_inactive:
 200              	.LFB66:
  55:modem.c       **** 
  56:modem.c       **** 
  57:modem.c       **** // To be used when the modem power is to be "killed" conpletely to conserve power
  58:modem.c       **** void pins_configure_inactive(){
 201              		.loc 1 58 0
 202              		.cfi_startproc
 203              		@ args = 0, pretend = 0, frame = 0
 204              		@ frame_needed = 1, uses_anonymous_args = 0
 205 0000 80B5     		push	{r7, lr}
 206              		.cfi_def_cfa_offset 8
 207              		.cfi_offset 7, -8
 208              		.cfi_offset 14, -4
 209 0002 00AF     		add	r7, sp, #0
 210              		.cfi_def_cfa_register 7
  59:modem.c       ****    
  60:modem.c       ****    Telit_ControlReg_Write(0u); // Physically disconect UART pin
 211              		.loc 1 60 0
 212 0004 0020     		movs	r0, #0
 213 0006 FFF7FEFF 		bl	Telit_ControlReg_Write
  61:modem.c       ****    Rx_Telit_SetDriveMode(PIN_DM_STRONG); // Set drive mode
 214              		.loc 1 61 0
 215 000a 0C20     		movs	r0, #12
 216 000c FFF7FEFF 		bl	Rx_Telit_SetDriveMode
  62:modem.c       **** 
  63:modem.c       ****    Pin_Telit_pwr_Write(OFF); // Kill power to modem (pulls pin low).
 217              		.loc 1 63 0
 218 0010 0020     		movs	r0, #0
 219 0012 FFF7FEFF 		bl	Pin_Telit_pwr_Write
  64:modem.c       **** 
  65:modem.c       ****    // Pull down all of these, just in case (turns the off).
ARM GAS  C:\Users\hail\AppData\Local\Temp\ccsvwP8y.s 			page 6


  66:modem.c       ****    Rx_Telit_Write(OFF); 
 220              		.loc 1 66 0
 221 0016 0020     		movs	r0, #0
 222 0018 FFF7FEFF 		bl	Rx_Telit_Write
  67:modem.c       ****    Tx_Telit_Write(OFF);
 223              		.loc 1 67 0
 224 001c 0020     		movs	r0, #0
 225 001e FFF7FEFF 		bl	Tx_Telit_Write
  68:modem.c       ****    Pin_Telit_ONOFF_Write(OFF);
 226              		.loc 1 68 0
 227 0022 0020     		movs	r0, #0
 228 0024 FFF7FEFF 		bl	Pin_Telit_ONOFF_Write
  69:modem.c       ****    Pin_Telit_SWRDY_Write(OFF);
 229              		.loc 1 69 0
 230 0028 0020     		movs	r0, #0
 231 002a FFF7FEFF 		bl	Pin_Telit_SWRDY_Write
  70:modem.c       ****     
  71:modem.c       **** }
 232              		.loc 1 71 0
 233 002e 00BF     		nop
 234 0030 80BD     		pop	{r7, pc}
 235              		.cfi_endproc
 236              	.LFE66:
 237              		.size	pins_configure_inactive, .-pins_configure_inactive
 238 0032 00BF     		.section	.text.pins_configure_active,"ax",%progbits
 239              		.align	2
 240              		.global	pins_configure_active
 241              		.thumb
 242              		.thumb_func
 243              		.type	pins_configure_active, %function
 244              	pins_configure_active:
 245              	.LFB67:
  72:modem.c       **** 
  73:modem.c       **** // Turns on power and configures all UART pin modes
  74:modem.c       **** void pins_configure_active(){
 246              		.loc 1 74 0
 247              		.cfi_startproc
 248              		@ args = 0, pretend = 0, frame = 0
 249              		@ frame_needed = 1, uses_anonymous_args = 0
 250 0000 80B5     		push	{r7, lr}
 251              		.cfi_def_cfa_offset 8
 252              		.cfi_offset 7, -8
 253              		.cfi_offset 14, -4
 254 0002 00AF     		add	r7, sp, #0
 255              		.cfi_def_cfa_register 7
  75:modem.c       ****     
  76:modem.c       ****     Rx_Telit_SetDriveMode(PIN_DM_DIG_HIZ); // Power up. Set RX pin to High Impedance Digital mode.
 256              		.loc 1 76 0
 257 0004 0220     		movs	r0, #2
 258 0006 FFF7FEFF 		bl	Rx_Telit_SetDriveMode
  77:modem.c       ****     Telit_ControlReg_Write(1u); // Pull Telit_ControlReg pin high (turns it on).
 259              		.loc 1 77 0
 260 000a 0120     		movs	r0, #1
 261 000c FFF7FEFF 		bl	Telit_ControlReg_Write
  78:modem.c       ****     Pin_Telit_pwr_Write(ON); // Pulls Telit_pwr pin high (turns it on).
 262              		.loc 1 78 0
 263 0010 0120     		movs	r0, #1
ARM GAS  C:\Users\hail\AppData\Local\Temp\ccsvwP8y.s 			page 7


 264 0012 FFF7FEFF 		bl	Pin_Telit_pwr_Write
  79:modem.c       ****     CyDelay(100u); // Give the MOSFET a few ms to stalbilise power 
 265              		.loc 1 79 0
 266 0016 6420     		movs	r0, #100
 267 0018 FFF7FEFF 		bl	CyDelay
  80:modem.c       **** }
 268              		.loc 1 80 0
 269 001c 00BF     		nop
 270 001e 80BD     		pop	{r7, pc}
 271              		.cfi_endproc
 272              	.LFE67:
 273              		.size	pins_configure_active, .-pins_configure_active
 274              		.section	.rodata
 275              		.align	2
 276              	.LC0:
 277 0000 4F4B00   		.ascii	"OK\000"
 278 0003 00       		.align	2
 279              	.LC1:
 280 0004 41542353 		.ascii	"AT#SHDN\015\000"
 280      48444E0D 
 280      00
 281              		.section	.text.modem_power_down,"ax",%progbits
 282              		.align	2
 283              		.global	modem_power_down
 284              		.thumb
 285              		.thumb_func
 286              		.type	modem_power_down, %function
 287              	modem_power_down:
 288              	.LFB68:
  81:modem.c       **** 
  82:modem.c       **** // Power down the modem -- completely "kill" modem to conserve power.
  83:modem.c       **** void modem_power_down(){
 289              		.loc 1 83 0
 290              		.cfi_startproc
 291              		@ args = 0, pretend = 0, frame = 0
 292              		@ frame_needed = 1, uses_anonymous_args = 0
 293 0000 80B5     		push	{r7, lr}
 294              		.cfi_def_cfa_offset 8
 295              		.cfi_offset 7, -8
 296              		.cfi_offset 14, -4
 297 0002 00AF     		add	r7, sp, #0
 298              		.cfi_def_cfa_register 7
  84:modem.c       ****     // AT Command to modem for Software Shut Down - #SHDN
  85:modem.c       ****     // \r is carriage return, it is necessary for the modem to know it got a command
  86:modem.c       ****     at_write_command("AT#SHDN\r","OK",5000u); 
 299              		.loc 1 86 0
 300 0004 41F28832 		movw	r2, #5000
 301 0008 0A49     		ldr	r1, .L12
 302 000a 0B48     		ldr	r0, .L12+4
 303 000c FFF7FEFF 		bl	at_write_command
  87:modem.c       ****    
  88:modem.c       ****     // Soft power cycle makes sure that the modem is all the way on (like holding on button on for 
  89:modem.c       ****     modem_soft_power_cycle();
 304              		.loc 1 89 0
 305 0010 FFF7FEFF 		bl	modem_soft_power_cycle
  90:modem.c       ****     CyDelay(1000u);
 306              		.loc 1 90 0
ARM GAS  C:\Users\hail\AppData\Local\Temp\ccsvwP8y.s 			page 8


 307 0014 4FF47A70 		mov	r0, #1000
 308 0018 FFF7FEFF 		bl	CyDelay
  91:modem.c       ****     
  92:modem.c       ****     UART_Telit_Stop(); // Disables the UART operation.
 309              		.loc 1 92 0
 310 001c FFF7FEFF 		bl	UART_Telit_Stop
  93:modem.c       ****     isr_telit_rx_Stop(); // Disables and removes the interrupt.
 311              		.loc 1 93 0
 312 0020 FFF7FEFF 		bl	isr_telit_rx_Stop
  94:modem.c       ****     pins_configure_inactive(); // We want the modem power to be "killed" completely to conserve pow
 313              		.loc 1 94 0
 314 0024 FFF7FEFF 		bl	pins_configure_inactive
  95:modem.c       ****     modem_state = MODEM_STATE_OFF;
 315              		.loc 1 95 0
 316 0028 044B     		ldr	r3, .L12+8
 317 002a 0022     		movs	r2, #0
 318 002c 1A70     		strb	r2, [r3]
  96:modem.c       ****     
  97:modem.c       **** }
 319              		.loc 1 97 0
 320 002e 00BF     		nop
 321 0030 80BD     		pop	{r7, pc}
 322              	.L13:
 323 0032 00BF     		.align	2
 324              	.L12:
 325 0034 00000000 		.word	.LC0
 326 0038 04000000 		.word	.LC1
 327 003c 00000000 		.word	modem_state
 328              		.cfi_endproc
 329              	.LFE68:
 330              		.size	modem_power_down, .-modem_power_down
 331              		.section	.rodata
 332 000d 000000   		.align	2
 333              	.LC2:
 334 0010 41544530 		.ascii	"ATE0\015\000"
 334      0D00
 335 0016 0000     		.align	2
 336              	.LC3:
 337 0018 4D6F6465 		.ascii	"Modem boot time: %d\000"
 337      6D20626F 
 337      6F742074 
 337      696D653A 
 337      20256400 
 338              		.align	2
 339              	.LC4:
 340 002c 4D6F6465 		.ascii	"Modem ready for AT commands after %d attempt(s).\000"
 340      6D207265 
 340      61647920 
 340      666F7220 
 340      41542063 
 341 005d 000000   		.align	2
 342              	.LC5:
 343 0060 4E6F2072 		.ascii	"No response from modem.\000"
 343      6573706F 
 343      6E736520 
 343      66726F6D 
 343      206D6F64 
ARM GAS  C:\Users\hail\AppData\Local\Temp\ccsvwP8y.s 			page 9


 344              		.section	.text.modem_power_up,"ax",%progbits
 345              		.align	2
 346              		.global	modem_power_up
 347              		.thumb
 348              		.thumb_func
 349              		.type	modem_power_up, %function
 350              	modem_power_up:
 351              	.LFB69:
  98:modem.c       **** 
  99:modem.c       **** // This puts all the modem pints into a state that won't leak power
 100:modem.c       **** // Please call restore_pins() to bring them abck to function when they are needed for UART
 101:modem.c       **** uint8 modem_power_up(){
 352              		.loc 1 101 0
 353              		.cfi_startproc
 354              		@ args = 0, pretend = 0, frame = 8
 355              		@ frame_needed = 1, uses_anonymous_args = 0
 356 0000 80B5     		push	{r7, lr}
 357              		.cfi_def_cfa_offset 8
 358              		.cfi_offset 7, -8
 359              		.cfi_offset 14, -4
 360 0002 82B0     		sub	sp, sp, #8
 361              		.cfi_def_cfa_offset 16
 362 0004 00AF     		add	r7, sp, #0
 363              		.cfi_def_cfa_register 7
 102:modem.c       **** 
 103:modem.c       ****     pins_configure_active(); // Turns on power and configures all UART pin modes
 364              		.loc 1 103 0
 365 0006 FFF7FEFF 		bl	pins_configure_active
 104:modem.c       ****     UART_Telit_Start(); // Sets the initVar variable, calls the UART_Telit_Init() function, and the
 366              		.loc 1 104 0
 367 000a FFF7FEFF 		bl	UART_Telit_Start
 105:modem.c       ****     isr_telit_rx_StartEx(isr_telit_rx); // Sets up the interrupt and enables it. 
 368              		.loc 1 105 0
 369 000e 2C48     		ldr	r0, .L27
 370 0010 FFF7FEFF 		bl	isr_telit_rx_StartEx
 106:modem.c       **** 
 107:modem.c       ****     modem_soft_power_cycle(); // Soft power cycle makes sure that the modem is all the way on (like
 371              		.loc 1 107 0
 372 0014 FFF7FEFF 		bl	modem_soft_power_cycle
 108:modem.c       ****     
 109:modem.c       ****     // Turn off ECHO command (doesn't repeat your command back to you).
 110:modem.c       ****     uint8 at_ready = 0;
 373              		.loc 1 110 0
 374 0018 0023     		movs	r3, #0
 375 001a FB71     		strb	r3, [r7, #7]
 111:modem.c       ****     uint8 attempts = 0;
 376              		.loc 1 111 0
 377 001c 0023     		movs	r3, #0
 378 001e 3B71     		strb	r3, [r7, #4]
 112:modem.c       ****     // Create variable boot_time of the current time stamp.
 113:modem.c       ****     long boot_time = getTimeStamp();
 379              		.loc 1 113 0
 380 0020 FFF7FEFF 		bl	getTimeStamp
 381 0024 3860     		str	r0, [r7]
 382              	.LBB2:
 114:modem.c       ****     
 115:modem.c       ****     //it takes the 4G modem 10+secs (max 20) to boot up, so keep hitting it with AT commands until 
ARM GAS  C:\Users\hail\AppData\Local\Temp\ccsvwP8y.s 			page 10


 116:modem.c       ****     for(uint8 attempts = 0; attempts<3; attempts++){
 383              		.loc 1 116 0
 384 0026 0023     		movs	r3, #0
 385 0028 BB71     		strb	r3, [r7, #6]
 386 002a 1CE0     		b	.L15
 387              	.L22:
 388              	.LBB3:
 117:modem.c       ****         
 118:modem.c       ****         for(uint8 pwr_check = 0; pwr_check<20; pwr_check++){
 389              		.loc 1 118 0
 390 002c 0023     		movs	r3, #0
 391 002e 7B71     		strb	r3, [r7, #5]
 392 0030 0EE0     		b	.L16
 393              	.L19:
 119:modem.c       ****             // AT command ATE0 disables the command echo (doesn't repeat your command back to you).
 120:modem.c       ****             if(at_write_command("ATE0\r","OK",1000u)){
 394              		.loc 1 120 0
 395 0032 4FF47A72 		mov	r2, #1000
 396 0036 2349     		ldr	r1, .L27+4
 397 0038 2348     		ldr	r0, .L27+8
 398 003a FFF7FEFF 		bl	at_write_command
 399 003e 0346     		mov	r3, r0
 400 0040 002B     		cmp	r3, #0
 401 0042 02D0     		beq	.L17
 121:modem.c       ****                 at_ready = 1;
 402              		.loc 1 121 0
 403 0044 0123     		movs	r3, #1
 404 0046 FB71     		strb	r3, [r7, #7]
 122:modem.c       ****                 break;
 405              		.loc 1 122 0
 406 0048 05E0     		b	.L18
 407              	.L17:
 118:modem.c       ****             // AT command ATE0 disables the command echo (doesn't repeat your command back to you).
 408              		.loc 1 118 0 discriminator 2
 409 004a 7B79     		ldrb	r3, [r7, #5]	@ zero_extendqisi2
 410 004c 0133     		adds	r3, r3, #1
 411 004e 7B71     		strb	r3, [r7, #5]
 412              	.L16:
 118:modem.c       ****             // AT command ATE0 disables the command echo (doesn't repeat your command back to you).
 413              		.loc 1 118 0 is_stmt 0 discriminator 1
 414 0050 7B79     		ldrb	r3, [r7, #5]	@ zero_extendqisi2
 415 0052 132B     		cmp	r3, #19
 416 0054 EDD9     		bls	.L19
 417              	.L18:
 418              	.LBE3:
 123:modem.c       ****             }
 124:modem.c       ****         }
 125:modem.c       ****             
 126:modem.c       ****         if(at_ready == 1){
 419              		.loc 1 126 0 is_stmt 1
 420 0056 FB79     		ldrb	r3, [r7, #7]	@ zero_extendqisi2
 421 0058 012B     		cmp	r3, #1
 422 005a 08D0     		beq	.L26
 127:modem.c       ****             break;
 128:modem.c       ****         }else{
 129:modem.c       ****             // Soft power cycle makes sure that the modem is all the way on (like holding on button
 130:modem.c       ****             modem_soft_power_cycle();
ARM GAS  C:\Users\hail\AppData\Local\Temp\ccsvwP8y.s 			page 11


 423              		.loc 1 130 0 discriminator 2
 424 005c FFF7FEFF 		bl	modem_soft_power_cycle
 116:modem.c       ****         
 425              		.loc 1 116 0 discriminator 2
 426 0060 BB79     		ldrb	r3, [r7, #6]	@ zero_extendqisi2
 427 0062 0133     		adds	r3, r3, #1
 428 0064 BB71     		strb	r3, [r7, #6]
 429              	.L15:
 116:modem.c       ****         
 430              		.loc 1 116 0 is_stmt 0 discriminator 1
 431 0066 BB79     		ldrb	r3, [r7, #6]	@ zero_extendqisi2
 432 0068 022B     		cmp	r3, #2
 433 006a DFD9     		bls	.L22
 434 006c 00E0     		b	.L21
 435              	.L26:
 127:modem.c       ****             break;
 436              		.loc 1 127 0 is_stmt 1
 437 006e 00BF     		nop
 438              	.L21:
 439              	.LBE2:
 131:modem.c       ****         }
 132:modem.c       ****     }
 133:modem.c       ****     // Calculate boot up time and save to variable boot_time.
 134:modem.c       ****     boot_time = getTimeStamp() - boot_time;
 440              		.loc 1 134 0
 441 0070 FFF7FEFF 		bl	getTimeStamp
 442 0074 0246     		mov	r2, r0
 443 0076 3B68     		ldr	r3, [r7]
 444 0078 D31A     		subs	r3, r2, r3
 445 007a 3B60     		str	r3, [r7]
 135:modem.c       ****     printNotif(NOTIF_TYPE_EVENT,"Modem boot time: %d",boot_time);
 446              		.loc 1 135 0
 447 007c 3A68     		ldr	r2, [r7]
 448 007e 1349     		ldr	r1, .L27+12
 449 0080 0020     		movs	r0, #0
 450 0082 FFF7FEFF 		bl	printNotif
 136:modem.c       ****    
 137:modem.c       ****     if(at_ready == 1){
 451              		.loc 1 137 0
 452 0086 FB79     		ldrb	r3, [r7, #7]	@ zero_extendqisi2
 453 0088 012B     		cmp	r3, #1
 454 008a 0AD1     		bne	.L23
 138:modem.c       ****         printNotif(NOTIF_TYPE_EVENT,"Modem ready for AT commands after %d attempt(s).",attempts);
 455              		.loc 1 138 0
 456 008c 3B79     		ldrb	r3, [r7, #4]	@ zero_extendqisi2
 457 008e 1A46     		mov	r2, r3
 458 0090 0F49     		ldr	r1, .L27+16
 459 0092 0020     		movs	r0, #0
 460 0094 FFF7FEFF 		bl	printNotif
 139:modem.c       ****         modem_state = MODEM_STATE_STARTUP;
 461              		.loc 1 139 0
 462 0098 0E4B     		ldr	r3, .L27+20
 463 009a 0122     		movs	r2, #1
 464 009c 1A70     		strb	r2, [r3]
 140:modem.c       ****     }else{
 141:modem.c       ****         printNotif(NOTIF_TYPE_ERROR,"No response from modem.");
 142:modem.c       ****         modem_state = MODEM_STATE_OFF;
ARM GAS  C:\Users\hail\AppData\Local\Temp\ccsvwP8y.s 			page 12


 143:modem.c       ****         // Power down the modem -- completely "kill" modem to conserve power.
 144:modem.c       ****         modem_power_down();
 145:modem.c       ****         return 0u;
 146:modem.c       ****     }
 147:modem.c       ****     return 1u;
 465              		.loc 1 147 0
 466 009e 0123     		movs	r3, #1
 467 00a0 09E0     		b	.L25
 468              	.L23:
 141:modem.c       ****         modem_state = MODEM_STATE_OFF;
 469              		.loc 1 141 0
 470 00a2 0D49     		ldr	r1, .L27+24
 471 00a4 0220     		movs	r0, #2
 472 00a6 FFF7FEFF 		bl	printNotif
 142:modem.c       ****         // Power down the modem -- completely "kill" modem to conserve power.
 473              		.loc 1 142 0
 474 00aa 0A4B     		ldr	r3, .L27+20
 475 00ac 0022     		movs	r2, #0
 476 00ae 1A70     		strb	r2, [r3]
 144:modem.c       ****         return 0u;
 477              		.loc 1 144 0
 478 00b0 FFF7FEFF 		bl	modem_power_down
 145:modem.c       ****     }
 479              		.loc 1 145 0
 480 00b4 0023     		movs	r3, #0
 481              	.L25:
 148:modem.c       **** }
 482              		.loc 1 148 0
 483 00b6 1846     		mov	r0, r3
 484 00b8 0837     		adds	r7, r7, #8
 485              		.cfi_def_cfa_offset 8
 486 00ba BD46     		mov	sp, r7
 487              		.cfi_def_cfa_register 13
 488              		@ sp needed
 489 00bc 80BD     		pop	{r7, pc}
 490              	.L28:
 491 00be 00BF     		.align	2
 492              	.L27:
 493 00c0 00000000 		.word	isr_telit_rx
 494 00c4 00000000 		.word	.LC0
 495 00c8 10000000 		.word	.LC2
 496 00cc 18000000 		.word	.LC3
 497 00d0 2C000000 		.word	.LC4
 498 00d4 00000000 		.word	modem_state
 499 00d8 60000000 		.word	.LC5
 500              		.cfi_endproc
 501              	.LFE69:
 502              		.size	modem_power_up, .-modem_power_up
 503              		.section	.text.modem_soft_power_cycle,"ax",%progbits
 504              		.align	2
 505              		.global	modem_soft_power_cycle
 506              		.thumb
 507              		.thumb_func
 508              		.type	modem_soft_power_cycle, %function
 509              	modem_soft_power_cycle:
 510              	.LFB70:
 149:modem.c       **** 
ARM GAS  C:\Users\hail\AppData\Local\Temp\ccsvwP8y.s 			page 13


 150:modem.c       **** // Puts modem in soft power cycle -- modem has power but isn't all the way on, so soft power cycle 
 151:modem.c       **** void modem_soft_power_cycle(){
 511              		.loc 1 151 0
 512              		.cfi_startproc
 513              		@ args = 0, pretend = 0, frame = 0
 514              		@ frame_needed = 1, uses_anonymous_args = 0
 515 0000 80B5     		push	{r7, lr}
 516              		.cfi_def_cfa_offset 8
 517              		.cfi_offset 7, -8
 518              		.cfi_offset 14, -4
 519 0002 00AF     		add	r7, sp, #0
 520              		.cfi_def_cfa_register 7
 152:modem.c       ****     Pin_Telit_ONOFF_Write(1u); // Pulls Telit_ONOFF pin high
 521              		.loc 1 152 0
 522 0004 0120     		movs	r0, #1
 523 0006 FFF7FEFF 		bl	Pin_Telit_ONOFF_Write
 153:modem.c       ****     CyDelay(2000u); // Give modem a sec to boot
 524              		.loc 1 153 0
 525 000a 4FF4FA60 		mov	r0, #2000
 526 000e FFF7FEFF 		bl	CyDelay
 154:modem.c       ****     Pin_Telit_ONOFF_Write(0u); // Pulls Telit_ONOFF pin low
 527              		.loc 1 154 0
 528 0012 0020     		movs	r0, #0
 529 0014 FFF7FEFF 		bl	Pin_Telit_ONOFF_Write
 155:modem.c       ****     
 156:modem.c       **** }
 530              		.loc 1 156 0
 531 0018 00BF     		nop
 532 001a 80BD     		pop	{r7, pc}
 533              		.cfi_endproc
 534              	.LFE70:
 535              		.size	modem_soft_power_cycle, .-modem_soft_power_cycle
 536              		.section	.text.uart_string_reset,"ax",%progbits
 537              		.align	2
 538              		.global	uart_string_reset
 539              		.thumb
 540              		.thumb_func
 541              		.type	uart_string_reset, %function
 542              	uart_string_reset:
 543              	.LFB71:
 157:modem.c       **** 
 158:modem.c       **** // Clear and reset the uart_received_string variable and uart_string_index for the next transmissio
 159:modem.c       **** void uart_string_reset(){
 544              		.loc 1 159 0
 545              		.cfi_startproc
 546              		@ args = 0, pretend = 0, frame = 0
 547              		@ frame_needed = 1, uses_anonymous_args = 0
 548 0000 80B5     		push	{r7, lr}
 549              		.cfi_def_cfa_offset 8
 550              		.cfi_offset 7, -8
 551              		.cfi_offset 14, -4
 552 0002 00AF     		add	r7, sp, #0
 553              		.cfi_def_cfa_register 7
 160:modem.c       ****     uart_string_index=0;
 554              		.loc 1 160 0
 555 0004 064B     		ldr	r3, .L31
 556 0006 0022     		movs	r2, #0
ARM GAS  C:\Users\hail\AppData\Local\Temp\ccsvwP8y.s 			page 14


 557 0008 1A80     		strh	r2, [r3]	@ movhi
 161:modem.c       ****     // memset(void *str, int c, size_t n) copies the character c (an unsigned char) to the first n 
 162:modem.c       ****     memset(uart_received_string,'\0',sizeof(uart_received_string));
 558              		.loc 1 162 0
 559 000a 4FF48062 		mov	r2, #1024
 560 000e 0021     		movs	r1, #0
 561 0010 0448     		ldr	r0, .L31+4
 562 0012 FFF7FEFF 		bl	memset
 163:modem.c       ****     // Clears the receiver memory buffer and hardware RX FIFO of all received data.
 164:modem.c       ****     UART_Telit_ClearRxBuffer();
 563              		.loc 1 164 0
 564 0016 FFF7FEFF 		bl	UART_Telit_ClearRxBuffer
 165:modem.c       **** }
 565              		.loc 1 165 0
 566 001a 00BF     		nop
 567 001c 80BD     		pop	{r7, pc}
 568              	.L32:
 569 001e 00BF     		.align	2
 570              	.L31:
 571 0020 00000000 		.word	uart_string_index
 572 0024 00000000 		.word	uart_received_string
 573              		.cfi_endproc
 574              	.LFE71:
 575              		.size	uart_string_reset, .-uart_string_reset
 576              		.section	.rodata
 577              		.align	2
 578              	.LC6:
 579 0078 4D6F6465 		.ascii	"Modem sent AT command without timeout: %s\015\012\000"
 579      6D207365 
 579      6E742041 
 579      5420636F 
 579      6D6D616E 
 580              		.align	2
 581              	.LC7:
 582 00a4 4D6F6465 		.ascii	"Modem Received expected AT Response on first Try:\012"
 582      6D205265 
 582      63656976 
 582      65642065 
 582      78706563 
 583 00d6 436F6D6D 		.ascii	"Command: %s\012Received: %s\015\012\000"
 583      616E643A 
 583      2025730A 
 583      52656365 
 583      69766564 
 584 00f1 000000   		.align	2
 585              	.LC8:
 586 00f4 4D6F6465 		.ascii	"Modem required %d tries to receive AT Response: %s\015"
 586      6D207265 
 586      71756972 
 586      65642025 
 586      64207472 
 587 0127 0A00     		.ascii	"\012\000"
 588 0129 000000   		.align	2
 589              	.LC9:
 590 012c 436F756C 		.ascii	"Could not write AT command: %s\012 Received: %s\012"
 590      64206E6F 
 590      74207772 
ARM GAS  C:\Users\hail\AppData\Local\Temp\ccsvwP8y.s 			page 15


 590      69746520 
 590      41542063 
 591 0159 00       		.ascii	"\000"
 592              		.section	.text.at_write_command,"ax",%progbits
 593              		.align	2
 594              		.global	at_write_command
 595              		.thumb
 596              		.thumb_func
 597              		.type	at_write_command, %function
 598              	at_write_command:
 599              	.LFB72:
 166:modem.c       **** 
 167:modem.c       **** // Modem controlled  via  the  serial  interface  using  the  standard  AT commands.
 168:modem.c       **** // AT is an ATTENTION command and is used as a prefix to other parameters in a string. 
 169:modem.c       **** // Sends commands to the modem
 170:modem.c       **** uint8_t at_write_command(char* commands, char* expected_response,uint32_t timeout){
 600              		.loc 1 170 0
 601              		.cfi_startproc
 602              		@ args = 0, pretend = 0, frame = 40
 603              		@ frame_needed = 1, uses_anonymous_args = 0
 604 0000 80B5     		push	{r7, lr}
 605              		.cfi_def_cfa_offset 8
 606              		.cfi_offset 7, -8
 607              		.cfi_offset 14, -4
 608 0002 8AB0     		sub	sp, sp, #40
 609              		.cfi_def_cfa_offset 48
 610 0004 00AF     		add	r7, sp, #0
 611              		.cfi_def_cfa_register 7
 612 0006 F860     		str	r0, [r7, #12]
 613 0008 B960     		str	r1, [r7, #8]
 614 000a 7A60     		str	r2, [r7, #4]
 171:modem.c       **** 
 172:modem.c       ****     uint32 at_attempt = 0;
 615              		.loc 1 172 0
 616 000c 0023     		movs	r3, #0
 617 000e 7B62     		str	r3, [r7, #36]
 173:modem.c       ****     
 174:modem.c       ****     for(at_attempt = 0; at_attempt < 3; at_attempt++) {
 618              		.loc 1 174 0
 619 0010 0023     		movs	r3, #0
 620 0012 7B62     		str	r3, [r7, #36]
 621 0014 46E0     		b	.L34
 622              	.L42:
 623              	.LBB4:
 175:modem.c       ****         
 176:modem.c       ****         char* compare_location;
 177:modem.c       ****         uint32_t delay=10;
 624              		.loc 1 177 0
 625 0016 0A23     		movs	r3, #10
 626 0018 FB61     		str	r3, [r7, #28]
 178:modem.c       ****         uint32_t i, interval=timeout/delay;        
 627              		.loc 1 178 0
 628 001a 7A68     		ldr	r2, [r7, #4]
 629 001c FB69     		ldr	r3, [r7, #28]
 630 001e B2FBF3F3 		udiv	r3, r2, r3
 631 0022 BB61     		str	r3, [r7, #24]
 179:modem.c       ****         
ARM GAS  C:\Users\hail\AppData\Local\Temp\ccsvwP8y.s 			page 16


 180:modem.c       ****         // Clear and reset the uart_received_string variable and uart_string_index for the next tra
 181:modem.c       ****         uart_string_reset();
 632              		.loc 1 181 0
 633 0024 FFF7FEFF 		bl	uart_string_reset
 182:modem.c       ****         
 183:modem.c       ****         // Sends a NULL terminated string to the TX buffer for transmission.
 184:modem.c       ****         UART_Telit_PutString(commands);
 634              		.loc 1 184 0
 635 0028 F868     		ldr	r0, [r7, #12]
 636 002a FFF7FEFF 		bl	UART_Telit_PutString
 185:modem.c       ****         
 186:modem.c       ****         
 187:modem.c       ****         // If no timeout, no need to wait for response
 188:modem.c       ****         if(timeout == NO_AT_TIMEOUT){
 637              		.loc 1 188 0
 638 002e 7B68     		ldr	r3, [r7, #4]
 639 0030 002B     		cmp	r3, #0
 640 0032 06D1     		bne	.L35
 189:modem.c       ****             printNotif(NOTIF_TYPE_EVENT,"Modem sent AT command without timeout: %s\r\n", commands);
 641              		.loc 1 189 0
 642 0034 FA68     		ldr	r2, [r7, #12]
 643 0036 1F49     		ldr	r1, .L43
 644 0038 0020     		movs	r0, #0
 645 003a FFF7FEFF 		bl	printNotif
 190:modem.c       ****             return 1u;
 646              		.loc 1 190 0
 647 003e 0123     		movs	r3, #1
 648 0040 34E0     		b	.L36
 649              	.L35:
 191:modem.c       ****         }
 192:modem.c       ****       
 193:modem.c       ****      
 194:modem.c       ****         for(i=0;i<interval;i++){ 
 650              		.loc 1 194 0
 651 0042 0023     		movs	r3, #0
 652 0044 3B62     		str	r3, [r7, #32]
 653 0046 20E0     		b	.L37
 654              	.L41:
 195:modem.c       ****             CyDelay((uint32) delay);
 655              		.loc 1 195 0
 656 0048 F869     		ldr	r0, [r7, #28]
 657 004a FFF7FEFF 		bl	CyDelay
 196:modem.c       ****             // strstr(const char *haystack, const char *needle) function finds the first occurrence
 197:modem.c       ****             // Returns a pointer to the first occurrence in haystack of any of the entire sequence 
 198:modem.c       ****             compare_location=strstr(uart_received_string,expected_response);        
 658              		.loc 1 198 0
 659 004e B968     		ldr	r1, [r7, #8]
 660 0050 1948     		ldr	r0, .L43+4
 661 0052 FFF7FEFF 		bl	strstr
 662 0056 7861     		str	r0, [r7, #20]
 199:modem.c       ****             if(compare_location!=NULL) {
 663              		.loc 1 199 0
 664 0058 7B69     		ldr	r3, [r7, #20]
 665 005a 002B     		cmp	r3, #0
 666 005c 12D0     		beq	.L38
 200:modem.c       ****                 if (at_attempt == 0){
 667              		.loc 1 200 0
ARM GAS  C:\Users\hail\AppData\Local\Temp\ccsvwP8y.s 			page 17


 668 005e 7B6A     		ldr	r3, [r7, #36]
 669 0060 002B     		cmp	r3, #0
 670 0062 06D1     		bne	.L39
 201:modem.c       ****                     // we add \n for new line to make it easier to decipher
 202:modem.c       ****                     printNotif(NOTIF_TYPE_EVENT,"Modem Received expected AT Response on first Try:\
 671              		.loc 1 202 0
 672 0064 144B     		ldr	r3, .L43+4
 673 0066 FA68     		ldr	r2, [r7, #12]
 674 0068 1449     		ldr	r1, .L43+8
 675 006a 0020     		movs	r0, #0
 676 006c FFF7FEFF 		bl	printNotif
 677 0070 06E0     		b	.L40
 678              	.L39:
 203:modem.c       ****                 }else{
 204:modem.c       ****                     printNotif(NOTIF_TYPE_WARNING,"Modem required %d tries to receive AT Response: 
 679              		.loc 1 204 0
 680 0072 7B6A     		ldr	r3, [r7, #36]
 681 0074 5A1C     		adds	r2, r3, #1
 682 0076 104B     		ldr	r3, .L43+4
 683 0078 1149     		ldr	r1, .L43+12
 684 007a 0120     		movs	r0, #1
 685 007c FFF7FEFF 		bl	printNotif
 686              	.L40:
 205:modem.c       ****                  
 206:modem.c       ****                 }
 207:modem.c       ****                 return(1);
 687              		.loc 1 207 0
 688 0080 0123     		movs	r3, #1
 689 0082 13E0     		b	.L36
 690              	.L38:
 194:modem.c       ****             CyDelay((uint32) delay);
 691              		.loc 1 194 0 discriminator 2
 692 0084 3B6A     		ldr	r3, [r7, #32]
 693 0086 0133     		adds	r3, r3, #1
 694 0088 3B62     		str	r3, [r7, #32]
 695              	.L37:
 194:modem.c       ****             CyDelay((uint32) delay);
 696              		.loc 1 194 0 is_stmt 0 discriminator 1
 697 008a 3A6A     		ldr	r2, [r7, #32]
 698 008c BB69     		ldr	r3, [r7, #24]
 699 008e 9A42     		cmp	r2, r3
 700 0090 DAD3     		bcc	.L41
 208:modem.c       ****             }
 209:modem.c       ****             
 210:modem.c       ****         }  
 211:modem.c       ****         
 212:modem.c       ****         // Something went wrong, restart UART
 213:modem.c       ****         printNotif(NOTIF_TYPE_ERROR,"Could not write AT command: %s\n Received: %s\n", commands,uar
 701              		.loc 1 213 0 is_stmt 1 discriminator 2
 702 0092 094B     		ldr	r3, .L43+4
 703 0094 FA68     		ldr	r2, [r7, #12]
 704 0096 0B49     		ldr	r1, .L43+16
 705 0098 0220     		movs	r0, #2
 706 009a FFF7FEFF 		bl	printNotif
 707              	.LBE4:
 174:modem.c       ****         
 708              		.loc 1 174 0 discriminator 2
ARM GAS  C:\Users\hail\AppData\Local\Temp\ccsvwP8y.s 			page 18


 709 009e 7B6A     		ldr	r3, [r7, #36]
 710 00a0 0133     		adds	r3, r3, #1
 711 00a2 7B62     		str	r3, [r7, #36]
 712              	.L34:
 174:modem.c       ****         
 713              		.loc 1 174 0 is_stmt 0 discriminator 1
 714 00a4 7B6A     		ldr	r3, [r7, #36]
 715 00a6 022B     		cmp	r3, #2
 716 00a8 B5D9     		bls	.L42
 214:modem.c       ****       
 215:modem.c       ****     }
 216:modem.c       ****    // printNotif(NOTIF_TYPE_ERROR,"Modem AT response timeout: %s\r\n", commands);
 217:modem.c       ****           
 218:modem.c       ****     return(0);    
 717              		.loc 1 218 0 is_stmt 1
 718 00aa 0023     		movs	r3, #0
 719              	.L36:
 219:modem.c       **** }
 720              		.loc 1 219 0
 721 00ac 1846     		mov	r0, r3
 722 00ae 2837     		adds	r7, r7, #40
 723              		.cfi_def_cfa_offset 8
 724 00b0 BD46     		mov	sp, r7
 725              		.cfi_def_cfa_register 13
 726              		@ sp needed
 727 00b2 80BD     		pop	{r7, pc}
 728              	.L44:
 729              		.align	2
 730              	.L43:
 731 00b4 78000000 		.word	.LC6
 732 00b8 00000000 		.word	uart_received_string
 733 00bc A4000000 		.word	.LC7
 734 00c0 F4000000 		.word	.LC8
 735 00c4 2C010000 		.word	.LC9
 736              		.cfi_endproc
 737              	.LFE72:
 738              		.size	at_write_command, .-at_write_command
 739              		.section	.rodata
 740 015a 0000     		.align	2
 741              	.LC10:
 742 015c 54455354 		.ascii	"TEST_MODEM\000"
 742      5F4D4F44 
 742      454D00
 743 0167 00       		.align	2
 744              	.LC11:
 745 0168 4E6F2072 		.ascii	"No reponse from modem.\000"
 745      65706F6E 
 745      73652066 
 745      726F6D20 
 745      6D6F6465 
 746 017f 00       		.align	2
 747              	.LC12:
 748 0180 4D6F6465 		.ascii	"Modem connected to network.\000"
 748      6D20636F 
 748      6E6E6563 
 748      74656420 
 748      746F206E 
ARM GAS  C:\Users\hail\AppData\Local\Temp\ccsvwP8y.s 			page 19


 749              		.section	.text.modem_test,"ax",%progbits
 750              		.align	2
 751              		.global	modem_test
 752              		.thumb
 753              		.thumb_func
 754              		.type	modem_test, %function
 755              	modem_test:
 756              	.LFB73:
 220:modem.c       **** 
 221:modem.c       **** // Test modem -- needs fleshed out
 222:modem.c       **** test_t modem_test(){
 757              		.loc 1 222 0
 758              		.cfi_startproc
 759              		@ args = 0, pretend = 0, frame = 408
 760              		@ frame_needed = 1, uses_anonymous_args = 0
 761 0000 B0B5     		push	{r4, r5, r7, lr}
 762              		.cfi_def_cfa_offset 16
 763              		.cfi_offset 4, -16
 764              		.cfi_offset 5, -12
 765              		.cfi_offset 7, -8
 766              		.cfi_offset 14, -4
 767 0002 E6B0     		sub	sp, sp, #408
 768              		.cfi_def_cfa_offset 424
 769 0004 00AF     		add	r7, sp, #0
 770              		.cfi_def_cfa_register 7
 771 0006 3B1D     		adds	r3, r7, #4
 772 0008 1860     		str	r0, [r3]
 223:modem.c       ****     
 224:modem.c       ****     test_t test; // test_t is a new data type we defined in test.h. We then use that data type to d
 225:modem.c       ****     test.status = 0;
 773              		.loc 1 225 0
 774 000a 07F10C03 		add	r3, r7, #12
 775 000e 0022     		movs	r2, #0
 776 0010 83F88020 		strb	r2, [r3, #128]
 226:modem.c       ****     // Print test name and test reason
 227:modem.c       ****     snprintf(test.test_name,sizeof(test.test_name),"TEST_MODEM");
 777              		.loc 1 227 0
 778 0014 07F10C03 		add	r3, r7, #12
 779 0018 354A     		ldr	r2, .L53
 780 001a 07CA     		ldmia	r2, {r0, r1, r2}
 781 001c 03C3     		stmia	r3!, {r0, r1}
 782 001e 1A80     		strh	r2, [r3]	@ movhi
 783 0020 0233     		adds	r3, r3, #2
 784 0022 120C     		lsrs	r2, r2, #16
 785 0024 1A70     		strb	r2, [r3]
 228:modem.c       ****     snprintf(test.reason,sizeof(test.reason),"No reponse from modem.");
 786              		.loc 1 228 0
 787 0026 07F10C03 		add	r3, r7, #12
 788 002a 8133     		adds	r3, r3, #129
 789 002c 314A     		ldr	r2, .L53+4
 790 002e 1C46     		mov	r4, r3
 791 0030 1546     		mov	r5, r2
 792 0032 0FCD     		ldmia	r5!, {r0, r1, r2, r3}
 793 0034 2060     		str	r0, [r4]	@ unaligned
 794 0036 6160     		str	r1, [r4, #4]	@ unaligned
 795 0038 A260     		str	r2, [r4, #8]	@ unaligned
 796 003a E360     		str	r3, [r4, #12]	@ unaligned
ARM GAS  C:\Users\hail\AppData\Local\Temp\ccsvwP8y.s 			page 20


 797 003c 2868     		ldr	r0, [r5]	@ unaligned
 798 003e 2061     		str	r0, [r4, #16]	@ unaligned
 799 0040 AB88     		ldrh	r3, [r5, #4]	@ unaligned
 800 0042 AA79     		ldrb	r2, [r5, #6]
 801 0044 A382     		strh	r3, [r4, #20]	@ unaligned
 802 0046 1346     		mov	r3, r2
 803 0048 A375     		strb	r3, [r4, #22]
 804              	.LBB5:
 229:modem.c       ****    
 230:modem.c       ****     //try the modem 60*100 (60 secs)
 231:modem.c       ****     for(int i = 0; i< 60; i++){
 805              		.loc 1 231 0
 806 004a 0023     		movs	r3, #0
 807 004c C7F89431 		str	r3, [r7, #404]
 808 0050 39E0     		b	.L46
 809              	.L51:
 232:modem.c       ****         // Function to startup the modem, connect to the network, and then hand it off to sleep.
 233:modem.c       ****         modem_process_tasks();
 810              		.loc 1 233 0
 811 0052 FFF7FEFF 		bl	modem_process_tasks
 234:modem.c       ****          
 235:modem.c       ****         if(modem_get_state() == MODEM_STATE_OFF){
 812              		.loc 1 235 0
 813 0056 FFF7FEFF 		bl	modem_get_state
 814 005a 0346     		mov	r3, r0
 815 005c 002B     		cmp	r3, #0
 816 005e 02D1     		bne	.L47
 236:modem.c       ****             // This puts all the modem points into a state that won't leak power
 237:modem.c       ****             modem_power_up();
 817              		.loc 1 237 0
 818 0060 FFF7FEFF 		bl	modem_power_up
 819 0064 27E0     		b	.L48
 820              	.L47:
 238:modem.c       ****             // Should put this on a max_try counter, so we don't just keep trying to connect over a
 239:modem.c       ****             
 240:modem.c       ****         }else if(modem_get_state() == MODEM_STATE_READY){
 821              		.loc 1 240 0
 822 0066 FFF7FEFF 		bl	modem_get_state
 823 006a 0346     		mov	r3, r0
 824 006c 042B     		cmp	r3, #4
 825 006e 22D1     		bne	.L48
 826              	.LBB6:
 241:modem.c       ****         
 242:modem.c       ****         
 243:modem.c       ****         // Get time, and if it looks good, set the RTC with it
 244:modem.c       ****         long network_time = modem_get_network_time();
 827              		.loc 1 244 0
 828 0070 FFF7FEFF 		bl	modem_get_network_time
 829 0074 C7F89001 		str	r0, [r7, #400]
 245:modem.c       ****         if(network_time != 0){
 830              		.loc 1 245 0
 831 0078 D7F89031 		ldr	r3, [r7, #400]
 832 007c 002B     		cmp	r3, #0
 833 007e 03D0     		beq	.L49
 246:modem.c       ****             setTime(network_time); // Set the system time 
 834              		.loc 1 246 0
 835 0080 D7F89001 		ldr	r0, [r7, #400]
ARM GAS  C:\Users\hail\AppData\Local\Temp\ccsvwP8y.s 			page 21


 836 0084 FFF7FEFF 		bl	setTime
 837              	.L49:
 247:modem.c       ****         }
 248:modem.c       ****             
 249:modem.c       ****         snprintf(test.reason,sizeof(test.reason),"Modem connected to network.");
 838              		.loc 1 249 0
 839 0088 07F10C03 		add	r3, r7, #12
 840 008c 8133     		adds	r3, r3, #129
 841 008e 1A4A     		ldr	r2, .L53+8
 842 0090 1D46     		mov	r5, r3
 843 0092 1446     		mov	r4, r2
 844 0094 0FCC     		ldmia	r4!, {r0, r1, r2, r3}
 845 0096 2860     		str	r0, [r5]	@ unaligned
 846 0098 6960     		str	r1, [r5, #4]	@ unaligned
 847 009a AA60     		str	r2, [r5, #8]	@ unaligned
 848 009c EB60     		str	r3, [r5, #12]	@ unaligned
 849 009e 07CC     		ldmia	r4!, {r0, r1, r2}
 850 00a0 2861     		str	r0, [r5, #16]	@ unaligned
 851 00a2 6961     		str	r1, [r5, #20]	@ unaligned
 852 00a4 AA61     		str	r2, [r5, #24]	@ unaligned
 250:modem.c       ****         test.status = 1;
 853              		.loc 1 250 0
 854 00a6 07F10C03 		add	r3, r7, #12
 855 00aa 0122     		movs	r2, #1
 856 00ac 83F88020 		strb	r2, [r3, #128]
 251:modem.c       ****         // Power down the modem -- completely "kill" modem to conserve power.
 252:modem.c       ****         modem_power_down();
 857              		.loc 1 252 0
 858 00b0 FFF7FEFF 		bl	modem_power_down
 253:modem.c       ****         break;
 859              		.loc 1 253 0
 860 00b4 0BE0     		b	.L50
 861              	.L48:
 862              	.LBE6:
 254:modem.c       ****         
 255:modem.c       ****       }
 256:modem.c       ****         CyDelay(100u);
 863              		.loc 1 256 0 discriminator 2
 864 00b6 6420     		movs	r0, #100
 865 00b8 FFF7FEFF 		bl	CyDelay
 231:modem.c       ****         // Function to startup the modem, connect to the network, and then hand it off to sleep.
 866              		.loc 1 231 0 discriminator 2
 867 00bc D7F89431 		ldr	r3, [r7, #404]
 868 00c0 0133     		adds	r3, r3, #1
 869 00c2 C7F89431 		str	r3, [r7, #404]
 870              	.L46:
 231:modem.c       ****         // Function to startup the modem, connect to the network, and then hand it off to sleep.
 871              		.loc 1 231 0 is_stmt 0 discriminator 1
 872 00c6 D7F89431 		ldr	r3, [r7, #404]
 873 00ca 3B2B     		cmp	r3, #59
 874 00cc C1DD     		ble	.L51
 875              	.L50:
 876              	.LBE5:
 257:modem.c       ****         
 258:modem.c       ****     }
 259:modem.c       ****     
 260:modem.c       ****     return test;
ARM GAS  C:\Users\hail\AppData\Local\Temp\ccsvwP8y.s 			page 22


 877              		.loc 1 260 0 is_stmt 1
 878 00ce 3B1D     		adds	r3, r7, #4
 879 00d0 1A68     		ldr	r2, [r3]
 880 00d2 07F10C03 		add	r3, r7, #12
 881 00d6 1046     		mov	r0, r2
 882 00d8 1946     		mov	r1, r3
 883 00da 40F28113 		movw	r3, #385
 884 00de 1A46     		mov	r2, r3
 885 00e0 FFF7FEFF 		bl	memcpy
 261:modem.c       **** }
 886              		.loc 1 261 0
 887 00e4 3B1D     		adds	r3, r7, #4
 888 00e6 1868     		ldr	r0, [r3]
 889 00e8 07F5CC77 		add	r7, r7, #408
 890              		.cfi_def_cfa_offset 16
 891 00ec BD46     		mov	sp, r7
 892              		.cfi_def_cfa_register 13
 893              		@ sp needed
 894 00ee B0BD     		pop	{r4, r5, r7, pc}
 895              	.L54:
 896              		.align	2
 897              	.L53:
 898 00f0 5C010000 		.word	.LC10
 899 00f4 68010000 		.word	.LC11
 900 00f8 80010000 		.word	.LC12
 901              		.cfi_endproc
 902              	.LFE73:
 903              		.size	modem_test, .-modem_test
 904              		.section	.text.extract_string,"ax",%progbits
 905              		.align	2
 906              		.global	extract_string
 907              		.thumb
 908              		.thumb_func
 909              		.type	extract_string, %function
 910              	extract_string:
 911              	.LFB74:
 262:modem.c       **** 
 263:modem.c       **** // Extract string from the UART
 264:modem.c       **** uint8 extract_string(char* from, const char* beginMarker, const char* endMarker,  char* target){
 912              		.loc 1 264 0
 913              		.cfi_startproc
 914              		@ args = 0, pretend = 0, frame = 24
 915              		@ frame_needed = 1, uses_anonymous_args = 0
 916 0000 80B5     		push	{r7, lr}
 917              		.cfi_def_cfa_offset 8
 918              		.cfi_offset 7, -8
 919              		.cfi_offset 14, -4
 920 0002 86B0     		sub	sp, sp, #24
 921              		.cfi_def_cfa_offset 32
 922 0004 00AF     		add	r7, sp, #0
 923              		.cfi_def_cfa_register 7
 924 0006 F860     		str	r0, [r7, #12]
 925 0008 B960     		str	r1, [r7, #8]
 926 000a 7A60     		str	r2, [r7, #4]
 927 000c 3B60     		str	r3, [r7]
 265:modem.c       ****     
 266:modem.c       ****         char *a, *b;
ARM GAS  C:\Users\hail\AppData\Local\Temp\ccsvwP8y.s 			page 23


 267:modem.c       ****   
 268:modem.c       ****         // Expect the UART to contain something like "+CESQ: ##,##,##,##,##,##\r\n\r\nOK"
 269:modem.c       ****         // - Search for "+CESQ: ".  Place the starting pointer, a, at the resulting index
 270:modem.c       ****         a = strstr(from,beginMarker);
 928              		.loc 1 270 0
 929 000e B968     		ldr	r1, [r7, #8]
 930 0010 F868     		ldr	r0, [r7, #12]
 931 0012 FFF7FEFF 		bl	strstr
 932 0016 7861     		str	r0, [r7, #20]
 271:modem.c       ****         if (a == NULL) {
 933              		.loc 1 271 0
 934 0018 7B69     		ldr	r3, [r7, #20]
 935 001a 002B     		cmp	r3, #0
 936 001c 01D1     		bne	.L56
 272:modem.c       ****             //puts("+CESQ: not found in uart_received_string");
 273:modem.c       ****             a = from;
 937              		.loc 1 273 0
 938 001e FB68     		ldr	r3, [r7, #12]
 939 0020 7B61     		str	r3, [r7, #20]
 940              	.L56:
 274:modem.c       ****         }
 275:modem.c       ****         // The strlen() function calculates the length of a given string.
 276:modem.c       ****         a += strlen(beginMarker);
 941              		.loc 1 276 0
 942 0022 B868     		ldr	r0, [r7, #8]
 943 0024 FFF7FEFF 		bl	strlen
 944 0028 0246     		mov	r2, r0
 945 002a 7B69     		ldr	r3, [r7, #20]
 946 002c 1344     		add	r3, r3, r2
 947 002e 7B61     		str	r3, [r7, #20]
 277:modem.c       ****         
 278:modem.c       ****         // - Find the end marking and offset by 1
 279:modem.c       ****         // strstr(const char *haystack, const char *needle) function finds the first occurrence of 
 280:modem.c       ****         // Returns a pointer to the first occurrence in haystack of any of the entire sequence of c
 281:modem.c       ****         b = strstr(a,endMarker);
 948              		.loc 1 281 0
 949 0030 7968     		ldr	r1, [r7, #4]
 950 0032 7869     		ldr	r0, [r7, #20]
 951 0034 FFF7FEFF 		bl	strstr
 952 0038 3861     		str	r0, [r7, #16]
 282:modem.c       ****         if (b == NULL) {
 953              		.loc 1 282 0
 954 003a 3B69     		ldr	r3, [r7, #16]
 955 003c 002B     		cmp	r3, #0
 956 003e 06D1     		bne	.L57
 283:modem.c       ****             // Puts("Comma not found in uart_received_string");
 284:modem.c       ****             b=from+strlen(from);
 957              		.loc 1 284 0
 958 0040 F868     		ldr	r0, [r7, #12]
 959 0042 FFF7FEFF 		bl	strlen
 960 0046 0246     		mov	r2, r0
 961 0048 FB68     		ldr	r3, [r7, #12]
 962 004a 1344     		add	r3, r3, r2
 963 004c 3B61     		str	r3, [r7, #16]
 964              	.L57:
 285:modem.c       ****         }        
 286:modem.c       ****         
ARM GAS  C:\Users\hail\AppData\Local\Temp\ccsvwP8y.s 			page 24


 287:modem.c       ****         // Parse the strings and store the respective rssi and fer values
 288:modem.c       ****         strncpy(target,a,b-a);
 965              		.loc 1 288 0
 966 004e 3A69     		ldr	r2, [r7, #16]
 967 0050 7B69     		ldr	r3, [r7, #20]
 968 0052 D31A     		subs	r3, r2, r3
 969 0054 1A46     		mov	r2, r3
 970 0056 7969     		ldr	r1, [r7, #20]
 971 0058 3868     		ldr	r0, [r7]
 972 005a FFF7FEFF 		bl	strncpy
 289:modem.c       ****         target[b-a] = '\0';
 973              		.loc 1 289 0
 974 005e 3A69     		ldr	r2, [r7, #16]
 975 0060 7B69     		ldr	r3, [r7, #20]
 976 0062 D31A     		subs	r3, r2, r3
 977 0064 1A46     		mov	r2, r3
 978 0066 3B68     		ldr	r3, [r7]
 979 0068 1344     		add	r3, r3, r2
 980 006a 0022     		movs	r2, #0
 981 006c 1A70     		strb	r2, [r3]
 290:modem.c       ****         return 1u;
 982              		.loc 1 290 0
 983 006e 0123     		movs	r3, #1
 291:modem.c       ****         
 292:modem.c       **** }
 984              		.loc 1 292 0
 985 0070 1846     		mov	r0, r3
 986 0072 1837     		adds	r7, r7, #24
 987              		.cfi_def_cfa_offset 8
 988 0074 BD46     		mov	sp, r7
 989              		.cfi_def_cfa_register 13
 990              		@ sp needed
 991 0076 80BD     		pop	{r7, pc}
 992              		.cfi_endproc
 993              	.LFE74:
 994              		.size	extract_string, .-extract_string
 995              		.section	.rodata
 996              		.align	2
 997              	.LC13:
 998 019c 54696D65 		.ascii	"Time to connect to network: %d seconds\000"
 998      20746F20 
 998      636F6E6E 
 998      65637420 
 998      746F206E 
 999 01c3 00       		.align	2
 1000              	.LC14:
 1001 01c4 4D6F6465 		.ascii	"Modem timed out on network connect\000"
 1001      6D207469 
 1001      6D656420 
 1001      6F757420 
 1001      6F6E206E 
 1002 01e7 00       		.align	2
 1003              	.LC15:
 1004 01e8 41637175 		.ascii	"Acquired IP address: %d seconds\000"
 1004      69726564 
 1004      20495020 
 1004      61646472 
ARM GAS  C:\Users\hail\AppData\Local\Temp\ccsvwP8y.s 			page 25


 1004      6573733A 
 1005              		.align	2
 1006              	.LC16:
 1007 0208 4D6F6465 		.ascii	"Modem timed out on IP address acquire.\000"
 1007      6D207469 
 1007      6D656420 
 1007      6F757420 
 1007      6F6E2049 
 1008              		.section	.text.modem_process_tasks,"ax",%progbits
 1009              		.align	2
 1010              		.global	modem_process_tasks
 1011              		.thumb
 1012              		.thumb_func
 1013              		.type	modem_process_tasks, %function
 1014              	modem_process_tasks:
 1015              	.LFB75:
 293:modem.c       **** 
 294:modem.c       **** // Function to startup the modem, connect to the network, and then hand it off to sleep
 295:modem.c       **** uint8 modem_process_tasks(){
 1016              		.loc 1 295 0
 1017              		.cfi_startproc
 1018              		@ args = 0, pretend = 0, frame = 8
 1019              		@ frame_needed = 1, uses_anonymous_args = 0
 1020 0000 80B5     		push	{r7, lr}
 1021              		.cfi_def_cfa_offset 8
 1022              		.cfi_offset 7, -8
 1023              		.cfi_offset 14, -4
 1024 0002 82B0     		sub	sp, sp, #8
 1025              		.cfi_def_cfa_offset 16
 1026 0004 00AF     		add	r7, sp, #0
 1027              		.cfi_def_cfa_register 7
 296:modem.c       ****     // If modem state is "startup" then get the modem start time, configure modem settings, and cha
 297:modem.c       ****     if(modem_state == MODEM_STATE_STARTUP){
 1028              		.loc 1 297 0
 1029 0006 474B     		ldr	r3, .L73
 1030 0008 1B78     		ldrb	r3, [r3]	@ zero_extendqisi2
 1031 000a 012B     		cmp	r3, #1
 1032 000c 0BD1     		bne	.L60
 298:modem.c       ****         
 299:modem.c       ****         modem_start_time_stamp = getTimeStamp(); // Get timestamp for modem start time
 1033              		.loc 1 299 0
 1034 000e FFF7FEFF 		bl	getTimeStamp
 1035 0012 0246     		mov	r2, r0
 1036 0014 444B     		ldr	r3, .L73+4
 1037 0016 1A60     		str	r2, [r3]
 300:modem.c       ****         modem_configure_settings(); // Configure modem settings
 1038              		.loc 1 300 0
 1039 0018 FFF7FEFF 		bl	modem_configure_settings
 301:modem.c       ****         modem_state = MODEM_STATE_WAITING_FOR_NETWORK; // Change modem state 
 1040              		.loc 1 301 0
 1041 001c 414B     		ldr	r3, .L73
 1042 001e 0222     		movs	r2, #2
 1043 0020 1A70     		strb	r2, [r3]
 302:modem.c       ****         return 1u; // Keep going, don't hand off to sleep yet
 1044              		.loc 1 302 0
 1045 0022 0123     		movs	r3, #1
 1046 0024 79E0     		b	.L61
ARM GAS  C:\Users\hail\AppData\Local\Temp\ccsvwP8y.s 			page 26


 1047              	.L60:
 303:modem.c       ****         
 304:modem.c       ****     }
 305:modem.c       ****     // Else if modem state is "waiting for network" 
 306:modem.c       ****     else if(modem_state == MODEM_STATE_WAITING_FOR_NETWORK){
 1048              		.loc 1 306 0
 1049 0026 3F4B     		ldr	r3, .L73
 1050 0028 1B78     		ldrb	r3, [r3]	@ zero_extendqisi2
 1051 002a 022B     		cmp	r3, #2
 1052 002c 46D1     		bne	.L62
 1053              	.LBB7:
 307:modem.c       ****         // Check if modem has a good cell signal each second for up to a minute
 308:modem.c       ****        for(uint8 i=0;i<60;i++){
 1054              		.loc 1 308 0
 1055 002e 0023     		movs	r3, #0
 1056 0030 FB71     		strb	r3, [r7, #7]
 1057 0032 10E0     		b	.L63
 1058              	.L66:
 309:modem.c       ****             // Get cell network stats
 310:modem.c       ****             get_cell_network_stats();
 1059              		.loc 1 310 0
 1060 0034 FFF7FEFF 		bl	get_cell_network_stats
 311:modem.c       ****             // If cell signal (rsrp) is strong enough, break and connect to the network
 312:modem.c       ****             // Otherwise, keep checking rsrp
 313:modem.c       ****             if(modem_stats.rsrp > 26 && modem_stats.rsrp != 255){
 1061              		.loc 1 313 0
 1062 0038 3C4B     		ldr	r3, .L73+8
 1063 003a 5B79     		ldrb	r3, [r3, #5]	@ zero_extendqisi2
 1064 003c 1A2B     		cmp	r3, #26
 1065 003e 03D9     		bls	.L64
 1066              		.loc 1 313 0 is_stmt 0 discriminator 1
 1067 0040 3A4B     		ldr	r3, .L73+8
 1068 0042 5B79     		ldrb	r3, [r3, #5]	@ zero_extendqisi2
 1069 0044 FF2B     		cmp	r3, #255
 1070 0046 0AD1     		bne	.L72
 1071              	.L64:
 314:modem.c       ****                 break;
 315:modem.c       ****             }
 316:modem.c       ****             // Delay for 1 second
 317:modem.c       ****             CyDelay(1000u);
 1072              		.loc 1 317 0 is_stmt 1 discriminator 2
 1073 0048 4FF47A70 		mov	r0, #1000
 1074 004c FFF7FEFF 		bl	CyDelay
 308:modem.c       ****             // Get cell network stats
 1075              		.loc 1 308 0 discriminator 2
 1076 0050 FB79     		ldrb	r3, [r7, #7]	@ zero_extendqisi2
 1077 0052 0133     		adds	r3, r3, #1
 1078 0054 FB71     		strb	r3, [r7, #7]
 1079              	.L63:
 308:modem.c       ****             // Get cell network stats
 1080              		.loc 1 308 0 is_stmt 0 discriminator 1
 1081 0056 FB79     		ldrb	r3, [r7, #7]	@ zero_extendqisi2
 1082 0058 3B2B     		cmp	r3, #59
 1083 005a EBD9     		bls	.L66
 1084 005c 00E0     		b	.L65
 1085              	.L72:
 314:modem.c       ****                 break;
ARM GAS  C:\Users\hail\AppData\Local\Temp\ccsvwP8y.s 			page 27


 1086              		.loc 1 314 0 is_stmt 1
 1087 005e 00BF     		nop
 1088              	.L65:
 1089              	.LBE7:
 318:modem.c       ****         }
 319:modem.c       ****         
 320:modem.c       ****         // If modem connected to the cell network, save/print the time to connect to the network
 321:modem.c       ****         if(is_connected_to_cell_network()){
 1090              		.loc 1 321 0
 1091 0060 FFF7FEFF 		bl	is_connected_to_cell_network
 1092 0064 0346     		mov	r3, r0
 1093 0066 002B     		cmp	r3, #0
 1094 0068 15D0     		beq	.L67
 322:modem.c       ****       
 323:modem.c       ****              modem_stats.time_to_network_connect = (int)(getTimeStamp() - (int32)modem_start_time_s
 1095              		.loc 1 323 0
 1096 006a FFF7FEFF 		bl	getTimeStamp
 1097 006e 0246     		mov	r2, r0
 1098 0070 2D4B     		ldr	r3, .L73+4
 1099 0072 1B68     		ldr	r3, [r3]
 1100 0074 D31A     		subs	r3, r2, r3
 1101 0076 2D4A     		ldr	r2, .L73+8
 1102 0078 9360     		str	r3, [r2, #8]
 324:modem.c       ****              printNotif(NOTIF_TYPE_EVENT,"Time to connect to network: %d seconds",
 1103              		.loc 1 324 0
 1104 007a 2C4B     		ldr	r3, .L73+8
 1105 007c 9B68     		ldr	r3, [r3, #8]
 1106 007e 1A46     		mov	r2, r3
 1107 0080 2B49     		ldr	r1, .L73+12
 1108 0082 0020     		movs	r0, #0
 1109 0084 FFF7FEFF 		bl	printNotif
 325:modem.c       ****                                             modem_stats.time_to_network_connect);
 326:modem.c       ****             get_cell_network_stats(); // Get cell network stats
 1110              		.loc 1 326 0
 1111 0088 FFF7FEFF 		bl	get_cell_network_stats
 327:modem.c       ****             set_up_internet_connection(); // Setup the internet connection
 1112              		.loc 1 327 0
 1113 008c FFF7FEFF 		bl	set_up_internet_connection
 328:modem.c       ****             modem_state = MODEM_STATE_WAITING_FOR_IP; // Change modem state 
 1114              		.loc 1 328 0
 1115 0090 244B     		ldr	r3, .L73
 1116 0092 0322     		movs	r2, #3
 1117 0094 1A70     		strb	r2, [r3]
 1118              	.L67:
 329:modem.c       ****         }
 330:modem.c       **** 
 331:modem.c       ****         //power off if we times out shold only take ~30 secs to connect to network
 332:modem.c       ****         if((int)(getTimeStamp()-(int32)modem_start_time_stamp) > TIMEOUT_NETWORK_CONNECT){
 1119              		.loc 1 332 0
 1120 0096 FFF7FEFF 		bl	getTimeStamp
 1121 009a 0246     		mov	r2, r0
 1122 009c 224B     		ldr	r3, .L73+4
 1123 009e 1B68     		ldr	r3, [r3]
 1124 00a0 D31A     		subs	r3, r2, r3
 1125 00a2 C82B     		cmp	r3, #200
 1126 00a4 08DD     		ble	.L68
 333:modem.c       ****             modem_state = MODEM_STATE_OFF; // Change modem state
ARM GAS  C:\Users\hail\AppData\Local\Temp\ccsvwP8y.s 			page 28


 1127              		.loc 1 333 0
 1128 00a6 1F4B     		ldr	r3, .L73
 1129 00a8 0022     		movs	r2, #0
 1130 00aa 1A70     		strb	r2, [r3]
 334:modem.c       ****             modem_power_down(); // Power down the modem -- completely "kill" modem to conserve powe
 1131              		.loc 1 334 0
 1132 00ac FFF7FEFF 		bl	modem_power_down
 335:modem.c       ****             printNotif(NOTIF_TYPE_ERROR,"Modem timed out on network connect");
 1133              		.loc 1 335 0
 1134 00b0 2049     		ldr	r1, .L73+16
 1135 00b2 0220     		movs	r0, #2
 1136 00b4 FFF7FEFF 		bl	printNotif
 1137              	.L68:
 336:modem.c       ****             
 337:modem.c       ****         }
 338:modem.c       ****         
 339:modem.c       ****         return 0u;//ok to hand off to sleep
 1138              		.loc 1 339 0
 1139 00b8 0023     		movs	r3, #0
 1140 00ba 2EE0     		b	.L61
 1141              	.L62:
 340:modem.c       ****         
 341:modem.c       ****     // Else if modem state is "waiting for IP"
 342:modem.c       ****     }else if(modem_state == MODEM_STATE_WAITING_FOR_IP){
 1142              		.loc 1 342 0
 1143 00bc 194B     		ldr	r3, .L73
 1144 00be 1B78     		ldrb	r3, [r3]	@ zero_extendqisi2
 1145 00c0 032B     		cmp	r3, #3
 1146 00c2 29D1     		bne	.L69
 343:modem.c       ****         // If the modem is connected to the internet, change modem state to "ready", save/print tim
 344:modem.c       ****         if(is_connected_to_internet()){
 1147              		.loc 1 344 0
 1148 00c4 FFF7FEFF 		bl	is_connected_to_internet
 1149 00c8 0346     		mov	r3, r0
 1150 00ca 002B     		cmp	r3, #0
 1151 00cc 11D0     		beq	.L70
 345:modem.c       ****             modem_state = MODEM_STATE_READY; // Change modem state
 1152              		.loc 1 345 0
 1153 00ce 154B     		ldr	r3, .L73
 1154 00d0 0422     		movs	r2, #4
 1155 00d2 1A70     		strb	r2, [r3]
 346:modem.c       ****             // Save/print time to acquire IP address
 347:modem.c       ****             modem_stats.time_to_acquire_ip = (int)(getTimeStamp() - (int32)modem_start_time_stamp);
 1156              		.loc 1 347 0
 1157 00d4 FFF7FEFF 		bl	getTimeStamp
 1158 00d8 0246     		mov	r2, r0
 1159 00da 134B     		ldr	r3, .L73+4
 1160 00dc 1B68     		ldr	r3, [r3]
 1161 00de D31A     		subs	r3, r2, r3
 1162 00e0 124A     		ldr	r2, .L73+8
 1163 00e2 D360     		str	r3, [r2, #12]
 348:modem.c       ****              printNotif(NOTIF_TYPE_EVENT,"Acquired IP address: %d seconds",
 1164              		.loc 1 348 0
 1165 00e4 114B     		ldr	r3, .L73+8
 1166 00e6 DB68     		ldr	r3, [r3, #12]
 1167 00e8 1A46     		mov	r2, r3
 1168 00ea 1349     		ldr	r1, .L73+20
ARM GAS  C:\Users\hail\AppData\Local\Temp\ccsvwP8y.s 			page 29


 1169 00ec 0020     		movs	r0, #0
 1170 00ee FFF7FEFF 		bl	printNotif
 1171              	.L70:
 349:modem.c       ****                                             modem_stats.time_to_acquire_ip);
 350:modem.c       ****         }
 351:modem.c       ****         
 352:modem.c       ****         // Power off if we times out shold only take ~30 secs to connect to network
 353:modem.c       ****         if((int)(getTimeStamp()-(int32)modem_start_time_stamp) > TIMEOUT_IP_ACQUIRE){
 1172              		.loc 1 353 0
 1173 00f2 FFF7FEFF 		bl	getTimeStamp
 1174 00f6 0246     		mov	r2, r0
 1175 00f8 0B4B     		ldr	r3, .L73+4
 1176 00fa 1B68     		ldr	r3, [r3]
 1177 00fc D31A     		subs	r3, r2, r3
 1178 00fe E62B     		cmp	r3, #230
 1179 0100 08DD     		ble	.L71
 354:modem.c       ****             modem_state = MODEM_STATE_OFF;
 1180              		.loc 1 354 0
 1181 0102 084B     		ldr	r3, .L73
 1182 0104 0022     		movs	r2, #0
 1183 0106 1A70     		strb	r2, [r3]
 355:modem.c       ****             modem_power_down(); // Power down the modem -- completely "kill" modem to conserve powe
 1184              		.loc 1 355 0
 1185 0108 FFF7FEFF 		bl	modem_power_down
 356:modem.c       ****             printNotif(NOTIF_TYPE_ERROR,"Modem timed out on IP address acquire.");
 1186              		.loc 1 356 0
 1187 010c 0B49     		ldr	r1, .L73+24
 1188 010e 0220     		movs	r0, #2
 1189 0110 FFF7FEFF 		bl	printNotif
 1190              	.L71:
 357:modem.c       ****       
 358:modem.c       ****         }
 359:modem.c       ****         return 0u;//ok to hand off to sleep
 1191              		.loc 1 359 0
 1192 0114 0023     		movs	r3, #0
 1193 0116 00E0     		b	.L61
 1194              	.L69:
 360:modem.c       ****     }
 361:modem.c       ****     
 362:modem.c       ****     return 0u;
 1195              		.loc 1 362 0
 1196 0118 0023     		movs	r3, #0
 1197              	.L61:
 363:modem.c       ****     
 364:modem.c       **** }
 1198              		.loc 1 364 0
 1199 011a 1846     		mov	r0, r3
 1200 011c 0837     		adds	r7, r7, #8
 1201              		.cfi_def_cfa_offset 8
 1202 011e BD46     		mov	sp, r7
 1203              		.cfi_def_cfa_register 13
 1204              		@ sp needed
 1205 0120 80BD     		pop	{r7, pc}
 1206              	.L74:
 1207 0122 00BF     		.align	2
 1208              	.L73:
 1209 0124 00000000 		.word	modem_state
ARM GAS  C:\Users\hail\AppData\Local\Temp\ccsvwP8y.s 			page 30


 1210 0128 00000000 		.word	modem_start_time_stamp
 1211 012c 00000000 		.word	modem_stats
 1212 0130 9C010000 		.word	.LC13
 1213 0134 C4010000 		.word	.LC14
 1214 0138 E8010000 		.word	.LC15
 1215 013c 08020000 		.word	.LC16
 1216              		.cfi_endproc
 1217              	.LFE75:
 1218              		.size	modem_process_tasks, .-modem_process_tasks
 1219              		.section	.rodata
 1220 022f 00       		.align	2
 1221              	.LC17:
 1222 0230 43686563 		.ascii	"Checking AT+CREG?\000"
 1222      6B696E67 
 1222      2041542B 
 1222      43524547 
 1222      3F00
 1223 0242 0000     		.align	2
 1224              	.LC18:
 1225 0244 41542B43 		.ascii	"AT+CREG?\015\000"
 1225      5245473F 
 1225      0D00
 1226 024e 0000     		.align	2
 1227              	.LC19:
 1228 0250 45787472 		.ascii	"Extracting string AT+CREG?\000"
 1228      61637469 
 1228      6E672073 
 1228      7472696E 
 1228      67204154 
 1229 026b 00       		.align	2
 1230              	.LC20:
 1231 026c 75617274 		.ascii	"uart_received_string: %s\000"
 1231      5F726563 
 1231      65697665 
 1231      645F7374 
 1231      72696E67 
 1232 0285 000000   		.align	2
 1233              	.LC21:
 1234 0288 0D00     		.ascii	"\015\000"
 1235 028a 0000     		.align	2
 1236              	.LC22:
 1237 028c 3A2000   		.ascii	": \000"
 1238 028f 00       		.align	2
 1239              	.LC23:
 1240 0290 52656769 		.ascii	"Registered to network, CREG: %s\000"
 1240      73746572 
 1240      65642074 
 1240      6F206E65 
 1240      74776F72 
 1241              		.align	2
 1242              	.LC24:
 1243 02b0 446F6E65 		.ascii	"Done extracing string AT+CREG?\000"
 1243      20657874 
 1243      72616369 
 1243      6E672073 
 1243      7472696E 
 1244 02cf 00       		.align	2
ARM GAS  C:\Users\hail\AppData\Local\Temp\ccsvwP8y.s 			page 31


 1245              	.LC25:
 1246 02d0 302C3100 		.ascii	"0,1\000"
 1247              		.align	2
 1248              	.LC26:
 1249 02d4 302C3500 		.ascii	"0,5\000"
 1250              		.section	.text.is_connected_to_cell_network,"ax",%progbits
 1251              		.align	2
 1252              		.global	is_connected_to_cell_network
 1253              		.thumb
 1254              		.thumb_func
 1255              		.type	is_connected_to_cell_network, %function
 1256              	is_connected_to_cell_network:
 1257              	.LFB76:
 365:modem.c       **** 
 366:modem.c       **** // Checks network status, writes commands to the modem, then extracts string from UART
 367:modem.c       **** uint8 is_connected_to_cell_network(){
 1258              		.loc 1 367 0
 1259              		.cfi_startproc
 1260              		@ args = 0, pretend = 0, frame = 16
 1261              		@ frame_needed = 1, uses_anonymous_args = 0
 1262 0000 80B5     		push	{r7, lr}
 1263              		.cfi_def_cfa_offset 8
 1264              		.cfi_offset 7, -8
 1265              		.cfi_offset 14, -4
 1266 0002 84B0     		sub	sp, sp, #16
 1267              		.cfi_def_cfa_offset 24
 1268 0004 00AF     		add	r7, sp, #0
 1269              		.cfi_def_cfa_register 7
 368:modem.c       ****     // AT command AT+CREG? is the Network Registration Report to check network status -- need '0,0'
 369:modem.c       ****     printNotif(NOTIF_TYPE_EVENT,"Checking AT+CREG?");
 1270              		.loc 1 369 0
 1271 0006 2049     		ldr	r1, .L80
 1272 0008 0020     		movs	r0, #0
 1273 000a FFF7FEFF 		bl	printNotif
 370:modem.c       ****     // create new uint8 variable stust and set to equal the output of the function at_write_command
 371:modem.c       ****     uint8 status = at_write_command("AT+CREG?\r", "OK",DEFAULT_AT_TIMEOUT);
 1274              		.loc 1 371 0
 1275 000e 4FF4FA62 		mov	r2, #2000
 1276 0012 1E49     		ldr	r1, .L80+4
 1277 0014 1E48     		ldr	r0, .L80+8
 1278 0016 FFF7FEFF 		bl	at_write_command
 1279 001a 0346     		mov	r3, r0
 1280 001c FB73     		strb	r3, [r7, #15]
 372:modem.c       ****     
 373:modem.c       ****     printNotif(NOTIF_TYPE_EVENT,"Extracting string AT+CREG?");
 1281              		.loc 1 373 0
 1282 001e 1D49     		ldr	r1, .L80+12
 1283 0020 0020     		movs	r0, #0
 1284 0022 FFF7FEFF 		bl	printNotif
 374:modem.c       ****     printNotif(NOTIF_TYPE_EVENT,"uart_received_string: %s",uart_received_string);
 1285              		.loc 1 374 0
 1286 0026 1C4A     		ldr	r2, .L80+16
 1287 0028 1C49     		ldr	r1, .L80+20
 1288 002a 0020     		movs	r0, #0
 1289 002c FFF7FEFF 		bl	printNotif
 375:modem.c       ****     
 376:modem.c       ****     // If the modem has a status
ARM GAS  C:\Users\hail\AppData\Local\Temp\ccsvwP8y.s 			page 32


 377:modem.c       ****     if(status){
 1290              		.loc 1 377 0
 1291 0030 FB7B     		ldrb	r3, [r7, #15]	@ zero_extendqisi2
 1292 0032 002B     		cmp	r3, #0
 1293 0034 23D0     		beq	.L76
 1294              	.LBB8:
 378:modem.c       ****         // Create a character array of length 10 called creg
 379:modem.c       ****         char creg[10];
 380:modem.c       ****         creg[0] = '\0';
 1295              		.loc 1 380 0
 1296 0036 0023     		movs	r3, #0
 1297 0038 3B71     		strb	r3, [r7, #4]
 381:modem.c       ****         // Extract string from the UART
 382:modem.c       ****         extract_string(uart_received_string,": ","\r",creg);
 1298              		.loc 1 382 0
 1299 003a 3B1D     		adds	r3, r7, #4
 1300 003c 184A     		ldr	r2, .L80+24
 1301 003e 1949     		ldr	r1, .L80+28
 1302 0040 1548     		ldr	r0, .L80+16
 1303 0042 FFF7FEFF 		bl	extract_string
 383:modem.c       ****         printNotif(NOTIF_TYPE_EVENT,"Registered to network, CREG: %s",creg);
 1304              		.loc 1 383 0
 1305 0046 3B1D     		adds	r3, r7, #4
 1306 0048 1A46     		mov	r2, r3
 1307 004a 1749     		ldr	r1, .L80+32
 1308 004c 0020     		movs	r0, #0
 1309 004e FFF7FEFF 		bl	printNotif
 384:modem.c       ****         printNotif(NOTIF_TYPE_EVENT,"Done extracing string AT+CREG?");
 1310              		.loc 1 384 0
 1311 0052 1649     		ldr	r1, .L80+36
 1312 0054 0020     		movs	r0, #0
 1313 0056 FFF7FEFF 		bl	printNotif
 385:modem.c       ****     
 386:modem.c       ****         // Search creg for "0,1" or "0,5", if either exists and either is not equal to NULL, return
 387:modem.c       ****         if((strstr(creg,"0,1")!=NULL)||(strstr(creg,"0,5")!=NULL)){
 1314              		.loc 1 387 0
 1315 005a 3B1D     		adds	r3, r7, #4
 1316 005c 1449     		ldr	r1, .L80+40
 1317 005e 1846     		mov	r0, r3
 1318 0060 FFF7FEFF 		bl	strstr
 1319 0064 0346     		mov	r3, r0
 1320 0066 002B     		cmp	r3, #0
 1321 0068 07D1     		bne	.L77
 1322              		.loc 1 387 0 is_stmt 0 discriminator 1
 1323 006a 3B1D     		adds	r3, r7, #4
 1324 006c 1149     		ldr	r1, .L80+44
 1325 006e 1846     		mov	r0, r3
 1326 0070 FFF7FEFF 		bl	strstr
 1327 0074 0346     		mov	r3, r0
 1328 0076 002B     		cmp	r3, #0
 1329 0078 01D0     		beq	.L76
 1330              	.L77:
 388:modem.c       ****             //time_network_connect = getTimeStamp();
 389:modem.c       ****             return 1u;
 1331              		.loc 1 389 0 is_stmt 1
 1332 007a 0123     		movs	r3, #1
 1333 007c 00E0     		b	.L79
ARM GAS  C:\Users\hail\AppData\Local\Temp\ccsvwP8y.s 			page 33


 1334              	.L76:
 1335              	.LBE8:
 390:modem.c       ****         }
 391:modem.c       ****     }
 392:modem.c       ****     // If the modem doesn't have a status, return 0u
 393:modem.c       ****     return 0u;
 1336              		.loc 1 393 0
 1337 007e 0023     		movs	r3, #0
 1338              	.L79:
 394:modem.c       ****         
 395:modem.c       **** }
 1339              		.loc 1 395 0
 1340 0080 1846     		mov	r0, r3
 1341 0082 1037     		adds	r7, r7, #16
 1342              		.cfi_def_cfa_offset 8
 1343 0084 BD46     		mov	sp, r7
 1344              		.cfi_def_cfa_register 13
 1345              		@ sp needed
 1346 0086 80BD     		pop	{r7, pc}
 1347              	.L81:
 1348              		.align	2
 1349              	.L80:
 1350 0088 30020000 		.word	.LC17
 1351 008c 00000000 		.word	.LC0
 1352 0090 44020000 		.word	.LC18
 1353 0094 50020000 		.word	.LC19
 1354 0098 00000000 		.word	uart_received_string
 1355 009c 6C020000 		.word	.LC20
 1356 00a0 88020000 		.word	.LC21
 1357 00a4 8C020000 		.word	.LC22
 1358 00a8 90020000 		.word	.LC23
 1359 00ac B0020000 		.word	.LC24
 1360 00b0 D0020000 		.word	.LC25
 1361 00b4 D4020000 		.word	.LC26
 1362              		.cfi_endproc
 1363              	.LFE76:
 1364              		.size	is_connected_to_cell_network, .-is_connected_to_cell_network
 1365              		.section	.rodata
 1366              		.align	2
 1367              	.LC27:
 1368 02d8 41542353 		.ascii	"AT#SGACT=1,1\015\012\000"
 1368      47414354 
 1368      3D312C31 
 1368      0D0A00
 1369              		.section	.text.set_up_internet_connection,"ax",%progbits
 1370              		.align	2
 1371              		.global	set_up_internet_connection
 1372              		.thumb
 1373              		.thumb_func
 1374              		.type	set_up_internet_connection, %function
 1375              	set_up_internet_connection:
 1376              	.LFB77:
 396:modem.c       **** 
 397:modem.c       **** // Connect the modem to the internet
 398:modem.c       **** void set_up_internet_connection(){
 1377              		.loc 1 398 0
 1378              		.cfi_startproc
ARM GAS  C:\Users\hail\AppData\Local\Temp\ccsvwP8y.s 			page 34


 1379              		@ args = 0, pretend = 0, frame = 0
 1380              		@ frame_needed = 1, uses_anonymous_args = 0
 1381 0000 80B5     		push	{r7, lr}
 1382              		.cfi_def_cfa_offset 8
 1383              		.cfi_offset 7, -8
 1384              		.cfi_offset 14, -4
 1385 0002 00AF     		add	r7, sp, #0
 1386              		.cfi_def_cfa_register 7
 399:modem.c       ****     
 400:modem.c       ****     //port 3
 401:modem.c       ****    //<connId>,<srMode>,<dataMode>, 
 402:modem.c       ****     //at_write_command("AT#SCFGEXT=1,1,0,0,0,0\r", "OK",DEFAULT_AT_TIMEOUT);////LTE modem relevant
 403:modem.c       ****     
 404:modem.c       ****     //<connId>,<cid>,<pktSz>,<maxTo>,<connTo>,<txTo>
 405:modem.c       ****     //at_write_command("AT#SCFG=1,3,300,90,600,50\r", "OK",DEFAULT_AT_TIMEOUT); //LTE modem relevan
 406:modem.c       ****     // <cid>,<stat>
 407:modem.c       ****    
 408:modem.c       ****     // AT command SGACT is Context Activation command is used to activate the specified PDP context
 409:modem.c       ****     at_write_command("AT#SGACT=1,1\r\n", "OK",1000u);
 1387              		.loc 1 409 0
 1388 0004 4FF47A72 		mov	r2, #1000
 1389 0008 0249     		ldr	r1, .L83
 1390 000a 0348     		ldr	r0, .L83+4
 1391 000c FFF7FEFF 		bl	at_write_command
 410:modem.c       ****     
 411:modem.c       **** }
 1392              		.loc 1 411 0
 1393 0010 00BF     		nop
 1394 0012 80BD     		pop	{r7, pc}
 1395              	.L84:
 1396              		.align	2
 1397              	.L83:
 1398 0014 00000000 		.word	.LC0
 1399 0018 D8020000 		.word	.LC27
 1400              		.cfi_endproc
 1401              	.LFE77:
 1402              		.size	set_up_internet_connection, .-set_up_internet_connection
 1403              		.section	.rodata
 1404 02e7 00       		.align	2
 1405              	.LC28:
 1406 02e8 312C3100 		.ascii	"1,1\000"
 1407              		.align	2
 1408              	.LC29:
 1409 02ec 41542353 		.ascii	"AT#SGACT?\015\000"
 1409      47414354 
 1409      3F0D00
 1410              		.section	.text.is_connected_to_internet,"ax",%progbits
 1411              		.align	2
 1412              		.global	is_connected_to_internet
 1413              		.thumb
 1414              		.thumb_func
 1415              		.type	is_connected_to_internet, %function
 1416              	is_connected_to_internet:
 1417              	.LFB78:
 412:modem.c       **** 
 413:modem.c       **** // Checks if the modem is connected to the internet
 414:modem.c       **** uint8 is_connected_to_internet(){
ARM GAS  C:\Users\hail\AppData\Local\Temp\ccsvwP8y.s 			page 35


 1418              		.loc 1 414 0
 1419              		.cfi_startproc
 1420              		@ args = 0, pretend = 0, frame = 0
 1421              		@ frame_needed = 1, uses_anonymous_args = 0
 1422 0000 80B5     		push	{r7, lr}
 1423              		.cfi_def_cfa_offset 8
 1424              		.cfi_offset 7, -8
 1425              		.cfi_offset 14, -4
 1426 0002 00AF     		add	r7, sp, #0
 1427              		.cfi_def_cfa_register 7
 415:modem.c       ****     // AT command SGACT? reports the range for the parameters <cid> and <stat>
 416:modem.c       ****     // cid: is the Packet Data Protocol (PDP) Context Identifier which specifies the particular PDP
 417:modem.c       ****     // stat: gives the context staus (0 deactivated and 1 activated)
 418:modem.c       ****     // Check for 3,1 if Verizon 
 419:modem.c       ****     if(at_write_command("AT#SGACT?\r", "1,1",DEFAULT_AT_TIMEOUT)){
 1428              		.loc 1 419 0
 1429 0004 4FF4FA62 		mov	r2, #2000
 1430 0008 0549     		ldr	r1, .L88
 1431 000a 0648     		ldr	r0, .L88+4
 1432 000c FFF7FEFF 		bl	at_write_command
 1433 0010 0346     		mov	r3, r0
 1434 0012 002B     		cmp	r3, #0
 1435 0014 01D0     		beq	.L86
 420:modem.c       ****         return 1u;
 1436              		.loc 1 420 0
 1437 0016 0123     		movs	r3, #1
 1438 0018 00E0     		b	.L87
 1439              	.L86:
 421:modem.c       ****     }
 422:modem.c       ****     return 0u;  
 1440              		.loc 1 422 0
 1441 001a 0023     		movs	r3, #0
 1442              	.L87:
 423:modem.c       **** }
 1443              		.loc 1 423 0
 1444 001c 1846     		mov	r0, r3
 1445 001e 80BD     		pop	{r7, pc}
 1446              	.L89:
 1447              		.align	2
 1448              	.L88:
 1449 0020 E8020000 		.word	.LC28
 1450 0024 EC020000 		.word	.LC29
 1451              		.cfi_endproc
 1452              	.LFE78:
 1453              		.size	is_connected_to_internet, .-is_connected_to_internet
 1454              		.section	.rodata
 1455 02f7 00       		.align	2
 1456              	.LC30:
 1457 02f8 41542B43 		.ascii	"AT+CESQ\015\000"
 1457      4553510D 
 1457      00
 1458 0301 000000   		.align	2
 1459              	.LC31:
 1460 0304 4E657477 		.ascii	"Network STts: %s\000"
 1460      6F726B20 
 1460      53547473 
 1460      3A202573 
ARM GAS  C:\Users\hail\AppData\Local\Temp\ccsvwP8y.s 			page 36


 1460      00
 1461 0315 000000   		.align	2
 1462              	.LC32:
 1463 0318 2C00     		.ascii	",\000"
 1464              		.section	.text.get_cell_network_stats,"ax",%progbits
 1465              		.align	2
 1466              		.global	get_cell_network_stats
 1467              		.thumb
 1468              		.thumb_func
 1469              		.type	get_cell_network_stats, %function
 1470              	get_cell_network_stats:
 1471              	.LFB79:
 424:modem.c       **** 
 425:modem.c       **** // Get cellular network stats 
 426:modem.c       **** void get_cell_network_stats(){
 1472              		.loc 1 426 0
 1473              		.cfi_startproc
 1474              		@ args = 0, pretend = 0, frame = 40
 1475              		@ frame_needed = 1, uses_anonymous_args = 0
 1476 0000 80B5     		push	{r7, lr}
 1477              		.cfi_def_cfa_offset 8
 1478              		.cfi_offset 7, -8
 1479              		.cfi_offset 14, -4
 1480 0002 8AB0     		sub	sp, sp, #40
 1481              		.cfi_def_cfa_offset 48
 1482 0004 00AF     		add	r7, sp, #0
 1483              		.cfi_def_cfa_register 7
 1484              	.LBB9:
 427:modem.c       ****     // Gets RSSI and FER values
 428:modem.c       ****     // RSSI (Received Signal Strength Indicator) is a measurement of how well your device can hear 
 429:modem.c       ****     // RSRQ (Reference Signal Received Quality) (or SQ for short) gives the signal quality. 
 430:modem.c       ****     for(uint8 attempts =0; attempts <10; attempts++){
 1485              		.loc 1 430 0
 1486 0006 0023     		movs	r3, #0
 1487 0008 87F82730 		strb	r3, [r7, #39]
 1488 000c 79E0     		b	.L91
 1489              	.L100:
 1490              	.LBB10:
 431:modem.c       ****         // AT command CESQ checks Signal Quality
 432:modem.c       ****         at_write_command("AT+CESQ\r", "OK",DEFAULT_AT_TIMEOUT);
 1491              		.loc 1 432 0
 1492 000e 4FF4FA62 		mov	r2, #2000
 1493 0012 4049     		ldr	r1, .L102
 1494 0014 4048     		ldr	r0, .L102+4
 1495 0016 FFF7FEFF 		bl	at_write_command
 433:modem.c       ****         
 434:modem.c       ****         char cesq[30]; // Create a character array of length 30 called cesq 
 435:modem.c       ****         cesq[0] = '\0';
 1496              		.loc 1 435 0
 1497 001a 0023     		movs	r3, #0
 1498 001c 3B70     		strb	r3, [r7]
 436:modem.c       ****         // Extract string from the UART
 437:modem.c       ****         extract_string(uart_received_string,": ","\r",cesq);
 1499              		.loc 1 437 0
 1500 001e 3B46     		mov	r3, r7
 1501 0020 3E4A     		ldr	r2, .L102+8
 1502 0022 3F49     		ldr	r1, .L102+12
ARM GAS  C:\Users\hail\AppData\Local\Temp\ccsvwP8y.s 			page 37


 1503 0024 3F48     		ldr	r0, .L102+16
 1504 0026 FFF7FEFF 		bl	extract_string
 438:modem.c       ****         printNotif(NOTIF_TYPE_EVENT,"Network STts: %s",cesq);
 1505              		.loc 1 438 0
 1506 002a 3B46     		mov	r3, r7
 1507 002c 1A46     		mov	r2, r3
 1508 002e 3E49     		ldr	r1, .L102+20
 1509 0030 0020     		movs	r0, #0
 1510 0032 FFF7FEFF 		bl	printNotif
 439:modem.c       ****         
 440:modem.c       ****         char *token; // Create a character variable pointer
 441:modem.c       ****         // strtok(): breaks "cesq" into smaller string when sees ","
 442:modem.c       ****         token = strtok(cesq,",");
 1511              		.loc 1 442 0
 1512 0036 3B46     		mov	r3, r7
 1513 0038 3C49     		ldr	r1, .L102+24
 1514 003a 1846     		mov	r0, r3
 1515 003c FFF7FEFF 		bl	strtok
 1516 0040 3862     		str	r0, [r7, #32]
 443:modem.c       ****         // If token is not NULL then set modem_stats.rssi equal to the integer "token"
 444:modem.c       ****         // int atoi(const char *str) converts the string argument str to an integer (type int).
 445:modem.c       ****         if(token != NULL){
 1517              		.loc 1 445 0
 1518 0042 3B6A     		ldr	r3, [r7, #32]
 1519 0044 002B     		cmp	r3, #0
 1520 0046 06D0     		beq	.L92
 446:modem.c       ****             modem_stats.rssi = atoi(token);
 1521              		.loc 1 446 0
 1522 0048 386A     		ldr	r0, [r7, #32]
 1523 004a FFF7FEFF 		bl	atoi
 1524 004e 0346     		mov	r3, r0
 1525 0050 DAB2     		uxtb	r2, r3
 1526 0052 374B     		ldr	r3, .L102+28
 1527 0054 1A70     		strb	r2, [r3]
 1528              	.L92:
 447:modem.c       ****         }
 448:modem.c       ****         token = strtok(NULL,",");
 1529              		.loc 1 448 0
 1530 0056 3549     		ldr	r1, .L102+24
 1531 0058 0020     		movs	r0, #0
 1532 005a FFF7FEFF 		bl	strtok
 1533 005e 3862     		str	r0, [r7, #32]
 449:modem.c       ****         if(token != NULL){
 1534              		.loc 1 449 0
 1535 0060 3B6A     		ldr	r3, [r7, #32]
 1536 0062 002B     		cmp	r3, #0
 1537 0064 06D0     		beq	.L93
 450:modem.c       ****             modem_stats.ber = atoi(token);
 1538              		.loc 1 450 0
 1539 0066 386A     		ldr	r0, [r7, #32]
 1540 0068 FFF7FEFF 		bl	atoi
 1541 006c 0346     		mov	r3, r0
 1542 006e DAB2     		uxtb	r2, r3
 1543 0070 2F4B     		ldr	r3, .L102+28
 1544 0072 5A70     		strb	r2, [r3, #1]
 1545              	.L93:
 451:modem.c       ****         }
ARM GAS  C:\Users\hail\AppData\Local\Temp\ccsvwP8y.s 			page 38


 452:modem.c       ****         token = strtok(NULL,",");
 1546              		.loc 1 452 0
 1547 0074 2D49     		ldr	r1, .L102+24
 1548 0076 0020     		movs	r0, #0
 1549 0078 FFF7FEFF 		bl	strtok
 1550 007c 3862     		str	r0, [r7, #32]
 453:modem.c       ****         if(token != NULL){
 1551              		.loc 1 453 0
 1552 007e 3B6A     		ldr	r3, [r7, #32]
 1553 0080 002B     		cmp	r3, #0
 1554 0082 06D0     		beq	.L94
 454:modem.c       ****             modem_stats.rscp = atoi(token);
 1555              		.loc 1 454 0
 1556 0084 386A     		ldr	r0, [r7, #32]
 1557 0086 FFF7FEFF 		bl	atoi
 1558 008a 0346     		mov	r3, r0
 1559 008c DAB2     		uxtb	r2, r3
 1560 008e 284B     		ldr	r3, .L102+28
 1561 0090 9A70     		strb	r2, [r3, #2]
 1562              	.L94:
 455:modem.c       ****         }
 456:modem.c       ****         token = strtok(NULL,",");
 1563              		.loc 1 456 0
 1564 0092 2649     		ldr	r1, .L102+24
 1565 0094 0020     		movs	r0, #0
 1566 0096 FFF7FEFF 		bl	strtok
 1567 009a 3862     		str	r0, [r7, #32]
 457:modem.c       ****         if(token != NULL){
 1568              		.loc 1 457 0
 1569 009c 3B6A     		ldr	r3, [r7, #32]
 1570 009e 002B     		cmp	r3, #0
 1571 00a0 06D0     		beq	.L95
 458:modem.c       ****             modem_stats.ecno = atoi(token);
 1572              		.loc 1 458 0
 1573 00a2 386A     		ldr	r0, [r7, #32]
 1574 00a4 FFF7FEFF 		bl	atoi
 1575 00a8 0346     		mov	r3, r0
 1576 00aa DAB2     		uxtb	r2, r3
 1577 00ac 204B     		ldr	r3, .L102+28
 1578 00ae DA70     		strb	r2, [r3, #3]
 1579              	.L95:
 459:modem.c       ****         }
 460:modem.c       ****         token = strtok(NULL,",");
 1580              		.loc 1 460 0
 1581 00b0 1E49     		ldr	r1, .L102+24
 1582 00b2 0020     		movs	r0, #0
 1583 00b4 FFF7FEFF 		bl	strtok
 1584 00b8 3862     		str	r0, [r7, #32]
 461:modem.c       ****         if(token != NULL){
 1585              		.loc 1 461 0
 1586 00ba 3B6A     		ldr	r3, [r7, #32]
 1587 00bc 002B     		cmp	r3, #0
 1588 00be 06D0     		beq	.L96
 462:modem.c       ****             modem_stats.rsrq = atoi(token);
 1589              		.loc 1 462 0
 1590 00c0 386A     		ldr	r0, [r7, #32]
 1591 00c2 FFF7FEFF 		bl	atoi
ARM GAS  C:\Users\hail\AppData\Local\Temp\ccsvwP8y.s 			page 39


 1592 00c6 0346     		mov	r3, r0
 1593 00c8 DAB2     		uxtb	r2, r3
 1594 00ca 194B     		ldr	r3, .L102+28
 1595 00cc 1A71     		strb	r2, [r3, #4]
 1596              	.L96:
 463:modem.c       ****         }
 464:modem.c       ****         token = strtok(NULL,",");
 1597              		.loc 1 464 0
 1598 00ce 1749     		ldr	r1, .L102+24
 1599 00d0 0020     		movs	r0, #0
 1600 00d2 FFF7FEFF 		bl	strtok
 1601 00d6 3862     		str	r0, [r7, #32]
 465:modem.c       ****         if(token != NULL){
 1602              		.loc 1 465 0
 1603 00d8 3B6A     		ldr	r3, [r7, #32]
 1604 00da 002B     		cmp	r3, #0
 1605 00dc 06D0     		beq	.L97
 466:modem.c       ****             modem_stats.rsrp = atoi(token);
 1606              		.loc 1 466 0
 1607 00de 386A     		ldr	r0, [r7, #32]
 1608 00e0 FFF7FEFF 		bl	atoi
 1609 00e4 0346     		mov	r3, r0
 1610 00e6 DAB2     		uxtb	r2, r3
 1611 00e8 114B     		ldr	r3, .L102+28
 1612 00ea 5A71     		strb	r2, [r3, #5]
 1613              	.L97:
 467:modem.c       ****         }
 468:modem.c       ****         // If rsrp is not equal to 255 then break.
 469:modem.c       ****         if(modem_stats.rsrp != 255){
 1614              		.loc 1 469 0
 1615 00ec 104B     		ldr	r3, .L102+28
 1616 00ee 5B79     		ldrb	r3, [r3, #5]	@ zero_extendqisi2
 1617 00f0 FF2B     		cmp	r3, #255
 1618 00f2 01D0     		beq	.L98
 470:modem.c       ****             break;
 1619              		.loc 1 470 0
 1620 00f4 00BF     		nop
 1621              	.LBE10:
 1622              	.LBE9:
 471:modem.c       ****         }
 472:modem.c       ****     }
 473:modem.c       **** }
 1623              		.loc 1 473 0
 1624 00f6 08E0     		b	.L101
 1625              	.L98:
 1626              	.LBB11:
 430:modem.c       ****         // AT command CESQ checks Signal Quality
 1627              		.loc 1 430 0
 1628 00f8 97F82730 		ldrb	r3, [r7, #39]	@ zero_extendqisi2
 1629 00fc 0133     		adds	r3, r3, #1
 1630 00fe 87F82730 		strb	r3, [r7, #39]
 1631              	.L91:
 430:modem.c       ****         // AT command CESQ checks Signal Quality
 1632              		.loc 1 430 0 is_stmt 0 discriminator 1
 1633 0102 97F82730 		ldrb	r3, [r7, #39]	@ zero_extendqisi2
 1634 0106 092B     		cmp	r3, #9
 1635 0108 81D9     		bls	.L100
ARM GAS  C:\Users\hail\AppData\Local\Temp\ccsvwP8y.s 			page 40


 1636              	.L101:
 1637              	.LBE11:
 1638              		.loc 1 473 0 is_stmt 1
 1639 010a 00BF     		nop
 1640 010c 2837     		adds	r7, r7, #40
 1641              		.cfi_def_cfa_offset 8
 1642 010e BD46     		mov	sp, r7
 1643              		.cfi_def_cfa_register 13
 1644              		@ sp needed
 1645 0110 80BD     		pop	{r7, pc}
 1646              	.L103:
 1647 0112 00BF     		.align	2
 1648              	.L102:
 1649 0114 00000000 		.word	.LC0
 1650 0118 F8020000 		.word	.LC30
 1651 011c 88020000 		.word	.LC21
 1652 0120 8C020000 		.word	.LC22
 1653 0124 00000000 		.word	uart_received_string
 1654 0128 04030000 		.word	.LC31
 1655 012c 18030000 		.word	.LC32
 1656 0130 00000000 		.word	modem_stats
 1657              		.cfi_endproc
 1658              	.LFE79:
 1659              		.size	get_cell_network_stats, .-get_cell_network_stats
 1660              		.section	.text.updatable_parameters_initialize,"ax",%progbits
 1661              		.align	2
 1662              		.global	updatable_parameters_initialize
 1663              		.thumb
 1664              		.thumb_func
 1665              		.type	updatable_parameters_initialize, %function
 1666              	updatable_parameters_initialize:
 1667              	.LFB80:
 474:modem.c       **** // Initialize updatable parameters (sampling, reporting, and debug frequencies)
 475:modem.c       **** void updatable_parameters_initialize(){
 1668              		.loc 1 475 0
 1669              		.cfi_startproc
 1670              		@ args = 0, pretend = 0, frame = 0
 1671              		@ frame_needed = 1, uses_anonymous_args = 0
 1672              		@ link register save eliminated.
 1673 0000 80B4     		push	{r7}
 1674              		.cfi_def_cfa_offset 4
 1675              		.cfi_offset 7, -4
 1676 0002 00AF     		add	r7, sp, #0
 1677              		.cfi_def_cfa_register 7
 476:modem.c       ****     updatable_parameters.measure_time = 10u;
 1678              		.loc 1 476 0
 1679 0004 064B     		ldr	r3, .L105
 1680 0006 0A22     		movs	r2, #10
 1681 0008 1A70     		strb	r2, [r3]
 477:modem.c       ****     updatable_parameters.sync_time = 60u;
 1682              		.loc 1 477 0
 1683 000a 054B     		ldr	r3, .L105
 1684 000c 3C22     		movs	r2, #60
 1685 000e 5A70     		strb	r2, [r3, #1]
 478:modem.c       ****     updatable_parameters.debug_level = 1u;
 1686              		.loc 1 478 0
 1687 0010 034B     		ldr	r3, .L105
ARM GAS  C:\Users\hail\AppData\Local\Temp\ccsvwP8y.s 			page 41


 1688 0012 0122     		movs	r2, #1
 1689 0014 9A70     		strb	r2, [r3, #2]
 479:modem.c       **** }
 1690              		.loc 1 479 0
 1691 0016 00BF     		nop
 1692 0018 BD46     		mov	sp, r7
 1693              		.cfi_def_cfa_register 13
 1694              		@ sp needed
 1695 001a 80BC     		pop	{r7}
 1696              		.cfi_restore 7
 1697              		.cfi_def_cfa_offset 0
 1698 001c 7047     		bx	lr
 1699              	.L106:
 1700 001e 00BF     		.align	2
 1701              	.L105:
 1702 0020 00000000 		.word	updatable_parameters
 1703              		.cfi_endproc
 1704              	.LFE80:
 1705              		.size	updatable_parameters_initialize, .-updatable_parameters_initialize
 1706              		.section	.rodata
 1707 031a 0000     		.align	2
 1708              	.LC33:
 1709 031c 53616D70 		.ascii	"Sample_Freq: \000"
 1709      6C655F46 
 1709      7265713A 
 1709      2000
 1710 032a 0000     		.align	2
 1711              	.LC34:
 1712 032c 5265706F 		.ascii	"Report_Freq: \000"
 1712      72745F46 
 1712      7265713A 
 1712      2000
 1713 033a 0000     		.align	2
 1714              	.LC35:
 1715 033c 44656275 		.ascii	"Debug_Freq: \000"
 1715      675F4672 
 1715      65713A20 
 1715      00
 1716 0349 000000   		.align	2
 1717              	.LC36:
 1718 034c 256400   		.ascii	"%d\000"
 1719 034f 00       		.align	2
 1720              	.LC37:
 1721 0350 53616D70 		.ascii	"Sampling frequency changed to: %d\015\012\000"
 1721      6C696E67 
 1721      20667265 
 1721      7175656E 
 1721      63792063 
 1722              		.align	2
 1723              	.LC38:
 1724 0374 436F756C 		.ascii	"Could not parse new sampling frequency value.\000"
 1724      64206E6F 
 1724      74207061 
 1724      72736520 
 1724      6E657720 
 1725 03a2 0000     		.align	2
 1726              	.LC39:
ARM GAS  C:\Users\hail\AppData\Local\Temp\ccsvwP8y.s 			page 42


 1727 03a4 5265706F 		.ascii	"Reporting frequency changed to: %d\015\012\000"
 1727      7274696E 
 1727      67206672 
 1727      65717565 
 1727      6E637920 
 1728 03c9 000000   		.align	2
 1729              	.LC40:
 1730 03cc 436F756C 		.ascii	"Could not parse new reporting frequency value.\000"
 1730      64206E6F 
 1730      74207061 
 1730      72736520 
 1730      6E657720 
 1731 03fb 00       		.align	2
 1732              	.LC41:
 1733 03fc 44656275 		.ascii	"Debug printing frequency changed to: %d\015\012\000"
 1733      67207072 
 1733      696E7469 
 1733      6E672066 
 1733      72657175 
 1734 0426 0000     		.align	2
 1735              	.LC42:
 1736 0428 436F756C 		.ascii	"Could not parse new debugging frequency value.\000"
 1736      64206E6F 
 1736      74207061 
 1736      72736520 
 1736      6E657720 
 1737              		.section	.text.get_updated_parameters_from_malcom,"ax",%progbits
 1738              		.align	2
 1739              		.global	get_updated_parameters_from_malcom
 1740              		.thumb
 1741              		.thumb_func
 1742              		.type	get_updated_parameters_from_malcom, %function
 1743              	get_updated_parameters_from_malcom:
 1744              	.LFB81:
 480:modem.c       **** 
 481:modem.c       **** // Get the update values for sampling frequency, reporting frequency, and the debug level from the 
 482:modem.c       **** void get_updated_parameters_from_malcom(){
 1745              		.loc 1 482 0
 1746              		.cfi_startproc
 1747              		@ args = 0, pretend = 0, frame = 80
 1748              		@ frame_needed = 1, uses_anonymous_args = 0
 1749 0000 90B5     		push	{r4, r7, lr}
 1750              		.cfi_def_cfa_offset 12
 1751              		.cfi_offset 4, -12
 1752              		.cfi_offset 7, -8
 1753              		.cfi_offset 14, -4
 1754 0002 95B0     		sub	sp, sp, #84
 1755              		.cfi_def_cfa_offset 96
 1756 0004 00AF     		add	r7, sp, #0
 1757              		.cfi_def_cfa_register 7
 483:modem.c       ****     
 484:modem.c       ****     // Create character array of size 1024 characters to hold the uart received string
 485:modem.c       ****     char s_sample_freq[20];
 486:modem.c       ****     char s_report_freq[20];
 487:modem.c       ****     char s_debug_freq[20];
 488:modem.c       ****     
 489:modem.c       ****     s_sample_freq[0] = '\0';
ARM GAS  C:\Users\hail\AppData\Local\Temp\ccsvwP8y.s 			page 43


 1758              		.loc 1 489 0
 1759 0006 0023     		movs	r3, #0
 1760 0008 87F83C30 		strb	r3, [r7, #60]
 490:modem.c       ****     s_report_freq[0] = '\0';
 1761              		.loc 1 490 0
 1762 000c 0023     		movs	r3, #0
 1763 000e 87F82830 		strb	r3, [r7, #40]
 491:modem.c       ****     s_debug_freq[0] = '\0';
 1764              		.loc 1 491 0
 1765 0012 0023     		movs	r3, #0
 1766 0014 3B75     		strb	r3, [r7, #20]
 492:modem.c       ****     
 493:modem.c       ****     // Extract UART string recieved from the modem and save to variables
 494:modem.c       ****     extract_string(uart_received_string,"Sample_Freq: ","\r",s_sample_freq);
 1767              		.loc 1 494 0
 1768 0016 07F13C03 		add	r3, r7, #60
 1769 001a 414A     		ldr	r2, .L115
 1770 001c 4149     		ldr	r1, .L115+4
 1771 001e 4248     		ldr	r0, .L115+8
 1772 0020 FFF7FEFF 		bl	extract_string
 495:modem.c       ****     extract_string(uart_received_string,"Report_Freq: ","\r",s_report_freq);
 1773              		.loc 1 495 0
 1774 0024 07F12803 		add	r3, r7, #40
 1775 0028 3D4A     		ldr	r2, .L115
 1776 002a 4049     		ldr	r1, .L115+12
 1777 002c 3E48     		ldr	r0, .L115+8
 1778 002e FFF7FEFF 		bl	extract_string
 496:modem.c       ****     extract_string(uart_received_string,"Debug_Freq: ","\r",s_debug_freq);
 1779              		.loc 1 496 0
 1780 0032 07F11403 		add	r3, r7, #20
 1781 0036 3A4A     		ldr	r2, .L115
 1782 0038 3D49     		ldr	r1, .L115+16
 1783 003a 3B48     		ldr	r0, .L115+8
 1784 003c FFF7FEFF 		bl	extract_string
 497:modem.c       ****     
 498:modem.c       ****     // Create variables for what is sent back from the server
 499:modem.c       ****     int sample_freq, report_freq, debug_freq;
 500:modem.c       ****     
 501:modem.c       ****     
 502:modem.c       ****     // Scan character arrays and save values 
 503:modem.c       ****     if(sscanf(s_sample_freq, "%d", &sample_freq)==1){
 1785              		.loc 1 503 0
 1786 0040 07F11002 		add	r2, r7, #16
 1787 0044 07F13C03 		add	r3, r7, #60
 1788 0048 3A49     		ldr	r1, .L115+20
 1789 004a 1846     		mov	r0, r3
 1790 004c FFF7FEFF 		bl	sscanf
 1791 0050 0346     		mov	r3, r0
 1792 0052 012B     		cmp	r3, #1
 1793 0054 19D1     		bne	.L108
 504:modem.c       ****         updatable_parameters.measure_time = sample_freq;
 1794              		.loc 1 504 0
 1795 0056 3B69     		ldr	r3, [r7, #16]
 1796 0058 DAB2     		uxtb	r2, r3
 1797 005a 374B     		ldr	r3, .L115+24
 1798 005c 1A70     		strb	r2, [r3]
 505:modem.c       ****         // Create a continuous alarm called alarmMeasure that triggers at the required time to take
ARM GAS  C:\Users\hail\AppData\Local\Temp\ccsvwP8y.s 			page 44


 506:modem.c       ****         alarmMeasure = CreateAlarm(updatable_parameters.measure_time,ALARM_TYPE_MINUTE,ALARM_TYPE_C
 1799              		.loc 1 506 0
 1800 005e 364B     		ldr	r3, .L115+24
 1801 0060 1B78     		ldrb	r3, [r3]	@ zero_extendqisi2
 1802 0062 99B2     		uxth	r1, r3
 1803 0064 354C     		ldr	r4, .L115+28
 1804 0066 3846     		mov	r0, r7
 1805 0068 0723     		movs	r3, #7
 1806 006a 0122     		movs	r2, #1
 1807 006c FFF7FEFF 		bl	CreateAlarm
 1808 0070 2246     		mov	r2, r4
 1809 0072 3B46     		mov	r3, r7
 1810 0074 1968     		ldr	r1, [r3]	@ unaligned
 1811 0076 1160     		str	r1, [r2]	@ unaligned
 1812 0078 9B88     		ldrh	r3, [r3, #4]	@ unaligned
 1813 007a 9380     		strh	r3, [r2, #4]	@ unaligned
 507:modem.c       ****         printNotif(NOTIF_TYPE_EVENT, "Sampling frequency changed to: %d\r\n", sample_freq);
 1814              		.loc 1 507 0
 1815 007c 3B69     		ldr	r3, [r7, #16]
 1816 007e 1A46     		mov	r2, r3
 1817 0080 2F49     		ldr	r1, .L115+32
 1818 0082 0020     		movs	r0, #0
 1819 0084 FFF7FEFF 		bl	printNotif
 1820 0088 03E0     		b	.L109
 1821              	.L108:
 508:modem.c       ****     }else{
 509:modem.c       ****         printNotif(NOTIF_TYPE_ERROR,"Could not parse new sampling frequency value.");
 1822              		.loc 1 509 0
 1823 008a 2E49     		ldr	r1, .L115+36
 1824 008c 0220     		movs	r0, #2
 1825 008e FFF7FEFF 		bl	printNotif
 1826              	.L109:
 510:modem.c       ****     }
 511:modem.c       ****     if(sscanf(s_report_freq, "%d", &report_freq)==1){
 1827              		.loc 1 511 0
 1828 0092 07F10C02 		add	r2, r7, #12
 1829 0096 07F12803 		add	r3, r7, #40
 1830 009a 2649     		ldr	r1, .L115+20
 1831 009c 1846     		mov	r0, r3
 1832 009e FFF7FEFF 		bl	sscanf
 1833 00a2 0346     		mov	r3, r0
 1834 00a4 012B     		cmp	r3, #1
 1835 00a6 19D1     		bne	.L110
 512:modem.c       ****         updatable_parameters.sync_time = report_freq;
 1836              		.loc 1 512 0
 1837 00a8 FB68     		ldr	r3, [r7, #12]
 1838 00aa DAB2     		uxtb	r2, r3
 1839 00ac 224B     		ldr	r3, .L115+24
 1840 00ae 5A70     		strb	r2, [r3, #1]
 513:modem.c       ****         // Create a continuous alarm called alarmSync that triggers at the required time to sync th
 514:modem.c       ****         alarmSync = CreateAlarm(updatable_parameters.sync_time,ALARM_TYPE_MINUTE,ALARM_TYPE_CONTINU
 1841              		.loc 1 514 0
 1842 00b0 214B     		ldr	r3, .L115+24
 1843 00b2 5B78     		ldrb	r3, [r3, #1]	@ zero_extendqisi2
 1844 00b4 99B2     		uxth	r1, r3
 1845 00b6 244C     		ldr	r4, .L115+40
 1846 00b8 3846     		mov	r0, r7
ARM GAS  C:\Users\hail\AppData\Local\Temp\ccsvwP8y.s 			page 45


 1847 00ba 0723     		movs	r3, #7
 1848 00bc 0122     		movs	r2, #1
 1849 00be FFF7FEFF 		bl	CreateAlarm
 1850 00c2 2246     		mov	r2, r4
 1851 00c4 3B46     		mov	r3, r7
 1852 00c6 1968     		ldr	r1, [r3]	@ unaligned
 1853 00c8 1160     		str	r1, [r2]	@ unaligned
 1854 00ca 9B88     		ldrh	r3, [r3, #4]	@ unaligned
 1855 00cc 9380     		strh	r3, [r2, #4]	@ unaligned
 515:modem.c       ****         printNotif(NOTIF_TYPE_EVENT, "Reporting frequency changed to: %d\r\n", report_freq);
 1856              		.loc 1 515 0
 1857 00ce FB68     		ldr	r3, [r7, #12]
 1858 00d0 1A46     		mov	r2, r3
 1859 00d2 1E49     		ldr	r1, .L115+44
 1860 00d4 0020     		movs	r0, #0
 1861 00d6 FFF7FEFF 		bl	printNotif
 1862 00da 03E0     		b	.L111
 1863              	.L110:
 516:modem.c       ****         }else{
 517:modem.c       ****         printNotif(NOTIF_TYPE_ERROR,"Could not parse new reporting frequency value.");
 1864              		.loc 1 517 0
 1865 00dc 1C49     		ldr	r1, .L115+48
 1866 00de 0220     		movs	r0, #2
 1867 00e0 FFF7FEFF 		bl	printNotif
 1868              	.L111:
 518:modem.c       ****     }
 519:modem.c       ****     if(sscanf(s_debug_freq, "%d", &debug_freq)==1){
 1869              		.loc 1 519 0
 1870 00e4 07F10802 		add	r2, r7, #8
 1871 00e8 07F11403 		add	r3, r7, #20
 1872 00ec 1149     		ldr	r1, .L115+20
 1873 00ee 1846     		mov	r0, r3
 1874 00f0 FFF7FEFF 		bl	sscanf
 1875 00f4 0346     		mov	r3, r0
 1876 00f6 012B     		cmp	r3, #1
 1877 00f8 0AD1     		bne	.L112
 520:modem.c       ****         updatable_parameters.debug_level = debug_freq;
 1878              		.loc 1 520 0
 1879 00fa BB68     		ldr	r3, [r7, #8]
 1880 00fc DAB2     		uxtb	r2, r3
 1881 00fe 0E4B     		ldr	r3, .L115+24
 1882 0100 9A70     		strb	r2, [r3, #2]
 521:modem.c       ****         printNotif(NOTIF_TYPE_EVENT, "Debug printing frequency changed to: %d\r\n", debug_freq);
 1883              		.loc 1 521 0
 1884 0102 BB68     		ldr	r3, [r7, #8]
 1885 0104 1A46     		mov	r2, r3
 1886 0106 1349     		ldr	r1, .L115+52
 1887 0108 0020     		movs	r0, #0
 1888 010a FFF7FEFF 		bl	printNotif
 522:modem.c       ****     }else{
 523:modem.c       ****         printNotif(NOTIF_TYPE_ERROR,"Could not parse new debugging frequency value.");
 524:modem.c       ****     }
 525:modem.c       **** }
 1889              		.loc 1 525 0
 1890 010e 03E0     		b	.L114
 1891              	.L112:
 523:modem.c       ****     }
ARM GAS  C:\Users\hail\AppData\Local\Temp\ccsvwP8y.s 			page 46


 1892              		.loc 1 523 0
 1893 0110 1149     		ldr	r1, .L115+56
 1894 0112 0220     		movs	r0, #2
 1895 0114 FFF7FEFF 		bl	printNotif
 1896              	.L114:
 1897              		.loc 1 525 0
 1898 0118 00BF     		nop
 1899 011a 5437     		adds	r7, r7, #84
 1900              		.cfi_def_cfa_offset 12
 1901 011c BD46     		mov	sp, r7
 1902              		.cfi_def_cfa_register 13
 1903              		@ sp needed
 1904 011e 90BD     		pop	{r4, r7, pc}
 1905              	.L116:
 1906              		.align	2
 1907              	.L115:
 1908 0120 88020000 		.word	.LC21
 1909 0124 1C030000 		.word	.LC33
 1910 0128 00000000 		.word	uart_received_string
 1911 012c 2C030000 		.word	.LC34
 1912 0130 3C030000 		.word	.LC35
 1913 0134 4C030000 		.word	.LC36
 1914 0138 00000000 		.word	updatable_parameters
 1915 013c 00000000 		.word	alarmMeasure
 1916 0140 50030000 		.word	.LC37
 1917 0144 74030000 		.word	.LC38
 1918 0148 00000000 		.word	alarmSync
 1919 014c A4030000 		.word	.LC39
 1920 0150 CC030000 		.word	.LC40
 1921 0154 FC030000 		.word	.LC41
 1922 0158 28040000 		.word	.LC42
 1923              		.cfi_endproc
 1924              	.LFE81:
 1925              		.size	get_updated_parameters_from_malcom, .-get_updated_parameters_from_malcom
 1926              		.section	.rodata
 1927 0457 00       		.align	2
 1928              	.LC43:
 1929 0458 41542343 		.ascii	"AT#CGMM\015\000"
 1929      474D4D0D 
 1929      00
 1930 0461 000000   		.align	2
 1931              	.LC44:
 1932 0464 4D6F6465 		.ascii	"Modem Model: %s\000"
 1932      6D204D6F 
 1932      64656C3A 
 1932      20257300 
 1933              		.align	2
 1934              	.LC45:
 1935 0474 41542343 		.ascii	"AT#CCID\015\000"
 1935      4349440D 
 1935      00
 1936 047d 000000   		.align	2
 1937              	.LC46:
 1938 0480 53494D20 		.ascii	"SIM ID: %s\000"
 1938      49443A20 
 1938      257300
 1939 048b 00       		.align	2
ARM GAS  C:\Users\hail\AppData\Local\Temp\ccsvwP8y.s 			page 47


 1940              	.LC47:
 1941 048c 41542B43 		.ascii	"AT+CGSN\015\000"
 1941      47534E0D 
 1941      00
 1942 0495 000000   		.align	2
 1943              	.LC48:
 1944 0498 494D4549 		.ascii	"IMEI: %s\000"
 1944      3A202573 
 1944      00
 1945 04a1 000000   		.align	2
 1946              	.LC49:
 1947 04a4 41542B43 		.ascii	"AT+CGDCONT=1,\"IP\",\"wireless.twilio.com\"\015\012"
 1947      4744434F 
 1947      4E543D31 
 1947      2C224950 
 1947      222C2277 
 1948 04cd 00       		.ascii	"\000"
 1949 04ce 0000     		.align	2
 1950              	.LC50:
 1951 04d0 41542B43 		.ascii	"AT+CFUN?\015\000"
 1951      46554E3F 
 1951      0D00
 1952 04da 0000     		.align	2
 1953              	.LC51:
 1954 04dc 4346554E 		.ascii	"CFUN: %s\000"
 1954      3A202573 
 1954      00
 1955 04e5 000000   		.align	2
 1956              	.LC52:
 1957 04e8 41542B43 		.ascii	"AT+CFUN=1\015\000"
 1957      46554E3D 
 1957      310D00
 1958              		.section	.text.modem_configure_settings,"ax",%progbits
 1959              		.align	2
 1960              		.global	modem_configure_settings
 1961              		.thumb
 1962              		.thumb_func
 1963              		.type	modem_configure_settings, %function
 1964              	modem_configure_settings:
 1965              	.LFB82:
 526:modem.c       ****     
 527:modem.c       **** // Configure the modem settings
 528:modem.c       **** void modem_configure_settings(){
 1966              		.loc 1 528 0
 1967              		.cfi_startproc
 1968              		@ args = 0, pretend = 0, frame = 16
 1969              		@ frame_needed = 1, uses_anonymous_args = 0
 1970 0000 80B5     		push	{r7, lr}
 1971              		.cfi_def_cfa_offset 8
 1972              		.cfi_offset 7, -8
 1973              		.cfi_offset 14, -4
 1974 0002 84B0     		sub	sp, sp, #16
 1975              		.cfi_def_cfa_offset 24
 1976 0004 00AF     		add	r7, sp, #0
 1977              		.cfi_def_cfa_register 7
 529:modem.c       ****     
 530:modem.c       ****     // Save/print modem model ID number
ARM GAS  C:\Users\hail\AppData\Local\Temp\ccsvwP8y.s 			page 48


 531:modem.c       ****     if(modem_info.model_id[0] == '\0'){
 1978              		.loc 1 531 0
 1979 0006 3C4B     		ldr	r3, .L124
 1980 0008 1B7D     		ldrb	r3, [r3, #20]	@ zero_extendqisi2
 1981 000a 002B     		cmp	r3, #0
 1982 000c 13D1     		bne	.L118
 532:modem.c       ****         // AT command #CGMM returns the "device model identification" code with the command echo.
 533:modem.c       ****         if(at_write_command("AT#CGMM\r","OK",DEFAULT_AT_TIMEOUT)){
 1983              		.loc 1 533 0
 1984 000e 4FF4FA62 		mov	r2, #2000
 1985 0012 3A49     		ldr	r1, .L124+4
 1986 0014 3A48     		ldr	r0, .L124+8
 1987 0016 FFF7FEFF 		bl	at_write_command
 1988 001a 0346     		mov	r3, r0
 1989 001c 002B     		cmp	r3, #0
 1990 001e 0AD0     		beq	.L118
 534:modem.c       ****             // Extract modem model ID number string from the UART
 535:modem.c       ****             extract_string(uart_received_string,": ","\r",modem_info.model_id);
 1991              		.loc 1 535 0
 1992 0020 384B     		ldr	r3, .L124+12
 1993 0022 394A     		ldr	r2, .L124+16
 1994 0024 3949     		ldr	r1, .L124+20
 1995 0026 3A48     		ldr	r0, .L124+24
 1996 0028 FFF7FEFF 		bl	extract_string
 536:modem.c       ****             // Print modem model ID number
 537:modem.c       ****             printNotif(NOTIF_TYPE_EVENT,"Modem Model: %s",modem_info.model_id);
 1997              		.loc 1 537 0
 1998 002c 354A     		ldr	r2, .L124+12
 1999 002e 3949     		ldr	r1, .L124+28
 2000 0030 0020     		movs	r0, #0
 2001 0032 FFF7FEFF 		bl	printNotif
 2002              	.L118:
 538:modem.c       ****         }
 539:modem.c       ****     }
 540:modem.c       ****     
 541:modem.c       ****    // Save/print SIM-card ID
 542:modem.c       ****    if(modem_info.sim_id[0] == '\0'){
 2003              		.loc 1 542 0
 2004 0036 304B     		ldr	r3, .L124
 2005 0038 1B78     		ldrb	r3, [r3]	@ zero_extendqisi2
 2006 003a 002B     		cmp	r3, #0
 2007 003c 13D1     		bne	.L119
 543:modem.c       ****         // AT command #CCID is an execution command that reads the SIM number 
 544:modem.c       ****         if(at_write_command("AT#CCID\r", "OK", DEFAULT_AT_TIMEOUT)){
 2008              		.loc 1 544 0
 2009 003e 4FF4FA62 		mov	r2, #2000
 2010 0042 2E49     		ldr	r1, .L124+4
 2011 0044 3448     		ldr	r0, .L124+32
 2012 0046 FFF7FEFF 		bl	at_write_command
 2013 004a 0346     		mov	r3, r0
 2014 004c 002B     		cmp	r3, #0
 2015 004e 0AD0     		beq	.L119
 545:modem.c       ****             // Extract SIM-card ID string from the UART
 546:modem.c       ****             extract_string(uart_received_string,": ","\r",modem_info.sim_id);
 2016              		.loc 1 546 0
 2017 0050 294B     		ldr	r3, .L124
 2018 0052 2D4A     		ldr	r2, .L124+16
ARM GAS  C:\Users\hail\AppData\Local\Temp\ccsvwP8y.s 			page 49


 2019 0054 2D49     		ldr	r1, .L124+20
 2020 0056 2E48     		ldr	r0, .L124+24
 2021 0058 FFF7FEFF 		bl	extract_string
 547:modem.c       ****             printNotif(NOTIF_TYPE_EVENT,"SIM ID: %s",modem_info.sim_id);
 2022              		.loc 1 547 0
 2023 005c 264A     		ldr	r2, .L124
 2024 005e 2F49     		ldr	r1, .L124+36
 2025 0060 0020     		movs	r0, #0
 2026 0062 FFF7FEFF 		bl	printNotif
 2027              	.L119:
 548:modem.c       ****         }
 549:modem.c       ****    }
 550:modem.c       **** 
 551:modem.c       ****     // Save/print modem IMEI
 552:modem.c       ****     if(modem_info.imei[0] == '\0'){
 2028              		.loc 1 552 0
 2029 0066 244B     		ldr	r3, .L124
 2030 0068 93F82830 		ldrb	r3, [r3, #40]	@ zero_extendqisi2
 2031 006c 002B     		cmp	r3, #0
 2032 006e 13D1     		bne	.L120
 553:modem.c       ****         // AT command #CGSN returns the product serial number, identified as the IMEI of the mobile
 554:modem.c       ****         if(at_write_command("AT+CGSN\r","OK",DEFAULT_AT_TIMEOUT)){
 2033              		.loc 1 554 0
 2034 0070 4FF4FA62 		mov	r2, #2000
 2035 0074 2149     		ldr	r1, .L124+4
 2036 0076 2A48     		ldr	r0, .L124+40
 2037 0078 FFF7FEFF 		bl	at_write_command
 2038 007c 0346     		mov	r3, r0
 2039 007e 002B     		cmp	r3, #0
 2040 0080 0AD0     		beq	.L120
 555:modem.c       ****             // Extract modem IMEI number string from the UART
 556:modem.c       ****             extract_string(uart_received_string,": ","\r",modem_info.imei);
 2041              		.loc 1 556 0
 2042 0082 284B     		ldr	r3, .L124+44
 2043 0084 204A     		ldr	r2, .L124+16
 2044 0086 2149     		ldr	r1, .L124+20
 2045 0088 2148     		ldr	r0, .L124+24
 2046 008a FFF7FEFF 		bl	extract_string
 557:modem.c       ****             // Print modem IMEI number
 558:modem.c       ****             printNotif(NOTIF_TYPE_EVENT,"IMEI: %s",modem_info.imei);
 2047              		.loc 1 558 0
 2048 008e 254A     		ldr	r2, .L124+44
 2049 0090 2549     		ldr	r1, .L124+48
 2050 0092 0020     		movs	r0, #0
 2051 0094 FFF7FEFF 		bl	printNotif
 2052              	.L120:
 559:modem.c       ****         } 
 560:modem.c       ****     }
 561:modem.c       ****     
 562:modem.c       ****     // Configure protocol and cellular end point
 563:modem.c       ****     // AT command +CGDCONT defines the PDP context parameter values for a PDP context identified by
 564:modem.c       ****     at_write_command("AT+CGDCONT=1,\"IP\",\"wireless.twilio.com\"\r\n", "OK", DEFAULT_AT_TIMEOUT);
 2053              		.loc 1 564 0
 2054 0098 4FF4FA62 		mov	r2, #2000
 2055 009c 1749     		ldr	r1, .L124+4
 2056 009e 2348     		ldr	r0, .L124+52
 2057 00a0 FFF7FEFF 		bl	at_write_command
ARM GAS  C:\Users\hail\AppData\Local\Temp\ccsvwP8y.s 			page 50


 565:modem.c       ****     
 566:modem.c       ****     // Check if modem power savings is enabled. If so, disable it so we can send data.
 567:modem.c       ****     // AT command +CFUN? is a read command that reports the current setting of <fun> which is the p
 568:modem.c       ****     if(at_write_command("AT+CFUN?\r", "OK",DEFAULT_AT_TIMEOUT)){
 2058              		.loc 1 568 0
 2059 00a4 4FF4FA62 		mov	r2, #2000
 2060 00a8 1449     		ldr	r1, .L124+4
 2061 00aa 2148     		ldr	r0, .L124+56
 2062 00ac FFF7FEFF 		bl	at_write_command
 2063 00b0 0346     		mov	r3, r0
 2064 00b2 002B     		cmp	r3, #0
 2065 00b4 1BD0     		beq	.L123
 2066              	.LBB12:
 569:modem.c       ****         char CFUN[10]; // Create a character array of length 10 called CFUN 
 570:modem.c       ****         CFUN[0] = '\0';
 2067              		.loc 1 570 0
 2068 00b6 0023     		movs	r3, #0
 2069 00b8 3B71     		strb	r3, [r7, #4]
 571:modem.c       ****         // Extract UART string recieved from the modem
 572:modem.c       ****         extract_string(uart_received_string,": ","\r",CFUN);
 2070              		.loc 1 572 0
 2071 00ba 3B1D     		adds	r3, r7, #4
 2072 00bc 124A     		ldr	r2, .L124+16
 2073 00be 1349     		ldr	r1, .L124+20
 2074 00c0 1348     		ldr	r0, .L124+24
 2075 00c2 FFF7FEFF 		bl	extract_string
 573:modem.c       ****         // Print UART string recieved from the modem
 574:modem.c       ****         printNotif(NOTIF_TYPE_EVENT,"CFUN: %s",CFUN);
 2076              		.loc 1 574 0
 2077 00c6 3B1D     		adds	r3, r7, #4
 2078 00c8 1A46     		mov	r2, r3
 2079 00ca 1A49     		ldr	r1, .L124+60
 2080 00cc 0020     		movs	r0, #0
 2081 00ce FFF7FEFF 		bl	printNotif
 575:modem.c       ****         // Search CRUN for "1", if "1" exists, it will return 1u otherwise it will return NULL
 576:modem.c       ****         // If it returns NULL, then write another command to the modem
 577:modem.c       ****         if(strstr(CFUN,"1") == NULL){
 2082              		.loc 1 577 0
 2083 00d2 3B1D     		adds	r3, r7, #4
 2084 00d4 3121     		movs	r1, #49
 2085 00d6 1846     		mov	r0, r3
 2086 00d8 FFF7FEFF 		bl	strchr
 2087 00dc 0346     		mov	r3, r0
 2088 00de 002B     		cmp	r3, #0
 2089 00e0 05D1     		bne	.L123
 578:modem.c       ****             // AT command +CFUN= is a set command which selects the level of functionality in the m
 579:modem.c       ****             // = 1 means mobile full functionality with power saving disabled 
 580:modem.c       ****             at_write_command("AT+CFUN=1\r", "OK",DEFAULT_AT_TIMEOUT);
 2090              		.loc 1 580 0
 2091 00e2 4FF4FA62 		mov	r2, #2000
 2092 00e6 0549     		ldr	r1, .L124+4
 2093 00e8 1348     		ldr	r0, .L124+64
 2094 00ea FFF7FEFF 		bl	at_write_command
 2095              	.L123:
 2096              	.LBE12:
 581:modem.c       ****         }
 582:modem.c       ****     }
ARM GAS  C:\Users\hail\AppData\Local\Temp\ccsvwP8y.s 			page 51


 583:modem.c       **** 
 584:modem.c       ****     
 585:modem.c       **** }
 2097              		.loc 1 585 0
 2098 00ee 00BF     		nop
 2099 00f0 1037     		adds	r7, r7, #16
 2100              		.cfi_def_cfa_offset 8
 2101 00f2 BD46     		mov	sp, r7
 2102              		.cfi_def_cfa_register 13
 2103              		@ sp needed
 2104 00f4 80BD     		pop	{r7, pc}
 2105              	.L125:
 2106 00f6 00BF     		.align	2
 2107              	.L124:
 2108 00f8 00000000 		.word	modem_info
 2109 00fc 00000000 		.word	.LC0
 2110 0100 58040000 		.word	.LC43
 2111 0104 14000000 		.word	modem_info+20
 2112 0108 88020000 		.word	.LC21
 2113 010c 8C020000 		.word	.LC22
 2114 0110 00000000 		.word	uart_received_string
 2115 0114 64040000 		.word	.LC44
 2116 0118 74040000 		.word	.LC45
 2117 011c 80040000 		.word	.LC46
 2118 0120 8C040000 		.word	.LC47
 2119 0124 28000000 		.word	modem_info+40
 2120 0128 98040000 		.word	.LC48
 2121 012c A4040000 		.word	.LC49
 2122 0130 D0040000 		.word	.LC50
 2123 0134 DC040000 		.word	.LC51
 2124 0138 E8040000 		.word	.LC52
 2125              		.cfi_endproc
 2126              	.LFE82:
 2127              		.size	modem_configure_settings, .-modem_configure_settings
 2128              		.section	.rodata
 2129 04f3 00       		.align	2
 2130              	.LC53:
 2131 04f4 4D6F6465 		.ascii	"Modem not ready to get time. Not conncted to networ"
 2131      6D206E6F 
 2131      74207265 
 2131      61647920 
 2131      746F2067 
 2132 0527 6B2E00   		.ascii	"k.\000"
 2133 052a 0000     		.align	2
 2134              	.LC54:
 2135 052c 41542B43 		.ascii	"AT+CCLK?\015\000"
 2135      434C4B3F 
 2135      0D00
 2136 0536 0000     		.align	2
 2137              	.LC55:
 2138 0538 220D00   		.ascii	"\"\015\000"
 2139 053b 00       		.align	2
 2140              	.LC56:
 2141 053c 3A202200 		.ascii	": \"\000"
 2142              		.align	2
 2143              	.LC57:
 2144 0540 25642F25 		.ascii	"%d/%d/%d,%d:%d:%d-%d\000"
ARM GAS  C:\Users\hail\AppData\Local\Temp\ccsvwP8y.s 			page 52


 2144      642F2564 
 2144      2C25643A 
 2144      25643A25 
 2144      642D2564 
 2145 0555 000000   		.align	2
 2146              	.LC58:
 2147 0558 25642F25 		.ascii	"%d/%d/%d,%d:%d:%d+%d\000"
 2147      642F2564 
 2147      2C25643A 
 2147      25643A25 
 2147      642B2564 
 2148 056d 000000   		.align	2
 2149              	.LC59:
 2150 0570 436F756C 		.ascii	"Could not parse modem time.\000"
 2150      64206E6F 
 2150      74207061 
 2150      72736520 
 2150      6D6F6465 
 2151              		.section	.text.modem_get_network_time,"ax",%progbits
 2152              		.align	2
 2153              		.global	modem_get_network_time
 2154              		.thumb
 2155              		.thumb_func
 2156              		.type	modem_get_network_time, %function
 2157              	modem_get_network_time:
 2158              	.LFB83:
 586:modem.c       **** 
 587:modem.c       **** //returns 0 if modem can't get time
 588:modem.c       **** long modem_get_network_time(){
 2159              		.loc 1 588 0
 2160              		.cfi_startproc
 2161              		@ args = 0, pretend = 0, frame = 104
 2162              		@ frame_needed = 1, uses_anonymous_args = 0
 2163 0000 80B5     		push	{r7, lr}
 2164              		.cfi_def_cfa_offset 8
 2165              		.cfi_offset 7, -8
 2166              		.cfi_offset 14, -4
 2167 0002 A0B0     		sub	sp, sp, #128
 2168              		.cfi_def_cfa_offset 136
 2169 0004 06AF     		add	r7, sp, #24
 2170              		.cfi_def_cfa 7, 112
 589:modem.c       ****     
 590:modem.c       ****     //modem reposen format (careful to include the quotes "")
 591:modem.c       ****     //+CCLK: "20/05/01,10:48:33-16" the "-16" is the number of quarter hourts (15 mins) from GMT ti
 592:modem.c       ****     //ex: 14:48 GMT
 593:modem.c       **** 
 594:modem.c       ****     // If modem_state is not "ready", then print error and return 0
 595:modem.c       ****     if(modem_state != MODEM_STATE_READY){
 2171              		.loc 1 595 0
 2172 0006 444B     		ldr	r3, .L133
 2173 0008 1B78     		ldrb	r3, [r3]	@ zero_extendqisi2
 2174 000a 042B     		cmp	r3, #4
 2175 000c 05D0     		beq	.L127
 596:modem.c       ****         printNotif(NOTIF_TYPE_ERROR,"Modem not ready to get time. Not conncted to network.");
 2176              		.loc 1 596 0
 2177 000e 4349     		ldr	r1, .L133+4
 2178 0010 0220     		movs	r0, #2
ARM GAS  C:\Users\hail\AppData\Local\Temp\ccsvwP8y.s 			page 53


 2179 0012 FFF7FEFF 		bl	printNotif
 597:modem.c       ****         return 0;   
 2180              		.loc 1 597 0
 2181 0016 0023     		movs	r3, #0
 2182 0018 7AE0     		b	.L128
 2183              	.L127:
 598:modem.c       ****     }
 599:modem.c       ****     long epoch_time = 0; // Create variable of long time and set equal to 0
 2184              		.loc 1 599 0
 2185 001a 0023     		movs	r3, #0
 2186 001c 7B66     		str	r3, [r7, #100]
 600:modem.c       ****     
 601:modem.c       ****     // AT command +CCLK? is a read command that returns the current setting of the real-time clock 
 602:modem.c       ****     if(at_write_command("AT+CCLK?\r","OK",DEFAULT_AT_TIMEOUT)){
 2187              		.loc 1 602 0
 2188 001e 4FF4FA62 		mov	r2, #2000
 2189 0022 3F49     		ldr	r1, .L133+8
 2190 0024 3F48     		ldr	r0, .L133+12
 2191 0026 FFF7FEFF 		bl	at_write_command
 2192 002a 0346     		mov	r3, r0
 2193 002c 002B     		cmp	r3, #0
 2194 002e 6ED0     		beq	.L129
 2195              	.LBB13:
 603:modem.c       ****         // need to set this to /0
 604:modem.c       ****         char network_time[30]; // Create a character array of length 30 called network_time 
 605:modem.c       ****         network_time[0] = '\0';
 2196              		.loc 1 605 0
 2197 0030 0023     		movs	r3, #0
 2198 0032 87F84430 		strb	r3, [r7, #68]
 606:modem.c       ****         // Extract UART string recieved from the modem and save to variable network_time
 607:modem.c       ****         extract_string(uart_received_string,": \"","\"\r",network_time);
 2199              		.loc 1 607 0
 2200 0036 07F14403 		add	r3, r7, #68
 2201 003a 3B4A     		ldr	r2, .L133+16
 2202 003c 3B49     		ldr	r1, .L133+20
 2203 003e 3C48     		ldr	r0, .L133+24
 2204 0040 FFF7FEFF 		bl	extract_string
 608:modem.c       ****         
 609:modem.c       ****         ///////////////////  
 610:modem.c       ****         struct tm t; // Creates variable t of struct tm
 611:modem.c       ****         
 612:modem.c       ****         // Creates a bunch of variables of type int and sets them to 0
 613:modem.c       ****         int year, month, day, hour, minute, second, gmt_offset = 0;
 2205              		.loc 1 613 0
 2206 0044 0023     		movs	r3, #0
 2207 0046 BB62     		str	r3, [r7, #40]
 614:modem.c       ****       
 615:modem.c       ****         // Determines the GMT offset 
 616:modem.c       ****         // int sscanf(const char *str, const char *format, ...) reads formatted input from a string
 617:modem.c       ****         // On success, the function returns the number of variables filled. In the case of an input
 618:modem.c       ****         if(sscanf(network_time,"%d/%d/%d,%d:%d:%d-%d",&year,&month,&day,&hour,&minute,&second,&gmt_
 2208              		.loc 1 618 0
 2209 0048 07F13C01 		add	r1, r7, #60
 2210 004c 07F14002 		add	r2, r7, #64
 2211 0050 07F14400 		add	r0, r7, #68
 2212 0054 07F12803 		add	r3, r7, #40
 2213 0058 0493     		str	r3, [sp, #16]
ARM GAS  C:\Users\hail\AppData\Local\Temp\ccsvwP8y.s 			page 54


 2214 005a 07F12C03 		add	r3, r7, #44
 2215 005e 0393     		str	r3, [sp, #12]
 2216 0060 07F13003 		add	r3, r7, #48
 2217 0064 0293     		str	r3, [sp, #8]
 2218 0066 07F13403 		add	r3, r7, #52
 2219 006a 0193     		str	r3, [sp, #4]
 2220 006c 07F13803 		add	r3, r7, #56
 2221 0070 0093     		str	r3, [sp]
 2222 0072 0B46     		mov	r3, r1
 2223 0074 2F49     		ldr	r1, .L133+28
 2224 0076 FFF7FEFF 		bl	sscanf
 2225 007a 0346     		mov	r3, r0
 2226 007c 072B     		cmp	r3, #7
 2227 007e 06D1     		bne	.L130
 619:modem.c       ****             gmt_offset = gmt_offset*(900);
 2228              		.loc 1 619 0
 2229 0080 BB6A     		ldr	r3, [r7, #40]
 2230 0082 4FF46172 		mov	r2, #900
 2231 0086 02FB03F3 		mul	r3, r2, r3
 2232 008a BB62     		str	r3, [r7, #40]
 2233 008c 27E0     		b	.L131
 2234              	.L130:
 620:modem.c       ****         }else if(sscanf(network_time,"%d/%d/%d,%d:%d:%d+%d",&year,&month,&day,&hour,&minute,&second
 2235              		.loc 1 620 0
 2236 008e 07F13C01 		add	r1, r7, #60
 2237 0092 07F14002 		add	r2, r7, #64
 2238 0096 07F14400 		add	r0, r7, #68
 2239 009a 07F12803 		add	r3, r7, #40
 2240 009e 0493     		str	r3, [sp, #16]
 2241 00a0 07F12C03 		add	r3, r7, #44
 2242 00a4 0393     		str	r3, [sp, #12]
 2243 00a6 07F13003 		add	r3, r7, #48
 2244 00aa 0293     		str	r3, [sp, #8]
 2245 00ac 07F13403 		add	r3, r7, #52
 2246 00b0 0193     		str	r3, [sp, #4]
 2247 00b2 07F13803 		add	r3, r7, #56
 2248 00b6 0093     		str	r3, [sp]
 2249 00b8 0B46     		mov	r3, r1
 2250 00ba 1F49     		ldr	r1, .L133+32
 2251 00bc FFF7FEFF 		bl	sscanf
 2252 00c0 0346     		mov	r3, r0
 2253 00c2 072B     		cmp	r3, #7
 2254 00c4 05D1     		bne	.L132
 621:modem.c       ****             gmt_offset = gmt_offset*(-900);
 2255              		.loc 1 621 0
 2256 00c6 BB6A     		ldr	r3, [r7, #40]
 2257 00c8 1C4A     		ldr	r2, .L133+36
 2258 00ca 02FB03F3 		mul	r3, r2, r3
 2259 00ce BB62     		str	r3, [r7, #40]
 2260 00d0 05E0     		b	.L131
 2261              	.L132:
 622:modem.c       ****         }else{
 623:modem.c       ****             printNotif(NOTIF_TYPE_ERROR,"Could not parse modem time.");
 2262              		.loc 1 623 0
 2263 00d2 1B49     		ldr	r1, .L133+40
 2264 00d4 0220     		movs	r0, #2
 2265 00d6 FFF7FEFF 		bl	printNotif
ARM GAS  C:\Users\hail\AppData\Local\Temp\ccsvwP8y.s 			page 55


 624:modem.c       ****             return 0;  // Return 0 if cannot get time 
 2266              		.loc 1 624 0
 2267 00da 0023     		movs	r3, #0
 2268 00dc 18E0     		b	.L128
 2269              	.L131:
 625:modem.c       ****         }
 626:modem.c       ****         
 627:modem.c       ****         // Sets each variable to the correct time 
 628:modem.c       ****         t.tm_sec = second;
 2270              		.loc 1 628 0
 2271 00de FB6A     		ldr	r3, [r7, #44]
 2272 00e0 7B60     		str	r3, [r7, #4]
 629:modem.c       ****         t.tm_min = minute;
 2273              		.loc 1 629 0
 2274 00e2 3B6B     		ldr	r3, [r7, #48]
 2275 00e4 BB60     		str	r3, [r7, #8]
 630:modem.c       ****         t.tm_hour = hour;
 2276              		.loc 1 630 0
 2277 00e6 7B6B     		ldr	r3, [r7, #52]
 2278 00e8 FB60     		str	r3, [r7, #12]
 631:modem.c       ****         t.tm_year = year + 100;    // Year since 1900
 2279              		.loc 1 631 0
 2280 00ea 3B6C     		ldr	r3, [r7, #64]
 2281 00ec 6433     		adds	r3, r3, #100
 2282 00ee BB61     		str	r3, [r7, #24]
 632:modem.c       ****         t.tm_mon = month-1;        // Month, where 0 = jan
 2283              		.loc 1 632 0
 2284 00f0 FB6B     		ldr	r3, [r7, #60]
 2285 00f2 013B     		subs	r3, r3, #1
 2286 00f4 7B61     		str	r3, [r7, #20]
 633:modem.c       ****         t.tm_mday = day;           // Day of the month
 2287              		.loc 1 633 0
 2288 00f6 BB6B     		ldr	r3, [r7, #56]
 2289 00f8 3B61     		str	r3, [r7, #16]
 634:modem.c       ****         t.tm_isdst = 0;            // Is Daylight Savings on? 1 = yes, 0 = no, -1 = unknown
 2290              		.loc 1 634 0
 2291 00fa 0023     		movs	r3, #0
 2292 00fc 7B62     		str	r3, [r7, #36]
 635:modem.c       ****     
 636:modem.c       ****         // Set variable epoch-time to be equal to the local time plus the GMT offset
 637:modem.c       ****         // the mktime function converts a broken-down local time (pointed to by timeptr) and return
 638:modem.c       ****         epoch_time = mktime(&t) + gmt_offset;
 2293              		.loc 1 638 0
 2294 00fe 3B1D     		adds	r3, r7, #4
 2295 0100 1846     		mov	r0, r3
 2296 0102 FFF7FEFF 		bl	mktime
 2297 0106 0246     		mov	r2, r0
 2298 0108 BB6A     		ldr	r3, [r7, #40]
 2299 010a 1344     		add	r3, r3, r2
 2300 010c 7B66     		str	r3, [r7, #100]
 2301              	.L129:
 2302              	.LBE13:
 639:modem.c       ****     }
 640:modem.c       ****     
 641:modem.c       ****     return epoch_time;
 2303              		.loc 1 641 0
 2304 010e 7B6E     		ldr	r3, [r7, #100]
ARM GAS  C:\Users\hail\AppData\Local\Temp\ccsvwP8y.s 			page 56


 2305              	.L128:
 642:modem.c       **** }
 2306              		.loc 1 642 0
 2307 0110 1846     		mov	r0, r3
 2308 0112 6837     		adds	r7, r7, #104
 2309              		.cfi_def_cfa_offset 8
 2310 0114 BD46     		mov	sp, r7
 2311              		.cfi_def_cfa_register 13
 2312              		@ sp needed
 2313 0116 80BD     		pop	{r7, pc}
 2314              	.L134:
 2315              		.align	2
 2316              	.L133:
 2317 0118 00000000 		.word	modem_state
 2318 011c F4040000 		.word	.LC53
 2319 0120 00000000 		.word	.LC0
 2320 0124 2C050000 		.word	.LC54
 2321 0128 38050000 		.word	.LC55
 2322 012c 3C050000 		.word	.LC56
 2323 0130 00000000 		.word	uart_received_string
 2324 0134 40050000 		.word	.LC57
 2325 0138 58050000 		.word	.LC58
 2326 013c 7CFCFFFF 		.word	-900
 2327 0140 70050000 		.word	.LC59
 2328              		.cfi_endproc
 2329              	.LFE83:
 2330              		.size	modem_get_network_time, .-modem_get_network_time
 2331              		.section	.text.modem_get_state,"ax",%progbits
 2332              		.align	2
 2333              		.global	modem_get_state
 2334              		.thumb
 2335              		.thumb_func
 2336              		.type	modem_get_state, %function
 2337              	modem_get_state:
 2338              	.LFB84:
 643:modem.c       **** 
 644:modem.c       **** // Get the modem state
 645:modem.c       **** uint8 modem_get_state(){
 2339              		.loc 1 645 0
 2340              		.cfi_startproc
 2341              		@ args = 0, pretend = 0, frame = 0
 2342              		@ frame_needed = 1, uses_anonymous_args = 0
 2343              		@ link register save eliminated.
 2344 0000 80B4     		push	{r7}
 2345              		.cfi_def_cfa_offset 4
 2346              		.cfi_offset 7, -4
 2347 0002 00AF     		add	r7, sp, #0
 2348              		.cfi_def_cfa_register 7
 646:modem.c       ****     return modem_state;
 2349              		.loc 1 646 0
 2350 0004 024B     		ldr	r3, .L137
 2351 0006 1B78     		ldrb	r3, [r3]	@ zero_extendqisi2
 647:modem.c       **** }
 2352              		.loc 1 647 0
 2353 0008 1846     		mov	r0, r3
 2354 000a BD46     		mov	sp, r7
 2355              		.cfi_def_cfa_register 13
ARM GAS  C:\Users\hail\AppData\Local\Temp\ccsvwP8y.s 			page 57


 2356              		@ sp needed
 2357 000c 80BC     		pop	{r7}
 2358              		.cfi_restore 7
 2359              		.cfi_def_cfa_offset 0
 2360 000e 7047     		bx	lr
 2361              	.L138:
 2362              		.align	2
 2363              	.L137:
 2364 0010 00000000 		.word	modem_state
 2365              		.cfi_endproc
 2366              	.LFE84:
 2367              		.size	modem_get_state, .-modem_get_state
 2368              		.section	.text.modem_sleep,"ax",%progbits
 2369              		.align	2
 2370              		.global	modem_sleep
 2371              		.thumb
 2372              		.thumb_func
 2373              		.type	modem_sleep, %function
 2374              	modem_sleep:
 2375              	.LFB85:
 648:modem.c       **** 
 649:modem.c       **** // Set modem to sleep
 650:modem.c       **** void modem_sleep(){
 2376              		.loc 1 650 0
 2377              		.cfi_startproc
 2378              		@ args = 0, pretend = 0, frame = 0
 2379              		@ frame_needed = 1, uses_anonymous_args = 0
 2380 0000 80B5     		push	{r7, lr}
 2381              		.cfi_def_cfa_offset 8
 2382              		.cfi_offset 7, -8
 2383              		.cfi_offset 14, -4
 2384 0002 00AF     		add	r7, sp, #0
 2385              		.cfi_def_cfa_register 7
 651:modem.c       ****     // If the modem_state is not "off" then put it to sleep
 652:modem.c       ****     if(modem_get_state() != MODEM_STATE_OFF){
 2386              		.loc 1 652 0
 2387 0004 FFF7FEFF 		bl	modem_get_state
 2388 0008 0346     		mov	r3, r0
 2389 000a 002B     		cmp	r3, #0
 2390 000c 03D0     		beq	.L141
 653:modem.c       **** 
 654:modem.c       ****         Telit_ControlReg_Sleep(); // Prepares the modem for entering the low power mode.
 2391              		.loc 1 654 0
 2392 000e FFF7FEFF 		bl	Telit_ControlReg_Sleep
 655:modem.c       ****         UART_Telit_Sleep(); // Saves the current component state, calls the UART_Telit_Stop() funct
 2393              		.loc 1 655 0
 2394 0012 FFF7FEFF 		bl	UART_Telit_Sleep
 2395              	.L141:
 656:modem.c       ****         
 657:modem.c       ****         // Set interrupt on RX pin to wakeup chip from sleep if UART comm starts
 658:modem.c       ****        // Rx_Telit_SetInterruptMode(Rx_Telit_0_INTR,Rx_Telit_INTR_FALLING);
 659:modem.c       ****      }
 660:modem.c       **** }
 2396              		.loc 1 660 0
 2397 0016 00BF     		nop
 2398 0018 80BD     		pop	{r7, pc}
 2399              		.cfi_endproc
ARM GAS  C:\Users\hail\AppData\Local\Temp\ccsvwP8y.s 			page 58


 2400              	.LFE85:
 2401              		.size	modem_sleep, .-modem_sleep
 2402 001a 00BF     		.section	.text.modem_wakeup,"ax",%progbits
 2403              		.align	2
 2404              		.global	modem_wakeup
 2405              		.thumb
 2406              		.thumb_func
 2407              		.type	modem_wakeup, %function
 2408              	modem_wakeup:
 2409              	.LFB86:
 661:modem.c       **** 
 662:modem.c       **** // Wakeup the modem
 663:modem.c       **** void modem_wakeup(){
 2410              		.loc 1 663 0
 2411              		.cfi_startproc
 2412              		@ args = 0, pretend = 0, frame = 0
 2413              		@ frame_needed = 1, uses_anonymous_args = 0
 2414 0000 80B5     		push	{r7, lr}
 2415              		.cfi_def_cfa_offset 8
 2416              		.cfi_offset 7, -8
 2417              		.cfi_offset 14, -4
 2418 0002 00AF     		add	r7, sp, #0
 2419              		.cfi_def_cfa_register 7
 664:modem.c       ****     // If modem state is not off then wake it up
 665:modem.c       ****     if(modem_get_state() != MODEM_STATE_OFF){
 2420              		.loc 1 665 0
 2421 0004 FFF7FEFF 		bl	modem_get_state
 2422 0008 0346     		mov	r3, r0
 2423 000a 002B     		cmp	r3, #0
 2424 000c 0BD0     		beq	.L144
 666:modem.c       ****         Telit_ControlReg_Wakeup(); // Restores the modem after waking up from the low power mode.
 2425              		.loc 1 666 0
 2426 000e FFF7FEFF 		bl	Telit_ControlReg_Wakeup
 667:modem.c       ****         // Calls the UART_Telit_RestoreConfig() function to restore the configuration.
 668:modem.c       ****         // If the modem was enabled before the UART_Telit_Sleep() function was called, the UART_Tel
 669:modem.c       ****         UART_Telit_Wakeup();
 2427              		.loc 1 669 0
 2428 0012 FFF7FEFF 		bl	UART_Telit_Wakeup
 670:modem.c       ****         // Remove the need for this pin itterupt
 671:modem.c       ****         //Rx_Telit_SetInterruptMode(Rx_Telit_0_INTR,Rx_Telit_INTR_NONE);
 672:modem.c       ****         
 673:modem.c       ****         // If woken up from pin, go ahead and delay for 100ms to allow modem UART to deliver the me
 674:modem.c       ****         if(modem_get_state() == MODEM_STATE_WAITING_FOR_IP){
 2429              		.loc 1 674 0
 2430 0016 FFF7FEFF 		bl	modem_get_state
 2431 001a 0346     		mov	r3, r0
 2432 001c 032B     		cmp	r3, #3
 2433 001e 02D1     		bne	.L144
 675:modem.c       ****             CyDelay(100u);
 2434              		.loc 1 675 0
 2435 0020 6420     		movs	r0, #100
 2436 0022 FFF7FEFF 		bl	CyDelay
 2437              	.L144:
 676:modem.c       ****         }
 677:modem.c       ****      }
 678:modem.c       **** }
 2438              		.loc 1 678 0
ARM GAS  C:\Users\hail\AppData\Local\Temp\ccsvwP8y.s 			page 59


 2439 0026 00BF     		nop
 2440 0028 80BD     		pop	{r7, pc}
 2441              		.cfi_endproc
 2442              	.LFE86:
 2443              		.size	modem_wakeup, .-modem_wakeup
 2444 002a 00BF     		.section	.rodata
 2445              		.align	2
 2446              	.LC60:
 2447 058c 41542347 		.ascii	"AT#GPIO=5,1,1,0\015\000"
 2447      50494F3D 
 2447      352C312C 
 2447      312C300D 
 2447      00
 2448 059d 000000   		.align	2
 2449              	.LC61:
 2450 05a0 41542453 		.ascii	"AT$SUPLSEC=1\015\000"
 2450      55504C53 
 2450      45433D31 
 2450      0D00
 2451 05ae 0000     		.align	2
 2452              	.LC62:
 2453 05b0 41542453 		.ascii	"AT$SUPLV=2\015\000"
 2453      55504C56 
 2453      3D320D00 
 2454              		.align	2
 2455              	.LC63:
 2456 05bc 41542441 		.ascii	"AT$AGPSEN=1\015\000"
 2456      47505345 
 2456      4E3D310D 
 2456      00
 2457 05c9 000000   		.align	2
 2458              	.LC64:
 2459 05cc 41542453 		.ascii	"AT$SLP=1,\"supl.google.com:7275\"\015\000"
 2459      4C503D31 
 2459      2C227375 
 2459      706C2E67 
 2459      6F6F676C 
 2460 05ed 000000   		.align	2
 2461              	.LC65:
 2462 05f0 41542353 		.ascii	"AT#SGACT=1,0\015\012\000"
 2462      47414354 
 2462      3D312C30 
 2462      0D0A00
 2463 05ff 00       		.align	2
 2464              	.LC66:
 2465 0600 4154244C 		.ascii	"AT$LCSLK=1,1\015\000"
 2465      43534C4B 
 2465      3D312C31 
 2465      0D00
 2466 060e 0000     		.align	2
 2467              	.LC67:
 2468 0610 41542447 		.ascii	"AT$GPSSLSR=1,1,,,,,2\015\000"
 2468      5053534C 
 2468      53523D31 
 2468      2C312C2C 
 2468      2C2C2C32 
 2469 0626 0000     		.align	2
ARM GAS  C:\Users\hail\AppData\Local\Temp\ccsvwP8y.s 			page 60


 2470              	.LC68:
 2471 0628 4E00     		.ascii	"N\000"
 2472 062a 0000     		.align	2
 2473              	.LC69:
 2474 062c 41542447 		.ascii	"AT$GPSACP\015\000"
 2474      50534143 
 2474      500D00
 2475 0637 00       		.align	2
 2476              	.LC70:
 2477 0638 24475053 		.ascii	"$GPSACP: \000"
 2477      4143503A 
 2477      2000
 2478 0642 0000     		.align	2
 2479              	.LC71:
 2480 0644 24475053 		.ascii	"$GPSACP: %*f,%fN,%fW,%*f,%f,%*s\000"
 2480      4143503A 
 2480      20252A66 
 2480      2C25664E 
 2480      2C256657 
 2481              		.global	__aeabi_fdiv
 2482              		.global	__aeabi_f2d
 2483              		.global	__aeabi_ddiv
 2484              		.global	__aeabi_dadd
 2485              		.global	__aeabi_d2f
 2486              		.align	2
 2487              	.LC72:
 2488 0664 41542347 		.ascii	"AT#GPIO=5,0,1,0\015\000"
 2488      50494F3D 
 2488      352C302C 
 2488      312C300D 
 2488      00
 2489 0675 000000   		.align	2
 2490              	.LC73:
 2491 0678 41542447 		.ascii	"AT$GPSR=0\015\000"
 2491      5053523D 
 2491      300D00
 2492 0683 00       		.align	2
 2493              	.LC74:
 2494 0684 54696D65 		.ascii	"Time to lock GPS: %d\000"
 2494      20746F20 
 2494      6C6F636B 
 2494      20475053 
 2494      3A202564 
 2495              		.section	.text.modem_get_gps_coordinates,"ax",%progbits
 2496              		.align	2
 2497              		.global	modem_get_gps_coordinates
 2498              		.thumb
 2499              		.thumb_func
 2500              		.type	modem_get_gps_coordinates, %function
 2501              	modem_get_gps_coordinates:
 2502              	.LFB87:
 679:modem.c       **** 
 680:modem.c       ****     
 681:modem.c       **** // Returns lat,lom,alt data from Assited GPS (AGPS) system
 682:modem.c       **** gps_t modem_get_gps_coordinates(){
 2503              		.loc 1 682 0
 2504              		.cfi_startproc
ARM GAS  C:\Users\hail\AppData\Local\Temp\ccsvwP8y.s 			page 61


 2505              		@ args = 0, pretend = 0, frame = 56
 2506              		@ frame_needed = 1, uses_anonymous_args = 0
 2507 0000 B0B5     		push	{r4, r5, r7, lr}
 2508              		.cfi_def_cfa_offset 16
 2509              		.cfi_offset 4, -16
 2510              		.cfi_offset 5, -12
 2511              		.cfi_offset 7, -8
 2512              		.cfi_offset 14, -4
 2513 0002 90B0     		sub	sp, sp, #64
 2514              		.cfi_def_cfa_offset 80
 2515 0004 02AF     		add	r7, sp, #8
 2516              		.cfi_def_cfa 7, 72
 2517 0006 7860     		str	r0, [r7, #4]
 683:modem.c       ****     gps_t gps;
 684:modem.c       ****     gps.altitude = 0;
 2518              		.loc 1 684 0
 2519 0008 4FF00003 		mov	r3, #0
 2520 000c FB61     		str	r3, [r7, #28]	@ float
 685:modem.c       ****     gps.longitude = 0;
 2521              		.loc 1 685 0
 2522 000e 4FF00003 		mov	r3, #0
 2523 0012 BB61     		str	r3, [r7, #24]	@ float
 686:modem.c       ****     gps.latitude = 0;
 2524              		.loc 1 686 0
 2525 0014 4FF00003 		mov	r3, #0
 2526 0018 7B61     		str	r3, [r7, #20]	@ float
 687:modem.c       ****     gps.time_to_lock =0;
 2527              		.loc 1 687 0
 2528 001a 0023     		movs	r3, #0
 2529 001c 3B84     		strh	r3, [r7, #32]	@ movhi
 688:modem.c       ****     gps.valid = 0;
 2530              		.loc 1 688 0
 2531 001e 0023     		movs	r3, #0
 2532 0020 87F82230 		strb	r3, [r7, #34]
 689:modem.c       ****     
 690:modem.c       ****     //AGPS will only work if we're connected to network, so don't call this fuction otherwise
 691:modem.c       ****     if(modem_state != MODEM_STATE_READY){
 2533              		.loc 1 691 0
 2534 0024 7F4B     		ldr	r3, .L155
 2535 0026 1B78     		ldrb	r3, [r3]	@ zero_extendqisi2
 2536 0028 042B     		cmp	r3, #4
 2537 002a 07D0     		beq	.L146
 692:modem.c       ****         return gps;//where valid = 0
 2538              		.loc 1 692 0
 2539 002c 7B68     		ldr	r3, [r7, #4]
 2540 002e 1C46     		mov	r4, r3
 2541 0030 07F11403 		add	r3, r7, #20
 2542 0034 0FCB     		ldmia	r3, {r0, r1, r2, r3}
 2543 0036 84E80F00 		stmia	r4, {r0, r1, r2, r3}
 2544 003a EFE0     		b	.L145
 2545              	.L146:
 693:modem.c       ****     }
 694:modem.c       ****     
 695:modem.c       ****     long lock_time = getTimeStamp();
 2546              		.loc 1 695 0
 2547 003c FFF7FEFF 		bl	getTimeStamp
 2548 0040 3863     		str	r0, [r7, #48]
ARM GAS  C:\Users\hail\AppData\Local\Temp\ccsvwP8y.s 			page 62


 696:modem.c       ****     
 697:modem.c       ****     // Enable this for the LTER module
 698:modem.c       ****     // Enable GPS Low-Dropout Regulator
 699:modem.c       ****     at_write_command("AT#GPIO=5,1,1,0\r","OK",DEFAULT_AT_TIMEOUT);
 2549              		.loc 1 699 0
 2550 0042 4FF4FA62 		mov	r2, #2000
 2551 0046 7849     		ldr	r1, .L155+4
 2552 0048 7848     		ldr	r0, .L155+8
 2553 004a FFF7FEFF 		bl	at_write_command
 700:modem.c       ****     
 701:modem.c       ****     // Configure SUPL connection params
 702:modem.c       ****     at_write_command("AT$SUPLSEC=1\r","OK",DEFAULT_AT_TIMEOUT);
 2554              		.loc 1 702 0
 2555 004e 4FF4FA62 		mov	r2, #2000
 2556 0052 7549     		ldr	r1, .L155+4
 2557 0054 7648     		ldr	r0, .L155+12
 2558 0056 FFF7FEFF 		bl	at_write_command
 703:modem.c       ****     
 704:modem.c       ****     // Use SUPL2.0
 705:modem.c       ****     at_write_command("AT$SUPLV=2\r","OK",DEFAULT_AT_TIMEOUT);
 2559              		.loc 1 705 0
 2560 005a 4FF4FA62 		mov	r2, #2000
 2561 005e 7249     		ldr	r1, .L155+4
 2562 0060 7448     		ldr	r0, .L155+16
 2563 0062 FFF7FEFF 		bl	at_write_command
 706:modem.c       ****     
 707:modem.c       ****     // Enable AGPS service
 708:modem.c       ****     at_write_command("AT$AGPSEN=1\r","OK",DEFAULT_AT_TIMEOUT);
 2564              		.loc 1 708 0
 2565 0066 4FF4FA62 		mov	r2, #2000
 2566 006a 6F49     		ldr	r1, .L155+4
 2567 006c 7248     		ldr	r0, .L155+20
 2568 006e FFF7FEFF 		bl	at_write_command
 709:modem.c       ****     
 710:modem.c       ****     // Chose SUPL server, use google public service
 711:modem.c       ****     at_write_command("AT$SLP=1,\"supl.google.com:7275\"\r","OK",DEFAULT_AT_TIMEOUT);
 2569              		.loc 1 711 0
 2570 0072 4FF4FA62 		mov	r2, #2000
 2571 0076 6C49     		ldr	r1, .L155+4
 2572 0078 7048     		ldr	r0, .L155+24
 2573 007a FFF7FEFF 		bl	at_write_command
 712:modem.c       ****     
 713:modem.c       ****     //pdp context has to be locked to carrier for this to work
 714:modem.c       ****     
 715:modem.c       ****     // Unlock context since it needs to be used by modem
 716:modem.c       ****     at_write_command("AT#SGACT=1,0\r\n", "OK",DEFAULT_AT_TIMEOUT);
 2574              		.loc 1 716 0
 2575 007e 4FF4FA62 		mov	r2, #2000
 2576 0082 6949     		ldr	r1, .L155+4
 2577 0084 6E48     		ldr	r0, .L155+28
 2578 0086 FFF7FEFF 		bl	at_write_command
 717:modem.c       ****     
 718:modem.c       ****     at_write_command("AT$LCSLK=1,1\r","OK",DEFAULT_AT_TIMEOUT);//ATT
 2579              		.loc 1 718 0
 2580 008a 4FF4FA62 		mov	r2, #2000
 2581 008e 6649     		ldr	r1, .L155+4
 2582 0090 6C48     		ldr	r0, .L155+32
ARM GAS  C:\Users\hail\AppData\Local\Temp\ccsvwP8y.s 			page 63


 2583 0092 FFF7FEFF 		bl	at_write_command
 719:modem.c       ****     //at_write_command("AT$LCSLK=1,3\r","OK",DEFAULT_AT_TIMEOUT);//Verizon
 720:modem.c       ****     
 721:modem.c       ****     // Relock the context
 722:modem.c       ****     at_write_command("AT#SGACT=1,1\r\n", "OK",10000u);
 2584              		.loc 1 722 0
 2585 0096 42F21072 		movw	r2, #10000
 2586 009a 6349     		ldr	r1, .L155+4
 2587 009c 6A48     		ldr	r0, .L155+36
 2588 009e FFF7FEFF 		bl	at_write_command
 723:modem.c       ****     
 724:modem.c       ****     //start AGPS service
 725:modem.c       ****     at_write_command("AT$GPSSLSR=1,1,,,,,2\r","OK",DEFAULT_AT_TIMEOUT); 
 2589              		.loc 1 725 0
 2590 00a2 4FF4FA62 		mov	r2, #2000
 2591 00a6 6049     		ldr	r1, .L155+4
 2592 00a8 6848     		ldr	r0, .L155+40
 2593 00aa FFF7FEFF 		bl	at_write_command
 726:modem.c       ****     
 727:modem.c       ****     
 728:modem.c       ****     // Start the AGPS service
 729:modem.c       ****     // Will keep receiving a buynch of commas without numbers, until GPS locks
 730:modem.c       ****     // Good lock will return a string with "N" and "W" coordinates
 731:modem.c       ****     
 732:modem.c       ****     
 733:modem.c       ****  
 734:modem.c       ****     uint8 gps_status = 0;
 2594              		.loc 1 734 0
 2595 00ae 0023     		movs	r3, #0
 2596 00b0 87F82F30 		strb	r3, [r7, #47]
 2597              	.LBB14:
 735:modem.c       ****     for(uint16 i=0;i<200;i++){
 2598              		.loc 1 735 0
 2599 00b4 0023     		movs	r3, #0
 2600 00b6 FB86     		strh	r3, [r7, #54]	@ movhi
 2601 00b8 13E0     		b	.L148
 2602              	.L151:
 736:modem.c       ****         gps_status = at_write_command("AT$GPSACP\r","N",DEFAULT_AT_TIMEOUT);//ATT
 2603              		.loc 1 736 0
 2604 00ba 4FF4FA62 		mov	r2, #2000
 2605 00be 6449     		ldr	r1, .L155+44
 2606 00c0 6448     		ldr	r0, .L155+48
 2607 00c2 FFF7FEFF 		bl	at_write_command
 2608 00c6 0346     		mov	r3, r0
 2609 00c8 87F82F30 		strb	r3, [r7, #47]
 737:modem.c       ****         if(gps_status){
 2610              		.loc 1 737 0
 2611 00cc 97F82F30 		ldrb	r3, [r7, #47]	@ zero_extendqisi2
 2612 00d0 002B     		cmp	r3, #0
 2613 00d2 0AD1     		bne	.L154
 738:modem.c       ****             break;   
 739:modem.c       ****         }
 740:modem.c       ****         CyDelay(1000u);// Wait for a second -- BLOCKING. Could be more elegant to incorporate this 
 2614              		.loc 1 740 0 discriminator 2
 2615 00d4 4FF47A70 		mov	r0, #1000
 2616 00d8 FFF7FEFF 		bl	CyDelay
 735:modem.c       ****         gps_status = at_write_command("AT$GPSACP\r","N",DEFAULT_AT_TIMEOUT);//ATT
ARM GAS  C:\Users\hail\AppData\Local\Temp\ccsvwP8y.s 			page 64


 2617              		.loc 1 735 0 discriminator 2
 2618 00dc FB8E     		ldrh	r3, [r7, #54]
 2619 00de 0133     		adds	r3, r3, #1
 2620 00e0 FB86     		strh	r3, [r7, #54]	@ movhi
 2621              	.L148:
 735:modem.c       ****         gps_status = at_write_command("AT$GPSACP\r","N",DEFAULT_AT_TIMEOUT);//ATT
 2622              		.loc 1 735 0 is_stmt 0 discriminator 1
 2623 00e2 FB8E     		ldrh	r3, [r7, #54]
 2624 00e4 C72B     		cmp	r3, #199
 2625 00e6 E8D9     		bls	.L151
 2626 00e8 00E0     		b	.L150
 2627              	.L154:
 738:modem.c       ****             break;   
 2628              		.loc 1 738 0 is_stmt 1
 2629 00ea 00BF     		nop
 2630              	.L150:
 2631              	.LBE14:
 741:modem.c       ****     }
 742:modem.c       ****     
 743:modem.c       ****     //parse data here
 744:modem.c       ****     
 745:modem.c       ****     //example $GPSACP: 210926.000,4217.8003N,08341.3158W,2.3,258.2,3,17.8,4.8,2.6,220520,05,00
 746:modem.c       ****     float lat;
 747:modem.c       ****     float lon;
 748:modem.c       ****     float alt;
 749:modem.c       ****     
 750:modem.c       ****     // Look for $GPSACP:  in uart_received_string and save to sl
 751:modem.c       ****     // char *strstr(const char *haystack, const char *needle) function finds the first occurrence o
 752:modem.c       ****     char *s1 = strstr(uart_received_string,"$GPSACP: ");
 2632              		.loc 1 752 0
 2633 00ec 5A49     		ldr	r1, .L155+52
 2634 00ee 5B48     		ldr	r0, .L155+56
 2635 00f0 FFF7FEFF 		bl	strstr
 2636 00f4 B862     		str	r0, [r7, #40]
 753:modem.c       ****     // Look in sl for lat, long, alt and save in match 
 754:modem.c       ****     // int sscanf(const char *str, const char *format, ...) reads formatted input from a string.
 755:modem.c       ****     int match = sscanf(s1,"$GPSACP: %*f,%fN,%fW,%*f,%f,%*s",&lat,&lon,&alt);
 2637              		.loc 1 755 0
 2638 00f6 07F10C01 		add	r1, r7, #12
 2639 00fa 07F11002 		add	r2, r7, #16
 2640 00fe 07F10803 		add	r3, r7, #8
 2641 0102 0093     		str	r3, [sp]
 2642 0104 0B46     		mov	r3, r1
 2643 0106 5649     		ldr	r1, .L155+60
 2644 0108 B86A     		ldr	r0, [r7, #40]
 2645 010a FFF7FEFF 		bl	sscanf
 2646 010e 7862     		str	r0, [r7, #36]
 756:modem.c       ****     if(match >= 3){
 2647              		.loc 1 756 0
 2648 0110 7B6A     		ldr	r3, [r7, #36]
 2649 0112 022B     		cmp	r3, #2
 2650 0114 60DD     		ble	.L152
 757:modem.c       ****         // Calculate lat and lon
 758:modem.c       ****         // floorf(x) calculates the largest integer that is less than or equal to x. 
 759:modem.c       ****         // fmod(double x, double y) returns the remainder of x divided by y.
 760:modem.c       ****         lat = floorf(lat/100) + fmod(lat,100)/60;
 2651              		.loc 1 760 0
ARM GAS  C:\Users\hail\AppData\Local\Temp\ccsvwP8y.s 			page 65


 2652 0116 3B69     		ldr	r3, [r7, #16]	@ float
 2653 0118 5249     		ldr	r1, .L155+64
 2654 011a 1846     		mov	r0, r3
 2655 011c FFF7FEFF 		bl	__aeabi_fdiv
 2656 0120 0346     		mov	r3, r0
 2657 0122 1846     		mov	r0, r3
 2658 0124 FFF7FEFF 		bl	floorf
 2659 0128 0346     		mov	r3, r0
 2660 012a 1846     		mov	r0, r3
 2661 012c FFF7FEFF 		bl	__aeabi_f2d
 2662 0130 0446     		mov	r4, r0
 2663 0132 0D46     		mov	r5, r1
 2664 0134 3B69     		ldr	r3, [r7, #16]	@ float
 2665 0136 1846     		mov	r0, r3
 2666 0138 FFF7FEFF 		bl	__aeabi_f2d
 2667 013c 4FF00002 		mov	r2, #0
 2668 0140 494B     		ldr	r3, .L155+68
 2669 0142 FFF7FEFF 		bl	fmod
 2670 0146 4FF00002 		mov	r2, #0
 2671 014a 484B     		ldr	r3, .L155+72
 2672 014c FFF7FEFF 		bl	__aeabi_ddiv
 2673 0150 0246     		mov	r2, r0
 2674 0152 0B46     		mov	r3, r1
 2675 0154 2046     		mov	r0, r4
 2676 0156 2946     		mov	r1, r5
 2677 0158 FFF7FEFF 		bl	__aeabi_dadd
 2678 015c 0346     		mov	r3, r0
 2679 015e 0C46     		mov	r4, r1
 2680 0160 1846     		mov	r0, r3
 2681 0162 2146     		mov	r1, r4
 2682 0164 FFF7FEFF 		bl	__aeabi_d2f
 2683 0168 0346     		mov	r3, r0
 2684 016a 3B61     		str	r3, [r7, #16]	@ float
 761:modem.c       ****         lon = -(floorf(lon/100) + fmod(lon,100)/60);
 2685              		.loc 1 761 0
 2686 016c FB68     		ldr	r3, [r7, #12]	@ float
 2687 016e 3D49     		ldr	r1, .L155+64
 2688 0170 1846     		mov	r0, r3
 2689 0172 FFF7FEFF 		bl	__aeabi_fdiv
 2690 0176 0346     		mov	r3, r0
 2691 0178 1846     		mov	r0, r3
 2692 017a FFF7FEFF 		bl	floorf
 2693 017e 0346     		mov	r3, r0
 2694 0180 1846     		mov	r0, r3
 2695 0182 FFF7FEFF 		bl	__aeabi_f2d
 2696 0186 0446     		mov	r4, r0
 2697 0188 0D46     		mov	r5, r1
 2698 018a FB68     		ldr	r3, [r7, #12]	@ float
 2699 018c 1846     		mov	r0, r3
 2700 018e FFF7FEFF 		bl	__aeabi_f2d
 2701 0192 4FF00002 		mov	r2, #0
 2702 0196 344B     		ldr	r3, .L155+68
 2703 0198 FFF7FEFF 		bl	fmod
 2704 019c 4FF00002 		mov	r2, #0
 2705 01a0 324B     		ldr	r3, .L155+72
 2706 01a2 FFF7FEFF 		bl	__aeabi_ddiv
 2707 01a6 0246     		mov	r2, r0
ARM GAS  C:\Users\hail\AppData\Local\Temp\ccsvwP8y.s 			page 66


 2708 01a8 0B46     		mov	r3, r1
 2709 01aa 2046     		mov	r0, r4
 2710 01ac 2946     		mov	r1, r5
 2711 01ae FFF7FEFF 		bl	__aeabi_dadd
 2712 01b2 0346     		mov	r3, r0
 2713 01b4 0C46     		mov	r4, r1
 2714 01b6 1846     		mov	r0, r3
 2715 01b8 2146     		mov	r1, r4
 2716 01ba FFF7FEFF 		bl	__aeabi_d2f
 2717 01be 0346     		mov	r3, r0
 2718 01c0 83F00043 		eor	r3, r3, #-2147483648
 2719 01c4 FB60     		str	r3, [r7, #12]	@ float
 762:modem.c       ****         gps.altitude = alt; // Save alt, lat, and lon to the variable gps.
 2720              		.loc 1 762 0
 2721 01c6 BB68     		ldr	r3, [r7, #8]	@ float
 2722 01c8 FB61     		str	r3, [r7, #28]	@ float
 763:modem.c       ****         gps.latitude = lat;
 2723              		.loc 1 763 0
 2724 01ca 3B69     		ldr	r3, [r7, #16]	@ float
 2725 01cc 7B61     		str	r3, [r7, #20]	@ float
 764:modem.c       ****         gps.longitude = lon;
 2726              		.loc 1 764 0
 2727 01ce FB68     		ldr	r3, [r7, #12]	@ float
 2728 01d0 BB61     		str	r3, [r7, #24]	@ float
 765:modem.c       ****         gps.valid = 1;
 2729              		.loc 1 765 0
 2730 01d2 0123     		movs	r3, #1
 2731 01d4 87F82230 		strb	r3, [r7, #34]
 2732              	.L152:
 766:modem.c       ****     }
 767:modem.c       ****     
 768:modem.c       ****     // Disable LDO, just in case
 769:modem.c       ****     at_write_command("AT#GPIO=5,0,1,0\r","OK",DEFAULT_AT_TIMEOUT);
 2733              		.loc 1 769 0
 2734 01d8 4FF4FA62 		mov	r2, #2000
 2735 01dc 1249     		ldr	r1, .L155+4
 2736 01de 2448     		ldr	r0, .L155+76
 2737 01e0 FFF7FEFF 		bl	at_write_command
 770:modem.c       ****     
 771:modem.c       ****     // Flush modem's GPS data, just in case
 772:modem.c       ****     at_write_command("AT$GPSR=0\r","OK",DEFAULT_AT_TIMEOUT);
 2738              		.loc 1 772 0
 2739 01e4 4FF4FA62 		mov	r2, #2000
 2740 01e8 0F49     		ldr	r1, .L155+4
 2741 01ea 2248     		ldr	r0, .L155+80
 2742 01ec FFF7FEFF 		bl	at_write_command
 773:modem.c       ****     
 774:modem.c       ****     
 775:modem.c       ****     
 776:modem.c       ****     
 777:modem.c       ****     
 778:modem.c       ****     /* Relevant to 3g modem, can ignore
 779:modem.c       ****     
 780:modem.c       ****     //Setthe GPS Quality of Servicep arameters. Inorder,theyare<horiz_accuracy(inmeters)>,<vertical
 781:modem.c       ****     //AT$GPSQOS=50,50,100,0
 782:modem.c       ****     at_write_command("AT$GPSQOS=50,50,100,0\r","OK",DEFAULT_AT_TIMEOUT);
 783:modem.c       ****     
ARM GAS  C:\Users\hail\AppData\Local\Temp\ccsvwP8y.s 			page 67


 784:modem.c       ****     //SettheSUPLLocationPlatform(SLP)addressoftheserverthatwillprovidetheA-GPS data:
 785:modem.c       ****     at_write_command("AT$LCSSLP=1,\"supl.google.com\"\r","OK",DEFAULT_AT_TIMEOUT);
 786:modem.c       ****     
 787:modem.c       ****     //unlock contedt, simnce its being used by modem
 788:modem.c       ****     at_write_command("AT#SGACT=1,0\r\n", "OK",DEFAULT_AT_TIMEOUT);
 789:modem.c       ****     //Lock context 1 for LoCation Services (LCS) use only
 790:modem.c       ****     at_write_command("AT$LCSLK=1,1\r","OK",5000u);
 791:modem.c       ****     
 792:modem.c       ****     //unlock contedt, simnce its being used by modem
 793:modem.c       ****     at_write_command("AT#SGACT=1,1\r\n", "OK",10000u);
 794:modem.c       ****     
 795:modem.c       ****     //EnableunsolicitedNMEAGPSdataintheformatof<NMEASENTENCE><CR>
 796:modem.c       ****     at_write_command("AT$GPSNMUN=2,1,0,0,0,0,0\r","OK",DEFAULT_AT_TIMEOUT);
 797:modem.c       ****     
 798:modem.c       ****     //StartGPSlocationservicerequest.Sendingthiscommandsets$GPSP=1
 799:modem.c       ****    uint8 gps_status = 0;
 800:modem.c       ****     for(uint16 i=0;i<200;i++){
 801:modem.c       ****         gps_status = at_write_command("AT$GPSSLSR=1,1,,,,,0,255\r","N",3000u);
 802:modem.c       ****         if(gps_status){
 803:modem.c       ****             break;   
 804:modem.c       ****         }
 805:modem.c       ****   }
 806:modem.c       ****     
 807:modem.c       ****     //$GPGGA,030307.691,4217.7923,N,08341.3240,W,1,05,2.25,225.0,M,,M,,0000*6E
 808:modem.c       ****     //$GPGGA,213852.000,4600.8755,N,09327.7008,W,1,05,3.00,292.0,M,,M,,0000*6E
 809:modem.c       ****     if(gps_status){
 810:modem.c       ****         float lat,lon,alt = 0;
 811:modem.c       ****         if(sscanf(uart_received_string,"%*s,%f,N,%f,W,%*s",&lat,&lon) > 0){
 812:modem.c       ****             gps.altitude = alt;
 813:modem.c       ****             gps.latitude = lat/60;
 814:modem.c       ****             gps.longitude = lon/60;
 815:modem.c       ****             gps.valid = 1;
 816:modem.c       ****         }
 817:modem.c       ****         
 818:modem.c       ****     }
 819:modem.c       ****     
 820:modem.c       ****     //turn off gps
 821:modem.c       ****     //AT$GPSP=0
 822:modem.c       ****     at_write_command("AT$GPSP=0\r","OK",DEFAULT_AT_TIMEOUT);
 823:modem.c       ****     
 824:modem.c       ****     */
 825:modem.c       **** 
 826:modem.c       ****     // Calculate time to lock into GPS location and save in variable lock_time
 827:modem.c       ****     lock_time = getTimeStamp() - lock_time;
 2743              		.loc 1 827 0
 2744 01f0 FFF7FEFF 		bl	getTimeStamp
 2745 01f4 0246     		mov	r2, r0
 2746 01f6 3B6B     		ldr	r3, [r7, #48]
 2747 01f8 D31A     		subs	r3, r2, r3
 2748 01fa 3B63     		str	r3, [r7, #48]
 828:modem.c       ****     gps.time_to_lock = lock_time;
 2749              		.loc 1 828 0
 2750 01fc 3B6B     		ldr	r3, [r7, #48]
 2751 01fe 9BB2     		uxth	r3, r3
 2752 0200 3B84     		strh	r3, [r7, #32]	@ movhi
 829:modem.c       ****     printNotif(NOTIF_TYPE_EVENT,"Time to lock GPS: %d", gps.time_to_lock);
 2753              		.loc 1 829 0
ARM GAS  C:\Users\hail\AppData\Local\Temp\ccsvwP8y.s 			page 68


 2754 0202 3B8C     		ldrh	r3, [r7, #32]
 2755 0204 1A46     		mov	r2, r3
 2756 0206 1C49     		ldr	r1, .L155+84
 2757 0208 0020     		movs	r0, #0
 2758 020a FFF7FEFF 		bl	printNotif
 830:modem.c       ****     
 831:modem.c       ****     return gps;
 2759              		.loc 1 831 0
 2760 020e 7B68     		ldr	r3, [r7, #4]
 2761 0210 1C46     		mov	r4, r3
 2762 0212 07F11403 		add	r3, r7, #20
 2763 0216 0FCB     		ldmia	r3, {r0, r1, r2, r3}
 2764 0218 84E80F00 		stmia	r4, {r0, r1, r2, r3}
 2765              	.L145:
 832:modem.c       ****     
 833:modem.c       **** }
 2766              		.loc 1 833 0
 2767 021c 7868     		ldr	r0, [r7, #4]
 2768 021e 3837     		adds	r7, r7, #56
 2769              		.cfi_def_cfa_offset 16
 2770 0220 BD46     		mov	sp, r7
 2771              		.cfi_def_cfa_register 13
 2772              		@ sp needed
 2773 0222 B0BD     		pop	{r4, r5, r7, pc}
 2774              	.L156:
 2775              		.align	2
 2776              	.L155:
 2777 0224 00000000 		.word	modem_state
 2778 0228 00000000 		.word	.LC0
 2779 022c 8C050000 		.word	.LC60
 2780 0230 A0050000 		.word	.LC61
 2781 0234 B0050000 		.word	.LC62
 2782 0238 BC050000 		.word	.LC63
 2783 023c CC050000 		.word	.LC64
 2784 0240 F0050000 		.word	.LC65
 2785 0244 00060000 		.word	.LC66
 2786 0248 D8020000 		.word	.LC27
 2787 024c 10060000 		.word	.LC67
 2788 0250 28060000 		.word	.LC68
 2789 0254 2C060000 		.word	.LC69
 2790 0258 38060000 		.word	.LC70
 2791 025c 00000000 		.word	uart_received_string
 2792 0260 44060000 		.word	.LC71
 2793 0264 0000C842 		.word	1120403456
 2794 0268 00005940 		.word	1079574528
 2795 026c 00004E40 		.word	1078853632
 2796 0270 64060000 		.word	.LC72
 2797 0274 78060000 		.word	.LC73
 2798 0278 84060000 		.word	.LC74
 2799              		.cfi_endproc
 2800              	.LFE87:
 2801              		.size	modem_get_gps_coordinates, .-modem_get_gps_coordinates
 2802              		.text
 2803              	.Letext0:
 2804              		.file 2 "c:\\program files (x86)\\cypress\\psoc creator\\4.3\\psoc creator\\import\\gnu\\arm\\5.4.
 2805              		.file 3 "c:\\program files (x86)\\cypress\\psoc creator\\4.3\\psoc creator\\import\\gnu\\arm\\5.4.
 2806              		.file 4 "Generated_Source\\PSoC5/cytypes.h"
ARM GAS  C:\Users\hail\AppData\Local\Temp\ccsvwP8y.s 			page 69


 2807              		.file 5 "c:\\program files (x86)\\cypress\\psoc creator\\4.3\\psoc creator\\import\\gnu\\arm\\5.4.
 2808              		.file 6 "testing.h"
 2809              		.file 7 "modem.h"
 2810              		.file 8 "data.h"
 2811              		.file 9 "notoriOS.h"
 2812              		.file 10 "Generated_Source\\PSoC5/core_cm3.h"