ARM GAS  C:\Users\hail\AppData\Local\Temp\cc4ySZ7O.s 			page 1


   1              		.syntax unified
   2              		.cpu cortex-m3
   3              		.fpu softvfp
   4              		.eabi_attribute 20, 1
   5              		.eabi_attribute 21, 1
   6              		.eabi_attribute 23, 3
   7              		.eabi_attribute 24, 1
   8              		.eabi_attribute 25, 1
   9              		.eabi_attribute 26, 1
  10              		.eabi_attribute 30, 6
  11              		.eabi_attribute 34, 1
  12              		.eabi_attribute 18, 4
  13              		.thumb
  14              		.syntax unified
  15              		.file	"notoriOS.c"
  16              		.text
  17              	.Ltext0:
  18              		.cfi_sections	.debug_frame
  19              		.comm	modem_state,1,1
  20              		.comm	modem_start_time_stamp,4,4
  21              		.comm	modem_info,60,4
  22              		.comm	modem_stats,16,4
  23              		.comm	updatable_parameters,3,4
  24              		.syntax unified
  25              		.global _printf_float
  26              		.thumb
  27              		.syntax unified
  28              		.comm	dataPointsInStack,2,2
  29              		.comm	dataPointsInStackDesired,2,2
  30              		.comm	data,6600,4
  31              		.comm	http_request,10000,4
  32              		.comm	http_body,10000,4
  33              		.comm	http_route,200,4
  34              		.comm	system_info,28,4
  35              		.comm	system_settings,104,4
  36              		.comm	alarmMeasure,6,4
  37              		.comm	timeToMeasure,1,1
  38              		.comm	alarmSync,6,4
  39              		.comm	timeToSync,1,1
  40              		.comm	timeToSycnRemoteParams,1,1
  41              		.comm	try_counter,1,1
  42              		.comm	hey,1,1
  43              		.section	.text.Wakeup_ISR,"ax",%progbits
  44              		.align	2
  45              		.global	Wakeup_ISR
  46              		.thumb
  47              		.thumb_func
  48              		.type	Wakeup_ISR, %function
  49              	Wakeup_ISR:
  50              	.LFB64:
  51              		.file 1 "notoriOS.c"
   1:notoriOS.c    **** /* ========================================
   2:notoriOS.c    ****  *
   3:notoriOS.c    ****  * OPEN-STORM.ORG
   4:notoriOS.c    ****  * notoriOS
   5:notoriOS.c    ****  * A non-premptive operating system for node.
   6:notoriOS.c    ****  *
ARM GAS  C:\Users\hail\AppData\Local\Temp\cc4ySZ7O.s 			page 2


   7:notoriOS.c    ****  * "To all the teachers that told me I'd never amount to nothin"
   8:notoriOS.c    ****  *      -Notorious BIG (1994)
   9:notoriOS.c    ****  *
  10:notoriOS.c    ****  * ========================================
  11:notoriOS.c    **** */
  12:notoriOS.c    **** 
  13:notoriOS.c    **** #include "notoriOS.h"
  14:notoriOS.c    **** 
  15:notoriOS.c    **** 
  16:notoriOS.c    **** // This function must always be called (when the Sleep Timer's interrupt
  17:notoriOS.c    **** // is disabled or enabled) after wake up to clear the ctw_int status bit.
  18:notoriOS.c    **** // It is required to call SleepTimer_GetStatus() within 1 ms (1 clock cycle
  19:notoriOS.c    **** // of the ILO) after CTW event occurred.
  20:notoriOS.c    **** CY_ISR(Wakeup_ISR) {
  52              		.loc 1 20 0
  53              		.cfi_startproc
  54              		@ args = 0, pretend = 0, frame = 0
  55              		@ frame_needed = 1, uses_anonymous_args = 0
  56 0000 80B5     		push	{r7, lr}
  57              		.cfi_def_cfa_offset 8
  58              		.cfi_offset 7, -8
  59              		.cfi_offset 14, -4
  60 0002 00AF     		add	r7, sp, #0
  61              		.cfi_def_cfa_register 7
  21:notoriOS.c    ****     // Returns the state of the Sleep Timer's status register, and clears the pending interrupt sta
  22:notoriOS.c    ****     SleepTimer_GetStatus();
  62              		.loc 1 22 0
  63 0004 FFF7FEFF 		bl	SleepTimer_GetStatus
  23:notoriOS.c    **** }
  64              		.loc 1 23 0
  65 0008 00BF     		nop
  66 000a 80BD     		pop	{r7, pc}
  67              		.cfi_endproc
  68              	.LFE64:
  69              		.size	Wakeup_ISR, .-Wakeup_ISR
  70              		.global	Data_fileName
  71              		.data
  72              		.align	2
  73              		.type	Data_fileName, %object
  74              		.size	Data_fileName, 30
  75              	Data_fileName:
  76 0000 64617461 		.ascii	"data.txt\000"
  76      2E747874 
  76      00
  77 0009 00000000 		.space	21
  77      00000000 
  77      00000000 
  77      00000000 
  77      00000000 
  78              		.section	.rodata
  79              		.align	2
  80              	.LC0:
  81 0000 25582D25 		.ascii	"%X-%X\000"
  81      5800
  82 0006 0000     		.align	2
  83              	.LC1:
  84 0008 6563322D 		.ascii	"ec2-13-59-131-167.us-east-2.compute.amazonaws.com\000"
ARM GAS  C:\Users\hail\AppData\Local\Temp\cc4ySZ7O.s 			page 3


  84      31332D35 
  84      392D3133 
  84      312D3136 
  84      372E7573 
  85 003a 0000     		.align	2
  86              	.LC2:
  87 003c 256400   		.ascii	"%d\000"
  88 003f 00       		.align	2
  89              	.LC3:
  90 0040 7265626F 		.ascii	"reboot\000"
  90      6F7400
  91              		.section	.text.ReadyOrNot,"ax",%progbits
  92              		.align	2
  93              		.global	ReadyOrNot
  94              		.thumb
  95              		.thumb_func
  96              		.type	ReadyOrNot, %function
  97              	ReadyOrNot:
  98              	.LFB65:
  24:notoriOS.c    **** 
  25:notoriOS.c    **** 
  26:notoriOS.c    **** uint8 syncData();               // Syncs data with server 
  27:notoriOS.c    **** uint8 configureRemoteParams();  // Syncs RTC with cell network and obtains meta-DB params
  28:notoriOS.c    **** uint8 makeMeasurements();       // Takes sensor measurements
  29:notoriOS.c    **** char  Data_fileName[30] = "data.txt";
  30:notoriOS.c    **** 
  31:notoriOS.c    **** 
  32:notoriOS.c    **** // ==============================================
  33:notoriOS.c    **** // Ready or not, here I come, you can't hide
  34:notoriOS.c    **** // Gonna find you and take it slowly
  35:notoriOS.c    **** //      - The Fugees (1996)
  36:notoriOS.c    **** //
  37:notoriOS.c    **** // Initialize and critical hardware or routines 
  38:notoriOS.c    **** // ==============================================
  39:notoriOS.c    **** void ReadyOrNot()
  40:notoriOS.c    **** {
  99              		.loc 1 40 0
 100              		.cfi_startproc
 101              		@ args = 0, pretend = 0, frame = 32
 102              		@ frame_needed = 1, uses_anonymous_args = 0
 103 0000 B0B5     		push	{r4, r5, r7, lr}
 104              		.cfi_def_cfa_offset 16
 105              		.cfi_offset 4, -16
 106              		.cfi_offset 5, -12
 107              		.cfi_offset 7, -8
 108              		.cfi_offset 14, -4
 109 0002 8AB0     		sub	sp, sp, #40
 110              		.cfi_def_cfa_offset 56
 111 0004 02AF     		add	r7, sp, #8
 112              		.cfi_def_cfa 7, 48
  41:notoriOS.c    ****     
  42:notoriOS.c    ****     isr_SleepTimer_StartEx(Wakeup_ISR); // Start Sleep ISR
 113              		.loc 1 42 0
 114 0006 3848     		ldr	r0, .L3
 115 0008 FFF7FEFF 		bl	isr_SleepTimer_StartEx
  43:notoriOS.c    ****     SleepTimer_Start();                 // Start SleepTimer Component
 116              		.loc 1 43 0
ARM GAS  C:\Users\hail\AppData\Local\Temp\cc4ySZ7O.s 			page 4


 117 000c FFF7FEFF 		bl	SleepTimer_Start
  44:notoriOS.c    ****     
  45:notoriOS.c    ****     RTC_WriteIntervalMask(0b11111111);  // Configures what interval handlers will be called from th
 118              		.loc 1 45 0
 119 0010 FF20     		movs	r0, #255
 120 0012 FFF7FEFF 		bl	RTC_WriteIntervalMask
  46:notoriOS.c    ****     RTC_Start();                        // Enables the RTC component
 121              		.loc 1 46 0
 122 0016 FFF7FEFF 		bl	RTC_Start
  47:notoriOS.c    ****     debug_start();                      // Start UART debug
 123              		.loc 1 47 0
 124 001a FFF7FEFF 		bl	debug_start
  48:notoriOS.c    ****     
  49:notoriOS.c    ****     modem_initialize();                 // Initialize the modem
 125              		.loc 1 49 0
 126 001e FFF7FEFF 		bl	modem_initialize
  50:notoriOS.c    ****     
  51:notoriOS.c    ****     updatable_parameters_initialize();  // Initialize sampling, measurement, and debug frequencies 
 127              		.loc 1 51 0
 128 0022 FFF7FEFF 		bl	updatable_parameters_initialize
  52:notoriOS.c    ****    
  53:notoriOS.c    ****     
  54:notoriOS.c    ****     // Collect system info and store in struct (modem ID, silicon ID, etc)
  55:notoriOS.c    ****       /* An array of char elements for the resulting string to be stored */
  56:notoriOS.c    ****     
  57:notoriOS.c    ****     
  58:notoriOS.c    ****     // Get unique ID of PSOC chip, this can be concatenated with the MODEM IDs to generate a unique
  59:notoriOS.c    ****     uint32 uniqueId[2];
  60:notoriOS.c    ****     // Returns the 64-bit unique ID of the device.
  61:notoriOS.c    ****     CyGetUniqueId(uniqueId); 
 129              		.loc 1 61 0
 130 0026 07F11803 		add	r3, r7, #24
 131 002a 1846     		mov	r0, r3
 132 002c FFF7FEFF 		bl	CyGetUniqueId
  62:notoriOS.c    ****     snprintf(system_info.chip_uniqueId,sizeof(system_info.chip_uniqueId),"%X-%X",(unsigned int)uniq
 133              		.loc 1 62 0
 134 0030 BA69     		ldr	r2, [r7, #24]
 135 0032 FB69     		ldr	r3, [r7, #28]
 136 0034 0093     		str	r3, [sp]
 137 0036 1346     		mov	r3, r2
 138 0038 2C4A     		ldr	r2, .L3+4
 139 003a 1821     		movs	r1, #24
 140 003c 2C48     		ldr	r0, .L3+8
 141 003e FFF7FEFF 		bl	snprintf
  63:notoriOS.c    ****     // The modem will track/popualte it's own IDs, so just point to them for now
  64:notoriOS.c    ****     system_info.modem_info = &modem_info;
 142              		.loc 1 64 0
 143 0042 2C4B     		ldr	r3, .L3+12
 144 0044 2C4A     		ldr	r2, .L3+16
 145 0046 1A60     		str	r2, [r3]
  65:notoriOS.c    ****     
  66:notoriOS.c    ****     // Configure server endpoints -- these should obviosuly be provided  remotely by the meta data-
  67:notoriOS.c    ****     snprintf(system_settings.ep_host,sizeof(system_settings.ep_host),"%s","ec2-13-59-131-167.us-eas
 146              		.loc 1 67 0
 147 0048 2C4A     		ldr	r2, .L3+20
 148 004a 2D4B     		ldr	r3, .L3+24
 149 004c 1446     		mov	r4, r2
ARM GAS  C:\Users\hail\AppData\Local\Temp\cc4ySZ7O.s 			page 5


 150 004e 1D46     		mov	r5, r3
 151 0050 0FCD     		ldmia	r5!, {r0, r1, r2, r3}
 152 0052 0FC4     		stmia	r4!, {r0, r1, r2, r3}
 153 0054 0FCD     		ldmia	r5!, {r0, r1, r2, r3}
 154 0056 0FC4     		stmia	r4!, {r0, r1, r2, r3}
 155 0058 0FCD     		ldmia	r5!, {r0, r1, r2, r3}
 156 005a 0FC4     		stmia	r4!, {r0, r1, r2, r3}
 157 005c 2B68     		ldr	r3, [r5]
 158 005e 2380     		strh	r3, [r4]	@ movhi
  68:notoriOS.c    ****    
  69:notoriOS.c    ****     system_settings.ep_port = 5000;
 159              		.loc 1 69 0
 160 0060 264B     		ldr	r3, .L3+20
 161 0062 41F28832 		movw	r2, #5000
 162 0066 5A66     		str	r2, [r3, #100]
  70:notoriOS.c    ****     // Don't need the following for new nodes
  71:notoriOS.c    ****     //snprintf(system_settings.ep_user,sizeof(system_settings.ep_user),"%s","generic_node");
  72:notoriOS.c    ****     //snprintf(system_settings.ep_pswd,sizeof(system_settings.ep_pswd),"%s","MakeFloodsCurrents");
  73:notoriOS.c    ****     //snprintf(system_settings.ep_database,sizeof(system_settings.ep_database),"%s","ARB");
  74:notoriOS.c    ****     //snprintf(system_settings.node_id,sizeof(system_settings.node_id),"%s","GGB000");
  75:notoriOS.c    ****         
  76:notoriOS.c    ****     
  77:notoriOS.c    ****     // Create a continuous alarm called alarmMeasure that triggers every 10 min (default) to take m
  78:notoriOS.c    ****     alarmMeasure = CreateAlarm(updatable_parameters.measure_time,ALARM_TYPE_MINUTE,ALARM_TYPE_CONTI
 163              		.loc 1 78 0
 164 0068 264B     		ldr	r3, .L3+28
 165 006a 1B78     		ldrb	r3, [r3]	@ zero_extendqisi2
 166 006c 99B2     		uxth	r1, r3
 167 006e 264C     		ldr	r4, .L3+32
 168 0070 3846     		mov	r0, r7
 169 0072 0723     		movs	r3, #7
 170 0074 0122     		movs	r2, #1
 171 0076 FFF7FEFF 		bl	CreateAlarm
 172 007a 2246     		mov	r2, r4
 173 007c 3B46     		mov	r3, r7
 174 007e 1968     		ldr	r1, [r3]	@ unaligned
 175 0080 1160     		str	r1, [r2]	@ unaligned
 176 0082 9B88     		ldrh	r3, [r3, #4]	@ unaligned
 177 0084 9380     		strh	r3, [r2, #4]	@ unaligned
  79:notoriOS.c    ****     timeToMeasure = 1u;
 178              		.loc 1 79 0
 179 0086 214B     		ldr	r3, .L3+36
 180 0088 0122     		movs	r2, #1
 181 008a 1A70     		strb	r2, [r3]
  80:notoriOS.c    ****     // Create a continuous alarm called alarmSync that triggers every 60 min (default) to sync the 
  81:notoriOS.c    ****     alarmSync = CreateAlarm(updatable_parameters.sync_time,ALARM_TYPE_MINUTE,ALARM_TYPE_CONTINUOUS)
 182              		.loc 1 81 0
 183 008c 1D4B     		ldr	r3, .L3+28
 184 008e 5B78     		ldrb	r3, [r3, #1]	@ zero_extendqisi2
 185 0090 99B2     		uxth	r1, r3
 186 0092 1F4C     		ldr	r4, .L3+40
 187 0094 3846     		mov	r0, r7
 188 0096 0723     		movs	r3, #7
 189 0098 0122     		movs	r2, #1
 190 009a FFF7FEFF 		bl	CreateAlarm
 191 009e 2246     		mov	r2, r4
 192 00a0 3B46     		mov	r3, r7
ARM GAS  C:\Users\hail\AppData\Local\Temp\cc4ySZ7O.s 			page 6


 193 00a2 1968     		ldr	r1, [r3]	@ unaligned
 194 00a4 1160     		str	r1, [r2]	@ unaligned
 195 00a6 9B88     		ldrh	r3, [r3, #4]	@ unaligned
 196 00a8 9380     		strh	r3, [r2, #4]	@ unaligned
  82:notoriOS.c    ****     timeToSync = 1u;
 197              		.loc 1 82 0
 198 00aa 1A4B     		ldr	r3, .L3+44
 199 00ac 0122     		movs	r2, #1
 200 00ae 1A70     		strb	r2, [r3]
  83:notoriOS.c    ****     
  84:notoriOS.c    ****     timeToSycnRemoteParams = 0u;//set to 1 if you want to get modem IDs and time -- no need to do t
 201              		.loc 1 84 0
 202 00b0 194B     		ldr	r3, .L3+48
 203 00b2 0022     		movs	r2, #0
 204 00b4 1A70     		strb	r2, [r3]
  85:notoriOS.c    ****     
  86:notoriOS.c    ****     // send hey to server saying the node rebooted
  87:notoriOS.c    ****     hey = 1u;
 205              		.loc 1 87 0
 206 00b6 194B     		ldr	r3, .L3+52
 207 00b8 0122     		movs	r2, #1
 208 00ba 1A70     		strb	r2, [r3]
  88:notoriOS.c    ****     char c_hey[10];
  89:notoriOS.c    ****     snprintf(c_hey,sizeof(c_hey),"%d",hey);
 209              		.loc 1 89 0
 210 00bc 174B     		ldr	r3, .L3+52
 211 00be 1B78     		ldrb	r3, [r3]	@ zero_extendqisi2
 212 00c0 07F10C00 		add	r0, r7, #12
 213 00c4 164A     		ldr	r2, .L3+56
 214 00c6 0A21     		movs	r1, #10
 215 00c8 FFF7FEFF 		bl	snprintf
  90:notoriOS.c    ****     pushData("reboot",c_hey,getTimeStamp());
 216              		.loc 1 90 0
 217 00cc FFF7FEFF 		bl	getTimeStamp
 218 00d0 0246     		mov	r2, r0
 219 00d2 07F10C03 		add	r3, r7, #12
 220 00d6 1946     		mov	r1, r3
 221 00d8 1248     		ldr	r0, .L3+60
 222 00da FFF7FEFF 		bl	pushData
  91:notoriOS.c    **** }
 223              		.loc 1 91 0
 224 00de 00BF     		nop
 225 00e0 2037     		adds	r7, r7, #32
 226              		.cfi_def_cfa_offset 16
 227 00e2 BD46     		mov	sp, r7
 228              		.cfi_def_cfa_register 13
 229              		@ sp needed
 230 00e4 B0BD     		pop	{r4, r5, r7, pc}
 231              	.L4:
 232 00e6 00BF     		.align	2
 233              	.L3:
 234 00e8 00000000 		.word	Wakeup_ISR
 235 00ec 00000000 		.word	.LC0
 236 00f0 04000000 		.word	system_info+4
 237 00f4 00000000 		.word	system_info
 238 00f8 00000000 		.word	modem_info
 239 00fc 00000000 		.word	system_settings
ARM GAS  C:\Users\hail\AppData\Local\Temp\cc4ySZ7O.s 			page 7


 240 0100 08000000 		.word	.LC1
 241 0104 00000000 		.word	updatable_parameters
 242 0108 00000000 		.word	alarmMeasure
 243 010c 00000000 		.word	timeToMeasure
 244 0110 00000000 		.word	alarmSync
 245 0114 00000000 		.word	timeToSync
 246 0118 00000000 		.word	timeToSycnRemoteParams
 247 011c 00000000 		.word	hey
 248 0120 3C000000 		.word	.LC2
 249 0124 40000000 		.word	.LC3
 250              		.cfi_endproc
 251              	.LFE65:
 252              		.size	ReadyOrNot, .-ReadyOrNot
 253              		.section	.text.WorkWorkWorkWorkWorkWork,"ax",%progbits
 254              		.align	2
 255              		.global	WorkWorkWorkWorkWorkWork
 256              		.thumb
 257              		.thumb_func
 258              		.type	WorkWorkWorkWorkWorkWork, %function
 259              	WorkWorkWorkWorkWorkWork:
 260              	.LFB66:
  92:notoriOS.c    **** 
  93:notoriOS.c    **** 
  94:notoriOS.c    **** // ==============================================
  95:notoriOS.c    **** // You see me I be work, work, work, work, work, work 
  96:notoriOS.c    **** //      - Rhiana, feat Drake (2016)
  97:notoriOS.c    **** //
  98:notoriOS.c    **** // Prorcesses core tasks
  99:notoriOS.c    **** // ==============================================
 100:notoriOS.c    **** int WorkWorkWorkWorkWorkWork()
 101:notoriOS.c    **** {
 261              		.loc 1 101 0
 262              		.cfi_startproc
 263              		@ args = 0, pretend = 0, frame = 8
 264              		@ frame_needed = 1, uses_anonymous_args = 0
 265 0000 80B5     		push	{r7, lr}
 266              		.cfi_def_cfa_offset 8
 267              		.cfi_offset 7, -8
 268              		.cfi_offset 14, -4
 269 0002 82B0     		sub	sp, sp, #8
 270              		.cfi_def_cfa_offset 16
 271 0004 00AF     		add	r7, sp, #0
 272              		.cfi_def_cfa_register 7
 102:notoriOS.c    ****     
 103:notoriOS.c    ****     // The priority of these tasks is determined by the if statements
 104:notoriOS.c    ****     // For example, taking measurements should always precede data transmisison, even if both fire
 105:notoriOS.c    ****     // Getting meta-DB info and system configs precedes all
 106:notoriOS.c    ****     // That said, the modem is always qeried to check if it needs anything
 107:notoriOS.c    ****     
 108:notoriOS.c    ****     // Checks to see if the timetoSyncRemoteParms flag is set
 109:notoriOS.c    ****     if(timeToSycnRemoteParams){
 273              		.loc 1 109 0
 274 0006 144B     		ldr	r3, .L10
 275 0008 1B78     		ldrb	r3, [r3]	@ zero_extendqisi2
 276 000a 002B     		cmp	r3, #0
 277 000c 06D0     		beq	.L6
 110:notoriOS.c    ****         timeToSycnRemoteParams = configureRemoteParams(); // Will return 0 when done sending data
ARM GAS  C:\Users\hail\AppData\Local\Temp\cc4ySZ7O.s 			page 8


 278              		.loc 1 110 0
 279 000e FFF7FEFF 		bl	configureRemoteParams
 280 0012 0346     		mov	r3, r0
 281 0014 1A46     		mov	r2, r3
 282 0016 104B     		ldr	r3, .L10
 283 0018 1A70     		strb	r2, [r3]
 284 001a 14E0     		b	.L7
 285              	.L6:
 111:notoriOS.c    ****     }
 112:notoriOS.c    ****     // Checks to see if the timetoMeasure flag is set
 113:notoriOS.c    ****     else if(timeToMeasure){
 286              		.loc 1 113 0
 287 001c 0F4B     		ldr	r3, .L10+4
 288 001e 1B78     		ldrb	r3, [r3]	@ zero_extendqisi2
 289 0020 002B     		cmp	r3, #0
 290 0022 06D0     		beq	.L8
 114:notoriOS.c    ****         //(int i=0; i<=30; i++){
 115:notoriOS.c    ****         timeToMeasure = makeMeasurements(); // Will return 0 when done sending data
 291              		.loc 1 115 0
 292 0024 FFF7FEFF 		bl	makeMeasurements
 293 0028 0346     		mov	r3, r0
 294 002a 1A46     		mov	r2, r3
 295 002c 0B4B     		ldr	r3, .L10+4
 296 002e 1A70     		strb	r2, [r3]
 297 0030 09E0     		b	.L7
 298              	.L8:
 116:notoriOS.c    ****         //CyDelay(1000u);
 117:notoriOS.c    ****         //}
 118:notoriOS.c    ****     }else if(timeToSync){
 299              		.loc 1 118 0
 300 0032 0B4B     		ldr	r3, .L10+8
 301 0034 1B78     		ldrb	r3, [r3]	@ zero_extendqisi2
 302 0036 002B     		cmp	r3, #0
 303 0038 05D0     		beq	.L7
 119:notoriOS.c    ****             timeToSync = syncData();
 304              		.loc 1 119 0
 305 003a FFF7FEFF 		bl	syncData
 306 003e 0346     		mov	r3, r0
 307 0040 1A46     		mov	r2, r3
 308 0042 074B     		ldr	r3, .L10+8
 309 0044 1A70     		strb	r2, [r3]
 310              	.L7:
 120:notoriOS.c    ****     }
 121:notoriOS.c    ****     // Print the countdown to the next alarm
 122:notoriOS.c    ****     //printNotif(NOTIF_TYPE_EVENT,"Measure CNT %d, Sync CNT %d, Data Wheel CNT %d",alarmMeasure.cur
 123:notoriOS.c    ****     
 124:notoriOS.c    ****     
 125:notoriOS.c    ****     // Check modem state machine on every loop
 126:notoriOS.c    ****     uint8 modem_status = modem_process_tasks();
 311              		.loc 1 126 0
 312 0046 FFF7FEFF 		bl	modem_process_tasks
 313 004a 0346     		mov	r3, r0
 314 004c FB71     		strb	r3, [r7, #7]
 127:notoriOS.c    **** 
 128:notoriOS.c    ****     return 0u +  modem_status;  
 315              		.loc 1 128 0
 316 004e FB79     		ldrb	r3, [r7, #7]	@ zero_extendqisi2
ARM GAS  C:\Users\hail\AppData\Local\Temp\cc4ySZ7O.s 			page 9


 129:notoriOS.c    **** }
 317              		.loc 1 129 0
 318 0050 1846     		mov	r0, r3
 319 0052 0837     		adds	r7, r7, #8
 320              		.cfi_def_cfa_offset 8
 321 0054 BD46     		mov	sp, r7
 322              		.cfi_def_cfa_register 13
 323              		@ sp needed
 324 0056 80BD     		pop	{r7, pc}
 325              	.L11:
 326              		.align	2
 327              	.L10:
 328 0058 00000000 		.word	timeToSycnRemoteParams
 329 005c 00000000 		.word	timeToMeasure
 330 0060 00000000 		.word	timeToSync
 331              		.cfi_endproc
 332              	.LFE66:
 333              		.size	WorkWorkWorkWorkWorkWork, .-WorkWorkWorkWorkWorkWork
 334              		.section	.text.LayBack,"ax",%progbits
 335              		.align	2
 336              		.global	LayBack
 337              		.thumb
 338              		.thumb_func
 339              		.type	LayBack, %function
 340              	LayBack:
 341              	.LFB67:
 130:notoriOS.c    **** 
 131:notoriOS.c    **** 
 132:notoriOS.c    **** 
 133:notoriOS.c    **** 
 134:notoriOS.c    **** 
 135:notoriOS.c    **** 
 136:notoriOS.c    **** // ==============================================
 137:notoriOS.c    **** // sippin on gin and juice, Laid back (with my mind on my money and my money on my mind)
 138:notoriOS.c    **** //      - Snoop Dogg (1993)
 139:notoriOS.c    **** //
 140:notoriOS.c    **** // Put all hardware to sleep and go into low power mode to conserve Amps
 141:notoriOS.c    **** // ==============================================
 142:notoriOS.c    **** void LayBack()
 143:notoriOS.c    **** {
 342              		.loc 1 143 0
 343              		.cfi_startproc
 344              		@ args = 0, pretend = 0, frame = 0
 345              		@ frame_needed = 1, uses_anonymous_args = 0
 346 0000 80B5     		push	{r7, lr}
 347              		.cfi_def_cfa_offset 8
 348              		.cfi_offset 7, -8
 349              		.cfi_offset 14, -4
 350 0002 00AF     		add	r7, sp, #0
 351              		.cfi_def_cfa_register 7
 144:notoriOS.c    ****   
 145:notoriOS.c    ****     modem_sleep();  // Prepares system clocks for the Sleep mode
 352              		.loc 1 145 0
 353 0004 FFF7FEFF 		bl	modem_sleep
 146:notoriOS.c    ****     
 147:notoriOS.c    ****     // Important, call this last because we want to sleep uart before shutting down
 148:notoriOS.c    ****     debug_sleep();  // Function to sleep UART debug
ARM GAS  C:\Users\hail\AppData\Local\Temp\cc4ySZ7O.s 			page 10


 354              		.loc 1 148 0
 355 0008 FFF7FEFF 		bl	debug_sleep
 149:notoriOS.c    ****     
 150:notoriOS.c    ****     CyPmSaveClocks(); // Called to prep system to sleep/hiberanate. Saves all states of clocking sy
 356              		.loc 1 150 0
 357 000c FFF7FEFF 		bl	CyPmSaveClocks
 151:notoriOS.c    ****     
 152:notoriOS.c    ****     // Switch to the Sleep Mode for the other devices:
 153:notoriOS.c    ****     //  - PM_SLEEP_TIME_NONE: wakeup time is defined by Sleep Timer
 154:notoriOS.c    ****     //  - PM_SLEEP_SRC_CTW :  wakeup on CTW sources is allowed
 155:notoriOS.c    ****     //  - If real-time clock is used, it will also wake the device
 156:notoriOS.c    ****     //can also wake up from a pin intterup (PICU). This is useful with the moderm UART
 157:notoriOS.c    ****     //CyPmHibernate();
 158:notoriOS.c    ****     //CyPmSleep(PM_SLEEP_TIME_NONE, PM_SLEEP_SRC_CTW & PM_SLEEP_SRC_PICU);
 159:notoriOS.c    **** 
 160:notoriOS.c    ****     CyPmSleep(PM_SLEEP_TIME_NONE, PM_SLEEP_SRC_CTW & PM_SLEEP_SRC_ONE_PPS); // Puts the part into t
 358              		.loc 1 160 0
 359 0010 4FF40061 		mov	r1, #2048
 360 0014 0020     		movs	r0, #0
 361 0016 FFF7FEFF 		bl	CyPmSleep
 161:notoriOS.c    **** 
 162:notoriOS.c    ****     CyPmRestoreClocks();    // Restore clock configuration.
 362              		.loc 1 162 0
 363 001a FFF7FEFF 		bl	CyPmRestoreClocks
 163:notoriOS.c    **** 
 164:notoriOS.c    ****     debug_wakeup();         // Function to wakeup UART debug.
 364              		.loc 1 164 0
 365 001e FFF7FEFF 		bl	debug_wakeup
 165:notoriOS.c    ****     modem_wakeup();         // Function to wakeup modem.
 366              		.loc 1 165 0
 367 0022 FFF7FEFF 		bl	modem_wakeup
 166:notoriOS.c    **** 
 167:notoriOS.c    **** }
 368              		.loc 1 167 0
 369 0026 00BF     		nop
 370 0028 80BD     		pop	{r7, pc}
 371              		.cfi_endproc
 372              	.LFE67:
 373              		.size	LayBack, .-LayBack
 374 002a 00BF     		.section	.text.AyoItsTime,"ax",%progbits
 375              		.align	2
 376              		.global	AyoItsTime
 377              		.thumb
 378              		.thumb_func
 379              		.type	AyoItsTime, %function
 380              	AyoItsTime:
 381              	.LFB68:
 168:notoriOS.c    **** 
 169:notoriOS.c    **** 
 170:notoriOS.c    **** // ==============================================
 171:notoriOS.c    **** // I never sleep, 'cause sleep is the cousin of death
 172:notoriOS.c    **** //      - NAS (1994)
 173:notoriOS.c    **** //
 174:notoriOS.c    **** // This is the scheduler. It's called from various interrupts and timers,
 175:notoriOS.c    **** // ...in particular from fuctions with in the real-tiem clock interrupts (RTC_INT.c)
 176:notoriOS.c    **** // It will add tasks to the work queue,
 177:notoriOS.c    **** // which will be executed eventually by WorkWorkWorkWorkWorkWork()
ARM GAS  C:\Users\hail\AppData\Local\Temp\cc4ySZ7O.s 			page 11


 178:notoriOS.c    **** // ==============================================
 179:notoriOS.c    **** void AyoItsTime(uint8 alarmType)
 180:notoriOS.c    **** {
 382              		.loc 1 180 0
 383              		.cfi_startproc
 384              		@ args = 0, pretend = 0, frame = 8
 385              		@ frame_needed = 1, uses_anonymous_args = 0
 386 0000 80B5     		push	{r7, lr}
 387              		.cfi_def_cfa_offset 8
 388              		.cfi_offset 7, -8
 389              		.cfi_offset 14, -4
 390 0002 82B0     		sub	sp, sp, #8
 391              		.cfi_def_cfa_offset 16
 392 0004 00AF     		add	r7, sp, #0
 393              		.cfi_def_cfa_register 7
 394 0006 0346     		mov	r3, r0
 395 0008 FB71     		strb	r3, [r7, #7]
 181:notoriOS.c    ****     // Checks if the alarm is up and if so, sets the flag.
 182:notoriOS.c    ****     if(AlarmReady(&alarmMeasure,alarmType))
 396              		.loc 1 182 0
 397 000a FB79     		ldrb	r3, [r7, #7]	@ zero_extendqisi2
 398 000c 1946     		mov	r1, r3
 399 000e 0C48     		ldr	r0, .L17
 400 0010 FFF7FEFF 		bl	AlarmReady
 401 0014 0346     		mov	r3, r0
 402 0016 002B     		cmp	r3, #0
 403 0018 02D0     		beq	.L14
 183:notoriOS.c    ****     {
 184:notoriOS.c    ****          // Flag new task as "ready" and pass off to workworkworkworkwork()
 185:notoriOS.c    ****         timeToMeasure = 1u;
 404              		.loc 1 185 0
 405 001a 0A4B     		ldr	r3, .L17+4
 406 001c 0122     		movs	r2, #1
 407 001e 1A70     		strb	r2, [r3]
 408              	.L14:
 186:notoriOS.c    ****         //printNotif(NOTIF_TYPE_EVENT,"Measure Alarm");
 187:notoriOS.c    ****         
 188:notoriOS.c    ****     }
 189:notoriOS.c    ****     if(AlarmReady(&alarmSync,alarmType))
 409              		.loc 1 189 0
 410 0020 FB79     		ldrb	r3, [r7, #7]	@ zero_extendqisi2
 411 0022 1946     		mov	r1, r3
 412 0024 0848     		ldr	r0, .L17+8
 413 0026 FFF7FEFF 		bl	AlarmReady
 414 002a 0346     		mov	r3, r0
 415 002c 002B     		cmp	r3, #0
 416 002e 02D0     		beq	.L16
 190:notoriOS.c    ****     {
 191:notoriOS.c    ****         // Create new task and pass off to workworkworkworkwork()
 192:notoriOS.c    ****         timeToSync = 1u;
 417              		.loc 1 192 0
 418 0030 064B     		ldr	r3, .L17+12
 419 0032 0122     		movs	r2, #1
 420 0034 1A70     		strb	r2, [r3]
 421              	.L16:
 193:notoriOS.c    ****          //printNotif(NOTIF_TYPE_EVENT,"Sync Alarm");
 194:notoriOS.c    ****     }
ARM GAS  C:\Users\hail\AppData\Local\Temp\cc4ySZ7O.s 			page 12


 195:notoriOS.c    ****     
 196:notoriOS.c    **** }
 422              		.loc 1 196 0
 423 0036 00BF     		nop
 424 0038 0837     		adds	r7, r7, #8
 425              		.cfi_def_cfa_offset 8
 426 003a BD46     		mov	sp, r7
 427              		.cfi_def_cfa_register 13
 428              		@ sp needed
 429 003c 80BD     		pop	{r7, pc}
 430              	.L18:
 431 003e 00BF     		.align	2
 432              	.L17:
 433 0040 00000000 		.word	alarmMeasure
 434 0044 00000000 		.word	timeToMeasure
 435 0048 00000000 		.word	alarmSync
 436 004c 00000000 		.word	timeToSync
 437              		.cfi_endproc
 438              	.LFE68:
 439              		.size	AyoItsTime, .-AyoItsTime
 440              		.section	.text.AlarmReady,"ax",%progbits
 441              		.align	2
 442              		.global	AlarmReady
 443              		.thumb
 444              		.thumb_func
 445              		.type	AlarmReady, %function
 446              	AlarmReady:
 447              	.LFB69:
 197:notoriOS.c    **** 
 198:notoriOS.c    **** 
 199:notoriOS.c    **** // ==============================================
 200:notoriOS.c    **** // Determines when an alarm is ready to trigger, which will be handeled by another cutions
 201:notoriOS.c    **** // ==============================================
 202:notoriOS.c    **** uint8 AlarmReady(alarm * alarmToBeUpdated, uint8 alarmType)
 203:notoriOS.c    **** {
 448              		.loc 1 203 0
 449              		.cfi_startproc
 450              		@ args = 0, pretend = 0, frame = 8
 451              		@ frame_needed = 1, uses_anonymous_args = 0
 452 0000 80B5     		push	{r7, lr}
 453              		.cfi_def_cfa_offset 8
 454              		.cfi_offset 7, -8
 455              		.cfi_offset 14, -4
 456 0002 82B0     		sub	sp, sp, #8
 457              		.cfi_def_cfa_offset 16
 458 0004 00AF     		add	r7, sp, #0
 459              		.cfi_def_cfa_register 7
 460 0006 7860     		str	r0, [r7, #4]
 461 0008 0B46     		mov	r3, r1
 462 000a FB70     		strb	r3, [r7, #3]
 204:notoriOS.c    ****     // if the countDownType matches the alarmType
 205:notoriOS.c    ****     if(alarmToBeUpdated->countDownType == alarmType){
 463              		.loc 1 205 0
 464 000c 7B68     		ldr	r3, [r7, #4]
 465 000e 1B79     		ldrb	r3, [r3, #4]
 466 0010 DBB2     		uxtb	r3, r3
 467 0012 FA78     		ldrb	r2, [r7, #3]	@ zero_extendqisi2
ARM GAS  C:\Users\hail\AppData\Local\Temp\cc4ySZ7O.s 			page 13


 468 0014 9A42     		cmp	r2, r3
 469 0016 12D1     		bne	.L20
 206:notoriOS.c    ****        
 207:notoriOS.c    ****         // In the Post-decrement old value is first used in a expression and then old value will be
 208:notoriOS.c    ****         // Decrement the count down value by 1
 209:notoriOS.c    ****         alarmToBeUpdated->currentCountDownValue--;
 470              		.loc 1 209 0
 471 0018 7B68     		ldr	r3, [r7, #4]
 472 001a 5B88     		ldrh	r3, [r3, #2]	@ movhi
 473 001c 1BB2     		sxth	r3, r3
 474 001e 9BB2     		uxth	r3, r3
 475 0020 013B     		subs	r3, r3, #1
 476 0022 9BB2     		uxth	r3, r3
 477 0024 1AB2     		sxth	r2, r3
 478 0026 7B68     		ldr	r3, [r7, #4]
 479 0028 5A80     		strh	r2, [r3, #2]	@ movhi
 210:notoriOS.c    ****         // If the current count is 0, then reset the alarm
 211:notoriOS.c    ****         if(alarmToBeUpdated->currentCountDownValue <= 0){
 480              		.loc 1 211 0
 481 002a 7B68     		ldr	r3, [r7, #4]
 482 002c 5B88     		ldrh	r3, [r3, #2]	@ movhi
 483 002e 1BB2     		sxth	r3, r3
 484 0030 002B     		cmp	r3, #0
 485 0032 04DC     		bgt	.L20
 212:notoriOS.c    ****             ResetAlarm(alarmToBeUpdated);
 486              		.loc 1 212 0
 487 0034 7868     		ldr	r0, [r7, #4]
 488 0036 FFF7FEFF 		bl	ResetAlarm
 213:notoriOS.c    ****             return 1u;
 489              		.loc 1 213 0
 490 003a 0123     		movs	r3, #1
 491 003c 00E0     		b	.L21
 492              	.L20:
 214:notoriOS.c    ****         } 
 215:notoriOS.c    ****     }
 216:notoriOS.c    ****     
 217:notoriOS.c    ****     return 0u; // Otherwise return 0
 493              		.loc 1 217 0
 494 003e 0023     		movs	r3, #0
 495              	.L21:
 218:notoriOS.c    **** }
 496              		.loc 1 218 0
 497 0040 1846     		mov	r0, r3
 498 0042 0837     		adds	r7, r7, #8
 499              		.cfi_def_cfa_offset 8
 500 0044 BD46     		mov	sp, r7
 501              		.cfi_def_cfa_register 13
 502              		@ sp needed
 503 0046 80BD     		pop	{r7, pc}
 504              		.cfi_endproc
 505              	.LFE69:
 506              		.size	AlarmReady, .-AlarmReady
 507              		.section	.text.ResetAlarm,"ax",%progbits
 508              		.align	2
 509              		.global	ResetAlarm
 510              		.thumb
 511              		.thumb_func
ARM GAS  C:\Users\hail\AppData\Local\Temp\cc4ySZ7O.s 			page 14


 512              		.type	ResetAlarm, %function
 513              	ResetAlarm:
 514              	.LFB70:
 219:notoriOS.c    **** 
 220:notoriOS.c    **** // ==============================================
 221:notoriOS.c    **** // Resets an alarm, which will be handeled by other executions
 222:notoriOS.c    **** // ==============================================
 223:notoriOS.c    **** void ResetAlarm(alarm * alarmToBeReset)
 224:notoriOS.c    **** {
 515              		.loc 1 224 0
 516              		.cfi_startproc
 517              		@ args = 0, pretend = 0, frame = 8
 518              		@ frame_needed = 1, uses_anonymous_args = 0
 519              		@ link register save eliminated.
 520 0000 80B4     		push	{r7}
 521              		.cfi_def_cfa_offset 4
 522              		.cfi_offset 7, -4
 523 0002 83B0     		sub	sp, sp, #12
 524              		.cfi_def_cfa_offset 16
 525 0004 00AF     		add	r7, sp, #0
 526              		.cfi_def_cfa_register 7
 527 0006 7860     		str	r0, [r7, #4]
 225:notoriOS.c    ****     // resets the alarm when the current count down value equals the set alarm count down value
 226:notoriOS.c    ****     alarmToBeReset->currentCountDownValue = alarmToBeReset->countDownValue;
 528              		.loc 1 226 0
 529 0008 7B68     		ldr	r3, [r7, #4]
 530 000a 1B88     		ldrh	r3, [r3]	@ movhi
 531 000c 9BB2     		uxth	r3, r3
 532 000e 1AB2     		sxth	r2, r3
 533 0010 7B68     		ldr	r3, [r7, #4]
 534 0012 5A80     		strh	r2, [r3, #2]	@ movhi
 227:notoriOS.c    **** }
 535              		.loc 1 227 0
 536 0014 00BF     		nop
 537 0016 0C37     		adds	r7, r7, #12
 538              		.cfi_def_cfa_offset 4
 539 0018 BD46     		mov	sp, r7
 540              		.cfi_def_cfa_register 13
 541              		@ sp needed
 542 001a 80BC     		pop	{r7}
 543              		.cfi_restore 7
 544              		.cfi_def_cfa_offset 0
 545 001c 7047     		bx	lr
 546              		.cfi_endproc
 547              	.LFE70:
 548              		.size	ResetAlarm, .-ResetAlarm
 549 001e 00BF     		.section	.text.CreateAlarm,"ax",%progbits
 550              		.align	2
 551              		.global	CreateAlarm
 552              		.thumb
 553              		.thumb_func
 554              		.type	CreateAlarm, %function
 555              	CreateAlarm:
 556              	.LFB71:
 228:notoriOS.c    **** 
 229:notoriOS.c    **** // ==============================================
 230:notoriOS.c    **** // Creates a new alarm, which will be handeled by another cutions
ARM GAS  C:\Users\hail\AppData\Local\Temp\cc4ySZ7O.s 			page 15


 231:notoriOS.c    **** // ==============================================
 232:notoriOS.c    **** alarm CreateAlarm(uint16 countDownValue, uint8 countDownType,uint8 countDownResetCondition)
 233:notoriOS.c    **** {
 557              		.loc 1 233 0
 558              		.cfi_startproc
 559              		@ args = 0, pretend = 0, frame = 16
 560              		@ frame_needed = 1, uses_anonymous_args = 0
 561              		@ link register save eliminated.
 562 0000 80B4     		push	{r7}
 563              		.cfi_def_cfa_offset 4
 564              		.cfi_offset 7, -4
 565 0002 85B0     		sub	sp, sp, #20
 566              		.cfi_def_cfa_offset 24
 567 0004 00AF     		add	r7, sp, #0
 568              		.cfi_def_cfa_register 7
 569 0006 7860     		str	r0, [r7, #4]
 570 0008 0846     		mov	r0, r1
 571 000a 1146     		mov	r1, r2
 572 000c 1A46     		mov	r2, r3
 573 000e 0346     		mov	r3, r0	@ movhi
 574 0010 7B80     		strh	r3, [r7, #2]	@ movhi
 575 0012 0B46     		mov	r3, r1
 576 0014 7B70     		strb	r3, [r7, #1]
 577 0016 1346     		mov	r3, r2
 578 0018 3B70     		strb	r3, [r7]
 234:notoriOS.c    ****     // Creates variable newAlarm of the data structure type alarm
 235:notoriOS.c    ****     alarm newAlarm;
 236:notoriOS.c    ****     
 237:notoriOS.c    ****     // Defines the different params of an alarm: # of ticks, alarm type (sec, min, etc.), & continu
 238:notoriOS.c    ****     newAlarm.countDownValue = countDownValue;
 579              		.loc 1 238 0
 580 001a 7B88     		ldrh	r3, [r7, #2]	@ movhi
 581 001c 3B81     		strh	r3, [r7, #8]	@ movhi
 239:notoriOS.c    ****     newAlarm.countDownType = countDownType;
 582              		.loc 1 239 0
 583 001e 7B78     		ldrb	r3, [r7, #1]
 584 0020 3B73     		strb	r3, [r7, #12]
 240:notoriOS.c    ****     newAlarm.countDownResetCondition = countDownResetCondition;
 585              		.loc 1 240 0
 586 0022 3B78     		ldrb	r3, [r7]
 587 0024 7B73     		strb	r3, [r7, #13]
 241:notoriOS.c    ****     
 242:notoriOS.c    ****     // If you want a reccuring alarm (e.g. resets freshly each hour), then add
 243:notoriOS.c    ****     // Account for already exprired time using the RTC. Otherwise, set to the countDownValue
 244:notoriOS.c    ****     newAlarm.currentCountDownValue = countDownValue;
 588              		.loc 1 244 0
 589 0026 B7F90230 		ldrsh	r3, [r7, #2]
 590 002a 7B81     		strh	r3, [r7, #10]	@ movhi
 245:notoriOS.c    ****     
 246:notoriOS.c    ****     return newAlarm;
 591              		.loc 1 246 0
 592 002c 7B68     		ldr	r3, [r7, #4]
 593 002e 1A46     		mov	r2, r3
 594 0030 07F10803 		add	r3, r7, #8
 595 0034 1868     		ldr	r0, [r3]	@ unaligned
 596 0036 1060     		str	r0, [r2]	@ unaligned
 597 0038 9B88     		ldrh	r3, [r3, #4]	@ unaligned
ARM GAS  C:\Users\hail\AppData\Local\Temp\cc4ySZ7O.s 			page 16


 598 003a 9380     		strh	r3, [r2, #4]	@ unaligned
 247:notoriOS.c    ****     
 248:notoriOS.c    **** }
 599              		.loc 1 248 0
 600 003c 7868     		ldr	r0, [r7, #4]
 601 003e 1437     		adds	r7, r7, #20
 602              		.cfi_def_cfa_offset 4
 603 0040 BD46     		mov	sp, r7
 604              		.cfi_def_cfa_register 13
 605              		@ sp needed
 606 0042 80BC     		pop	{r7}
 607              		.cfi_restore 7
 608              		.cfi_def_cfa_offset 0
 609 0044 7047     		bx	lr
 610              		.cfi_endproc
 611              	.LFE71:
 612              		.size	CreateAlarm, .-CreateAlarm
 613 0046 00BF     		.section	.rodata
 614 0047 00       		.align	2
 615              	.LC4:
 616 0048 2D2D2D2D 		.ascii	"-------------BEGIN TESTS---------------\012\012\000"
 616      2D2D2D2D 
 616      2D2D2D2D 
 616      2D424547 
 616      494E2054 
 617 0072 0000     		.align	2
 618              	.LC5:
 619 0074 4D454944 		.ascii	"MEID=%s, SIMID=%s, DEVICEID=%s\012\000"
 619      3D25732C 
 619      2053494D 
 619      49443D25 
 619      732C2044 
 620              		.align	2
 621              	.LC6:
 622 0094 0A0A2D2D 		.ascii	"\012\012-------------END TESTS---------------\012\012"
 622      2D2D2D2D 
 622      2D2D2D2D 
 622      2D2D2D45 
 622      4E442054 
 623 00bd 00       		.ascii	"\000"
 624              		.section	.text.ChickityCheckYourselfBeforeYouWreckYourself,"ax",%progbits
 625              		.align	2
 626              		.global	ChickityCheckYourselfBeforeYouWreckYourself
 627              		.thumb
 628              		.thumb_func
 629              		.type	ChickityCheckYourselfBeforeYouWreckYourself, %function
 630              	ChickityCheckYourselfBeforeYouWreckYourself:
 631              	.LFB72:
 249:notoriOS.c    **** 
 250:notoriOS.c    **** // ==============================================
 251:notoriOS.c    **** // Dropping bombs on your moms
 252:notoriOS.c    **** //      - Ice Cube (1992)
 253:notoriOS.c    **** //
 254:notoriOS.c    **** // This is the global testing function, which runs all relevant tests
 255:notoriOS.c    **** // If you make a new components, it could be good to call its tester function here 
 256:notoriOS.c    **** // ==============================================
 257:notoriOS.c    **** void ChickityCheckYourselfBeforeYouWreckYourself(){
ARM GAS  C:\Users\hail\AppData\Local\Temp\cc4ySZ7O.s 			page 17


 632              		.loc 1 257 0
 633              		.cfi_startproc
 634              		@ args = 0, pretend = 0, frame = 1552
 635              		@ frame_needed = 1, uses_anonymous_args = 0
 636 0000 90B5     		push	{r4, r7, lr}
 637              		.cfi_def_cfa_offset 12
 638              		.cfi_offset 4, -12
 639              		.cfi_offset 7, -8
 640              		.cfi_offset 14, -4
 641 0002 ADF28C7D 		subw	sp, sp, #1932
 642              		.cfi_def_cfa_offset 1944
 643 0006 5EAF     		add	r7, sp, #376
 644              		.cfi_def_cfa 7, 1568
 258:notoriOS.c    **** 
 259:notoriOS.c    ****     //test_t t_influx = influx_test();
 260:notoriOS.c    ****     //printTestStatus(t_influx);
 261:notoriOS.c    ****     
 262:notoriOS.c    ****     printNotif(NOTIF_TYPE_STARTUP,"-------------BEGIN TESTS---------------\n\n");
 645              		.loc 1 262 0
 646 0008 2F49     		ldr	r1, .L26
 647 000a 0320     		movs	r0, #3
 648 000c FFF7FEFF 		bl	printNotif
 263:notoriOS.c    ****     
 264:notoriOS.c    ****     // Test modem
 265:notoriOS.c    ****     test_t t_modem = modem_test();
 649              		.loc 1 265 0
 650 0010 07F28C43 		addw	r3, r7, #1164
 651 0014 1846     		mov	r0, r3
 652 0016 FFF7FEFF 		bl	modem_test
 266:notoriOS.c    ****     printNotif(NOTIF_TYPE_STARTUP,"MEID=%s, SIMID=%s, DEVICEID=%s\n",modem_info.imei,modem_info.sim
 653              		.loc 1 266 0
 654 001a 2C4B     		ldr	r3, .L26+4
 655 001c 0093     		str	r3, [sp]
 656 001e 2C4B     		ldr	r3, .L26+8
 657 0020 2C4A     		ldr	r2, .L26+12
 658 0022 2D49     		ldr	r1, .L26+16
 659 0024 0320     		movs	r0, #3
 660 0026 FFF7FEFF 		bl	printNotif
 267:notoriOS.c    ****     printTestStatus(t_modem);
 661              		.loc 1 267 0
 662 002a 07F28C44 		addw	r4, r7, #1164
 663 002e 6846     		mov	r0, sp
 664 0030 04F11003 		add	r3, r4, #16
 665 0034 40F27112 		movw	r2, #369
 666 0038 1946     		mov	r1, r3
 667 003a FFF7FEFF 		bl	memcpy
 668 003e 94E80F00 		ldmia	r4, {r0, r1, r2, r3}
 669 0042 FFF7FEFF 		bl	printTestStatus
 268:notoriOS.c    ****     
 269:notoriOS.c    ****     // Test level sensor
 270:notoriOS.c    ****     test_t t_level_sensor = level_sensor_test();  
 670              		.loc 1 270 0
 671 0046 07F54273 		add	r3, r7, #776
 672 004a 1846     		mov	r0, r3
 673 004c FFF7FEFF 		bl	level_sensor_test
 271:notoriOS.c    ****     printTestStatus(t_level_sensor);
 674              		.loc 1 271 0
ARM GAS  C:\Users\hail\AppData\Local\Temp\cc4ySZ7O.s 			page 18


 675 0050 07F54274 		add	r4, r7, #776
 676 0054 6846     		mov	r0, sp
 677 0056 04F11003 		add	r3, r4, #16
 678 005a 40F27112 		movw	r2, #369
 679 005e 1946     		mov	r1, r3
 680 0060 FFF7FEFF 		bl	memcpy
 681 0064 94E80F00 		ldmia	r4, {r0, r1, r2, r3}
 682 0068 FFF7FEFF 		bl	printTestStatus
 272:notoriOS.c    ****     
 273:notoriOS.c    ****     // Test voltages
 274:notoriOS.c    ****     test_t t_voltages = voltages_test();
 683              		.loc 1 274 0
 684 006c 07F5C273 		add	r3, r7, #388
 685 0070 1846     		mov	r0, r3
 686 0072 FFF7FEFF 		bl	voltages_test
 275:notoriOS.c    ****     printTestStatus(t_voltages);
 687              		.loc 1 275 0
 688 0076 07F5C274 		add	r4, r7, #388
 689 007a 6846     		mov	r0, sp
 690 007c 04F11003 		add	r3, r4, #16
 691 0080 40F27112 		movw	r2, #369
 692 0084 1946     		mov	r1, r3
 693 0086 FFF7FEFF 		bl	memcpy
 694 008a 94E80F00 		ldmia	r4, {r0, r1, r2, r3}
 695 008e FFF7FEFF 		bl	printTestStatus
 276:notoriOS.c    ****     
 277:notoriOS.c    ****     // Test SD card
 278:notoriOS.c    ****     test_t t_sd_card = SD_card_test();
 696              		.loc 1 278 0
 697 0092 3B46     		mov	r3, r7
 698 0094 1846     		mov	r0, r3
 699 0096 FFF7FEFF 		bl	SD_card_test
 279:notoriOS.c    ****     printTestStatus(t_sd_card);
 700              		.loc 1 279 0
 701 009a 3C46     		mov	r4, r7
 702 009c 6846     		mov	r0, sp
 703 009e 04F11003 		add	r3, r4, #16
 704 00a2 40F27112 		movw	r2, #369
 705 00a6 1946     		mov	r1, r3
 706 00a8 FFF7FEFF 		bl	memcpy
 707 00ac 94E80F00 		ldmia	r4, {r0, r1, r2, r3}
 708 00b0 FFF7FEFF 		bl	printTestStatus
 280:notoriOS.c    ****     
 281:notoriOS.c    ****     printNotif(NOTIF_TYPE_STARTUP,"\n\n-------------END TESTS---------------\n\n");
 709              		.loc 1 281 0
 710 00b4 0949     		ldr	r1, .L26+20
 711 00b6 0320     		movs	r0, #3
 712 00b8 FFF7FEFF 		bl	printNotif
 282:notoriOS.c    **** 
 283:notoriOS.c    **** }
 713              		.loc 1 283 0
 714 00bc 00BF     		nop
 715 00be 07F21467 		addw	r7, r7, #1556
 716              		.cfi_def_cfa_offset 12
 717 00c2 BD46     		mov	sp, r7
 718              		.cfi_def_cfa_register 13
 719              		@ sp needed
ARM GAS  C:\Users\hail\AppData\Local\Temp\cc4ySZ7O.s 			page 19


 720 00c4 90BD     		pop	{r4, r7, pc}
 721              	.L27:
 722 00c6 00BF     		.align	2
 723              	.L26:
 724 00c8 48000000 		.word	.LC4
 725 00cc 04000000 		.word	system_info+4
 726 00d0 00000000 		.word	modem_info
 727 00d4 28000000 		.word	modem_info+40
 728 00d8 74000000 		.word	.LC5
 729 00dc 94000000 		.word	.LC6
 730              		.cfi_endproc
 731              	.LFE72:
 732              		.size	ChickityCheckYourselfBeforeYouWreckYourself, .-ChickityCheckYourselfBeforeYouWreckYourself
 733              		.section	.text.main,"ax",%progbits
 734              		.align	2
 735              		.global	main
 736              		.thumb
 737              		.thumb_func
 738              		.type	main, %function
 739              	main:
 740              	.LFB73:
 284:notoriOS.c    **** 
 285:notoriOS.c    **** // ==============================================
 286:notoriOS.c    **** // Processes Core Tasks
 287:notoriOS.c    **** // ==============================================
 288:notoriOS.c    **** int main(void)
 289:notoriOS.c    **** {
 741              		.loc 1 289 0
 742              		.cfi_startproc
 743              		@ args = 0, pretend = 0, frame = 0
 744              		@ frame_needed = 1, uses_anonymous_args = 0
 745 0000 80B5     		push	{r7, lr}
 746              		.cfi_def_cfa_offset 8
 747              		.cfi_offset 7, -8
 748              		.cfi_offset 14, -4
 749 0002 00AF     		add	r7, sp, #0
 750              		.cfi_def_cfa_register 7
 290:notoriOS.c    ****     CyGlobalIntEnable; /* Enable global interrupts. */
 751              		.loc 1 290 0
 752              		.syntax unified
 753              	@ 290 "notoriOS.c" 1
 754 0004 62B6     		CPSIE   i
 755              	@ 0 "" 2
 291:notoriOS.c    **** 
 292:notoriOS.c    ****     ReadyOrNot(); // Initialize 
 756              		.loc 1 292 0
 757              		.thumb
 758              		.syntax unified
 759 0006 FFF7FEFF 		bl	ReadyOrNot
 293:notoriOS.c    ****     
 294:notoriOS.c    ****     ChickityCheckYourselfBeforeYouWreckYourself(); // Run tests for all components on bootup
 760              		.loc 1 294 0
 761 000a FFF7FEFF 		bl	ChickityCheckYourselfBeforeYouWreckYourself
 762              	.L30:
 295:notoriOS.c    ****    
 296:notoriOS.c    ****     for(;;) // (;;) means an infinite loop
 297:notoriOS.c    ****     {
ARM GAS  C:\Users\hail\AppData\Local\Temp\cc4ySZ7O.s 			page 20


 298:notoriOS.c    ****         
 299:notoriOS.c    ****         if( ! WorkWorkWorkWorkWorkWork() ) // Complete the work
 763              		.loc 1 299 0
 764 000e FFF7FEFF 		bl	WorkWorkWorkWorkWorkWork
 765 0012 0346     		mov	r3, r0
 766 0014 002B     		cmp	r3, #0
 767 0016 FAD1     		bne	.L30
 300:notoriOS.c    ****         {
 301:notoriOS.c    ****            LayBack(); // Lay back (sleep) when there isn't work
 768              		.loc 1 301 0
 769 0018 FFF7FEFF 		bl	LayBack
 302:notoriOS.c    ****         }
 303:notoriOS.c    ****     }
 770              		.loc 1 303 0
 771 001c F7E7     		b	.L30
 772              		.cfi_endproc
 773              	.LFE73:
 774              		.size	main, .-main
 775 001e 00BF     		.section	.rodata
 776 00be 0000     		.align	2
 777              	.LC7:
 778 00c0 4D6F6465 		.ascii	"Modem is ready.\000"
 778      6D206973 
 778      20726561 
 778      64792E00 
 779              		.align	2
 780              	.LC8:
 781 00d0 72737270 		.ascii	"rsrp\000"
 781      00
 782 00d5 000000   		.align	2
 783              	.LC9:
 784 00d8 7472795F 		.ascii	"try_counter\000"
 784      636F756E 
 784      74657200 
 785              		.align	2
 786              	.LC10:
 787 00e4 64617461 		.ascii	"data_count_sent\000"
 787      5F636F75 
 787      6E745F73 
 787      656E7400 
 788              		.align	2
 789              	.LC11:
 790 00f4 64617461 		.ascii	"data_count_desired\000"
 790      5F636F75 
 790      6E745F64 
 790      65736972 
 790      656400
 791 0107 00       		.align	2
 792              	.LC12:
 793 0108 42656769 		.ascii	"Begin HTTP post.\000"
 793      6E204854 
 793      54502070 
 793      6F73742E 
 793      00
 794 0119 000000   		.align	2
 795              	.LC13:
 796 011c 65666365 		.ascii	"efce164646c1e9afcb6097037a28da9eda4e14e4\000"
ARM GAS  C:\Users\hail\AppData\Local\Temp\cc4ySZ7O.s 			page 21


 796      31363436 
 796      34366331 
 796      65396166 
 796      63623630 
 797 0145 000000   		.align	2
 798              	.LC14:
 799 0148 6170692F 		.ascii	"api/v1/write\000"
 799      76312F77 
 799      72697465 
 799      00
 800 0155 000000   		.align	2
 801              	.LC15:
 802 0158 48545450 		.ascii	"HTTP route: %s\000"
 802      20726F75 
 802      74653A20 
 802      257300
 803 0167 00       		.align	2
 804              	.LC16:
 805 0168 312E3100 		.ascii	"1.1\000"
 806              		.align	2
 807              	.LC17:
 808 016c 00       		.ascii	"\000"
 809 016d 000000   		.align	2
 810              	.LC18:
 811 0170 436C6F73 		.ascii	"Close\000"
 811      6500
 812 0176 0000     		.align	2
 813              	.LC19:
 814 0178 504F5354 		.ascii	"POST\000"
 814      00
 815 017d 000000   		.align	2
 816              	.LC20:
 817 0180 46756C6C 		.ascii	"Full HTTP Request: %s\000"
 817      20485454 
 817      50205265 
 817      71756573 
 817      743A2025 
 818 0196 0000     		.align	2
 819              	.LC21:
 820 0198 41542353 		.ascii	"AT#SD=1,0,%d,\"%s\",0,0,1\015\000"
 820      443D312C 
 820      302C2564 
 820      2C222573 
 820      222C302C 
 821 01b1 000000   		.align	2
 822              	.LC22:
 823 01b4 257300   		.ascii	"%s\000"
 824 01b7 00       		.align	2
 825              	.LC23:
 826 01b8 4F4B00   		.ascii	"OK\000"
 827              		.global	__aeabi_ui2d
 828              		.global	__aeabi_d2iz
 829 01bb 00       		.align	2
 830              	.LC24:
 831 01bc 68747470 		.ascii	"http_request len: %d\000"
 831      5F726571 
 831      75657374 
ARM GAS  C:\Users\hail\AppData\Local\Temp\cc4ySZ7O.s 			page 22


 831      206C656E 
 831      3A202564 
 832 01d1 000000   		.align	2
 833              	.LC25:
 834 01d4 23206F66 		.ascii	"# of packets: %d\000"
 834      20706163 
 834      6B657473 
 834      3A202564 
 834      00
 835 01e5 000000   		.align	2
 836              	.LC26:
 837 01e8 3E00     		.ascii	">\000"
 838 01ea 0000     		.align	2
 839              	.LC27:
 840 01ec 41542353 		.ascii	"AT#SSEND=1\015\012\000"
 840      53454E44 
 840      3D310D0A 
 840      00
 841 01f9 000000   		.align	2
 842              	.LC28:
 843 01fc 1A00     		.ascii	"\032\000"
 844 01fe 0000     		.align	2
 845              	.LC29:
 846 0200 6368756E 		.ascii	"chunk %d: %s\000"
 846      6B202564 
 846      3A202573 
 846      00
 847 020d 000000   		.align	2
 848              	.LC30:
 849 0210 5352494E 		.ascii	"SRING\000"
 849      4700
 850 0216 0000     		.align	2
 851              	.LC31:
 852 0218 4F532D4F 		.ascii	"OS-OK\000"
 852      4B00
 853 021e 0000     		.align	2
 854              	.LC32:
 855 0220 41542353 		.ascii	"AT#SRECV=1,1000\015\000"
 855      52454356 
 855      3D312C31 
 855      3030300D 
 855      00
 856 0231 000000   		.align	2
 857              	.LC33:
 858 0234 6D6F6465 		.ascii	"modem_tx_time\000"
 858      6D5F7478 
 858      5F74696D 
 858      6500
 859 0242 0000     		.align	2
 860              	.LC34:
 861 0244 4F532D4E 		.ascii	"OS-NO: Could not receive data from server.\000"
 861      4F3A2043 
 861      6F756C64 
 861      206E6F74 
 861      20726563 
 862              		.section	.text.syncData,"ax",%progbits
 863              		.align	2
ARM GAS  C:\Users\hail\AppData\Local\Temp\cc4ySZ7O.s 			page 23


 864              		.global	syncData
 865              		.thumb
 866              		.thumb_func
 867              		.type	syncData, %function
 868              	syncData:
 869              	.LFB74:
 304:notoriOS.c    **** }
 305:notoriOS.c    **** 
 306:notoriOS.c    **** // ==============================================
 307:notoriOS.c    **** // Syncs data with server
 308:notoriOS.c    **** // Returns 0 when done
 309:notoriOS.c    **** // ==============================================
 310:notoriOS.c    **** uint8 syncData(){
 870              		.loc 1 310 0
 871              		.cfi_startproc
 872              		@ args = 0, pretend = 0, frame = 1320
 873              		@ frame_needed = 1, uses_anonymous_args = 0
 874 0000 90B5     		push	{r4, r7, lr}
 875              		.cfi_def_cfa_offset 12
 876              		.cfi_offset 4, -12
 877              		.cfi_offset 7, -8
 878              		.cfi_offset 14, -4
 879 0002 ADF2445D 		subw	sp, sp, #1348
 880              		.cfi_def_cfa_offset 1360
 881 0006 06AF     		add	r7, sp, #24
 882              		.cfi_def_cfa 7, 1336
 311:notoriOS.c    ****     
 312:notoriOS.c    ****     /*
 313:notoriOS.c    ****     //at_write_command("AT#SCFG?\r","OK",1000);
 314:notoriOS.c    ****     uint8 check = 0;
 315:notoriOS.c    ****     //"AT#SD=,0,80,\www.google.com\,0,0,0\r"
 316:notoriOS.c    ****     check = at_write_command("AT#SD=1,0,8086,\"data.open-storm.org\",0,0,1\r","OK",10000u);
 317:notoriOS.c    ****     check = at_write_command("AT#SSEND=1\r\n",   ">", 1000u);
 318:notoriOS.c    ****     check = at_write_command("POST /write?db=ARB&u=generic_node&p=MakeFloodsCurrents HTTP/1.1\r\nHo
 319:notoriOS.c    ****     */
 320:notoriOS.c    **** 
 321:notoriOS.c    ****     // Blink LED so we know it's about to sync data
 322:notoriOS.c    ****     LED_Write(1u);
 883              		.loc 1 322 0
 884 0008 0120     		movs	r0, #1
 885 000a FFF7FEFF 		bl	LED_Write
 323:notoriOS.c    ****     CyDelay(100u);
 886              		.loc 1 323 0
 887 000e 6420     		movs	r0, #100
 888 0010 FFF7FEFF 		bl	CyDelay
 324:notoriOS.c    ****     LED_Write(0u);
 889              		.loc 1 324 0
 890 0014 0020     		movs	r0, #0
 891 0016 FFF7FEFF 		bl	LED_Write
 325:notoriOS.c    **** 
 326:notoriOS.c    ****     
 327:notoriOS.c    ****     // If there's no data, not need to do anything
 328:notoriOS.c    ****     if(sizeOfDataStack() == 0){
 892              		.loc 1 328 0
 893 001a FFF7FEFF 		bl	sizeOfDataStack
 894 001e 0346     		mov	r3, r0
 895 0020 002B     		cmp	r3, #0
ARM GAS  C:\Users\hail\AppData\Local\Temp\cc4ySZ7O.s 			page 24


 896 0022 01D1     		bne	.L32
 329:notoriOS.c    ****         return 0u;
 897              		.loc 1 329 0
 898 0024 0023     		movs	r3, #0
 899 0026 A6E1     		b	.L33
 900              	.L32:
 330:notoriOS.c    ****     }
 331:notoriOS.c    ****     
 332:notoriOS.c    ****     // Create request body, in this case influx
 333:notoriOS.c    ****     // Place body into HTTP request header
 334:notoriOS.c    ****     // Fire up modem and get it out
 335:notoriOS.c    ****      
 336:notoriOS.c    ****     if(modem_get_state() == MODEM_STATE_OFF){
 901              		.loc 1 336 0
 902 0028 FFF7FEFF 		bl	modem_get_state
 903 002c 0346     		mov	r3, r0
 904 002e 002B     		cmp	r3, #0
 905 0030 27D1     		bne	.L34
 906              	.LBB2:
 337:notoriOS.c    ****         // Try up to 3 times to connect to the modem
 338:notoriOS.c    ****         for(int8 try_counter = 0; try_counter<3; try_counter++){
 907              		.loc 1 338 0
 908 0032 0023     		movs	r3, #0
 909 0034 87F82735 		strb	r3, [r7, #1319]
 910 0038 1EE0     		b	.L35
 911              	.L39:
 339:notoriOS.c    ****             // This puts all the modem points into a state that won't leak power
 340:notoriOS.c    ****             modem_power_up();
 912              		.loc 1 340 0
 913 003a FFF7FEFF 		bl	modem_power_up
 341:notoriOS.c    ****             // If modem successfully powers up, break out of the loop
 342:notoriOS.c    ****             if(modem_power_up() == 1u){
 914              		.loc 1 342 0
 915 003e FFF7FEFF 		bl	modem_power_up
 916 0042 0346     		mov	r3, r0
 917 0044 012B     		cmp	r3, #1
 918 0046 00F09481 		beq	.L48
 343:notoriOS.c    ****                 break;
 344:notoriOS.c    ****             }else if (modem_power_up() == 0u && try_counter >= 2){
 919              		.loc 1 344 0
 920 004a FFF7FEFF 		bl	modem_power_up
 921 004e 0346     		mov	r3, r0
 922 0050 002B     		cmp	r3, #0
 923 0052 0AD1     		bne	.L38
 924              		.loc 1 344 0 is_stmt 0 discriminator 1
 925 0054 97F92735 		ldrsb	r3, [r7, #1319]
 926 0058 012B     		cmp	r3, #1
 927 005a 06DD     		ble	.L38
 345:notoriOS.c    ****                 try_counter = 0;
 928              		.loc 1 345 0 is_stmt 1
 929 005c 0023     		movs	r3, #0
 930 005e 87F82735 		strb	r3, [r7, #1319]
 346:notoriOS.c    ****                 modem_power_down();
 931              		.loc 1 346 0
 932 0062 FFF7FEFF 		bl	modem_power_down
 347:notoriOS.c    ****                 return 0u;
 933              		.loc 1 347 0
ARM GAS  C:\Users\hail\AppData\Local\Temp\cc4ySZ7O.s 			page 25


 934 0066 0023     		movs	r3, #0
 935 0068 85E1     		b	.L33
 936              	.L38:
 338:notoriOS.c    ****             // This puts all the modem points into a state that won't leak power
 937              		.loc 1 338 0 discriminator 2
 938 006a 97F92735 		ldrsb	r3, [r7, #1319]
 939 006e DBB2     		uxtb	r3, r3
 940 0070 0133     		adds	r3, r3, #1
 941 0072 DBB2     		uxtb	r3, r3
 942 0074 87F82735 		strb	r3, [r7, #1319]
 943              	.L35:
 338:notoriOS.c    ****             // This puts all the modem points into a state that won't leak power
 944              		.loc 1 338 0 is_stmt 0 discriminator 1
 945 0078 97F92735 		ldrsb	r3, [r7, #1319]
 946 007c 022B     		cmp	r3, #2
 947 007e DCDD     		ble	.L39
 948 0080 78E1     		b	.L40
 949              	.L34:
 950              	.LBE2:
 348:notoriOS.c    ****             }
 349:notoriOS.c    ****         }
 350:notoriOS.c    ****             
 351:notoriOS.c    ****     }else if(modem_get_state() == MODEM_STATE_READY){
 951              		.loc 1 351 0 is_stmt 1
 952 0082 FFF7FEFF 		bl	modem_get_state
 953 0086 0346     		mov	r3, r0
 954 0088 042B     		cmp	r3, #4
 955 008a 40F07381 		bne	.L40
 956              	.LBB3:
 352:notoriOS.c    ****         printNotif(NOTIF_TYPE_EVENT,"Modem is ready.");
 957              		.loc 1 352 0
 958 008e BC49     		ldr	r1, .L49
 959 0090 0020     		movs	r0, #0
 960 0092 FFF7FEFF 		bl	printNotif
 353:notoriOS.c    ****         
 354:notoriOS.c    ****         http_request[0] = '\0';
 961              		.loc 1 354 0
 962 0096 BB4B     		ldr	r3, .L49+4
 963 0098 0022     		movs	r2, #0
 964 009a 1A70     		strb	r2, [r3]
 355:notoriOS.c    ****         http_body[0] = '\0';
 965              		.loc 1 355 0
 966 009c BA4B     		ldr	r3, .L49+8
 967 009e 0022     		movs	r2, #0
 968 00a0 1A70     		strb	r2, [r3]
 356:notoriOS.c    ****         http_route[0] = '\0';
 969              		.loc 1 356 0
 970 00a2 BA4B     		ldr	r3, .L49+12
 971 00a4 0022     		movs	r2, #0
 972 00a6 1A70     		strb	r2, [r3]
 357:notoriOS.c    ****         //char *base = "write";
 358:notoriOS.c    ****         
 359:notoriOS.c    ****         // Push cell strength data (RSRP: reference signal received power)
 360:notoriOS.c    ****         char s_rsrp[DATA_MAX_KEY_LENGTH];
 361:notoriOS.c    ****         snprintf(s_rsrp,sizeof(s_rsrp),"%d",modem_stats.rsrp);
 973              		.loc 1 361 0
 974 00a8 B94B     		ldr	r3, .L49+16
ARM GAS  C:\Users\hail\AppData\Local\Temp\cc4ySZ7O.s 			page 26


 975 00aa 5B79     		ldrb	r3, [r3, #5]	@ zero_extendqisi2
 976 00ac 07F2FC40 		addw	r0, r7, #1276
 977 00b0 B84A     		ldr	r2, .L49+20
 978 00b2 1421     		movs	r1, #20
 979 00b4 FFF7FEFF 		bl	snprintf
 362:notoriOS.c    ****         pushData("rsrp", s_rsrp, getTimeStamp());
 980              		.loc 1 362 0
 981 00b8 FFF7FEFF 		bl	getTimeStamp
 982 00bc 0246     		mov	r2, r0
 983 00be 07F2FC43 		addw	r3, r7, #1276
 984 00c2 1946     		mov	r1, r3
 985 00c4 B448     		ldr	r0, .L49+24
 986 00c6 FFF7FEFF 		bl	pushData
 363:notoriOS.c    ****         
 364:notoriOS.c    ****         // Push syncData try_counter to know how many tries it tried to connect
 365:notoriOS.c    ****         char c_try_counter[20];
 366:notoriOS.c    ****         snprintf(c_try_counter,sizeof(c_try_counter),"%d",try_counter);
 987              		.loc 1 366 0
 988 00ca B44B     		ldr	r3, .L49+28
 989 00cc 1B78     		ldrb	r3, [r3]	@ zero_extendqisi2
 990 00ce 07F59D60 		add	r0, r7, #1256
 991 00d2 B04A     		ldr	r2, .L49+20
 992 00d4 1421     		movs	r1, #20
 993 00d6 FFF7FEFF 		bl	snprintf
 367:notoriOS.c    ****         pushData("try_counter",c_try_counter,getTimeStamp());
 994              		.loc 1 367 0
 995 00da FFF7FEFF 		bl	getTimeStamp
 996 00de 0246     		mov	r2, r0
 997 00e0 07F59D63 		add	r3, r7, #1256
 998 00e4 1946     		mov	r1, r3
 999 00e6 AE48     		ldr	r0, .L49+32
 1000 00e8 FFF7FEFF 		bl	pushData
 368:notoriOS.c    ****         
 369:notoriOS.c    ****         // Get size of the actual and desired data stack count and push them to the stack
 370:notoriOS.c    ****         uint16 data_count_sent = sizeOfDataStack();
 1001              		.loc 1 370 0
 1002 00ec FFF7FEFF 		bl	sizeOfDataStack
 1003 00f0 0346     		mov	r3, r0
 1004 00f2 A7F81C35 		strh	r3, [r7, #1308]	@ movhi
 371:notoriOS.c    ****         char c_data_count_sent[20];
 372:notoriOS.c    ****         snprintf(c_data_count_sent,sizeof(c_data_count_sent),"%d",data_count_sent);
 1005              		.loc 1 372 0
 1006 00f6 B7F81C35 		ldrh	r3, [r7, #1308]
 1007 00fa 07F2D440 		addw	r0, r7, #1236
 1008 00fe A54A     		ldr	r2, .L49+20
 1009 0100 1421     		movs	r1, #20
 1010 0102 FFF7FEFF 		bl	snprintf
 373:notoriOS.c    ****         pushData("data_count_sent",c_data_count_sent,getTimeStamp());
 1011              		.loc 1 373 0
 1012 0106 FFF7FEFF 		bl	getTimeStamp
 1013 010a 0246     		mov	r2, r0
 1014 010c 07F2D443 		addw	r3, r7, #1236
 1015 0110 1946     		mov	r1, r3
 1016 0112 A448     		ldr	r0, .L49+36
 1017 0114 FFF7FEFF 		bl	pushData
 374:notoriOS.c    ****         uint16 data_count_desired = sizeOfDataStackDesired();
 1018              		.loc 1 374 0
ARM GAS  C:\Users\hail\AppData\Local\Temp\cc4ySZ7O.s 			page 27


 1019 0118 FFF7FEFF 		bl	sizeOfDataStackDesired
 1020 011c 0346     		mov	r3, r0
 1021 011e A7F81A35 		strh	r3, [r7, #1306]	@ movhi
 375:notoriOS.c    ****         char c_data_count_desired[20];
 376:notoriOS.c    ****         
 377:notoriOS.c    ****         // subtract 1 to disclude data_count_sent so that it focuses only on the actual data
 378:notoriOS.c    ****         snprintf(c_data_count_desired,sizeof(c_data_count_desired),"%d", data_count_desired-1);
 1022              		.loc 1 378 0
 1023 0122 B7F81A35 		ldrh	r3, [r7, #1306]
 1024 0126 013B     		subs	r3, r3, #1
 1025 0128 07F59860 		add	r0, r7, #1216
 1026 012c 994A     		ldr	r2, .L49+20
 1027 012e 1421     		movs	r1, #20
 1028 0130 FFF7FEFF 		bl	snprintf
 379:notoriOS.c    ****         pushData("data_count_desired",c_data_count_desired,getTimeStamp());
 1029              		.loc 1 379 0
 1030 0134 FFF7FEFF 		bl	getTimeStamp
 1031 0138 0246     		mov	r2, r0
 1032 013a 07F59863 		add	r3, r7, #1216
 1033 013e 1946     		mov	r1, r3
 1034 0140 9948     		ldr	r0, .L49+40
 1035 0142 FFF7FEFF 		bl	pushData
 380:notoriOS.c    ****         
 381:notoriOS.c    ****         // Construct HTPP request
 382:notoriOS.c    ****         printNotif(NOTIF_TYPE_EVENT,"Begin HTTP post.");
 1036              		.loc 1 382 0
 1037 0146 9949     		ldr	r1, .L49+44
 1038 0148 0020     		movs	r0, #0
 1039 014a FFF7FEFF 		bl	printNotif
 383:notoriOS.c    ****         
 384:notoriOS.c    ****         // Old influx API
 385:notoriOS.c    ****         // Construct_influx_route(http_route,base,system_settings.ep_user,system_settings.ep_pswd,s
 386:notoriOS.c    ****         construct_malcom_route(http_route,"api/v1/write",modem_info.imei,CURRENT_COMMIT);
 1040              		.loc 1 386 0
 1041 014e 984B     		ldr	r3, .L49+48
 1042 0150 984A     		ldr	r2, .L49+52
 1043 0152 9949     		ldr	r1, .L49+56
 1044 0154 8D48     		ldr	r0, .L49+12
 1045 0156 FFF7FEFF 		bl	construct_malcom_route
 387:notoriOS.c    ****         printNotif(NOTIF_TYPE_EVENT,"HTTP route: %s", http_route);
 1046              		.loc 1 387 0
 1047 015a 8C4A     		ldr	r2, .L49+12
 1048 015c 9749     		ldr	r1, .L49+60
 1049 015e 0020     		movs	r0, #0
 1050 0160 FFF7FEFF 		bl	printNotif
 388:notoriOS.c    ****         
 389:notoriOS.c    ****         //OLD INFLUX API
 390:notoriOS.c    ****         //construct_influx_write_body(http_body,system_settings.node_id);
 391:notoriOS.c    ****         construct_malcom_body(http_body);
 1051              		.loc 1 391 0
 1052 0164 8848     		ldr	r0, .L49+8
 1053 0166 FFF7FEFF 		bl	construct_malcom_body
 392:notoriOS.c    ****         construct_generic_HTTP_request(http_request,http_body,system_settings.ep_host,http_route,sy
 1054              		.loc 1 392 0
 1055 016a 954B     		ldr	r3, .L49+64
 1056 016c 5B6E     		ldr	r3, [r3, #100]
 1057 016e 954A     		ldr	r2, .L49+68
ARM GAS  C:\Users\hail\AppData\Local\Temp\cc4ySZ7O.s 			page 28


 1058 0170 0592     		str	r2, [sp, #20]
 1059 0172 0022     		movs	r2, #0
 1060 0174 0492     		str	r2, [sp, #16]
 1061 0176 944A     		ldr	r2, .L49+72
 1062 0178 0392     		str	r2, [sp, #12]
 1063 017a 944A     		ldr	r2, .L49+76
 1064 017c 0292     		str	r2, [sp, #8]
 1065 017e 944A     		ldr	r2, .L49+80
 1066 0180 0192     		str	r2, [sp, #4]
 1067 0182 0093     		str	r3, [sp]
 1068 0184 814B     		ldr	r3, .L49+12
 1069 0186 8E4A     		ldr	r2, .L49+64
 1070 0188 7F49     		ldr	r1, .L49+8
 1071 018a 7E48     		ldr	r0, .L49+4
 1072 018c FFF7FEFF 		bl	construct_generic_HTTP_request
 393:notoriOS.c    ****         printNotif(NOTIF_TYPE_EVENT,"Full HTTP Request: %s", http_request);
 1073              		.loc 1 393 0
 1074 0190 7C4A     		ldr	r2, .L49+4
 1075 0192 9049     		ldr	r1, .L49+84
 1076 0194 0020     		movs	r0, #0
 1077 0196 FFF7FEFF 		bl	printNotif
 394:notoriOS.c    ****         
 395:notoriOS.c    ****         // Push request to modem and escape with <ctrl+z> escape sequence
 396:notoriOS.c    ****         // Open port and begin command line sequence
 397:notoriOS.c    ****         char portConfig[200];
 398:notoriOS.c    ****         uint8 status = 0u;
 1078              		.loc 1 398 0
 1079 019a 0023     		movs	r3, #0
 1080 019c 87F81935 		strb	r3, [r7, #1305]
 399:notoriOS.c    ****         
 400:notoriOS.c    ****         snprintf(portConfig,sizeof(portConfig),"AT#SD=1,0,%d,\"%s\",0,0,1\r",system_settings.ep_por
 1081              		.loc 1 400 0
 1082 01a0 874B     		ldr	r3, .L49+64
 1083 01a2 5A6E     		ldr	r2, [r3, #100]
 1084 01a4 3846     		mov	r0, r7
 1085 01a6 864B     		ldr	r3, .L49+64
 1086 01a8 0093     		str	r3, [sp]
 1087 01aa 1346     		mov	r3, r2
 1088 01ac 8A4A     		ldr	r2, .L49+88
 1089 01ae C821     		movs	r1, #200
 1090 01b0 FFF7FEFF 		bl	snprintf
 401:notoriOS.c    ****         printNotif(NOTIF_TYPE_EVENT,"%s",portConfig);
 1091              		.loc 1 401 0
 1092 01b4 3B46     		mov	r3, r7
 1093 01b6 1A46     		mov	r2, r3
 1094 01b8 8849     		ldr	r1, .L49+92
 1095 01ba 0020     		movs	r0, #0
 1096 01bc FFF7FEFF 		bl	printNotif
 402:notoriOS.c    ****         status = at_write_command(portConfig,"OK",10000u);
 1097              		.loc 1 402 0
 1098 01c0 3B46     		mov	r3, r7
 1099 01c2 42F21072 		movw	r2, #10000
 1100 01c6 8649     		ldr	r1, .L49+96
 1101 01c8 1846     		mov	r0, r3
 1102 01ca FFF7FEFF 		bl	at_write_command
 1103 01ce 0346     		mov	r3, r0
 1104 01d0 87F81935 		strb	r3, [r7, #1305]
ARM GAS  C:\Users\hail\AppData\Local\Temp\cc4ySZ7O.s 			page 29


 403:notoriOS.c    ****         
 404:notoriOS.c    ****         // create character pointer to chunk through the http_request
 405:notoriOS.c    ****         char *chunk;
 406:notoriOS.c    ****         // Set chunk to start where http_request starts
 407:notoriOS.c    ****         chunk = http_request;
 1105              		.loc 1 407 0
 1106 01d4 6B4B     		ldr	r3, .L49+4
 1107 01d6 C7F82035 		str	r3, [r7, #1312]
 408:notoriOS.c    ****         // variable for the number of packets to send
 409:notoriOS.c    ****         int8 packets;
 410:notoriOS.c    ****         packets = ceil(nextafter((strlen(http_request)/MAX_BYTES_SENT),MAX_BYTES_SENT));
 1108              		.loc 1 410 0
 1109 01da 6A48     		ldr	r0, .L49+4
 1110 01dc FFF7FEFF 		bl	strlen
 1111 01e0 0246     		mov	r2, r0
 1112 01e2 804B     		ldr	r3, .L49+100
 1113 01e4 A3FB0223 		umull	r2, r3, r3, r2
 1114 01e8 5B09     		lsrs	r3, r3, #5
 1115 01ea 1846     		mov	r0, r3
 1116 01ec FFF7FEFF 		bl	__aeabi_ui2d
 1117 01f0 4FF00002 		mov	r2, #0
 1118 01f4 7C4B     		ldr	r3, .L49+104
 1119 01f6 FFF7FEFF 		bl	nextafter
 1120 01fa 0346     		mov	r3, r0
 1121 01fc 0C46     		mov	r4, r1
 1122 01fe 1846     		mov	r0, r3
 1123 0200 2146     		mov	r1, r4
 1124 0202 FFF7FEFF 		bl	ceil
 1125 0206 0346     		mov	r3, r0
 1126 0208 0C46     		mov	r4, r1
 1127 020a 1846     		mov	r0, r3
 1128 020c 2146     		mov	r1, r4
 1129 020e FFF7FEFF 		bl	__aeabi_d2iz
 1130 0212 0346     		mov	r3, r0
 1131 0214 87F81835 		strb	r3, [r7, #1304]
 411:notoriOS.c    ****         printNotif(NOTIF_TYPE_EVENT, "http_request len: %d", strlen(http_request));
 1132              		.loc 1 411 0
 1133 0218 5A48     		ldr	r0, .L49+4
 1134 021a FFF7FEFF 		bl	strlen
 1135 021e 0346     		mov	r3, r0
 1136 0220 1A46     		mov	r2, r3
 1137 0222 7249     		ldr	r1, .L49+108
 1138 0224 0020     		movs	r0, #0
 1139 0226 FFF7FEFF 		bl	printNotif
 412:notoriOS.c    ****         printNotif(NOTIF_TYPE_EVENT, "# of packets: %d", packets);
 1140              		.loc 1 412 0
 1141 022a 97F91835 		ldrsb	r3, [r7, #1304]
 1142 022e 1A46     		mov	r2, r3
 1143 0230 6F49     		ldr	r1, .L49+112
 1144 0232 0020     		movs	r0, #0
 1145 0234 FFF7FEFF 		bl	printNotif
 1146              	.LBB4:
 413:notoriOS.c    ****         // while the size of the chunk of the data we are sending to the server is smaller than the
 414:notoriOS.c    ****         for(int8 packet = 0; packet < packets; packet++){
 1147              		.loc 1 414 0
 1148 0238 0023     		movs	r3, #0
 1149 023a 87F81F35 		strb	r3, [r7, #1311]
ARM GAS  C:\Users\hail\AppData\Local\Temp\cc4ySZ7O.s 			page 30


 1150 023e 53E0     		b	.L41
 1151              	.L44:
 1152              	.LBB5:
 415:notoriOS.c    ****             // Create character array of 1000 characters for sending chunks of the http_request
 416:notoriOS.c    ****             char http_chunk[1001];
 417:notoriOS.c    ****             // AT command #SSEND= is an execution command that permits, while the module is in comm
 418:notoriOS.c    ****             // To complete the operation, send Ctrl-Z char to exit
 419:notoriOS.c    ****             status = at_write_command("AT#SSEND=1\r\n", ">", 1000u);
 1153              		.loc 1 419 0
 1154 0240 4FF47A72 		mov	r2, #1000
 1155 0244 6B49     		ldr	r1, .L49+116
 1156 0246 6C48     		ldr	r0, .L49+120
 1157 0248 FFF7FEFF 		bl	at_write_command
 1158 024c 0346     		mov	r3, r0
 1159 024e 87F81935 		strb	r3, [r7, #1305]
 420:notoriOS.c    ****             // Print the first 1000 characters of http_request into http_chunk
 421:notoriOS.c    ****             snprintf(http_chunk, MAX_BYTES_SENT, "%s",chunk);
 1160              		.loc 1 421 0
 1161 0252 07F1C800 		add	r0, r7, #200
 1162 0256 D7F82035 		ldr	r3, [r7, #1312]
 1163 025a 604A     		ldr	r2, .L49+92
 1164 025c 4FF4FA71 		mov	r1, #500
 1165 0260 FFF7FEFF 		bl	snprintf
 422:notoriOS.c    ****             // Append 1 character "<ctrl+z> escape sequence" to http_request to exit modem command 
 423:notoriOS.c    ****             strncat(http_chunk, "\032", 1); 
 1166              		.loc 1 423 0
 1167 0264 07F1C803 		add	r3, r7, #200
 1168 0268 1846     		mov	r0, r3
 1169 026a FFF7FEFF 		bl	strlen
 1170 026e 0346     		mov	r3, r0
 1171 0270 1A46     		mov	r2, r3
 1172 0272 07F1C803 		add	r3, r7, #200
 1173 0276 1344     		add	r3, r3, r2
 1174 0278 6049     		ldr	r1, .L49+124
 1175 027a 1A46     		mov	r2, r3
 1176 027c 0B46     		mov	r3, r1
 1177 027e 1B88     		ldrh	r3, [r3]	@ unaligned
 1178 0280 1380     		strh	r3, [r2]	@ unaligned
 424:notoriOS.c    ****             printNotif(NOTIF_TYPE_EVENT,"chunk %d: %s", packet, http_chunk);
 1179              		.loc 1 424 0
 1180 0282 97F91F25 		ldrsb	r2, [r7, #1311]
 1181 0286 07F1C803 		add	r3, r7, #200
 1182 028a 5D49     		ldr	r1, .L49+128
 1183 028c 0020     		movs	r0, #0
 1184 028e FFF7FEFF 		bl	printNotif
 425:notoriOS.c    ****             // Send data to server
 426:notoriOS.c    ****             if ((packet+1) != packets){
 1185              		.loc 1 426 0
 1186 0292 97F91F35 		ldrsb	r3, [r7, #1311]
 1187 0296 5A1C     		adds	r2, r3, #1
 1188 0298 97F91835 		ldrsb	r3, [r7, #1304]
 1189 029c 9A42     		cmp	r2, r3
 1190 029e 11D0     		beq	.L42
 427:notoriOS.c    ****                 status = at_write_command(http_chunk, "OK", 5000u);
 1191              		.loc 1 427 0
 1192 02a0 07F1C803 		add	r3, r7, #200
 1193 02a4 41F28832 		movw	r2, #5000
ARM GAS  C:\Users\hail\AppData\Local\Temp\cc4ySZ7O.s 			page 31


 1194 02a8 4D49     		ldr	r1, .L49+96
 1195 02aa 1846     		mov	r0, r3
 1196 02ac FFF7FEFF 		bl	at_write_command
 1197 02b0 0346     		mov	r3, r0
 1198 02b2 87F81935 		strb	r3, [r7, #1305]
 428:notoriOS.c    ****                 // Move the pointer forward 
 429:notoriOS.c    ****                 chunk = chunk + MAX_BYTES_SENT - 1;
 1199              		.loc 1 429 0
 1200 02b6 D7F82035 		ldr	r3, [r7, #1312]
 1201 02ba 03F2F313 		addw	r3, r3, #499
 1202 02be C7F82035 		str	r3, [r7, #1312]
 1203 02c2 0AE0     		b	.L43
 1204              	.L42:
 430:notoriOS.c    ****             }else{
 431:notoriOS.c    ****                 status = at_write_command(http_chunk, "SRING", 5000u);
 1205              		.loc 1 431 0
 1206 02c4 07F1C803 		add	r3, r7, #200
 1207 02c8 41F28832 		movw	r2, #5000
 1208 02cc 4D49     		ldr	r1, .L49+132
 1209 02ce 1846     		mov	r0, r3
 1210 02d0 FFF7FEFF 		bl	at_write_command
 1211 02d4 0346     		mov	r3, r0
 1212 02d6 87F81935 		strb	r3, [r7, #1305]
 1213              	.L43:
 1214              	.LBE5:
 414:notoriOS.c    ****             // Create character array of 1000 characters for sending chunks of the http_request
 1215              		.loc 1 414 0 discriminator 2
 1216 02da 97F91F35 		ldrsb	r3, [r7, #1311]
 1217 02de DBB2     		uxtb	r3, r3
 1218 02e0 0133     		adds	r3, r3, #1
 1219 02e2 DBB2     		uxtb	r3, r3
 1220 02e4 87F81F35 		strb	r3, [r7, #1311]
 1221              	.L41:
 414:notoriOS.c    ****             // Create character array of 1000 characters for sending chunks of the http_request
 1222              		.loc 1 414 0 is_stmt 0 discriminator 1
 1223 02e8 97F91F25 		ldrsb	r2, [r7, #1311]
 1224 02ec 97F91835 		ldrsb	r3, [r7, #1304]
 1225 02f0 9A42     		cmp	r2, r3
 1226 02f2 A5DB     		blt	.L44
 1227              	.LBE4:
 432:notoriOS.c    ****             }
 433:notoriOS.c    ****             
 434:notoriOS.c    ****         }
 435:notoriOS.c    ****         
 436:notoriOS.c    ****         // Read received buffer
 437:notoriOS.c    ****         // A good write will return code "OS-OK"
 438:notoriOS.c    ****         // AT command #SRECV= is an execution command that permits users to read data arrived throu
 439:notoriOS.c    ****         // = 1 means the UPD information is enabled: data are read just until the end of the UDP da
 440:notoriOS.c    ****         status = at_write_command("AT#SRECV=1,1000\r","OS-OK",5000u);
 1228              		.loc 1 440 0 is_stmt 1
 1229 02f4 41F28832 		movw	r2, #5000
 1230 02f8 4349     		ldr	r1, .L49+136
 1231 02fa 4448     		ldr	r0, .L49+140
 1232 02fc FFF7FEFF 		bl	at_write_command
 1233 0300 0346     		mov	r3, r0
 1234 0302 87F81935 		strb	r3, [r7, #1305]
 441:notoriOS.c    ****         //printNotif(NOTIF_TYPE_EVENT,"Received SRECV: %s",uart_received_string);
ARM GAS  C:\Users\hail\AppData\Local\Temp\cc4ySZ7O.s 			page 32


 442:notoriOS.c    ****     
 443:notoriOS.c    ****   
 444:notoriOS.c    ****         // If it worked, clear the queue and clock how long the end-to-end tx took
 445:notoriOS.c    ****         if(status == 1u){
 1235              		.loc 1 445 0
 1236 0306 97F81935 		ldrb	r3, [r7, #1305]	@ zero_extendqisi2
 1237 030a 012B     		cmp	r3, #1
 1238 030c 1DD1     		bne	.L45
 1239              	.LBB6:
 446:notoriOS.c    ****             get_updated_parameters_from_malcom();
 1240              		.loc 1 446 0
 1241 030e FFF7FEFF 		bl	get_updated_parameters_from_malcom
 447:notoriOS.c    ****             Clear_Data_Stack();
 1242              		.loc 1 447 0
 1243 0312 FFF7FEFF 		bl	Clear_Data_Stack
 448:notoriOS.c    ****             int send_time = (int)(getTimeStamp()-(int32)modem_start_time_stamp);
 1244              		.loc 1 448 0
 1245 0316 FFF7FEFF 		bl	getTimeStamp
 1246 031a 0246     		mov	r2, r0
 1247 031c 3C4B     		ldr	r3, .L49+144
 1248 031e 1B68     		ldr	r3, [r3]
 1249 0320 D31A     		subs	r3, r2, r3
 1250 0322 C7F81435 		str	r3, [r7, #1300]
 449:notoriOS.c    ****             char s_send_time[10];
 450:notoriOS.c    ****             snprintf(s_send_time,sizeof(s_send_time),"%d",send_time);
 1251              		.loc 1 450 0
 1252 0326 07F2B440 		addw	r0, r7, #1204
 1253 032a D7F81435 		ldr	r3, [r7, #1300]
 1254 032e 194A     		ldr	r2, .L49+20
 1255 0330 0A21     		movs	r1, #10
 1256 0332 FFF7FEFF 		bl	snprintf
 451:notoriOS.c    ****             pushData("modem_tx_time",s_send_time,getTimeStamp());
 1257              		.loc 1 451 0
 1258 0336 FFF7FEFF 		bl	getTimeStamp
 1259 033a 0246     		mov	r2, r0
 1260 033c 07F2B443 		addw	r3, r7, #1204
 1261 0340 1946     		mov	r1, r3
 1262 0342 3448     		ldr	r0, .L49+148
 1263 0344 FFF7FEFF 		bl	pushData
 1264              	.LBE6:
 1265 0348 03E0     		b	.L46
 1266              	.L45:
 452:notoriOS.c    ****         }else{
 453:notoriOS.c    ****             printNotif(NOTIF_TYPE_ERROR, "OS-NO: Could not receive data from server.");
 1267              		.loc 1 453 0
 1268 034a 3349     		ldr	r1, .L49+152
 1269 034c 0220     		movs	r0, #2
 1270 034e FFF7FEFF 		bl	printNotif
 1271              	.L46:
 454:notoriOS.c    ****         }
 455:notoriOS.c    ****          
 456:notoriOS.c    ****         // Get time, and if it looks good, set the RTC with it
 457:notoriOS.c    ****         long network_time = modem_get_network_time();
 1272              		.loc 1 457 0
 1273 0352 FFF7FEFF 		bl	modem_get_network_time
 1274 0356 C7F81005 		str	r0, [r7, #1296]
 458:notoriOS.c    ****         if(network_time != 0){
ARM GAS  C:\Users\hail\AppData\Local\Temp\cc4ySZ7O.s 			page 33


 1275              		.loc 1 458 0
 1276 035a D7F81035 		ldr	r3, [r7, #1296]
 1277 035e 002B     		cmp	r3, #0
 1278 0360 03D0     		beq	.L47
 459:notoriOS.c    ****            setTime(network_time);
 1279              		.loc 1 459 0
 1280 0362 D7F81005 		ldr	r0, [r7, #1296]
 1281 0366 FFF7FEFF 		bl	setTime
 1282              	.L47:
 460:notoriOS.c    ****         }
 461:notoriOS.c    ****         
 462:notoriOS.c    ****         // If transmitted, flush the data stack and shut down modem
 463:notoriOS.c    ****         // If not -- keep the statck and try next time
 464:notoriOS.c    ****         // Power down the modem -- completely "kill" modem to conserve power
 465:notoriOS.c    ****         modem_power_down();
 1283              		.loc 1 465 0
 1284 036a FFF7FEFF 		bl	modem_power_down
 466:notoriOS.c    ****         
 467:notoriOS.c    ****         return 0u;
 1285              		.loc 1 467 0
 1286 036e 0023     		movs	r3, #0
 1287 0370 01E0     		b	.L33
 1288              	.L48:
 1289              	.LBE3:
 1290              	.LBB7:
 343:notoriOS.c    ****             }else if (modem_power_up() == 0u && try_counter >= 2){
 1291              		.loc 1 343 0
 1292 0372 00BF     		nop
 1293              	.L40:
 1294              	.LBE7:
 468:notoriOS.c    ****     }
 469:notoriOS.c    ****       
 470:notoriOS.c    ****       return 1u; // Not done yet
 1295              		.loc 1 470 0
 1296 0374 0123     		movs	r3, #1
 1297              	.L33:
 471:notoriOS.c    **** }
 1298              		.loc 1 471 0 discriminator 2
 1299 0376 1846     		mov	r0, r3
 1300 0378 07F22C57 		addw	r7, r7, #1324
 1301              		.cfi_def_cfa_offset 12
 1302 037c BD46     		mov	sp, r7
 1303              		.cfi_def_cfa_register 13
 1304              		@ sp needed
 1305 037e 90BD     		pop	{r4, r7, pc}
 1306              	.L50:
 1307              		.align	2
 1308              	.L49:
 1309 0380 C0000000 		.word	.LC7
 1310 0384 00000000 		.word	http_request
 1311 0388 00000000 		.word	http_body
 1312 038c 00000000 		.word	http_route
 1313 0390 00000000 		.word	modem_stats
 1314 0394 3C000000 		.word	.LC2
 1315 0398 D0000000 		.word	.LC8
 1316 039c 00000000 		.word	try_counter
 1317 03a0 D8000000 		.word	.LC9
ARM GAS  C:\Users\hail\AppData\Local\Temp\cc4ySZ7O.s 			page 34


 1318 03a4 E4000000 		.word	.LC10
 1319 03a8 F4000000 		.word	.LC11
 1320 03ac 08010000 		.word	.LC12
 1321 03b0 1C010000 		.word	.LC13
 1322 03b4 28000000 		.word	modem_info+40
 1323 03b8 48010000 		.word	.LC14
 1324 03bc 58010000 		.word	.LC15
 1325 03c0 00000000 		.word	system_settings
 1326 03c4 68010000 		.word	.LC16
 1327 03c8 6C010000 		.word	.LC17
 1328 03cc 70010000 		.word	.LC18
 1329 03d0 78010000 		.word	.LC19
 1330 03d4 80010000 		.word	.LC20
 1331 03d8 98010000 		.word	.LC21
 1332 03dc B4010000 		.word	.LC22
 1333 03e0 B8010000 		.word	.LC23
 1334 03e4 D34D6210 		.word	274877907
 1335 03e8 00407F40 		.word	1082081280
 1336 03ec BC010000 		.word	.LC24
 1337 03f0 D4010000 		.word	.LC25
 1338 03f4 E8010000 		.word	.LC26
 1339 03f8 EC010000 		.word	.LC27
 1340 03fc FC010000 		.word	.LC28
 1341 0400 00020000 		.word	.LC29
 1342 0404 10020000 		.word	.LC30
 1343 0408 18020000 		.word	.LC31
 1344 040c 20020000 		.word	.LC32
 1345 0410 00000000 		.word	modem_start_time_stamp
 1346 0414 34020000 		.word	.LC33
 1347 0418 44020000 		.word	.LC34
 1348              		.cfi_endproc
 1349              	.LFE74:
 1350              		.size	syncData, .-syncData
 1351              		.section	.text.configureRemoteParams,"ax",%progbits
 1352              		.align	2
 1353              		.global	configureRemoteParams
 1354              		.thumb
 1355              		.thumb_func
 1356              		.type	configureRemoteParams, %function
 1357              	configureRemoteParams:
 1358              	.LFB75:
 472:notoriOS.c    **** 
 473:notoriOS.c    **** // ==============================================
 474:notoriOS.c    **** // Syncs with cell-tower clock and check meta-DB
 475:notoriOS.c    **** // Returns 0 when done
 476:notoriOS.c    **** // ==============================================
 477:notoriOS.c    **** uint8 configureRemoteParams(){
 1359              		.loc 1 477 0
 1360              		.cfi_startproc
 1361              		@ args = 0, pretend = 0, frame = 8
 1362              		@ frame_needed = 1, uses_anonymous_args = 0
 1363 0000 80B5     		push	{r7, lr}
 1364              		.cfi_def_cfa_offset 8
 1365              		.cfi_offset 7, -8
 1366              		.cfi_offset 14, -4
 1367 0002 82B0     		sub	sp, sp, #8
 1368              		.cfi_def_cfa_offset 16
ARM GAS  C:\Users\hail\AppData\Local\Temp\cc4ySZ7O.s 			page 35


 1369 0004 00AF     		add	r7, sp, #0
 1370              		.cfi_def_cfa_register 7
 478:notoriOS.c    ****     
 479:notoriOS.c    ****     if(modem_get_state() == MODEM_STATE_OFF){
 1371              		.loc 1 479 0
 1372 0006 FFF7FEFF 		bl	modem_get_state
 1373 000a 0346     		mov	r3, r0
 1374 000c 002B     		cmp	r3, #0
 1375 000e 02D1     		bne	.L52
 480:notoriOS.c    ****         // This puts all the modem points into a state that won't leak power    
 481:notoriOS.c    ****         modem_power_up();
 1376              		.loc 1 481 0
 1377 0010 FFF7FEFF 		bl	modem_power_up
 1378 0014 11E0     		b	.L53
 1379              	.L52:
 482:notoriOS.c    ****             
 483:notoriOS.c    ****     }else if(modem_get_state() == MODEM_STATE_READY){
 1380              		.loc 1 483 0
 1381 0016 FFF7FEFF 		bl	modem_get_state
 1382 001a 0346     		mov	r3, r0
 1383 001c 042B     		cmp	r3, #4
 1384 001e 0CD1     		bne	.L53
 1385              	.LBB8:
 484:notoriOS.c    ****         
 485:notoriOS.c    ****         // This is where we will interfasce with some sort of broker that assings node IDs
 486:notoriOS.c    ****         
 487:notoriOS.c    ****         // Get time, and if it looks good, set the RTC with it
 488:notoriOS.c    ****         long network_time = modem_get_network_time();
 1386              		.loc 1 488 0
 1387 0020 FFF7FEFF 		bl	modem_get_network_time
 1388 0024 7860     		str	r0, [r7, #4]
 489:notoriOS.c    ****         if(network_time != 0){
 1389              		.loc 1 489 0
 1390 0026 7B68     		ldr	r3, [r7, #4]
 1391 0028 002B     		cmp	r3, #0
 1392 002a 02D0     		beq	.L54
 490:notoriOS.c    ****             setTime(network_time);
 1393              		.loc 1 490 0
 1394 002c 7868     		ldr	r0, [r7, #4]
 1395 002e FFF7FEFF 		bl	setTime
 1396              	.L54:
 491:notoriOS.c    ****         }
 492:notoriOS.c    ****         
 493:notoriOS.c    ****         // Get GPS coordinates
 494:notoriOS.c    ****         //gps_t gps = modem_get_gps_coordinates();
 495:notoriOS.c    ****         // Power down the modem -- completely "kill" modem to conserve power
 496:notoriOS.c    ****         modem_power_down();
 1397              		.loc 1 496 0
 1398 0032 FFF7FEFF 		bl	modem_power_down
 497:notoriOS.c    ****         return 0u;
 1399              		.loc 1 497 0
 1400 0036 0023     		movs	r3, #0
 1401 0038 00E0     		b	.L55
 1402              	.L53:
 1403              	.LBE8:
 498:notoriOS.c    ****         
 499:notoriOS.c    ****     }
ARM GAS  C:\Users\hail\AppData\Local\Temp\cc4ySZ7O.s 			page 36


 500:notoriOS.c    ****     
 501:notoriOS.c    ****     return 1u;
 1404              		.loc 1 501 0
 1405 003a 0123     		movs	r3, #1
 1406              	.L55:
 502:notoriOS.c    **** }
 1407              		.loc 1 502 0
 1408 003c 1846     		mov	r0, r3
 1409 003e 0837     		adds	r7, r7, #8
 1410              		.cfi_def_cfa_offset 8
 1411 0040 BD46     		mov	sp, r7
 1412              		.cfi_def_cfa_register 13
 1413              		@ sp needed
 1414 0042 80BD     		pop	{r7, pc}
 1415              		.cfi_endproc
 1416              	.LFE75:
 1417              		.size	configureRemoteParams, .-configureRemoteParams
 1418              		.section	.rodata
 1419 026f 00       		.align	2
 1420              	.LC35:
 1421 0270 256C6400 		.ascii	"%ld\000"
 1422              		.align	2
 1423              	.LC36:
 1424 0274 6D617862 		.ascii	"maxbotix_depth=%s\000"
 1424      6F746978 
 1424      5F646570 
 1424      74683D25 
 1424      7300
 1425 0286 0000     		.align	2
 1426              	.LC37:
 1427 0288 6D617862 		.ascii	"maxbotix_depth\000"
 1427      6F746978 
 1427      5F646570 
 1427      746800
 1428 0297 00       		.align	2
 1429              	.LC38:
 1430 0298 612B00   		.ascii	"a+\000"
 1431 029b 00       		.align	2
 1432              	.LC39:
 1433 029c 2000     		.ascii	" \000"
 1434 029e 0000     		.align	2
 1435              	.LC40:
 1436 02a0 436F756C 		.ascii	"Could not get valid readings from Maxbotix.\000"
 1436      64206E6F 
 1436      74206765 
 1436      74207661 
 1436      6C696420 
 1437              		.global	__aeabi_f2d
 1438              		.align	2
 1439              	.LC41:
 1440 02cc 252E3266 		.ascii	"%.2f\000"
 1440      00
 1441 02d1 000000   		.align	2
 1442              	.LC42:
 1443 02d4 765F6261 		.ascii	"v_bat=%s\000"
 1443      743D2573 
 1443      00
ARM GAS  C:\Users\hail\AppData\Local\Temp\cc4ySZ7O.s 			page 37


 1444 02dd 000000   		.align	2
 1445              	.LC43:
 1446 02e0 765F6261 		.ascii	"v_bat\000"
 1446      7400
 1447 02e6 0000     		.align	2
 1448              	.LC44:
 1449 02e8 20766261 		.ascii	" vbat: \000"
 1449      743A2000 
 1450              		.align	2
 1451              	.LC45:
 1452 02f0 70726573 		.ascii	"pressure_current=%s\000"
 1452      73757265 
 1452      5F637572 
 1452      72656E74 
 1452      3D257300 
 1453              		.align	2
 1454              	.LC46:
 1455 0304 70726573 		.ascii	"pressure_current\000"
 1455      73757265 
 1455      5F637572 
 1455      72656E74 
 1455      00
 1456 0315 000000   		.align	2
 1457              	.LC47:
 1458 0318 20707265 		.ascii	" pressure_current: \000"
 1458      73737572 
 1458      655F6375 
 1458      7272656E 
 1458      743A2000 
 1459              		.align	2
 1460              	.LC48:
 1461 032c 70726573 		.ascii	"pressure_depth=%s\000"
 1461      73757265 
 1461      5F646570 
 1461      74683D25 
 1461      7300
 1462 033e 0000     		.align	2
 1463              	.LC49:
 1464 0340 70726573 		.ascii	"pressure_depth\000"
 1464      73757265 
 1464      5F646570 
 1464      746800
 1465 034f 00       		.align	2
 1466              	.LC50:
 1467 0350 20707265 		.ascii	" pressure_depth: \000"
 1467      73737572 
 1467      655F6465 
 1467      7074683A 
 1467      2000
 1468 0362 0000     		.align	2
 1469              	.LC51:
 1470 0364 436F756C 		.ascii	"Could not get valid readings from ADC.\000"
 1470      64206E6F 
 1470      74206765 
 1470      74207661 
 1470      6C696420 
 1471              		.section	.text.makeMeasurements,"ax",%progbits
ARM GAS  C:\Users\hail\AppData\Local\Temp\cc4ySZ7O.s 			page 38


 1472              		.align	2
 1473              		.global	makeMeasurements
 1474              		.thumb
 1475              		.thumb_func
 1476              		.type	makeMeasurements, %function
 1477              	makeMeasurements:
 1478              	.LFB76:
 503:notoriOS.c    **** 
 504:notoriOS.c    **** 
 505:notoriOS.c    **** // ==============================================
 506:notoriOS.c    **** // Make sensor measurements, which will be handeled by another cutions
 507:notoriOS.c    **** // Returns 0 when finished
 508:notoriOS.c    **** // ==============================================
 509:notoriOS.c    **** uint8 makeMeasurements(){
 1479              		.loc 1 509 0
 1480              		.cfi_startproc
 1481              		@ args = 0, pretend = 0, frame = 112
 1482              		@ frame_needed = 1, uses_anonymous_args = 0
 1483 0000 90B5     		push	{r4, r7, lr}
 1484              		.cfi_def_cfa_offset 12
 1485              		.cfi_offset 4, -12
 1486              		.cfi_offset 7, -8
 1487              		.cfi_offset 14, -4
 1488 0002 9FB0     		sub	sp, sp, #124
 1489              		.cfi_def_cfa_offset 136
 1490 0004 02AF     		add	r7, sp, #8
 1491              		.cfi_def_cfa 7, 128
 510:notoriOS.c    ****     // level_sensor_t is a new data type we defined in level_sensor.h. We then use that data type t
 511:notoriOS.c    ****     level_sensor_t m_level_sensor;
 512:notoriOS.c    ****     // voltage_t is a new data type we defined in voltages.h. We then use that data type to define 
 513:notoriOS.c    ****     voltage_t m_voltage;
 514:notoriOS.c    ****     // pressure_t is a new data type we defined in voltages.h. We then use that data type to define
 515:notoriOS.c    ****     pressure_t m_pressure;
 516:notoriOS.c    ****     
 517:notoriOS.c    ****     // Get clock time and save to timeStamp
 518:notoriOS.c    ****     long timeStamp = getTimeStamp();
 1492              		.loc 1 518 0
 1493 0006 FFF7FEFF 		bl	getTimeStamp
 1494 000a F866     		str	r0, [r7, #108]
 519:notoriOS.c    ****     char c_timeStamp[32];
 520:notoriOS.c    ****     snprintf(c_timeStamp,sizeof(c_timeStamp),"%ld",timeStamp);
 1495              		.loc 1 520 0
 1496 000c 07F11400 		add	r0, r7, #20
 1497 0010 FB6E     		ldr	r3, [r7, #108]
 1498 0012 774A     		ldr	r2, .L62
 1499 0014 2021     		movs	r1, #32
 1500 0016 FFF7FEFF 		bl	snprintf
 521:notoriOS.c    ****     
 522:notoriOS.c    ****     // Holds string for value that will be written 
 523:notoriOS.c    ****     char value[DATA_MAX_KEY_LENGTH];
 524:notoriOS.c    ****     // Take level sensor readings and save them to m_level_sensor
 525:notoriOS.c    ****     m_level_sensor = level_sensor_take_reading();
 1501              		.loc 1 525 0
 1502 001a 07F15003 		add	r3, r7, #80
 1503 001e 1846     		mov	r0, r3
 1504 0020 FFF7FEFF 		bl	level_sensor_take_reading
 526:notoriOS.c    ****  
ARM GAS  C:\Users\hail\AppData\Local\Temp\cc4ySZ7O.s 			page 39


 527:notoriOS.c    ****     // If the numer of valid level sensor readings is greater than 0, then print the level sensor r
 528:notoriOS.c    ****     if(m_level_sensor.num_valid_readings > 0){
 1505              		.loc 1 528 0
 1506 0024 97F86830 		ldrb	r3, [r7, #104]	@ zero_extendqisi2
 1507 0028 002B     		cmp	r3, #0
 1508 002a 2AD0     		beq	.L57
 529:notoriOS.c    ****         snprintf(value,sizeof(value),"%d",m_level_sensor.level_reading);
 1509              		.loc 1 529 0
 1510 002c B7F96630 		ldrsh	r3, [r7, #102]
 1511 0030 3846     		mov	r0, r7
 1512 0032 704A     		ldr	r2, .L62+4
 1513 0034 1421     		movs	r1, #20
 1514 0036 FFF7FEFF 		bl	snprintf
 530:notoriOS.c    ****         printNotif(NOTIF_TYPE_EVENT,"maxbotix_depth=%s",value);
 1515              		.loc 1 530 0
 1516 003a 3B46     		mov	r3, r7
 1517 003c 1A46     		mov	r2, r3
 1518 003e 6E49     		ldr	r1, .L62+8
 1519 0040 0020     		movs	r0, #0
 1520 0042 FFF7FEFF 		bl	printNotif
 531:notoriOS.c    ****         pushData("maxbotix_depth",value,timeStamp);
 1521              		.loc 1 531 0
 1522 0046 3B46     		mov	r3, r7
 1523 0048 FA6E     		ldr	r2, [r7, #108]
 1524 004a 1946     		mov	r1, r3
 1525 004c 6B48     		ldr	r0, .L62+12
 1526 004e FFF7FEFF 		bl	pushData
 532:notoriOS.c    ****         // Print measurement to SD card to file called data.txt
 533:notoriOS.c    ****         SD_write(Data_fileName, "a+", c_timeStamp);
 1527              		.loc 1 533 0
 1528 0052 07F11403 		add	r3, r7, #20
 1529 0056 1A46     		mov	r2, r3
 1530 0058 6949     		ldr	r1, .L62+16
 1531 005a 6A48     		ldr	r0, .L62+20
 1532 005c FFF7FEFF 		bl	SD_write
 534:notoriOS.c    ****         SD_write(Data_fileName, "a+", " ");
 1533              		.loc 1 534 0
 1534 0060 694A     		ldr	r2, .L62+24
 1535 0062 6749     		ldr	r1, .L62+16
 1536 0064 6748     		ldr	r0, .L62+20
 1537 0066 FFF7FEFF 		bl	SD_write
 535:notoriOS.c    ****         SD_write(Data_fileName, "a+", value);
 1538              		.loc 1 535 0
 1539 006a 3B46     		mov	r3, r7
 1540 006c 1A46     		mov	r2, r3
 1541 006e 6449     		ldr	r1, .L62+16
 1542 0070 6448     		ldr	r0, .L62+20
 1543 0072 FFF7FEFF 		bl	SD_write
 536:notoriOS.c    ****         SD_write(Data_fileName, "a+", " ");
 1544              		.loc 1 536 0
 1545 0076 644A     		ldr	r2, .L62+24
 1546 0078 6149     		ldr	r1, .L62+16
 1547 007a 6248     		ldr	r0, .L62+20
 1548 007c FFF7FEFF 		bl	SD_write
 1549 0080 03E0     		b	.L58
 1550              	.L57:
 537:notoriOS.c    ****     }else{
ARM GAS  C:\Users\hail\AppData\Local\Temp\cc4ySZ7O.s 			page 40


 538:notoriOS.c    ****         printNotif(NOTIF_TYPE_ERROR,"Could not get valid readings from Maxbotix.");
 1551              		.loc 1 538 0
 1552 0082 6249     		ldr	r1, .L62+28
 1553 0084 0220     		movs	r0, #2
 1554 0086 FFF7FEFF 		bl	printNotif
 1555              	.L58:
 539:notoriOS.c    ****         //pushData("maxbotix_depth","error",timeStamp);
 540:notoriOS.c    ****     }
 541:notoriOS.c    ****     
 542:notoriOS.c    ****     // Take voltage readings and save them to m_voltage
 543:notoriOS.c    ****     m_voltage = voltage_take_readings();
 1556              		.loc 1 543 0
 1557 008a 07F13C03 		add	r3, r7, #60
 1558 008e 1846     		mov	r0, r3
 1559 0090 FFF7FEFF 		bl	voltage_take_readings
 544:notoriOS.c    ****     // If the reading is valid, print the voltage battery and pressure transducer reading and push 
 545:notoriOS.c    ****     if(m_voltage.valid){
 1560              		.loc 1 545 0
 1561 0094 97F84C30 		ldrb	r3, [r7, #76]	@ zero_extendqisi2
 1562 0098 002B     		cmp	r3, #0
 1563 009a 00F0A080 		beq	.L59
 546:notoriOS.c    ****         // battery voltage data
 547:notoriOS.c    ****         snprintf(value,sizeof(value),"%.2f",m_voltage.voltage_battery);
 1564              		.loc 1 547 0
 1565 009e FB6B     		ldr	r3, [r7, #60]	@ float
 1566 00a0 1846     		mov	r0, r3
 1567 00a2 FFF7FEFF 		bl	__aeabi_f2d
 1568 00a6 0346     		mov	r3, r0
 1569 00a8 0C46     		mov	r4, r1
 1570 00aa 3846     		mov	r0, r7
 1571 00ac CDE90034 		strd	r3, [sp]
 1572 00b0 574A     		ldr	r2, .L62+32
 1573 00b2 1421     		movs	r1, #20
 1574 00b4 FFF7FEFF 		bl	snprintf
 548:notoriOS.c    ****         printNotif(NOTIF_TYPE_EVENT,"v_bat=%s",value);
 1575              		.loc 1 548 0
 1576 00b8 3B46     		mov	r3, r7
 1577 00ba 1A46     		mov	r2, r3
 1578 00bc 5549     		ldr	r1, .L62+36
 1579 00be 0020     		movs	r0, #0
 1580 00c0 FFF7FEFF 		bl	printNotif
 549:notoriOS.c    ****         pushData("v_bat",value,timeStamp);
 1581              		.loc 1 549 0
 1582 00c4 3B46     		mov	r3, r7
 1583 00c6 FA6E     		ldr	r2, [r7, #108]
 1584 00c8 1946     		mov	r1, r3
 1585 00ca 5348     		ldr	r0, .L62+40
 1586 00cc FFF7FEFF 		bl	pushData
 550:notoriOS.c    ****         // Print measurement to SD card to file called data.txt
 551:notoriOS.c    ****         SD_write(Data_fileName, "a+", " ");
 1587              		.loc 1 551 0
 1588 00d0 4D4A     		ldr	r2, .L62+24
 1589 00d2 4B49     		ldr	r1, .L62+16
 1590 00d4 4B48     		ldr	r0, .L62+20
 1591 00d6 FFF7FEFF 		bl	SD_write
 552:notoriOS.c    ****         SD_write(Data_fileName, "a+", c_timeStamp);
 1592              		.loc 1 552 0
ARM GAS  C:\Users\hail\AppData\Local\Temp\cc4ySZ7O.s 			page 41


 1593 00da 07F11403 		add	r3, r7, #20
 1594 00de 1A46     		mov	r2, r3
 1595 00e0 4749     		ldr	r1, .L62+16
 1596 00e2 4848     		ldr	r0, .L62+20
 1597 00e4 FFF7FEFF 		bl	SD_write
 553:notoriOS.c    ****         SD_write(Data_fileName, "a+", " vbat: ");
 1598              		.loc 1 553 0
 1599 00e8 4C4A     		ldr	r2, .L62+44
 1600 00ea 4549     		ldr	r1, .L62+16
 1601 00ec 4548     		ldr	r0, .L62+20
 1602 00ee FFF7FEFF 		bl	SD_write
 554:notoriOS.c    ****         SD_write(Data_fileName, "a+", value);
 1603              		.loc 1 554 0
 1604 00f2 3B46     		mov	r3, r7
 1605 00f4 1A46     		mov	r2, r3
 1606 00f6 4249     		ldr	r1, .L62+16
 1607 00f8 4248     		ldr	r0, .L62+20
 1608 00fa FFF7FEFF 		bl	SD_write
 555:notoriOS.c    ****         
 556:notoriOS.c    ****         // pressure transducer current (mA) data
 557:notoriOS.c    ****         m_pressure = pressure_calculations(m_voltage);
 1609              		.loc 1 557 0
 1610 00fe 07F13404 		add	r4, r7, #52
 1611 0102 6A46     		mov	r2, sp
 1612 0104 07F14803 		add	r3, r7, #72
 1613 0108 93E80300 		ldmia	r3, {r0, r1}
 1614 010c 82E80300 		stmia	r2, {r0, r1}
 1615 0110 07F13C03 		add	r3, r7, #60
 1616 0114 0ECB     		ldmia	r3, {r1, r2, r3}
 1617 0116 2046     		mov	r0, r4
 1618 0118 FFF7FEFF 		bl	pressure_calculations
 558:notoriOS.c    ****         snprintf(value,sizeof(value),"%.2f",m_pressure.pressure_current);
 1619              		.loc 1 558 0
 1620 011c 7B6B     		ldr	r3, [r7, #52]	@ float
 1621 011e 1846     		mov	r0, r3
 1622 0120 FFF7FEFF 		bl	__aeabi_f2d
 1623 0124 0346     		mov	r3, r0
 1624 0126 0C46     		mov	r4, r1
 1625 0128 3846     		mov	r0, r7
 1626 012a CDE90034 		strd	r3, [sp]
 1627 012e 384A     		ldr	r2, .L62+32
 1628 0130 1421     		movs	r1, #20
 1629 0132 FFF7FEFF 		bl	snprintf
 559:notoriOS.c    ****         printNotif(NOTIF_TYPE_EVENT,"pressure_current=%s",value);
 1630              		.loc 1 559 0
 1631 0136 3B46     		mov	r3, r7
 1632 0138 1A46     		mov	r2, r3
 1633 013a 3949     		ldr	r1, .L62+48
 1634 013c 0020     		movs	r0, #0
 1635 013e FFF7FEFF 		bl	printNotif
 560:notoriOS.c    ****         pushData("pressure_current",value,timeStamp);
 1636              		.loc 1 560 0
 1637 0142 3B46     		mov	r3, r7
 1638 0144 FA6E     		ldr	r2, [r7, #108]
 1639 0146 1946     		mov	r1, r3
 1640 0148 3648     		ldr	r0, .L62+52
 1641 014a FFF7FEFF 		bl	pushData
ARM GAS  C:\Users\hail\AppData\Local\Temp\cc4ySZ7O.s 			page 42


 561:notoriOS.c    ****         // Print measurement to SD card to file called data.txt
 562:notoriOS.c    ****         SD_write(Data_fileName, "a+", " ");
 1642              		.loc 1 562 0
 1643 014e 2E4A     		ldr	r2, .L62+24
 1644 0150 2B49     		ldr	r1, .L62+16
 1645 0152 2C48     		ldr	r0, .L62+20
 1646 0154 FFF7FEFF 		bl	SD_write
 563:notoriOS.c    ****         SD_write(Data_fileName, "a+", c_timeStamp);
 1647              		.loc 1 563 0
 1648 0158 07F11403 		add	r3, r7, #20
 1649 015c 1A46     		mov	r2, r3
 1650 015e 2849     		ldr	r1, .L62+16
 1651 0160 2848     		ldr	r0, .L62+20
 1652 0162 FFF7FEFF 		bl	SD_write
 564:notoriOS.c    ****         SD_write(Data_fileName, "a+", " pressure_current: ");
 1653              		.loc 1 564 0
 1654 0166 304A     		ldr	r2, .L62+56
 1655 0168 2549     		ldr	r1, .L62+16
 1656 016a 2648     		ldr	r0, .L62+20
 1657 016c FFF7FEFF 		bl	SD_write
 565:notoriOS.c    ****         SD_write(Data_fileName, "a+", value);
 1658              		.loc 1 565 0
 1659 0170 3B46     		mov	r3, r7
 1660 0172 1A46     		mov	r2, r3
 1661 0174 2249     		ldr	r1, .L62+16
 1662 0176 2348     		ldr	r0, .L62+20
 1663 0178 FFF7FEFF 		bl	SD_write
 566:notoriOS.c    ****         
 567:notoriOS.c    ****         // pressure transducer depth (ft) data
 568:notoriOS.c    ****         snprintf(value,sizeof(value),"%.2f",m_pressure.pressure_depth);
 1664              		.loc 1 568 0
 1665 017c BB6B     		ldr	r3, [r7, #56]	@ float
 1666 017e 1846     		mov	r0, r3
 1667 0180 FFF7FEFF 		bl	__aeabi_f2d
 1668 0184 0346     		mov	r3, r0
 1669 0186 0C46     		mov	r4, r1
 1670 0188 3846     		mov	r0, r7
 1671 018a CDE90034 		strd	r3, [sp]
 1672 018e 204A     		ldr	r2, .L62+32
 1673 0190 1421     		movs	r1, #20
 1674 0192 FFF7FEFF 		bl	snprintf
 569:notoriOS.c    ****         printNotif(NOTIF_TYPE_EVENT,"pressure_depth=%s",value);
 1675              		.loc 1 569 0
 1676 0196 3B46     		mov	r3, r7
 1677 0198 1A46     		mov	r2, r3
 1678 019a 2449     		ldr	r1, .L62+60
 1679 019c 0020     		movs	r0, #0
 1680 019e FFF7FEFF 		bl	printNotif
 570:notoriOS.c    ****         pushData("pressure_depth",value,timeStamp);
 1681              		.loc 1 570 0
 1682 01a2 3B46     		mov	r3, r7
 1683 01a4 FA6E     		ldr	r2, [r7, #108]
 1684 01a6 1946     		mov	r1, r3
 1685 01a8 2148     		ldr	r0, .L62+64
 1686 01aa FFF7FEFF 		bl	pushData
 571:notoriOS.c    ****         // Print measurement to SD card to file called data.txt
 572:notoriOS.c    ****         SD_write(Data_fileName, "a+", " ");
ARM GAS  C:\Users\hail\AppData\Local\Temp\cc4ySZ7O.s 			page 43


 1687              		.loc 1 572 0
 1688 01ae 164A     		ldr	r2, .L62+24
 1689 01b0 1349     		ldr	r1, .L62+16
 1690 01b2 1448     		ldr	r0, .L62+20
 1691 01b4 FFF7FEFF 		bl	SD_write
 573:notoriOS.c    ****         SD_write(Data_fileName, "a+", c_timeStamp);
 1692              		.loc 1 573 0
 1693 01b8 07F11403 		add	r3, r7, #20
 1694 01bc 1A46     		mov	r2, r3
 1695 01be 1049     		ldr	r1, .L62+16
 1696 01c0 1048     		ldr	r0, .L62+20
 1697 01c2 FFF7FEFF 		bl	SD_write
 574:notoriOS.c    ****         SD_write(Data_fileName, "a+", " pressure_depth: ");
 1698              		.loc 1 574 0
 1699 01c6 1B4A     		ldr	r2, .L62+68
 1700 01c8 0D49     		ldr	r1, .L62+16
 1701 01ca 0E48     		ldr	r0, .L62+20
 1702 01cc FFF7FEFF 		bl	SD_write
 575:notoriOS.c    ****         SD_write(Data_fileName, "a+", value);
 1703              		.loc 1 575 0
 1704 01d0 3B46     		mov	r3, r7
 1705 01d2 1A46     		mov	r2, r3
 1706 01d4 0A49     		ldr	r1, .L62+16
 1707 01d6 0B48     		ldr	r0, .L62+20
 1708 01d8 FFF7FEFF 		bl	SD_write
 1709 01dc 03E0     		b	.L60
 1710              	.L59:
 576:notoriOS.c    ****     }else{
 577:notoriOS.c    ****         //pushData("v_bat","error",timeStamp);
 578:notoriOS.c    ****         printNotif(NOTIF_TYPE_ERROR,"Could not get valid readings from ADC.");
 1711              		.loc 1 578 0
 1712 01de 1649     		ldr	r1, .L62+72
 1713 01e0 0220     		movs	r0, #2
 1714 01e2 FFF7FEFF 		bl	printNotif
 1715              	.L60:
 579:notoriOS.c    ****     }
 580:notoriOS.c    ****     
 581:notoriOS.c    ****     return 0u;
 1716              		.loc 1 581 0
 1717 01e6 0023     		movs	r3, #0
 582:notoriOS.c    **** }
 1718              		.loc 1 582 0
 1719 01e8 1846     		mov	r0, r3
 1720 01ea 7437     		adds	r7, r7, #116
 1721              		.cfi_def_cfa_offset 12
 1722 01ec BD46     		mov	sp, r7
 1723              		.cfi_def_cfa_register 13
 1724              		@ sp needed
 1725 01ee 90BD     		pop	{r4, r7, pc}
 1726              	.L63:
 1727              		.align	2
 1728              	.L62:
 1729 01f0 70020000 		.word	.LC35
 1730 01f4 3C000000 		.word	.LC2
 1731 01f8 74020000 		.word	.LC36
 1732 01fc 88020000 		.word	.LC37
 1733 0200 98020000 		.word	.LC38
ARM GAS  C:\Users\hail\AppData\Local\Temp\cc4ySZ7O.s 			page 44


 1734 0204 00000000 		.word	Data_fileName
 1735 0208 9C020000 		.word	.LC39
 1736 020c A0020000 		.word	.LC40
 1737 0210 CC020000 		.word	.LC41
 1738 0214 D4020000 		.word	.LC42
 1739 0218 E0020000 		.word	.LC43
 1740 021c E8020000 		.word	.LC44
 1741 0220 F0020000 		.word	.LC45
 1742 0224 04030000 		.word	.LC46
 1743 0228 18030000 		.word	.LC47
 1744 022c 2C030000 		.word	.LC48
 1745 0230 40030000 		.word	.LC49
 1746 0234 50030000 		.word	.LC50
 1747 0238 64030000 		.word	.LC51
 1748              		.cfi_endproc
 1749              	.LFE76:
 1750              		.size	makeMeasurements, .-makeMeasurements
 1751              		.section	.rodata
 1752 038b 00       		.align	2
 1753              	.LC52:
 1754 038c 4572726F 		.ascii	"Error setting system time.\000"
 1754      72207365 
 1754      7474696E 
 1754      67207379 
 1754      7374656D 
 1755              		.section	.text.setTime,"ax",%progbits
 1756              		.align	2
 1757              		.global	setTime
 1758              		.thumb
 1759              		.thumb_func
 1760              		.type	setTime, %function
 1761              	setTime:
 1762              	.LFB77:
 583:notoriOS.c    **** 
 584:notoriOS.c    **** // ==============================================
 585:notoriOS.c    **** // Set the system time
 586:notoriOS.c    **** // Returns 0 if there is an error, returns 1 if successful
 587:notoriOS.c    **** // ==============================================
 588:notoriOS.c    **** uint8 setTime(long timeStamp){
 1763              		.loc 1 588 0
 1764              		.cfi_startproc
 1765              		@ args = 0, pretend = 0, frame = 24
 1766              		@ frame_needed = 1, uses_anonymous_args = 0
 1767 0000 80B5     		push	{r7, lr}
 1768              		.cfi_def_cfa_offset 8
 1769              		.cfi_offset 7, -8
 1770              		.cfi_offset 14, -4
 1771 0002 86B0     		sub	sp, sp, #24
 1772              		.cfi_def_cfa_offset 32
 1773 0004 00AF     		add	r7, sp, #0
 1774              		.cfi_def_cfa_register 7
 1775 0006 7860     		str	r0, [r7, #4]
 589:notoriOS.c    ****     // If timestamp is <= 0 print error statement and return 0
 590:notoriOS.c    ****     if(timeStamp <=0){
 1776              		.loc 1 590 0
 1777 0008 7B68     		ldr	r3, [r7, #4]
 1778 000a 002B     		cmp	r3, #0
ARM GAS  C:\Users\hail\AppData\Local\Temp\cc4ySZ7O.s 			page 45


 1779 000c 05DC     		bgt	.L65
 591:notoriOS.c    ****         printNotif(NOTIF_TYPE_ERROR,"Error setting system time.");
 1780              		.loc 1 591 0
 1781 000e 1849     		ldr	r1, .L67
 1782 0010 0220     		movs	r0, #2
 1783 0012 FFF7FEFF 		bl	printNotif
 592:notoriOS.c    ****         return 0;  
 1784              		.loc 1 592 0
 1785 0016 0023     		movs	r3, #0
 1786 0018 25E0     		b	.L66
 1787              	.L65:
 593:notoriOS.c    ****     }
 594:notoriOS.c    ****     // Create a new pointer t of data structure tm
 595:notoriOS.c    ****     struct tm * t;
 596:notoriOS.c    ****     // Converts a calendar time (pointed to by timer) and returns a pointer to a structure containi
 597:notoriOS.c    ****     t = gmtime(&timeStamp);
 1788              		.loc 1 597 0
 1789 001a 3B1D     		adds	r3, r7, #4
 1790 001c 1846     		mov	r0, r3
 1791 001e FFF7FEFF 		bl	gmtime
 1792 0022 7861     		str	r0, [r7, #20]
 598:notoriOS.c    ****     
 599:notoriOS.c    ****     // Create variable localTime of data structure RTC_TIME_DATE
 600:notoriOS.c    ****     RTC_TIME_DATE localTime;
 601:notoriOS.c    ****     localTime.Sec = t->tm_sec;
 1793              		.loc 1 601 0
 1794 0024 7B69     		ldr	r3, [r7, #20]
 1795 0026 1B68     		ldr	r3, [r3]
 1796 0028 DBB2     		uxtb	r3, r3
 1797 002a 3B72     		strb	r3, [r7, #8]
 602:notoriOS.c    ****     localTime.Min = t->tm_min;
 1798              		.loc 1 602 0
 1799 002c 7B69     		ldr	r3, [r7, #20]
 1800 002e 5B68     		ldr	r3, [r3, #4]
 1801 0030 DBB2     		uxtb	r3, r3
 1802 0032 7B72     		strb	r3, [r7, #9]
 603:notoriOS.c    ****     localTime.Hour = t->tm_hour;
 1803              		.loc 1 603 0
 1804 0034 7B69     		ldr	r3, [r7, #20]
 1805 0036 9B68     		ldr	r3, [r3, #8]
 1806 0038 DBB2     		uxtb	r3, r3
 1807 003a BB72     		strb	r3, [r7, #10]
 604:notoriOS.c    ****     localTime.Year = t->tm_year + 1900;
 1808              		.loc 1 604 0
 1809 003c 7B69     		ldr	r3, [r7, #20]
 1810 003e 5B69     		ldr	r3, [r3, #20]
 1811 0040 9BB2     		uxth	r3, r3
 1812 0042 03F26C73 		addw	r3, r3, #1900
 1813 0046 9BB2     		uxth	r3, r3
 1814 0048 7B82     		strh	r3, [r7, #18]	@ movhi
 605:notoriOS.c    ****     localTime.Month = t->tm_mon;
 1815              		.loc 1 605 0
 1816 004a 7B69     		ldr	r3, [r7, #20]
 1817 004c 1B69     		ldr	r3, [r3, #16]
 1818 004e DBB2     		uxtb	r3, r3
 1819 0050 3B74     		strb	r3, [r7, #16]
 606:notoriOS.c    ****     localTime.DayOfMonth = t->tm_mday;
ARM GAS  C:\Users\hail\AppData\Local\Temp\cc4ySZ7O.s 			page 46


 1820              		.loc 1 606 0
 1821 0052 7B69     		ldr	r3, [r7, #20]
 1822 0054 DB68     		ldr	r3, [r3, #12]
 1823 0056 DBB2     		uxtb	r3, r3
 1824 0058 3B73     		strb	r3, [r7, #12]
 607:notoriOS.c    **** 
 608:notoriOS.c    ****     // Writes time and date values as current time and date.
 609:notoriOS.c    ****     RTC_WriteTime(&localTime);
 1825              		.loc 1 609 0
 1826 005a 07F10803 		add	r3, r7, #8
 1827 005e 1846     		mov	r0, r3
 1828 0060 FFF7FEFF 		bl	RTC_WriteTime
 610:notoriOS.c    ****     
 611:notoriOS.c    ****     // Return 1 when the system time was set properly.
 612:notoriOS.c    ****     return 1;
 1829              		.loc 1 612 0
 1830 0064 0123     		movs	r3, #1
 1831              	.L66:
 613:notoriOS.c    **** }
 1832              		.loc 1 613 0
 1833 0066 1846     		mov	r0, r3
 1834 0068 1837     		adds	r7, r7, #24
 1835              		.cfi_def_cfa_offset 8
 1836 006a BD46     		mov	sp, r7
 1837              		.cfi_def_cfa_register 13
 1838              		@ sp needed
 1839 006c 80BD     		pop	{r7, pc}
 1840              	.L68:
 1841 006e 00BF     		.align	2
 1842              	.L67:
 1843 0070 8C030000 		.word	.LC52
 1844              		.cfi_endproc
 1845              	.LFE77:
 1846              		.size	setTime, .-setTime
 1847              		.section	.rodata
 1848 03a7 00       		.align	2
 1849              	.LC53:
 1850 03a8 75706772 		.ascii	"upgrade.hex\000"
 1850      6164652E 
 1850      68657800 
 1851              		.section	.text.upgraded,"ax",%progbits
 1852              		.align	2
 1853              		.global	upgraded
 1854              		.thumb
 1855              		.thumb_func
 1856              		.type	upgraded, %function
 1857              	upgraded:
 1858              	.LFB78:
 614:notoriOS.c    **** 
 615:notoriOS.c    **** //downloads and stores files on SD card
 616:notoriOS.c    **** 
 617:notoriOS.c    **** 
 618:notoriOS.c    **** 
 619:notoriOS.c    **** // ==============================================
 620:notoriOS.c    **** // Will they love it, will they hate it
 621:notoriOS.c    **** // Never fade it, I evade it
 622:notoriOS.c    **** // Cause I never really want to complicate it
ARM GAS  C:\Users\hail\AppData\Local\Temp\cc4ySZ7O.s 			page 47


 623:notoriOS.c    **** //      - Logic, Upgraded (2015)
 624:notoriOS.c    **** //
 625:notoriOS.c    **** // downloads new firmware, stores it on SD card, and reboots the system to allow bootloader 
 626:notoriOS.c    **** // returns 0 if modem is connected, 1 if the file downlaod failed, and does not return otherwise (b
 627:notoriOS.c    **** // ==============================================
 628:notoriOS.c    **** 
 629:notoriOS.c    **** uint8 upgraded(char *host, int port,  char *route){
 1859              		.loc 1 629 0
 1860              		.cfi_startproc
 1861              		@ args = 0, pretend = 0, frame = 232
 1862              		@ frame_needed = 1, uses_anonymous_args = 0
 1863 0000 80B5     		push	{r7, lr}
 1864              		.cfi_def_cfa_offset 8
 1865              		.cfi_offset 7, -8
 1866              		.cfi_offset 14, -4
 1867 0002 C0B0     		sub	sp, sp, #256
 1868              		.cfi_def_cfa_offset 264
 1869 0004 06AF     		add	r7, sp, #24
 1870              		.cfi_def_cfa 7, 240
 1871 0006 F860     		str	r0, [r7, #12]
 1872 0008 B960     		str	r1, [r7, #8]
 1873 000a 7A60     		str	r2, [r7, #4]
 630:notoriOS.c    ****     
 631:notoriOS.c    ****     uint8 upgrade_status = 0;
 1874              		.loc 1 631 0
 1875 000c 0023     		movs	r3, #0
 1876 000e 87F8E730 		strb	r3, [r7, #231]
 632:notoriOS.c    ****     
 633:notoriOS.c    ****    //AGPS will only work if we're connected to network, so don't call this fuction otherwise
 634:notoriOS.c    ****     if(modem_state != MODEM_STATE_READY){
 1877              		.loc 1 634 0
 1878 0012 384B     		ldr	r3, .L73
 1879 0014 1B78     		ldrb	r3, [r3]	@ zero_extendqisi2
 1880 0016 042B     		cmp	r3, #4
 1881 0018 02D0     		beq	.L70
 635:notoriOS.c    ****         return upgrade_status;//where valid = 0
 1882              		.loc 1 635 0
 1883 001a 97F8E730 		ldrb	r3, [r7, #231]	@ zero_extendqisi2
 1884 001e 65E0     		b	.L72
 1885              	.L70:
 636:notoriOS.c    ****     }
 637:notoriOS.c    ****     
 638:notoriOS.c    ****     char fileName[] = "upgrade.hex";
 1886              		.loc 1 638 0
 1887 0020 354A     		ldr	r2, .L73+4
 1888 0022 07F1D803 		add	r3, r7, #216
 1889 0026 07CA     		ldmia	r2, {r0, r1, r2}
 1890 0028 83E80700 		stmia	r3, {r0, r1, r2}
 639:notoriOS.c    ****     //delete file, if one exisits already
 640:notoriOS.c    ****     SD_rmfile(fileName);
 1891              		.loc 1 640 0
 1892 002c 07F1D803 		add	r3, r7, #216
 1893 0030 1846     		mov	r0, r3
 1894 0032 FFF7FEFF 		bl	SD_rmfile
 641:notoriOS.c    ****     
 642:notoriOS.c    ****     // Create http request
 643:notoriOS.c    ****     construct_generic_HTTP_request(http_request,http_body,host,route,port,"POST","Close","",0,"1.1"
ARM GAS  C:\Users\hail\AppData\Local\Temp\cc4ySZ7O.s 			page 48


 1895              		.loc 1 643 0
 1896 0036 314B     		ldr	r3, .L73+8
 1897 0038 0593     		str	r3, [sp, #20]
 1898 003a 0023     		movs	r3, #0
 1899 003c 0493     		str	r3, [sp, #16]
 1900 003e 304B     		ldr	r3, .L73+12
 1901 0040 0393     		str	r3, [sp, #12]
 1902 0042 304B     		ldr	r3, .L73+16
 1903 0044 0293     		str	r3, [sp, #8]
 1904 0046 304B     		ldr	r3, .L73+20
 1905 0048 0193     		str	r3, [sp, #4]
 1906 004a BB68     		ldr	r3, [r7, #8]
 1907 004c 0093     		str	r3, [sp]
 1908 004e 7B68     		ldr	r3, [r7, #4]
 1909 0050 FA68     		ldr	r2, [r7, #12]
 1910 0052 2E49     		ldr	r1, .L73+24
 1911 0054 2E48     		ldr	r0, .L73+28
 1912 0056 FFF7FEFF 		bl	construct_generic_HTTP_request
 644:notoriOS.c    ****     printNotif(NOTIF_TYPE_EVENT,"Full HTTP Request: %s", http_request);
 1913              		.loc 1 644 0
 1914 005a 2D4A     		ldr	r2, .L73+28
 1915 005c 2D49     		ldr	r1, .L73+32
 1916 005e 0020     		movs	r0, #0
 1917 0060 FFF7FEFF 		bl	printNotif
 645:notoriOS.c    ****     // Create array portConfig of size 200 characters
 646:notoriOS.c    ****     char portConfig[200];
 647:notoriOS.c    ****     // Print port configurations
 648:notoriOS.c    ****     snprintf(portConfig,sizeof(portConfig),"AT#SD=1,0,%d,\"%s\",0,0,1\r",port,host);
 1918              		.loc 1 648 0
 1919 0064 07F11000 		add	r0, r7, #16
 1920 0068 FB68     		ldr	r3, [r7, #12]
 1921 006a 0093     		str	r3, [sp]
 1922 006c BB68     		ldr	r3, [r7, #8]
 1923 006e 2A4A     		ldr	r2, .L73+36
 1924 0070 C821     		movs	r1, #200
 1925 0072 FFF7FEFF 		bl	snprintf
 649:notoriOS.c    ****     printNotif(NOTIF_TYPE_EVENT,"%s",portConfig);
 1926              		.loc 1 649 0
 1927 0076 07F11003 		add	r3, r7, #16
 1928 007a 1A46     		mov	r2, r3
 1929 007c 2749     		ldr	r1, .L73+40
 1930 007e 0020     		movs	r0, #0
 1931 0080 FFF7FEFF 		bl	printNotif
 650:notoriOS.c    ****     // AT command to configure the port
 651:notoriOS.c    ****     upgrade_status = at_write_command(portConfig,"OK",10000u);
 1932              		.loc 1 651 0
 1933 0084 07F11003 		add	r3, r7, #16
 1934 0088 42F21072 		movw	r2, #10000
 1935 008c 2449     		ldr	r1, .L73+44
 1936 008e 1846     		mov	r0, r3
 1937 0090 FFF7FEFF 		bl	at_write_command
 1938 0094 0346     		mov	r3, r0
 1939 0096 87F8E730 		strb	r3, [r7, #231]
 652:notoriOS.c    ****     // AT command #SSEND= is an execution command that permits, while the modul eis in command mode
 653:notoriOS.c    ****     // To complete the operation, send Ctrl-Z char to exit
 654:notoriOS.c    ****     upgrade_status = at_write_command("AT#SSEND=1\r\n",   ">", 1000u);
 1940              		.loc 1 654 0
ARM GAS  C:\Users\hail\AppData\Local\Temp\cc4ySZ7O.s 			page 49


 1941 009a 4FF47A72 		mov	r2, #1000
 1942 009e 2149     		ldr	r1, .L73+48
 1943 00a0 2148     		ldr	r0, .L73+52
 1944 00a2 FFF7FEFF 		bl	at_write_command
 1945 00a6 0346     		mov	r3, r0
 1946 00a8 87F8E730 		strb	r3, [r7, #231]
 655:notoriOS.c    ****     // Append <ctrl+z> escape sequence to http_request to exit modem command line
 656:notoriOS.c    ****     strncat(http_request, "\032", 1); 
 1947              		.loc 1 656 0
 1948 00ac 1848     		ldr	r0, .L73+28
 1949 00ae FFF7FEFF 		bl	strlen
 1950 00b2 0346     		mov	r3, r0
 1951 00b4 1A46     		mov	r2, r3
 1952 00b6 164B     		ldr	r3, .L73+28
 1953 00b8 1344     		add	r3, r3, r2
 1954 00ba 1C49     		ldr	r1, .L73+56
 1955 00bc 1A46     		mov	r2, r3
 1956 00be 0B46     		mov	r3, r1
 1957 00c0 1B88     		ldrh	r3, [r3]	@ unaligned
 1958 00c2 1380     		strh	r3, [r2]	@ unaligned
 657:notoriOS.c    ****     // AT command to send http request
 658:notoriOS.c    ****     upgrade_status = at_write_command(http_request, "OK", 5000u);
 1959              		.loc 1 658 0
 1960 00c4 41F28832 		movw	r2, #5000
 1961 00c8 1549     		ldr	r1, .L73+44
 1962 00ca 1148     		ldr	r0, .L73+28
 1963 00cc FFF7FEFF 		bl	at_write_command
 1964 00d0 0346     		mov	r3, r0
 1965 00d2 87F8E730 		strb	r3, [r7, #231]
 659:notoriOS.c    ****     // AT command #SRECV= is an execution command that permits users to read data arrived through a
 660:notoriOS.c    ****     // = 1 means the UPD information is enabled: data are read just until the end of the UDP datagr
 661:notoriOS.c    ****     upgrade_status = at_write_command("AT#SRECV=1,1000\r","OS-OK",5000u);
 1966              		.loc 1 661 0
 1967 00d6 41F28832 		movw	r2, #5000
 1968 00da 1549     		ldr	r1, .L73+60
 1969 00dc 1548     		ldr	r0, .L73+64
 1970 00de FFF7FEFF 		bl	at_write_command
 1971 00e2 0346     		mov	r3, r0
 1972 00e4 87F8E730 		strb	r3, [r7, #231]
 662:notoriOS.c    ****     //SD_write(fileName,"w+",uart_received_string);
 663:notoriOS.c    ****     
 664:notoriOS.c    ****     
 665:notoriOS.c    ****     return upgrade_status;
 1973              		.loc 1 665 0
 1974 00e8 97F8E730 		ldrb	r3, [r7, #231]	@ zero_extendqisi2
 1975              	.L72:
 666:notoriOS.c    ****     
 667:notoriOS.c    **** }
 1976              		.loc 1 667 0 discriminator 1
 1977 00ec 1846     		mov	r0, r3
 1978 00ee E837     		adds	r7, r7, #232
 1979              		.cfi_def_cfa_offset 8
 1980 00f0 BD46     		mov	sp, r7
 1981              		.cfi_def_cfa_register 13
 1982              		@ sp needed
 1983 00f2 80BD     		pop	{r7, pc}
 1984              	.L74:
ARM GAS  C:\Users\hail\AppData\Local\Temp\cc4ySZ7O.s 			page 50


 1985              		.align	2
 1986              	.L73:
 1987 00f4 00000000 		.word	modem_state
 1988 00f8 A8030000 		.word	.LC53
 1989 00fc 68010000 		.word	.LC16
 1990 0100 6C010000 		.word	.LC17
 1991 0104 70010000 		.word	.LC18
 1992 0108 78010000 		.word	.LC19
 1993 010c 00000000 		.word	http_body
 1994 0110 00000000 		.word	http_request
 1995 0114 80010000 		.word	.LC20
 1996 0118 98010000 		.word	.LC21
 1997 011c B4010000 		.word	.LC22
 1998 0120 B8010000 		.word	.LC23
 1999 0124 E8010000 		.word	.LC26
 2000 0128 EC010000 		.word	.LC27
 2001 012c FC010000 		.word	.LC28
 2002 0130 18020000 		.word	.LC31
 2003 0134 20020000 		.word	.LC32
 2004              		.cfi_endproc
 2005              	.LFE78:
 2006              		.size	upgraded, .-upgraded
 2007              		.text
 2008              	.Letext0:
 2009              		.file 2 "c:\\program files (x86)\\cypress\\psoc creator\\4.3\\psoc creator\\import\\gnu\\arm\\5.4.
 2010              		.file 3 "c:\\program files (x86)\\cypress\\psoc creator\\4.3\\psoc creator\\import\\gnu\\arm\\5.4.
 2011              		.file 4 "Generated_Source\\PSoC5/cytypes.h"
 2012              		.file 5 "Generated_Source\\PSoC5/RTC.h"
 2013              		.file 6 "testing.h"
 2014              		.file 7 "level_sensor.h"
 2015              		.file 8 "voltages.h"
 2016              		.file 9 "c:\\program files (x86)\\cypress\\psoc creator\\4.3\\psoc creator\\import\\gnu\\arm\\5.4.
 2017              		.file 10 "modem.h"
 2018              		.file 11 "data.h"
 2019              		.file 12 "notoriOS.h"
 2020              		.file 13 "Generated_Source\\PSoC5/core_cm3.h"