ARM GAS  C:\Users\hail\AppData\Local\Temp\ccmfpKlG.s 			page 1


   1              		.syntax unified
   2              		.cpu cortex-m3
   3              		.fpu softvfp
   4              		.eabi_attribute 20, 1
   5              		.eabi_attribute 21, 1
   6              		.eabi_attribute 23, 3
   7              		.eabi_attribute 24, 1
   8              		.eabi_attribute 25, 1
   9              		.eabi_attribute 26, 1
  10              		.eabi_attribute 30, 6
  11              		.eabi_attribute 34, 1
  12              		.eabi_attribute 18, 4
  13              		.thumb
  14              		.syntax unified
  15              		.file	"pressure_transducer.c"
  16              		.text
  17              	.Ltext0:
  18              		.cfi_sections	.debug_frame
  19              		.comm	modem_state,1,1
  20              		.comm	modem_start_time_stamp,4,4
  21              		.comm	modem_info,60,4
  22              		.comm	modem_stats,16,4
  23              		.comm	updatable_parameters,3,4
  24              		.syntax unified
  25              		.global _printf_float
  26              		.thumb
  27              		.syntax unified
  28              		.comm	dataPointsInStack,2,2
  29              		.comm	dataPointsInStackDesired,2,2
  30              		.comm	data,6600,4
  31              		.comm	http_request,10000,4
  32              		.comm	http_body,10000,4
  33              		.comm	http_route,200,4
  34              		.comm	system_info,28,4
  35              		.comm	system_settings,104,4
  36              		.comm	alarmMeasure,6,4
  37              		.comm	timeToMeasure,1,1
  38              		.comm	alarmSync,6,4
  39              		.comm	timeToSync,1,1
  40              		.comm	timeToSycnRemoteParams,1,1
  41              		.comm	try_counter,1,1
  42              		.comm	hey,1,1
  43              		.global	__aeabi_f2d
  44              		.global	__aeabi_dsub
  45              		.global	__aeabi_d2f
  46              		.global	__aeabi_fmul
  47              		.global	__aeabi_fsub
  48              		.section	.text.pressure_take_readings,"ax",%progbits
  49              		.align	2
  50              		.global	pressure_take_readings
  51              		.thumb
  52              		.thumb_func
  53              		.type	pressure_take_readings, %function
  54              	pressure_take_readings:
  55              	.LFB64:
  56              		.file 1 "pressure_transducer.c"
   1:pressure_transducer.c **** #include "pressure_transducer.h"
ARM GAS  C:\Users\hail\AppData\Local\Temp\ccmfpKlG.s 			page 2


   2:pressure_transducer.c **** #include "notoriOS.h"
   3:pressure_transducer.c **** #include <stdio.h>
   4:pressure_transducer.c **** #include <string.h>
   5:pressure_transducer.c **** 
   6:pressure_transducer.c **** 
   7:pressure_transducer.c **** 
   8:pressure_transducer.c **** pressure_t pressure_take_readings(){
  57              		.loc 1 8 0
  58              		.cfi_startproc
  59              		@ args = 0, pretend = 0, frame = 88
  60              		@ frame_needed = 1, uses_anonymous_args = 0
  61 0000 90B5     		push	{r4, r7, lr}
  62              		.cfi_def_cfa_offset 12
  63              		.cfi_offset 4, -12
  64              		.cfi_offset 7, -8
  65              		.cfi_offset 14, -4
  66 0002 97B0     		sub	sp, sp, #92
  67              		.cfi_def_cfa_offset 104
  68 0004 00AF     		add	r7, sp, #0
  69              		.cfi_def_cfa_register 7
  70 0006 7860     		str	r0, [r7, #4]
   9:pressure_transducer.c ****     
  10:pressure_transducer.c ****     pressure_t pressure;  // Create variable pressure of data structure pressure_t.
  11:pressure_transducer.c ****     
  12:pressure_transducer.c **** 	Voltage_Enable_Write(ON);   // Flip on the ADC pin high (turns it on).
  71              		.loc 1 12 0
  72 0008 0120     		movs	r0, #1
  73 000a FFF7FEFF 		bl	Voltage_Enable_Write
  13:pressure_transducer.c ****     
  14:pressure_transducer.c **** 	CyDelay(10u);	    // 10 seconds delay to give time to flip on ADC pin.
  74              		.loc 1 14 0
  75 000e 0A20     		movs	r0, #10
  76 0010 FFF7FEFF 		bl	CyDelay
  15:pressure_transducer.c ****     
  16:pressure_transducer.c ****     ADC_RestoreConfig();// Have to call this and save (See below). Otherwise ADC won't work through
  77              		.loc 1 16 0
  78 0014 FFF7FEFF 		bl	ADC_RestoreConfig
  17:pressure_transducer.c **** 	
  18:pressure_transducer.c **** 	ADC_Start();        // Start the ADC
  79              		.loc 1 18 0
  80 0018 FFF7FEFF 		bl	ADC_Start
  19:pressure_transducer.c ****     
  20:pressure_transducer.c ****     ADC_StartConvert(); // Forces the ADC to initiate a conversion. If in the "Single Sample" mode,
  81              		.loc 1 20 0
  82 001c FFF7FEFF 		bl	ADC_StartConvert
  21:pressure_transducer.c ****     
  22:pressure_transducer.c ****     AMux_Start();       // Start the Analog Multiplexer
  83              		.loc 1 22 0
  84 0020 FFF7FEFF 		bl	AMux_Start
  23:pressure_transducer.c ****    
  24:pressure_transducer.c ****     float channels[AMux_CHANNELS];
  25:pressure_transducer.c ****     
  26:pressure_transducer.c ****     int32 readings[N_SAMPLES];  // Creates new int32 array called readings of size N_SAMPLES = 11
  27:pressure_transducer.c ****         
  28:pressure_transducer.c ****     AMux_Select(ADC_MUX_PRTRANS); // This functions first disconnects all channels then connects th
  85              		.loc 1 28 0
  86 0024 0320     		movs	r0, #3
ARM GAS  C:\Users\hail\AppData\Local\Temp\ccmfpKlG.s 			page 3


  87 0026 FFF7FEFF 		bl	AMux_Select
  88              	.LBB2:
  29:pressure_transducer.c ****     
  30:pressure_transducer.c ****     for(uint16 i=0; i< N_SAMPLES; i++){
  89              		.loc 1 30 0
  90 002a 0023     		movs	r3, #0
  91 002c A7F85630 		strh	r3, [r7, #86]	@ movhi
  92 0030 0FE0     		b	.L2
  93              	.L3:
  31:pressure_transducer.c ****         readings[i] = ADC_Read32(); // When called, it will start ADC conversions, wait for the con
  94              		.loc 1 31 0 discriminator 3
  95 0032 B7F85640 		ldrh	r4, [r7, #86]
  96 0036 FFF7FEFF 		bl	ADC_Read32
  97 003a 0246     		mov	r2, r0
  98 003c A300     		lsls	r3, r4, #2
  99 003e 07F15801 		add	r1, r7, #88
 100 0042 0B44     		add	r3, r3, r1
 101 0044 43F84C2C 		str	r2, [r3, #-76]
  30:pressure_transducer.c ****         readings[i] = ADC_Read32(); // When called, it will start ADC conversions, wait for the con
 102              		.loc 1 30 0 discriminator 3
 103 0048 B7F85630 		ldrh	r3, [r7, #86]
 104 004c 0133     		adds	r3, r3, #1
 105 004e A7F85630 		strh	r3, [r7, #86]	@ movhi
 106              	.L2:
  30:pressure_transducer.c ****         readings[i] = ADC_Read32(); // When called, it will start ADC conversions, wait for the con
 107              		.loc 1 30 0 is_stmt 0 discriminator 1
 108 0052 B7F85630 		ldrh	r3, [r7, #86]
 109 0056 0A2B     		cmp	r3, #10
 110 0058 EBD9     		bls	.L3
 111              	.LBE2:
  32:pressure_transducer.c ****     }
  33:pressure_transducer.c ****     // Converts the ADC output to Volts as a floating point number. 
  34:pressure_transducer.c ****     // Get the median of readings and return that.
  35:pressure_transducer.c ****     
  36:pressure_transducer.c ****     channels[ADC_MUX_PRTRANS] = ADC_CountsTo_Volts(find_median32(readings, N_SAMPLES));    // Get m
 112              		.loc 1 36 0 is_stmt 1
 113 005a 07F10C03 		add	r3, r7, #12
 114 005e 0B21     		movs	r1, #11
 115 0060 1846     		mov	r0, r3
 116 0062 FFF7FEFF 		bl	find_median32
 117 0066 0346     		mov	r3, r0
 118 0068 1846     		mov	r0, r3
 119 006a FFF7FEFF 		bl	ADC_CountsTo_Volts
 120 006e 0346     		mov	r3, r0
 121 0070 7B64     		str	r3, [r7, #68]	@ float
  37:pressure_transducer.c ****         
  38:pressure_transducer.c ****     
  39:pressure_transducer.c ****     AMux_Stop();        // Disconnects all Analog Multiplex channels.
 122              		.loc 1 39 0
 123 0072 FFF7FEFF 		bl	AMux_Start
  40:pressure_transducer.c ****     ADC_StopConvert();  // Forces the ADC to stop all conversions.
 124              		.loc 1 40 0
 125 0076 FFF7FEFF 		bl	ADC_StopConvert
  41:pressure_transducer.c ****     ADC_SaveConfig();   // Save the register configuration which are not retention.
 126              		.loc 1 41 0
 127 007a FFF7FEFF 		bl	ADC_SaveConfig
  42:pressure_transducer.c ****     ADC_Stop();         // Stops and powers down the ADC component and the internal clock if the ex
ARM GAS  C:\Users\hail\AppData\Local\Temp\ccmfpKlG.s 			page 4


 128              		.loc 1 42 0
 129 007e FFF7FEFF 		bl	ADC_Stop
  43:pressure_transducer.c ****     
  44:pressure_transducer.c ****     Voltage_Enable_Write(OFF);  // Pulls ADC pin low (turns it off).
 130              		.loc 1 44 0
 131 0082 0020     		movs	r0, #0
 132 0084 FFF7FEFF 		bl	Voltage_Enable_Write
  45:pressure_transducer.c ****     float offset = channels[0] - 1.024; // Should be 1.024 exactly. BK saw an offset when measuring
 133              		.loc 1 45 0
 134 0088 BB6B     		ldr	r3, [r7, #56]	@ float
 135 008a 1846     		mov	r0, r3
 136 008c FFF7FEFF 		bl	__aeabi_f2d
 137 0090 13A3     		adr	r3, .L5
 138 0092 D3E90023 		ldrd	r2, [r3]
 139 0096 FFF7FEFF 		bl	__aeabi_dsub
 140 009a 0346     		mov	r3, r0
 141 009c 0C46     		mov	r4, r1
 142 009e 1846     		mov	r0, r3
 143 00a0 2146     		mov	r1, r4
 144 00a2 FFF7FEFF 		bl	__aeabi_d2f
 145 00a6 0346     		mov	r3, r0
 146 00a8 3B65     		str	r3, [r7, #80]	@ float
  46:pressure_transducer.c ****     pressure.pressure_voltage = (channels[ADC_MUX_PRTRANS] * 11) - offset; // Voltage divider is (1
 147              		.loc 1 46 0
 148 00aa 7B6C     		ldr	r3, [r7, #68]	@ float
 149 00ac 0E49     		ldr	r1, .L5+8
 150 00ae 1846     		mov	r0, r3
 151 00b0 FFF7FEFF 		bl	__aeabi_fmul
 152 00b4 0346     		mov	r3, r0
 153 00b6 396D     		ldr	r1, [r7, #80]	@ float
 154 00b8 1846     		mov	r0, r3
 155 00ba FFF7FEFF 		bl	__aeabi_fsub
 156 00be 0346     		mov	r3, r0
 157 00c0 BB64     		str	r3, [r7, #72]	@ float
  47:pressure_transducer.c ****     
  48:pressure_transducer.c ****     pressure.valid = 1;
 158              		.loc 1 48 0
 159 00c2 0123     		movs	r3, #1
 160 00c4 87F84C30 		strb	r3, [r7, #76]
  49:pressure_transducer.c ****     
  50:pressure_transducer.c ****     return pressure;
 161              		.loc 1 50 0
 162 00c8 7B68     		ldr	r3, [r7, #4]
 163 00ca 1A46     		mov	r2, r3
 164 00cc 07F14803 		add	r3, r7, #72
 165 00d0 93E80300 		ldmia	r3, {r0, r1}
 166 00d4 82E80300 		stmia	r2, {r0, r1}
  51:pressure_transducer.c **** }
 167              		.loc 1 51 0
 168 00d8 7868     		ldr	r0, [r7, #4]
 169 00da 5C37     		adds	r7, r7, #92
 170              		.cfi_def_cfa_offset 12
 171 00dc BD46     		mov	sp, r7
 172              		.cfi_def_cfa_register 13
 173              		@ sp needed
 174 00de 90BD     		pop	{r4, r7, pc}
 175              	.L6:
ARM GAS  C:\Users\hail\AppData\Local\Temp\ccmfpKlG.s 			page 5


 176              		.align	3
 177              	.L5:
 178 00e0 FCA9F1D2 		.word	-755914244
 179 00e4 4D62F03F 		.word	1072718413
 180 00e8 00003041 		.word	1093664768
 181              		.cfi_endproc
 182              	.LFE64:
 183              		.size	pressure_take_readings, .-pressure_take_readings
 184              		.section	.rodata
 185              		.align	2
 186              	.LC0:
 187 0000 54455354 		.ascii	"TEST_PRESSURE_VOLTAGES\000"
 187      5F505245 
 187      53535552 
 187      455F564F 
 187      4C544147 
 188 0017 00       		.align	2
 189              	.LC1:
 190 0018 50726573 		.ascii	"Pressure=%.3f\000"
 190      73757265 
 190      3D252E33 
 190      6600
 191              		.section	.text.pressure_test,"ax",%progbits
 192              		.align	2
 193              		.global	pressure_test
 194              		.thumb
 195              		.thumb_func
 196              		.type	pressure_test, %function
 197              	pressure_test:
 198              	.LFB65:
  52:pressure_transducer.c **** 
  53:pressure_transducer.c **** // Test the pressure readings
  54:pressure_transducer.c **** test_t pressure_test(){
 199              		.loc 1 54 0
 200              		.cfi_startproc
 201              		@ args = 0, pretend = 0, frame = 408
 202              		@ frame_needed = 1, uses_anonymous_args = 0
 203 0000 B0B5     		push	{r4, r5, r7, lr}
 204              		.cfi_def_cfa_offset 16
 205              		.cfi_offset 4, -16
 206              		.cfi_offset 5, -12
 207              		.cfi_offset 7, -8
 208              		.cfi_offset 14, -4
 209 0002 E8B0     		sub	sp, sp, #416
 210              		.cfi_def_cfa_offset 432
 211 0004 02AF     		add	r7, sp, #8
 212              		.cfi_def_cfa 7, 424
 213 0006 3B1D     		adds	r3, r7, #4
 214 0008 1860     		str	r0, [r3]
  55:pressure_transducer.c ****     // Create variable test of the data structure test_t
  56:pressure_transducer.c ****     test_t test;
  57:pressure_transducer.c ****     test.status = 0;
 215              		.loc 1 57 0
 216 000a 07F11403 		add	r3, r7, #20
 217 000e 0022     		movs	r2, #0
 218 0010 83F88020 		strb	r2, [r3, #128]
  58:pressure_transducer.c ****     snprintf(test.test_name,sizeof(test.test_name),"TEST_PRESSURE_VOLTAGES");
ARM GAS  C:\Users\hail\AppData\Local\Temp\ccmfpKlG.s 			page 6


 219              		.loc 1 58 0
 220 0014 07F11403 		add	r3, r7, #20
 221 0018 1D4A     		ldr	r2, .L9
 222 001a 1C46     		mov	r4, r3
 223 001c 1546     		mov	r5, r2
 224 001e 0FCD     		ldmia	r5!, {r0, r1, r2, r3}
 225 0020 0FC4     		stmia	r4!, {r0, r1, r2, r3}
 226 0022 95E80300 		ldmia	r5, {r0, r1}
 227 0026 2060     		str	r0, [r4]
 228 0028 0434     		adds	r4, r4, #4
 229 002a 2180     		strh	r1, [r4]	@ movhi
 230 002c 0234     		adds	r4, r4, #2
 231 002e 0B0C     		lsrs	r3, r1, #16
 232 0030 2370     		strb	r3, [r4]
  59:pressure_transducer.c ****     
  60:pressure_transducer.c ****     pressure_t pressure = pressure_take_readings();
 233              		.loc 1 60 0
 234 0032 07F10C03 		add	r3, r7, #12
 235 0036 1846     		mov	r0, r3
 236 0038 FFF7FEFF 		bl	pressure_take_readings
  61:pressure_transducer.c ****     
  62:pressure_transducer.c ****     snprintf(test.reason,sizeof(test.reason),"Pressure=%.3f",
  63:pressure_transducer.c ****             pressure.pressure_voltage);
 237              		.loc 1 63 0
 238 003c 07F10C03 		add	r3, r7, #12
 239 0040 1B68     		ldr	r3, [r3]	@ float
  62:pressure_transducer.c ****             pressure.pressure_voltage);
 240              		.loc 1 62 0
 241 0042 1846     		mov	r0, r3
 242 0044 FFF7FEFF 		bl	__aeabi_f2d
 243 0048 0346     		mov	r3, r0
 244 004a 0C46     		mov	r4, r1
 245 004c 07F11402 		add	r2, r7, #20
 246 0050 02F18100 		add	r0, r2, #129
 247 0054 CDE90034 		strd	r3, [sp]
 248 0058 0E4A     		ldr	r2, .L9+4
 249 005a 4FF48071 		mov	r1, #256
 250 005e FFF7FEFF 		bl	snprintf
  64:pressure_transducer.c ****     
  65:pressure_transducer.c ****     test.status = 1;
 251              		.loc 1 65 0
 252 0062 07F11403 		add	r3, r7, #20
 253 0066 0122     		movs	r2, #1
 254 0068 83F88020 		strb	r2, [r3, #128]
  66:pressure_transducer.c ****         
  67:pressure_transducer.c ****     return test;
 255              		.loc 1 67 0
 256 006c 3B1D     		adds	r3, r7, #4
 257 006e 1A68     		ldr	r2, [r3]
 258 0070 07F11403 		add	r3, r7, #20
 259 0074 1046     		mov	r0, r2
 260 0076 1946     		mov	r1, r3
 261 0078 40F28113 		movw	r3, #385
 262 007c 1A46     		mov	r2, r3
 263 007e FFF7FEFF 		bl	memcpy
  68:pressure_transducer.c **** }
 264              		.loc 1 68 0
ARM GAS  C:\Users\hail\AppData\Local\Temp\ccmfpKlG.s 			page 7


 265 0082 3B1D     		adds	r3, r7, #4
 266 0084 1868     		ldr	r0, [r3]
 267 0086 07F5CC77 		add	r7, r7, #408
 268              		.cfi_def_cfa_offset 16
 269 008a BD46     		mov	sp, r7
 270              		.cfi_def_cfa_register 13
 271              		@ sp needed
 272 008c B0BD     		pop	{r4, r5, r7, pc}
 273              	.L10:
 274 008e 00BF     		.align	2
 275              	.L9:
 276 0090 00000000 		.word	.LC0
 277 0094 18000000 		.word	.LC1
 278              		.cfi_endproc
 279              	.LFE65:
 280              		.size	pressure_test, .-pressure_test
 281              		.text
 282              	.Letext0:
 283              		.file 2 "c:\\program files (x86)\\cypress\\psoc creator\\4.3\\psoc creator\\import\\gnu\\arm\\5.4.
 284              		.file 3 "c:\\program files (x86)\\cypress\\psoc creator\\4.3\\psoc creator\\import\\gnu\\arm\\5.4.
 285              		.file 4 "Generated_Source\\PSoC5/cytypes.h"
 286              		.file 5 "testing.h"
 287              		.file 6 "pressure_transducer.h"
 288              		.file 7 "modem.h"
 289              		.file 8 "data.h"
 290              		.file 9 "notoriOS.h"
 291              		.file 10 "Generated_Source\\PSoC5/core_cm3.h"