ARM GAS  C:\Users\rohan\AppData\Local\Temp\ccFlU6bY.s 			page 1


   1              		.syntax unified
   2              		.cpu cortex-m3
   3              		.fpu softvfp
   4              		.eabi_attribute 20, 1
   5              		.eabi_attribute 21, 1
   6              		.eabi_attribute 23, 3
   7              		.eabi_attribute 24, 1
   8              		.eabi_attribute 25, 1
   9              		.eabi_attribute 26, 1
  10              		.eabi_attribute 30, 6
  11              		.eabi_attribute 34, 1
  12              		.eabi_attribute 18, 4
  13              		.thumb
  14              		.syntax unified
  15              		.file	"sd_card.c"
  16              		.text
  17              	.Ltext0:
  18              		.cfi_sections	.debug_frame
  19              		.comm	buffer_overflow,1,1
  20              		.comm	dataPointsInStack,2,2
  21              		.comm	dataPointsInStackDesired,2,2
  22              		.comm	data,6600,4
  23              		.comm	modem_state,1,1
  24              		.comm	modem_start_time_stamp,4,4
  25              		.comm	modem_info,60,4
  26              		.comm	modem_stats,32,4
  27              		.comm	updatable_parameters,6,4
  28              		.comm	gps_data,16,4
  29              		.syntax unified
  30              		.global _printf_float
  31              		.thumb
  32              		.syntax unified
  33              		.comm	http_request,10000,4
  34              		.comm	http_body,10000,4
  35              		.comm	http_route,200,4
  36              		.comm	system_info,28,4
  37              		.comm	system_settings,104,4
  38              		.comm	alarmMeasure,6,4
  39              		.comm	timeToMeasure,1,1
  40              		.comm	alarmSync,6,4
  41              		.comm	timeToSync,1,1
  42              		.comm	timeToSycnRemoteParams,1,1
  43              		.comm	hey,1,1
  44              		.global	SD_dir
  45              		.bss
  46              		.align	2
  47              		.type	SD_dir, %object
  48              		.size	SD_dir, 10
  49              	SD_dir:
  50 0000 00000000 		.space	10
  50      00000000 
  50      0000
  51              		.global	SD_body
  52 000a 0000     		.align	2
  53              		.type	SD_body, %object
  54              		.size	SD_body, 3000
  55              	SD_body:
ARM GAS  C:\Users\rohan\AppData\Local\Temp\ccFlU6bY.s 			page 2


  56 000c 00000000 		.space	3000
  56      00000000 
  56      00000000 
  56      00000000 
  56      00000000 
  57              		.global	SD_filename
  58              		.data
  59              		.align	2
  60              		.type	SD_filename, %object
  61              		.size	SD_filename, 30
  62              	SD_filename:
  63 0000 46696C65 		.ascii	"Filename.txt\000"
  63      6E616D65 
  63      2E747874 
  63      00
  64 000d 00000000 		.space	17
  64      00000000 
  64      00000000 
  64      00000000 
  64      00
  65              		.global	SD_filemode
  66 001e 0000     		.align	2
  67              		.type	SD_filemode, %object
  68              		.size	SD_filemode, 5
  69              	SD_filemode:
  70 0020 612B00   		.ascii	"a+\000"
  71 0023 0000     		.space	2
  72              		.section	.text.SD_init,"ax",%progbits
  73              		.align	2
  74              		.global	SD_init
  75              		.thumb
  76              		.thumb_func
  77              		.type	SD_init, %function
  78              	SD_init:
  79              	.LFB64:
  80              		.file 1 "sd_card.c"
   1:sd_card.c     **** /**
   2:sd_card.c     ****  * @file sdcard.c
   3:sd_card.c     ****  * @brief  Write to an SD card.
   4:sd_card.c     ****  * @author Brandon Wong
   5:sd_card.c     ****  * @version 0.0.01
   6:sd_card.c     ****  * @date 2019-05-15
   7:sd_card.c     ****  */
   8:sd_card.c     **** 
   9:sd_card.c     **** #include "sd_card.h"
  10:sd_card.c     **** #include "notoriOS.h"
  11:sd_card.c     **** 
  12:sd_card.c     **** // Preallocate card
  13:sd_card.c     **** char    SD_dir[10]      = {'\0'};
  14:sd_card.c     **** char    SD_body[3000]   = {'\0'};
  15:sd_card.c     **** char    SD_filename[30] = "Filename.txt";
  16:sd_card.c     **** char    SD_filemode[5]  = "a+";
  17:sd_card.c     **** 
  18:sd_card.c     **** 
  19:sd_card.c     **** void SD_power_up();
  20:sd_card.c     **** void SD_power_down();
  21:sd_card.c     **** 
ARM GAS  C:\Users\rohan\AppData\Local\Temp\ccFlU6bY.s 			page 3


  22:sd_card.c     **** ///NOTE -- IF SD CARD is not plugged it, the board will draw more power.
  23:sd_card.c     **** 
  24:sd_card.c     **** 
  25:sd_card.c     **** /** SD_init()
  26:sd_card.c     **** * @brief Initialize the file system for the SD card
  27:sd_card.c     **** * @param Null
  28:sd_card.c     **** * @return void
  29:sd_card.c     **** */
  30:sd_card.c     **** void SD_init()
  31:sd_card.c     **** {
  81              		.loc 1 31 0
  82              		.cfi_startproc
  83              		@ args = 0, pretend = 0, frame = 0
  84              		@ frame_needed = 1, uses_anonymous_args = 0
  85              		@ link register save eliminated.
  86 0000 80B4     		push	{r7}
  87              		.cfi_def_cfa_offset 4
  88              		.cfi_offset 7, -4
  89 0002 00AF     		add	r7, sp, #0
  90              		.cfi_def_cfa_register 7
  32:sd_card.c     ****     /* Uncomment to enable support for long file names
  33:sd_card.c     ****      * Note: To use long file names (LFN) support on PSoC 5LP devices, you must call
  34:sd_card.c     ****      * FS_FAT_SupportLFN(). For PSoC 3 devices, this feature is enabled by default.
  35:sd_card.c     ****      */
  36:sd_card.c     ****     //FS_FAT_SupportLFN();    
  37:sd_card.c     **** }
  91              		.loc 1 37 0
  92 0004 00BF     		nop
  93 0006 BD46     		mov	sp, r7
  94              		.cfi_def_cfa_register 13
  95              		@ sp needed
  96 0008 80BC     		pop	{r7}
  97              		.cfi_restore 7
  98              		.cfi_def_cfa_offset 0
  99 000a 7047     		bx	lr
 100              		.cfi_endproc
 101              	.LFE64:
 102              		.size	SD_init, .-SD_init
 103              		.section	.rodata
 104              		.align	2
 105              	.LC0:
 106 0000 252E3873 		.ascii	"%.8s\000"
 106      00
 107              		.section	.text.SD_mkdir,"ax",%progbits
 108              		.align	2
 109              		.global	SD_mkdir
 110              		.thumb
 111              		.thumb_func
 112              		.type	SD_mkdir, %function
 113              	SD_mkdir:
 114              	.LFB65:
  38:sd_card.c     **** 
  39:sd_card.c     **** /**
  40:sd_card.c     ****  * @brief Make a directory on the SD card
  41:sd_card.c     ****  * @param dir_name is the name of the directory to create
  42:sd_card.c     ****  * @return 1u on success, 0u otherwise
  43:sd_card.c     ****  */
ARM GAS  C:\Users\rohan\AppData\Local\Temp\ccFlU6bY.s 			page 4


  44:sd_card.c     **** uint8 SD_mkdir(char* dir_name)
  45:sd_card.c     **** {
 115              		.loc 1 45 0
 116              		.cfi_startproc
 117              		@ args = 0, pretend = 0, frame = 16
 118              		@ frame_needed = 1, uses_anonymous_args = 0
 119 0000 80B5     		push	{r7, lr}
 120              		.cfi_def_cfa_offset 8
 121              		.cfi_offset 7, -8
 122              		.cfi_offset 14, -4
 123 0002 84B0     		sub	sp, sp, #16
 124              		.cfi_def_cfa_offset 24
 125 0004 00AF     		add	r7, sp, #0
 126              		.cfi_def_cfa_register 7
 127 0006 7860     		str	r0, [r7, #4]
  46:sd_card.c     ****     uint8 status = 9; // Initialize to a value not 0 or -1
 128              		.loc 1 46 0
 129 0008 0923     		movs	r3, #9
 130 000a FB73     		strb	r3, [r7, #15]
  47:sd_card.c     ****     
  48:sd_card.c     ****     SD_power_up(); // Wakeup the SD Card component
 131              		.loc 1 48 0
 132 000c FFF7FEFF 		bl	SD_power_up
  49:sd_card.c     ****     // The snprintf() function formats and stores a series of characters and values in the array bu
  50:sd_card.c     ****     snprintf(SD_dir,sizeof(SD_dir),"%.8s",dir_name); 
 133              		.loc 1 50 0
 134 0010 7B68     		ldr	r3, [r7, #4]
 135 0012 094A     		ldr	r2, .L4
 136 0014 0A21     		movs	r1, #10
 137 0016 0948     		ldr	r0, .L4+4
 138 0018 FFF7FEFF 		bl	snprintf
  51:sd_card.c     ****     
  52:sd_card.c     ****     // FS_MKDir() creates a directory using FS.h.
  53:sd_card.c     ****     // Typecasting (1+FS_MkDir(SD_dir)) into an uint8 datatype
  54:sd_card.c     ****     // This makes it 0 if it's a failture, 1 if it's successful
  55:sd_card.c     ****     status = (uint8) ( 1+FS_MkDir(SD_dir) );
 139              		.loc 1 55 0
 140 001c 0748     		ldr	r0, .L4+4
 141 001e FFF7FEFF 		bl	FS_MkDir
 142 0022 0346     		mov	r3, r0
 143 0024 DBB2     		uxtb	r3, r3
 144 0026 0133     		adds	r3, r3, #1
 145 0028 FB73     		strb	r3, [r7, #15]
  56:sd_card.c     ****     
  57:sd_card.c     ****     SD_power_down(); // Turn off the SD Card
 146              		.loc 1 57 0
 147 002a FFF7FEFF 		bl	SD_power_down
  58:sd_card.c     ****     
  59:sd_card.c     ****     return status;
 148              		.loc 1 59 0
 149 002e FB7B     		ldrb	r3, [r7, #15]	@ zero_extendqisi2
  60:sd_card.c     **** }
 150              		.loc 1 60 0
 151 0030 1846     		mov	r0, r3
 152 0032 1037     		adds	r7, r7, #16
 153              		.cfi_def_cfa_offset 8
 154 0034 BD46     		mov	sp, r7
ARM GAS  C:\Users\rohan\AppData\Local\Temp\ccFlU6bY.s 			page 5


 155              		.cfi_def_cfa_register 13
 156              		@ sp needed
 157 0036 80BD     		pop	{r7, pc}
 158              	.L5:
 159              		.align	2
 160              	.L4:
 161 0038 00000000 		.word	.LC0
 162 003c 00000000 		.word	SD_dir
 163              		.cfi_endproc
 164              	.LFE65:
 165              		.size	SD_mkdir, .-SD_mkdir
 166              		.section	.text.SD_rmfile,"ax",%progbits
 167              		.align	2
 168              		.global	SD_rmfile
 169              		.thumb
 170              		.thumb_func
 171              		.type	SD_rmfile, %function
 172              	SD_rmfile:
 173              	.LFB66:
  61:sd_card.c     **** 
  62:sd_card.c     **** /**
  63:sd_card.c     ****  * @brief Delete a file
  64:sd_card.c     ****  * @param dir_name is the name of the directory to create
  65:sd_card.c     ****  * @return 1u on success, 0u otherwise
  66:sd_card.c     ****  */
  67:sd_card.c     **** uint8 SD_rmfile(const char * fileName)
  68:sd_card.c     **** {
 174              		.loc 1 68 0
 175              		.cfi_startproc
 176              		@ args = 0, pretend = 0, frame = 16
 177              		@ frame_needed = 1, uses_anonymous_args = 0
 178 0000 80B5     		push	{r7, lr}
 179              		.cfi_def_cfa_offset 8
 180              		.cfi_offset 7, -8
 181              		.cfi_offset 14, -4
 182 0002 84B0     		sub	sp, sp, #16
 183              		.cfi_def_cfa_offset 24
 184 0004 00AF     		add	r7, sp, #0
 185              		.cfi_def_cfa_register 7
 186 0006 7860     		str	r0, [r7, #4]
  69:sd_card.c     ****     uint8 status = 9; // initialize to a value not 0 or -1
 187              		.loc 1 69 0
 188 0008 0923     		movs	r3, #9
 189 000a FB73     		strb	r3, [r7, #15]
  70:sd_card.c     **** 
  71:sd_card.c     ****     SD_power_up(); // Wakeup the SD Card component
 190              		.loc 1 71 0
 191 000c FFF7FEFF 		bl	SD_power_up
  72:sd_card.c     ****     
  73:sd_card.c     ****     // FS_Remove() removes a file using FS.h.
  74:sd_card.c     ****     // Typecasting (1+FS_Remove(fileName)) into an uint8 datatype
  75:sd_card.c     ****     // This makes it 0 if it's a failture, 1 if it's successful
  76:sd_card.c     ****     status = (uint8) ( 1+FS_Remove(fileName));
 192              		.loc 1 76 0
 193 0010 7868     		ldr	r0, [r7, #4]
 194 0012 FFF7FEFF 		bl	FS_Remove
 195 0016 0346     		mov	r3, r0
ARM GAS  C:\Users\rohan\AppData\Local\Temp\ccFlU6bY.s 			page 6


 196 0018 DBB2     		uxtb	r3, r3
 197 001a 0133     		adds	r3, r3, #1
 198 001c FB73     		strb	r3, [r7, #15]
  77:sd_card.c     ****     
  78:sd_card.c     ****     SD_power_down(); // Turn off the SD Card
 199              		.loc 1 78 0
 200 001e FFF7FEFF 		bl	SD_power_down
  79:sd_card.c     ****     
  80:sd_card.c     ****     return status;
 201              		.loc 1 80 0
 202 0022 FB7B     		ldrb	r3, [r7, #15]	@ zero_extendqisi2
  81:sd_card.c     **** }
 203              		.loc 1 81 0
 204 0024 1846     		mov	r0, r3
 205 0026 1037     		adds	r7, r7, #16
 206              		.cfi_def_cfa_offset 8
 207 0028 BD46     		mov	sp, r7
 208              		.cfi_def_cfa_register 13
 209              		@ sp needed
 210 002a 80BD     		pop	{r7, pc}
 211              		.cfi_endproc
 212              	.LFE66:
 213              		.size	SD_rmfile, .-SD_rmfile
 214              		.section	.text.SD_write,"ax",%progbits
 215              		.align	2
 216              		.global	SD_write
 217              		.thumb
 218              		.thumb_func
 219              		.type	SD_write, %function
 220              	SD_write:
 221              	.LFB67:
  82:sd_card.c     **** 
  83:sd_card.c     **** /**
  84:sd_card.c     ****  * @brief Write data to the SD card
  85:sd_card.c     ****  * @param fileName is the name of the file to write to
  86:sd_card.c     ****  * @param pMode is the write mode
  87:sd_card.c     ****  * @param pData is the data to be written
  88:sd_card.c     ****  * @return 1u on success, 0u otherwise
  89:sd_card.c     ****  */
  90:sd_card.c     **** uint8 SD_write(const char * fileName, const char * pMode, const void * pData)
  91:sd_card.c     **** {
 222              		.loc 1 91 0
 223              		.cfi_startproc
 224              		@ args = 0, pretend = 0, frame = 24
 225              		@ frame_needed = 1, uses_anonymous_args = 0
 226 0000 80B5     		push	{r7, lr}
 227              		.cfi_def_cfa_offset 8
 228              		.cfi_offset 7, -8
 229              		.cfi_offset 14, -4
 230 0002 86B0     		sub	sp, sp, #24
 231              		.cfi_def_cfa_offset 32
 232 0004 00AF     		add	r7, sp, #0
 233              		.cfi_def_cfa_register 7
 234 0006 F860     		str	r0, [r7, #12]
 235 0008 B960     		str	r1, [r7, #8]
 236 000a 7A60     		str	r2, [r7, #4]
  92:sd_card.c     ****     uint8 status = 9u; // Initialize to a value not 0 or 1
ARM GAS  C:\Users\rohan\AppData\Local\Temp\ccFlU6bY.s 			page 7


 237              		.loc 1 92 0
 238 000c 0923     		movs	r3, #9
 239 000e FB75     		strb	r3, [r7, #23]
  93:sd_card.c     ****     FS_FILE *pFile; // FS_FILE data structure defined in FS.h
  94:sd_card.c     **** 
  95:sd_card.c     ****     SD_power_up(); // Wakeup the SD Card component
 240              		.loc 1 95 0
 241 0010 FFF7FEFF 		bl	SD_power_up
  96:sd_card.c     ****     
  97:sd_card.c     ****     // FS_FOpen() opens an existing file or creates a new one.
  98:sd_card.c     ****     // fileName is the file to be opened or created. It's a 0-termianted string that cannot be NULL
  99:sd_card.c     ****     // pMode indicates how the file should be opened. It's a 0-terminated string that cannot be NUL
 100:sd_card.c     ****     pFile = FS_FOpen(fileName, pMode);
 242              		.loc 1 100 0
 243 0014 B968     		ldr	r1, [r7, #8]
 244 0016 F868     		ldr	r0, [r7, #12]
 245 0018 FFF7FEFF 		bl	FS_FOpen
 246 001c 3861     		str	r0, [r7, #16]
 101:sd_card.c     ****     
 102:sd_card.c     ****     // If the SD card doesn't open, try reinitializing the filesystem
 103:sd_card.c     ****     if (pFile == 0){
 247              		.loc 1 103 0
 248 001e 3B69     		ldr	r3, [r7, #16]
 249 0020 002B     		cmp	r3, #0
 250 0022 08D1     		bne	.L9
 104:sd_card.c     ****         FS_DeInit(); // FS_DeInit() frees allocated resources
 251              		.loc 1 104 0
 252 0024 FFF7FEFF 		bl	FS_DeInit
 105:sd_card.c     ****         FS_Init(); // FS_Init() starts the file system
 253              		.loc 1 105 0
 254 0028 FFF7FEFF 		bl	FS_Init
 106:sd_card.c     ****         pFile = FS_FOpen(fileName, pMode);
 255              		.loc 1 106 0
 256 002c B968     		ldr	r1, [r7, #8]
 257 002e F868     		ldr	r0, [r7, #12]
 258 0030 FFF7FEFF 		bl	FS_FOpen
 259 0034 3861     		str	r0, [r7, #16]
 260              	.L9:
 107:sd_card.c     ****     }
 108:sd_card.c     ****     
 109:sd_card.c     ****     // Note: We are using the "No Long File Name (LFN)" library,
 110:sd_card.c     ****     //  so names are limited to 8 characters and 3 bytes for extensions
 111:sd_card.c     ****     if (pFile != 0) {
 261              		.loc 1 111 0
 262 0036 3B69     		ldr	r3, [r7, #16]
 263 0038 002B     		cmp	r3, #0
 264 003a 10D0     		beq	.L10
 112:sd_card.c     ****         // FS_Write() writes data to file: pFile is handle to open file, pData is data to be writte
 113:sd_card.c     ****         FS_Write(pFile, pData, strlen(pData));
 265              		.loc 1 113 0
 266 003c 7868     		ldr	r0, [r7, #4]
 267 003e FFF7FEFF 		bl	strlen
 268 0042 0346     		mov	r3, r0
 269 0044 1A46     		mov	r2, r3
 270 0046 7968     		ldr	r1, [r7, #4]
 271 0048 3869     		ldr	r0, [r7, #16]
 272 004a FFF7FEFF 		bl	FS_Write
ARM GAS  C:\Users\rohan\AppData\Local\Temp\ccFlU6bY.s 			page 8


 114:sd_card.c     ****         
 115:sd_card.c     ****         // FS_FClose() closes an opened file using FS.h. It returns 1 if there's a failure, 0 if su
 116:sd_card.c     ****         // Typecasting (1+FS_FClose(pFile)) into an uint8 datatype
 117:sd_card.c     ****         // This makes it 0 if it's a failture, 1 if it's successful
 118:sd_card.c     ****         status = (uint8) ( -1*FS_FClose(pFile) )+1;
 273              		.loc 1 118 0
 274 004e 3869     		ldr	r0, [r7, #16]
 275 0050 FFF7FEFF 		bl	FS_FClose
 276 0054 0346     		mov	r3, r0
 277 0056 DBB2     		uxtb	r3, r3
 278 0058 C3F10103 		rsb	r3, r3, #1
 279 005c FB75     		strb	r3, [r7, #23]
 280              	.L10:
 119:sd_card.c     ****     }
 120:sd_card.c     ****     
 121:sd_card.c     ****     SD_power_down(); // Turn off the SD Card
 281              		.loc 1 121 0
 282 005e FFF7FEFF 		bl	SD_power_down
 122:sd_card.c     **** 
 123:sd_card.c     ****     
 124:sd_card.c     ****     return status;
 283              		.loc 1 124 0
 284 0062 FB7D     		ldrb	r3, [r7, #23]	@ zero_extendqisi2
 125:sd_card.c     **** }
 285              		.loc 1 125 0
 286 0064 1846     		mov	r0, r3
 287 0066 1837     		adds	r7, r7, #24
 288              		.cfi_def_cfa_offset 8
 289 0068 BD46     		mov	sp, r7
 290              		.cfi_def_cfa_register 13
 291              		@ sp needed
 292 006a 80BD     		pop	{r7, pc}
 293              		.cfi_endproc
 294              	.LFE67:
 295              		.size	SD_write, .-SD_write
 296              		.section	.rodata
 297 0005 000000   		.align	2
 298              	.LC1:
 299 0008 7200     		.ascii	"r\000"
 300              		.section	.text.SD_read,"ax",%progbits
 301              		.align	2
 302              		.global	SD_read
 303              		.thumb
 304              		.thumb_func
 305              		.type	SD_read, %function
 306              	SD_read:
 307              	.LFB68:
 126:sd_card.c     **** 
 127:sd_card.c     **** /**
 128:sd_card.c     ****  * @brief Write data to the SD card
 129:sd_card.c     ****  * @param fileName is the name of the file to write to
 130:sd_card.c     ****  * @param pMode is the write mode
 131:sd_card.c     ****  * @param pData is the data to be written
 132:sd_card.c     ****  * @return 1u on success, 0u otherwise
 133:sd_card.c     ****  */
 134:sd_card.c     **** uint8 SD_read(const char * fileName,  void * pData, unsigned long NumBytes)
 135:sd_card.c     **** {
ARM GAS  C:\Users\rohan\AppData\Local\Temp\ccFlU6bY.s 			page 9


 308              		.loc 1 135 0
 309              		.cfi_startproc
 310              		@ args = 0, pretend = 0, frame = 24
 311              		@ frame_needed = 1, uses_anonymous_args = 0
 312 0000 80B5     		push	{r7, lr}
 313              		.cfi_def_cfa_offset 8
 314              		.cfi_offset 7, -8
 315              		.cfi_offset 14, -4
 316 0002 86B0     		sub	sp, sp, #24
 317              		.cfi_def_cfa_offset 32
 318 0004 00AF     		add	r7, sp, #0
 319              		.cfi_def_cfa_register 7
 320 0006 F860     		str	r0, [r7, #12]
 321 0008 B960     		str	r1, [r7, #8]
 322 000a 7A60     		str	r2, [r7, #4]
 136:sd_card.c     ****     uint8 status = 9u; // initialize to a value not 0 or 1
 323              		.loc 1 136 0
 324 000c 0923     		movs	r3, #9
 325 000e FB75     		strb	r3, [r7, #23]
 137:sd_card.c     ****     FS_FILE *pFile; // FS_FILE data structure defined in FS.h
 138:sd_card.c     **** 
 139:sd_card.c     ****     SD_power_up(); // Powerup the SD Card component
 326              		.loc 1 139 0
 327 0010 FFF7FEFF 		bl	SD_power_up
 140:sd_card.c     ****     
 141:sd_card.c     ****     // FS_FOpen() opens an existing file or creates a new one.
 142:sd_card.c     ****     // fileName is the file to be opened or created. It's a 0-terminated string that cannot be NULL
 143:sd_card.c     ****     // "r" indicates how the file should be opened, in this case, for reading.
 144:sd_card.c     ****     pFile = FS_FOpen(fileName, "r");
 328              		.loc 1 144 0
 329 0014 1349     		ldr	r1, .L16
 330 0016 F868     		ldr	r0, [r7, #12]
 331 0018 FFF7FEFF 		bl	FS_FOpen
 332 001c 3861     		str	r0, [r7, #16]
 145:sd_card.c     ****     
 146:sd_card.c     ****     // If the SD card doesn't open, try reinitializing the filesystem
 147:sd_card.c     ****     if (pFile == 0){
 333              		.loc 1 147 0
 334 001e 3B69     		ldr	r3, [r7, #16]
 335 0020 002B     		cmp	r3, #0
 336 0022 08D1     		bne	.L13
 148:sd_card.c     ****         FS_DeInit();// FS_DeInit() frees allocated resources
 337              		.loc 1 148 0
 338 0024 FFF7FEFF 		bl	FS_DeInit
 149:sd_card.c     ****         FS_Init(); // FS_Init() starts the file system
 339              		.loc 1 149 0
 340 0028 FFF7FEFF 		bl	FS_Init
 150:sd_card.c     ****         pFile = FS_FOpen(fileName, "r");
 341              		.loc 1 150 0
 342 002c 0D49     		ldr	r1, .L16
 343 002e F868     		ldr	r0, [r7, #12]
 344 0030 FFF7FEFF 		bl	FS_FOpen
 345 0034 3861     		str	r0, [r7, #16]
 346              	.L13:
 151:sd_card.c     ****     }
 152:sd_card.c     ****     
 153:sd_card.c     ****     // Note: We are using the "No Long File Name (LFN)" library,
ARM GAS  C:\Users\rohan\AppData\Local\Temp\ccFlU6bY.s 			page 10


 154:sd_card.c     ****     //  so names are limited to 8 characters and 3 bytes for extensions
 155:sd_card.c     ****     if (pFile != 0) {
 347              		.loc 1 155 0
 348 0036 3B69     		ldr	r3, [r7, #16]
 349 0038 002B     		cmp	r3, #0
 350 003a 0CD0     		beq	.L14
 156:sd_card.c     ****         // FS_Read() reads data from a file: pFile is handle to an opened file, pData is the buffer
 157:sd_card.c     ****         FS_Read(pFile,pData,NumBytes);
 351              		.loc 1 157 0
 352 003c 7A68     		ldr	r2, [r7, #4]
 353 003e B968     		ldr	r1, [r7, #8]
 354 0040 3869     		ldr	r0, [r7, #16]
 355 0042 FFF7FEFF 		bl	FS_Read
 158:sd_card.c     ****         
 159:sd_card.c     ****         // FS_FClose() closes an opened file using FS.h. It returns 1 if there's a failure, 0 if su
 160:sd_card.c     ****         // Typecasting (1+FS_FClose(pFile)) into an uint8 datatype
 161:sd_card.c     ****         // This makes it 0 if it's a failture, 1 if it's successful
 162:sd_card.c     ****         status = (uint8) ( -1*FS_FClose(pFile) )+1;
 356              		.loc 1 162 0
 357 0046 3869     		ldr	r0, [r7, #16]
 358 0048 FFF7FEFF 		bl	FS_FClose
 359 004c 0346     		mov	r3, r0
 360 004e DBB2     		uxtb	r3, r3
 361 0050 C3F10103 		rsb	r3, r3, #1
 362 0054 FB75     		strb	r3, [r7, #23]
 363              	.L14:
 163:sd_card.c     ****     }
 164:sd_card.c     ****     
 165:sd_card.c     ****     SD_power_down(); // Power down the SD card
 364              		.loc 1 165 0
 365 0056 FFF7FEFF 		bl	SD_power_down
 166:sd_card.c     ****     
 167:sd_card.c     ****     return status;
 366              		.loc 1 167 0
 367 005a FB7D     		ldrb	r3, [r7, #23]	@ zero_extendqisi2
 168:sd_card.c     **** }
 368              		.loc 1 168 0
 369 005c 1846     		mov	r0, r3
 370 005e 1837     		adds	r7, r7, #24
 371              		.cfi_def_cfa_offset 8
 372 0060 BD46     		mov	sp, r7
 373              		.cfi_def_cfa_register 13
 374              		@ sp needed
 375 0062 80BD     		pop	{r7, pc}
 376              	.L17:
 377              		.align	2
 378              	.L16:
 379 0064 08000000 		.word	.LC1
 380              		.cfi_endproc
 381              	.LFE68:
 382              		.size	SD_read, .-SD_read
 383              		.section	.text.SD_power_up,"ax",%progbits
 384              		.align	2
 385              		.global	SD_power_up
 386              		.thumb
 387              		.thumb_func
 388              		.type	SD_power_up, %function
ARM GAS  C:\Users\rohan\AppData\Local\Temp\ccFlU6bY.s 			page 11


 389              	SD_power_up:
 390              	.LFB69:
 169:sd_card.c     **** 
 170:sd_card.c     **** // Power up SD Card
 171:sd_card.c     **** void SD_power_up(){
 391              		.loc 1 171 0
 392              		.cfi_startproc
 393              		@ args = 0, pretend = 0, frame = 0
 394              		@ frame_needed = 1, uses_anonymous_args = 0
 395 0000 80B5     		push	{r7, lr}
 396              		.cfi_def_cfa_offset 8
 397              		.cfi_offset 7, -8
 398              		.cfi_offset 14, -4
 399 0002 00AF     		add	r7, sp, #0
 400              		.cfi_def_cfa_register 7
 172:sd_card.c     **** 
 173:sd_card.c     ****     emFile_Wakeup(); // Prepare SPIM Components to wake up.
 401              		.loc 1 173 0
 402 0004 FFF7FEFF 		bl	emFile_Wakeup
 174:sd_card.c     ****     
 175:sd_card.c     ****     SD_Card_Power_Write(ON); // Turn on the SD Card (pulls it high).
 403              		.loc 1 175 0
 404 0008 0120     		movs	r0, #1
 405 000a FFF7FEFF 		bl	SD_Card_Power_Write
 176:sd_card.c     ****     FS_Init(); // FS_Init() starts the file system
 406              		.loc 1 176 0
 407 000e FFF7FEFF 		bl	FS_Init
 177:sd_card.c     **** }
 408              		.loc 1 177 0
 409 0012 00BF     		nop
 410 0014 80BD     		pop	{r7, pc}
 411              		.cfi_endproc
 412              	.LFE69:
 413              		.size	SD_power_up, .-SD_power_up
 414 0016 00BF     		.section	.text.SD_power_down,"ax",%progbits
 415              		.align	2
 416              		.global	SD_power_down
 417              		.thumb
 418              		.thumb_func
 419              		.type	SD_power_down, %function
 420              	SD_power_down:
 421              	.LFB70:
 178:sd_card.c     **** 
 179:sd_card.c     **** // Power down SD Card
 180:sd_card.c     **** void SD_power_down(){
 422              		.loc 1 180 0
 423              		.cfi_startproc
 424              		@ args = 0, pretend = 0, frame = 0
 425              		@ frame_needed = 1, uses_anonymous_args = 0
 426 0000 80B5     		push	{r7, lr}
 427              		.cfi_def_cfa_offset 8
 428              		.cfi_offset 7, -8
 429              		.cfi_offset 14, -4
 430 0002 00AF     		add	r7, sp, #0
 431              		.cfi_def_cfa_register 7
 181:sd_card.c     ****     
 182:sd_card.c     ****     SD_Card_Power_Write(OFF);  // Turn off the SD Card (pulls it low). 
ARM GAS  C:\Users\rohan\AppData\Local\Temp\ccFlU6bY.s 			page 12


 432              		.loc 1 182 0
 433 0004 0020     		movs	r0, #0
 434 0006 FFF7FEFF 		bl	SD_Card_Power_Write
 183:sd_card.c     ****     emFile_Sleep(); // emFIle_Sleep() prepare emFile to go to sleep.
 435              		.loc 1 183 0
 436 000a FFF7FEFF 		bl	emFile_Sleep
 184:sd_card.c     ****     FS_DeInit(); // FS_DeInit() frees allocated resources
 437              		.loc 1 184 0
 438 000e FFF7FEFF 		bl	FS_DeInit
 185:sd_card.c     ****     
 186:sd_card.c     ****     emFile_miso0_Write(OFF); // emFile_miso0_Write(): Assigns a new value to the digital port's dat
 439              		.loc 1 186 0
 440 0012 0020     		movs	r0, #0
 441 0014 FFF7FEFF 		bl	emFile_miso0_Write
 187:sd_card.c     ****     emFile_mosi0_Write(OFF); // emFile_mosi0_Write(): Assigns a new value to the digital port's dat
 442              		.loc 1 187 0
 443 0018 0020     		movs	r0, #0
 444 001a FFF7FEFF 		bl	emFile_mosi0_Write
 188:sd_card.c     ****     emFile_sclk0_Write(OFF); // emFile_sclk0_Write(): Assigns a new value to the digital port's dat
 445              		.loc 1 188 0
 446 001e 0020     		movs	r0, #0
 447 0020 FFF7FEFF 		bl	emFile_sclk0_Write
 189:sd_card.c     ****     emFile_SPI0_CS_Write(OFF); // emFile_SPIO_CS_Write(): Assigns a new value to the digital port's
 448              		.loc 1 189 0
 449 0024 0020     		movs	r0, #0
 450 0026 FFF7FEFF 		bl	emFile_SPI0_CS_Write
 190:sd_card.c     ****     // SD_Chip_Detect_Write(OFF);
 191:sd_card.c     **** }
 451              		.loc 1 191 0
 452 002a 00BF     		nop
 453 002c 80BD     		pop	{r7, pc}
 454              		.cfi_endproc
 455              	.LFE70:
 456              		.size	SD_power_down, .-SD_power_down
 457 002e 00BF     		.section	.rodata
 458 000a 0000     		.align	2
 459              	.LC2:
 460 000c 54455354 		.ascii	"TEST_SD_CARD\000"
 460      5F53445F 
 460      43415244 
 460      00
 461 0019 000000   		.align	2
 462              	.LC5:
 463 001c 54455354 		.ascii	"TEST_PASS\000"
 463      5F504153 
 463      5300
 464 0026 0000     		.align	2
 465              	.LC6:
 466 0028 7700     		.ascii	"w\000"
 467 002a 0000     		.align	2
 468              	.LC7:
 469 002c 53554343 		.ascii	"SUCCESS WRITE READ DELETE FILE\000"
 469      45535320 
 469      57524954 
 469      45205245 
 469      41442044 
 470 004b 00       		.align	2
ARM GAS  C:\Users\rohan\AppData\Local\Temp\ccFlU6bY.s 			page 13


 471              	.LC8:
 472 004c 4641494C 		.ascii	"FAILED TO WRITE READ DELETE FILE\000"
 472      45442054 
 472      4F205752 
 472      49544520 
 472      52454144 
 473 006d 000000   		.align	2
 474              	.LC3:
 475 0070 54455354 		.ascii	"TEST_FAIL\000"
 475      5F464149 
 475      4C00
 476 007a 0000     		.align	2
 477              	.LC4:
 478 007c 74657374 		.ascii	"test.txt\000"
 478      2E747874 
 478      00
 479              		.section	.text.SD_card_test,"ax",%progbits
 480              		.align	2
 481              		.global	SD_card_test
 482              		.thumb
 483              		.thumb_func
 484              		.type	SD_card_test, %function
 485              	SD_card_test:
 486              	.LFB71:
 192:sd_card.c     **** 
 193:sd_card.c     **** // Testing the SD Card - create a  file, write random number, read number from file, delete directo
 194:sd_card.c     **** test_t SD_card_test(){
 487              		.loc 1 194 0
 488              		.cfi_startproc
 489              		@ args = 0, pretend = 0, frame = 424
 490              		@ frame_needed = 1, uses_anonymous_args = 0
 491 0000 F0B5     		push	{r4, r5, r6, r7, lr}
 492              		.cfi_def_cfa_offset 20
 493              		.cfi_offset 4, -20
 494              		.cfi_offset 5, -16
 495              		.cfi_offset 6, -12
 496              		.cfi_offset 7, -8
 497              		.cfi_offset 14, -4
 498 0002 EBB0     		sub	sp, sp, #428
 499              		.cfi_def_cfa_offset 448
 500 0004 00AF     		add	r7, sp, #0
 501              		.cfi_def_cfa_register 7
 502 0006 3B1D     		adds	r3, r7, #4
 503 0008 1860     		str	r0, [r3]
 195:sd_card.c     ****     
 196:sd_card.c     ****     // test_t is a new data type we defined in test.h. We then use that data type to define a struc
 197:sd_card.c     ****     test_t test;
 198:sd_card.c     ****     snprintf(test.test_name,sizeof(test.test_name),"TEST_SD_CARD");
 504              		.loc 1 198 0
 505 000a 07F12403 		add	r3, r7, #36
 506 000e 3D4A     		ldr	r2, .L25
 507 0010 1C46     		mov	r4, r3
 508 0012 1346     		mov	r3, r2
 509 0014 0FCB     		ldmia	r3, {r0, r1, r2, r3}
 510 0016 07C4     		stmia	r4!, {r0, r1, r2}
 511 0018 2370     		strb	r3, [r4]
 199:sd_card.c     ****     test.status = 0;
ARM GAS  C:\Users\rohan\AppData\Local\Temp\ccFlU6bY.s 			page 14


 512              		.loc 1 199 0
 513 001a 07F12403 		add	r3, r7, #36
 514 001e 0022     		movs	r2, #0
 515 0020 83F88020 		strb	r2, [r3, #128]
 200:sd_card.c     ****     
 201:sd_card.c     ****     char data[] = "TEST_FAIL";
 516              		.loc 1 201 0
 517 0024 07F11803 		add	r3, r7, #24
 518 0028 374A     		ldr	r2, .L25+4
 519 002a 07CA     		ldmia	r2, {r0, r1, r2}
 520 002c 03C3     		stmia	r3!, {r0, r1}
 521 002e 1A80     		strh	r2, [r3]	@ movhi
 202:sd_card.c     ****     char fileName[] = "test.txt";
 522              		.loc 1 202 0
 523 0030 07F10C03 		add	r3, r7, #12
 524 0034 354A     		ldr	r2, .L25+8
 525 0036 07CA     		ldmia	r2, {r0, r1, r2}
 526 0038 03C3     		stmia	r3!, {r0, r1}
 527 003a 1A70     		strb	r2, [r3]
 203:sd_card.c     ****     
 204:sd_card.c     ****     SD_rmfile(fileName); // Remove file from SD Card
 528              		.loc 1 204 0
 529 003c 07F10C03 		add	r3, r7, #12
 530 0040 1846     		mov	r0, r3
 531 0042 FFF7FEFF 		bl	SD_rmfile
 205:sd_card.c     ****     SD_write(fileName,"w","TEST_PASS"); // Write data to SD Card
 532              		.loc 1 205 0
 533 0046 07F10C03 		add	r3, r7, #12
 534 004a 314A     		ldr	r2, .L25+12
 535 004c 3149     		ldr	r1, .L25+16
 536 004e 1846     		mov	r0, r3
 537 0050 FFF7FEFF 		bl	SD_write
 206:sd_card.c     ****     SD_read(fileName,data,sizeof(data)); // Read data from the SD card
 538              		.loc 1 206 0
 539 0054 07F11801 		add	r1, r7, #24
 540 0058 07F10C03 		add	r3, r7, #12
 541 005c 0A22     		movs	r2, #10
 542 005e 1846     		mov	r0, r3
 543 0060 FFF7FEFF 		bl	SD_read
 207:sd_card.c     ****     test.status = SD_rmfile(fileName);
 544              		.loc 1 207 0
 545 0064 07F10C03 		add	r3, r7, #12
 546 0068 1846     		mov	r0, r3
 547 006a FFF7FEFF 		bl	SD_rmfile
 548 006e 0346     		mov	r3, r0
 549 0070 1A46     		mov	r2, r3
 550 0072 07F12403 		add	r3, r7, #36
 551 0076 83F88020 		strb	r2, [r3, #128]
 208:sd_card.c     ****     
 209:sd_card.c     ****     if(test.status == 1){
 552              		.loc 1 209 0
 553 007a 07F12403 		add	r3, r7, #36
 554 007e 93F88030 		ldrb	r3, [r3, #128]	@ zero_extendqisi2
 555 0082 012B     		cmp	r3, #1
 556 0084 14D1     		bne	.L21
 210:sd_card.c     ****         snprintf(test.reason,sizeof(test.reason),"SUCCESS WRITE READ DELETE FILE");
 557              		.loc 1 210 0
ARM GAS  C:\Users\rohan\AppData\Local\Temp\ccFlU6bY.s 			page 15


 558 0086 07F12403 		add	r3, r7, #36
 559 008a 8133     		adds	r3, r3, #129
 560 008c 224A     		ldr	r2, .L25+20
 561 008e 1D46     		mov	r5, r3
 562 0090 1446     		mov	r4, r2
 563 0092 0FCC     		ldmia	r4!, {r0, r1, r2, r3}
 564 0094 2860     		str	r0, [r5]	@ unaligned
 565 0096 6960     		str	r1, [r5, #4]	@ unaligned
 566 0098 AA60     		str	r2, [r5, #8]	@ unaligned
 567 009a EB60     		str	r3, [r5, #12]	@ unaligned
 568 009c 07CC     		ldmia	r4!, {r0, r1, r2}
 569 009e 2861     		str	r0, [r5, #16]	@ unaligned
 570 00a0 6961     		str	r1, [r5, #20]	@ unaligned
 571 00a2 AA61     		str	r2, [r5, #24]	@ unaligned
 572 00a4 2388     		ldrh	r3, [r4]	@ unaligned
 573 00a6 A278     		ldrb	r2, [r4, #2]
 574 00a8 AB83     		strh	r3, [r5, #28]	@ unaligned
 575 00aa 1346     		mov	r3, r2
 576 00ac AB77     		strb	r3, [r5, #30]
 577 00ae 17E0     		b	.L22
 578              	.L21:
 211:sd_card.c     ****     }else{
 212:sd_card.c     ****        snprintf(test.reason,sizeof(test.reason),"FAILED TO WRITE READ DELETE FILE"); 
 579              		.loc 1 212 0
 580 00b0 07F12403 		add	r3, r7, #36
 581 00b4 8133     		adds	r3, r3, #129
 582 00b6 194A     		ldr	r2, .L25+24
 583 00b8 1446     		mov	r4, r2
 584 00ba 9E46     		mov	lr, r3
 585 00bc 04F1200C 		add	ip, r4, #32
 586              	.L23:
 587 00c0 7546     		mov	r5, lr
 588 00c2 2646     		mov	r6, r4
 589 00c4 0FCE     		ldmia	r6!, {r0, r1, r2, r3}
 590 00c6 2860     		str	r0, [r5]	@ unaligned
 591 00c8 6960     		str	r1, [r5, #4]	@ unaligned
 592 00ca AA60     		str	r2, [r5, #8]	@ unaligned
 593 00cc EB60     		str	r3, [r5, #12]	@ unaligned
 594 00ce 1034     		adds	r4, r4, #16
 595 00d0 0EF1100E 		add	lr, lr, #16
 596 00d4 6445     		cmp	r4, ip
 597 00d6 F3D1     		bne	.L23
 598 00d8 7346     		mov	r3, lr
 599 00da 2246     		mov	r2, r4
 600 00dc 1278     		ldrb	r2, [r2]
 601 00de 1A70     		strb	r2, [r3]
 602              	.L22:
 213:sd_card.c     ****     }
 214:sd_card.c     ****     
 215:sd_card.c     ****     return test;
 603              		.loc 1 215 0
 604 00e0 3B1D     		adds	r3, r7, #4
 605 00e2 1A68     		ldr	r2, [r3]
 606 00e4 07F12403 		add	r3, r7, #36
 607 00e8 1046     		mov	r0, r2
 608 00ea 1946     		mov	r1, r3
 609 00ec 40F28113 		movw	r3, #385
ARM GAS  C:\Users\rohan\AppData\Local\Temp\ccFlU6bY.s 			page 16


 610 00f0 1A46     		mov	r2, r3
 611 00f2 FFF7FEFF 		bl	memcpy
 216:sd_card.c     ****     
 217:sd_card.c     **** }
 612              		.loc 1 217 0
 613 00f6 3B1D     		adds	r3, r7, #4
 614 00f8 1868     		ldr	r0, [r3]
 615 00fa 07F5D677 		add	r7, r7, #428
 616              		.cfi_def_cfa_offset 20
 617 00fe BD46     		mov	sp, r7
 618              		.cfi_def_cfa_register 13
 619              		@ sp needed
 620 0100 F0BD     		pop	{r4, r5, r6, r7, pc}
 621              	.L26:
 622 0102 00BF     		.align	2
 623              	.L25:
 624 0104 0C000000 		.word	.LC2
 625 0108 70000000 		.word	.LC3
 626 010c 7C000000 		.word	.LC4
 627 0110 1C000000 		.word	.LC5
 628 0114 28000000 		.word	.LC6
 629 0118 2C000000 		.word	.LC7
 630 011c 4C000000 		.word	.LC8
 631              		.cfi_endproc
 632              	.LFE71:
 633              		.size	SD_card_test, .-SD_card_test
 634              		.text
 635              	.Letext0:
 636              		.file 2 "c:\\program files (x86)\\cypress\\psoc creator\\4.4\\psoc creator\\import\\gnu\\arm\\5.4.
 637              		.file 3 "c:\\program files (x86)\\cypress\\psoc creator\\4.4\\psoc creator\\import\\gnu\\arm\\5.4.
 638              		.file 4 "Generated_Source\\PSoC5/cytypes.h"
 639              		.file 5 "testing.h"
 640              		.file 6 "..\\emFile_V322c\\Code\\Include\\PSoC5/FS_Types.h"
 641              		.file 7 "data.h"
 642              		.file 8 "modem.h"
 643              		.file 9 "notoriOS.h"
 644              		.file 10 "Generated_Source\\PSoC5/core_cm3.h"