ARM GAS  C:\Users\klabu\AppData\Local\Temp\ccOZgKV6.s 			page 1


   1              		.syntax unified
   2              		.cpu cortex-m3
   3              		.fpu softvfp
   4              		.eabi_attribute 20, 1
   5              		.eabi_attribute 21, 1
   6              		.eabi_attribute 23, 3
   7              		.eabi_attribute 24, 1
   8              		.eabi_attribute 25, 1
   9              		.eabi_attribute 26, 1
  10              		.eabi_attribute 30, 6
  11              		.eabi_attribute 34, 1
  12              		.eabi_attribute 18, 4
  13              		.thumb
  14              		.syntax unified
  15              		.file	"SDI12.c"
  16              		.text
  17              	.Ltext0:
  18              		.cfi_sections	.debug_frame
  19              		.comm	buffer_overflow,1,1
  20              		.comm	dataPointsInStack,2,2
  21              		.comm	dataPointsInStackDesired,2,2
  22              		.comm	data,6600,4
  23              		.comm	modem_state,1,1
  24              		.comm	modem_start_time_stamp,4,4
  25              		.comm	modem_info,60,4
  26              		.comm	modem_stats,32,4
  27              		.comm	updatable_parameters,5,4
  28              		.syntax unified
  29              		.global _printf_float
  30              		.thumb
  31              		.syntax unified
  32              		.comm	sensors,156,4
  33              		.global	sontek_labels
  34              		.section	.rodata
  35              		.align	2
  36              	.LC0:
  37 0000 5100     		.ascii	"Q\000"
  38 0002 0000     		.align	2
  39              	.LC1:
  40 0004 73746167 		.ascii	"stage\000"
  40      6500
  41 000a 0000     		.align	2
  42              	.LC2:
  43 000c 765F6D65 		.ascii	"v_mean\000"
  43      616E00
  44 0013 00       		.align	2
  45              	.LC3:
  46 0014 746F7461 		.ascii	"total_vol\000"
  46      6C5F766F 
  46      6C00
  47 001e 0000     		.align	2
  48              	.LC4:
  49 0020 64657074 		.ascii	"depth\000"
  49      6800
  50 0026 0000     		.align	2
  51              	.LC5:
  52 0028 765F696E 		.ascii	"v_index\000"
ARM GAS  C:\Users\klabu\AppData\Local\Temp\ccOZgKV6.s 			page 2


  52      64657800 
  53              		.align	2
  54              	.LC6:
  55 0030 785F6172 		.ascii	"x_area\000"
  55      656100
  56 0037 00       		.align	2
  57              	.LC7:
  58 0038 5400     		.ascii	"T\000"
  59 003a 0000     		.align	2
  60              	.LC8:
  61 003c 73746174 		.ascii	"stat\000"
  61      00
  62 0041 000000   		.align	2
  63              	.LC9:
  64 0044 765F7800 		.ascii	"v_x\000"
  65              		.align	2
  66              	.LC10:
  67 0048 765F7A00 		.ascii	"v_z\000"
  68              		.align	2
  69              	.LC11:
  70 004c 765F785F 		.ascii	"v_x_left\000"
  70      6C656674 
  70      00
  71 0055 000000   		.align	2
  72              	.LC12:
  73 0058 765F785F 		.ascii	"v_x_right\000"
  73      72696768 
  73      7400
  74 0062 0000     		.align	2
  75              	.LC13:
  76 0064 765F6261 		.ascii	"v_bat\000"
  76      7400
  77 006a 0000     		.align	2
  78              	.LC14:
  79 006c 70697463 		.ascii	"pitch\000"
  79      6800
  80 0072 0000     		.align	2
  81              	.LC15:
  82 0074 726F6C6C 		.ascii	"roll\000"
  82      00
  83 0079 000000   		.align	2
  84              	.LC16:
  85 007c 7063745F 		.ascii	"pct_sub\000"
  85      73756200 
  86              		.align	2
  87              	.LC17:
  88 0084 69636500 		.ascii	"ice\000"
  89              		.align	2
  90              	.LC18:
  91 0088 72616E67 		.ascii	"range\000"
  91      6500
  92 008e 0000     		.align	2
  93              	.LC19:
  94 0090 64657074 		.ascii	"depth_adj\000"
  94      685F6164 
  94      6A00
  95 009a 0000     		.align	2
ARM GAS  C:\Users\klabu\AppData\Local\Temp\ccOZgKV6.s 			page 3


  96              	.LC20:
  97 009c 746F7461 		.ascii	"total_vol_pos\000"
  97      6C5F766F 
  97      6C5F706F 
  97      7300
  98 00aa 0000     		.align	2
  99              	.LC21:
 100 00ac 746F7461 		.ascii	"total_vol_neg\000"
 100      6C5F766F 
 100      6C5F6E65 
 100      6700
 101 00ba 0000     		.align	2
 102              	.LC22:
 103 00bc 656E645F 		.ascii	"end_cell\000"
 103      63656C6C 
 103      00
 104 00c5 000000   		.align	2
 105              	.LC23:
 106 00c8 736E7231 		.ascii	"snr1\000"
 106      00
 107 00cd 000000   		.align	2
 108              	.LC24:
 109 00d0 736E7232 		.ascii	"snr2\000"
 109      00
 110 00d5 000000   		.align	2
 111              	.LC25:
 112 00d8 736E7233 		.ascii	"snr3\000"
 112      00
 113 00dd 000000   		.align	2
 114              	.LC26:
 115 00e0 736E7234 		.ascii	"snr4\000"
 115      00
 116              		.data
 117              		.align	2
 118              		.type	sontek_labels, %object
 119              		.size	sontek_labels, 108
 120              	sontek_labels:
 121 0000 00000000 		.word	.LC0
 122 0004 04000000 		.word	.LC1
 123 0008 0C000000 		.word	.LC2
 124 000c 14000000 		.word	.LC3
 125 0010 20000000 		.word	.LC4
 126 0014 28000000 		.word	.LC5
 127 0018 30000000 		.word	.LC6
 128 001c 38000000 		.word	.LC7
 129 0020 3C000000 		.word	.LC8
 130 0024 44000000 		.word	.LC9
 131 0028 48000000 		.word	.LC10
 132 002c 4C000000 		.word	.LC11
 133 0030 58000000 		.word	.LC12
 134 0034 64000000 		.word	.LC13
 135 0038 6C000000 		.word	.LC14
 136 003c 74000000 		.word	.LC15
 137 0040 7C000000 		.word	.LC16
 138 0044 84000000 		.word	.LC17
 139 0048 88000000 		.word	.LC18
 140 004c 90000000 		.word	.LC19
ARM GAS  C:\Users\klabu\AppData\Local\Temp\ccOZgKV6.s 			page 4


 141 0050 9C000000 		.word	.LC20
 142 0054 AC000000 		.word	.LC21
 143 0058 BC000000 		.word	.LC22
 144 005c C8000000 		.word	.LC23
 145 0060 D0000000 		.word	.LC24
 146 0064 D8000000 		.word	.LC25
 147 0068 E0000000 		.word	.LC26
 148              		.global	sontek_values
 149              		.align	2
 150              		.type	sontek_values, %object
 151              		.size	sontek_values, 108
 152              	sontek_values:
 153 006c 000080BF 		.word	-1082130432
 154 0070 000000C0 		.word	-1073741824
 155 0074 000040C0 		.word	-1069547520
 156 0078 000080C0 		.word	-1065353216
 157 007c 0000A0C0 		.word	-1063256064
 158 0080 0000C0C0 		.word	-1061158912
 159 0084 0000E0C0 		.word	-1059061760
 160 0088 000000C1 		.word	-1056964608
 161 008c 000010C1 		.word	-1055916032
 162 0090 000020C1 		.word	-1054867456
 163 0094 000030C1 		.word	-1053818880
 164 0098 000040C1 		.word	-1052770304
 165 009c 000050C1 		.word	-1051721728
 166 00a0 000060C1 		.word	-1050673152
 167 00a4 000070C1 		.word	-1049624576
 168 00a8 000080C1 		.word	-1048576000
 169 00ac 000088C1 		.word	-1048051712
 170 00b0 000090C1 		.word	-1047527424
 171 00b4 000098C1 		.word	-1047003136
 172 00b8 0000A0C1 		.word	-1046478848
 173 00bc 0000A8C1 		.word	-1045954560
 174 00c0 0000B0C1 		.word	-1045430272
 175 00c4 0000B8C1 		.word	-1044905984
 176 00c8 0000C0C1 		.word	-1044381696
 177 00cc 0000C8C1 		.word	-1043857408
 178 00d0 0000D0C1 		.word	-1043333120
 179 00d4 0000D8C1 		.word	-1042808832
 180              		.global	sontek
 181              		.section	.rodata
 182 00e5 000000   		.align	2
 183              	.LC27:
 184 00e8 3000     		.ascii	"0\000"
 185              		.data
 186              		.align	2
 187              		.type	sontek, %object
 188              		.size	sontek, 52
 189              	sontek:
 190 00d8 E8000000 		.word	.LC27
 191 00dc 00000000 		.word	sontek_labels
 192 00e0 00000000 		.word	sontek_values
 193 00e4 1B       		.byte	27
 194 00e5 00000000 		.space	39
 194      00000000 
 194      00000000 
 194      00000000 
ARM GAS  C:\Users\klabu\AppData\Local\Temp\ccOZgKV6.s 			page 5


 194      00000000 
 195              		.global	labels
 196              		.section	.rodata
 197 00ea 0000     		.align	2
 198              	.LC28:
 199 00ec 736F6C69 		.ascii	"solinst_T\000"
 199      6E73745F 
 199      5400
 200 00f6 0000     		.align	2
 201              	.LC29:
 202 00f8 736F6C69 		.ascii	"solinst_P\000"
 202      6E73745F 
 202      5000
 203              		.data
 204              		.align	2
 205              		.type	labels, %object
 206              		.size	labels, 8
 207              	labels:
 208 010c EC000000 		.word	.LC28
 209 0110 F8000000 		.word	.LC29
 210              		.global	values
 211              		.align	2
 212              		.type	values, %object
 213              		.size	values, 8
 214              	values:
 215 0114 0000C6C2 		.word	-1027211264
 216 0118 0000C4C2 		.word	-1027342336
 217              		.global	solinst
 218              		.section	.rodata
 219 0102 0000     		.align	2
 220              	.LC30:
 221 0104 3100     		.ascii	"1\000"
 222              		.data
 223              		.align	2
 224              		.type	solinst, %object
 225              		.size	solinst, 52
 226              	solinst:
 227 011c 04010000 		.word	.LC30
 228 0120 00000000 		.word	labels
 229 0124 00000000 		.word	values
 230 0128 02       		.byte	2
 231 0129 00000000 		.space	39
 231      00000000 
 231      00000000 
 231      00000000 
 231      00000000 
 232              		.global	GS3_labels
 233              		.section	.rodata
 234 0106 0000     		.align	2
 235              	.LC31:
 236 0108 4753335F 		.ascii	"GS3_1\000"
 236      3100
 237 010e 0000     		.align	2
 238              	.LC32:
 239 0110 4753335F 		.ascii	"GS3_2\000"
 239      3200
 240 0116 0000     		.align	2
ARM GAS  C:\Users\klabu\AppData\Local\Temp\ccOZgKV6.s 			page 6


 241              	.LC33:
 242 0118 4753335F 		.ascii	"GS3_3\000"
 242      3300
 243              		.data
 244              		.align	2
 245              		.type	GS3_labels, %object
 246              		.size	GS3_labels, 12
 247              	GS3_labels:
 248 0150 08010000 		.word	.LC31
 249 0154 10010000 		.word	.LC32
 250 0158 18010000 		.word	.LC33
 251              		.global	GS3_values
 252              		.align	2
 253              		.type	GS3_values, %object
 254              		.size	GS3_values, 12
 255              	GS3_values:
 256 015c 0000C2C2 		.word	-1027473408
 257 0160 0000BEC2 		.word	-1027735552
 258 0164 CDCCBDC2 		.word	-1027748659
 259              		.global	GS3
 260              		.section	.rodata
 261 011e 0000     		.align	2
 262              	.LC34:
 263 0120 3200     		.ascii	"2\000"
 264              		.data
 265              		.align	2
 266              		.type	GS3, %object
 267              		.size	GS3, 52
 268              	GS3:
 269 0168 20010000 		.word	.LC34
 270 016c 00000000 		.word	GS3_labels
 271 0170 00000000 		.word	GS3_values
 272 0174 03       		.byte	3
 273 0175 00000000 		.space	39
 273      00000000 
 273      00000000 
 273      00000000 
 273      00000000 
 274              		.bss
 275              		.align	2
 276              	SDI12_uart_buf:
 277 0000 00000000 		.space	257
 277      00000000 
 277      00000000 
 277      00000000 
 277      00000000 
 278              	SDI12_buf_idx:
 279 0101 00       		.space	1
 280              		.global	i
 281              		.type	i, %object
 282              		.size	i, 1
 283              	i:
 284 0102 00       		.space	1
 285              		.global	ms_delay
 286 0103 00       		.align	2
 287              		.type	ms_delay, %object
 288              		.size	ms_delay, 4
ARM GAS  C:\Users\klabu\AppData\Local\Temp\ccOZgKV6.s 			page 7


 289              	ms_delay:
 290 0104 00000000 		.space	4
 291              		.global	command
 292              		.align	2
 293              		.type	command, %object
 294              		.size	command, 100
 295              	command:
 296 0108 00000000 		.space	100
 296      00000000 
 296      00000000 
 296      00000000 
 296      00000000 
 297              		.global	value_str
 298              		.align	2
 299              		.type	value_str, %object
 300              		.size	value_str, 100
 301              	value_str:
 302 016c 00000000 		.space	100
 302      00000000 
 302      00000000 
 302      00000000 
 302      00000000 
 303              		.global	delay_str
 304              		.align	2
 305              		.type	delay_str, %object
 306              		.size	delay_str, 10
 307              	delay_str:
 308 01d0 00000000 		.space	10
 308      00000000 
 308      0000
 309              		.comm	ptr_end,4,4
 310              		.comm	sign,4,4
 311              		.section	.text.SDI12_start,"ax",%progbits
 312              		.align	2
 313              		.global	SDI12_start
 314              		.thumb
 315              		.thumb_func
 316              		.type	SDI12_start, %function
 317              	SDI12_start:
 318              	.LFB64:
 319              		.file 1 "SDI12.c"
   1:SDI12.c       **** /**
   2:SDI12.c       ****  * @file SDI12.c
   3:SDI12.c       ****  * @brief Implements functions for SDI12 sensors.
   4:SDI12.c       ****  * @author Brandon Wong
   5:SDI12.c       ****  * @version TODO
   6:SDI12.c       ****  * @date 2017-10-28
   7:SDI12.c       ****  */
   8:SDI12.c       **** 
   9:SDI12.c       **** #include "SDI12.h"
  10:SDI12.c       **** #include "debug.h"
  11:SDI12.c       **** //#include "misc.h"   ----- probably don't need anymore
  12:SDI12.c       **** 
  13:SDI12.c       **** //*========== #BEGIN Define SDI12 sensors ==========//
  14:SDI12.c       **** //----------   SDI12 Array   ----------//
  15:SDI12.c       **** #define N_SDI12_SENSORS     3           // Total number of sensors defined
  16:SDI12.c       **** SDI12_sensor sensors[N_SDI12_SENSORS];  // GOTO zip_SDI12()
ARM GAS  C:\Users\klabu\AppData\Local\Temp\ccOZgKV6.s 			page 8


  17:SDI12.c       **** 
  18:SDI12.c       **** //----------  (1/3) Sontek  ----------//
  19:SDI12.c       **** char* sontek_labels[] = {"Q","stage","v_mean","total_vol","depth","v_index","x_area","T","stat","v_
  20:SDI12.c       **** float sontek_values[] = {-1.0, -2.0, -3.0, -4.0, -5.0, -6.0, -7.0, -8.0, -9.0, -10.0, -11.0, -12.0,
  21:SDI12.c       **** SDI12_sensor sontek = {
  22:SDI12.c       ****     .nvars = 27,
  23:SDI12.c       ****     .address = "0",
  24:SDI12.c       ****     .labels = sontek_labels,
  25:SDI12.c       ****     .values = sontek_values
  26:SDI12.c       **** };
  27:SDI12.c       **** 
  28:SDI12.c       **** //----------  (2/3) Solinst  ----------//
  29:SDI12.c       **** char* labels[] = {"solinst_T","solinst_P"};
  30:SDI12.c       **** float values[] = {-99.0, -98.0};
  31:SDI12.c       **** SDI12_sensor solinst = { 
  32:SDI12.c       ****     .nvars   = 2,
  33:SDI12.c       ****     .address = "1",
  34:SDI12.c       ****     .labels  = labels,
  35:SDI12.c       ****     .values  = values
  36:SDI12.c       ****     // additional metadata should initialize to 0 or '\0' //
  37:SDI12.c       **** }; 
  38:SDI12.c       **** 
  39:SDI12.c       **** //----------  (3/3) Decagon  ----------//
  40:SDI12.c       **** char* GS3_labels[] = {"GS3_1","GS3_2","GS3_3"};
  41:SDI12.c       **** float GS3_values[] = {-97.0, -95.0, -94.9};
  42:SDI12.c       **** SDI12_sensor GS3 = {
  43:SDI12.c       ****     .nvars   = 3,
  44:SDI12.c       ****     .address = "2",
  45:SDI12.c       ****     .labels  = GS3_labels,
  46:SDI12.c       ****     .values  = GS3_values        
  47:SDI12.c       ****     // additional metadata should initialize to 0 or '\0' //
  48:SDI12.c       **** };  
  49:SDI12.c       **** // ========== #END   Define SDI12 sensors ==========//*/
  50:SDI12.c       **** 
  51:SDI12.c       **** // The buffer and index are dependent on eachother. This buffer is implemented
  52:SDI12.c       **** // as a circular buffer to avoid overflow.
  53:SDI12.c       **** static char SDI12_uart_buf[257] = {'\0'};
  54:SDI12.c       **** static uint8_t SDI12_buf_idx = 0u;
  55:SDI12.c       **** 
  56:SDI12.c       **** // unsigned ints for taking measurements
  57:SDI12.c       **** uint8         i = 0u; // for iterating through sensor measurements
  58:SDI12.c       **** uint32 ms_delay = 0u; // for delaying the code while measurements are being taken
  59:SDI12.c       **** 
  60:SDI12.c       **** // string for constructing the command sent to the SDI12 sensor
  61:SDI12.c       **** char command[100] = {'\0'};
  62:SDI12.c       **** 
  63:SDI12.c       **** // string and pointer to store and parse SDI12 measurement results
  64:SDI12.c       **** char value_str[100] = {'\0'}, delay_str[10] = {'\0'}, *ptr_end, *sign; 
  65:SDI12.c       **** 
  66:SDI12.c       **** 
  67:SDI12.c       **** void SDI12_start(){
 320              		.loc 1 67 0
 321              		.cfi_startproc
 322              		@ args = 0, pretend = 0, frame = 0
 323              		@ frame_needed = 1, uses_anonymous_args = 0
 324 0000 80B5     		push	{r7, lr}
 325              		.cfi_def_cfa_offset 8
ARM GAS  C:\Users\klabu\AppData\Local\Temp\ccOZgKV6.s 			page 9


 326              		.cfi_offset 7, -8
 327              		.cfi_offset 14, -4
 328 0002 00AF     		add	r7, sp, #0
 329              		.cfi_def_cfa_register 7
  68:SDI12.c       ****     SDI12_UART_Start();
 330              		.loc 1 68 0
 331 0004 FFF7FEFF 		bl	SDI12_UART_Start
  69:SDI12.c       ****     isr_SDI12_StartEx(isr_SDI12_data); 
 332              		.loc 1 69 0
 333 0008 0248     		ldr	r0, .L2
 334 000a FFF7FEFF 		bl	isr_SDI12_StartEx
  70:SDI12.c       **** }
 335              		.loc 1 70 0
 336 000e 00BF     		nop
 337 0010 80BD     		pop	{r7, pc}
 338              	.L3:
 339 0012 00BF     		.align	2
 340              	.L2:
 341 0014 00000000 		.word	isr_SDI12_data
 342              		.cfi_endproc
 343              	.LFE64:
 344              		.size	SDI12_start, .-SDI12_start
 345              		.section	.text.SDI12_stop,"ax",%progbits
 346              		.align	2
 347              		.global	SDI12_stop
 348              		.thumb
 349              		.thumb_func
 350              		.type	SDI12_stop, %function
 351              	SDI12_stop:
 352              	.LFB65:
  71:SDI12.c       **** 
  72:SDI12.c       **** void SDI12_stop(){
 353              		.loc 1 72 0
 354              		.cfi_startproc
 355              		@ args = 0, pretend = 0, frame = 0
 356              		@ frame_needed = 1, uses_anonymous_args = 0
 357 0000 80B5     		push	{r7, lr}
 358              		.cfi_def_cfa_offset 8
 359              		.cfi_offset 7, -8
 360              		.cfi_offset 14, -4
 361 0002 00AF     		add	r7, sp, #0
 362              		.cfi_def_cfa_register 7
  73:SDI12.c       ****     isr_SDI12_Stop(); 
 363              		.loc 1 73 0
 364 0004 FFF7FEFF 		bl	isr_SDI12_Stop
  74:SDI12.c       ****     SDI12_UART_Stop();
 365              		.loc 1 74 0
 366 0008 FFF7FEFF 		bl	SDI12_UART_Stop
  75:SDI12.c       **** }
 367              		.loc 1 75 0
 368 000c 00BF     		nop
 369 000e 80BD     		pop	{r7, pc}
 370              		.cfi_endproc
 371              	.LFE65:
 372              		.size	SDI12_stop, .-SDI12_stop
 373              		.section	.text.clear_str,"ax",%progbits
 374              		.align	2
ARM GAS  C:\Users\klabu\AppData\Local\Temp\ccOZgKV6.s 			page 10


 375              		.global	clear_str
 376              		.thumb
 377              		.thumb_func
 378              		.type	clear_str, %function
 379              	clear_str:
 380              	.LFB66:
  76:SDI12.c       **** 
  77:SDI12.c       **** uint8_t clear_str(char *str) {
 381              		.loc 1 77 0
 382              		.cfi_startproc
 383              		@ args = 0, pretend = 0, frame = 8
 384              		@ frame_needed = 1, uses_anonymous_args = 0
 385 0000 80B5     		push	{r7, lr}
 386              		.cfi_def_cfa_offset 8
 387              		.cfi_offset 7, -8
 388              		.cfi_offset 14, -4
 389 0002 82B0     		sub	sp, sp, #8
 390              		.cfi_def_cfa_offset 16
 391 0004 00AF     		add	r7, sp, #0
 392              		.cfi_def_cfa_register 7
 393 0006 7860     		str	r0, [r7, #4]
  78:SDI12.c       ****     memset(str, '\0', strlen(str));
 394              		.loc 1 78 0
 395 0008 7868     		ldr	r0, [r7, #4]
 396 000a FFF7FEFF 		bl	strlen
 397 000e 0346     		mov	r3, r0
 398 0010 1A46     		mov	r2, r3
 399 0012 0021     		movs	r1, #0
 400 0014 7868     		ldr	r0, [r7, #4]
 401 0016 FFF7FEFF 		bl	memset
  79:SDI12.c       ****     return 1u;
 402              		.loc 1 79 0
 403 001a 0123     		movs	r3, #1
  80:SDI12.c       **** }
 404              		.loc 1 80 0
 405 001c 1846     		mov	r0, r3
 406 001e 0837     		adds	r7, r7, #8
 407              		.cfi_def_cfa_offset 8
 408 0020 BD46     		mov	sp, r7
 409              		.cfi_def_cfa_register 13
 410              		@ sp needed
 411 0022 80BD     		pop	{r7, pc}
 412              		.cfi_endproc
 413              	.LFE66:
 414              		.size	clear_str, .-clear_str
 415              		.section	.text.SDI12_uart_clear_string,"ax",%progbits
 416              		.align	2
 417              		.global	SDI12_uart_clear_string
 418              		.thumb
 419              		.thumb_func
 420              		.type	SDI12_uart_clear_string, %function
 421              	SDI12_uart_clear_string:
 422              	.LFB67:
  81:SDI12.c       **** 
  82:SDI12.c       **** 
  83:SDI12.c       ****                 
  84:SDI12.c       ****                 
ARM GAS  C:\Users\klabu\AppData\Local\Temp\ccOZgKV6.s 			page 11


  85:SDI12.c       **** /**
  86:SDI12.c       ****  * @brief 
  87:SDI12.c       ****  */
  88:SDI12.c       **** void SDI12_uart_clear_string() {
 423              		.loc 1 88 0
 424              		.cfi_startproc
 425              		@ args = 0, pretend = 0, frame = 0
 426              		@ frame_needed = 1, uses_anonymous_args = 0
 427 0000 80B5     		push	{r7, lr}
 428              		.cfi_def_cfa_offset 8
 429              		.cfi_offset 7, -8
 430              		.cfi_offset 14, -4
 431 0002 00AF     		add	r7, sp, #0
 432              		.cfi_def_cfa_register 7
  89:SDI12.c       ****     SDI12_UART_ClearRxBuffer();
 433              		.loc 1 89 0
 434 0004 FFF7FEFF 		bl	SDI12_UART_ClearRxBuffer
  90:SDI12.c       ****     memset(SDI12_uart_buf, '\0', sizeof(SDI12_uart_buf));
 435              		.loc 1 90 0
 436 0008 40F20112 		movw	r2, #257
 437 000c 0021     		movs	r1, #0
 438 000e 0448     		ldr	r0, .L8
 439 0010 FFF7FEFF 		bl	memset
  91:SDI12.c       ****     SDI12_buf_idx = 0u;
 440              		.loc 1 91 0
 441 0014 034B     		ldr	r3, .L8+4
 442 0016 0022     		movs	r2, #0
 443 0018 1A70     		strb	r2, [r3]
  92:SDI12.c       **** }
 444              		.loc 1 92 0
 445 001a 00BF     		nop
 446 001c 80BD     		pop	{r7, pc}
 447              	.L9:
 448 001e 00BF     		.align	2
 449              	.L8:
 450 0020 00000000 		.word	SDI12_uart_buf
 451 0024 01010000 		.word	SDI12_buf_idx
 452              		.cfi_endproc
 453              	.LFE67:
 454              		.size	SDI12_uart_clear_string, .-SDI12_uart_clear_string
 455              		.section	.text.sensors_uart_get_string,"ax",%progbits
 456              		.align	2
 457              		.global	sensors_uart_get_string
 458              		.thumb
 459              		.thumb_func
 460              		.type	sensors_uart_get_string, %function
 461              	sensors_uart_get_string:
 462              	.LFB68:
  93:SDI12.c       **** 
  94:SDI12.c       **** char* sensors_uart_get_string() {
 463              		.loc 1 94 0
 464              		.cfi_startproc
 465              		@ args = 0, pretend = 0, frame = 0
 466              		@ frame_needed = 1, uses_anonymous_args = 0
 467              		@ link register save eliminated.
 468 0000 80B4     		push	{r7}
 469              		.cfi_def_cfa_offset 4
ARM GAS  C:\Users\klabu\AppData\Local\Temp\ccOZgKV6.s 			page 12


 470              		.cfi_offset 7, -4
 471 0002 00AF     		add	r7, sp, #0
 472              		.cfi_def_cfa_register 7
  95:SDI12.c       ****     return SDI12_uart_buf; 
 473              		.loc 1 95 0
 474 0004 024B     		ldr	r3, .L12
  96:SDI12.c       **** }
 475              		.loc 1 96 0
 476 0006 1846     		mov	r0, r3
 477 0008 BD46     		mov	sp, r7
 478              		.cfi_def_cfa_register 13
 479              		@ sp needed
 480 000a 80BC     		pop	{r7}
 481              		.cfi_restore 7
 482              		.cfi_def_cfa_offset 0
 483 000c 7047     		bx	lr
 484              	.L13:
 485 000e 00BF     		.align	2
 486              	.L12:
 487 0010 00000000 		.word	SDI12_uart_buf
 488              		.cfi_endproc
 489              	.LFE68:
 490              		.size	sensors_uart_get_string, .-sensors_uart_get_string
 491              		.section	.text.SDI12_send_command,"ax",%progbits
 492              		.align	2
 493              		.global	SDI12_send_command
 494              		.thumb
 495              		.thumb_func
 496              		.type	SDI12_send_command, %function
 497              	SDI12_send_command:
 498              	.LFB69:
  97:SDI12.c       **** 
  98:SDI12.c       **** 
  99:SDI12.c       **** /**
 100:SDI12.c       ****  * @brief Send an SDI12-formatted command. A command always starts with
 101:SDI12.c       ****  *        the address of the sensor, followed by the command, and is terminated by 
 102:SDI12.c       ****  *        and exclamation point: <address><command>!
 103:SDI12.c       ****  * 
 104:SDI12.c       ****  * @param command String of the command to send
 105:SDI12.c       ****  *
 106:SDI12.c       ****  */
 107:SDI12.c       **** void SDI12_send_command(char command[]) {
 499              		.loc 1 107 0
 500              		.cfi_startproc
 501              		@ args = 0, pretend = 0, frame = 8
 502              		@ frame_needed = 1, uses_anonymous_args = 0
 503 0000 80B5     		push	{r7, lr}
 504              		.cfi_def_cfa_offset 8
 505              		.cfi_offset 7, -8
 506              		.cfi_offset 14, -4
 507 0002 82B0     		sub	sp, sp, #8
 508              		.cfi_def_cfa_offset 16
 509 0004 00AF     		add	r7, sp, #0
 510              		.cfi_def_cfa_register 7
 511 0006 7860     		str	r0, [r7, #4]
 108:SDI12.c       ****     // Wake up the sensors
 109:SDI12.c       ****     // Pull the Data pin high for 12 milliseconds
ARM GAS  C:\Users\klabu\AppData\Local\Temp\ccOZgKV6.s 			page 13


 110:SDI12.c       ****     SDI12_control_reg_Write(1u);
 512              		.loc 1 110 0
 513 0008 0120     		movs	r0, #1
 514 000a FFF7FEFF 		bl	SDI12_control_reg_Write
 111:SDI12.c       ****     CyDelayUs(12000u);  // 12 milliseconds = 12 x 10^3 microseconds
 515              		.loc 1 111 0
 516 000e 42F6E060 		movw	r0, #12000
 517 0012 FFF7FEFF 		bl	CyDelayUs
 112:SDI12.c       **** 
 113:SDI12.c       ****     // Pull the Data pin low for 8.4 milliseconds
 114:SDI12.c       ****     SDI12_control_reg_Write(0u);
 518              		.loc 1 114 0
 519 0016 0020     		movs	r0, #0
 520 0018 FFF7FEFF 		bl	SDI12_control_reg_Write
 115:SDI12.c       ****     CyDelayUs(8400u);   // 8.4 milliseconds = 8.4 x 10^3 microseconds
 521              		.loc 1 115 0
 522 001c 42F2D000 		movw	r0, #8400
 523 0020 FFF7FEFF 		bl	CyDelayUs
 116:SDI12.c       ****         
 117:SDI12.c       ****     // Write the command to the Data pin
 118:SDI12.c       ****     SDI12_UART_PutString(command);
 524              		.loc 1 118 0
 525 0024 7868     		ldr	r0, [r7, #4]
 526 0026 FFF7FEFF 		bl	SDI12_UART_PutString
 119:SDI12.c       **** }
 527              		.loc 1 119 0
 528 002a 00BF     		nop
 529 002c 0837     		adds	r7, r7, #8
 530              		.cfi_def_cfa_offset 8
 531 002e BD46     		mov	sp, r7
 532              		.cfi_def_cfa_register 13
 533              		@ sp needed
 534 0030 80BD     		pop	{r7, pc}
 535              		.cfi_endproc
 536              	.LFE69:
 537              		.size	SDI12_send_command, .-SDI12_send_command
 538 0032 00BF     		.section	.rodata
 539 0122 0000     		.align	2
 540              	.LC35:
 541 0124 00       		.ascii	"\000"
 542 0125 000000   		.align	2
 543              	.LC36:
 544 0128 25732573 		.ascii	"%s%s%s\000"
 544      257300
 545 012f 00       		.align	2
 546              	.LC37:
 547 0130 2100     		.ascii	"!\000"
 548 0132 0000     		.align	2
 549              	.LC38:
 550 0134 0D0A00   		.ascii	"\015\012\000"
 551              		.section	.text.SDI12_is_active,"ax",%progbits
 552              		.align	2
 553              		.global	SDI12_is_active
 554              		.thumb
 555              		.thumb_func
 556              		.type	SDI12_is_active, %function
 557              	SDI12_is_active:
ARM GAS  C:\Users\klabu\AppData\Local\Temp\ccOZgKV6.s 			page 14


 558              	.LFB70:
 120:SDI12.c       **** 
 121:SDI12.c       **** /**
 122:SDI12.c       ****  * @brief Check if an SDI12 sensor is on, given its address
 123:SDI12.c       ****  * 
 124:SDI12.c       ****  * @param sensor SDI12_sensor that we want to check the status of
 125:SDI12.c       ****  *
 126:SDI12.c       ****  * @return 1u if active, 0u if inactive
 127:SDI12.c       ****  */
 128:SDI12.c       **** uint8 SDI12_is_active(SDI12_sensor* sensor) {
 559              		.loc 1 128 0
 560              		.cfi_startproc
 561              		@ args = 0, pretend = 0, frame = 8
 562              		@ frame_needed = 1, uses_anonymous_args = 0
 563 0000 80B5     		push	{r7, lr}
 564              		.cfi_def_cfa_offset 8
 565              		.cfi_offset 7, -8
 566              		.cfi_offset 14, -4
 567 0002 84B0     		sub	sp, sp, #16
 568              		.cfi_def_cfa_offset 24
 569 0004 02AF     		add	r7, sp, #8
 570              		.cfi_def_cfa 7, 16
 571 0006 7860     		str	r0, [r7, #4]
 129:SDI12.c       ****     /* 1. Request if SDI12 sensor is active */
 130:SDI12.c       ****     clear_str(command);
 572              		.loc 1 130 0
 573 0008 1348     		ldr	r0, .L18
 574 000a FFF7FEFF 		bl	clear_str
 131:SDI12.c       ****     
 132:SDI12.c       ****     /* 2. Construct the command <address><command><!> */
 133:SDI12.c       ****     sprintf(command,"%s%s%s",(*sensor).address,ACK_ACTIVE,"!");
 575              		.loc 1 133 0
 576 000e 7B68     		ldr	r3, [r7, #4]
 577 0010 1A68     		ldr	r2, [r3]
 578 0012 124B     		ldr	r3, .L18+4
 579 0014 0093     		str	r3, [sp]
 580 0016 124B     		ldr	r3, .L18+8
 581 0018 1249     		ldr	r1, .L18+12
 582 001a 0F48     		ldr	r0, .L18
 583 001c FFF7FEFF 		bl	sprintf
 134:SDI12.c       ****     SDI12_uart_clear_string();
 584              		.loc 1 134 0
 585 0020 FFF7FEFF 		bl	SDI12_uart_clear_string
 135:SDI12.c       ****     
 136:SDI12.c       ****     /* 3. Send the command to the sensor */
 137:SDI12.c       ****     SDI12_send_command(command);
 586              		.loc 1 137 0
 587 0024 0C48     		ldr	r0, .L18
 588 0026 FFF7FEFF 		bl	SDI12_send_command
 138:SDI12.c       ****     
 139:SDI12.c       ****     /* 4. Parse the received data, if any */
 140:SDI12.c       ****     /* TODO: This can be shortened using a for-loop like in SDI12_take_measurement() */
 141:SDI12.c       ****     CyDelay(1000u); // Delay for readings to be transmitted
 589              		.loc 1 141 0
 590 002a 4FF47A70 		mov	r0, #1000
 591 002e FFF7FEFF 		bl	CyDelay
 142:SDI12.c       ****     
ARM GAS  C:\Users\klabu\AppData\Local\Temp\ccOZgKV6.s 			page 15


 143:SDI12.c       ****     // Copy the SDI12 UART buffer into temporary buffer
 144:SDI12.c       ****     // *TODO: Parse sensor address from the response
 145:SDI12.c       ****     clear_str(value_str);
 592              		.loc 1 145 0
 593 0032 0D48     		ldr	r0, .L18+16
 594 0034 FFF7FEFF 		bl	clear_str
 146:SDI12.c       ****     if (strextract(SDI12_uart_buf, value_str, "!" ,"\r\n")) {
 595              		.loc 1 146 0
 596 0038 0C4B     		ldr	r3, .L18+20
 597 003a 084A     		ldr	r2, .L18+4
 598 003c 0A49     		ldr	r1, .L18+16
 599 003e 0C48     		ldr	r0, .L18+24
 600 0040 FFF7FEFF 		bl	strextract
 601 0044 0346     		mov	r3, r0
 602 0046 002B     		cmp	r3, #0
 603 0048 01D0     		beq	.L16
 147:SDI12.c       ****         // If "\r\n" is in the response, the sensor is active
 148:SDI12.c       ****         return 1u;
 604              		.loc 1 148 0
 605 004a 0123     		movs	r3, #1
 606 004c 00E0     		b	.L17
 607              	.L16:
 149:SDI12.c       ****     }
 150:SDI12.c       ****     
 151:SDI12.c       ****     return 0u;
 608              		.loc 1 151 0
 609 004e 0023     		movs	r3, #0
 610              	.L17:
 152:SDI12.c       **** }
 611              		.loc 1 152 0
 612 0050 1846     		mov	r0, r3
 613 0052 0837     		adds	r7, r7, #8
 614              		.cfi_def_cfa_offset 8
 615 0054 BD46     		mov	sp, r7
 616              		.cfi_def_cfa_register 13
 617              		@ sp needed
 618 0056 80BD     		pop	{r7, pc}
 619              	.L19:
 620              		.align	2
 621              	.L18:
 622 0058 00000000 		.word	command
 623 005c 30010000 		.word	.LC37
 624 0060 24010000 		.word	.LC35
 625 0064 28010000 		.word	.LC36
 626 0068 00000000 		.word	value_str
 627 006c 34010000 		.word	.LC38
 628 0070 00000000 		.word	SDI12_uart_buf
 629              		.cfi_endproc
 630              	.LFE70:
 631              		.size	SDI12_is_active, .-SDI12_is_active
 632              		.section	.rodata
 633 0137 00       		.align	2
 634              	.LC39:
 635 0138 4100     		.ascii	"A\000"
 636 013a 0000     		.align	2
 637              	.LC40:
 638 013c 25732573 		.ascii	"%s%s%s%s\000"
ARM GAS  C:\Users\klabu\AppData\Local\Temp\ccOZgKV6.s 			page 16


 638      25732573 
 638      00
 639 0145 000000   		.align	2
 640              	.LC41:
 641 0148 25730D0A 		.ascii	"%s\015\012\000"
 641      00
 642              		.section	.text.SDI12_change_address,"ax",%progbits
 643              		.align	2
 644              		.global	SDI12_change_address
 645              		.thumb
 646              		.thumb_func
 647              		.type	SDI12_change_address, %function
 648              	SDI12_change_address:
 649              	.LFB71:
 153:SDI12.c       **** 
 154:SDI12.c       **** /** 
 155:SDI12.c       ****  * @brief Change the address of an SDI12 sensor
 156:SDI12.c       ****  *
 157:SDI12.c       ****  * @param sensor SDI12_sensor that we want to change the address of
 158:SDI12.c       ****  * @param new_address String (single char, either 0-9, a-z, A-Z) of the desired address
 159:SDI12.c       ****  *
 160:SDI12.c       ****  * @return 1u if successful, 0u if unsuccessful
 161:SDI12.c       ****  */
 162:SDI12.c       **** uint8 SDI12_change_address(SDI12_sensor* sensor, char new_address[]) {
 650              		.loc 1 162 0
 651              		.cfi_startproc
 652              		@ args = 0, pretend = 0, frame = 8
 653              		@ frame_needed = 1, uses_anonymous_args = 0
 654 0000 80B5     		push	{r7, lr}
 655              		.cfi_def_cfa_offset 8
 656              		.cfi_offset 7, -8
 657              		.cfi_offset 14, -4
 658 0002 84B0     		sub	sp, sp, #16
 659              		.cfi_def_cfa_offset 24
 660 0004 02AF     		add	r7, sp, #8
 661              		.cfi_def_cfa 7, 16
 662 0006 7860     		str	r0, [r7, #4]
 663 0008 3960     		str	r1, [r7]
 163:SDI12.c       ****  
 164:SDI12.c       ****     /* 1. Request measurement from addressed SDI12 sensor */
 165:SDI12.c       ****     clear_str(command);
 664              		.loc 1 165 0
 665 000a 1E48     		ldr	r0, .L25
 666 000c FFF7FEFF 		bl	clear_str
 166:SDI12.c       ****     sprintf(command,"%s%s%s%s",(*sensor).address,CHANGE_ADDR,new_address,"!");
 667              		.loc 1 166 0
 668 0010 7B68     		ldr	r3, [r7, #4]
 669 0012 1A68     		ldr	r2, [r3]
 670 0014 1C4B     		ldr	r3, .L25+4
 671 0016 0193     		str	r3, [sp, #4]
 672 0018 3B68     		ldr	r3, [r7]
 673 001a 0093     		str	r3, [sp]
 674 001c 1B4B     		ldr	r3, .L25+8
 675 001e 1C49     		ldr	r1, .L25+12
 676 0020 1848     		ldr	r0, .L25
 677 0022 FFF7FEFF 		bl	sprintf
 167:SDI12.c       ****     
ARM GAS  C:\Users\klabu\AppData\Local\Temp\ccOZgKV6.s 			page 17


 168:SDI12.c       ****     SDI12_uart_clear_string();
 678              		.loc 1 168 0
 679 0026 FFF7FEFF 		bl	SDI12_uart_clear_string
 169:SDI12.c       ****     SDI12_send_command(command);    
 680              		.loc 1 169 0
 681 002a 1648     		ldr	r0, .L25
 682 002c FFF7FEFF 		bl	SDI12_send_command
 170:SDI12.c       ****         
 171:SDI12.c       ****     // Delay max 1000 ms
 172:SDI12.c       ****     // Look for <new address><CR><LF> in the buffer
 173:SDI12.c       ****     clear_str(value_str);
 683              		.loc 1 173 0
 684 0030 1848     		ldr	r0, .L25+16
 685 0032 FFF7FEFF 		bl	clear_str
 174:SDI12.c       ****     sprintf(value_str, "%s\r\n", new_address);
 686              		.loc 1 174 0
 687 0036 3A68     		ldr	r2, [r7]
 688 0038 1749     		ldr	r1, .L25+20
 689 003a 1648     		ldr	r0, .L25+16
 690 003c FFF7FEFF 		bl	sprintf
 175:SDI12.c       ****     for (i = 0; i < 200; i++) { 
 691              		.loc 1 175 0
 692 0040 164B     		ldr	r3, .L25+24
 693 0042 0022     		movs	r2, #0
 694 0044 1A70     		strb	r2, [r3]
 695 0046 14E0     		b	.L21
 696              	.L24:
 176:SDI12.c       ****         CyDelay(5u);
 697              		.loc 1 176 0
 698 0048 0520     		movs	r0, #5
 699 004a FFF7FEFF 		bl	CyDelay
 177:SDI12.c       ****         if ( strstr(SDI12_uart_buf, value_str) ) {
 700              		.loc 1 177 0
 701 004e 1149     		ldr	r1, .L25+16
 702 0050 1348     		ldr	r0, .L25+28
 703 0052 FFF7FEFF 		bl	strstr
 704 0056 0346     		mov	r3, r0
 705 0058 002B     		cmp	r3, #0
 706 005a 04D0     		beq	.L22
 178:SDI12.c       ****             (*sensor).address = new_address;
 707              		.loc 1 178 0
 708 005c 7B68     		ldr	r3, [r7, #4]
 709 005e 3A68     		ldr	r2, [r7]
 710 0060 1A60     		str	r2, [r3]
 179:SDI12.c       ****             return 1u;
 711              		.loc 1 179 0
 712 0062 0123     		movs	r3, #1
 713 0064 0AE0     		b	.L23
 714              	.L22:
 175:SDI12.c       ****         CyDelay(5u);
 715              		.loc 1 175 0 discriminator 2
 716 0066 0D4B     		ldr	r3, .L25+24
 717 0068 1B78     		ldrb	r3, [r3]	@ zero_extendqisi2
 718 006a 0133     		adds	r3, r3, #1
 719 006c DAB2     		uxtb	r2, r3
 720 006e 0B4B     		ldr	r3, .L25+24
 721 0070 1A70     		strb	r2, [r3]
ARM GAS  C:\Users\klabu\AppData\Local\Temp\ccOZgKV6.s 			page 18


 722              	.L21:
 175:SDI12.c       ****         CyDelay(5u);
 723              		.loc 1 175 0 is_stmt 0 discriminator 1
 724 0072 0A4B     		ldr	r3, .L25+24
 725 0074 1B78     		ldrb	r3, [r3]	@ zero_extendqisi2
 726 0076 C72B     		cmp	r3, #199
 727 0078 E6D9     		bls	.L24
 180:SDI12.c       ****         }
 181:SDI12.c       ****     }
 182:SDI12.c       ****     
 183:SDI12.c       ****     return 0u;
 728              		.loc 1 183 0 is_stmt 1
 729 007a 0023     		movs	r3, #0
 730              	.L23:
 184:SDI12.c       **** }
 731              		.loc 1 184 0
 732 007c 1846     		mov	r0, r3
 733 007e 0837     		adds	r7, r7, #8
 734              		.cfi_def_cfa_offset 8
 735 0080 BD46     		mov	sp, r7
 736              		.cfi_def_cfa_register 13
 737              		@ sp needed
 738 0082 80BD     		pop	{r7, pc}
 739              	.L26:
 740              		.align	2
 741              	.L25:
 742 0084 00000000 		.word	command
 743 0088 30010000 		.word	.LC37
 744 008c 38010000 		.word	.LC39
 745 0090 3C010000 		.word	.LC40
 746 0094 00000000 		.word	value_str
 747 0098 48010000 		.word	.LC41
 748 009c 00000000 		.word	i
 749 00a0 00000000 		.word	SDI12_uart_buf
 750              		.cfi_endproc
 751              	.LFE71:
 752              		.size	SDI12_change_address, .-SDI12_change_address
 753              		.section	.text.SDI12_take_concurrent_measurement,"ax",%progbits
 754              		.align	2
 755              		.global	SDI12_take_concurrent_measurement
 756              		.thumb
 757              		.thumb_func
 758              		.type	SDI12_take_concurrent_measurement, %function
 759              	SDI12_take_concurrent_measurement:
 760              	.LFB72:
 185:SDI12.c       **** 
 186:SDI12.c       **** 
 187:SDI12.c       **** ///////**
 188:SDI12.c       **** ////// * @brief Take a measurement for an SDI12 sensor, given its address
 189:SDI12.c       **** ////// * 
 190:SDI12.c       **** ////// * @param sensor SDI12_sensor that we want to request measurements from
 191:SDI12.c       **** ////// *
 192:SDI12.c       **** ////// * @ return 1u if measurements were successfully taken, 0u if there was a communication error
 193:SDI12.c       **** ////// */
 194:SDI12.c       **** //////uint8 SDI12_take_measurement(SDI12_sensor* sensor) {
 195:SDI12.c       **** //////        
 196:SDI12.c       **** //////    /* 1. Request measurement from addressed SDI12 sensor */
ARM GAS  C:\Users\klabu\AppData\Local\Temp\ccOZgKV6.s 			page 19


 197:SDI12.c       **** //////    clear_str(command);
 198:SDI12.c       **** //////    sprintf(command,"%s%s%s",(*sensor).address,TAKE_MEASUREMENT,"!");
 199:SDI12.c       **** //////    
 200:SDI12.c       **** //////    SDI12_uart_clear_string();
 201:SDI12.c       **** //////    SDI12_send_command(command);
 202:SDI12.c       **** //////    
 203:SDI12.c       **** //////    /* 2. Delay for measurement to be taken */
 204:SDI12.c       **** //////    /*
 205:SDI12.c       **** //////     * The address sensor responds within 15.0 ms, returning the
 206:SDI12.c       **** //////     * maximum time until the measurement data will be ready and the
 207:SDI12.c       **** //////     * number of data values it will return
 208:SDI12.c       **** //////     */
 209:SDI12.c       **** //////    clear_str(value_str); 
 210:SDI12.c       **** //////    clear_str(delay_str);
 211:SDI12.c       **** //////    
 212:SDI12.c       **** //////    // supposedly response time is 15 ms, but delaying max 1000 ms to be safe
 213:SDI12.c       **** //////    // TODO: When taking concurrent measurements, look for <address><CR><LF>
 214:SDI12.c       **** //////    for (i = 0; i < 200; i++) { 
 215:SDI12.c       **** //////        CyDelay(5u);
 216:SDI12.c       **** //////        if ( strextract(SDI12_uart_buf, value_str, "!","\r\n") ) {
 217:SDI12.c       **** //////            break;
 218:SDI12.c       **** //////        }
 219:SDI12.c       **** //////    }
 220:SDI12.c       **** //////    
 221:SDI12.c       **** //////    /* Delay while measurements are being prepared */
 222:SDI12.c       **** //////    /*
 223:SDI12.c       **** //////     * The returned format for <address>M! is atttn<CR><LF>
 224:SDI12.c       **** //////     * (NOTE: The returned format for <address>C! is atttnn<CR><LF> -- this will be useful wh
 225:SDI12.c       **** //////     *        concurrent measurements in the future)
 226:SDI12.c       **** //////     * Where,
 227:SDI12.c       **** //////     * -    a: sensor address
 228:SDI12.c       **** //////     * -  ttt: maximum time until measurement is ready
 229:SDI12.c       **** //////     * - n(n): number of data values that will be returned
 230:SDI12.c       **** //////     */
 231:SDI12.c       **** //////    strncpy(delay_str, value_str+strlen((*sensor).address), 3); // shift ptr by strlen(...) t
 232:SDI12.c       **** //////    ms_delay = ( (uint32) strtod(delay_str,(char**) NULL) ) * 1000u;
 233:SDI12.c       **** //////    CyDelay(ms_delay);
 234:SDI12.c       **** //////    
 235:SDI12.c       **** //////    /* 3. Request data from SDI12 sensor */
 236:SDI12.c       **** //////    clear_str(command);    
 237:SDI12.c       **** //////    clear_str(value_str);
 238:SDI12.c       **** //////    sprintf(command,"%s%s%s",(*sensor).address,READ_MEASUREMENT,"!");   
 239:SDI12.c       **** //////    
 240:SDI12.c       **** //////    SDI12_uart_clear_string();
 241:SDI12.c       **** //////    SDI12_send_command(command);
 242:SDI12.c       **** //////    
 243:SDI12.c       **** //////    // Delay a maximum of 1000 ms as readings are transmitted
 244:SDI12.c       **** //////    for (i = 0; i < 200; i++) {
 245:SDI12.c       **** //////        CyDelay(5u);
 246:SDI12.c       **** //////        
 247:SDI12.c       **** //////        // Copy the SDI12 UART buffer into temporary buffer, value_str
 248:SDI12.c       **** //////        // and break once "\r\n" is returned
 249:SDI12.c       **** //////        if ( strextract(SDI12_uart_buf, value_str, "!","\r\n") ) {
 250:SDI12.c       **** //////            break;
 251:SDI12.c       **** //////        }
 252:SDI12.c       **** //////    }
 253:SDI12.c       **** //////    
ARM GAS  C:\Users\klabu\AppData\Local\Temp\ccOZgKV6.s 			page 20


 254:SDI12.c       **** //////    
 255:SDI12.c       **** //////    /* 4. Parse the received data */    
 256:SDI12.c       **** //////    // Check for "+" or "-" signs to ensure data was sent
 257:SDI12.c       **** //////    // First check for "+"
 258:SDI12.c       **** //////    sign = strstr(value_str,"+");
 259:SDI12.c       **** //////    if (sign == NULL) {
 260:SDI12.c       **** //////        // If there is no + sign, check for "-"
 261:SDI12.c       **** //////        sign = strstr(value_str,"-");
 262:SDI12.c       **** //////        
 263:SDI12.c       **** //////        // The absence of "+" or "-" indicates no data was sent yet
 264:SDI12.c       **** //////        // Return 0 and try querying the sensor again later
 265:SDI12.c       **** //////        if (sign == NULL) {
 266:SDI12.c       **** //////            for (i = 0; i < (*sensor).nvars; i++) {
 267:SDI12.c       **** //////                (*sensor).values[i] = -9999.0f;
 268:SDI12.c       **** //////            }
 269:SDI12.c       **** //////            return 0u;
 270:SDI12.c       **** //////        }
 271:SDI12.c       **** //////    }
 272:SDI12.c       **** //////    
 273:SDI12.c       **** //////    // Set the pointer to the start of the returned results
 274:SDI12.c       **** //////    // and shift forward past the address byte
 275:SDI12.c       **** //////    ptr_end = value_str + strlen((*sensor).address);
 276:SDI12.c       **** //////    
 277:SDI12.c       **** //////    // Parse and store all values returned from the sensor
 278:SDI12.c       **** //////    for (i = 0; i < (*sensor).nvars; i++) {
 279:SDI12.c       **** //////        (*sensor).values[i] = (float) strtod(ptr_end, &ptr_end);
 280:SDI12.c       **** //////    }
 281:SDI12.c       **** //////    
 282:SDI12.c       **** //////    return 1u;
 283:SDI12.c       **** //////    
 284:SDI12.c       **** //////}
 285:SDI12.c       **** 
 286:SDI12.c       **** 
 287:SDI12.c       **** /**
 288:SDI12.c       ****  * @brief TODO: Take a concurrent measurement for an SDI12 sensor, given its address
 289:SDI12.c       ****  * 
 290:SDI12.c       ****  * @param sensor SDI12_sensor that we want to request measurements from
 291:SDI12.c       ****  *
 292:SDI12.c       ****  * @ return if sensor is active
 293:SDI12.c       ****  */
 294:SDI12.c       **** uint8 SDI12_take_concurrent_measurement(SDI12_sensor* sensor) {
 761              		.loc 1 294 0
 762              		.cfi_startproc
 763              		@ args = 0, pretend = 0, frame = 8
 764              		@ frame_needed = 1, uses_anonymous_args = 0
 765 0000 80B5     		push	{r7, lr}
 766              		.cfi_def_cfa_offset 8
 767              		.cfi_offset 7, -8
 768              		.cfi_offset 14, -4
 769 0002 82B0     		sub	sp, sp, #8
 770              		.cfi_def_cfa_offset 16
 771 0004 00AF     		add	r7, sp, #0
 772              		.cfi_def_cfa_register 7
 773 0006 7860     		str	r0, [r7, #4]
 295:SDI12.c       ****     /* TODO */
 296:SDI12.c       ****     /*
 297:SDI12.c       ****      * Concurrent measurements enable measurements to be triggered for
ARM GAS  C:\Users\klabu\AppData\Local\Temp\ccOZgKV6.s 			page 21


 298:SDI12.c       ****      * multiple sensors, rather than doing one at a time.
 299:SDI12.c       ****      * 
 300:SDI12.c       ****      * Requires SDI12 V1.2 or greater.
 301:SDI12.c       ****      *
 302:SDI12.c       ****      * Currently returning a dummy response for now.
 303:SDI12.c       ****      */
 304:SDI12.c       ****     return SDI12_is_active(sensor);
 774              		.loc 1 304 0
 775 0008 7868     		ldr	r0, [r7, #4]
 776 000a FFF7FEFF 		bl	SDI12_is_active
 777 000e 0346     		mov	r3, r0
 305:SDI12.c       **** }
 778              		.loc 1 305 0
 779 0010 1846     		mov	r0, r3
 780 0012 0837     		adds	r7, r7, #8
 781              		.cfi_def_cfa_offset 8
 782 0014 BD46     		mov	sp, r7
 783              		.cfi_def_cfa_register 13
 784              		@ sp needed
 785 0016 80BD     		pop	{r7, pc}
 786              		.cfi_endproc
 787              	.LFE72:
 788              		.size	SDI12_take_concurrent_measurement, .-SDI12_take_concurrent_measurement
 789              		.section	.rodata
 790 014d 000000   		.align	2
 791              	.LC42:
 792 0150 4900     		.ascii	"I\000"
 793              		.section	.text.SDI12_info,"ax",%progbits
 794              		.align	2
 795              		.global	SDI12_info
 796              		.thumb
 797              		.thumb_func
 798              		.type	SDI12_info, %function
 799              	SDI12_info:
 800              	.LFB73:
 306:SDI12.c       **** 
 307:SDI12.c       **** /**
 308:SDI12.c       ****  * @brief Obtain detailed info about an SDI12 sensor, given its address
 309:SDI12.c       ****  * 
 310:SDI12.c       ****  * @param sensor SDI12_sensor that we want to request info from
 311:SDI12.c       ****  *
 312:SDI12.c       ****  * @ return 1u if successful, 0u if unsuccessful
 313:SDI12.c       ****  */
 314:SDI12.c       **** uint8 SDI12_info(SDI12_sensor* sensor) {
 801              		.loc 1 314 0
 802              		.cfi_startproc
 803              		@ args = 0, pretend = 0, frame = 8
 804              		@ frame_needed = 1, uses_anonymous_args = 0
 805 0000 90B5     		push	{r4, r7, lr}
 806              		.cfi_def_cfa_offset 12
 807              		.cfi_offset 4, -12
 808              		.cfi_offset 7, -8
 809              		.cfi_offset 14, -4
 810 0002 85B0     		sub	sp, sp, #20
 811              		.cfi_def_cfa_offset 32
 812 0004 02AF     		add	r7, sp, #8
 813              		.cfi_def_cfa 7, 24
ARM GAS  C:\Users\klabu\AppData\Local\Temp\ccOZgKV6.s 			page 22


 814 0006 7860     		str	r0, [r7, #4]
 315:SDI12.c       **** 
 316:SDI12.c       ****     /* 1. Request measurement from addressed SDI12 sensor */
 317:SDI12.c       ****     clear_str(command);
 815              		.loc 1 317 0
 816 0008 4148     		ldr	r0, .L34
 817 000a FFF7FEFF 		bl	clear_str
 318:SDI12.c       ****     sprintf(command,"%s%s%s",(*sensor).address,INFO,"!");
 818              		.loc 1 318 0
 819 000e 7B68     		ldr	r3, [r7, #4]
 820 0010 1A68     		ldr	r2, [r3]
 821 0012 404B     		ldr	r3, .L34+4
 822 0014 0093     		str	r3, [sp]
 823 0016 404B     		ldr	r3, .L34+8
 824 0018 4049     		ldr	r1, .L34+12
 825 001a 3D48     		ldr	r0, .L34
 826 001c FFF7FEFF 		bl	sprintf
 319:SDI12.c       ****     
 320:SDI12.c       ****     SDI12_uart_clear_string();
 827              		.loc 1 320 0
 828 0020 FFF7FEFF 		bl	SDI12_uart_clear_string
 321:SDI12.c       ****     SDI12_send_command(command);    
 829              		.loc 1 321 0
 830 0024 3A48     		ldr	r0, .L34
 831 0026 FFF7FEFF 		bl	SDI12_send_command
 322:SDI12.c       **** 
 323:SDI12.c       ****     clear_str(value_str);
 832              		.loc 1 323 0
 833 002a 3D48     		ldr	r0, .L34+16
 834 002c FFF7FEFF 		bl	clear_str
 324:SDI12.c       ****     
 325:SDI12.c       ****     // Look for <CR><LF> in the buffer since <CR><LR> terminates all responses, if there is one 
 326:SDI12.c       ****     // Delay max 1000 ms while doing so
 327:SDI12.c       ****     for (i = 0; i < 200; i++) { 
 835              		.loc 1 327 0
 836 0030 3C4B     		ldr	r3, .L34+20
 837 0032 0022     		movs	r2, #0
 838 0034 1A70     		strb	r2, [r3]
 839 0036 62E0     		b	.L30
 840              	.L33:
 328:SDI12.c       ****         CyDelay(5u);
 841              		.loc 1 328 0
 842 0038 0520     		movs	r0, #5
 843 003a FFF7FEFF 		bl	CyDelay
 329:SDI12.c       ****         if (strextract(SDI12_uart_buf, value_str, "!" ,"\r\n")) {
 844              		.loc 1 329 0
 845 003e 3A4B     		ldr	r3, .L34+24
 846 0040 344A     		ldr	r2, .L34+4
 847 0042 3749     		ldr	r1, .L34+16
 848 0044 3948     		ldr	r0, .L34+28
 849 0046 FFF7FEFF 		bl	strextract
 850 004a 0346     		mov	r3, r0
 851 004c 002B     		cmp	r3, #0
 852 004e 50D0     		beq	.L31
 330:SDI12.c       ****         // If "\r\n" is in the response, then the sensor is active
 331:SDI12.c       ****             
 332:SDI12.c       ****             ptr_end = value_str;
ARM GAS  C:\Users\klabu\AppData\Local\Temp\ccOZgKV6.s 			page 23


 853              		.loc 1 332 0
 854 0050 374B     		ldr	r3, .L34+32
 855 0052 334A     		ldr	r2, .L34+16
 856 0054 1A60     		str	r2, [r3]
 333:SDI12.c       ****             // Attempt to parse the information and store in "sensor"
 334:SDI12.c       ****             // Move the pointer past the address 
 335:SDI12.c       ****             ptr_end += strlen((*sensor).address);
 857              		.loc 1 335 0
 858 0056 364B     		ldr	r3, .L34+32
 859 0058 1C68     		ldr	r4, [r3]
 860 005a 7B68     		ldr	r3, [r7, #4]
 861 005c 1B68     		ldr	r3, [r3]
 862 005e 1846     		mov	r0, r3
 863 0060 FFF7FEFF 		bl	strlen
 864 0064 0346     		mov	r3, r0
 865 0066 2344     		add	r3, r3, r4
 866 0068 314A     		ldr	r2, .L34+32
 867 006a 1360     		str	r3, [r2]
 336:SDI12.c       ****             
 337:SDI12.c       ****             // SDI-12 specification (2 chars)
 338:SDI12.c       ****             strncpy((*sensor).v_SDI12, ptr_end, 2);
 868              		.loc 1 338 0
 869 006c 7B68     		ldr	r3, [r7, #4]
 870 006e 03F10D00 		add	r0, r3, #13
 871 0072 2F4B     		ldr	r3, .L34+32
 872 0074 1B68     		ldr	r3, [r3]
 873 0076 0222     		movs	r2, #2
 874 0078 1946     		mov	r1, r3
 875 007a FFF7FEFF 		bl	strncpy
 339:SDI12.c       ****             ptr_end += 2;
 876              		.loc 1 339 0
 877 007e 2C4B     		ldr	r3, .L34+32
 878 0080 1B68     		ldr	r3, [r3]
 879 0082 0233     		adds	r3, r3, #2
 880 0084 2A4A     		ldr	r2, .L34+32
 881 0086 1360     		str	r3, [r2]
 340:SDI12.c       ****             
 341:SDI12.c       ****             // Vendor identification (8 chars)
 342:SDI12.c       ****             strncpy((*sensor).vendor, ptr_end, 8);
 882              		.loc 1 342 0
 883 0088 7B68     		ldr	r3, [r7, #4]
 884 008a 03F11000 		add	r0, r3, #16
 885 008e 284B     		ldr	r3, .L34+32
 886 0090 1B68     		ldr	r3, [r3]
 887 0092 0822     		movs	r2, #8
 888 0094 1946     		mov	r1, r3
 889 0096 FFF7FEFF 		bl	strncpy
 343:SDI12.c       ****             ptr_end += 8;
 890              		.loc 1 343 0
 891 009a 254B     		ldr	r3, .L34+32
 892 009c 1B68     		ldr	r3, [r3]
 893 009e 0833     		adds	r3, r3, #8
 894 00a0 234A     		ldr	r2, .L34+32
 895 00a2 1360     		str	r3, [r2]
 344:SDI12.c       ****             
 345:SDI12.c       ****             // Sensor Model (6 chars)
 346:SDI12.c       ****             strncpy((*sensor).model, ptr_end, 6);
ARM GAS  C:\Users\klabu\AppData\Local\Temp\ccOZgKV6.s 			page 24


 896              		.loc 1 346 0
 897 00a4 7B68     		ldr	r3, [r7, #4]
 898 00a6 03F11900 		add	r0, r3, #25
 899 00aa 214B     		ldr	r3, .L34+32
 900 00ac 1B68     		ldr	r3, [r3]
 901 00ae 0622     		movs	r2, #6
 902 00b0 1946     		mov	r1, r3
 903 00b2 FFF7FEFF 		bl	strncpy
 347:SDI12.c       ****             ptr_end += 6;
 904              		.loc 1 347 0
 905 00b6 1E4B     		ldr	r3, .L34+32
 906 00b8 1B68     		ldr	r3, [r3]
 907 00ba 0633     		adds	r3, r3, #6
 908 00bc 1C4A     		ldr	r2, .L34+32
 909 00be 1360     		str	r3, [r2]
 348:SDI12.c       ****             
 349:SDI12.c       ****             // Sensor Version (3 chars)
 350:SDI12.c       ****             strncpy((*sensor).version, ptr_end, 3);
 910              		.loc 1 350 0
 911 00c0 7B68     		ldr	r3, [r7, #4]
 912 00c2 03F12000 		add	r0, r3, #32
 913 00c6 1A4B     		ldr	r3, .L34+32
 914 00c8 1B68     		ldr	r3, [r3]
 915 00ca 0322     		movs	r2, #3
 916 00cc 1946     		mov	r1, r3
 917 00ce FFF7FEFF 		bl	strncpy
 351:SDI12.c       ****             ptr_end += 3;
 918              		.loc 1 351 0
 919 00d2 174B     		ldr	r3, .L34+32
 920 00d4 1B68     		ldr	r3, [r3]
 921 00d6 0333     		adds	r3, r3, #3
 922 00d8 154A     		ldr	r2, .L34+32
 923 00da 1360     		str	r3, [r2]
 352:SDI12.c       ****             
 353:SDI12.c       ****             // Sensor Serial number / misc info (up to 13 chars)
 354:SDI12.c       ****             strncpy((*sensor).serial, ptr_end, 13);
 924              		.loc 1 354 0
 925 00dc 7B68     		ldr	r3, [r7, #4]
 926 00de 03F12400 		add	r0, r3, #36
 927 00e2 134B     		ldr	r3, .L34+32
 928 00e4 1B68     		ldr	r3, [r3]
 929 00e6 0D22     		movs	r2, #13
 930 00e8 1946     		mov	r1, r3
 931 00ea FFF7FEFF 		bl	strncpy
 355:SDI12.c       ****             
 356:SDI12.c       ****             // Assume successful if we reached this point
 357:SDI12.c       ****             return 1u;
 932              		.loc 1 357 0
 933 00ee 0123     		movs	r3, #1
 934 00f0 0AE0     		b	.L32
 935              	.L31:
 327:SDI12.c       ****         CyDelay(5u);
 936              		.loc 1 327 0 discriminator 2
 937 00f2 0C4B     		ldr	r3, .L34+20
 938 00f4 1B78     		ldrb	r3, [r3]	@ zero_extendqisi2
 939 00f6 0133     		adds	r3, r3, #1
 940 00f8 DAB2     		uxtb	r2, r3
ARM GAS  C:\Users\klabu\AppData\Local\Temp\ccOZgKV6.s 			page 25


 941 00fa 0A4B     		ldr	r3, .L34+20
 942 00fc 1A70     		strb	r2, [r3]
 943              	.L30:
 327:SDI12.c       ****         CyDelay(5u);
 944              		.loc 1 327 0 is_stmt 0 discriminator 1
 945 00fe 094B     		ldr	r3, .L34+20
 946 0100 1B78     		ldrb	r3, [r3]	@ zero_extendqisi2
 947 0102 C72B     		cmp	r3, #199
 948 0104 98D9     		bls	.L33
 358:SDI12.c       ****         }
 359:SDI12.c       ****     }
 360:SDI12.c       ****     
 361:SDI12.c       ****     return 0u;
 949              		.loc 1 361 0 is_stmt 1
 950 0106 0023     		movs	r3, #0
 951              	.L32:
 362:SDI12.c       **** }
 952              		.loc 1 362 0
 953 0108 1846     		mov	r0, r3
 954 010a 0C37     		adds	r7, r7, #12
 955              		.cfi_def_cfa_offset 12
 956 010c BD46     		mov	sp, r7
 957              		.cfi_def_cfa_register 13
 958              		@ sp needed
 959 010e 90BD     		pop	{r4, r7, pc}
 960              	.L35:
 961              		.align	2
 962              	.L34:
 963 0110 00000000 		.word	command
 964 0114 30010000 		.word	.LC37
 965 0118 50010000 		.word	.LC42
 966 011c 28010000 		.word	.LC36
 967 0120 00000000 		.word	value_str
 968 0124 00000000 		.word	i
 969 0128 34010000 		.word	.LC38
 970 012c 00000000 		.word	SDI12_uart_buf
 971 0130 00000000 		.word	ptr_end
 972              		.cfi_endproc
 973              	.LFE73:
 974              		.size	SDI12_info, .-SDI12_info
 975              		.global	__aeabi_ui2f
 976              		.global	__aeabi_f2d
 977              		.section	.rodata
 978 0152 0000     		.align	2
 979              	.LC43:
 980 0154 25732025 		.ascii	"%s %s %f\000"
 980      73202566 
 980      00
 981              		.section	.text.zip_SDI12,"ax",%progbits
 982              		.align	2
 983              		.global	zip_SDI12
 984              		.thumb
 985              		.thumb_func
 986              		.type	zip_SDI12, %function
 987              	zip_SDI12:
 988              	.LFB74:
 363:SDI12.c       **** 
ARM GAS  C:\Users\klabu\AppData\Local\Temp\ccOZgKV6.s 			page 26


 364:SDI12.c       **** uint8 zip_SDI12(int SDI12_flag) {
 989              		.loc 1 364 0
 990              		.cfi_startproc
 991              		@ args = 0, pretend = 0, frame = 112
 992              		@ frame_needed = 1, uses_anonymous_args = 0
 993 0000 B0B5     		push	{r4, r5, r7, lr}
 994              		.cfi_def_cfa_offset 16
 995              		.cfi_offset 4, -16
 996              		.cfi_offset 5, -12
 997              		.cfi_offset 7, -8
 998              		.cfi_offset 14, -4
 999 0002 9EB0     		sub	sp, sp, #120
 1000              		.cfi_def_cfa_offset 136
 1001 0004 02AF     		add	r7, sp, #8
 1002              		.cfi_def_cfa 7, 128
 1003 0006 7860     		str	r0, [r7, #4]
 365:SDI12.c       ****     char output[100] = {'\0'}; // For debugging
 1004              		.loc 1 365 0
 1005 0008 07F10803 		add	r3, r7, #8
 1006 000c 6422     		movs	r2, #100
 1007 000e 0021     		movs	r1, #0
 1008 0010 1846     		mov	r0, r3
 1009 0012 FFF7FEFF 		bl	memset
 366:SDI12.c       ****     uint8 i, j, k, valid;
 367:SDI12.c       ****     
 368:SDI12.c       ****     sensors[0] = sontek;
 1010              		.loc 1 368 0
 1011 0016 A04A     		ldr	r2, .L53
 1012 0018 A04B     		ldr	r3, .L53+4
 1013 001a 1446     		mov	r4, r2
 1014 001c 1D46     		mov	r5, r3
 1015 001e 0FCD     		ldmia	r5!, {r0, r1, r2, r3}
 1016 0020 0FC4     		stmia	r4!, {r0, r1, r2, r3}
 1017 0022 0FCD     		ldmia	r5!, {r0, r1, r2, r3}
 1018 0024 0FC4     		stmia	r4!, {r0, r1, r2, r3}
 1019 0026 0FCD     		ldmia	r5!, {r0, r1, r2, r3}
 1020 0028 0FC4     		stmia	r4!, {r0, r1, r2, r3}
 1021 002a 2B68     		ldr	r3, [r5]
 1022 002c 2360     		str	r3, [r4]
 369:SDI12.c       ****     sensors[1] = solinst;
 1023              		.loc 1 369 0
 1024 002e 9A4B     		ldr	r3, .L53
 1025 0030 9B4A     		ldr	r2, .L53+8
 1026 0032 03F13404 		add	r4, r3, #52
 1027 0036 1546     		mov	r5, r2
 1028 0038 0FCD     		ldmia	r5!, {r0, r1, r2, r3}
 1029 003a 0FC4     		stmia	r4!, {r0, r1, r2, r3}
 1030 003c 0FCD     		ldmia	r5!, {r0, r1, r2, r3}
 1031 003e 0FC4     		stmia	r4!, {r0, r1, r2, r3}
 1032 0040 0FCD     		ldmia	r5!, {r0, r1, r2, r3}
 1033 0042 0FC4     		stmia	r4!, {r0, r1, r2, r3}
 1034 0044 2B68     		ldr	r3, [r5]
 1035 0046 2360     		str	r3, [r4]
 370:SDI12.c       ****     sensors[1] = GS3;
 1036              		.loc 1 370 0
 1037 0048 934B     		ldr	r3, .L53
 1038 004a 964A     		ldr	r2, .L53+12
ARM GAS  C:\Users\klabu\AppData\Local\Temp\ccOZgKV6.s 			page 27


 1039 004c 03F13404 		add	r4, r3, #52
 1040 0050 1546     		mov	r5, r2
 1041 0052 0FCD     		ldmia	r5!, {r0, r1, r2, r3}
 1042 0054 0FC4     		stmia	r4!, {r0, r1, r2, r3}
 1043 0056 0FCD     		ldmia	r5!, {r0, r1, r2, r3}
 1044 0058 0FC4     		stmia	r4!, {r0, r1, r2, r3}
 1045 005a 0FCD     		ldmia	r5!, {r0, r1, r2, r3}
 1046 005c 0FC4     		stmia	r4!, {r0, r1, r2, r3}
 1047 005e 2B68     		ldr	r3, [r5]
 1048 0060 2360     		str	r3, [r4]
 371:SDI12.c       ****     
 372:SDI12.c       ****     SDI12_start();
 1049              		.loc 1 372 0
 1050 0062 FFF7FEFF 		bl	SDI12_start
 373:SDI12.c       ****     SDI12_Power_Write(1u);
 1051              		.loc 1 373 0
 1052 0066 0120     		movs	r0, #1
 1053 0068 FFF7FEFF 		bl	SDI12_Power_Write
 374:SDI12.c       ****       
 375:SDI12.c       ****     // Iterate through each SDI12 sensor
 376:SDI12.c       ****     // TODO: Reconstruct to go thorugh each bit of SDI12_flag if
 377:SDI12.c       ****     //       SDI12_flag is used to flag multiple SDI-12 sensors
 378:SDI12.c       ****     //       (This assumes the number of bits < N_SDI12_SENSORS)
 379:SDI12.c       ****     for (k = 0; k < N_SDI12_SENSORS;  k++) {
 1054              		.loc 1 379 0
 1055 006c 0023     		movs	r3, #0
 1056 006e 87F86D30 		strb	r3, [r7, #109]
 1057 0072 01E1     		b	.L37
 1058              	.L51:
 380:SDI12.c       ****         if (0x00000001 & SDI12_flag>>k)  {
 1059              		.loc 1 380 0
 1060 0074 97F86D30 		ldrb	r3, [r7, #109]	@ zero_extendqisi2
 1061 0078 7A68     		ldr	r2, [r7, #4]
 1062 007a 42FA03F3 		asr	r3, r2, r3
 1063 007e 03F00103 		and	r3, r3, #1
 1064 0082 002B     		cmp	r3, #0
 1065 0084 00F0F380 		beq	.L38
 381:SDI12.c       ****             /*/ Ensure we don't access nonexistent array index
 382:SDI12.c       ****             if(*array_ix + (sensors[k]).nvars >= max_size){
 383:SDI12.c       ****                 return *array_ix;
 384:SDI12.c       ****             }    
 385:SDI12.c       ****             //*/
 386:SDI12.c       ****             
 387:SDI12.c       ****             //* ---------- Take measurement(s) from k'th SDI-12 sesnor ---------- //
 388:SDI12.c       ****             valid = 0; // Reinitialize sensor status
 1066              		.loc 1 388 0
 1067 0088 0023     		movs	r3, #0
 1068 008a 87F86C30 		strb	r3, [r7, #108]
 389:SDI12.c       ****             
 390:SDI12.c       ****             // Let the sensor power up max 10000 ms = 10 * 1000 ms
 391:SDI12.c       ****             for (i = 0; i < 50; i++) {
 1069              		.loc 1 391 0
 1070 008e 0023     		movs	r3, #0
 1071 0090 87F86F30 		strb	r3, [r7, #111]
 1072 0094 9DE0     		b	.L39
 1073              	.L48:
 392:SDI12.c       ****                 CyDelay(200u);
ARM GAS  C:\Users\klabu\AppData\Local\Temp\ccOZgKV6.s 			page 28


 1074              		.loc 1 392 0
 1075 0096 C820     		movs	r0, #200
 1076 0098 FFF7FEFF 		bl	CyDelay
 393:SDI12.c       ****                 
 394:SDI12.c       ****                 valid = SDI12_is_active(&sensors[k]); 
 1077              		.loc 1 394 0
 1078 009c 97F86D30 		ldrb	r3, [r7, #109]	@ zero_extendqisi2
 1079 00a0 3422     		movs	r2, #52
 1080 00a2 02FB03F3 		mul	r3, r2, r3
 1081 00a6 7C4A     		ldr	r2, .L53
 1082 00a8 1344     		add	r3, r3, r2
 1083 00aa 1846     		mov	r0, r3
 1084 00ac FFF7FEFF 		bl	SDI12_is_active
 1085 00b0 0346     		mov	r3, r0
 1086 00b2 87F86C30 		strb	r3, [r7, #108]
 395:SDI12.c       ****                 if (valid == 1u){  
 1087              		.loc 1 395 0
 1088 00b6 97F86C30 		ldrb	r3, [r7, #108]	@ zero_extendqisi2
 1089 00ba 012B     		cmp	r3, #1
 1090 00bc 54D1     		bne	.L40
 396:SDI12.c       ****                     
 397:SDI12.c       ****                     LED_Write(0u);
 1091              		.loc 1 397 0
 1092 00be 0020     		movs	r0, #0
 1093 00c0 FFF7FEFF 		bl	LED_Write
 398:SDI12.c       ****                     
 399:SDI12.c       ****                     
 400:SDI12.c       ****                     //valid = SDI12_change_address(&sensors[0],"0");
 401:SDI12.c       ****                     CyDelay(200u); 
 1094              		.loc 1 401 0
 1095 00c4 C820     		movs	r0, #200
 1096 00c6 FFF7FEFF 		bl	CyDelay
 402:SDI12.c       ****                     valid = SDI12_info(&sensors[k]); 
 1097              		.loc 1 402 0
 1098 00ca 97F86D30 		ldrb	r3, [r7, #109]	@ zero_extendqisi2
 1099 00ce 3422     		movs	r2, #52
 1100 00d0 02FB03F3 		mul	r3, r2, r3
 1101 00d4 704A     		ldr	r2, .L53
 1102 00d6 1344     		add	r3, r3, r2
 1103 00d8 1846     		mov	r0, r3
 1104 00da FFF7FEFF 		bl	SDI12_info
 1105 00de 0346     		mov	r3, r0
 1106 00e0 87F86C30 		strb	r3, [r7, #108]
 403:SDI12.c       ****                     CyDelay(200u);
 1107              		.loc 1 403 0
 1108 00e4 C820     		movs	r0, #200
 1109 00e6 FFF7FEFF 		bl	CyDelay
 404:SDI12.c       **** 
 405:SDI12.c       ****                     if (SDI12_take_measurement(&sensors[k])) {
 1110              		.loc 1 405 0
 1111 00ea 97F86D30 		ldrb	r3, [r7, #109]	@ zero_extendqisi2
 1112 00ee 3422     		movs	r2, #52
 1113 00f0 02FB03F3 		mul	r3, r2, r3
 1114 00f4 684A     		ldr	r2, .L53
 1115 00f6 1344     		add	r3, r3, r2
 1116 00f8 1846     		mov	r0, r3
 1117 00fa FFF7FEFF 		bl	SDI12_take_measurement
ARM GAS  C:\Users\klabu\AppData\Local\Temp\ccOZgKV6.s 			page 29


 1118 00fe 0346     		mov	r3, r0
 1119 0100 002B     		cmp	r3, #0
 1120 0102 03D0     		beq	.L41
 406:SDI12.c       ****                         valid = 1; // Successfully took a measurement
 1121              		.loc 1 406 0
 1122 0104 0123     		movs	r3, #1
 1123 0106 87F86C30 		strb	r3, [r7, #108]
 407:SDI12.c       ****                         break;                    
 1124              		.loc 1 407 0
 1125 010a 67E0     		b	.L42
 1126              	.L41:
 408:SDI12.c       ****                     } else {
 409:SDI12.c       ****                         // SDI12 sensor powered on, but unable to parse response
 410:SDI12.c       ****                         valid = -2;                    
 1127              		.loc 1 410 0
 1128 010c FE23     		movs	r3, #254
 1129 010e 87F86C30 		strb	r3, [r7, #108]
 411:SDI12.c       ****                         for (j = 0; j < (sensors[k]).nvars; j++) {
 1130              		.loc 1 411 0
 1131 0112 0023     		movs	r3, #0
 1132 0114 87F86E30 		strb	r3, [r7, #110]
 1133 0118 18E0     		b	.L43
 1134              	.L44:
 412:SDI12.c       ****                             (sensors[k]).values[j] = (float) valid;
 1135              		.loc 1 412 0 discriminator 3
 1136 011a 97F86D30 		ldrb	r3, [r7, #109]	@ zero_extendqisi2
 1137 011e 5E4A     		ldr	r2, .L53
 1138 0120 3421     		movs	r1, #52
 1139 0122 01FB03F3 		mul	r3, r1, r3
 1140 0126 1344     		add	r3, r3, r2
 1141 0128 0833     		adds	r3, r3, #8
 1142 012a 1A68     		ldr	r2, [r3]
 1143 012c 97F86E30 		ldrb	r3, [r7, #110]	@ zero_extendqisi2
 1144 0130 9B00     		lsls	r3, r3, #2
 1145 0132 D418     		adds	r4, r2, r3
 1146 0134 97F86C30 		ldrb	r3, [r7, #108]	@ zero_extendqisi2
 1147 0138 1846     		mov	r0, r3
 1148 013a FFF7FEFF 		bl	__aeabi_ui2f
 1149 013e 0346     		mov	r3, r0
 1150 0140 2360     		str	r3, [r4]	@ float
 411:SDI12.c       ****                         for (j = 0; j < (sensors[k]).nvars; j++) {
 1151              		.loc 1 411 0 discriminator 3
 1152 0142 97F86E30 		ldrb	r3, [r7, #110]	@ zero_extendqisi2
 1153 0146 0133     		adds	r3, r3, #1
 1154 0148 87F86E30 		strb	r3, [r7, #110]
 1155              	.L43:
 411:SDI12.c       ****                         for (j = 0; j < (sensors[k]).nvars; j++) {
 1156              		.loc 1 411 0 is_stmt 0 discriminator 1
 1157 014c 97F86D30 		ldrb	r3, [r7, #109]	@ zero_extendqisi2
 1158 0150 514A     		ldr	r2, .L53
 1159 0152 3421     		movs	r1, #52
 1160 0154 01FB03F3 		mul	r3, r1, r3
 1161 0158 1344     		add	r3, r3, r2
 1162 015a 0C33     		adds	r3, r3, #12
 1163 015c 1B78     		ldrb	r3, [r3]	@ zero_extendqisi2
 1164 015e 97F86E20 		ldrb	r2, [r7, #110]	@ zero_extendqisi2
 1165 0162 9A42     		cmp	r2, r3
ARM GAS  C:\Users\klabu\AppData\Local\Temp\ccOZgKV6.s 			page 30


 1166 0164 D9D3     		bcc	.L44
 1167 0166 2FE0     		b	.L45
 1168              	.L40:
 413:SDI12.c       ****                         }
 414:SDI12.c       ****                        
 415:SDI12.c       ****                     }            
 416:SDI12.c       ****                                             
 417:SDI12.c       ****                 } else {
 418:SDI12.c       ****                     // SDI12 sensor not responding. It may be powered off or have a different addre
 419:SDI12.c       ****                     valid = -1;
 1169              		.loc 1 419 0 is_stmt 1
 1170 0168 FF23     		movs	r3, #255
 1171 016a 87F86C30 		strb	r3, [r7, #108]
 420:SDI12.c       ****                     for (j = 0; j < (sensors[k]).nvars; j++) {
 1172              		.loc 1 420 0
 1173 016e 0023     		movs	r3, #0
 1174 0170 87F86E30 		strb	r3, [r7, #110]
 1175 0174 18E0     		b	.L46
 1176              	.L47:
 421:SDI12.c       ****                         (sensors[k]).values[j] = (float) valid;
 1177              		.loc 1 421 0 discriminator 3
 1178 0176 97F86D30 		ldrb	r3, [r7, #109]	@ zero_extendqisi2
 1179 017a 474A     		ldr	r2, .L53
 1180 017c 3421     		movs	r1, #52
 1181 017e 01FB03F3 		mul	r3, r1, r3
 1182 0182 1344     		add	r3, r3, r2
 1183 0184 0833     		adds	r3, r3, #8
 1184 0186 1A68     		ldr	r2, [r3]
 1185 0188 97F86E30 		ldrb	r3, [r7, #110]	@ zero_extendqisi2
 1186 018c 9B00     		lsls	r3, r3, #2
 1187 018e D418     		adds	r4, r2, r3
 1188 0190 97F86C30 		ldrb	r3, [r7, #108]	@ zero_extendqisi2
 1189 0194 1846     		mov	r0, r3
 1190 0196 FFF7FEFF 		bl	__aeabi_ui2f
 1191 019a 0346     		mov	r3, r0
 1192 019c 2360     		str	r3, [r4]	@ float
 420:SDI12.c       ****                     for (j = 0; j < (sensors[k]).nvars; j++) {
 1193              		.loc 1 420 0 discriminator 3
 1194 019e 97F86E30 		ldrb	r3, [r7, #110]	@ zero_extendqisi2
 1195 01a2 0133     		adds	r3, r3, #1
 1196 01a4 87F86E30 		strb	r3, [r7, #110]
 1197              	.L46:
 420:SDI12.c       ****                     for (j = 0; j < (sensors[k]).nvars; j++) {
 1198              		.loc 1 420 0 is_stmt 0 discriminator 1
 1199 01a8 97F86D30 		ldrb	r3, [r7, #109]	@ zero_extendqisi2
 1200 01ac 3A4A     		ldr	r2, .L53
 1201 01ae 3421     		movs	r1, #52
 1202 01b0 01FB03F3 		mul	r3, r1, r3
 1203 01b4 1344     		add	r3, r3, r2
 1204 01b6 0C33     		adds	r3, r3, #12
 1205 01b8 1B78     		ldrb	r3, [r3]	@ zero_extendqisi2
 1206 01ba 97F86E20 		ldrb	r2, [r7, #110]	@ zero_extendqisi2
 1207 01be 9A42     		cmp	r2, r3
 1208 01c0 D9D3     		bcc	.L47
 422:SDI12.c       ****                     }
 423:SDI12.c       ****                     LED_Write(1u);
 1209              		.loc 1 423 0 is_stmt 1
ARM GAS  C:\Users\klabu\AppData\Local\Temp\ccOZgKV6.s 			page 31


 1210 01c2 0120     		movs	r0, #1
 1211 01c4 FFF7FEFF 		bl	LED_Write
 1212              	.L45:
 391:SDI12.c       ****                 CyDelay(200u);
 1213              		.loc 1 391 0 discriminator 2
 1214 01c8 97F86F30 		ldrb	r3, [r7, #111]	@ zero_extendqisi2
 1215 01cc 0133     		adds	r3, r3, #1
 1216 01ce 87F86F30 		strb	r3, [r7, #111]
 1217              	.L39:
 391:SDI12.c       ****                 CyDelay(200u);
 1218              		.loc 1 391 0 is_stmt 0 discriminator 1
 1219 01d2 97F86F30 		ldrb	r3, [r7, #111]	@ zero_extendqisi2
 1220 01d6 312B     		cmp	r3, #49
 1221 01d8 7FF65DAF 		bls	.L48
 1222              	.L42:
 424:SDI12.c       ****                     
 425:SDI12.c       ****                 }
 426:SDI12.c       ****             }
 427:SDI12.c       ****             
 428:SDI12.c       ****             LED_Write(0u);
 1223              		.loc 1 428 0 is_stmt 1
 1224 01dc 0020     		movs	r0, #0
 1225 01de FFF7FEFF 		bl	LED_Write
 429:SDI12.c       ****             
 430:SDI12.c       ****             //* ---------- Insert measurement(s) from k'th SDI-12 sesnor ---------- //
 431:SDI12.c       ****             // char[] output is used for debugging purposes
 432:SDI12.c       ****             clear_str(output); 
 1226              		.loc 1 432 0
 1227 01e2 07F10803 		add	r3, r7, #8
 1228 01e6 1846     		mov	r0, r3
 1229 01e8 FFF7FEFF 		bl	clear_str
 433:SDI12.c       ****             
 434:SDI12.c       ****             // Insert current values in labels[] and readings[]
 435:SDI12.c       ****             for (j = 0; j < (sensors[k]).nvars; j++) {
 1230              		.loc 1 435 0
 1231 01ec 0023     		movs	r3, #0
 1232 01ee 87F86E30 		strb	r3, [r7, #110]
 1233 01f2 2FE0     		b	.L49
 1234              	.L50:
 436:SDI12.c       ****                 // char[] output is used for debugging purposes
 437:SDI12.c       ****                 sprintf(output,"%s %s %f", output, (sensors[k]).labels[j], (sensors[k]).values[j]);
 1235              		.loc 1 437 0 discriminator 3
 1236 01f4 97F86D30 		ldrb	r3, [r7, #109]	@ zero_extendqisi2
 1237 01f8 274A     		ldr	r2, .L53
 1238 01fa 3421     		movs	r1, #52
 1239 01fc 01FB03F3 		mul	r3, r1, r3
 1240 0200 1344     		add	r3, r3, r2
 1241 0202 0433     		adds	r3, r3, #4
 1242 0204 1A68     		ldr	r2, [r3]
 1243 0206 97F86E30 		ldrb	r3, [r7, #110]	@ zero_extendqisi2
 1244 020a 9B00     		lsls	r3, r3, #2
 1245 020c 1344     		add	r3, r3, r2
 1246 020e 1D68     		ldr	r5, [r3]
 1247 0210 97F86D30 		ldrb	r3, [r7, #109]	@ zero_extendqisi2
 1248 0214 204A     		ldr	r2, .L53
 1249 0216 3421     		movs	r1, #52
 1250 0218 01FB03F3 		mul	r3, r1, r3
ARM GAS  C:\Users\klabu\AppData\Local\Temp\ccOZgKV6.s 			page 32


 1251 021c 1344     		add	r3, r3, r2
 1252 021e 0833     		adds	r3, r3, #8
 1253 0220 1A68     		ldr	r2, [r3]
 1254 0222 97F86E30 		ldrb	r3, [r7, #110]	@ zero_extendqisi2
 1255 0226 9B00     		lsls	r3, r3, #2
 1256 0228 1344     		add	r3, r3, r2
 1257 022a 1B68     		ldr	r3, [r3]	@ float
 1258 022c 1846     		mov	r0, r3
 1259 022e FFF7FEFF 		bl	__aeabi_f2d
 1260 0232 0346     		mov	r3, r0
 1261 0234 0C46     		mov	r4, r1
 1262 0236 07F10802 		add	r2, r7, #8
 1263 023a 07F10800 		add	r0, r7, #8
 1264 023e CDE90034 		strd	r3, [sp]
 1265 0242 2B46     		mov	r3, r5
 1266 0244 1849     		ldr	r1, .L53+16
 1267 0246 FFF7FEFF 		bl	sprintf
 435:SDI12.c       ****                 // char[] output is used for debugging purposes
 1268              		.loc 1 435 0 discriminator 3
 1269 024a 97F86E30 		ldrb	r3, [r7, #110]	@ zero_extendqisi2
 1270 024e 0133     		adds	r3, r3, #1
 1271 0250 87F86E30 		strb	r3, [r7, #110]
 1272              	.L49:
 435:SDI12.c       ****                 // char[] output is used for debugging purposes
 1273              		.loc 1 435 0 is_stmt 0 discriminator 1
 1274 0254 97F86D30 		ldrb	r3, [r7, #109]	@ zero_extendqisi2
 1275 0258 0F4A     		ldr	r2, .L53
 1276 025a 3421     		movs	r1, #52
 1277 025c 01FB03F3 		mul	r3, r1, r3
 1278 0260 1344     		add	r3, r3, r2
 1279 0262 0C33     		adds	r3, r3, #12
 1280 0264 1B78     		ldrb	r3, [r3]	@ zero_extendqisi2
 1281 0266 97F86E20 		ldrb	r2, [r7, #110]	@ zero_extendqisi2
 1282 026a 9A42     		cmp	r2, r3
 1283 026c C2D3     		bcc	.L50
 1284              	.L38:
 379:SDI12.c       ****         if (0x00000001 & SDI12_flag>>k)  {
 1285              		.loc 1 379 0 is_stmt 1 discriminator 2
 1286 026e 97F86D30 		ldrb	r3, [r7, #109]	@ zero_extendqisi2
 1287 0272 0133     		adds	r3, r3, #1
 1288 0274 87F86D30 		strb	r3, [r7, #109]
 1289              	.L37:
 379:SDI12.c       ****         if (0x00000001 & SDI12_flag>>k)  {
 1290              		.loc 1 379 0 is_stmt 0 discriminator 1
 1291 0278 97F86D30 		ldrb	r3, [r7, #109]	@ zero_extendqisi2
 1292 027c 022B     		cmp	r3, #2
 1293 027e 7FF6F9AE 		bls	.L51
 438:SDI12.c       ****                 
 439:SDI12.c       ****                 /*/
 440:SDI12.c       ****                 labels[*array_ix] = (sensors[k]).labels[j];
 441:SDI12.c       ****                 readings[*array_ix] = (sensors[k]).values[j];
 442:SDI12.c       ****                 (*array_ix) += 1;
 443:SDI12.c       ****                 //*/
 444:SDI12.c       ****             }              
 445:SDI12.c       ****             
 446:SDI12.c       ****         }
 447:SDI12.c       ****           
ARM GAS  C:\Users\klabu\AppData\Local\Temp\ccOZgKV6.s 			page 33


 448:SDI12.c       ****     }
 449:SDI12.c       ****                 
 450:SDI12.c       ****     SDI12_Power_Write(0u);
 1294              		.loc 1 450 0 is_stmt 1
 1295 0282 0020     		movs	r0, #0
 1296 0284 FFF7FEFF 		bl	SDI12_Power_Write
 451:SDI12.c       ****     SDI12_stop(); 
 1297              		.loc 1 451 0
 1298 0288 FFF7FEFF 		bl	SDI12_stop
 452:SDI12.c       ****     
 453:SDI12.c       ****     return 0;//*array_ix;
 1299              		.loc 1 453 0
 1300 028c 0023     		movs	r3, #0
 454:SDI12.c       **** }
 1301              		.loc 1 454 0
 1302 028e 1846     		mov	r0, r3
 1303 0290 7037     		adds	r7, r7, #112
 1304              		.cfi_def_cfa_offset 16
 1305 0292 BD46     		mov	sp, r7
 1306              		.cfi_def_cfa_register 13
 1307              		@ sp needed
 1308 0294 B0BD     		pop	{r4, r5, r7, pc}
 1309              	.L54:
 1310 0296 00BF     		.align	2
 1311              	.L53:
 1312 0298 00000000 		.word	sensors
 1313 029c 00000000 		.word	sontek
 1314 02a0 00000000 		.word	solinst
 1315 02a4 00000000 		.word	GS3
 1316 02a8 54010000 		.word	.LC43
 1317              		.cfi_endproc
 1318              	.LFE74:
 1319              		.size	zip_SDI12, .-zip_SDI12
 1320              		.section	.text.isr_SDI12_data,"ax",%progbits
 1321              		.align	2
 1322              		.global	isr_SDI12_data
 1323              		.thumb
 1324              		.thumb_func
 1325              		.type	isr_SDI12_data, %function
 1326              	isr_SDI12_data:
 1327              	.LFB75:
 455:SDI12.c       **** 
 456:SDI12.c       **** CY_ISR(isr_SDI12_data) {
 1328              		.loc 1 456 0
 1329              		.cfi_startproc
 1330              		@ args = 0, pretend = 0, frame = 8
 1331              		@ frame_needed = 1, uses_anonymous_args = 0
 1332 0000 80B5     		push	{r7, lr}
 1333              		.cfi_def_cfa_offset 8
 1334              		.cfi_offset 7, -8
 1335              		.cfi_offset 14, -4
 1336 0002 82B0     		sub	sp, sp, #8
 1337              		.cfi_def_cfa_offset 16
 1338 0004 00AF     		add	r7, sp, #0
 1339              		.cfi_def_cfa_register 7
 457:SDI12.c       ****     // hold the next char in the rx register as a temporary variable
 458:SDI12.c       ****     char rx_char = SDI12_UART_GetChar();
ARM GAS  C:\Users\klabu\AppData\Local\Temp\ccOZgKV6.s 			page 34


 1340              		.loc 1 458 0
 1341 0006 FFF7FEFF 		bl	SDI12_UART_GetChar
 1342 000a 0346     		mov	r3, r0
 1343 000c FB71     		strb	r3, [r7, #7]
 459:SDI12.c       **** 
 460:SDI12.c       ****     // store the char in SDI12_uart_buf
 461:SDI12.c       ****     if (rx_char) {
 1344              		.loc 1 461 0
 1345 000e FB79     		ldrb	r3, [r7, #7]	@ zero_extendqisi2
 1346 0010 002B     		cmp	r3, #0
 1347 0012 09D0     		beq	.L57
 462:SDI12.c       ****         // unsigned ints don't `overflow`, they reset at 0 if they are
 463:SDI12.c       ****         // incremented one more than it's max value. It will be obvious if an
 464:SDI12.c       ****         // `overflow` occurs
 465:SDI12.c       ****         SDI12_uart_buf[SDI12_buf_idx++] = rx_char;
 1348              		.loc 1 465 0
 1349 0014 064B     		ldr	r3, .L58
 1350 0016 1B78     		ldrb	r3, [r3]	@ zero_extendqisi2
 1351 0018 5A1C     		adds	r2, r3, #1
 1352 001a D1B2     		uxtb	r1, r2
 1353 001c 044A     		ldr	r2, .L58
 1354 001e 1170     		strb	r1, [r2]
 1355 0020 1946     		mov	r1, r3
 1356 0022 044A     		ldr	r2, .L58+4
 1357 0024 FB79     		ldrb	r3, [r7, #7]
 1358 0026 5354     		strb	r3, [r2, r1]
 1359              	.L57:
 466:SDI12.c       ****     }
 467:SDI12.c       **** }
 1360              		.loc 1 467 0
 1361 0028 00BF     		nop
 1362 002a 0837     		adds	r7, r7, #8
 1363              		.cfi_def_cfa_offset 8
 1364 002c BD46     		mov	sp, r7
 1365              		.cfi_def_cfa_register 13
 1366              		@ sp needed
 1367 002e 80BD     		pop	{r7, pc}
 1368              	.L59:
 1369              		.align	2
 1370              	.L58:
 1371 0030 01010000 		.word	SDI12_buf_idx
 1372 0034 00000000 		.word	SDI12_uart_buf
 1373              		.cfi_endproc
 1374              	.LFE75:
 1375              		.size	isr_SDI12_data, .-isr_SDI12_data
 1376              		.section	.rodata
 1377 015d 000000   		.align	2
 1378              	.LC44:
 1379 0160 4D00     		.ascii	"M\000"
 1380 0162 0000     		.align	2
 1381              	.LC45:
 1382 0164 4D3100   		.ascii	"M1\000"
 1383 0167 00       		.align	2
 1384              	.LC46:
 1385 0168 4D3200   		.ascii	"M2\000"
 1386              		.global	__aeabi_d2uiz
 1387 016b 00       		.align	2
ARM GAS  C:\Users\klabu\AppData\Local\Temp\ccOZgKV6.s 			page 35


 1388              	.LC47:
 1389 016c 443000   		.ascii	"D0\000"
 1390 016f 00       		.align	2
 1391              	.LC48:
 1392 0170 443100   		.ascii	"D1\000"
 1393 0173 00       		.align	2
 1394              	.LC49:
 1395 0174 443200   		.ascii	"D2\000"
 1396              		.global	__aeabi_d2f
 1397              		.section	.text.SDI12_take_measurement,"ax",%progbits
 1398              		.align	2
 1399              		.global	SDI12_take_measurement
 1400              		.thumb
 1401              		.thumb_func
 1402              		.type	SDI12_take_measurement, %function
 1403              	SDI12_take_measurement:
 1404              	.LFB76:
 468:SDI12.c       **** //* ----- old SDI12.c before doing reverting ------------------------------------------------------
 469:SDI12.c       **** uint8 SDI12_take_measurement(SDI12_sensor* sensor) {
 1405              		.loc 1 469 0
 1406              		.cfi_startproc
 1407              		@ args = 0, pretend = 0, frame = 16
 1408              		@ frame_needed = 1, uses_anonymous_args = 0
 1409 0000 90B5     		push	{r4, r7, lr}
 1410              		.cfi_def_cfa_offset 12
 1411              		.cfi_offset 4, -12
 1412              		.cfi_offset 7, -8
 1413              		.cfi_offset 14, -4
 1414 0002 87B0     		sub	sp, sp, #28
 1415              		.cfi_def_cfa_offset 40
 1416 0004 02AF     		add	r7, sp, #8
 1417              		.cfi_def_cfa 7, 32
 1418 0006 7860     		str	r0, [r7, #4]
 1419              	.LBB2:
 470:SDI12.c       ****         
 471:SDI12.c       ****     for(uint8 j = 0; j<3; j++){
 1420              		.loc 1 471 0
 1421 0008 0023     		movs	r3, #0
 1422 000a FB73     		strb	r3, [r7, #15]
 1423 000c F9E1     		b	.L61
 1424              	.L100:
 472:SDI12.c       ****         /* 1. Request measurement from addressed SDI12 sensor */
 473:SDI12.c       ****         clear_str(command);
 1425              		.loc 1 473 0
 1426 000e A248     		ldr	r0, .L103
 1427 0010 FFF7FEFF 		bl	clear_str
 474:SDI12.c       ****         if(j==0){                                                                   //-------------
 1428              		.loc 1 474 0
 1429 0014 FB7B     		ldrb	r3, [r7, #15]	@ zero_extendqisi2
 1430 0016 002B     		cmp	r3, #0
 1431 0018 09D1     		bne	.L62
 475:SDI12.c       ****             sprintf(command,"%s%s%s",(*sensor).address,TAKE_MEASUREMENT,"!");
 1432              		.loc 1 475 0
 1433 001a 7B68     		ldr	r3, [r7, #4]
 1434 001c 1A68     		ldr	r2, [r3]
 1435 001e 9F4B     		ldr	r3, .L103+4
 1436 0020 0093     		str	r3, [sp]
ARM GAS  C:\Users\klabu\AppData\Local\Temp\ccOZgKV6.s 			page 36


 1437 0022 9F4B     		ldr	r3, .L103+8
 1438 0024 9F49     		ldr	r1, .L103+12
 1439 0026 9C48     		ldr	r0, .L103
 1440 0028 FFF7FEFF 		bl	sprintf
 1441 002c 18E0     		b	.L63
 1442              	.L62:
 476:SDI12.c       ****         }
 477:SDI12.c       ****         else if(j==1){
 1443              		.loc 1 477 0
 1444 002e FB7B     		ldrb	r3, [r7, #15]	@ zero_extendqisi2
 1445 0030 012B     		cmp	r3, #1
 1446 0032 09D1     		bne	.L64
 478:SDI12.c       ****             sprintf(command,"%s%s%s",(*sensor).address,TAKE_MEASUREMENT_1,"!");
 1447              		.loc 1 478 0
 1448 0034 7B68     		ldr	r3, [r7, #4]
 1449 0036 1A68     		ldr	r2, [r3]
 1450 0038 984B     		ldr	r3, .L103+4
 1451 003a 0093     		str	r3, [sp]
 1452 003c 9A4B     		ldr	r3, .L103+16
 1453 003e 9949     		ldr	r1, .L103+12
 1454 0040 9548     		ldr	r0, .L103
 1455 0042 FFF7FEFF 		bl	sprintf
 1456 0046 0BE0     		b	.L63
 1457              	.L64:
 479:SDI12.c       ****         }
 480:SDI12.c       ****         else if(j==2){
 1458              		.loc 1 480 0
 1459 0048 FB7B     		ldrb	r3, [r7, #15]	@ zero_extendqisi2
 1460 004a 022B     		cmp	r3, #2
 1461 004c 08D1     		bne	.L63
 481:SDI12.c       ****             sprintf(command,"%s%s%s",(*sensor).address,TAKE_MEASUREMENT_2,"!");
 1462              		.loc 1 481 0
 1463 004e 7B68     		ldr	r3, [r7, #4]
 1464 0050 1A68     		ldr	r2, [r3]
 1465 0052 924B     		ldr	r3, .L103+4
 1466 0054 0093     		str	r3, [sp]
 1467 0056 954B     		ldr	r3, .L103+20
 1468 0058 9249     		ldr	r1, .L103+12
 1469 005a 8F48     		ldr	r0, .L103
 1470 005c FFF7FEFF 		bl	sprintf
 1471              	.L63:
 482:SDI12.c       ****         }
 483:SDI12.c       ****         
 484:SDI12.c       ****         SDI12_uart_clear_string();
 1472              		.loc 1 484 0
 1473 0060 FFF7FEFF 		bl	SDI12_uart_clear_string
 485:SDI12.c       ****         SDI12_send_command(command);
 1474              		.loc 1 485 0
 1475 0064 8C48     		ldr	r0, .L103
 1476 0066 FFF7FEFF 		bl	SDI12_send_command
 486:SDI12.c       ****         
 487:SDI12.c       ****         /* 2. Delay for measurement to be taken */
 488:SDI12.c       ****         /*
 489:SDI12.c       ****          * The address sensor responds within 15.0 ms, returning the
 490:SDI12.c       ****          * maximum time until the measurement data will be ready and the
 491:SDI12.c       ****          * number of data values it will return
 492:SDI12.c       ****          */
ARM GAS  C:\Users\klabu\AppData\Local\Temp\ccOZgKV6.s 			page 37


 493:SDI12.c       ****         clear_str(value_str); 
 1477              		.loc 1 493 0
 1478 006a 9148     		ldr	r0, .L103+24
 1479 006c FFF7FEFF 		bl	clear_str
 494:SDI12.c       ****         clear_str(delay_str);
 1480              		.loc 1 494 0
 1481 0070 9048     		ldr	r0, .L103+28
 1482 0072 FFF7FEFF 		bl	clear_str
 495:SDI12.c       ****         
 496:SDI12.c       ****         // supposedly response time is 15 ms, but delaying max 1000 ms to be safe
 497:SDI12.c       ****         // TODO: When taking concurrent measurements, look for <address><CR><LF>
 498:SDI12.c       ****         for (i = 0; i < 200; i++) { 
 1483              		.loc 1 498 0
 1484 0076 904B     		ldr	r3, .L103+32
 1485 0078 0022     		movs	r2, #0
 1486 007a 1A70     		strb	r2, [r3]
 1487 007c 11E0     		b	.L65
 1488              	.L68:
 499:SDI12.c       ****             CyDelay(5u);
 1489              		.loc 1 499 0
 1490 007e 0520     		movs	r0, #5
 1491 0080 FFF7FEFF 		bl	CyDelay
 500:SDI12.c       ****             if ( strextract(SDI12_uart_buf, value_str, "!","\r\n") ) {
 1492              		.loc 1 500 0
 1493 0084 8D4B     		ldr	r3, .L103+36
 1494 0086 854A     		ldr	r2, .L103+4
 1495 0088 8949     		ldr	r1, .L103+24
 1496 008a 8D48     		ldr	r0, .L103+40
 1497 008c FFF7FEFF 		bl	strextract
 1498 0090 0346     		mov	r3, r0
 1499 0092 002B     		cmp	r3, #0
 1500 0094 0AD1     		bne	.L101
 498:SDI12.c       ****             CyDelay(5u);
 1501              		.loc 1 498 0 discriminator 2
 1502 0096 884B     		ldr	r3, .L103+32
 1503 0098 1B78     		ldrb	r3, [r3]	@ zero_extendqisi2
 1504 009a 0133     		adds	r3, r3, #1
 1505 009c DAB2     		uxtb	r2, r3
 1506 009e 864B     		ldr	r3, .L103+32
 1507 00a0 1A70     		strb	r2, [r3]
 1508              	.L65:
 498:SDI12.c       ****             CyDelay(5u);
 1509              		.loc 1 498 0 is_stmt 0 discriminator 1
 1510 00a2 854B     		ldr	r3, .L103+32
 1511 00a4 1B78     		ldrb	r3, [r3]	@ zero_extendqisi2
 1512 00a6 C72B     		cmp	r3, #199
 1513 00a8 E9D9     		bls	.L68
 1514 00aa 00E0     		b	.L67
 1515              	.L101:
 501:SDI12.c       ****                 break;
 1516              		.loc 1 501 0 is_stmt 1
 1517 00ac 00BF     		nop
 1518              	.L67:
 502:SDI12.c       ****             }
 503:SDI12.c       ****         }
 504:SDI12.c       ****         
 505:SDI12.c       ****         /* Delay while measurements are being prepared */
ARM GAS  C:\Users\klabu\AppData\Local\Temp\ccOZgKV6.s 			page 38


 506:SDI12.c       ****         /*
 507:SDI12.c       ****          * The returned format for <address>M! is atttn<CR><LF>
 508:SDI12.c       ****          * (NOTE: The returned format for <address>C! is atttnn<CR><LF> -- this will be useful when
 509:SDI12.c       ****          *        concurrent measurements in the future)
 510:SDI12.c       ****          * Where,
 511:SDI12.c       ****          * -    a: sensor address
 512:SDI12.c       ****          * -  ttt: maximum time until measurement is ready
 513:SDI12.c       ****          * - n(n): number of data values that will be returned
 514:SDI12.c       ****          */
 515:SDI12.c       ****         strncpy(delay_str, value_str+strlen((*sensor).address), 3); // shift ptr by strlen(...) to 
 1519              		.loc 1 515 0
 1520 00ae 7B68     		ldr	r3, [r7, #4]
 1521 00b0 1B68     		ldr	r3, [r3]
 1522 00b2 1846     		mov	r0, r3
 1523 00b4 FFF7FEFF 		bl	strlen
 1524 00b8 0246     		mov	r2, r0
 1525 00ba 7D4B     		ldr	r3, .L103+24
 1526 00bc 1344     		add	r3, r3, r2
 1527 00be 0322     		movs	r2, #3
 1528 00c0 1946     		mov	r1, r3
 1529 00c2 7C48     		ldr	r0, .L103+28
 1530 00c4 FFF7FEFF 		bl	strncpy
 516:SDI12.c       ****         ms_delay = ( (uint32) strtod(delay_str,(char**) NULL) ) * 1000u;
 1531              		.loc 1 516 0
 1532 00c8 0021     		movs	r1, #0
 1533 00ca 7A48     		ldr	r0, .L103+28
 1534 00cc FFF7FEFF 		bl	strtod
 1535 00d0 0346     		mov	r3, r0
 1536 00d2 0C46     		mov	r4, r1
 1537 00d4 1846     		mov	r0, r3
 1538 00d6 2146     		mov	r1, r4
 1539 00d8 FFF7FEFF 		bl	__aeabi_d2uiz
 1540 00dc 0246     		mov	r2, r0
 1541 00de 4FF47A73 		mov	r3, #1000
 1542 00e2 03FB02F3 		mul	r3, r3, r2
 1543 00e6 774A     		ldr	r2, .L103+44
 1544 00e8 1360     		str	r3, [r2]
 517:SDI12.c       ****         CyDelay(ms_delay);
 1545              		.loc 1 517 0
 1546 00ea 764B     		ldr	r3, .L103+44
 1547 00ec 1B68     		ldr	r3, [r3]
 1548 00ee 1846     		mov	r0, r3
 1549 00f0 FFF7FEFF 		bl	CyDelay
 1550              	.LBB3:
 518:SDI12.c       ****         
 519:SDI12.c       ****         /* 3. Request data from SDI12 sensor */
 520:SDI12.c       ****         //clear_str(command);    
 521:SDI12.c       ****         //clear_str(value_str);
 522:SDI12.c       ****         for(uint8 k = 0; k<3; k++){                 //-------------------------------added only wil
 1551              		.loc 1 522 0
 1552 00f4 0023     		movs	r3, #0
 1553 00f6 BB73     		strb	r3, [r7, #14]
 1554 00f8 7CE1     		b	.L69
 1555              	.L99:
 1556              	.LBB4:
 523:SDI12.c       ****             clear_str(command);    
 1557              		.loc 1 523 0
ARM GAS  C:\Users\klabu\AppData\Local\Temp\ccOZgKV6.s 			page 39


 1558 00fa 6748     		ldr	r0, .L103
 1559 00fc FFF7FEFF 		bl	clear_str
 524:SDI12.c       ****             clear_str(value_str);
 1560              		.loc 1 524 0
 1561 0100 6B48     		ldr	r0, .L103+24
 1562 0102 FFF7FEFF 		bl	clear_str
 525:SDI12.c       ****             
 526:SDI12.c       ****             if(k==0){
 1563              		.loc 1 526 0
 1564 0106 BB7B     		ldrb	r3, [r7, #14]	@ zero_extendqisi2
 1565 0108 002B     		cmp	r3, #0
 1566 010a 09D1     		bne	.L70
 527:SDI12.c       ****                 sprintf(command,"%s%s%s",(*sensor).address,READ_MEASUREMENT,"!");
 1567              		.loc 1 527 0
 1568 010c 7B68     		ldr	r3, [r7, #4]
 1569 010e 1A68     		ldr	r2, [r3]
 1570 0110 624B     		ldr	r3, .L103+4
 1571 0112 0093     		str	r3, [sp]
 1572 0114 6C4B     		ldr	r3, .L103+48
 1573 0116 6349     		ldr	r1, .L103+12
 1574 0118 5F48     		ldr	r0, .L103
 1575 011a FFF7FEFF 		bl	sprintf
 1576 011e 18E0     		b	.L71
 1577              	.L70:
 528:SDI12.c       ****             }
 529:SDI12.c       ****             else if(k==1){
 1578              		.loc 1 529 0
 1579 0120 BB7B     		ldrb	r3, [r7, #14]	@ zero_extendqisi2
 1580 0122 012B     		cmp	r3, #1
 1581 0124 09D1     		bne	.L72
 530:SDI12.c       ****                 sprintf(command,"%s%s%s",(*sensor).address,READ_MEASUREMENT_1,"!");
 1582              		.loc 1 530 0
 1583 0126 7B68     		ldr	r3, [r7, #4]
 1584 0128 1A68     		ldr	r2, [r3]
 1585 012a 5C4B     		ldr	r3, .L103+4
 1586 012c 0093     		str	r3, [sp]
 1587 012e 674B     		ldr	r3, .L103+52
 1588 0130 5C49     		ldr	r1, .L103+12
 1589 0132 5948     		ldr	r0, .L103
 1590 0134 FFF7FEFF 		bl	sprintf
 1591 0138 0BE0     		b	.L71
 1592              	.L72:
 531:SDI12.c       ****             }
 532:SDI12.c       ****             else if(k==2){
 1593              		.loc 1 532 0
 1594 013a BB7B     		ldrb	r3, [r7, #14]	@ zero_extendqisi2
 1595 013c 022B     		cmp	r3, #2
 1596 013e 08D1     		bne	.L71
 533:SDI12.c       ****                 sprintf(command,"%s%s%s",(*sensor).address,READ_MEASUREMENT_2,"!");
 1597              		.loc 1 533 0
 1598 0140 7B68     		ldr	r3, [r7, #4]
 1599 0142 1A68     		ldr	r2, [r3]
 1600 0144 554B     		ldr	r3, .L103+4
 1601 0146 0093     		str	r3, [sp]
 1602 0148 614B     		ldr	r3, .L103+56
 1603 014a 5649     		ldr	r1, .L103+12
 1604 014c 5248     		ldr	r0, .L103
ARM GAS  C:\Users\klabu\AppData\Local\Temp\ccOZgKV6.s 			page 40


 1605 014e FFF7FEFF 		bl	sprintf
 1606              	.L71:
 534:SDI12.c       ****             }
 535:SDI12.c       ****             
 536:SDI12.c       ****             SDI12_uart_clear_string();
 1607              		.loc 1 536 0
 1608 0152 FFF7FEFF 		bl	SDI12_uart_clear_string
 537:SDI12.c       ****             SDI12_send_command(command);
 1609              		.loc 1 537 0
 1610 0156 5048     		ldr	r0, .L103
 1611 0158 FFF7FEFF 		bl	SDI12_send_command
 538:SDI12.c       ****             
 539:SDI12.c       ****             // Delay a maximum of 1000 ms as readings are transmitted
 540:SDI12.c       ****             for (i = 0; i < 200; i++) {
 1612              		.loc 1 540 0
 1613 015c 564B     		ldr	r3, .L103+32
 1614 015e 0022     		movs	r2, #0
 1615 0160 1A70     		strb	r2, [r3]
 1616 0162 11E0     		b	.L73
 1617              	.L76:
 541:SDI12.c       ****                 CyDelay(5u);
 1618              		.loc 1 541 0
 1619 0164 0520     		movs	r0, #5
 1620 0166 FFF7FEFF 		bl	CyDelay
 542:SDI12.c       ****                 
 543:SDI12.c       ****                 // Copy the SDI12 UART buffer into temporary buffer, value_str
 544:SDI12.c       ****                 // and break once "\r\n" is returned
 545:SDI12.c       ****                 if ( strextract(SDI12_uart_buf, value_str, "!","\r\n") ) {
 1621              		.loc 1 545 0
 1622 016a 544B     		ldr	r3, .L103+36
 1623 016c 4B4A     		ldr	r2, .L103+4
 1624 016e 5049     		ldr	r1, .L103+24
 1625 0170 5348     		ldr	r0, .L103+40
 1626 0172 FFF7FEFF 		bl	strextract
 1627 0176 0346     		mov	r3, r0
 1628 0178 002B     		cmp	r3, #0
 1629 017a 0AD1     		bne	.L102
 540:SDI12.c       ****                 CyDelay(5u);
 1630              		.loc 1 540 0 discriminator 2
 1631 017c 4E4B     		ldr	r3, .L103+32
 1632 017e 1B78     		ldrb	r3, [r3]	@ zero_extendqisi2
 1633 0180 0133     		adds	r3, r3, #1
 1634 0182 DAB2     		uxtb	r2, r3
 1635 0184 4C4B     		ldr	r3, .L103+32
 1636 0186 1A70     		strb	r2, [r3]
 1637              	.L73:
 540:SDI12.c       ****                 CyDelay(5u);
 1638              		.loc 1 540 0 is_stmt 0 discriminator 1
 1639 0188 4B4B     		ldr	r3, .L103+32
 1640 018a 1B78     		ldrb	r3, [r3]	@ zero_extendqisi2
 1641 018c C72B     		cmp	r3, #199
 1642 018e E9D9     		bls	.L76
 1643 0190 00E0     		b	.L75
 1644              	.L102:
 546:SDI12.c       ****                     break;
 1645              		.loc 1 546 0 is_stmt 1
 1646 0192 00BF     		nop
ARM GAS  C:\Users\klabu\AppData\Local\Temp\ccOZgKV6.s 			page 41


 1647              	.L75:
 547:SDI12.c       ****                 }
 548:SDI12.c       ****             }
 549:SDI12.c       ****             
 550:SDI12.c       ****             
 551:SDI12.c       ****             /* 4. Parse the received data */    
 552:SDI12.c       ****             // Check for "+" or "-" signs to ensure data was sent
 553:SDI12.c       ****             // First check for "+"
 554:SDI12.c       ****             char* location = value_str;
 1648              		.loc 1 554 0
 1649 0194 464B     		ldr	r3, .L103+24
 1650 0196 BB60     		str	r3, [r7, #8]
 555:SDI12.c       ****             sign = strstr(location,"+");
 1651              		.loc 1 555 0
 1652 0198 2B21     		movs	r1, #43
 1653 019a B868     		ldr	r0, [r7, #8]
 1654 019c FFF7FEFF 		bl	strchr
 1655 01a0 0246     		mov	r2, r0
 1656 01a2 4C4B     		ldr	r3, .L103+60
 1657 01a4 1A60     		str	r2, [r3]
 556:SDI12.c       ****             if (sign == NULL) {
 1658              		.loc 1 556 0
 1659 01a6 4B4B     		ldr	r3, .L103+60
 1660 01a8 1B68     		ldr	r3, [r3]
 1661 01aa 002B     		cmp	r3, #0
 1662 01ac 24D1     		bne	.L77
 557:SDI12.c       ****                 // If there is no + sign, check for "-"
 558:SDI12.c       ****                 sign = strstr(location,"-");
 1663              		.loc 1 558 0
 1664 01ae 2D21     		movs	r1, #45
 1665 01b0 B868     		ldr	r0, [r7, #8]
 1666 01b2 FFF7FEFF 		bl	strchr
 1667 01b6 0246     		mov	r2, r0
 1668 01b8 464B     		ldr	r3, .L103+60
 1669 01ba 1A60     		str	r2, [r3]
 559:SDI12.c       ****                 
 560:SDI12.c       ****                 // The absence of "+" or "-" indicates no data was sent yet
 561:SDI12.c       ****                 // Return 0 and try querying the sensor again later
 562:SDI12.c       ****                 if (sign == NULL) {
 1670              		.loc 1 562 0
 1671 01bc 454B     		ldr	r3, .L103+60
 1672 01be 1B68     		ldr	r3, [r3]
 1673 01c0 002B     		cmp	r3, #0
 1674 01c2 19D1     		bne	.L77
 563:SDI12.c       ****                     for (i = 0; i < (*sensor).nvars; i++) {
 1675              		.loc 1 563 0
 1676 01c4 3C4B     		ldr	r3, .L103+32
 1677 01c6 0022     		movs	r2, #0
 1678 01c8 1A70     		strb	r2, [r3]
 1679 01ca 0DE0     		b	.L78
 1680              	.L79:
 564:SDI12.c       ****                         (*sensor).values[i] = -9999.0f;
 1681              		.loc 1 564 0 discriminator 3
 1682 01cc 7B68     		ldr	r3, [r7, #4]
 1683 01ce 9A68     		ldr	r2, [r3, #8]
 1684 01d0 394B     		ldr	r3, .L103+32
 1685 01d2 1B78     		ldrb	r3, [r3]	@ zero_extendqisi2
ARM GAS  C:\Users\klabu\AppData\Local\Temp\ccOZgKV6.s 			page 42


 1686 01d4 9B00     		lsls	r3, r3, #2
 1687 01d6 1344     		add	r3, r3, r2
 1688 01d8 3F4A     		ldr	r2, .L103+64
 1689 01da 1A60     		str	r2, [r3]	@ float
 563:SDI12.c       ****                     for (i = 0; i < (*sensor).nvars; i++) {
 1690              		.loc 1 563 0 discriminator 3
 1691 01dc 364B     		ldr	r3, .L103+32
 1692 01de 1B78     		ldrb	r3, [r3]	@ zero_extendqisi2
 1693 01e0 0133     		adds	r3, r3, #1
 1694 01e2 DAB2     		uxtb	r2, r3
 1695 01e4 344B     		ldr	r3, .L103+32
 1696 01e6 1A70     		strb	r2, [r3]
 1697              	.L78:
 563:SDI12.c       ****                     for (i = 0; i < (*sensor).nvars; i++) {
 1698              		.loc 1 563 0 is_stmt 0 discriminator 1
 1699 01e8 7B68     		ldr	r3, [r7, #4]
 1700 01ea 1A7B     		ldrb	r2, [r3, #12]	@ zero_extendqisi2
 1701 01ec 324B     		ldr	r3, .L103+32
 1702 01ee 1B78     		ldrb	r3, [r3]	@ zero_extendqisi2
 1703 01f0 9A42     		cmp	r2, r3
 1704 01f2 EBD8     		bhi	.L79
 565:SDI12.c       ****                     }
 566:SDI12.c       ****                     return 0u;
 1705              		.loc 1 566 0 is_stmt 1
 1706 01f4 0023     		movs	r3, #0
 1707 01f6 09E1     		b	.L80
 1708              	.L77:
 567:SDI12.c       ****                 }
 568:SDI12.c       ****             }
 569:SDI12.c       ****             
 570:SDI12.c       ****             // Set the pointer to the start of the returned results
 571:SDI12.c       ****             // and shift forward past the address byte
 572:SDI12.c       ****             ptr_end = value_str + strlen((*sensor).address);
 1709              		.loc 1 572 0
 1710 01f8 7B68     		ldr	r3, [r7, #4]
 1711 01fa 1B68     		ldr	r3, [r3]
 1712 01fc 1846     		mov	r0, r3
 1713 01fe FFF7FEFF 		bl	strlen
 1714 0202 0246     		mov	r2, r0
 1715 0204 2A4B     		ldr	r3, .L103+24
 1716 0206 1344     		add	r3, r3, r2
 1717 0208 344A     		ldr	r2, .L103+68
 1718 020a 1360     		str	r3, [r2]
 573:SDI12.c       ****             
 574:SDI12.c       ****             // Parse and store all values returned from the sensor
 575:SDI12.c       ****             uint8 max = 0u;
 1719              		.loc 1 575 0
 1720 020c 0023     		movs	r3, #0
 1721 020e 7B73     		strb	r3, [r7, #13]
 576:SDI12.c       ****             if(j==0){
 1722              		.loc 1 576 0
 1723 0210 FB7B     		ldrb	r3, [r7, #15]	@ zero_extendqisi2
 1724 0212 002B     		cmp	r3, #0
 1725 0214 64D1     		bne	.L81
 577:SDI12.c       ****                 if(k==0){i=0; max=4+i;}///add the +i for the max so that the range of i matches wit
 1726              		.loc 1 577 0
 1727 0216 BB7B     		ldrb	r3, [r7, #14]	@ zero_extendqisi2
ARM GAS  C:\Users\klabu\AppData\Local\Temp\ccOZgKV6.s 			page 43


 1728 0218 002B     		cmp	r3, #0
 1729 021a 07D1     		bne	.L82
 1730              		.loc 1 577 0 is_stmt 0 discriminator 1
 1731 021c 264B     		ldr	r3, .L103+32
 1732 021e 0022     		movs	r2, #0
 1733 0220 1A70     		strb	r2, [r3]
 1734 0222 254B     		ldr	r3, .L103+32
 1735 0224 1B78     		ldrb	r3, [r3]	@ zero_extendqisi2
 1736 0226 0433     		adds	r3, r3, #4
 1737 0228 7B73     		strb	r3, [r7, #13]
 1738 022a 2FE0     		b	.L85
 1739              	.L82:
 578:SDI12.c       ****                 else if(k==1){i=4;max=4+i;}
 1740              		.loc 1 578 0 is_stmt 1
 1741 022c BB7B     		ldrb	r3, [r7, #14]	@ zero_extendqisi2
 1742 022e 012B     		cmp	r3, #1
 1743 0230 07D1     		bne	.L84
 1744              		.loc 1 578 0 is_stmt 0 discriminator 1
 1745 0232 214B     		ldr	r3, .L103+32
 1746 0234 0422     		movs	r2, #4
 1747 0236 1A70     		strb	r2, [r3]
 1748 0238 1F4B     		ldr	r3, .L103+32
 1749 023a 1B78     		ldrb	r3, [r3]	@ zero_extendqisi2
 1750 023c 0433     		adds	r3, r3, #4
 1751 023e 7B73     		strb	r3, [r7, #13]
 1752 0240 24E0     		b	.L85
 1753              	.L84:
 579:SDI12.c       ****                 else if(k==2){i=8;max=1+i;}
 1754              		.loc 1 579 0 is_stmt 1
 1755 0242 BB7B     		ldrb	r3, [r7, #14]	@ zero_extendqisi2
 1756 0244 022B     		cmp	r3, #2
 1757 0246 21D1     		bne	.L85
 1758              		.loc 1 579 0 is_stmt 0 discriminator 1
 1759 0248 1B4B     		ldr	r3, .L103+32
 1760 024a 0822     		movs	r2, #8
 1761 024c 1A70     		strb	r2, [r3]
 1762 024e 1A4B     		ldr	r3, .L103+32
 1763 0250 1B78     		ldrb	r3, [r3]	@ zero_extendqisi2
 1764 0252 0133     		adds	r3, r3, #1
 1765 0254 7B73     		strb	r3, [r7, #13]
 580:SDI12.c       ****                 for (; i < max; i++) {                             //------------changes were made 
 1766              		.loc 1 580 0 is_stmt 1 discriminator 1
 1767 0256 19E0     		b	.L85
 1768              	.L86:
 581:SDI12.c       ****                     (*sensor).values[i] = (float) strtod(ptr_end, &ptr_end);
 1769              		.loc 1 581 0 discriminator 2
 1770 0258 7B68     		ldr	r3, [r7, #4]
 1771 025a 9A68     		ldr	r2, [r3, #8]
 1772 025c 164B     		ldr	r3, .L103+32
 1773 025e 1B78     		ldrb	r3, [r3]	@ zero_extendqisi2
 1774 0260 9B00     		lsls	r3, r3, #2
 1775 0262 D418     		adds	r4, r2, r3
 1776 0264 1D4B     		ldr	r3, .L103+68
 1777 0266 1B68     		ldr	r3, [r3]
 1778 0268 1C49     		ldr	r1, .L103+68
 1779 026a 1846     		mov	r0, r3
 1780 026c FFF7FEFF 		bl	strtod
ARM GAS  C:\Users\klabu\AppData\Local\Temp\ccOZgKV6.s 			page 44


 1781 0270 0246     		mov	r2, r0
 1782 0272 0B46     		mov	r3, r1
 1783 0274 1046     		mov	r0, r2
 1784 0276 1946     		mov	r1, r3
 1785 0278 FFF7FEFF 		bl	__aeabi_d2f
 1786 027c 0346     		mov	r3, r0
 1787 027e 2360     		str	r3, [r4]	@ float
 580:SDI12.c       ****                 for (; i < max; i++) {                             //------------changes were made 
 1788              		.loc 1 580 0 discriminator 2
 1789 0280 0D4B     		ldr	r3, .L103+32
 1790 0282 1B78     		ldrb	r3, [r3]	@ zero_extendqisi2
 1791 0284 0133     		adds	r3, r3, #1
 1792 0286 DAB2     		uxtb	r2, r3
 1793 0288 0B4B     		ldr	r3, .L103+32
 1794 028a 1A70     		strb	r2, [r3]
 1795              	.L85:
 580:SDI12.c       ****                 for (; i < max; i++) {                             //------------changes were made 
 1796              		.loc 1 580 0 is_stmt 0 discriminator 1
 1797 028c 0A4B     		ldr	r3, .L103+32
 1798 028e 1B78     		ldrb	r3, [r3]	@ zero_extendqisi2
 1799 0290 7A7B     		ldrb	r2, [r7, #13]	@ zero_extendqisi2
 1800 0292 9A42     		cmp	r2, r3
 1801 0294 E0D8     		bhi	.L86
 1802 0296 AAE0     		b	.L87
 1803              	.L104:
 1804              		.align	2
 1805              	.L103:
 1806 0298 00000000 		.word	command
 1807 029c 30010000 		.word	.LC37
 1808 02a0 60010000 		.word	.LC44
 1809 02a4 28010000 		.word	.LC36
 1810 02a8 64010000 		.word	.LC45
 1811 02ac 68010000 		.word	.LC46
 1812 02b0 00000000 		.word	value_str
 1813 02b4 00000000 		.word	delay_str
 1814 02b8 00000000 		.word	i
 1815 02bc 34010000 		.word	.LC38
 1816 02c0 00000000 		.word	SDI12_uart_buf
 1817 02c4 00000000 		.word	ms_delay
 1818 02c8 6C010000 		.word	.LC47
 1819 02cc 70010000 		.word	.LC48
 1820 02d0 74010000 		.word	.LC49
 1821 02d4 00000000 		.word	sign
 1822 02d8 003C1CC6 		.word	-971228160
 1823 02dc 00000000 		.word	ptr_end
 1824              	.L81:
 582:SDI12.c       ****                 }
 583:SDI12.c       ****             }
 584:SDI12.c       ****             else if(j==1){
 1825              		.loc 1 584 0 is_stmt 1
 1826 02e0 FB7B     		ldrb	r3, [r7, #15]	@ zero_extendqisi2
 1827 02e2 012B     		cmp	r3, #1
 1828 02e4 40D1     		bne	.L88
 585:SDI12.c       ****                 if(k==0){i=9; max=4+i;}
 1829              		.loc 1 585 0
 1830 02e6 BB7B     		ldrb	r3, [r7, #14]	@ zero_extendqisi2
 1831 02e8 002B     		cmp	r3, #0
ARM GAS  C:\Users\klabu\AppData\Local\Temp\ccOZgKV6.s 			page 45


 1832 02ea 07D1     		bne	.L89
 1833              		.loc 1 585 0 is_stmt 0 discriminator 1
 1834 02ec 494B     		ldr	r3, .L105
 1835 02ee 0922     		movs	r2, #9
 1836 02f0 1A70     		strb	r2, [r3]
 1837 02f2 484B     		ldr	r3, .L105
 1838 02f4 1B78     		ldrb	r3, [r3]	@ zero_extendqisi2
 1839 02f6 0433     		adds	r3, r3, #4
 1840 02f8 7B73     		strb	r3, [r7, #13]
 1841 02fa 2FE0     		b	.L92
 1842              	.L89:
 586:SDI12.c       ****                 else if(k==1){i=13; max=4+i;}
 1843              		.loc 1 586 0 is_stmt 1
 1844 02fc BB7B     		ldrb	r3, [r7, #14]	@ zero_extendqisi2
 1845 02fe 012B     		cmp	r3, #1
 1846 0300 07D1     		bne	.L91
 1847              		.loc 1 586 0 is_stmt 0 discriminator 1
 1848 0302 444B     		ldr	r3, .L105
 1849 0304 0D22     		movs	r2, #13
 1850 0306 1A70     		strb	r2, [r3]
 1851 0308 424B     		ldr	r3, .L105
 1852 030a 1B78     		ldrb	r3, [r3]	@ zero_extendqisi2
 1853 030c 0433     		adds	r3, r3, #4
 1854 030e 7B73     		strb	r3, [r7, #13]
 1855 0310 24E0     		b	.L92
 1856              	.L91:
 587:SDI12.c       ****                 else if(k==2){i=17; max=1+i;}
 1857              		.loc 1 587 0 is_stmt 1
 1858 0312 BB7B     		ldrb	r3, [r7, #14]	@ zero_extendqisi2
 1859 0314 022B     		cmp	r3, #2
 1860 0316 21D1     		bne	.L92
 1861              		.loc 1 587 0 is_stmt 0 discriminator 1
 1862 0318 3E4B     		ldr	r3, .L105
 1863 031a 1122     		movs	r2, #17
 1864 031c 1A70     		strb	r2, [r3]
 1865 031e 3D4B     		ldr	r3, .L105
 1866 0320 1B78     		ldrb	r3, [r3]	@ zero_extendqisi2
 1867 0322 0133     		adds	r3, r3, #1
 1868 0324 7B73     		strb	r3, [r7, #13]
 588:SDI12.c       ****                 for (; i < max; i++) {                             //------------changes were made 
 1869              		.loc 1 588 0 is_stmt 1 discriminator 1
 1870 0326 19E0     		b	.L92
 1871              	.L93:
 589:SDI12.c       ****                     (*sensor).values[i] = (float) strtod(ptr_end, &ptr_end);
 1872              		.loc 1 589 0 discriminator 2
 1873 0328 7B68     		ldr	r3, [r7, #4]
 1874 032a 9A68     		ldr	r2, [r3, #8]
 1875 032c 394B     		ldr	r3, .L105
 1876 032e 1B78     		ldrb	r3, [r3]	@ zero_extendqisi2
 1877 0330 9B00     		lsls	r3, r3, #2
 1878 0332 D418     		adds	r4, r2, r3
 1879 0334 384B     		ldr	r3, .L105+4
 1880 0336 1B68     		ldr	r3, [r3]
 1881 0338 3749     		ldr	r1, .L105+4
 1882 033a 1846     		mov	r0, r3
 1883 033c FFF7FEFF 		bl	strtod
 1884 0340 0246     		mov	r2, r0
ARM GAS  C:\Users\klabu\AppData\Local\Temp\ccOZgKV6.s 			page 46


 1885 0342 0B46     		mov	r3, r1
 1886 0344 1046     		mov	r0, r2
 1887 0346 1946     		mov	r1, r3
 1888 0348 FFF7FEFF 		bl	__aeabi_d2f
 1889 034c 0346     		mov	r3, r0
 1890 034e 2360     		str	r3, [r4]	@ float
 588:SDI12.c       ****                 for (; i < max; i++) {                             //------------changes were made 
 1891              		.loc 1 588 0 discriminator 2
 1892 0350 304B     		ldr	r3, .L105
 1893 0352 1B78     		ldrb	r3, [r3]	@ zero_extendqisi2
 1894 0354 0133     		adds	r3, r3, #1
 1895 0356 DAB2     		uxtb	r2, r3
 1896 0358 2E4B     		ldr	r3, .L105
 1897 035a 1A70     		strb	r2, [r3]
 1898              	.L92:
 588:SDI12.c       ****                 for (; i < max; i++) {                             //------------changes were made 
 1899              		.loc 1 588 0 is_stmt 0 discriminator 1
 1900 035c 2D4B     		ldr	r3, .L105
 1901 035e 1B78     		ldrb	r3, [r3]	@ zero_extendqisi2
 1902 0360 7A7B     		ldrb	r2, [r7, #13]	@ zero_extendqisi2
 1903 0362 9A42     		cmp	r2, r3
 1904 0364 E0D8     		bhi	.L93
 1905 0366 42E0     		b	.L87
 1906              	.L88:
 590:SDI12.c       ****                 }
 591:SDI12.c       ****             }
 592:SDI12.c       ****             else if(j==2){
 1907              		.loc 1 592 0 is_stmt 1
 1908 0368 FB7B     		ldrb	r3, [r7, #15]	@ zero_extendqisi2
 1909 036a 022B     		cmp	r3, #2
 1910 036c 3FD1     		bne	.L87
 593:SDI12.c       ****                 if(k==0){i=18; max=4+i;}
 1911              		.loc 1 593 0
 1912 036e BB7B     		ldrb	r3, [r7, #14]	@ zero_extendqisi2
 1913 0370 002B     		cmp	r3, #0
 1914 0372 07D1     		bne	.L94
 1915              		.loc 1 593 0 is_stmt 0 discriminator 1
 1916 0374 274B     		ldr	r3, .L105
 1917 0376 1222     		movs	r2, #18
 1918 0378 1A70     		strb	r2, [r3]
 1919 037a 264B     		ldr	r3, .L105
 1920 037c 1B78     		ldrb	r3, [r3]	@ zero_extendqisi2
 1921 037e 0433     		adds	r3, r3, #4
 1922 0380 7B73     		strb	r3, [r7, #13]
 1923 0382 2FE0     		b	.L97
 1924              	.L94:
 594:SDI12.c       ****                 else if(k==1){i=22; max=4+i;}
 1925              		.loc 1 594 0 is_stmt 1
 1926 0384 BB7B     		ldrb	r3, [r7, #14]	@ zero_extendqisi2
 1927 0386 012B     		cmp	r3, #1
 1928 0388 07D1     		bne	.L96
 1929              		.loc 1 594 0 is_stmt 0 discriminator 1
 1930 038a 224B     		ldr	r3, .L105
 1931 038c 1622     		movs	r2, #22
 1932 038e 1A70     		strb	r2, [r3]
 1933 0390 204B     		ldr	r3, .L105
 1934 0392 1B78     		ldrb	r3, [r3]	@ zero_extendqisi2
ARM GAS  C:\Users\klabu\AppData\Local\Temp\ccOZgKV6.s 			page 47


 1935 0394 0433     		adds	r3, r3, #4
 1936 0396 7B73     		strb	r3, [r7, #13]
 1937 0398 24E0     		b	.L97
 1938              	.L96:
 595:SDI12.c       ****                 else if(k==2){i=26; max=1+i;}
 1939              		.loc 1 595 0 is_stmt 1
 1940 039a BB7B     		ldrb	r3, [r7, #14]	@ zero_extendqisi2
 1941 039c 022B     		cmp	r3, #2
 1942 039e 21D1     		bne	.L97
 1943              		.loc 1 595 0 is_stmt 0 discriminator 1
 1944 03a0 1C4B     		ldr	r3, .L105
 1945 03a2 1A22     		movs	r2, #26
 1946 03a4 1A70     		strb	r2, [r3]
 1947 03a6 1B4B     		ldr	r3, .L105
 1948 03a8 1B78     		ldrb	r3, [r3]	@ zero_extendqisi2
 1949 03aa 0133     		adds	r3, r3, #1
 1950 03ac 7B73     		strb	r3, [r7, #13]
 596:SDI12.c       ****                 for (; i < max; i++) {                             //------------changes were made 
 1951              		.loc 1 596 0 is_stmt 1 discriminator 1
 1952 03ae 19E0     		b	.L97
 1953              	.L98:
 597:SDI12.c       ****                     (*sensor).values[i] = (float) strtod(ptr_end, &ptr_end);
 1954              		.loc 1 597 0 discriminator 2
 1955 03b0 7B68     		ldr	r3, [r7, #4]
 1956 03b2 9A68     		ldr	r2, [r3, #8]
 1957 03b4 174B     		ldr	r3, .L105
 1958 03b6 1B78     		ldrb	r3, [r3]	@ zero_extendqisi2
 1959 03b8 9B00     		lsls	r3, r3, #2
 1960 03ba D418     		adds	r4, r2, r3
 1961 03bc 164B     		ldr	r3, .L105+4
 1962 03be 1B68     		ldr	r3, [r3]
 1963 03c0 1549     		ldr	r1, .L105+4
 1964 03c2 1846     		mov	r0, r3
 1965 03c4 FFF7FEFF 		bl	strtod
 1966 03c8 0246     		mov	r2, r0
 1967 03ca 0B46     		mov	r3, r1
 1968 03cc 1046     		mov	r0, r2
 1969 03ce 1946     		mov	r1, r3
 1970 03d0 FFF7FEFF 		bl	__aeabi_d2f
 1971 03d4 0346     		mov	r3, r0
 1972 03d6 2360     		str	r3, [r4]	@ float
 596:SDI12.c       ****                 for (; i < max; i++) {                             //------------changes were made 
 1973              		.loc 1 596 0 discriminator 2
 1974 03d8 0E4B     		ldr	r3, .L105
 1975 03da 1B78     		ldrb	r3, [r3]	@ zero_extendqisi2
 1976 03dc 0133     		adds	r3, r3, #1
 1977 03de DAB2     		uxtb	r2, r3
 1978 03e0 0C4B     		ldr	r3, .L105
 1979 03e2 1A70     		strb	r2, [r3]
 1980              	.L97:
 596:SDI12.c       ****                 for (; i < max; i++) {                             //------------changes were made 
 1981              		.loc 1 596 0 is_stmt 0 discriminator 1
 1982 03e4 0B4B     		ldr	r3, .L105
 1983 03e6 1B78     		ldrb	r3, [r3]	@ zero_extendqisi2
 1984 03e8 7A7B     		ldrb	r2, [r7, #13]	@ zero_extendqisi2
 1985 03ea 9A42     		cmp	r2, r3
 1986 03ec E0D8     		bhi	.L98
ARM GAS  C:\Users\klabu\AppData\Local\Temp\ccOZgKV6.s 			page 48


 1987              	.L87:
 1988              	.LBE4:
 522:SDI12.c       ****             clear_str(command);    
 1989              		.loc 1 522 0 is_stmt 1 discriminator 2
 1990 03ee BB7B     		ldrb	r3, [r7, #14]	@ zero_extendqisi2
 1991 03f0 0133     		adds	r3, r3, #1
 1992 03f2 BB73     		strb	r3, [r7, #14]
 1993              	.L69:
 522:SDI12.c       ****             clear_str(command);    
 1994              		.loc 1 522 0 is_stmt 0 discriminator 1
 1995 03f4 BB7B     		ldrb	r3, [r7, #14]	@ zero_extendqisi2
 1996 03f6 022B     		cmp	r3, #2
 1997 03f8 7FF67FAE 		bls	.L99
 1998              	.LBE3:
 471:SDI12.c       ****         /* 1. Request measurement from addressed SDI12 sensor */
 1999              		.loc 1 471 0 is_stmt 1 discriminator 2
 2000 03fc FB7B     		ldrb	r3, [r7, #15]	@ zero_extendqisi2
 2001 03fe 0133     		adds	r3, r3, #1
 2002 0400 FB73     		strb	r3, [r7, #15]
 2003              	.L61:
 471:SDI12.c       ****         /* 1. Request measurement from addressed SDI12 sensor */
 2004              		.loc 1 471 0 is_stmt 0 discriminator 1
 2005 0402 FB7B     		ldrb	r3, [r7, #15]	@ zero_extendqisi2
 2006 0404 022B     		cmp	r3, #2
 2007 0406 7FF602AE 		bls	.L100
 2008              	.LBE2:
 598:SDI12.c       ****                 }
 599:SDI12.c       ****             }
 600:SDI12.c       ****         }
 601:SDI12.c       ****     }
 602:SDI12.c       ****     return 1u;
 2009              		.loc 1 602 0 is_stmt 1
 2010 040a 0123     		movs	r3, #1
 2011              	.L80:
 603:SDI12.c       ****     
 604:SDI12.c       **** }
 2012              		.loc 1 604 0
 2013 040c 1846     		mov	r0, r3
 2014 040e 1437     		adds	r7, r7, #20
 2015              		.cfi_def_cfa_offset 12
 2016 0410 BD46     		mov	sp, r7
 2017              		.cfi_def_cfa_register 13
 2018              		@ sp needed
 2019 0412 90BD     		pop	{r4, r7, pc}
 2020              	.L106:
 2021              		.align	2
 2022              	.L105:
 2023 0414 00000000 		.word	i
 2024 0418 00000000 		.word	ptr_end
 2025              		.cfi_endproc
 2026              	.LFE76:
 2027              		.size	SDI12_take_measurement, .-SDI12_take_measurement
 2028              		.text
 2029              	.Letext0:
 2030              		.file 2 "c:\\program files (x86)\\cypress\\psoc creator\\4.4\\psoc creator\\import\\gnu\\arm\\5.4.
 2031              		.file 3 "c:\\program files (x86)\\cypress\\psoc creator\\4.4\\psoc creator\\import\\gnu\\arm\\5.4.
 2032              		.file 4 "Generated_Source\\PSoC5/cytypes.h"
ARM GAS  C:\Users\klabu\AppData\Local\Temp\ccOZgKV6.s 			page 49


 2033              		.file 5 "SDI12.h"
 2034              		.file 6 "data.h"
 2035              		.file 7 "modem.h"
 2036              		.file 8 "Generated_Source\\PSoC5/core_cm3.h"
 2037              		.section	.debug_info,"",%progbits
 2038              	.Ldebug_info0:
 2039 0000 13080000 		.4byte	0x813
 2040 0004 0400     		.2byte	0x4
 2041 0006 00000000 		.4byte	.Ldebug_abbrev0
 2042 000a 04       		.byte	0x4
 2043 000b 01       		.uleb128 0x1
 2044 000c 73000000 		.4byte	.LASF98
 2045 0010 0C       		.byte	0xc
 2046 0011 EB020000 		.4byte	.LASF99
 2047 0015 E7030000 		.4byte	.LASF100
 2048 0019 00000000 		.4byte	.Ldebug_ranges0+0
 2049 001d 00000000 		.4byte	0
 2050 0021 00000000 		.4byte	.Ldebug_line0
 2051 0025 02       		.uleb128 0x2
 2052 0026 01       		.byte	0x1
 2053 0027 06       		.byte	0x6
 2054 0028 97020000 		.4byte	.LASF0
 2055 002c 03       		.uleb128 0x3
 2056 002d 1D020000 		.4byte	.LASF4
 2057 0031 02       		.byte	0x2
 2058 0032 1D       		.byte	0x1d
 2059 0033 37000000 		.4byte	0x37
 2060 0037 02       		.uleb128 0x2
 2061 0038 01       		.byte	0x1
 2062 0039 08       		.byte	0x8
 2063 003a 58020000 		.4byte	.LASF1
 2064 003e 02       		.uleb128 0x2
 2065 003f 02       		.byte	0x2
 2066 0040 05       		.byte	0x5
 2067 0041 2E010000 		.4byte	.LASF2
 2068 0045 02       		.uleb128 0x2
 2069 0046 02       		.byte	0x2
 2070 0047 07       		.byte	0x7
 2071 0048 FC020000 		.4byte	.LASF3
 2072 004c 03       		.uleb128 0x3
 2073 004d 44040000 		.4byte	.LASF5
 2074 0051 02       		.byte	0x2
 2075 0052 3F       		.byte	0x3f
 2076 0053 57000000 		.4byte	0x57
 2077 0057 02       		.uleb128 0x2
 2078 0058 04       		.byte	0x4
 2079 0059 05       		.byte	0x5
 2080 005a F2010000 		.4byte	.LASF6
 2081 005e 02       		.uleb128 0x2
 2082 005f 04       		.byte	0x4
 2083 0060 07       		.byte	0x7
 2084 0061 AB030000 		.4byte	.LASF7
 2085 0065 02       		.uleb128 0x2
 2086 0066 08       		.byte	0x8
 2087 0067 05       		.byte	0x5
 2088 0068 BB010000 		.4byte	.LASF8
 2089 006c 02       		.uleb128 0x2
ARM GAS  C:\Users\klabu\AppData\Local\Temp\ccOZgKV6.s 			page 50


 2090 006d 08       		.byte	0x8
 2091 006e 07       		.byte	0x7
 2092 006f C9010000 		.4byte	.LASF9
 2093 0073 04       		.uleb128 0x4
 2094 0074 04       		.byte	0x4
 2095 0075 05       		.byte	0x5
 2096 0076 696E7400 		.ascii	"int\000"
 2097 007a 02       		.uleb128 0x2
 2098 007b 04       		.byte	0x4
 2099 007c 07       		.byte	0x7
 2100 007d AB020000 		.4byte	.LASF10
 2101 0081 03       		.uleb128 0x3
 2102 0082 45010000 		.4byte	.LASF11
 2103 0086 03       		.byte	0x3
 2104 0087 18       		.byte	0x18
 2105 0088 2C000000 		.4byte	0x2c
 2106 008c 03       		.uleb128 0x3
 2107 008d 5C030000 		.4byte	.LASF12
 2108 0091 03       		.byte	0x3
 2109 0092 2C       		.byte	0x2c
 2110 0093 4C000000 		.4byte	0x4c
 2111 0097 05       		.uleb128 0x5
 2112 0098 6F010000 		.4byte	.LASF13
 2113 009c 04       		.byte	0x4
 2114 009d 9201     		.2byte	0x192
 2115 009f 37000000 		.4byte	0x37
 2116 00a3 05       		.uleb128 0x5
 2117 00a4 3E010000 		.4byte	.LASF14
 2118 00a8 04       		.byte	0x4
 2119 00a9 9301     		.2byte	0x193
 2120 00ab 45000000 		.4byte	0x45
 2121 00af 05       		.uleb128 0x5
 2122 00b0 A4030000 		.4byte	.LASF15
 2123 00b4 04       		.byte	0x4
 2124 00b5 9401     		.2byte	0x194
 2125 00b7 5E000000 		.4byte	0x5e
 2126 00bb 05       		.uleb128 0x5
 2127 00bc B5010000 		.4byte	.LASF16
 2128 00c0 04       		.byte	0x4
 2129 00c1 9701     		.2byte	0x197
 2130 00c3 57000000 		.4byte	0x57
 2131 00c7 02       		.uleb128 0x2
 2132 00c8 04       		.byte	0x4
 2133 00c9 04       		.byte	0x4
 2134 00ca AF010000 		.4byte	.LASF17
 2135 00ce 02       		.uleb128 0x2
 2136 00cf 08       		.byte	0x8
 2137 00d0 04       		.byte	0x4
 2138 00d1 96040000 		.4byte	.LASF18
 2139 00d5 02       		.uleb128 0x2
 2140 00d6 01       		.byte	0x1
 2141 00d7 08       		.byte	0x8
 2142 00d8 E0010000 		.4byte	.LASF19
 2143 00dc 02       		.uleb128 0x2
 2144 00dd 08       		.byte	0x8
 2145 00de 04       		.byte	0x4
 2146 00df 4C020000 		.4byte	.LASF20
ARM GAS  C:\Users\klabu\AppData\Local\Temp\ccOZgKV6.s 			page 51


 2147 00e3 02       		.uleb128 0x2
 2148 00e4 04       		.byte	0x4
 2149 00e5 07       		.byte	0x7
 2150 00e6 46000000 		.4byte	.LASF21
 2151 00ea 06       		.uleb128 0x6
 2152 00eb 04       		.byte	0x4
 2153 00ec D5000000 		.4byte	0xd5
 2154 00f0 07       		.uleb128 0x7
 2155 00f1 34       		.byte	0x34
 2156 00f2 05       		.byte	0x5
 2157 00f3 28       		.byte	0x28
 2158 00f4 65010000 		.4byte	0x165
 2159 00f8 08       		.uleb128 0x8
 2160 00f9 A3020000 		.4byte	.LASF22
 2161 00fd 05       		.byte	0x5
 2162 00fe 2A       		.byte	0x2a
 2163 00ff EA000000 		.4byte	0xea
 2164 0103 00       		.byte	0
 2165 0104 08       		.uleb128 0x8
 2166 0105 31000000 		.4byte	.LASF23
 2167 0109 05       		.byte	0x5
 2168 010a 2B       		.byte	0x2b
 2169 010b 65010000 		.4byte	0x165
 2170 010f 04       		.byte	0x4
 2171 0110 08       		.uleb128 0x8
 2172 0111 16020000 		.4byte	.LASF24
 2173 0115 05       		.byte	0x5
 2174 0116 2C       		.byte	0x2c
 2175 0117 6B010000 		.4byte	0x16b
 2176 011b 08       		.byte	0x8
 2177 011c 08       		.uleb128 0x8
 2178 011d 7E040000 		.4byte	.LASF25
 2179 0121 05       		.byte	0x5
 2180 0122 2D       		.byte	0x2d
 2181 0123 97000000 		.4byte	0x97
 2182 0127 0C       		.byte	0xc
 2183 0128 08       		.uleb128 0x8
 2184 0129 DB040000 		.4byte	.LASF26
 2185 012d 05       		.byte	0x5
 2186 012e 2F       		.byte	0x2f
 2187 012f 71010000 		.4byte	0x171
 2188 0133 0D       		.byte	0xd
 2189 0134 08       		.uleb128 0x8
 2190 0135 E3040000 		.4byte	.LASF27
 2191 0139 05       		.byte	0x5
 2192 013a 30       		.byte	0x30
 2193 013b 81010000 		.4byte	0x181
 2194 013f 10       		.byte	0x10
 2195 0140 08       		.uleb128 0x8
 2196 0141 78040000 		.4byte	.LASF28
 2197 0145 05       		.byte	0x5
 2198 0146 31       		.byte	0x31
 2199 0147 91010000 		.4byte	0x191
 2200 014b 19       		.byte	0x19
 2201 014c 08       		.uleb128 0x8
 2202 014d 29000000 		.4byte	.LASF29
 2203 0151 05       		.byte	0x5
ARM GAS  C:\Users\klabu\AppData\Local\Temp\ccOZgKV6.s 			page 52


 2204 0152 32       		.byte	0x32
 2205 0153 A1010000 		.4byte	0x1a1
 2206 0157 20       		.byte	0x20
 2207 0158 08       		.uleb128 0x8
 2208 0159 6C030000 		.4byte	.LASF30
 2209 015d 05       		.byte	0x5
 2210 015e 33       		.byte	0x33
 2211 015f B1010000 		.4byte	0x1b1
 2212 0163 24       		.byte	0x24
 2213 0164 00       		.byte	0
 2214 0165 06       		.uleb128 0x6
 2215 0166 04       		.byte	0x4
 2216 0167 EA000000 		.4byte	0xea
 2217 016b 06       		.uleb128 0x6
 2218 016c 04       		.byte	0x4
 2219 016d C7000000 		.4byte	0xc7
 2220 0171 09       		.uleb128 0x9
 2221 0172 D5000000 		.4byte	0xd5
 2222 0176 81010000 		.4byte	0x181
 2223 017a 0A       		.uleb128 0xa
 2224 017b E3000000 		.4byte	0xe3
 2225 017f 02       		.byte	0x2
 2226 0180 00       		.byte	0
 2227 0181 09       		.uleb128 0x9
 2228 0182 D5000000 		.4byte	0xd5
 2229 0186 91010000 		.4byte	0x191
 2230 018a 0A       		.uleb128 0xa
 2231 018b E3000000 		.4byte	0xe3
 2232 018f 08       		.byte	0x8
 2233 0190 00       		.byte	0
 2234 0191 09       		.uleb128 0x9
 2235 0192 D5000000 		.4byte	0xd5
 2236 0196 A1010000 		.4byte	0x1a1
 2237 019a 0A       		.uleb128 0xa
 2238 019b E3000000 		.4byte	0xe3
 2239 019f 06       		.byte	0x6
 2240 01a0 00       		.byte	0
 2241 01a1 09       		.uleb128 0x9
 2242 01a2 D5000000 		.4byte	0xd5
 2243 01a6 B1010000 		.4byte	0x1b1
 2244 01aa 0A       		.uleb128 0xa
 2245 01ab E3000000 		.4byte	0xe3
 2246 01af 03       		.byte	0x3
 2247 01b0 00       		.byte	0
 2248 01b1 09       		.uleb128 0x9
 2249 01b2 D5000000 		.4byte	0xd5
 2250 01b6 C1010000 		.4byte	0x1c1
 2251 01ba 0A       		.uleb128 0xa
 2252 01bb E3000000 		.4byte	0xe3
 2253 01bf 0D       		.byte	0xd
 2254 01c0 00       		.byte	0
 2255 01c1 03       		.uleb128 0x3
 2256 01c2 75010000 		.4byte	.LASF31
 2257 01c6 05       		.byte	0x5
 2258 01c7 34       		.byte	0x34
 2259 01c8 F0000000 		.4byte	0xf0
 2260 01cc 07       		.uleb128 0x7
ARM GAS  C:\Users\klabu\AppData\Local\Temp\ccOZgKV6.s 			page 53


 2261 01cd 2C       		.byte	0x2c
 2262 01ce 06       		.byte	0x6
 2263 01cf 14       		.byte	0x14
 2264 01d0 F9010000 		.4byte	0x1f9
 2265 01d4 0B       		.uleb128 0xb
 2266 01d5 6B657900 		.ascii	"key\000"
 2267 01d9 06       		.byte	0x6
 2268 01da 15       		.byte	0x15
 2269 01db F9010000 		.4byte	0x1f9
 2270 01df 00       		.byte	0
 2271 01e0 08       		.uleb128 0x8
 2272 01e1 38010000 		.4byte	.LASF32
 2273 01e5 06       		.byte	0x6
 2274 01e6 16       		.byte	0x16
 2275 01e7 F9010000 		.4byte	0x1f9
 2276 01eb 14       		.byte	0x14
 2277 01ec 08       		.uleb128 0x8
 2278 01ed 8C010000 		.4byte	.LASF33
 2279 01f1 06       		.byte	0x6
 2280 01f2 17       		.byte	0x17
 2281 01f3 BB000000 		.4byte	0xbb
 2282 01f7 28       		.byte	0x28
 2283 01f8 00       		.byte	0
 2284 01f9 09       		.uleb128 0x9
 2285 01fa D5000000 		.4byte	0xd5
 2286 01fe 09020000 		.4byte	0x209
 2287 0202 0A       		.uleb128 0xa
 2288 0203 E3000000 		.4byte	0xe3
 2289 0207 13       		.byte	0x13
 2290 0208 00       		.byte	0
 2291 0209 03       		.uleb128 0x3
 2292 020a B8020000 		.4byte	.LASF34
 2293 020e 06       		.byte	0x6
 2294 020f 19       		.byte	0x19
 2295 0210 CC010000 		.4byte	0x1cc
 2296 0214 07       		.uleb128 0x7
 2297 0215 3C       		.byte	0x3c
 2298 0216 07       		.byte	0x7
 2299 0217 36       		.byte	0x36
 2300 0218 41020000 		.4byte	0x241
 2301 021c 08       		.uleb128 0x8
 2302 021d 22000000 		.4byte	.LASF35
 2303 0221 07       		.byte	0x7
 2304 0222 37       		.byte	0x37
 2305 0223 F9010000 		.4byte	0x1f9
 2306 0227 00       		.byte	0
 2307 0228 08       		.uleb128 0x8
 2308 0229 06000000 		.4byte	.LASF36
 2309 022d 07       		.byte	0x7
 2310 022e 38       		.byte	0x38
 2311 022f F9010000 		.4byte	0x1f9
 2312 0233 14       		.byte	0x14
 2313 0234 08       		.uleb128 0x8
 2314 0235 4F030000 		.4byte	.LASF37
 2315 0239 07       		.byte	0x7
 2316 023a 39       		.byte	0x39
 2317 023b F9010000 		.4byte	0x1f9
ARM GAS  C:\Users\klabu\AppData\Local\Temp\ccOZgKV6.s 			page 54


 2318 023f 28       		.byte	0x28
 2319 0240 00       		.byte	0
 2320 0241 03       		.uleb128 0x3
 2321 0242 E5010000 		.4byte	.LASF38
 2322 0246 07       		.byte	0x7
 2323 0247 3B       		.byte	0x3b
 2324 0248 14020000 		.4byte	0x214
 2325 024c 07       		.uleb128 0x7
 2326 024d 20       		.byte	0x20
 2327 024e 07       		.byte	0x7
 2328 024f 3D       		.byte	0x3d
 2329 0250 B5020000 		.4byte	0x2b5
 2330 0254 08       		.uleb128 0x8
 2331 0255 C4020000 		.4byte	.LASF39
 2332 0259 07       		.byte	0x7
 2333 025a 3E       		.byte	0x3e
 2334 025b 73000000 		.4byte	0x73
 2335 025f 00       		.byte	0
 2336 0260 0B       		.uleb128 0xb
 2337 0261 62657200 		.ascii	"ber\000"
 2338 0265 07       		.byte	0x7
 2339 0266 3F       		.byte	0x3f
 2340 0267 73000000 		.4byte	0x73
 2341 026b 04       		.byte	0x4
 2342 026c 08       		.uleb128 0x8
 2343 026d 82010000 		.4byte	.LASF40
 2344 0271 07       		.byte	0x7
 2345 0272 40       		.byte	0x40
 2346 0273 73000000 		.4byte	0x73
 2347 0277 08       		.byte	0x8
 2348 0278 08       		.uleb128 0x8
 2349 0279 29010000 		.4byte	.LASF41
 2350 027d 07       		.byte	0x7
 2351 027e 41       		.byte	0x41
 2352 027f 73000000 		.4byte	0x73
 2353 0283 0C       		.byte	0xc
 2354 0284 08       		.uleb128 0x8
 2355 0285 9F030000 		.4byte	.LASF42
 2356 0289 07       		.byte	0x7
 2357 028a 42       		.byte	0x42
 2358 028b 73000000 		.4byte	0x73
 2359 028f 10       		.byte	0x10
 2360 0290 08       		.uleb128 0x8
 2361 0291 87010000 		.4byte	.LASF43
 2362 0295 07       		.byte	0x7
 2363 0296 43       		.byte	0x43
 2364 0297 73000000 		.4byte	0x73
 2365 029b 14       		.byte	0x14
 2366 029c 08       		.uleb128 0x8
 2367 029d 0F030000 		.4byte	.LASF44
 2368 02a1 07       		.byte	0x7
 2369 02a2 44       		.byte	0x44
 2370 02a3 73000000 		.4byte	0x73
 2371 02a7 18       		.byte	0x18
 2372 02a8 08       		.uleb128 0x8
 2373 02a9 3C030000 		.4byte	.LASF45
 2374 02ad 07       		.byte	0x7
ARM GAS  C:\Users\klabu\AppData\Local\Temp\ccOZgKV6.s 			page 55


 2375 02ae 45       		.byte	0x45
 2376 02af 73000000 		.4byte	0x73
 2377 02b3 1C       		.byte	0x1c
 2378 02b4 00       		.byte	0
 2379 02b5 03       		.uleb128 0x3
 2380 02b6 73030000 		.4byte	.LASF46
 2381 02ba 07       		.byte	0x7
 2382 02bb 47       		.byte	0x47
 2383 02bc 4C020000 		.4byte	0x24c
 2384 02c0 07       		.uleb128 0x7
 2385 02c1 05       		.byte	0x5
 2386 02c2 07       		.byte	0x7
 2387 02c3 53       		.byte	0x53
 2388 02c4 05030000 		.4byte	0x305
 2389 02c8 08       		.uleb128 0x8
 2390 02c9 EA040000 		.4byte	.LASF47
 2391 02cd 07       		.byte	0x7
 2392 02ce 55       		.byte	0x55
 2393 02cf 97000000 		.4byte	0x97
 2394 02d3 00       		.byte	0
 2395 02d4 08       		.uleb128 0x8
 2396 02d5 F3020000 		.4byte	.LASF48
 2397 02d9 07       		.byte	0x7
 2398 02da 57       		.byte	0x57
 2399 02db 05030000 		.4byte	0x305
 2400 02df 01       		.byte	0x1
 2401 02e0 08       		.uleb128 0x8
 2402 02e1 3F020000 		.4byte	.LASF49
 2403 02e5 07       		.byte	0x7
 2404 02e6 59       		.byte	0x59
 2405 02e7 97000000 		.4byte	0x97
 2406 02eb 02       		.byte	0x2
 2407 02ec 08       		.uleb128 0x8
 2408 02ed CA020000 		.4byte	.LASF50
 2409 02f1 07       		.byte	0x7
 2410 02f2 5B       		.byte	0x5b
 2411 02f3 97000000 		.4byte	0x97
 2412 02f7 03       		.byte	0x3
 2413 02f8 08       		.uleb128 0x8
 2414 02f9 15040000 		.4byte	.LASF51
 2415 02fd 07       		.byte	0x7
 2416 02fe 5E       		.byte	0x5e
 2417 02ff 97000000 		.4byte	0x97
 2418 0303 04       		.byte	0x4
 2419 0304 00       		.byte	0
 2420 0305 02       		.uleb128 0x2
 2421 0306 01       		.byte	0x1
 2422 0307 02       		.byte	0x2
 2423 0308 81030000 		.4byte	.LASF52
 2424 030c 03       		.uleb128 0x3
 2425 030d D4020000 		.4byte	.LASF53
 2426 0311 07       		.byte	0x7
 2427 0312 60       		.byte	0x60
 2428 0313 C0020000 		.4byte	0x2c0
 2429 0317 0C       		.uleb128 0xc
 2430 0318 33020000 		.4byte	.LASF54
 2431 031c 01       		.byte	0x1
ARM GAS  C:\Users\klabu\AppData\Local\Temp\ccOZgKV6.s 			page 56


 2432 031d 43       		.byte	0x43
 2433 031e 00000000 		.4byte	.LFB64
 2434 0322 18000000 		.4byte	.LFE64-.LFB64
 2435 0326 01       		.uleb128 0x1
 2436 0327 9C       		.byte	0x9c
 2437 0328 0C       		.uleb128 0xc
 2438 0329 4F000000 		.4byte	.LASF55
 2439 032d 01       		.byte	0x1
 2440 032e 48       		.byte	0x48
 2441 032f 00000000 		.4byte	.LFB65
 2442 0333 10000000 		.4byte	.LFE65-.LFB65
 2443 0337 01       		.uleb128 0x1
 2444 0338 9C       		.byte	0x9c
 2445 0339 0D       		.uleb128 0xd
 2446 033a 69000000 		.4byte	.LASF58
 2447 033e 01       		.byte	0x1
 2448 033f 4D       		.byte	0x4d
 2449 0340 81000000 		.4byte	0x81
 2450 0344 00000000 		.4byte	.LFB66
 2451 0348 24000000 		.4byte	.LFE66-.LFB66
 2452 034c 01       		.uleb128 0x1
 2453 034d 9C       		.byte	0x9c
 2454 034e 61030000 		.4byte	0x361
 2455 0352 0E       		.uleb128 0xe
 2456 0353 73747200 		.ascii	"str\000"
 2457 0357 01       		.byte	0x1
 2458 0358 4D       		.byte	0x4d
 2459 0359 EA000000 		.4byte	0xea
 2460 035d 02       		.uleb128 0x2
 2461 035e 91       		.byte	0x91
 2462 035f 74       		.sleb128 -12
 2463 0360 00       		.byte	0
 2464 0361 0C       		.uleb128 0xc
 2465 0362 21040000 		.4byte	.LASF56
 2466 0366 01       		.byte	0x1
 2467 0367 58       		.byte	0x58
 2468 0368 00000000 		.4byte	.LFB67
 2469 036c 28000000 		.4byte	.LFE67-.LFB67
 2470 0370 01       		.uleb128 0x1
 2471 0371 9C       		.byte	0x9c
 2472 0372 0F       		.uleb128 0xf
 2473 0373 87030000 		.4byte	.LASF101
 2474 0377 01       		.byte	0x1
 2475 0378 5E       		.byte	0x5e
 2476 0379 EA000000 		.4byte	0xea
 2477 037d 00000000 		.4byte	.LFB68
 2478 0381 14000000 		.4byte	.LFE68-.LFB68
 2479 0385 01       		.uleb128 0x1
 2480 0386 9C       		.byte	0x9c
 2481 0387 10       		.uleb128 0x10
 2482 0388 02040000 		.4byte	.LASF69
 2483 038c 01       		.byte	0x1
 2484 038d 6B       		.byte	0x6b
 2485 038e 00000000 		.4byte	.LFB69
 2486 0392 32000000 		.4byte	.LFE69-.LFB69
 2487 0396 01       		.uleb128 0x1
 2488 0397 9C       		.byte	0x9c
ARM GAS  C:\Users\klabu\AppData\Local\Temp\ccOZgKV6.s 			page 57


 2489 0398 AB030000 		.4byte	0x3ab
 2490 039c 11       		.uleb128 0x11
 2491 039d F4040000 		.4byte	.LASF57
 2492 03a1 01       		.byte	0x1
 2493 03a2 6B       		.byte	0x6b
 2494 03a3 EA000000 		.4byte	0xea
 2495 03a7 02       		.uleb128 0x2
 2496 03a8 91       		.byte	0x91
 2497 03a9 74       		.sleb128 -12
 2498 03aa 00       		.byte	0
 2499 03ab 0D       		.uleb128 0xd
 2500 03ac 4D010000 		.4byte	.LASF59
 2501 03b0 01       		.byte	0x1
 2502 03b1 80       		.byte	0x80
 2503 03b2 97000000 		.4byte	0x97
 2504 03b6 00000000 		.4byte	.LFB70
 2505 03ba 74000000 		.4byte	.LFE70-.LFB70
 2506 03be 01       		.uleb128 0x1
 2507 03bf 9C       		.byte	0x9c
 2508 03c0 D3030000 		.4byte	0x3d3
 2509 03c4 11       		.uleb128 0x11
 2510 03c5 11050000 		.4byte	.LASF60
 2511 03c9 01       		.byte	0x1
 2512 03ca 80       		.byte	0x80
 2513 03cb D3030000 		.4byte	0x3d3
 2514 03cf 02       		.uleb128 0x2
 2515 03d0 91       		.byte	0x91
 2516 03d1 74       		.sleb128 -12
 2517 03d2 00       		.byte	0
 2518 03d3 06       		.uleb128 0x6
 2519 03d4 04       		.byte	0x4
 2520 03d5 C1010000 		.4byte	0x1c1
 2521 03d9 0D       		.uleb128 0xd
 2522 03da FC040000 		.4byte	.LASF61
 2523 03de 01       		.byte	0x1
 2524 03df A2       		.byte	0xa2
 2525 03e0 97000000 		.4byte	0x97
 2526 03e4 00000000 		.4byte	.LFB71
 2527 03e8 A4000000 		.4byte	.LFE71-.LFB71
 2528 03ec 01       		.uleb128 0x1
 2529 03ed 9C       		.byte	0x9c
 2530 03ee 0F040000 		.4byte	0x40f
 2531 03f2 11       		.uleb128 0x11
 2532 03f3 11050000 		.4byte	.LASF60
 2533 03f7 01       		.byte	0x1
 2534 03f8 A2       		.byte	0xa2
 2535 03f9 D3030000 		.4byte	0x3d3
 2536 03fd 02       		.uleb128 0x2
 2537 03fe 91       		.byte	0x91
 2538 03ff 74       		.sleb128 -12
 2539 0400 11       		.uleb128 0x11
 2540 0401 1D010000 		.4byte	.LASF62
 2541 0405 01       		.byte	0x1
 2542 0406 A2       		.byte	0xa2
 2543 0407 EA000000 		.4byte	0xea
 2544 040b 02       		.uleb128 0x2
 2545 040c 91       		.byte	0x91
ARM GAS  C:\Users\klabu\AppData\Local\Temp\ccOZgKV6.s 			page 58


 2546 040d 70       		.sleb128 -16
 2547 040e 00       		.byte	0
 2548 040f 12       		.uleb128 0x12
 2549 0410 56040000 		.4byte	.LASF63
 2550 0414 01       		.byte	0x1
 2551 0415 2601     		.2byte	0x126
 2552 0417 97000000 		.4byte	0x97
 2553 041b 00000000 		.4byte	.LFB72
 2554 041f 18000000 		.4byte	.LFE72-.LFB72
 2555 0423 01       		.uleb128 0x1
 2556 0424 9C       		.byte	0x9c
 2557 0425 39040000 		.4byte	0x439
 2558 0429 13       		.uleb128 0x13
 2559 042a 11050000 		.4byte	.LASF60
 2560 042e 01       		.byte	0x1
 2561 042f 2601     		.2byte	0x126
 2562 0431 D3030000 		.4byte	0x3d3
 2563 0435 02       		.uleb128 0x2
 2564 0436 91       		.byte	0x91
 2565 0437 74       		.sleb128 -12
 2566 0438 00       		.byte	0
 2567 0439 12       		.uleb128 0x12
 2568 043a 39040000 		.4byte	.LASF64
 2569 043e 01       		.byte	0x1
 2570 043f 3A01     		.2byte	0x13a
 2571 0441 97000000 		.4byte	0x97
 2572 0445 00000000 		.4byte	.LFB73
 2573 0449 34010000 		.4byte	.LFE73-.LFB73
 2574 044d 01       		.uleb128 0x1
 2575 044e 9C       		.byte	0x9c
 2576 044f 63040000 		.4byte	0x463
 2577 0453 13       		.uleb128 0x13
 2578 0454 11050000 		.4byte	.LASF60
 2579 0458 01       		.byte	0x1
 2580 0459 3A01     		.2byte	0x13a
 2581 045b D3030000 		.4byte	0x3d3
 2582 045f 02       		.uleb128 0x2
 2583 0460 91       		.byte	0x91
 2584 0461 6C       		.sleb128 -20
 2585 0462 00       		.byte	0
 2586 0463 12       		.uleb128 0x12
 2587 0464 C2030000 		.4byte	.LASF65
 2588 0468 01       		.byte	0x1
 2589 0469 6C01     		.2byte	0x16c
 2590 046b 97000000 		.4byte	0x97
 2591 046f 00000000 		.4byte	.LFB74
 2592 0473 AC020000 		.4byte	.LFE74-.LFB74
 2593 0477 01       		.uleb128 0x1
 2594 0478 9C       		.byte	0x9c
 2595 0479 D4040000 		.4byte	0x4d4
 2596 047d 13       		.uleb128 0x13
 2597 047e 9D040000 		.4byte	.LASF66
 2598 0482 01       		.byte	0x1
 2599 0483 6C01     		.2byte	0x16c
 2600 0485 73000000 		.4byte	0x73
 2601 0489 03       		.uleb128 0x3
 2602 048a 91       		.byte	0x91
ARM GAS  C:\Users\klabu\AppData\Local\Temp\ccOZgKV6.s 			page 59


 2603 048b 847F     		.sleb128 -124
 2604 048d 14       		.uleb128 0x14
 2605 048e 8F040000 		.4byte	.LASF67
 2606 0492 01       		.byte	0x1
 2607 0493 6D01     		.2byte	0x16d
 2608 0495 D4040000 		.4byte	0x4d4
 2609 0499 03       		.uleb128 0x3
 2610 049a 91       		.byte	0x91
 2611 049b 887F     		.sleb128 -120
 2612 049d 15       		.uleb128 0x15
 2613 049e 6900     		.ascii	"i\000"
 2614 04a0 01       		.byte	0x1
 2615 04a1 6E01     		.2byte	0x16e
 2616 04a3 97000000 		.4byte	0x97
 2617 04a7 02       		.uleb128 0x2
 2618 04a8 91       		.byte	0x91
 2619 04a9 6F       		.sleb128 -17
 2620 04aa 15       		.uleb128 0x15
 2621 04ab 6A00     		.ascii	"j\000"
 2622 04ad 01       		.byte	0x1
 2623 04ae 6E01     		.2byte	0x16e
 2624 04b0 97000000 		.4byte	0x97
 2625 04b4 02       		.uleb128 0x2
 2626 04b5 91       		.byte	0x91
 2627 04b6 6E       		.sleb128 -18
 2628 04b7 15       		.uleb128 0x15
 2629 04b8 6B00     		.ascii	"k\000"
 2630 04ba 01       		.byte	0x1
 2631 04bb 6E01     		.2byte	0x16e
 2632 04bd 97000000 		.4byte	0x97
 2633 04c1 02       		.uleb128 0x2
 2634 04c2 91       		.byte	0x91
 2635 04c3 6D       		.sleb128 -19
 2636 04c4 14       		.uleb128 0x14
 2637 04c5 00000000 		.4byte	.LASF68
 2638 04c9 01       		.byte	0x1
 2639 04ca 6E01     		.2byte	0x16e
 2640 04cc 97000000 		.4byte	0x97
 2641 04d0 02       		.uleb128 0x2
 2642 04d1 91       		.byte	0x91
 2643 04d2 6C       		.sleb128 -20
 2644 04d3 00       		.byte	0
 2645 04d4 09       		.uleb128 0x9
 2646 04d5 D5000000 		.4byte	0xd5
 2647 04d9 E4040000 		.4byte	0x4e4
 2648 04dd 0A       		.uleb128 0xa
 2649 04de E3000000 		.4byte	0xe3
 2650 04e2 63       		.byte	0x63
 2651 04e3 00       		.byte	0
 2652 04e4 16       		.uleb128 0x16
 2653 04e5 0E010000 		.4byte	.LASF70
 2654 04e9 01       		.byte	0x1
 2655 04ea C801     		.2byte	0x1c8
 2656 04ec 00000000 		.4byte	.LFB75
 2657 04f0 38000000 		.4byte	.LFE75-.LFB75
 2658 04f4 01       		.uleb128 0x1
 2659 04f5 9C       		.byte	0x9c
ARM GAS  C:\Users\klabu\AppData\Local\Temp\ccOZgKV6.s 			page 60


 2660 04f6 0A050000 		.4byte	0x50a
 2661 04fa 14       		.uleb128 0x14
 2662 04fb 4E040000 		.4byte	.LASF71
 2663 04ff 01       		.byte	0x1
 2664 0500 CA01     		.2byte	0x1ca
 2665 0502 D5000000 		.4byte	0xd5
 2666 0506 02       		.uleb128 0x2
 2667 0507 91       		.byte	0x91
 2668 0508 77       		.sleb128 -9
 2669 0509 00       		.byte	0
 2670 050a 12       		.uleb128 0x12
 2671 050b C4040000 		.4byte	.LASF72
 2672 050f 01       		.byte	0x1
 2673 0510 D501     		.2byte	0x1d5
 2674 0512 97000000 		.4byte	0x97
 2675 0516 00000000 		.4byte	.LFB76
 2676 051a 1C040000 		.4byte	.LFE76-.LFB76
 2677 051e 01       		.uleb128 0x1
 2678 051f 9C       		.byte	0x9c
 2679 0520 8A050000 		.4byte	0x58a
 2680 0524 13       		.uleb128 0x13
 2681 0525 11050000 		.4byte	.LASF60
 2682 0529 01       		.byte	0x1
 2683 052a D501     		.2byte	0x1d5
 2684 052c D3030000 		.4byte	0x3d3
 2685 0530 02       		.uleb128 0x2
 2686 0531 91       		.byte	0x91
 2687 0532 64       		.sleb128 -28
 2688 0533 17       		.uleb128 0x17
 2689 0534 08000000 		.4byte	.LBB2
 2690 0538 02040000 		.4byte	.LBE2-.LBB2
 2691 053c 15       		.uleb128 0x15
 2692 053d 6A00     		.ascii	"j\000"
 2693 053f 01       		.byte	0x1
 2694 0540 D701     		.2byte	0x1d7
 2695 0542 97000000 		.4byte	0x97
 2696 0546 02       		.uleb128 0x2
 2697 0547 91       		.byte	0x91
 2698 0548 6F       		.sleb128 -17
 2699 0549 17       		.uleb128 0x17
 2700 054a F4000000 		.4byte	.LBB3
 2701 054e 08030000 		.4byte	.LBE3-.LBB3
 2702 0552 15       		.uleb128 0x15
 2703 0553 6B00     		.ascii	"k\000"
 2704 0555 01       		.byte	0x1
 2705 0556 0A02     		.2byte	0x20a
 2706 0558 97000000 		.4byte	0x97
 2707 055c 02       		.uleb128 0x2
 2708 055d 91       		.byte	0x91
 2709 055e 6E       		.sleb128 -18
 2710 055f 17       		.uleb128 0x17
 2711 0560 FA000000 		.4byte	.LBB4
 2712 0564 F4020000 		.4byte	.LBE4-.LBB4
 2713 0568 14       		.uleb128 0x14
 2714 0569 19000000 		.4byte	.LASF73
 2715 056d 01       		.byte	0x1
 2716 056e 2A02     		.2byte	0x22a
ARM GAS  C:\Users\klabu\AppData\Local\Temp\ccOZgKV6.s 			page 61


 2717 0570 EA000000 		.4byte	0xea
 2718 0574 02       		.uleb128 0x2
 2719 0575 91       		.byte	0x91
 2720 0576 68       		.sleb128 -24
 2721 0577 15       		.uleb128 0x15
 2722 0578 6D617800 		.ascii	"max\000"
 2723 057c 01       		.byte	0x1
 2724 057d 3F02     		.2byte	0x23f
 2725 057f 97000000 		.4byte	0x97
 2726 0583 02       		.uleb128 0x2
 2727 0584 91       		.byte	0x91
 2728 0585 6D       		.sleb128 -19
 2729 0586 00       		.byte	0
 2730 0587 00       		.byte	0
 2731 0588 00       		.byte	0
 2732 0589 00       		.byte	0
 2733 058a 09       		.uleb128 0x9
 2734 058b D5000000 		.4byte	0xd5
 2735 058f 9B050000 		.4byte	0x59b
 2736 0593 18       		.uleb128 0x18
 2737 0594 E3000000 		.4byte	0xe3
 2738 0598 0001     		.2byte	0x100
 2739 059a 00       		.byte	0
 2740 059b 19       		.uleb128 0x19
 2741 059c 5A000000 		.4byte	.LASF74
 2742 05a0 01       		.byte	0x1
 2743 05a1 35       		.byte	0x35
 2744 05a2 8A050000 		.4byte	0x58a
 2745 05a6 05       		.uleb128 0x5
 2746 05a7 03       		.byte	0x3
 2747 05a8 00000000 		.4byte	SDI12_uart_buf
 2748 05ac 19       		.uleb128 0x19
 2749 05ad 66020000 		.4byte	.LASF75
 2750 05b1 01       		.byte	0x1
 2751 05b2 36       		.byte	0x36
 2752 05b3 81000000 		.4byte	0x81
 2753 05b7 05       		.uleb128 0x5
 2754 05b8 03       		.byte	0x3
 2755 05b9 01010000 		.4byte	SDI12_buf_idx
 2756 05bd 1A       		.uleb128 0x1a
 2757 05be CC030000 		.4byte	.LASF76
 2758 05c2 08       		.byte	0x8
 2759 05c3 1207     		.2byte	0x712
 2760 05c5 C9050000 		.4byte	0x5c9
 2761 05c9 1B       		.uleb128 0x1b
 2762 05ca 8C000000 		.4byte	0x8c
 2763 05ce 1C       		.uleb128 0x1c
 2764 05cf FB010000 		.4byte	.LASF77
 2765 05d3 06       		.byte	0x6
 2766 05d4 11       		.byte	0x11
 2767 05d5 05030000 		.4byte	0x305
 2768 05d9 05       		.uleb128 0x5
 2769 05da 03       		.byte	0x3
 2770 05db 00000000 		.4byte	buffer_overflow
 2771 05df 1C       		.uleb128 0x1c
 2772 05e0 5D010000 		.4byte	.LASF78
 2773 05e4 06       		.byte	0x6
ARM GAS  C:\Users\klabu\AppData\Local\Temp\ccOZgKV6.s 			page 62


 2774 05e5 22       		.byte	0x22
 2775 05e6 A3000000 		.4byte	0xa3
 2776 05ea 05       		.uleb128 0x5
 2777 05eb 03       		.byte	0x3
 2778 05ec 00000000 		.4byte	dataPointsInStack
 2779 05f0 1C       		.uleb128 0x1c
 2780 05f1 96010000 		.4byte	.LASF79
 2781 05f5 06       		.byte	0x6
 2782 05f6 23       		.byte	0x23
 2783 05f7 A3000000 		.4byte	0xa3
 2784 05fb 05       		.uleb128 0x5
 2785 05fc 03       		.byte	0x3
 2786 05fd 00000000 		.4byte	dataPointsInStackDesired
 2787 0601 09       		.uleb128 0x9
 2788 0602 09020000 		.4byte	0x209
 2789 0606 11060000 		.4byte	0x611
 2790 060a 0A       		.uleb128 0xa
 2791 060b E3000000 		.4byte	0xe3
 2792 060f 95       		.byte	0x95
 2793 0610 00       		.byte	0
 2794 0611 1C       		.uleb128 0x1c
 2795 0612 09010000 		.4byte	.LASF80
 2796 0616 06       		.byte	0x6
 2797 0617 24       		.byte	0x24
 2798 0618 01060000 		.4byte	0x601
 2799 061c 05       		.uleb128 0x5
 2800 061d 03       		.byte	0x3
 2801 061e 00000000 		.4byte	data
 2802 0622 1C       		.uleb128 0x1c
 2803 0623 8B020000 		.4byte	.LASF81
 2804 0627 07       		.byte	0x7
 2805 0628 20       		.byte	0x20
 2806 0629 97000000 		.4byte	0x97
 2807 062d 05       		.uleb128 0x5
 2808 062e 03       		.byte	0x3
 2809 062f 00000000 		.4byte	modem_state
 2810 0633 1C       		.uleb128 0x1c
 2811 0634 74020000 		.4byte	.LASF82
 2812 0638 07       		.byte	0x7
 2813 0639 63       		.byte	0x63
 2814 063a BB000000 		.4byte	0xbb
 2815 063e 05       		.uleb128 0x5
 2816 063f 03       		.byte	0x3
 2817 0640 00000000 		.4byte	modem_start_time_stamp
 2818 0644 1C       		.uleb128 0x1c
 2819 0645 0B020000 		.4byte	.LASF83
 2820 0649 07       		.byte	0x7
 2821 064a 64       		.byte	0x64
 2822 064b 41020000 		.4byte	0x241
 2823 064f 05       		.uleb128 0x5
 2824 0650 03       		.byte	0x3
 2825 0651 00000000 		.4byte	modem_info
 2826 0655 1C       		.uleb128 0x1c
 2827 0656 27020000 		.4byte	.LASF84
 2828 065a 07       		.byte	0x7
 2829 065b 65       		.byte	0x65
 2830 065c B5020000 		.4byte	0x2b5
ARM GAS  C:\Users\klabu\AppData\Local\Temp\ccOZgKV6.s 			page 63


 2831 0660 05       		.uleb128 0x5
 2832 0661 03       		.byte	0x3
 2833 0662 00000000 		.4byte	modem_stats
 2834 0666 1C       		.uleb128 0x1c
 2835 0667 A8040000 		.4byte	.LASF85
 2836 066b 07       		.byte	0x7
 2837 066c 66       		.byte	0x66
 2838 066d 0C030000 		.4byte	0x30c
 2839 0671 05       		.uleb128 0x5
 2840 0672 03       		.byte	0x3
 2841 0673 00000000 		.4byte	updatable_parameters
 2842 0677 09       		.uleb128 0x9
 2843 0678 C1010000 		.4byte	0x1c1
 2844 067c 87060000 		.4byte	0x687
 2845 0680 0A       		.uleb128 0xa
 2846 0681 E3000000 		.4byte	0xe3
 2847 0685 02       		.byte	0x2
 2848 0686 00       		.byte	0
 2849 0687 1C       		.uleb128 0x1c
 2850 0688 54030000 		.4byte	.LASF86
 2851 068c 01       		.byte	0x1
 2852 068d 10       		.byte	0x10
 2853 068e 77060000 		.4byte	0x677
 2854 0692 05       		.uleb128 0x5
 2855 0693 03       		.byte	0x3
 2856 0694 00000000 		.4byte	sensors
 2857 0698 09       		.uleb128 0x9
 2858 0699 EA000000 		.4byte	0xea
 2859 069d A8060000 		.4byte	0x6a8
 2860 06a1 0A       		.uleb128 0xa
 2861 06a2 E3000000 		.4byte	0xe3
 2862 06a6 1A       		.byte	0x1a
 2863 06a7 00       		.byte	0
 2864 06a8 1C       		.uleb128 0x1c
 2865 06a9 D9030000 		.4byte	.LASF87
 2866 06ad 01       		.byte	0x1
 2867 06ae 13       		.byte	0x13
 2868 06af 98060000 		.4byte	0x698
 2869 06b3 05       		.uleb128 0x5
 2870 06b4 03       		.byte	0x3
 2871 06b5 00000000 		.4byte	sontek_labels
 2872 06b9 09       		.uleb128 0x9
 2873 06ba C7000000 		.4byte	0xc7
 2874 06be C9060000 		.4byte	0x6c9
 2875 06c2 0A       		.uleb128 0xa
 2876 06c3 E3000000 		.4byte	0xe3
 2877 06c7 1A       		.byte	0x1a
 2878 06c8 00       		.byte	0
 2879 06c9 1C       		.uleb128 0x1c
 2880 06ca 38000000 		.4byte	.LASF88
 2881 06ce 01       		.byte	0x1
 2882 06cf 14       		.byte	0x14
 2883 06d0 B9060000 		.4byte	0x6b9
 2884 06d4 05       		.uleb128 0x5
 2885 06d5 03       		.byte	0x3
 2886 06d6 00000000 		.4byte	sontek_values
 2887 06da 1C       		.uleb128 0x1c
ARM GAS  C:\Users\klabu\AppData\Local\Temp\ccOZgKV6.s 			page 64


 2888 06db BD040000 		.4byte	.LASF89
 2889 06df 01       		.byte	0x1
 2890 06e0 15       		.byte	0x15
 2891 06e1 C1010000 		.4byte	0x1c1
 2892 06e5 05       		.uleb128 0x5
 2893 06e6 03       		.byte	0x3
 2894 06e7 00000000 		.4byte	sontek
 2895 06eb 09       		.uleb128 0x9
 2896 06ec EA000000 		.4byte	0xea
 2897 06f0 FB060000 		.4byte	0x6fb
 2898 06f4 0A       		.uleb128 0xa
 2899 06f5 E3000000 		.4byte	0xe3
 2900 06f9 01       		.byte	0x1
 2901 06fa 00       		.byte	0
 2902 06fb 1C       		.uleb128 0x1c
 2903 06fc 31000000 		.4byte	.LASF23
 2904 0700 01       		.byte	0x1
 2905 0701 1D       		.byte	0x1d
 2906 0702 EB060000 		.4byte	0x6eb
 2907 0706 05       		.uleb128 0x5
 2908 0707 03       		.byte	0x3
 2909 0708 00000000 		.4byte	labels
 2910 070c 09       		.uleb128 0x9
 2911 070d C7000000 		.4byte	0xc7
 2912 0711 1C070000 		.4byte	0x71c
 2913 0715 0A       		.uleb128 0xa
 2914 0716 E3000000 		.4byte	0xe3
 2915 071a 01       		.byte	0x1
 2916 071b 00       		.byte	0
 2917 071c 1C       		.uleb128 0x1c
 2918 071d 16020000 		.4byte	.LASF24
 2919 0721 01       		.byte	0x1
 2920 0722 1E       		.byte	0x1e
 2921 0723 0C070000 		.4byte	0x70c
 2922 0727 05       		.uleb128 0x5
 2923 0728 03       		.byte	0x3
 2924 0729 00000000 		.4byte	values
 2925 072d 1C       		.uleb128 0x1c
 2926 072e 64030000 		.4byte	.LASF90
 2927 0732 01       		.byte	0x1
 2928 0733 1F       		.byte	0x1f
 2929 0734 C1010000 		.4byte	0x1c1
 2930 0738 05       		.uleb128 0x5
 2931 0739 03       		.byte	0x3
 2932 073a 00000000 		.4byte	solinst
 2933 073e 09       		.uleb128 0x9
 2934 073f EA000000 		.4byte	0xea
 2935 0743 4E070000 		.4byte	0x74e
 2936 0747 0A       		.uleb128 0xa
 2937 0748 E3000000 		.4byte	0xe3
 2938 074c 02       		.byte	0x2
 2939 074d 00       		.byte	0
 2940 074e 1C       		.uleb128 0x1c
 2941 074f 27030000 		.4byte	.LASF91
 2942 0753 01       		.byte	0x1
 2943 0754 28       		.byte	0x28
 2944 0755 3E070000 		.4byte	0x73e
ARM GAS  C:\Users\klabu\AppData\Local\Temp\ccOZgKV6.s 			page 65


 2945 0759 05       		.uleb128 0x5
 2946 075a 03       		.byte	0x3
 2947 075b 00000000 		.4byte	GS3_labels
 2948 075f 09       		.uleb128 0x9
 2949 0760 C7000000 		.4byte	0xc7
 2950 0764 6F070000 		.4byte	0x76f
 2951 0768 0A       		.uleb128 0xa
 2952 0769 E3000000 		.4byte	0xe3
 2953 076d 02       		.byte	0x2
 2954 076e 00       		.byte	0
 2955 076f 1C       		.uleb128 0x1c
 2956 0770 84040000 		.4byte	.LASF92
 2957 0774 01       		.byte	0x1
 2958 0775 29       		.byte	0x29
 2959 0776 5F070000 		.4byte	0x75f
 2960 077a 05       		.uleb128 0x5
 2961 077b 03       		.byte	0x3
 2962 077c 00000000 		.4byte	GS3_values
 2963 0780 1D       		.uleb128 0x1d
 2964 0781 47533300 		.ascii	"GS3\000"
 2965 0785 01       		.byte	0x1
 2966 0786 2A       		.byte	0x2a
 2967 0787 C1010000 		.4byte	0x1c1
 2968 078b 05       		.uleb128 0x5
 2969 078c 03       		.byte	0x3
 2970 078d 00000000 		.4byte	GS3
 2971 0791 1D       		.uleb128 0x1d
 2972 0792 6900     		.ascii	"i\000"
 2973 0794 01       		.byte	0x1
 2974 0795 39       		.byte	0x39
 2975 0796 97000000 		.4byte	0x97
 2976 079a 05       		.uleb128 0x5
 2977 079b 03       		.byte	0x3
 2978 079c 00000000 		.4byte	i
 2979 07a0 1C       		.uleb128 0x1c
 2980 07a1 18050000 		.4byte	.LASF93
 2981 07a5 01       		.byte	0x1
 2982 07a6 3A       		.byte	0x3a
 2983 07a7 AF000000 		.4byte	0xaf
 2984 07ab 05       		.uleb128 0x5
 2985 07ac 03       		.byte	0x3
 2986 07ad 00000000 		.4byte	ms_delay
 2987 07b1 1C       		.uleb128 0x1c
 2988 07b2 F4040000 		.4byte	.LASF57
 2989 07b6 01       		.byte	0x1
 2990 07b7 3D       		.byte	0x3d
 2991 07b8 D4040000 		.4byte	0x4d4
 2992 07bc 05       		.uleb128 0x5
 2993 07bd 03       		.byte	0x3
 2994 07be 00000000 		.4byte	command
 2995 07c2 1C       		.uleb128 0x1c
 2996 07c3 32030000 		.4byte	.LASF94
 2997 07c7 01       		.byte	0x1
 2998 07c8 40       		.byte	0x40
 2999 07c9 D4040000 		.4byte	0x4d4
 3000 07cd 05       		.uleb128 0x5
 3001 07ce 03       		.byte	0x3
ARM GAS  C:\Users\klabu\AppData\Local\Temp\ccOZgKV6.s 			page 66


 3002 07cf 00000000 		.4byte	value_str
 3003 07d3 09       		.uleb128 0x9
 3004 07d4 D5000000 		.4byte	0xd5
 3005 07d8 E3070000 		.4byte	0x7e3
 3006 07dc 0A       		.uleb128 0xa
 3007 07dd E3000000 		.4byte	0xe3
 3008 07e1 09       		.byte	0x9
 3009 07e2 00       		.byte	0
 3010 07e3 1C       		.uleb128 0x1c
 3011 07e4 0F000000 		.4byte	.LASF95
 3012 07e8 01       		.byte	0x1
 3013 07e9 40       		.byte	0x40
 3014 07ea D3070000 		.4byte	0x7d3
 3015 07ee 05       		.uleb128 0x5
 3016 07ef 03       		.byte	0x3
 3017 07f0 00000000 		.4byte	delay_str
 3018 07f4 1C       		.uleb128 0x1c
 3019 07f5 01010000 		.4byte	.LASF96
 3020 07f9 01       		.byte	0x1
 3021 07fa 40       		.byte	0x40
 3022 07fb EA000000 		.4byte	0xea
 3023 07ff 05       		.uleb128 0x5
 3024 0800 03       		.byte	0x3
 3025 0801 00000000 		.4byte	ptr_end
 3026 0805 1C       		.uleb128 0x1c
 3027 0806 BD030000 		.4byte	.LASF97
 3028 080a 01       		.byte	0x1
 3029 080b 40       		.byte	0x40
 3030 080c EA000000 		.4byte	0xea
 3031 0810 05       		.uleb128 0x5
 3032 0811 03       		.byte	0x3
 3033 0812 00000000 		.4byte	sign
 3034 0816 00       		.byte	0
 3035              		.section	.debug_abbrev,"",%progbits
 3036              	.Ldebug_abbrev0:
 3037 0000 01       		.uleb128 0x1
 3038 0001 11       		.uleb128 0x11
 3039 0002 01       		.byte	0x1
 3040 0003 25       		.uleb128 0x25
 3041 0004 0E       		.uleb128 0xe
 3042 0005 13       		.uleb128 0x13
 3043 0006 0B       		.uleb128 0xb
 3044 0007 03       		.uleb128 0x3
 3045 0008 0E       		.uleb128 0xe
 3046 0009 1B       		.uleb128 0x1b
 3047 000a 0E       		.uleb128 0xe
 3048 000b 55       		.uleb128 0x55
 3049 000c 17       		.uleb128 0x17
 3050 000d 11       		.uleb128 0x11
 3051 000e 01       		.uleb128 0x1
 3052 000f 10       		.uleb128 0x10
 3053 0010 17       		.uleb128 0x17
 3054 0011 00       		.byte	0
 3055 0012 00       		.byte	0
 3056 0013 02       		.uleb128 0x2
 3057 0014 24       		.uleb128 0x24
 3058 0015 00       		.byte	0
ARM GAS  C:\Users\klabu\AppData\Local\Temp\ccOZgKV6.s 			page 67


 3059 0016 0B       		.uleb128 0xb
 3060 0017 0B       		.uleb128 0xb
 3061 0018 3E       		.uleb128 0x3e
 3062 0019 0B       		.uleb128 0xb
 3063 001a 03       		.uleb128 0x3
 3064 001b 0E       		.uleb128 0xe
 3065 001c 00       		.byte	0
 3066 001d 00       		.byte	0
 3067 001e 03       		.uleb128 0x3
 3068 001f 16       		.uleb128 0x16
 3069 0020 00       		.byte	0
 3070 0021 03       		.uleb128 0x3
 3071 0022 0E       		.uleb128 0xe
 3072 0023 3A       		.uleb128 0x3a
 3073 0024 0B       		.uleb128 0xb
 3074 0025 3B       		.uleb128 0x3b
 3075 0026 0B       		.uleb128 0xb
 3076 0027 49       		.uleb128 0x49
 3077 0028 13       		.uleb128 0x13
 3078 0029 00       		.byte	0
 3079 002a 00       		.byte	0
 3080 002b 04       		.uleb128 0x4
 3081 002c 24       		.uleb128 0x24
 3082 002d 00       		.byte	0
 3083 002e 0B       		.uleb128 0xb
 3084 002f 0B       		.uleb128 0xb
 3085 0030 3E       		.uleb128 0x3e
 3086 0031 0B       		.uleb128 0xb
 3087 0032 03       		.uleb128 0x3
 3088 0033 08       		.uleb128 0x8
 3089 0034 00       		.byte	0
 3090 0035 00       		.byte	0
 3091 0036 05       		.uleb128 0x5
 3092 0037 16       		.uleb128 0x16
 3093 0038 00       		.byte	0
 3094 0039 03       		.uleb128 0x3
 3095 003a 0E       		.uleb128 0xe
 3096 003b 3A       		.uleb128 0x3a
 3097 003c 0B       		.uleb128 0xb
 3098 003d 3B       		.uleb128 0x3b
 3099 003e 05       		.uleb128 0x5
 3100 003f 49       		.uleb128 0x49
 3101 0040 13       		.uleb128 0x13
 3102 0041 00       		.byte	0
 3103 0042 00       		.byte	0
 3104 0043 06       		.uleb128 0x6
 3105 0044 0F       		.uleb128 0xf
 3106 0045 00       		.byte	0
 3107 0046 0B       		.uleb128 0xb
 3108 0047 0B       		.uleb128 0xb
 3109 0048 49       		.uleb128 0x49
 3110 0049 13       		.uleb128 0x13
 3111 004a 00       		.byte	0
 3112 004b 00       		.byte	0
 3113 004c 07       		.uleb128 0x7
 3114 004d 13       		.uleb128 0x13
 3115 004e 01       		.byte	0x1
ARM GAS  C:\Users\klabu\AppData\Local\Temp\ccOZgKV6.s 			page 68


 3116 004f 0B       		.uleb128 0xb
 3117 0050 0B       		.uleb128 0xb
 3118 0051 3A       		.uleb128 0x3a
 3119 0052 0B       		.uleb128 0xb
 3120 0053 3B       		.uleb128 0x3b
 3121 0054 0B       		.uleb128 0xb
 3122 0055 01       		.uleb128 0x1
 3123 0056 13       		.uleb128 0x13
 3124 0057 00       		.byte	0
 3125 0058 00       		.byte	0
 3126 0059 08       		.uleb128 0x8
 3127 005a 0D       		.uleb128 0xd
 3128 005b 00       		.byte	0
 3129 005c 03       		.uleb128 0x3
 3130 005d 0E       		.uleb128 0xe
 3131 005e 3A       		.uleb128 0x3a
 3132 005f 0B       		.uleb128 0xb
 3133 0060 3B       		.uleb128 0x3b
 3134 0061 0B       		.uleb128 0xb
 3135 0062 49       		.uleb128 0x49
 3136 0063 13       		.uleb128 0x13
 3137 0064 38       		.uleb128 0x38
 3138 0065 0B       		.uleb128 0xb
 3139 0066 00       		.byte	0
 3140 0067 00       		.byte	0
 3141 0068 09       		.uleb128 0x9
 3142 0069 01       		.uleb128 0x1
 3143 006a 01       		.byte	0x1
 3144 006b 49       		.uleb128 0x49
 3145 006c 13       		.uleb128 0x13
 3146 006d 01       		.uleb128 0x1
 3147 006e 13       		.uleb128 0x13
 3148 006f 00       		.byte	0
 3149 0070 00       		.byte	0
 3150 0071 0A       		.uleb128 0xa
 3151 0072 21       		.uleb128 0x21
 3152 0073 00       		.byte	0
 3153 0074 49       		.uleb128 0x49
 3154 0075 13       		.uleb128 0x13
 3155 0076 2F       		.uleb128 0x2f
 3156 0077 0B       		.uleb128 0xb
 3157 0078 00       		.byte	0
 3158 0079 00       		.byte	0
 3159 007a 0B       		.uleb128 0xb
 3160 007b 0D       		.uleb128 0xd
 3161 007c 00       		.byte	0
 3162 007d 03       		.uleb128 0x3
 3163 007e 08       		.uleb128 0x8
 3164 007f 3A       		.uleb128 0x3a
 3165 0080 0B       		.uleb128 0xb
 3166 0081 3B       		.uleb128 0x3b
 3167 0082 0B       		.uleb128 0xb
 3168 0083 49       		.uleb128 0x49
 3169 0084 13       		.uleb128 0x13
 3170 0085 38       		.uleb128 0x38
 3171 0086 0B       		.uleb128 0xb
 3172 0087 00       		.byte	0
ARM GAS  C:\Users\klabu\AppData\Local\Temp\ccOZgKV6.s 			page 69


 3173 0088 00       		.byte	0
 3174 0089 0C       		.uleb128 0xc
 3175 008a 2E       		.uleb128 0x2e
 3176 008b 00       		.byte	0
 3177 008c 3F       		.uleb128 0x3f
 3178 008d 19       		.uleb128 0x19
 3179 008e 03       		.uleb128 0x3
 3180 008f 0E       		.uleb128 0xe
 3181 0090 3A       		.uleb128 0x3a
 3182 0091 0B       		.uleb128 0xb
 3183 0092 3B       		.uleb128 0x3b
 3184 0093 0B       		.uleb128 0xb
 3185 0094 11       		.uleb128 0x11
 3186 0095 01       		.uleb128 0x1
 3187 0096 12       		.uleb128 0x12
 3188 0097 06       		.uleb128 0x6
 3189 0098 40       		.uleb128 0x40
 3190 0099 18       		.uleb128 0x18
 3191 009a 9642     		.uleb128 0x2116
 3192 009c 19       		.uleb128 0x19
 3193 009d 00       		.byte	0
 3194 009e 00       		.byte	0
 3195 009f 0D       		.uleb128 0xd
 3196 00a0 2E       		.uleb128 0x2e
 3197 00a1 01       		.byte	0x1
 3198 00a2 3F       		.uleb128 0x3f
 3199 00a3 19       		.uleb128 0x19
 3200 00a4 03       		.uleb128 0x3
 3201 00a5 0E       		.uleb128 0xe
 3202 00a6 3A       		.uleb128 0x3a
 3203 00a7 0B       		.uleb128 0xb
 3204 00a8 3B       		.uleb128 0x3b
 3205 00a9 0B       		.uleb128 0xb
 3206 00aa 27       		.uleb128 0x27
 3207 00ab 19       		.uleb128 0x19
 3208 00ac 49       		.uleb128 0x49
 3209 00ad 13       		.uleb128 0x13
 3210 00ae 11       		.uleb128 0x11
 3211 00af 01       		.uleb128 0x1
 3212 00b0 12       		.uleb128 0x12
 3213 00b1 06       		.uleb128 0x6
 3214 00b2 40       		.uleb128 0x40
 3215 00b3 18       		.uleb128 0x18
 3216 00b4 9642     		.uleb128 0x2116
 3217 00b6 19       		.uleb128 0x19
 3218 00b7 01       		.uleb128 0x1
 3219 00b8 13       		.uleb128 0x13
 3220 00b9 00       		.byte	0
 3221 00ba 00       		.byte	0
 3222 00bb 0E       		.uleb128 0xe
 3223 00bc 05       		.uleb128 0x5
 3224 00bd 00       		.byte	0
 3225 00be 03       		.uleb128 0x3
 3226 00bf 08       		.uleb128 0x8
 3227 00c0 3A       		.uleb128 0x3a
 3228 00c1 0B       		.uleb128 0xb
 3229 00c2 3B       		.uleb128 0x3b
ARM GAS  C:\Users\klabu\AppData\Local\Temp\ccOZgKV6.s 			page 70


 3230 00c3 0B       		.uleb128 0xb
 3231 00c4 49       		.uleb128 0x49
 3232 00c5 13       		.uleb128 0x13
 3233 00c6 02       		.uleb128 0x2
 3234 00c7 18       		.uleb128 0x18
 3235 00c8 00       		.byte	0
 3236 00c9 00       		.byte	0
 3237 00ca 0F       		.uleb128 0xf
 3238 00cb 2E       		.uleb128 0x2e
 3239 00cc 00       		.byte	0
 3240 00cd 3F       		.uleb128 0x3f
 3241 00ce 19       		.uleb128 0x19
 3242 00cf 03       		.uleb128 0x3
 3243 00d0 0E       		.uleb128 0xe
 3244 00d1 3A       		.uleb128 0x3a
 3245 00d2 0B       		.uleb128 0xb
 3246 00d3 3B       		.uleb128 0x3b
 3247 00d4 0B       		.uleb128 0xb
 3248 00d5 49       		.uleb128 0x49
 3249 00d6 13       		.uleb128 0x13
 3250 00d7 11       		.uleb128 0x11
 3251 00d8 01       		.uleb128 0x1
 3252 00d9 12       		.uleb128 0x12
 3253 00da 06       		.uleb128 0x6
 3254 00db 40       		.uleb128 0x40
 3255 00dc 18       		.uleb128 0x18
 3256 00dd 9742     		.uleb128 0x2117
 3257 00df 19       		.uleb128 0x19
 3258 00e0 00       		.byte	0
 3259 00e1 00       		.byte	0
 3260 00e2 10       		.uleb128 0x10
 3261 00e3 2E       		.uleb128 0x2e
 3262 00e4 01       		.byte	0x1
 3263 00e5 3F       		.uleb128 0x3f
 3264 00e6 19       		.uleb128 0x19
 3265 00e7 03       		.uleb128 0x3
 3266 00e8 0E       		.uleb128 0xe
 3267 00e9 3A       		.uleb128 0x3a
 3268 00ea 0B       		.uleb128 0xb
 3269 00eb 3B       		.uleb128 0x3b
 3270 00ec 0B       		.uleb128 0xb
 3271 00ed 27       		.uleb128 0x27
 3272 00ee 19       		.uleb128 0x19
 3273 00ef 11       		.uleb128 0x11
 3274 00f0 01       		.uleb128 0x1
 3275 00f1 12       		.uleb128 0x12
 3276 00f2 06       		.uleb128 0x6
 3277 00f3 40       		.uleb128 0x40
 3278 00f4 18       		.uleb128 0x18
 3279 00f5 9642     		.uleb128 0x2116
 3280 00f7 19       		.uleb128 0x19
 3281 00f8 01       		.uleb128 0x1
 3282 00f9 13       		.uleb128 0x13
 3283 00fa 00       		.byte	0
 3284 00fb 00       		.byte	0
 3285 00fc 11       		.uleb128 0x11
 3286 00fd 05       		.uleb128 0x5
ARM GAS  C:\Users\klabu\AppData\Local\Temp\ccOZgKV6.s 			page 71


 3287 00fe 00       		.byte	0
 3288 00ff 03       		.uleb128 0x3
 3289 0100 0E       		.uleb128 0xe
 3290 0101 3A       		.uleb128 0x3a
 3291 0102 0B       		.uleb128 0xb
 3292 0103 3B       		.uleb128 0x3b
 3293 0104 0B       		.uleb128 0xb
 3294 0105 49       		.uleb128 0x49
 3295 0106 13       		.uleb128 0x13
 3296 0107 02       		.uleb128 0x2
 3297 0108 18       		.uleb128 0x18
 3298 0109 00       		.byte	0
 3299 010a 00       		.byte	0
 3300 010b 12       		.uleb128 0x12
 3301 010c 2E       		.uleb128 0x2e
 3302 010d 01       		.byte	0x1
 3303 010e 3F       		.uleb128 0x3f
 3304 010f 19       		.uleb128 0x19
 3305 0110 03       		.uleb128 0x3
 3306 0111 0E       		.uleb128 0xe
 3307 0112 3A       		.uleb128 0x3a
 3308 0113 0B       		.uleb128 0xb
 3309 0114 3B       		.uleb128 0x3b
 3310 0115 05       		.uleb128 0x5
 3311 0116 27       		.uleb128 0x27
 3312 0117 19       		.uleb128 0x19
 3313 0118 49       		.uleb128 0x49
 3314 0119 13       		.uleb128 0x13
 3315 011a 11       		.uleb128 0x11
 3316 011b 01       		.uleb128 0x1
 3317 011c 12       		.uleb128 0x12
 3318 011d 06       		.uleb128 0x6
 3319 011e 40       		.uleb128 0x40
 3320 011f 18       		.uleb128 0x18
 3321 0120 9642     		.uleb128 0x2116
 3322 0122 19       		.uleb128 0x19
 3323 0123 01       		.uleb128 0x1
 3324 0124 13       		.uleb128 0x13
 3325 0125 00       		.byte	0
 3326 0126 00       		.byte	0
 3327 0127 13       		.uleb128 0x13
 3328 0128 05       		.uleb128 0x5
 3329 0129 00       		.byte	0
 3330 012a 03       		.uleb128 0x3
 3331 012b 0E       		.uleb128 0xe
 3332 012c 3A       		.uleb128 0x3a
 3333 012d 0B       		.uleb128 0xb
 3334 012e 3B       		.uleb128 0x3b
 3335 012f 05       		.uleb128 0x5
 3336 0130 49       		.uleb128 0x49
 3337 0131 13       		.uleb128 0x13
 3338 0132 02       		.uleb128 0x2
 3339 0133 18       		.uleb128 0x18
 3340 0134 00       		.byte	0
 3341 0135 00       		.byte	0
 3342 0136 14       		.uleb128 0x14
 3343 0137 34       		.uleb128 0x34
ARM GAS  C:\Users\klabu\AppData\Local\Temp\ccOZgKV6.s 			page 72


 3344 0138 00       		.byte	0
 3345 0139 03       		.uleb128 0x3
 3346 013a 0E       		.uleb128 0xe
 3347 013b 3A       		.uleb128 0x3a
 3348 013c 0B       		.uleb128 0xb
 3349 013d 3B       		.uleb128 0x3b
 3350 013e 05       		.uleb128 0x5
 3351 013f 49       		.uleb128 0x49
 3352 0140 13       		.uleb128 0x13
 3353 0141 02       		.uleb128 0x2
 3354 0142 18       		.uleb128 0x18
 3355 0143 00       		.byte	0
 3356 0144 00       		.byte	0
 3357 0145 15       		.uleb128 0x15
 3358 0146 34       		.uleb128 0x34
 3359 0147 00       		.byte	0
 3360 0148 03       		.uleb128 0x3
 3361 0149 08       		.uleb128 0x8
 3362 014a 3A       		.uleb128 0x3a
 3363 014b 0B       		.uleb128 0xb
 3364 014c 3B       		.uleb128 0x3b
 3365 014d 05       		.uleb128 0x5
 3366 014e 49       		.uleb128 0x49
 3367 014f 13       		.uleb128 0x13
 3368 0150 02       		.uleb128 0x2
 3369 0151 18       		.uleb128 0x18
 3370 0152 00       		.byte	0
 3371 0153 00       		.byte	0
 3372 0154 16       		.uleb128 0x16
 3373 0155 2E       		.uleb128 0x2e
 3374 0156 01       		.byte	0x1
 3375 0157 3F       		.uleb128 0x3f
 3376 0158 19       		.uleb128 0x19
 3377 0159 03       		.uleb128 0x3
 3378 015a 0E       		.uleb128 0xe
 3379 015b 3A       		.uleb128 0x3a
 3380 015c 0B       		.uleb128 0xb
 3381 015d 3B       		.uleb128 0x3b
 3382 015e 05       		.uleb128 0x5
 3383 015f 27       		.uleb128 0x27
 3384 0160 19       		.uleb128 0x19
 3385 0161 11       		.uleb128 0x11
 3386 0162 01       		.uleb128 0x1
 3387 0163 12       		.uleb128 0x12
 3388 0164 06       		.uleb128 0x6
 3389 0165 40       		.uleb128 0x40
 3390 0166 18       		.uleb128 0x18
 3391 0167 9642     		.uleb128 0x2116
 3392 0169 19       		.uleb128 0x19
 3393 016a 01       		.uleb128 0x1
 3394 016b 13       		.uleb128 0x13
 3395 016c 00       		.byte	0
 3396 016d 00       		.byte	0
 3397 016e 17       		.uleb128 0x17
 3398 016f 0B       		.uleb128 0xb
 3399 0170 01       		.byte	0x1
 3400 0171 11       		.uleb128 0x11
ARM GAS  C:\Users\klabu\AppData\Local\Temp\ccOZgKV6.s 			page 73


 3401 0172 01       		.uleb128 0x1
 3402 0173 12       		.uleb128 0x12
 3403 0174 06       		.uleb128 0x6
 3404 0175 00       		.byte	0
 3405 0176 00       		.byte	0
 3406 0177 18       		.uleb128 0x18
 3407 0178 21       		.uleb128 0x21
 3408 0179 00       		.byte	0
 3409 017a 49       		.uleb128 0x49
 3410 017b 13       		.uleb128 0x13
 3411 017c 2F       		.uleb128 0x2f
 3412 017d 05       		.uleb128 0x5
 3413 017e 00       		.byte	0
 3414 017f 00       		.byte	0
 3415 0180 19       		.uleb128 0x19
 3416 0181 34       		.uleb128 0x34
 3417 0182 00       		.byte	0
 3418 0183 03       		.uleb128 0x3
 3419 0184 0E       		.uleb128 0xe
 3420 0185 3A       		.uleb128 0x3a
 3421 0186 0B       		.uleb128 0xb
 3422 0187 3B       		.uleb128 0x3b
 3423 0188 0B       		.uleb128 0xb
 3424 0189 49       		.uleb128 0x49
 3425 018a 13       		.uleb128 0x13
 3426 018b 02       		.uleb128 0x2
 3427 018c 18       		.uleb128 0x18
 3428 018d 00       		.byte	0
 3429 018e 00       		.byte	0
 3430 018f 1A       		.uleb128 0x1a
 3431 0190 34       		.uleb128 0x34
 3432 0191 00       		.byte	0
 3433 0192 03       		.uleb128 0x3
 3434 0193 0E       		.uleb128 0xe
 3435 0194 3A       		.uleb128 0x3a
 3436 0195 0B       		.uleb128 0xb
 3437 0196 3B       		.uleb128 0x3b
 3438 0197 05       		.uleb128 0x5
 3439 0198 49       		.uleb128 0x49
 3440 0199 13       		.uleb128 0x13
 3441 019a 3F       		.uleb128 0x3f
 3442 019b 19       		.uleb128 0x19
 3443 019c 3C       		.uleb128 0x3c
 3444 019d 19       		.uleb128 0x19
 3445 019e 00       		.byte	0
 3446 019f 00       		.byte	0
 3447 01a0 1B       		.uleb128 0x1b
 3448 01a1 35       		.uleb128 0x35
 3449 01a2 00       		.byte	0
 3450 01a3 49       		.uleb128 0x49
 3451 01a4 13       		.uleb128 0x13
 3452 01a5 00       		.byte	0
 3453 01a6 00       		.byte	0
 3454 01a7 1C       		.uleb128 0x1c
 3455 01a8 34       		.uleb128 0x34
 3456 01a9 00       		.byte	0
 3457 01aa 03       		.uleb128 0x3
ARM GAS  C:\Users\klabu\AppData\Local\Temp\ccOZgKV6.s 			page 74


 3458 01ab 0E       		.uleb128 0xe
 3459 01ac 3A       		.uleb128 0x3a
 3460 01ad 0B       		.uleb128 0xb
 3461 01ae 3B       		.uleb128 0x3b
 3462 01af 0B       		.uleb128 0xb
 3463 01b0 49       		.uleb128 0x49
 3464 01b1 13       		.uleb128 0x13
 3465 01b2 3F       		.uleb128 0x3f
 3466 01b3 19       		.uleb128 0x19
 3467 01b4 02       		.uleb128 0x2
 3468 01b5 18       		.uleb128 0x18
 3469 01b6 00       		.byte	0
 3470 01b7 00       		.byte	0
 3471 01b8 1D       		.uleb128 0x1d
 3472 01b9 34       		.uleb128 0x34
 3473 01ba 00       		.byte	0
 3474 01bb 03       		.uleb128 0x3
 3475 01bc 08       		.uleb128 0x8
 3476 01bd 3A       		.uleb128 0x3a
 3477 01be 0B       		.uleb128 0xb
 3478 01bf 3B       		.uleb128 0x3b
 3479 01c0 0B       		.uleb128 0xb
 3480 01c1 49       		.uleb128 0x49
 3481 01c2 13       		.uleb128 0x13
 3482 01c3 3F       		.uleb128 0x3f
 3483 01c4 19       		.uleb128 0x19
 3484 01c5 02       		.uleb128 0x2
 3485 01c6 18       		.uleb128 0x18
 3486 01c7 00       		.byte	0
 3487 01c8 00       		.byte	0
 3488 01c9 00       		.byte	0
 3489              		.section	.debug_aranges,"",%progbits
 3490 0000 7C000000 		.4byte	0x7c
 3491 0004 0200     		.2byte	0x2
 3492 0006 00000000 		.4byte	.Ldebug_info0
 3493 000a 04       		.byte	0x4
 3494 000b 00       		.byte	0
 3495 000c 0000     		.2byte	0
 3496 000e 0000     		.2byte	0
 3497 0010 00000000 		.4byte	.LFB64
 3498 0014 18000000 		.4byte	.LFE64-.LFB64
 3499 0018 00000000 		.4byte	.LFB65
 3500 001c 10000000 		.4byte	.LFE65-.LFB65
 3501 0020 00000000 		.4byte	.LFB66
 3502 0024 24000000 		.4byte	.LFE66-.LFB66
 3503 0028 00000000 		.4byte	.LFB67
 3504 002c 28000000 		.4byte	.LFE67-.LFB67
 3505 0030 00000000 		.4byte	.LFB68
 3506 0034 14000000 		.4byte	.LFE68-.LFB68
 3507 0038 00000000 		.4byte	.LFB69
 3508 003c 32000000 		.4byte	.LFE69-.LFB69
 3509 0040 00000000 		.4byte	.LFB70
 3510 0044 74000000 		.4byte	.LFE70-.LFB70
 3511 0048 00000000 		.4byte	.LFB71
 3512 004c A4000000 		.4byte	.LFE71-.LFB71
 3513 0050 00000000 		.4byte	.LFB72
 3514 0054 18000000 		.4byte	.LFE72-.LFB72
ARM GAS  C:\Users\klabu\AppData\Local\Temp\ccOZgKV6.s 			page 75


 3515 0058 00000000 		.4byte	.LFB73
 3516 005c 34010000 		.4byte	.LFE73-.LFB73
 3517 0060 00000000 		.4byte	.LFB74
 3518 0064 AC020000 		.4byte	.LFE74-.LFB74
 3519 0068 00000000 		.4byte	.LFB75
 3520 006c 38000000 		.4byte	.LFE75-.LFB75
 3521 0070 00000000 		.4byte	.LFB76
 3522 0074 1C040000 		.4byte	.LFE76-.LFB76
 3523 0078 00000000 		.4byte	0
 3524 007c 00000000 		.4byte	0
 3525              		.section	.debug_ranges,"",%progbits
 3526              	.Ldebug_ranges0:
 3527 0000 00000000 		.4byte	.LFB64
 3528 0004 18000000 		.4byte	.LFE64
 3529 0008 00000000 		.4byte	.LFB65
 3530 000c 10000000 		.4byte	.LFE65
 3531 0010 00000000 		.4byte	.LFB66
 3532 0014 24000000 		.4byte	.LFE66
 3533 0018 00000000 		.4byte	.LFB67
 3534 001c 28000000 		.4byte	.LFE67
 3535 0020 00000000 		.4byte	.LFB68
 3536 0024 14000000 		.4byte	.LFE68
 3537 0028 00000000 		.4byte	.LFB69
 3538 002c 32000000 		.4byte	.LFE69
 3539 0030 00000000 		.4byte	.LFB70
 3540 0034 74000000 		.4byte	.LFE70
 3541 0038 00000000 		.4byte	.LFB71
 3542 003c A4000000 		.4byte	.LFE71
 3543 0040 00000000 		.4byte	.LFB72
 3544 0044 18000000 		.4byte	.LFE72
 3545 0048 00000000 		.4byte	.LFB73
 3546 004c 34010000 		.4byte	.LFE73
 3547 0050 00000000 		.4byte	.LFB74
 3548 0054 AC020000 		.4byte	.LFE74
 3549 0058 00000000 		.4byte	.LFB75
 3550 005c 38000000 		.4byte	.LFE75
 3551 0060 00000000 		.4byte	.LFB76
 3552 0064 1C040000 		.4byte	.LFE76
 3553 0068 00000000 		.4byte	0
 3554 006c 00000000 		.4byte	0
 3555              		.section	.debug_line,"",%progbits
 3556              	.Ldebug_line0:
 3557 0000 2C040000 		.section	.debug_str,"MS",%progbits,1
 3557      02006D01 
 3557      00000201 
 3557      FB0E0D00 
 3557      01010101 
 3558              	.LASF68:
 3559 0000 76616C69 		.ascii	"valid\000"
 3559      6400
 3560              	.LASF36:
 3561 0006 6D6F6465 		.ascii	"model_id\000"
 3561      6C5F6964 
 3561      00
 3562              	.LASF95:
 3563 000f 64656C61 		.ascii	"delay_str\000"
 3563      795F7374 
ARM GAS  C:\Users\klabu\AppData\Local\Temp\ccOZgKV6.s 			page 76


 3563      7200
 3564              	.LASF73:
 3565 0019 6C6F6361 		.ascii	"location\000"
 3565      74696F6E 
 3565      00
 3566              	.LASF35:
 3567 0022 73696D5F 		.ascii	"sim_id\000"
 3567      696400
 3568              	.LASF29:
 3569 0029 76657273 		.ascii	"version\000"
 3569      696F6E00 
 3570              	.LASF23:
 3571 0031 6C616265 		.ascii	"labels\000"
 3571      6C7300
 3572              	.LASF88:
 3573 0038 736F6E74 		.ascii	"sontek_values\000"
 3573      656B5F76 
 3573      616C7565 
 3573      7300
 3574              	.LASF21:
 3575 0046 73697A65 		.ascii	"sizetype\000"
 3575      74797065 
 3575      00
 3576              	.LASF55:
 3577 004f 53444931 		.ascii	"SDI12_stop\000"
 3577      325F7374 
 3577      6F7000
 3578              	.LASF74:
 3579 005a 53444931 		.ascii	"SDI12_uart_buf\000"
 3579      325F7561 
 3579      72745F62 
 3579      756600
 3580              	.LASF58:
 3581 0069 636C6561 		.ascii	"clear_str\000"
 3581      725F7374 
 3581      7200
 3582              	.LASF98:
 3583 0073 474E5520 		.ascii	"GNU C11 5.4.1 20160609 (release) [ARM/embedded-5-br"
 3583      43313120 
 3583      352E342E 
 3583      31203230 
 3583      31363036 
 3584 00a6 616E6368 		.ascii	"anch revision 237715] -mcpu=cortex-m3 -mthumb -g -O"
 3584      20726576 
 3584      6973696F 
 3584      6E203233 
 3584      37373135 
 3585 00d9 30202D66 		.ascii	"0 -ffunction-sections -ffat-lto-objects\000"
 3585      66756E63 
 3585      74696F6E 
 3585      2D736563 
 3585      74696F6E 
 3586              	.LASF96:
 3587 0101 7074725F 		.ascii	"ptr_end\000"
 3587      656E6400 
 3588              	.LASF80:
 3589 0109 64617461 		.ascii	"data\000"
ARM GAS  C:\Users\klabu\AppData\Local\Temp\ccOZgKV6.s 			page 77


 3589      00
 3590              	.LASF70:
 3591 010e 6973725F 		.ascii	"isr_SDI12_data\000"
 3591      53444931 
 3591      325F6461 
 3591      746100
 3592              	.LASF62:
 3593 011d 6E65775F 		.ascii	"new_address\000"
 3593      61646472 
 3593      65737300 
 3594              	.LASF41:
 3595 0129 65636E6F 		.ascii	"ecno\000"
 3595      00
 3596              	.LASF2:
 3597 012e 73686F72 		.ascii	"short int\000"
 3597      7420696E 
 3597      7400
 3598              	.LASF32:
 3599 0138 76616C75 		.ascii	"value\000"
 3599      6500
 3600              	.LASF14:
 3601 013e 75696E74 		.ascii	"uint16\000"
 3601      313600
 3602              	.LASF11:
 3603 0145 75696E74 		.ascii	"uint8_t\000"
 3603      385F7400 
 3604              	.LASF59:
 3605 014d 53444931 		.ascii	"SDI12_is_active\000"
 3605      325F6973 
 3605      5F616374 
 3605      69766500 
 3606              	.LASF78:
 3607 015d 64617461 		.ascii	"dataPointsInStack\000"
 3607      506F696E 
 3607      7473496E 
 3607      53746163 
 3607      6B00
 3608              	.LASF13:
 3609 016f 75696E74 		.ascii	"uint8\000"
 3609      3800
 3610              	.LASF31:
 3611 0175 53444931 		.ascii	"SDI12_sensor\000"
 3611      325F7365 
 3611      6E736F72 
 3611      00
 3612              	.LASF40:
 3613 0182 72736370 		.ascii	"rscp\000"
 3613      00
 3614              	.LASF43:
 3615 0187 72737270 		.ascii	"rsrp\000"
 3615      00
 3616              	.LASF33:
 3617 018c 74696D65 		.ascii	"timeStamp\000"
 3617      5374616D 
 3617      7000
 3618              	.LASF79:
 3619 0196 64617461 		.ascii	"dataPointsInStackDesired\000"
ARM GAS  C:\Users\klabu\AppData\Local\Temp\ccOZgKV6.s 			page 78


 3619      506F696E 
 3619      7473496E 
 3619      53746163 
 3619      6B446573 
 3620              	.LASF17:
 3621 01af 666C6F61 		.ascii	"float\000"
 3621      7400
 3622              	.LASF16:
 3623 01b5 696E7433 		.ascii	"int32\000"
 3623      3200
 3624              	.LASF8:
 3625 01bb 6C6F6E67 		.ascii	"long long int\000"
 3625      206C6F6E 
 3625      6720696E 
 3625      7400
 3626              	.LASF9:
 3627 01c9 6C6F6E67 		.ascii	"long long unsigned int\000"
 3627      206C6F6E 
 3627      6720756E 
 3627      7369676E 
 3627      65642069 
 3628              	.LASF19:
 3629 01e0 63686172 		.ascii	"char\000"
 3629      00
 3630              	.LASF38:
 3631 01e5 6D6F6465 		.ascii	"modem_info_t\000"
 3631      6D5F696E 
 3631      666F5F74 
 3631      00
 3632              	.LASF6:
 3633 01f2 6C6F6E67 		.ascii	"long int\000"
 3633      20696E74 
 3633      00
 3634              	.LASF77:
 3635 01fb 62756666 		.ascii	"buffer_overflow\000"
 3635      65725F6F 
 3635      76657266 
 3635      6C6F7700 
 3636              	.LASF83:
 3637 020b 6D6F6465 		.ascii	"modem_info\000"
 3637      6D5F696E 
 3637      666F00
 3638              	.LASF24:
 3639 0216 76616C75 		.ascii	"values\000"
 3639      657300
 3640              	.LASF4:
 3641 021d 5F5F7569 		.ascii	"__uint8_t\000"
 3641      6E74385F 
 3641      7400
 3642              	.LASF84:
 3643 0227 6D6F6465 		.ascii	"modem_stats\000"
 3643      6D5F7374 
 3643      61747300 
 3644              	.LASF54:
 3645 0233 53444931 		.ascii	"SDI12_start\000"
 3645      325F7374 
 3645      61727400 
ARM GAS  C:\Users\klabu\AppData\Local\Temp\ccOZgKV6.s 			page 79


 3646              	.LASF49:
 3647 023f 6D656173 		.ascii	"measure_time\000"
 3647      7572655F 
 3647      74696D65 
 3647      00
 3648              	.LASF20:
 3649 024c 6C6F6E67 		.ascii	"long double\000"
 3649      20646F75 
 3649      626C6500 
 3650              	.LASF1:
 3651 0258 756E7369 		.ascii	"unsigned char\000"
 3651      676E6564 
 3651      20636861 
 3651      7200
 3652              	.LASF75:
 3653 0266 53444931 		.ascii	"SDI12_buf_idx\000"
 3653      325F6275 
 3653      665F6964 
 3653      7800
 3654              	.LASF82:
 3655 0274 6D6F6465 		.ascii	"modem_start_time_stamp\000"
 3655      6D5F7374 
 3655      6172745F 
 3655      74696D65 
 3655      5F737461 
 3656              	.LASF81:
 3657 028b 6D6F6465 		.ascii	"modem_state\000"
 3657      6D5F7374 
 3657      61746500 
 3658              	.LASF0:
 3659 0297 7369676E 		.ascii	"signed char\000"
 3659      65642063 
 3659      68617200 
 3660              	.LASF22:
 3661 02a3 61646472 		.ascii	"address\000"
 3661      65737300 
 3662              	.LASF10:
 3663 02ab 756E7369 		.ascii	"unsigned int\000"
 3663      676E6564 
 3663      20696E74 
 3663      00
 3664              	.LASF34:
 3665 02b8 6B65795F 		.ascii	"key_value_t\000"
 3665      76616C75 
 3665      655F7400 
 3666              	.LASF39:
 3667 02c4 72786C65 		.ascii	"rxlev\000"
 3667      7600
 3668              	.LASF50:
 3669 02ca 73796E63 		.ascii	"sync_time\000"
 3669      5F74696D 
 3669      6500
 3670              	.LASF53:
 3671 02d4 75706461 		.ascii	"updatable_parameters_t\000"
 3671      7461626C 
 3671      655F7061 
 3671      72616D65 
ARM GAS  C:\Users\klabu\AppData\Local\Temp\ccOZgKV6.s 			page 80


 3671      74657273 
 3672              	.LASF99:
 3673 02eb 53444931 		.ascii	"SDI12.c\000"
 3673      322E6300 
 3674              	.LASF48:
 3675 02f3 73696D5F 		.ascii	"sim_type\000"
 3675      74797065 
 3675      00
 3676              	.LASF3:
 3677 02fc 73686F72 		.ascii	"short unsigned int\000"
 3677      7420756E 
 3677      7369676E 
 3677      65642069 
 3677      6E7400
 3678              	.LASF44:
 3679 030f 74696D65 		.ascii	"time_to_network_connect\000"
 3679      5F746F5F 
 3679      6E657477 
 3679      6F726B5F 
 3679      636F6E6E 
 3680              	.LASF91:
 3681 0327 4753335F 		.ascii	"GS3_labels\000"
 3681      6C616265 
 3681      6C7300
 3682              	.LASF94:
 3683 0332 76616C75 		.ascii	"value_str\000"
 3683      655F7374 
 3683      7200
 3684              	.LASF45:
 3685 033c 74696D65 		.ascii	"time_to_acquire_ip\000"
 3685      5F746F5F 
 3685      61637175 
 3685      6972655F 
 3685      697000
 3686              	.LASF37:
 3687 034f 696D6569 		.ascii	"imei\000"
 3687      00
 3688              	.LASF86:
 3689 0354 73656E73 		.ascii	"sensors\000"
 3689      6F727300 
 3690              	.LASF12:
 3691 035c 696E7433 		.ascii	"int32_t\000"
 3691      325F7400 
 3692              	.LASF90:
 3693 0364 736F6C69 		.ascii	"solinst\000"
 3693      6E737400 
 3694              	.LASF30:
 3695 036c 73657269 		.ascii	"serial\000"
 3695      616C00
 3696              	.LASF46:
 3697 0373 6D6F6465 		.ascii	"modem_stats_t\000"
 3697      6D5F7374 
 3697      6174735F 
 3697      7400
 3698              	.LASF52:
 3699 0381 5F426F6F 		.ascii	"_Bool\000"
 3699      6C00
ARM GAS  C:\Users\klabu\AppData\Local\Temp\ccOZgKV6.s 			page 81


 3700              	.LASF101:
 3701 0387 73656E73 		.ascii	"sensors_uart_get_string\000"
 3701      6F72735F 
 3701      75617274 
 3701      5F676574 
 3701      5F737472 
 3702              	.LASF42:
 3703 039f 72737271 		.ascii	"rsrq\000"
 3703      00
 3704              	.LASF15:
 3705 03a4 75696E74 		.ascii	"uint32\000"
 3705      333200
 3706              	.LASF7:
 3707 03ab 6C6F6E67 		.ascii	"long unsigned int\000"
 3707      20756E73 
 3707      69676E65 
 3707      6420696E 
 3707      7400
 3708              	.LASF97:
 3709 03bd 7369676E 		.ascii	"sign\000"
 3709      00
 3710              	.LASF65:
 3711 03c2 7A69705F 		.ascii	"zip_SDI12\000"
 3711      53444931 
 3711      3200
 3712              	.LASF76:
 3713 03cc 49544D5F 		.ascii	"ITM_RxBuffer\000"
 3713      52784275 
 3713      66666572 
 3713      00
 3714              	.LASF87:
 3715 03d9 736F6E74 		.ascii	"sontek_labels\000"
 3715      656B5F6C 
 3715      6162656C 
 3715      7300
 3716              	.LASF100:
 3717 03e7 433A5C6E 		.ascii	"C:\\notoriOS\\notoriOS.cydsn\000"
 3717      6F746F72 
 3717      694F535C 
 3717      6E6F746F 
 3717      72694F53 
 3718              	.LASF69:
 3719 0402 53444931 		.ascii	"SDI12_send_command\000"
 3719      325F7365 
 3719      6E645F63 
 3719      6F6D6D61 
 3719      6E6400
 3720              	.LASF51:
 3721 0415 64656275 		.ascii	"debug_level\000"
 3721      675F6C65 
 3721      76656C00 
 3722              	.LASF56:
 3723 0421 53444931 		.ascii	"SDI12_uart_clear_string\000"
 3723      325F7561 
 3723      72745F63 
 3723      6C656172 
 3723      5F737472 
ARM GAS  C:\Users\klabu\AppData\Local\Temp\ccOZgKV6.s 			page 82


 3724              	.LASF64:
 3725 0439 53444931 		.ascii	"SDI12_info\000"
 3725      325F696E 
 3725      666F00
 3726              	.LASF5:
 3727 0444 5F5F696E 		.ascii	"__int32_t\000"
 3727      7433325F 
 3727      7400
 3728              	.LASF71:
 3729 044e 72785F63 		.ascii	"rx_char\000"
 3729      68617200 
 3730              	.LASF63:
 3731 0456 53444931 		.ascii	"SDI12_take_concurrent_measurement\000"
 3731      325F7461 
 3731      6B655F63 
 3731      6F6E6375 
 3731      7272656E 
 3732              	.LASF28:
 3733 0478 6D6F6465 		.ascii	"model\000"
 3733      6C00
 3734              	.LASF25:
 3735 047e 6E766172 		.ascii	"nvars\000"
 3735      7300
 3736              	.LASF92:
 3737 0484 4753335F 		.ascii	"GS3_values\000"
 3737      76616C75 
 3737      657300
 3738              	.LASF67:
 3739 048f 6F757470 		.ascii	"output\000"
 3739      757400
 3740              	.LASF18:
 3741 0496 646F7562 		.ascii	"double\000"
 3741      6C6500
 3742              	.LASF66:
 3743 049d 53444931 		.ascii	"SDI12_flag\000"
 3743      325F666C 
 3743      616700
 3744              	.LASF85:
 3745 04a8 75706461 		.ascii	"updatable_parameters\000"
 3745      7461626C 
 3745      655F7061 
 3745      72616D65 
 3745      74657273 
 3746              	.LASF89:
 3747 04bd 736F6E74 		.ascii	"sontek\000"
 3747      656B00
 3748              	.LASF72:
 3749 04c4 53444931 		.ascii	"SDI12_take_measurement\000"
 3749      325F7461 
 3749      6B655F6D 
 3749      65617375 
 3749      72656D65 
 3750              	.LASF26:
 3751 04db 765F5344 		.ascii	"v_SDI12\000"
 3751      49313200 
 3752              	.LASF27:
 3753 04e3 76656E64 		.ascii	"vendor\000"
ARM GAS  C:\Users\klabu\AppData\Local\Temp\ccOZgKV6.s 			page 83


 3753      6F7200
 3754              	.LASF47:
 3755 04ea 6E6F6465 		.ascii	"node_type\000"
 3755      5F747970 
 3755      6500
 3756              	.LASF57:
 3757 04f4 636F6D6D 		.ascii	"command\000"
 3757      616E6400 
 3758              	.LASF61:
 3759 04fc 53444931 		.ascii	"SDI12_change_address\000"
 3759      325F6368 
 3759      616E6765 
 3759      5F616464 
 3759      72657373 
 3760              	.LASF60:
 3761 0511 73656E73 		.ascii	"sensor\000"
 3761      6F7200
 3762              	.LASF93:
 3763 0518 6D735F64 		.ascii	"ms_delay\000"
 3763      656C6179 
 3763      00
 3764              		.ident	"GCC: (GNU Tools for ARM Embedded Processors) 5.4.1 20160609 (release) [ARM/embedded-5-bran
