ARM GAS  C:\Users\klabu\AppData\Local\Temp\ccgBioJt.s 			page 1


   1              		.syntax unified
   2              		.cpu cortex-m3
   3              		.fpu softvfp
   4              		.eabi_attribute 20, 1
   5              		.eabi_attribute 21, 1
   6              		.eabi_attribute 23, 3
   7              		.eabi_attribute 24, 1
   8              		.eabi_attribute 25, 1
   9              		.eabi_attribute 26, 1
  10              		.eabi_attribute 30, 6
  11              		.eabi_attribute 34, 1
  12              		.eabi_attribute 18, 4
  13              		.thumb
  14              		.syntax unified
  15              		.file	"sontek.c"
  16              		.text
  17              	.Ltext0:
  18              		.cfi_sections	.debug_frame
  19              		.comm	buffer_overflow,1,1
  20              		.comm	dataPointsInStack,2,2
  21              		.comm	dataPointsInStackDesired,2,2
  22              		.comm	data,6600,4
  23              		.comm	modem_state,1,1
  24              		.comm	modem_start_time_stamp,4,4
  25              		.comm	modem_info,60,4
  26              		.comm	modem_stats,32,4
  27              		.comm	updatable_parameters,5,4
  28              		.syntax unified
  29              		.global _printf_float
  30              		.section	.rodata
  31              		.align	2
  32              	.LC30:
  33 0000 4D00     		.ascii	"M\000"
  34 0002 0000     		.align	2
  35              	.LC31:
  36 0004 25732573 		.ascii	"%s%s%s\000"
  36      257300
  37 000b 00       		.align	2
  38              	.LC32:
  39 000c 2100     		.ascii	"!\000"
  40 000e 0000     		.align	2
  41              	.LC33:
  42 0010 4D3100   		.ascii	"M1\000"
  43 0013 00       		.align	2
  44              	.LC34:
  45 0014 4D3200   		.ascii	"M2\000"
  46 0017 00       		.align	2
  47              	.LC35:
  48 0018 0D0A00   		.ascii	"\015\012\000"
  49              		.global	__aeabi_d2uiz
  50 001b 00       		.align	2
  51              	.LC36:
  52 001c 443000   		.ascii	"D0\000"
  53 001f 00       		.align	2
  54              	.LC37:
  55 0020 443100   		.ascii	"D1\000"
  56 0023 00       		.align	2
ARM GAS  C:\Users\klabu\AppData\Local\Temp\ccgBioJt.s 			page 2


  57              	.LC38:
  58 0024 443200   		.ascii	"D2\000"
  59              		.global	__aeabi_d2f
  60              		.thumb
  61              		.syntax unified
  62              		.section	.text.SDI12_sontek_take_measurement,"ax",%progbits
  63              		.align	2
  64              		.global	SDI12_sontek_take_measurement
  65              		.thumb
  66              		.thumb_func
  67              		.type	SDI12_sontek_take_measurement, %function
  68              	SDI12_sontek_take_measurement:
  69              	.LFB64:
  70              		.file 1 "sontek.c"
   1:sontek.c      **** #include "sontek.h"
   2:sontek.c      **** #include "debug.h" //for strextract
   3:sontek.c      **** 
   4:sontek.c      **** /**
   5:sontek.c      ****  * @brief Take a measurement specifically for sontek sensor, given its address. Special case of SDI
   6:sontek.c      ****  * 
   7:sontek.c      ****  * @param sensor SDI12_sensor that we want to request measurements from
   8:sontek.c      ****  *
   9:sontek.c      ****  * @ return 1u if measurements were successfully taken, 0u if there was a communication error
  10:sontek.c      ****  */
  11:sontek.c      **** uint8 SDI12_sontek_take_measurement(SDI12_sensor* sensor) {
  71              		.loc 1 11 0
  72              		.cfi_startproc
  73              		@ args = 0, pretend = 0, frame = 240
  74              		@ frame_needed = 1, uses_anonymous_args = 0
  75 0000 90B5     		push	{r4, r7, lr}
  76              		.cfi_def_cfa_offset 12
  77              		.cfi_offset 4, -12
  78              		.cfi_offset 7, -8
  79              		.cfi_offset 14, -4
  80 0002 BFB0     		sub	sp, sp, #252
  81              		.cfi_def_cfa_offset 264
  82 0004 02AF     		add	r7, sp, #8
  83              		.cfi_def_cfa 7, 256
  84 0006 7860     		str	r0, [r7, #4]
  12:sontek.c      ****     
  13:sontek.c      ****     // The buffer and index are dependent on eachother. This buffer is implemented as a circular bu
  14:sontek.c      ****     static char SDI12_uart_buf[257] = {'\0'};
  15:sontek.c      ****     static uint8_t SDI12_buf_idx = 0u;
  16:sontek.c      ****     
  17:sontek.c      ****     // unsigned ints for taking measurements
  18:sontek.c      ****     uint8         i = 0u; // for iterating through sensor measurements
  85              		.loc 1 18 0
  86 0008 0023     		movs	r3, #0
  87 000a 87F8EF30 		strb	r3, [r7, #239]
  19:sontek.c      ****     uint8         j = 0u; //for iterating through M commands
  88              		.loc 1 19 0
  89 000e 0023     		movs	r3, #0
  90 0010 87F8EE30 		strb	r3, [r7, #238]
  20:sontek.c      ****     uint8         k = 0u; //for iterating through D commands
  91              		.loc 1 20 0
  92 0014 0023     		movs	r3, #0
  93 0016 87F8ED30 		strb	r3, [r7, #237]
ARM GAS  C:\Users\klabu\AppData\Local\Temp\ccgBioJt.s 			page 3


  21:sontek.c      ****     uint32 ms_delay = 0u; // for delaying the code while measurements are being taken
  94              		.loc 1 21 0
  95 001a 0023     		movs	r3, #0
  96 001c C7F8E830 		str	r3, [r7, #232]
  22:sontek.c      **** 
  23:sontek.c      ****     // string for constructing the command sent to the SDI12 sensor
  24:sontek.c      ****     char command[100] = {'\0'};
  97              		.loc 1 24 0
  98 0020 07F18003 		add	r3, r7, #128
  99 0024 6422     		movs	r2, #100
 100 0026 0021     		movs	r1, #0
 101 0028 1846     		mov	r0, r3
 102 002a FFF7FEFF 		bl	memset
  25:sontek.c      **** 
  26:sontek.c      ****     // string and pointer to store and parse SDI12 measurement results
  27:sontek.c      ****     char value_str[100] = {'\0'}, delay_str[10] = {'\0'}, *ptr_end, *sign; 
 103              		.loc 1 27 0
 104 002e 07F11C03 		add	r3, r7, #28
 105 0032 6422     		movs	r2, #100
 106 0034 0021     		movs	r1, #0
 107 0036 1846     		mov	r0, r3
 108 0038 FFF7FEFF 		bl	memset
 109 003c 07F11003 		add	r3, r7, #16
 110 0040 0022     		movs	r2, #0
 111 0042 1A60     		str	r2, [r3]
 112 0044 5A60     		str	r2, [r3, #4]
 113 0046 1A81     		strh	r2, [r3, #8]	@ movhi
  28:sontek.c      ****     
  29:sontek.c      ****     //First the M command needs to be sent and read, then M1 and M2 requests extra data that was al
  30:sontek.c      ****     for(j = 0; j<3; j++){
 114              		.loc 1 30 0
 115 0048 0023     		movs	r3, #0
 116 004a 87F8EE30 		strb	r3, [r7, #238]
 117 004e 26E2     		b	.L2
 118              	.L41:
  31:sontek.c      ****         /* 1. Request measurement from addressed SDI12 sensor */
  32:sontek.c      ****         clear_str(command);
 119              		.loc 1 32 0
 120 0050 07F18003 		add	r3, r7, #128
 121 0054 1846     		mov	r0, r3
 122 0056 FFF7FEFF 		bl	clear_str
  33:sontek.c      ****         //determines which M commands to send
  34:sontek.c      ****         if(j==0){                                                                  
 123              		.loc 1 34 0
 124 005a 97F8EE30 		ldrb	r3, [r7, #238]	@ zero_extendqisi2
 125 005e 002B     		cmp	r3, #0
 126 0060 0AD1     		bne	.L3
  35:sontek.c      ****             sprintf(command,"%s%s%s",(*sensor).address,TAKE_MEASUREMENT,"!");
 127              		.loc 1 35 0
 128 0062 7B68     		ldr	r3, [r7, #4]
 129 0064 1A68     		ldr	r2, [r3]
 130 0066 07F18000 		add	r0, r7, #128
 131 006a C44B     		ldr	r3, .L45
 132 006c 0093     		str	r3, [sp]
 133 006e C44B     		ldr	r3, .L45+4
 134 0070 C449     		ldr	r1, .L45+8
 135 0072 FFF7FEFF 		bl	sprintf
ARM GAS  C:\Users\klabu\AppData\Local\Temp\ccgBioJt.s 			page 4


 136 0076 1CE0     		b	.L4
 137              	.L3:
  36:sontek.c      ****         }
  37:sontek.c      ****         else if(j==1){
 138              		.loc 1 37 0
 139 0078 97F8EE30 		ldrb	r3, [r7, #238]	@ zero_extendqisi2
 140 007c 012B     		cmp	r3, #1
 141 007e 0AD1     		bne	.L5
  38:sontek.c      ****             sprintf(command,"%s%s%s",(*sensor).address,TAKE_MEASUREMENT_1,"!");
 142              		.loc 1 38 0
 143 0080 7B68     		ldr	r3, [r7, #4]
 144 0082 1A68     		ldr	r2, [r3]
 145 0084 07F18000 		add	r0, r7, #128
 146 0088 BC4B     		ldr	r3, .L45
 147 008a 0093     		str	r3, [sp]
 148 008c BE4B     		ldr	r3, .L45+12
 149 008e BD49     		ldr	r1, .L45+8
 150 0090 FFF7FEFF 		bl	sprintf
 151 0094 0DE0     		b	.L4
 152              	.L5:
  39:sontek.c      ****         }
  40:sontek.c      ****         else if(j==2){
 153              		.loc 1 40 0
 154 0096 97F8EE30 		ldrb	r3, [r7, #238]	@ zero_extendqisi2
 155 009a 022B     		cmp	r3, #2
 156 009c 09D1     		bne	.L4
  41:sontek.c      ****             sprintf(command,"%s%s%s",(*sensor).address,TAKE_MEASUREMENT_2,"!");
 157              		.loc 1 41 0
 158 009e 7B68     		ldr	r3, [r7, #4]
 159 00a0 1A68     		ldr	r2, [r3]
 160 00a2 07F18000 		add	r0, r7, #128
 161 00a6 B54B     		ldr	r3, .L45
 162 00a8 0093     		str	r3, [sp]
 163 00aa B84B     		ldr	r3, .L45+16
 164 00ac B549     		ldr	r1, .L45+8
 165 00ae FFF7FEFF 		bl	sprintf
 166              	.L4:
  42:sontek.c      ****         }
  43:sontek.c      ****         
  44:sontek.c      ****         SDI12_uart_clear_string();
 167              		.loc 1 44 0
 168 00b2 FFF7FEFF 		bl	SDI12_uart_clear_string
  45:sontek.c      ****         SDI12_send_command(command);
 169              		.loc 1 45 0
 170 00b6 07F18003 		add	r3, r7, #128
 171 00ba 1846     		mov	r0, r3
 172 00bc FFF7FEFF 		bl	SDI12_send_command
  46:sontek.c      ****         
  47:sontek.c      ****         /* 2. Delay for measurement to be taken */
  48:sontek.c      ****         /*
  49:sontek.c      ****          * The address sensor responds within 15.0 ms, returning the
  50:sontek.c      ****          * maximum time until the measurement data will be ready and the
  51:sontek.c      ****          * number of data values it will return
  52:sontek.c      ****          */
  53:sontek.c      ****         clear_str(value_str); 
 173              		.loc 1 53 0
 174 00c0 07F11C03 		add	r3, r7, #28
ARM GAS  C:\Users\klabu\AppData\Local\Temp\ccgBioJt.s 			page 5


 175 00c4 1846     		mov	r0, r3
 176 00c6 FFF7FEFF 		bl	clear_str
  54:sontek.c      ****         clear_str(delay_str);
 177              		.loc 1 54 0
 178 00ca 07F11003 		add	r3, r7, #16
 179 00ce 1846     		mov	r0, r3
 180 00d0 FFF7FEFF 		bl	clear_str
  55:sontek.c      ****         
  56:sontek.c      ****         // supposedly response time is 15 ms, but delaying max 1000 ms to be safe
  57:sontek.c      ****         // TODO: When taking concurrent measurements, look for <address><CR><LF> -- maybe add this 
  58:sontek.c      ****         for (i = 0; i < 200; i++) { 
 181              		.loc 1 58 0
 182 00d4 0023     		movs	r3, #0
 183 00d6 87F8EF30 		strb	r3, [r7, #239]
 184 00da 11E0     		b	.L6
 185              	.L9:
  59:sontek.c      ****             CyDelay(5u);
 186              		.loc 1 59 0
 187 00dc 0520     		movs	r0, #5
 188 00de FFF7FEFF 		bl	CyDelay
  60:sontek.c      ****             if ( strextract(SDI12_uart_buf, value_str, "!","\r\n") ) {
 189              		.loc 1 60 0
 190 00e2 07F11C01 		add	r1, r7, #28
 191 00e6 AA4B     		ldr	r3, .L45+20
 192 00e8 A44A     		ldr	r2, .L45
 193 00ea AA48     		ldr	r0, .L45+24
 194 00ec FFF7FEFF 		bl	strextract
 195 00f0 0346     		mov	r3, r0
 196 00f2 002B     		cmp	r3, #0
 197 00f4 09D1     		bne	.L43
  58:sontek.c      ****             CyDelay(5u);
 198              		.loc 1 58 0 discriminator 2
 199 00f6 97F8EF30 		ldrb	r3, [r7, #239]	@ zero_extendqisi2
 200 00fa 0133     		adds	r3, r3, #1
 201 00fc 87F8EF30 		strb	r3, [r7, #239]
 202              	.L6:
  58:sontek.c      ****             CyDelay(5u);
 203              		.loc 1 58 0 is_stmt 0 discriminator 1
 204 0100 97F8EF30 		ldrb	r3, [r7, #239]	@ zero_extendqisi2
 205 0104 C72B     		cmp	r3, #199
 206 0106 E9D9     		bls	.L9
 207 0108 00E0     		b	.L8
 208              	.L43:
  61:sontek.c      ****                 break;
 209              		.loc 1 61 0 is_stmt 1
 210 010a 00BF     		nop
 211              	.L8:
  62:sontek.c      ****             }
  63:sontek.c      ****         }
  64:sontek.c      ****         
  65:sontek.c      ****         /* Delay while measurements are being prepared */
  66:sontek.c      ****         /*
  67:sontek.c      ****          * The returned format for <address>M! is atttn<CR><LF>
  68:sontek.c      ****          * (NOTE: The returned format for <address>C! is atttnn<CR><LF> -- this will be useful when
  69:sontek.c      ****          *        concurrent measurements in the future)
  70:sontek.c      ****          * Where,
  71:sontek.c      ****          * -    a: sensor address
ARM GAS  C:\Users\klabu\AppData\Local\Temp\ccgBioJt.s 			page 6


  72:sontek.c      ****          * -  ttt: maximum time until measurement is ready
  73:sontek.c      ****          * - n(n): number of data values that will be returned
  74:sontek.c      ****          */
  75:sontek.c      ****         strncpy(delay_str, value_str+strlen((*sensor).address), 3); // shift ptr by strlen(...) to 
 212              		.loc 1 75 0
 213 010c 7B68     		ldr	r3, [r7, #4]
 214 010e 1B68     		ldr	r3, [r3]
 215 0110 1846     		mov	r0, r3
 216 0112 FFF7FEFF 		bl	strlen
 217 0116 0246     		mov	r2, r0
 218 0118 07F11C03 		add	r3, r7, #28
 219 011c 9918     		adds	r1, r3, r2
 220 011e 07F11003 		add	r3, r7, #16
 221 0122 0322     		movs	r2, #3
 222 0124 1846     		mov	r0, r3
 223 0126 FFF7FEFF 		bl	strncpy
  76:sontek.c      ****         ms_delay = ( (uint32) strtod(delay_str,(char**) NULL) ) * 1000u;
 224              		.loc 1 76 0
 225 012a 07F11003 		add	r3, r7, #16
 226 012e 0021     		movs	r1, #0
 227 0130 1846     		mov	r0, r3
 228 0132 FFF7FEFF 		bl	strtod
 229 0136 0346     		mov	r3, r0
 230 0138 0C46     		mov	r4, r1
 231 013a 1846     		mov	r0, r3
 232 013c 2146     		mov	r1, r4
 233 013e FFF7FEFF 		bl	__aeabi_d2uiz
 234 0142 0246     		mov	r2, r0
 235 0144 4FF47A73 		mov	r3, #1000
 236 0148 03FB02F3 		mul	r3, r3, r2
 237 014c C7F8E830 		str	r3, [r7, #232]
  77:sontek.c      ****         CyDelay(ms_delay);
 238              		.loc 1 77 0
 239 0150 D7F8E800 		ldr	r0, [r7, #232]
 240 0154 FFF7FEFF 		bl	CyDelay
  78:sontek.c      ****         
  79:sontek.c      ****         /* 3. Request data from SDI12 sensor */
  80:sontek.c      ****         clear_str(command);    
 241              		.loc 1 80 0
 242 0158 07F18003 		add	r3, r7, #128
 243 015c 1846     		mov	r0, r3
 244 015e FFF7FEFF 		bl	clear_str
  81:sontek.c      ****         clear_str(value_str);
 245              		.loc 1 81 0
 246 0162 07F11C03 		add	r3, r7, #28
 247 0166 1846     		mov	r0, r3
 248 0168 FFF7FEFF 		bl	clear_str
  82:sontek.c      ****         //Need to cycle through D0, D1, D2 to retrieve all 9 parameters of specified M command
  83:sontek.c      ****         for(k = 0; k<3; k++){                 
 249              		.loc 1 83 0
 250 016c 0023     		movs	r3, #0
 251 016e 87F8ED30 		strb	r3, [r7, #237]
 252 0172 8AE1     		b	.L10
 253              	.L40:
 254              	.LBB2:
  84:sontek.c      ****             if(k==0){
 255              		.loc 1 84 0
ARM GAS  C:\Users\klabu\AppData\Local\Temp\ccgBioJt.s 			page 7


 256 0174 97F8ED30 		ldrb	r3, [r7, #237]	@ zero_extendqisi2
 257 0178 002B     		cmp	r3, #0
 258 017a 0AD1     		bne	.L11
  85:sontek.c      ****                 sprintf(command,"%s%s%s",(*sensor).address,READ_MEASUREMENT,"!");
 259              		.loc 1 85 0
 260 017c 7B68     		ldr	r3, [r7, #4]
 261 017e 1A68     		ldr	r2, [r3]
 262 0180 07F18000 		add	r0, r7, #128
 263 0184 7D4B     		ldr	r3, .L45
 264 0186 0093     		str	r3, [sp]
 265 0188 834B     		ldr	r3, .L45+28
 266 018a 7E49     		ldr	r1, .L45+8
 267 018c FFF7FEFF 		bl	sprintf
 268 0190 1CE0     		b	.L12
 269              	.L11:
  86:sontek.c      ****             }
  87:sontek.c      ****             else if(k==1){
 270              		.loc 1 87 0
 271 0192 97F8ED30 		ldrb	r3, [r7, #237]	@ zero_extendqisi2
 272 0196 012B     		cmp	r3, #1
 273 0198 0AD1     		bne	.L13
  88:sontek.c      ****                 sprintf(command,"%s%s%s",(*sensor).address,READ_MEASUREMENT_1,"!");
 274              		.loc 1 88 0
 275 019a 7B68     		ldr	r3, [r7, #4]
 276 019c 1A68     		ldr	r2, [r3]
 277 019e 07F18000 		add	r0, r7, #128
 278 01a2 764B     		ldr	r3, .L45
 279 01a4 0093     		str	r3, [sp]
 280 01a6 7D4B     		ldr	r3, .L45+32
 281 01a8 7649     		ldr	r1, .L45+8
 282 01aa FFF7FEFF 		bl	sprintf
 283 01ae 0DE0     		b	.L12
 284              	.L13:
  89:sontek.c      ****             }
  90:sontek.c      ****             else if(k==2){
 285              		.loc 1 90 0
 286 01b0 97F8ED30 		ldrb	r3, [r7, #237]	@ zero_extendqisi2
 287 01b4 022B     		cmp	r3, #2
 288 01b6 09D1     		bne	.L12
  91:sontek.c      ****                 sprintf(command,"%s%s%s",(*sensor).address,READ_MEASUREMENT_2,"!");
 289              		.loc 1 91 0
 290 01b8 7B68     		ldr	r3, [r7, #4]
 291 01ba 1A68     		ldr	r2, [r3]
 292 01bc 07F18000 		add	r0, r7, #128
 293 01c0 6E4B     		ldr	r3, .L45
 294 01c2 0093     		str	r3, [sp]
 295 01c4 764B     		ldr	r3, .L45+36
 296 01c6 6F49     		ldr	r1, .L45+8
 297 01c8 FFF7FEFF 		bl	sprintf
 298              	.L12:
  92:sontek.c      ****             }
  93:sontek.c      ****             
  94:sontek.c      ****             SDI12_uart_clear_string();
 299              		.loc 1 94 0
 300 01cc FFF7FEFF 		bl	SDI12_uart_clear_string
  95:sontek.c      ****             SDI12_send_command(command);
 301              		.loc 1 95 0
ARM GAS  C:\Users\klabu\AppData\Local\Temp\ccgBioJt.s 			page 8


 302 01d0 07F18003 		add	r3, r7, #128
 303 01d4 1846     		mov	r0, r3
 304 01d6 FFF7FEFF 		bl	SDI12_send_command
  96:sontek.c      ****             
  97:sontek.c      ****             // Delay a maximum of 1000 ms as readings are transmitted
  98:sontek.c      ****             for (i = 0; i < 200; i++) {
 305              		.loc 1 98 0
 306 01da 0023     		movs	r3, #0
 307 01dc 87F8EF30 		strb	r3, [r7, #239]
 308 01e0 11E0     		b	.L14
 309              	.L17:
  99:sontek.c      ****                 CyDelay(5u);
 310              		.loc 1 99 0
 311 01e2 0520     		movs	r0, #5
 312 01e4 FFF7FEFF 		bl	CyDelay
 100:sontek.c      ****                 
 101:sontek.c      ****                 // Copy the SDI12 UART buffer into temporary buffer, value_str
 102:sontek.c      ****                 // and break once "\r\n" is returned
 103:sontek.c      ****                 if ( strextract(SDI12_uart_buf, value_str, "!","\r\n") ) {
 313              		.loc 1 103 0
 314 01e8 07F11C01 		add	r1, r7, #28
 315 01ec 684B     		ldr	r3, .L45+20
 316 01ee 634A     		ldr	r2, .L45
 317 01f0 6848     		ldr	r0, .L45+24
 318 01f2 FFF7FEFF 		bl	strextract
 319 01f6 0346     		mov	r3, r0
 320 01f8 002B     		cmp	r3, #0
 321 01fa 09D1     		bne	.L44
  98:sontek.c      ****                 CyDelay(5u);
 322              		.loc 1 98 0 discriminator 2
 323 01fc 97F8EF30 		ldrb	r3, [r7, #239]	@ zero_extendqisi2
 324 0200 0133     		adds	r3, r3, #1
 325 0202 87F8EF30 		strb	r3, [r7, #239]
 326              	.L14:
  98:sontek.c      ****                 CyDelay(5u);
 327              		.loc 1 98 0 is_stmt 0 discriminator 1
 328 0206 97F8EF30 		ldrb	r3, [r7, #239]	@ zero_extendqisi2
 329 020a C72B     		cmp	r3, #199
 330 020c E9D9     		bls	.L17
 331 020e 00E0     		b	.L16
 332              	.L44:
 104:sontek.c      ****                     break;
 333              		.loc 1 104 0 is_stmt 1
 334 0210 00BF     		nop
 335              	.L16:
 105:sontek.c      ****                 }
 106:sontek.c      ****             }
 107:sontek.c      ****             
 108:sontek.c      ****             
 109:sontek.c      ****             /* 4. Parse the received data */    
 110:sontek.c      ****             // Check for "+" or "-" signs to ensure data was sent
 111:sontek.c      ****             // First check for "+"
 112:sontek.c      ****             sign = strstr(value_str,"+");
 336              		.loc 1 112 0
 337 0212 07F11C03 		add	r3, r7, #28
 338 0216 2B21     		movs	r1, #43
 339 0218 1846     		mov	r0, r3
ARM GAS  C:\Users\klabu\AppData\Local\Temp\ccgBioJt.s 			page 9


 340 021a FFF7FEFF 		bl	strchr
 341 021e C7F8E400 		str	r0, [r7, #228]
 113:sontek.c      ****             if (sign == NULL) {
 342              		.loc 1 113 0
 343 0222 D7F8E430 		ldr	r3, [r7, #228]
 344 0226 002B     		cmp	r3, #0
 345 0228 24D1     		bne	.L18
 114:sontek.c      ****                 // If there is no + sign, check for "-"
 115:sontek.c      ****                 sign = strstr(value_str,"-");
 346              		.loc 1 115 0
 347 022a 07F11C03 		add	r3, r7, #28
 348 022e 2D21     		movs	r1, #45
 349 0230 1846     		mov	r0, r3
 350 0232 FFF7FEFF 		bl	strchr
 351 0236 C7F8E400 		str	r0, [r7, #228]
 116:sontek.c      ****                 
 117:sontek.c      ****                 // The absence of "+" or "-" indicates no data was sent yet
 118:sontek.c      ****                 // Return 0 and try querying the sensor again later
 119:sontek.c      ****                 if (sign == NULL) {
 352              		.loc 1 119 0
 353 023a D7F8E430 		ldr	r3, [r7, #228]
 354 023e 002B     		cmp	r3, #0
 355 0240 18D1     		bne	.L18
 120:sontek.c      ****                     for (i = 0; i < (*sensor).nvars; i++) {
 356              		.loc 1 120 0
 357 0242 0023     		movs	r3, #0
 358 0244 87F8EF30 		strb	r3, [r7, #239]
 359 0248 0CE0     		b	.L19
 360              	.L20:
 121:sontek.c      ****                         (*sensor).values[i] = -9999.0f;
 361              		.loc 1 121 0 discriminator 3
 362 024a 7B68     		ldr	r3, [r7, #4]
 363 024c 9A68     		ldr	r2, [r3, #8]
 364 024e 97F8EF30 		ldrb	r3, [r7, #239]	@ zero_extendqisi2
 365 0252 9B00     		lsls	r3, r3, #2
 366 0254 1344     		add	r3, r3, r2
 367 0256 534A     		ldr	r2, .L45+40
 368 0258 1A60     		str	r2, [r3]	@ float
 120:sontek.c      ****                     for (i = 0; i < (*sensor).nvars; i++) {
 369              		.loc 1 120 0 discriminator 3
 370 025a 97F8EF30 		ldrb	r3, [r7, #239]	@ zero_extendqisi2
 371 025e 0133     		adds	r3, r3, #1
 372 0260 87F8EF30 		strb	r3, [r7, #239]
 373              	.L19:
 120:sontek.c      ****                     for (i = 0; i < (*sensor).nvars; i++) {
 374              		.loc 1 120 0 is_stmt 0 discriminator 1
 375 0264 7B68     		ldr	r3, [r7, #4]
 376 0266 1B7B     		ldrb	r3, [r3, #12]	@ zero_extendqisi2
 377 0268 97F8EF20 		ldrb	r2, [r7, #239]	@ zero_extendqisi2
 378 026c 9A42     		cmp	r2, r3
 379 026e ECD3     		bcc	.L20
 122:sontek.c      ****                     }
 123:sontek.c      ****                     return 0u;
 380              		.loc 1 123 0 is_stmt 1
 381 0270 0023     		movs	r3, #0
 382 0272 1AE1     		b	.L42
 383              	.L18:
ARM GAS  C:\Users\klabu\AppData\Local\Temp\ccgBioJt.s 			page 10


 124:sontek.c      ****                 }
 125:sontek.c      ****             }
 126:sontek.c      ****             
 127:sontek.c      ****             // Set the pointer to the start of the returned results
 128:sontek.c      ****             // and shift forward past the address byte
 129:sontek.c      ****             ptr_end = value_str + strlen((*sensor).address);
 384              		.loc 1 129 0
 385 0274 7B68     		ldr	r3, [r7, #4]
 386 0276 1B68     		ldr	r3, [r3]
 387 0278 1846     		mov	r0, r3
 388 027a FFF7FEFF 		bl	strlen
 389 027e 0246     		mov	r2, r0
 390 0280 07F11C03 		add	r3, r7, #28
 391 0284 1344     		add	r3, r3, r2
 392 0286 FB60     		str	r3, [r7, #12]
 130:sontek.c      ****             
 131:sontek.c      ****             // Parse and store all values returned from the sensor
 132:sontek.c      ****             uint8 max = 0u; //to set high end of values index for specified M and D commands 
 393              		.loc 1 132 0
 394 0288 0023     		movs	r3, #0
 395 028a 87F8EC30 		strb	r3, [r7, #236]
 133:sontek.c      ****             //for M command sent
 134:sontek.c      ****             if(j==0){
 396              		.loc 1 134 0
 397 028e 97F8EE30 		ldrb	r3, [r7, #238]	@ zero_extendqisi2
 398 0292 002B     		cmp	r3, #0
 399 0294 47D1     		bne	.L22
 135:sontek.c      ****                 //D1
 136:sontek.c      ****                 if(k==0){i=0; max=4+i;}//add the +i for the max so that the range of i matches with
 400              		.loc 1 136 0
 401 0296 97F8ED30 		ldrb	r3, [r7, #237]	@ zero_extendqisi2
 402 029a 002B     		cmp	r3, #0
 403 029c 08D1     		bne	.L23
 404              		.loc 1 136 0 is_stmt 0 discriminator 1
 405 029e 0023     		movs	r3, #0
 406 02a0 87F8EF30 		strb	r3, [r7, #239]
 407 02a4 97F8EF30 		ldrb	r3, [r7, #239]
 408 02a8 0433     		adds	r3, r3, #4
 409 02aa 87F8EC30 		strb	r3, [r7, #236]
 410 02ae 33E0     		b	.L26
 411              	.L23:
 137:sontek.c      ****                 //D2
 138:sontek.c      ****                 else if(k==1){i=4;max=4+i;}
 412              		.loc 1 138 0 is_stmt 1
 413 02b0 97F8ED30 		ldrb	r3, [r7, #237]	@ zero_extendqisi2
 414 02b4 012B     		cmp	r3, #1
 415 02b6 08D1     		bne	.L25
 416              		.loc 1 138 0 is_stmt 0 discriminator 1
 417 02b8 0423     		movs	r3, #4
 418 02ba 87F8EF30 		strb	r3, [r7, #239]
 419 02be 97F8EF30 		ldrb	r3, [r7, #239]
 420 02c2 0433     		adds	r3, r3, #4
 421 02c4 87F8EC30 		strb	r3, [r7, #236]
 422 02c8 26E0     		b	.L26
 423              	.L25:
 139:sontek.c      ****                 //D3
 140:sontek.c      ****                 else if(k==2){i=8;max=1+i;}
ARM GAS  C:\Users\klabu\AppData\Local\Temp\ccgBioJt.s 			page 11


 424              		.loc 1 140 0 is_stmt 1
 425 02ca 97F8ED30 		ldrb	r3, [r7, #237]	@ zero_extendqisi2
 426 02ce 022B     		cmp	r3, #2
 427 02d0 22D1     		bne	.L26
 428              		.loc 1 140 0 is_stmt 0 discriminator 1
 429 02d2 0823     		movs	r3, #8
 430 02d4 87F8EF30 		strb	r3, [r7, #239]
 431 02d8 97F8EF30 		ldrb	r3, [r7, #239]
 432 02dc 0133     		adds	r3, r3, #1
 433 02de 87F8EC30 		strb	r3, [r7, #236]
 141:sontek.c      ****                 //puts parsed data into struct, parameters 1-9
 142:sontek.c      ****                 for (; i < max; i++) {  //i is initialized and set before the for loop, so the firs
 434              		.loc 1 142 0 is_stmt 1 discriminator 1
 435 02e2 19E0     		b	.L26
 436              	.L27:
 143:sontek.c      ****                     (*sensor).values[i] = (float) strtod(ptr_end, &ptr_end);
 437              		.loc 1 143 0 discriminator 2
 438 02e4 7B68     		ldr	r3, [r7, #4]
 439 02e6 9A68     		ldr	r2, [r3, #8]
 440 02e8 97F8EF30 		ldrb	r3, [r7, #239]	@ zero_extendqisi2
 441 02ec 9B00     		lsls	r3, r3, #2
 442 02ee D418     		adds	r4, r2, r3
 443 02f0 FB68     		ldr	r3, [r7, #12]
 444 02f2 07F10C02 		add	r2, r7, #12
 445 02f6 1146     		mov	r1, r2
 446 02f8 1846     		mov	r0, r3
 447 02fa FFF7FEFF 		bl	strtod
 448 02fe 0246     		mov	r2, r0
 449 0300 0B46     		mov	r3, r1
 450 0302 1046     		mov	r0, r2
 451 0304 1946     		mov	r1, r3
 452 0306 FFF7FEFF 		bl	__aeabi_d2f
 453 030a 0346     		mov	r3, r0
 454 030c 2360     		str	r3, [r4]	@ float
 142:sontek.c      ****                     (*sensor).values[i] = (float) strtod(ptr_end, &ptr_end);
 455              		.loc 1 142 0 discriminator 2
 456 030e 97F8EF30 		ldrb	r3, [r7, #239]	@ zero_extendqisi2
 457 0312 0133     		adds	r3, r3, #1
 458 0314 87F8EF30 		strb	r3, [r7, #239]
 459              	.L26:
 142:sontek.c      ****                     (*sensor).values[i] = (float) strtod(ptr_end, &ptr_end);
 460              		.loc 1 142 0 is_stmt 0 discriminator 1
 461 0318 97F8EF20 		ldrb	r2, [r7, #239]	@ zero_extendqisi2
 462 031c 97F8EC30 		ldrb	r3, [r7, #236]	@ zero_extendqisi2
 463 0320 9A42     		cmp	r2, r3
 464 0322 DFD3     		bcc	.L27
 465 0324 ACE0     		b	.L28
 466              	.L22:
 144:sontek.c      ****                 }
 145:sontek.c      ****             }
 146:sontek.c      ****             //for M1 command
 147:sontek.c      ****             else if(j==1){
 467              		.loc 1 147 0 is_stmt 1
 468 0326 97F8EE30 		ldrb	r3, [r7, #238]	@ zero_extendqisi2
 469 032a 012B     		cmp	r3, #1
 470 032c 5DD1     		bne	.L29
 148:sontek.c      ****                 //D0
ARM GAS  C:\Users\klabu\AppData\Local\Temp\ccgBioJt.s 			page 12


 149:sontek.c      ****                 if(k==0){i=9; max=4+i;}
 471              		.loc 1 149 0
 472 032e 97F8ED30 		ldrb	r3, [r7, #237]	@ zero_extendqisi2
 473 0332 002B     		cmp	r3, #0
 474 0334 08D1     		bne	.L30
 475              		.loc 1 149 0 is_stmt 0 discriminator 1
 476 0336 0923     		movs	r3, #9
 477 0338 87F8EF30 		strb	r3, [r7, #239]
 478 033c 97F8EF30 		ldrb	r3, [r7, #239]
 479 0340 0433     		adds	r3, r3, #4
 480 0342 87F8EC30 		strb	r3, [r7, #236]
 481 0346 49E0     		b	.L33
 482              	.L30:
 150:sontek.c      ****                 //D1
 151:sontek.c      ****                 else if(k==1){i=13; max=4+i;}
 483              		.loc 1 151 0 is_stmt 1
 484 0348 97F8ED30 		ldrb	r3, [r7, #237]	@ zero_extendqisi2
 485 034c 012B     		cmp	r3, #1
 486 034e 08D1     		bne	.L32
 487              		.loc 1 151 0 is_stmt 0 discriminator 1
 488 0350 0D23     		movs	r3, #13
 489 0352 87F8EF30 		strb	r3, [r7, #239]
 490 0356 97F8EF30 		ldrb	r3, [r7, #239]
 491 035a 0433     		adds	r3, r3, #4
 492 035c 87F8EC30 		strb	r3, [r7, #236]
 493 0360 3CE0     		b	.L33
 494              	.L32:
 152:sontek.c      ****                 //D2
 153:sontek.c      ****                 else if(k==2){i=17; max=1+i;}
 495              		.loc 1 153 0 is_stmt 1
 496 0362 97F8ED30 		ldrb	r3, [r7, #237]	@ zero_extendqisi2
 497 0366 022B     		cmp	r3, #2
 498 0368 38D1     		bne	.L33
 499              		.loc 1 153 0 is_stmt 0 discriminator 1
 500 036a 1123     		movs	r3, #17
 501 036c 87F8EF30 		strb	r3, [r7, #239]
 502 0370 97F8EF30 		ldrb	r3, [r7, #239]
 503 0374 0133     		adds	r3, r3, #1
 504 0376 87F8EC30 		strb	r3, [r7, #236]
 154:sontek.c      ****                 //parameters 10-18 (or 1-9 M1 parameters in manual)
 155:sontek.c      ****                 for (; i < max; i++) {                             
 505              		.loc 1 155 0 is_stmt 1 discriminator 1
 506 037a 2FE0     		b	.L33
 507              	.L46:
 508              		.align	2
 509              	.L45:
 510 037c 0C000000 		.word	.LC32
 511 0380 00000000 		.word	.LC30
 512 0384 04000000 		.word	.LC31
 513 0388 10000000 		.word	.LC33
 514 038c 14000000 		.word	.LC34
 515 0390 18000000 		.word	.LC35
 516 0394 00000000 		.word	SDI12_uart_buf.9395
 517 0398 1C000000 		.word	.LC36
 518 039c 20000000 		.word	.LC37
 519 03a0 24000000 		.word	.LC38
 520 03a4 003C1CC6 		.word	-971228160
ARM GAS  C:\Users\klabu\AppData\Local\Temp\ccgBioJt.s 			page 13


 521              	.L34:
 156:sontek.c      ****                     (*sensor).values[i] = (float) strtod(ptr_end, &ptr_end);
 522              		.loc 1 156 0 discriminator 2
 523 03a8 7B68     		ldr	r3, [r7, #4]
 524 03aa 9A68     		ldr	r2, [r3, #8]
 525 03ac 97F8EF30 		ldrb	r3, [r7, #239]	@ zero_extendqisi2
 526 03b0 9B00     		lsls	r3, r3, #2
 527 03b2 D418     		adds	r4, r2, r3
 528 03b4 FB68     		ldr	r3, [r7, #12]
 529 03b6 07F10C02 		add	r2, r7, #12
 530 03ba 1146     		mov	r1, r2
 531 03bc 1846     		mov	r0, r3
 532 03be FFF7FEFF 		bl	strtod
 533 03c2 0246     		mov	r2, r0
 534 03c4 0B46     		mov	r3, r1
 535 03c6 1046     		mov	r0, r2
 536 03c8 1946     		mov	r1, r3
 537 03ca FFF7FEFF 		bl	__aeabi_d2f
 538 03ce 0346     		mov	r3, r0
 539 03d0 2360     		str	r3, [r4]	@ float
 155:sontek.c      ****                     (*sensor).values[i] = (float) strtod(ptr_end, &ptr_end);
 540              		.loc 1 155 0 discriminator 2
 541 03d2 97F8EF30 		ldrb	r3, [r7, #239]	@ zero_extendqisi2
 542 03d6 0133     		adds	r3, r3, #1
 543 03d8 87F8EF30 		strb	r3, [r7, #239]
 544              	.L33:
 155:sontek.c      ****                     (*sensor).values[i] = (float) strtod(ptr_end, &ptr_end);
 545              		.loc 1 155 0 is_stmt 0 discriminator 1
 546 03dc 97F8EF20 		ldrb	r2, [r7, #239]	@ zero_extendqisi2
 547 03e0 97F8EC30 		ldrb	r3, [r7, #236]	@ zero_extendqisi2
 548 03e4 9A42     		cmp	r2, r3
 549 03e6 DFD3     		bcc	.L34
 550 03e8 4AE0     		b	.L28
 551              	.L29:
 157:sontek.c      ****                 }
 158:sontek.c      ****             }
 159:sontek.c      ****             //for M2 command
 160:sontek.c      ****             else if(j==2){
 552              		.loc 1 160 0 is_stmt 1
 553 03ea 97F8EE30 		ldrb	r3, [r7, #238]	@ zero_extendqisi2
 554 03ee 022B     		cmp	r3, #2
 555 03f0 46D1     		bne	.L28
 161:sontek.c      ****                 //D0
 162:sontek.c      ****                 if(k==0){i=18; max=4+i;}
 556              		.loc 1 162 0
 557 03f2 97F8ED30 		ldrb	r3, [r7, #237]	@ zero_extendqisi2
 558 03f6 002B     		cmp	r3, #0
 559 03f8 08D1     		bne	.L35
 560              		.loc 1 162 0 is_stmt 0 discriminator 1
 561 03fa 1223     		movs	r3, #18
 562 03fc 87F8EF30 		strb	r3, [r7, #239]
 563 0400 97F8EF30 		ldrb	r3, [r7, #239]
 564 0404 0433     		adds	r3, r3, #4
 565 0406 87F8EC30 		strb	r3, [r7, #236]
 566 040a 33E0     		b	.L38
 567              	.L35:
 163:sontek.c      ****                 //D1
ARM GAS  C:\Users\klabu\AppData\Local\Temp\ccgBioJt.s 			page 14


 164:sontek.c      ****                 else if(k==1){i=22; max=4+i;}
 568              		.loc 1 164 0 is_stmt 1
 569 040c 97F8ED30 		ldrb	r3, [r7, #237]	@ zero_extendqisi2
 570 0410 012B     		cmp	r3, #1
 571 0412 08D1     		bne	.L37
 572              		.loc 1 164 0 is_stmt 0 discriminator 1
 573 0414 1623     		movs	r3, #22
 574 0416 87F8EF30 		strb	r3, [r7, #239]
 575 041a 97F8EF30 		ldrb	r3, [r7, #239]
 576 041e 0433     		adds	r3, r3, #4
 577 0420 87F8EC30 		strb	r3, [r7, #236]
 578 0424 26E0     		b	.L38
 579              	.L37:
 165:sontek.c      ****                 //D2
 166:sontek.c      ****                 else if(k==2){i=26; max=1+i;}
 580              		.loc 1 166 0 is_stmt 1
 581 0426 97F8ED30 		ldrb	r3, [r7, #237]	@ zero_extendqisi2
 582 042a 022B     		cmp	r3, #2
 583 042c 22D1     		bne	.L38
 584              		.loc 1 166 0 is_stmt 0 discriminator 1
 585 042e 1A23     		movs	r3, #26
 586 0430 87F8EF30 		strb	r3, [r7, #239]
 587 0434 97F8EF30 		ldrb	r3, [r7, #239]
 588 0438 0133     		adds	r3, r3, #1
 589 043a 87F8EC30 		strb	r3, [r7, #236]
 167:sontek.c      ****                 //parameters 19-27 (or 1-9 M2 parameters in manual)
 168:sontek.c      ****                 for (; i < max; i++) {                             
 590              		.loc 1 168 0 is_stmt 1 discriminator 1
 591 043e 19E0     		b	.L38
 592              	.L39:
 169:sontek.c      ****                     (*sensor).values[i] = (float) strtod(ptr_end, &ptr_end);
 593              		.loc 1 169 0 discriminator 2
 594 0440 7B68     		ldr	r3, [r7, #4]
 595 0442 9A68     		ldr	r2, [r3, #8]
 596 0444 97F8EF30 		ldrb	r3, [r7, #239]	@ zero_extendqisi2
 597 0448 9B00     		lsls	r3, r3, #2
 598 044a D418     		adds	r4, r2, r3
 599 044c FB68     		ldr	r3, [r7, #12]
 600 044e 07F10C02 		add	r2, r7, #12
 601 0452 1146     		mov	r1, r2
 602 0454 1846     		mov	r0, r3
 603 0456 FFF7FEFF 		bl	strtod
 604 045a 0246     		mov	r2, r0
 605 045c 0B46     		mov	r3, r1
 606 045e 1046     		mov	r0, r2
 607 0460 1946     		mov	r1, r3
 608 0462 FFF7FEFF 		bl	__aeabi_d2f
 609 0466 0346     		mov	r3, r0
 610 0468 2360     		str	r3, [r4]	@ float
 168:sontek.c      ****                     (*sensor).values[i] = (float) strtod(ptr_end, &ptr_end);
 611              		.loc 1 168 0 discriminator 2
 612 046a 97F8EF30 		ldrb	r3, [r7, #239]	@ zero_extendqisi2
 613 046e 0133     		adds	r3, r3, #1
 614 0470 87F8EF30 		strb	r3, [r7, #239]
 615              	.L38:
 168:sontek.c      ****                     (*sensor).values[i] = (float) strtod(ptr_end, &ptr_end);
 616              		.loc 1 168 0 is_stmt 0 discriminator 1
ARM GAS  C:\Users\klabu\AppData\Local\Temp\ccgBioJt.s 			page 15


 617 0474 97F8EF20 		ldrb	r2, [r7, #239]	@ zero_extendqisi2
 618 0478 97F8EC30 		ldrb	r3, [r7, #236]	@ zero_extendqisi2
 619 047c 9A42     		cmp	r2, r3
 620 047e DFD3     		bcc	.L39
 621              	.L28:
 622              	.LBE2:
  83:sontek.c      ****             if(k==0){
 623              		.loc 1 83 0 is_stmt 1 discriminator 2
 624 0480 97F8ED30 		ldrb	r3, [r7, #237]	@ zero_extendqisi2
 625 0484 0133     		adds	r3, r3, #1
 626 0486 87F8ED30 		strb	r3, [r7, #237]
 627              	.L10:
  83:sontek.c      ****             if(k==0){
 628              		.loc 1 83 0 is_stmt 0 discriminator 1
 629 048a 97F8ED30 		ldrb	r3, [r7, #237]	@ zero_extendqisi2
 630 048e 022B     		cmp	r3, #2
 631 0490 7FF670AE 		bls	.L40
  30:sontek.c      ****         /* 1. Request measurement from addressed SDI12 sensor */
 632              		.loc 1 30 0 is_stmt 1 discriminator 2
 633 0494 97F8EE30 		ldrb	r3, [r7, #238]	@ zero_extendqisi2
 634 0498 0133     		adds	r3, r3, #1
 635 049a 87F8EE30 		strb	r3, [r7, #238]
 636              	.L2:
  30:sontek.c      ****         /* 1. Request measurement from addressed SDI12 sensor */
 637              		.loc 1 30 0 is_stmt 0 discriminator 1
 638 049e 97F8EE30 		ldrb	r3, [r7, #238]	@ zero_extendqisi2
 639 04a2 022B     		cmp	r3, #2
 640 04a4 7FF6D4AD 		bls	.L41
 170:sontek.c      ****                 }
 171:sontek.c      ****             }
 172:sontek.c      ****         }
 173:sontek.c      ****     }
 174:sontek.c      ****     return 1u; //returns true if successful
 641              		.loc 1 174 0 is_stmt 1
 642 04a8 0123     		movs	r3, #1
 643              	.L42:
 175:sontek.c      ****     
 176:sontek.c      **** }
 644              		.loc 1 176 0 discriminator 1
 645 04aa 1846     		mov	r0, r3
 646 04ac F437     		adds	r7, r7, #244
 647              		.cfi_def_cfa_offset 12
 648 04ae BD46     		mov	sp, r7
 649              		.cfi_def_cfa_register 13
 650              		@ sp needed
 651 04b0 90BD     		pop	{r4, r7, pc}
 652              		.cfi_endproc
 653              	.LFE64:
 654              		.size	SDI12_sontek_take_measurement, .-SDI12_sontek_take_measurement
 655 04b2 00BF     		.section	.rodata
 656 0027 00       		.align	2
 657              	.LC39:
 658 0028 3000     		.ascii	"0\000"
 659              		.global	__aeabi_f2d
 660 002a 0000     		.align	2
 661              	.LC41:
 662 002c 256600   		.ascii	"%f\000"
ARM GAS  C:\Users\klabu\AppData\Local\Temp\ccgBioJt.s 			page 16


 663 002f 00       		.align	2
 664              	.LC42:
 665 0030 736F6E74 		.ascii	"sontek_depth=%s\000"
 665      656B5F64 
 665      65707468 
 665      3D257300 
 666              		.align	2
 667              	.LC43:
 668 0040 736F6E74 		.ascii	"sontek_SNR1=%s\000"
 668      656B5F53 
 668      4E52313D 
 668      257300
 669 004f 00       		.align	2
 670              	.LC44:
 671 0050 2C257300 		.ascii	",%s\000"
 672              		.align	2
 673              	.LC45:
 674 0054 64617461 		.ascii	"data=%s\000"
 674      3D257300 
 675              		.align	2
 676              	.LC0:
 677 005c 1B       		.byte	27
 678 005d 00       		.byte	0
 679 005e 0000     		.space	2
 680 0060 000080BF 		.word	-1082130432
 681 0064 000000C0 		.word	-1073741824
 682 0068 000040C0 		.word	-1069547520
 683 006c 000080C0 		.word	-1065353216
 684 0070 0000A0C0 		.word	-1063256064
 685 0074 0000C0C0 		.word	-1061158912
 686 0078 0000E0C0 		.word	-1059061760
 687 007c 000000C1 		.word	-1056964608
 688 0080 000010C1 		.word	-1055916032
 689 0084 000020C1 		.word	-1054867456
 690 0088 000030C1 		.word	-1053818880
 691 008c 000040C1 		.word	-1052770304
 692 0090 000050C1 		.word	-1051721728
 693 0094 000060C1 		.word	-1050673152
 694 0098 000070C1 		.word	-1049624576
 695 009c 000080C1 		.word	-1048576000
 696 00a0 000088C1 		.word	-1048051712
 697 00a4 000090C1 		.word	-1047527424
 698 00a8 000098C1 		.word	-1047003136
 699 00ac 0000A0C1 		.word	-1046478848
 700 00b0 0000A8C1 		.word	-1045954560
 701 00b4 0000B0C1 		.word	-1045430272
 702 00b8 0000B8C1 		.word	-1044905984
 703 00bc 0000C0C1 		.word	-1044381696
 704 00c0 0000C8C1 		.word	-1043857408
 705 00c4 0000D0C1 		.word	-1043333120
 706 00c8 0000D8C1 		.word	-1042808832
 707              		.align	2
 708              	.LC1:
 709 00cc 5100     		.ascii	"Q\000"
 710 00ce 0000     		.align	2
 711              	.LC2:
 712 00d0 73746167 		.ascii	"stage\000"
ARM GAS  C:\Users\klabu\AppData\Local\Temp\ccgBioJt.s 			page 17


 712      6500
 713 00d6 0000     		.align	2
 714              	.LC3:
 715 00d8 765F6D65 		.ascii	"v_mean\000"
 715      616E00
 716 00df 00       		.align	2
 717              	.LC4:
 718 00e0 746F7461 		.ascii	"total_vol\000"
 718      6C5F766F 
 718      6C00
 719 00ea 0000     		.align	2
 720              	.LC5:
 721 00ec 64657074 		.ascii	"depth\000"
 721      6800
 722 00f2 0000     		.align	2
 723              	.LC6:
 724 00f4 765F696E 		.ascii	"v_index\000"
 724      64657800 
 725              		.align	2
 726              	.LC7:
 727 00fc 785F6172 		.ascii	"x_area\000"
 727      656100
 728 0103 00       		.align	2
 729              	.LC8:
 730 0104 5400     		.ascii	"T\000"
 731 0106 0000     		.align	2
 732              	.LC9:
 733 0108 73746174 		.ascii	"stat\000"
 733      00
 734 010d 000000   		.align	2
 735              	.LC10:
 736 0110 765F7800 		.ascii	"v_x\000"
 737              		.align	2
 738              	.LC11:
 739 0114 765F7A00 		.ascii	"v_z\000"
 740              		.align	2
 741              	.LC12:
 742 0118 765F785F 		.ascii	"v_x_left\000"
 742      6C656674 
 742      00
 743 0121 000000   		.align	2
 744              	.LC13:
 745 0124 765F785F 		.ascii	"v_x_right\000"
 745      72696768 
 745      7400
 746 012e 0000     		.align	2
 747              	.LC14:
 748 0130 765F6261 		.ascii	"v_bat\000"
 748      7400
 749 0136 0000     		.align	2
 750              	.LC15:
 751 0138 70697463 		.ascii	"pitch\000"
 751      6800
 752 013e 0000     		.align	2
 753              	.LC16:
 754 0140 726F6C6C 		.ascii	"roll\000"
 754      00
ARM GAS  C:\Users\klabu\AppData\Local\Temp\ccgBioJt.s 			page 18


 755 0145 000000   		.align	2
 756              	.LC17:
 757 0148 7063745F 		.ascii	"pct_sub\000"
 757      73756200 
 758              		.align	2
 759              	.LC18:
 760 0150 69636500 		.ascii	"ice\000"
 761              		.align	2
 762              	.LC19:
 763 0154 72616E67 		.ascii	"range\000"
 763      6500
 764 015a 0000     		.align	2
 765              	.LC20:
 766 015c 64657074 		.ascii	"depth_adj\000"
 766      685F6164 
 766      6A00
 767 0166 0000     		.align	2
 768              	.LC21:
 769 0168 746F7461 		.ascii	"total_vol_pos\000"
 769      6C5F766F 
 769      6C5F706F 
 769      7300
 770 0176 0000     		.align	2
 771              	.LC22:
 772 0178 746F7461 		.ascii	"total_vol_neg\000"
 772      6C5F766F 
 772      6C5F6E65 
 772      6700
 773 0186 0000     		.align	2
 774              	.LC23:
 775 0188 656E645F 		.ascii	"end_cell\000"
 775      63656C6C 
 775      00
 776 0191 000000   		.align	2
 777              	.LC24:
 778 0194 736E7231 		.ascii	"snr1\000"
 778      00
 779 0199 000000   		.align	2
 780              	.LC25:
 781 019c 736E7232 		.ascii	"snr2\000"
 781      00
 782 01a1 000000   		.align	2
 783              	.LC26:
 784 01a4 736E7233 		.ascii	"snr3\000"
 784      00
 785 01a9 000000   		.align	2
 786              	.LC27:
 787 01ac 736E7234 		.ascii	"snr4\000"
 787      00
 788 01b1 000000   		.align	2
 789              	.LC40:
 790 01b4 CC000000 		.word	.LC1
 791 01b8 D0000000 		.word	.LC2
 792 01bc D8000000 		.word	.LC3
 793 01c0 E0000000 		.word	.LC4
 794 01c4 EC000000 		.word	.LC5
 795 01c8 F4000000 		.word	.LC6
ARM GAS  C:\Users\klabu\AppData\Local\Temp\ccgBioJt.s 			page 19


 796 01cc FC000000 		.word	.LC7
 797 01d0 04010000 		.word	.LC8
 798 01d4 08010000 		.word	.LC9
 799 01d8 10010000 		.word	.LC10
 800 01dc 14010000 		.word	.LC11
 801 01e0 18010000 		.word	.LC12
 802 01e4 24010000 		.word	.LC13
 803 01e8 30010000 		.word	.LC14
 804 01ec 38010000 		.word	.LC15
 805 01f0 40010000 		.word	.LC16
 806 01f4 48010000 		.word	.LC17
 807 01f8 50010000 		.word	.LC18
 808 01fc 54010000 		.word	.LC19
 809 0200 5C010000 		.word	.LC20
 810 0204 68010000 		.word	.LC21
 811 0208 78010000 		.word	.LC22
 812 020c 88010000 		.word	.LC23
 813 0210 94010000 		.word	.LC24
 814 0214 9C010000 		.word	.LC25
 815 0218 A4010000 		.word	.LC26
 816 021c AC010000 		.word	.LC27
 817              		.align	2
 818              	.LC29:
 819 0220 000080BF 		.word	-1082130432
 820 0224 000000C0 		.word	-1073741824
 821 0228 000040C0 		.word	-1069547520
 822 022c 000080C0 		.word	-1065353216
 823 0230 0000A0C0 		.word	-1063256064
 824 0234 0000C0C0 		.word	-1061158912
 825 0238 0000E0C0 		.word	-1059061760
 826 023c 000000C1 		.word	-1056964608
 827 0240 000010C1 		.word	-1055916032
 828 0244 000020C1 		.word	-1054867456
 829 0248 000030C1 		.word	-1053818880
 830 024c 000040C1 		.word	-1052770304
 831 0250 000050C1 		.word	-1051721728
 832 0254 000060C1 		.word	-1050673152
 833 0258 000070C1 		.word	-1049624576
 834 025c 000080C1 		.word	-1048576000
 835 0260 000088C1 		.word	-1048051712
 836 0264 000090C1 		.word	-1047527424
 837 0268 000098C1 		.word	-1047003136
 838 026c 0000A0C1 		.word	-1046478848
 839 0270 0000A8C1 		.word	-1045954560
 840 0274 0000B0C1 		.word	-1045430272
 841 0278 0000B8C1 		.word	-1044905984
 842 027c 0000C0C1 		.word	-1044381696
 843 0280 0000C8C1 		.word	-1043857408
 844 0284 0000D0C1 		.word	-1043333120
 845 0288 0000D8C1 		.word	-1042808832
 846              		.section	.text.sontek_take_reading,"ax",%progbits
 847              		.align	2
 848              		.global	sontek_take_reading
 849              		.thumb
 850              		.thumb_func
 851              		.type	sontek_take_reading, %function
 852              	sontek_take_reading:
ARM GAS  C:\Users\klabu\AppData\Local\Temp\ccgBioJt.s 			page 20


 853              	.LFB65:
 177:sontek.c      **** //Powers on, takes readings, powers off sontek sensor
 178:sontek.c      **** sontek_t sontek_take_reading(){
 854              		.loc 1 178 0
 855              		.cfi_startproc
 856              		@ args = 0, pretend = 0, frame = 440
 857              		@ frame_needed = 1, uses_anonymous_args = 0
 858 0000 90B5     		push	{r4, r7, lr}
 859              		.cfi_def_cfa_offset 12
 860              		.cfi_offset 4, -12
 861              		.cfi_offset 7, -8
 862              		.cfi_offset 14, -4
 863 0002 F1B0     		sub	sp, sp, #452
 864              		.cfi_def_cfa_offset 464
 865 0004 02AF     		add	r7, sp, #8
 866              		.cfi_def_cfa 7, 456
 867 0006 3B1D     		adds	r3, r7, #4
 868 0008 1860     		str	r0, [r3]
 179:sontek.c      ****     
 180:sontek.c      ****     // sontek_t is a new data type we defined in sontek.h. We then use that data type to define a s
 181:sontek.c      ****     sontek_t m_sontek = {            //----------- maybe make m_sontek
 869              		.loc 1 181 0
 870 000a 7A4A     		ldr	r2, .L57
 871 000c 07F5A073 		add	r3, r7, #320
 872 0010 1146     		mov	r1, r2
 873 0012 7022     		movs	r2, #112
 874 0014 1846     		mov	r0, r3
 875 0016 FFF7FEFF 		bl	memcpy
 182:sontek.c      ****         .nvars = SONTEK_NVARS,
 183:sontek.c      ****         .valid = SONTEK_READING_INIT, //to be determined/changed later what this means
 184:sontek.c      ****         .values = {-1.0, -2.0, -3.0, -4.0, -5.0, -6.0, -7.0, -8.0, -9.0, -10.0, -11.0, -12.0, -13.0
 185:sontek.c      ****     };
 186:sontek.c      ****     
 187:sontek.c      ****     char* sontek_address = "0"; //SDI12 address of sensor
 876              		.loc 1 187 0
 877 001a 774B     		ldr	r3, .L57+4
 878 001c C7F8B031 		str	r3, [r7, #432]
 188:sontek.c      ****     //parameter names
 189:sontek.c      ****     char* sontek_labels[] = {"Q","stage","v_mean","total_vol","depth","v_index","x_area","T","stat"
 879              		.loc 1 189 0
 880 0020 764A     		ldr	r2, .L57+8
 881 0022 07F1D403 		add	r3, r7, #212
 882 0026 1146     		mov	r1, r2
 883 0028 6C22     		movs	r2, #108
 884 002a 1846     		mov	r0, r3
 885 002c FFF7FEFF 		bl	memcpy
 190:sontek.c      ****     //initialize values to be able to tell if/what parameters are not returned
 191:sontek.c      ****     float sontek_values[] = {-1.0, -2.0, -3.0, -4.0, -5.0, -6.0, -7.0, -8.0, -9.0, -10.0, -11.0, -1
 886              		.loc 1 191 0
 887 0030 07F16803 		add	r3, r7, #104
 888 0034 724A     		ldr	r2, .L57+12
 889 0036 1846     		mov	r0, r3
 890 0038 1146     		mov	r1, r2
 891 003a 6C23     		movs	r3, #108
 892 003c 1A46     		mov	r2, r3
 893 003e FFF7FEFF 		bl	memcpy
 192:sontek.c      ****     //create SDI12_sensor struct of sontek specific values
ARM GAS  C:\Users\klabu\AppData\Local\Temp\ccgBioJt.s 			page 21


 193:sontek.c      ****     
 194:sontek.c      ****     SDI12_sensor sontek = {
 894              		.loc 1 194 0
 895 0042 07F13403 		add	r3, r7, #52
 896 0046 1846     		mov	r0, r3
 897 0048 3423     		movs	r3, #52
 898 004a 1A46     		mov	r2, r3
 899 004c 0021     		movs	r1, #0
 900 004e FFF7FEFF 		bl	memset
 901 0052 07F13403 		add	r3, r7, #52
 902 0056 D7F8B021 		ldr	r2, [r7, #432]
 903 005a 1A60     		str	r2, [r3]
 904 005c 07F13403 		add	r3, r7, #52
 905 0060 07F1D402 		add	r2, r7, #212
 906 0064 5A60     		str	r2, [r3, #4]
 907 0066 07F13403 		add	r3, r7, #52
 908 006a 07F5A072 		add	r2, r7, #320
 909 006e 0432     		adds	r2, r2, #4
 910 0070 9A60     		str	r2, [r3, #8]
 911 0072 07F13403 		add	r3, r7, #52
 912 0076 1B22     		movs	r2, #27
 913 0078 1A73     		strb	r2, [r3, #12]
 195:sontek.c      ****         .nvars = SONTEK_NVARS,
 196:sontek.c      ****         .address = sontek_address,
 197:sontek.c      ****         .labels = sontek_labels,
 198:sontek.c      ****         .values = m_sontek.values //use same initial array as m_sontek
 199:sontek.c      ****     };
 200:sontek.c      ****     
 201:sontek.c      ****     //Start UART connection and power up sensor
 202:sontek.c      ****     SDI12_start();
 914              		.loc 1 202 0
 915 007a FFF7FEFF 		bl	SDI12_start
 203:sontek.c      ****     SDI12_Power_Write(1u);
 916              		.loc 1 203 0
 917 007e 0120     		movs	r0, #1
 918 0080 FFF7FEFF 		bl	SDI12_Power_Write
 919              	.LBB3:
 204:sontek.c      ****     
 205:sontek.c      ****     //Will try up to 10 times (1/second) to connect to sontek sensor
 206:sontek.c      ****     for (uint8 i = 0; i < 10; i++) {
 920              		.loc 1 206 0
 921 0084 0023     		movs	r3, #0
 922 0086 87F8B731 		strb	r3, [r7, #439]
 923 008a 46E0     		b	.L48
 924              	.L55:
 207:sontek.c      ****         CyDelay(1000u);
 925              		.loc 1 207 0
 926 008c 4FF47A70 		mov	r0, #1000
 927 0090 FFF7FEFF 		bl	CyDelay
 208:sontek.c      ****             
 209:sontek.c      ****         //Checks if sontek sensor is on    
 210:sontek.c      ****         if (SDI12_is_active(&sontek)){
 928              		.loc 1 210 0
 929 0094 07F13403 		add	r3, r7, #52
 930 0098 1846     		mov	r0, r3
 931 009a FFF7FEFF 		bl	SDI12_is_active
 932 009e 0346     		mov	r3, r0
ARM GAS  C:\Users\klabu\AppData\Local\Temp\ccgBioJt.s 			page 22


 933 00a0 002B     		cmp	r3, #0
 934 00a2 32D0     		beq	.L49
 211:sontek.c      ****             //valid = SDI12_change_address(&sensors[0],"0");  -----comment out copied code
 212:sontek.c      ****             SDI12_info(&sontek); CyDelay(500u); // ------ I don't know what this does/it's purpose 
 935              		.loc 1 212 0
 936 00a4 07F13403 		add	r3, r7, #52
 937 00a8 1846     		mov	r0, r3
 938 00aa FFF7FEFF 		bl	SDI12_info
 939 00ae 4FF4FA70 		mov	r0, #500
 940 00b2 FFF7FEFF 		bl	CyDelay
 213:sontek.c      ****             //Trys to take a measurment
 214:sontek.c      ****             if (SDI12_take_measurement(&sontek)){
 941              		.loc 1 214 0
 942 00b6 07F13403 		add	r3, r7, #52
 943 00ba 1846     		mov	r0, r3
 944 00bc FFF7FEFF 		bl	SDI12_take_measurement
 945 00c0 0346     		mov	r3, r0
 946 00c2 002B     		cmp	r3, #0
 947 00c4 1DD0     		beq	.L50
 215:sontek.c      ****                 m_sontek.valid = SONTEK_READING_VALID; // Successfully took a measurement
 948              		.loc 1 215 0
 949 00c6 0123     		movs	r3, #1
 950 00c8 87F84131 		strb	r3, [r7, #321]
 951              	.LBB4:
 216:sontek.c      ****                 
 217:sontek.c      ****                 //set sontek_t struct values equal to SDI12_sensor struct values
 218:sontek.c      ****                 for(uint8 j; j < SONTEK_NVARS; j++){
 952              		.loc 1 218 0
 953 00cc 14E0     		b	.L51
 954              	.L52:
 219:sontek.c      ****                     m_sontek.values[j] = sontek.values[j];
 955              		.loc 1 219 0 discriminator 2
 956 00ce 97F8B631 		ldrb	r3, [r7, #438]	@ zero_extendqisi2
 957 00d2 07F13402 		add	r2, r7, #52
 958 00d6 9168     		ldr	r1, [r2, #8]
 959 00d8 97F8B621 		ldrb	r2, [r7, #438]	@ zero_extendqisi2
 960 00dc 9200     		lsls	r2, r2, #2
 961 00de 0A44     		add	r2, r2, r1
 962 00e0 1268     		ldr	r2, [r2]	@ float
 963 00e2 9B00     		lsls	r3, r3, #2
 964 00e4 07F5DC71 		add	r1, r7, #440
 965 00e8 0B44     		add	r3, r3, r1
 966 00ea 43F8742C 		str	r2, [r3, #-116]	@ float
 218:sontek.c      ****                     m_sontek.values[j] = sontek.values[j];
 967              		.loc 1 218 0 discriminator 2
 968 00ee 97F8B631 		ldrb	r3, [r7, #438]	@ zero_extendqisi2
 969 00f2 0133     		adds	r3, r3, #1
 970 00f4 87F8B631 		strb	r3, [r7, #438]
 971              	.L51:
 218:sontek.c      ****                     m_sontek.values[j] = sontek.values[j];
 972              		.loc 1 218 0 is_stmt 0 discriminator 1
 973 00f8 97F8B631 		ldrb	r3, [r7, #438]	@ zero_extendqisi2
 974 00fc 1A2B     		cmp	r3, #26
 975 00fe E6D9     		bls	.L52
 976              	.LBE4:
 220:sontek.c      ****                 }
 221:sontek.c      ****                 
ARM GAS  C:\Users\klabu\AppData\Local\Temp\ccgBioJt.s 			page 23


 222:sontek.c      ****                 break;                    
 977              		.loc 1 222 0 is_stmt 1
 978 0100 0FE0     		b	.L53
 979              	.L50:
 223:sontek.c      ****             } 
 224:sontek.c      ****             else {
 225:sontek.c      ****                 m_sontek.valid = SONTEK_READING_PARSE_ERROR; // SDI12 sensor powered on, but unable
 980              		.loc 1 225 0
 981 0102 0223     		movs	r3, #2
 982 0104 87F84131 		strb	r3, [r7, #321]
 983 0108 02E0     		b	.L54
 984              	.L49:
 226:sontek.c      ****             } 
 227:sontek.c      ****         }
 228:sontek.c      ****         
 229:sontek.c      ****         else {
 230:sontek.c      ****             m_sontek.valid = SONTEK_READING_NOT_RESPONDING; // SDI12 sensor not responding. It may 
 985              		.loc 1 230 0
 986 010a 0323     		movs	r3, #3
 987 010c 87F84131 		strb	r3, [r7, #321]
 988              	.L54:
 206:sontek.c      ****         CyDelay(1000u);
 989              		.loc 1 206 0 discriminator 2
 990 0110 97F8B731 		ldrb	r3, [r7, #439]	@ zero_extendqisi2
 991 0114 0133     		adds	r3, r3, #1
 992 0116 87F8B731 		strb	r3, [r7, #439]
 993              	.L48:
 206:sontek.c      ****         CyDelay(1000u);
 994              		.loc 1 206 0 is_stmt 0 discriminator 1
 995 011a 97F8B731 		ldrb	r3, [r7, #439]	@ zero_extendqisi2
 996 011e 092B     		cmp	r3, #9
 997 0120 B4D9     		bls	.L55
 998              	.L53:
 999              	.LBE3:
 231:sontek.c      ****         }
 232:sontek.c      ****     }
 233:sontek.c      ****             
 234:sontek.c      ****     //shuts off sensor and turns of UART
 235:sontek.c      ****     SDI12_Power_Write(0u);
 1000              		.loc 1 235 0 is_stmt 1
 1001 0122 0020     		movs	r0, #0
 1002 0124 FFF7FEFF 		bl	SDI12_Power_Write
 236:sontek.c      ****     SDI12_stop();
 1003              		.loc 1 236 0
 1004 0128 FFF7FEFF 		bl	SDI12_stop
 237:sontek.c      ****      // Take sontek readings and save them to m_sontek
 238:sontek.c      ****         char value[DATA_MAX_KEY_LENGTH];
 239:sontek.c      ****         char value1[DATA_MAX_KEY_LENGTH];
 240:sontek.c      ****             //put all sontek values in one thing
 241:sontek.c      ****         
 242:sontek.c      ****         //------------------tb deleted----------------------------------------------
 243:sontek.c      ****         snprintf(value,sizeof(value),"%f",m_sontek.values[4]);
 1005              		.loc 1 243 0
 1006 012c D7F85431 		ldr	r3, [r7, #340]	@ float
 1007 0130 1846     		mov	r0, r3
 1008 0132 FFF7FEFF 		bl	__aeabi_f2d
 1009 0136 0346     		mov	r3, r0
ARM GAS  C:\Users\klabu\AppData\Local\Temp\ccgBioJt.s 			page 24


 1010 0138 0C46     		mov	r4, r1
 1011 013a 07F12000 		add	r0, r7, #32
 1012 013e CDE90034 		strd	r3, [sp]
 1013 0142 304A     		ldr	r2, .L57+16
 1014 0144 1421     		movs	r1, #20
 1015 0146 FFF7FEFF 		bl	snprintf
 244:sontek.c      ****          printNotif(NOTIF_TYPE_EVENT,"sontek_depth=%s",value);
 1016              		.loc 1 244 0
 1017 014a 07F12003 		add	r3, r7, #32
 1018 014e 1A46     		mov	r2, r3
 1019 0150 2D49     		ldr	r1, .L57+20
 1020 0152 0020     		movs	r0, #0
 1021 0154 FFF7FEFF 		bl	printNotif
 245:sontek.c      ****         //23 is SNR1, 24 SNR2, 25, SNR3
 246:sontek.c      ****         snprintf(value,sizeof(value),"%f",m_sontek.values[23]);
 1022              		.loc 1 246 0
 1023 0158 D7F8A031 		ldr	r3, [r7, #416]	@ float
 1024 015c 1846     		mov	r0, r3
 1025 015e FFF7FEFF 		bl	__aeabi_f2d
 1026 0162 0346     		mov	r3, r0
 1027 0164 0C46     		mov	r4, r1
 1028 0166 07F12000 		add	r0, r7, #32
 1029 016a CDE90034 		strd	r3, [sp]
 1030 016e 254A     		ldr	r2, .L57+16
 1031 0170 1421     		movs	r1, #20
 1032 0172 FFF7FEFF 		bl	snprintf
 247:sontek.c      ****             printNotif(NOTIF_TYPE_EVENT,"sontek_SNR1=%s",value);
 1033              		.loc 1 247 0
 1034 0176 07F12003 		add	r3, r7, #32
 1035 017a 1A46     		mov	r2, r3
 1036 017c 2349     		ldr	r1, .L57+24
 1037 017e 0020     		movs	r0, #0
 1038 0180 FFF7FEFF 		bl	printNotif
 248:sontek.c      ****             
 249:sontek.c      ****         snprintf(value,sizeof(value),"%f",m_sontek.values[5]); 
 1039              		.loc 1 249 0
 1040 0184 D7F85831 		ldr	r3, [r7, #344]	@ float
 1041 0188 1846     		mov	r0, r3
 1042 018a FFF7FEFF 		bl	__aeabi_f2d
 1043 018e 0346     		mov	r3, r0
 1044 0190 0C46     		mov	r4, r1
 1045 0192 07F12000 		add	r0, r7, #32
 1046 0196 CDE90034 		strd	r3, [sp]
 1047 019a 1A4A     		ldr	r2, .L57+16
 1048 019c 1421     		movs	r1, #20
 1049 019e FFF7FEFF 		bl	snprintf
 250:sontek.c      ****         snprintf(value1,sizeof(value),"%f",m_sontek.values[23]); 
 1050              		.loc 1 250 0
 1051 01a2 D7F8A031 		ldr	r3, [r7, #416]	@ float
 1052 01a6 1846     		mov	r0, r3
 1053 01a8 FFF7FEFF 		bl	__aeabi_f2d
 1054 01ac 0346     		mov	r3, r0
 1055 01ae 0C46     		mov	r4, r1
 1056 01b0 07F10C00 		add	r0, r7, #12
 1057 01b4 CDE90034 		strd	r3, [sp]
 1058 01b8 124A     		ldr	r2, .L57+16
 1059 01ba 1421     		movs	r1, #20
ARM GAS  C:\Users\klabu\AppData\Local\Temp\ccgBioJt.s 			page 25


 1060 01bc FFF7FEFF 		bl	snprintf
 251:sontek.c      ****         printNotif(NOTIF_TYPE_EVENT,"data=%s",value,",%s",value1);      //////---------------this i
 1061              		.loc 1 251 0
 1062 01c0 07F12002 		add	r2, r7, #32
 1063 01c4 07F10C03 		add	r3, r7, #12
 1064 01c8 0093     		str	r3, [sp]
 1065 01ca 114B     		ldr	r3, .L57+28
 1066 01cc 1149     		ldr	r1, .L57+32
 1067 01ce 0020     		movs	r0, #0
 1068 01d0 FFF7FEFF 		bl	printNotif
 252:sontek.c      ****     
 253:sontek.c      ****     // this isn't set to any of the measurements yet
 254:sontek.c      ****     return m_sontek;
 1069              		.loc 1 254 0
 1070 01d4 3B1D     		adds	r3, r7, #4
 1071 01d6 1B68     		ldr	r3, [r3]
 1072 01d8 1846     		mov	r0, r3
 1073 01da 07F5A073 		add	r3, r7, #320
 1074 01de 7022     		movs	r2, #112
 1075 01e0 1946     		mov	r1, r3
 1076 01e2 FFF7FEFF 		bl	memcpy
 255:sontek.c      **** }
 1077              		.loc 1 255 0
 1078 01e6 3B1D     		adds	r3, r7, #4
 1079 01e8 1868     		ldr	r0, [r3]
 1080 01ea 07F5DE77 		add	r7, r7, #444
 1081              		.cfi_def_cfa_offset 12
 1082 01ee BD46     		mov	sp, r7
 1083              		.cfi_def_cfa_register 13
 1084              		@ sp needed
 1085 01f0 90BD     		pop	{r4, r7, pc}
 1086              	.L58:
 1087 01f2 00BF     		.align	2
 1088              	.L57:
 1089 01f4 5C000000 		.word	.LC0
 1090 01f8 28000000 		.word	.LC39
 1091 01fc B4010000 		.word	.LC40
 1092 0200 20020000 		.word	.LC29
 1093 0204 2C000000 		.word	.LC41
 1094 0208 30000000 		.word	.LC42
 1095 020c 40000000 		.word	.LC43
 1096 0210 50000000 		.word	.LC44
 1097 0214 54000000 		.word	.LC45
 1098              		.cfi_endproc
 1099              	.LFE65:
 1100              		.size	sontek_take_reading, .-sontek_take_reading
 1101              		.bss
 1102              		.align	2
 1103              	SDI12_uart_buf.9395:
 1104 0000 00000000 		.space	257
 1104      00000000 
 1104      00000000 
 1104      00000000 
 1104      00000000 
 1105              	SDI12_buf_idx.9396:
 1106 0101 00       		.space	1
 1107              		.text
ARM GAS  C:\Users\klabu\AppData\Local\Temp\ccgBioJt.s 			page 26


 1108              	.Letext0:
 1109              		.file 2 "c:\\program files (x86)\\cypress\\psoc creator\\4.4\\psoc creator\\import\\gnu\\arm\\5.4.
 1110              		.file 3 "c:\\program files (x86)\\cypress\\psoc creator\\4.4\\psoc creator\\import\\gnu\\arm\\5.4.
 1111              		.file 4 "Generated_Source\\PSoC5/cytypes.h"
 1112              		.file 5 "SDI12.h"
 1113              		.file 6 "sontek.h"
 1114              		.file 7 "data.h"
 1115              		.file 8 "modem.h"
 1116              		.file 9 "Generated_Source\\PSoC5/core_cm3.h"
 1117              		.section	.debug_info,"",%progbits
 1118              	.Ldebug_info0:
 1119 0000 EA050000 		.4byte	0x5ea
 1120 0004 0400     		.2byte	0x4
 1121 0006 00000000 		.4byte	.Ldebug_abbrev0
 1122 000a 04       		.byte	0x4
 1123 000b 01       		.uleb128 0x1
 1124 000c 70000000 		.4byte	.LASF80
 1125 0010 0C       		.byte	0xc
 1126 0011 86010000 		.4byte	.LASF81
 1127 0015 AA030000 		.4byte	.LASF82
 1128 0019 00000000 		.4byte	.Ldebug_ranges0+0
 1129 001d 00000000 		.4byte	0
 1130 0021 00000000 		.4byte	.Ldebug_line0
 1131 0025 02       		.uleb128 0x2
 1132 0026 01       		.byte	0x1
 1133 0027 06       		.byte	0x6
 1134 0028 6D020000 		.4byte	.LASF0
 1135 002c 03       		.uleb128 0x3
 1136 002d 0B020000 		.4byte	.LASF4
 1137 0031 02       		.byte	0x2
 1138 0032 1D       		.byte	0x1d
 1139 0033 37000000 		.4byte	0x37
 1140 0037 02       		.uleb128 0x2
 1141 0038 01       		.byte	0x1
 1142 0039 08       		.byte	0x8
 1143 003a 2E020000 		.4byte	.LASF1
 1144 003e 02       		.uleb128 0x2
 1145 003f 02       		.byte	0x2
 1146 0040 05       		.byte	0x5
 1147 0041 10010000 		.4byte	.LASF2
 1148 0045 02       		.uleb128 0x2
 1149 0046 02       		.byte	0x2
 1150 0047 07       		.byte	0x7
 1151 0048 D7020000 		.4byte	.LASF3
 1152 004c 03       		.uleb128 0x3
 1153 004d D1030000 		.4byte	.LASF5
 1154 0051 02       		.byte	0x2
 1155 0052 3F       		.byte	0x3f
 1156 0053 57000000 		.4byte	0x57
 1157 0057 02       		.uleb128 0x2
 1158 0058 04       		.byte	0x4
 1159 0059 05       		.byte	0x5
 1160 005a E0010000 		.4byte	.LASF6
 1161 005e 02       		.uleb128 0x2
 1162 005f 04       		.byte	0x4
 1163 0060 07       		.byte	0x7
 1164 0061 71030000 		.4byte	.LASF7
ARM GAS  C:\Users\klabu\AppData\Local\Temp\ccgBioJt.s 			page 27


 1165 0065 02       		.uleb128 0x2
 1166 0066 08       		.byte	0x8
 1167 0067 05       		.byte	0x5
 1168 0068 A9010000 		.4byte	.LASF8
 1169 006c 02       		.uleb128 0x2
 1170 006d 08       		.byte	0x8
 1171 006e 07       		.byte	0x7
 1172 006f B7010000 		.4byte	.LASF9
 1173 0073 04       		.uleb128 0x4
 1174 0074 04       		.byte	0x4
 1175 0075 05       		.byte	0x5
 1176 0076 696E7400 		.ascii	"int\000"
 1177 007a 02       		.uleb128 0x2
 1178 007b 04       		.byte	0x4
 1179 007c 07       		.byte	0x7
 1180 007d 03040000 		.4byte	.LASF10
 1181 0081 03       		.uleb128 0x3
 1182 0082 27010000 		.4byte	.LASF11
 1183 0086 03       		.byte	0x3
 1184 0087 18       		.byte	0x18
 1185 0088 2C000000 		.4byte	0x2c
 1186 008c 03       		.uleb128 0x3
 1187 008d 38030000 		.4byte	.LASF12
 1188 0091 03       		.byte	0x3
 1189 0092 2C       		.byte	0x2c
 1190 0093 4C000000 		.4byte	0x4c
 1191 0097 05       		.uleb128 0x5
 1192 0098 41010000 		.4byte	.LASF13
 1193 009c 04       		.byte	0x4
 1194 009d 9201     		.2byte	0x192
 1195 009f 37000000 		.4byte	0x37
 1196 00a3 05       		.uleb128 0x5
 1197 00a4 20010000 		.4byte	.LASF14
 1198 00a8 04       		.byte	0x4
 1199 00a9 9301     		.2byte	0x193
 1200 00ab 45000000 		.4byte	0x45
 1201 00af 05       		.uleb128 0x5
 1202 00b0 6A030000 		.4byte	.LASF15
 1203 00b4 04       		.byte	0x4
 1204 00b5 9401     		.2byte	0x194
 1205 00b7 5E000000 		.4byte	0x5e
 1206 00bb 05       		.uleb128 0x5
 1207 00bc A3010000 		.4byte	.LASF16
 1208 00c0 04       		.byte	0x4
 1209 00c1 9701     		.2byte	0x197
 1210 00c3 57000000 		.4byte	0x57
 1211 00c7 02       		.uleb128 0x2
 1212 00c8 04       		.byte	0x4
 1213 00c9 04       		.byte	0x4
 1214 00ca 80010000 		.4byte	.LASF17
 1215 00ce 02       		.uleb128 0x2
 1216 00cf 08       		.byte	0x8
 1217 00d0 04       		.byte	0x4
 1218 00d1 88030000 		.4byte	.LASF18
 1219 00d5 02       		.uleb128 0x2
 1220 00d6 01       		.byte	0x1
 1221 00d7 08       		.byte	0x8
ARM GAS  C:\Users\klabu\AppData\Local\Temp\ccgBioJt.s 			page 28


 1222 00d8 CE010000 		.4byte	.LASF19
 1223 00dc 02       		.uleb128 0x2
 1224 00dd 08       		.byte	0x8
 1225 00de 04       		.byte	0x4
 1226 00df 22020000 		.4byte	.LASF20
 1227 00e3 02       		.uleb128 0x2
 1228 00e4 04       		.byte	0x4
 1229 00e5 07       		.byte	0x7
 1230 00e6 51000000 		.4byte	.LASF21
 1231 00ea 06       		.uleb128 0x6
 1232 00eb 04       		.byte	0x4
 1233 00ec D5000000 		.4byte	0xd5
 1234 00f0 07       		.uleb128 0x7
 1235 00f1 34       		.byte	0x34
 1236 00f2 05       		.byte	0x5
 1237 00f3 28       		.byte	0x28
 1238 00f4 65010000 		.4byte	0x165
 1239 00f8 08       		.uleb128 0x8
 1240 00f9 79020000 		.4byte	.LASF22
 1241 00fd 05       		.byte	0x5
 1242 00fe 2A       		.byte	0x2a
 1243 00ff EA000000 		.4byte	0xea
 1244 0103 00       		.byte	0
 1245 0104 08       		.uleb128 0x8
 1246 0105 31000000 		.4byte	.LASF23
 1247 0109 05       		.byte	0x5
 1248 010a 2B       		.byte	0x2b
 1249 010b 65010000 		.4byte	0x165
 1250 010f 04       		.byte	0x4
 1251 0110 08       		.uleb128 0x8
 1252 0111 04020000 		.4byte	.LASF24
 1253 0115 05       		.byte	0x5
 1254 0116 2C       		.byte	0x2c
 1255 0117 6B010000 		.4byte	0x16b
 1256 011b 08       		.byte	0x8
 1257 011c 08       		.uleb128 0x8
 1258 011d E1030000 		.4byte	.LASF25
 1259 0121 05       		.byte	0x5
 1260 0122 2D       		.byte	0x2d
 1261 0123 97000000 		.4byte	0x97
 1262 0127 0C       		.byte	0xc
 1263 0128 08       		.uleb128 0x8
 1264 0129 10040000 		.4byte	.LASF26
 1265 012d 05       		.byte	0x5
 1266 012e 2F       		.byte	0x2f
 1267 012f 71010000 		.4byte	0x171
 1268 0133 0D       		.byte	0xd
 1269 0134 08       		.uleb128 0x8
 1270 0135 18040000 		.4byte	.LASF27
 1271 0139 05       		.byte	0x5
 1272 013a 30       		.byte	0x30
 1273 013b 81010000 		.4byte	0x181
 1274 013f 10       		.byte	0x10
 1275 0140 08       		.uleb128 0x8
 1276 0141 DB030000 		.4byte	.LASF28
 1277 0145 05       		.byte	0x5
 1278 0146 31       		.byte	0x31
ARM GAS  C:\Users\klabu\AppData\Local\Temp\ccgBioJt.s 			page 29


 1279 0147 91010000 		.4byte	0x191
 1280 014b 19       		.byte	0x19
 1281 014c 08       		.uleb128 0x8
 1282 014d 29000000 		.4byte	.LASF29
 1283 0151 05       		.byte	0x5
 1284 0152 32       		.byte	0x32
 1285 0153 A1010000 		.4byte	0x1a1
 1286 0157 20       		.byte	0x20
 1287 0158 08       		.uleb128 0x8
 1288 0159 40030000 		.4byte	.LASF30
 1289 015d 05       		.byte	0x5
 1290 015e 33       		.byte	0x33
 1291 015f B1010000 		.4byte	0x1b1
 1292 0163 24       		.byte	0x24
 1293 0164 00       		.byte	0
 1294 0165 06       		.uleb128 0x6
 1295 0166 04       		.byte	0x4
 1296 0167 EA000000 		.4byte	0xea
 1297 016b 06       		.uleb128 0x6
 1298 016c 04       		.byte	0x4
 1299 016d C7000000 		.4byte	0xc7
 1300 0171 09       		.uleb128 0x9
 1301 0172 D5000000 		.4byte	0xd5
 1302 0176 81010000 		.4byte	0x181
 1303 017a 0A       		.uleb128 0xa
 1304 017b E3000000 		.4byte	0xe3
 1305 017f 02       		.byte	0x2
 1306 0180 00       		.byte	0
 1307 0181 09       		.uleb128 0x9
 1308 0182 D5000000 		.4byte	0xd5
 1309 0186 91010000 		.4byte	0x191
 1310 018a 0A       		.uleb128 0xa
 1311 018b E3000000 		.4byte	0xe3
 1312 018f 08       		.byte	0x8
 1313 0190 00       		.byte	0
 1314 0191 09       		.uleb128 0x9
 1315 0192 D5000000 		.4byte	0xd5
 1316 0196 A1010000 		.4byte	0x1a1
 1317 019a 0A       		.uleb128 0xa
 1318 019b E3000000 		.4byte	0xe3
 1319 019f 06       		.byte	0x6
 1320 01a0 00       		.byte	0
 1321 01a1 09       		.uleb128 0x9
 1322 01a2 D5000000 		.4byte	0xd5
 1323 01a6 B1010000 		.4byte	0x1b1
 1324 01aa 0A       		.uleb128 0xa
 1325 01ab E3000000 		.4byte	0xe3
 1326 01af 03       		.byte	0x3
 1327 01b0 00       		.byte	0
 1328 01b1 09       		.uleb128 0x9
 1329 01b2 D5000000 		.4byte	0xd5
 1330 01b6 C1010000 		.4byte	0x1c1
 1331 01ba 0A       		.uleb128 0xa
 1332 01bb E3000000 		.4byte	0xe3
 1333 01bf 0D       		.byte	0xd
 1334 01c0 00       		.byte	0
 1335 01c1 03       		.uleb128 0x3
ARM GAS  C:\Users\klabu\AppData\Local\Temp\ccgBioJt.s 			page 30


 1336 01c2 47010000 		.4byte	.LASF31
 1337 01c6 05       		.byte	0x5
 1338 01c7 34       		.byte	0x34
 1339 01c8 F0000000 		.4byte	0xf0
 1340 01cc 07       		.uleb128 0x7
 1341 01cd 70       		.byte	0x70
 1342 01ce 06       		.byte	0x6
 1343 01cf 19       		.byte	0x19
 1344 01d0 F9010000 		.4byte	0x1f9
 1345 01d4 08       		.uleb128 0x8
 1346 01d5 E1030000 		.4byte	.LASF25
 1347 01d9 06       		.byte	0x6
 1348 01da 1B       		.byte	0x1b
 1349 01db 97000000 		.4byte	0x97
 1350 01df 00       		.byte	0
 1351 01e0 08       		.uleb128 0x8
 1352 01e1 00000000 		.4byte	.LASF32
 1353 01e5 06       		.byte	0x6
 1354 01e6 1C       		.byte	0x1c
 1355 01e7 97000000 		.4byte	0x97
 1356 01eb 01       		.byte	0x1
 1357 01ec 08       		.uleb128 0x8
 1358 01ed 04020000 		.4byte	.LASF24
 1359 01f1 06       		.byte	0x6
 1360 01f2 1D       		.byte	0x1d
 1361 01f3 F9010000 		.4byte	0x1f9
 1362 01f7 04       		.byte	0x4
 1363 01f8 00       		.byte	0
 1364 01f9 09       		.uleb128 0x9
 1365 01fa C7000000 		.4byte	0xc7
 1366 01fe 09020000 		.4byte	0x209
 1367 0202 0A       		.uleb128 0xa
 1368 0203 E3000000 		.4byte	0xe3
 1369 0207 1A       		.byte	0x1a
 1370 0208 00       		.byte	0
 1371 0209 03       		.uleb128 0x3
 1372 020a 19000000 		.4byte	.LASF33
 1373 020e 06       		.byte	0x6
 1374 020f 1F       		.byte	0x1f
 1375 0210 CC010000 		.4byte	0x1cc
 1376 0214 07       		.uleb128 0x7
 1377 0215 2C       		.byte	0x2c
 1378 0216 07       		.byte	0x7
 1379 0217 14       		.byte	0x14
 1380 0218 41020000 		.4byte	0x241
 1381 021c 0B       		.uleb128 0xb
 1382 021d 6B657900 		.ascii	"key\000"
 1383 0221 07       		.byte	0x7
 1384 0222 15       		.byte	0x15
 1385 0223 41020000 		.4byte	0x241
 1386 0227 00       		.byte	0
 1387 0228 08       		.uleb128 0x8
 1388 0229 1A010000 		.4byte	.LASF34
 1389 022d 07       		.byte	0x7
 1390 022e 16       		.byte	0x16
 1391 022f 41020000 		.4byte	0x241
 1392 0233 14       		.byte	0x14
ARM GAS  C:\Users\klabu\AppData\Local\Temp\ccgBioJt.s 			page 31


 1393 0234 08       		.uleb128 0x8
 1394 0235 47000000 		.4byte	.LASF35
 1395 0239 07       		.byte	0x7
 1396 023a 17       		.byte	0x17
 1397 023b BB000000 		.4byte	0xbb
 1398 023f 28       		.byte	0x28
 1399 0240 00       		.byte	0
 1400 0241 09       		.uleb128 0x9
 1401 0242 D5000000 		.4byte	0xd5
 1402 0246 51020000 		.4byte	0x251
 1403 024a 0A       		.uleb128 0xa
 1404 024b E3000000 		.4byte	0xe3
 1405 024f 13       		.byte	0x13
 1406 0250 00       		.byte	0
 1407 0251 03       		.uleb128 0x3
 1408 0252 8F020000 		.4byte	.LASF36
 1409 0256 07       		.byte	0x7
 1410 0257 19       		.byte	0x19
 1411 0258 14020000 		.4byte	0x214
 1412 025c 07       		.uleb128 0x7
 1413 025d 3C       		.byte	0x3c
 1414 025e 08       		.byte	0x8
 1415 025f 36       		.byte	0x36
 1416 0260 89020000 		.4byte	0x289
 1417 0264 08       		.uleb128 0x8
 1418 0265 22000000 		.4byte	.LASF37
 1419 0269 08       		.byte	0x8
 1420 026a 37       		.byte	0x37
 1421 026b 41020000 		.4byte	0x241
 1422 026f 00       		.byte	0
 1423 0270 08       		.uleb128 0x8
 1424 0271 06000000 		.4byte	.LASF38
 1425 0275 08       		.byte	0x8
 1426 0276 38       		.byte	0x38
 1427 0277 41020000 		.4byte	0x241
 1428 027b 14       		.byte	0x14
 1429 027c 08       		.uleb128 0x8
 1430 027d 33030000 		.4byte	.LASF39
 1431 0281 08       		.byte	0x8
 1432 0282 39       		.byte	0x39
 1433 0283 41020000 		.4byte	0x241
 1434 0287 28       		.byte	0x28
 1435 0288 00       		.byte	0
 1436 0289 03       		.uleb128 0x3
 1437 028a D3010000 		.4byte	.LASF40
 1438 028e 08       		.byte	0x8
 1439 028f 3B       		.byte	0x3b
 1440 0290 5C020000 		.4byte	0x25c
 1441 0294 07       		.uleb128 0x7
 1442 0295 20       		.byte	0x20
 1443 0296 08       		.byte	0x8
 1444 0297 3D       		.byte	0x3d
 1445 0298 FD020000 		.4byte	0x2fd
 1446 029c 08       		.uleb128 0x8
 1447 029d 9B020000 		.4byte	.LASF41
 1448 02a1 08       		.byte	0x8
 1449 02a2 3E       		.byte	0x3e
ARM GAS  C:\Users\klabu\AppData\Local\Temp\ccgBioJt.s 			page 32


 1450 02a3 73000000 		.4byte	0x73
 1451 02a7 00       		.byte	0
 1452 02a8 0B       		.uleb128 0xb
 1453 02a9 62657200 		.ascii	"ber\000"
 1454 02ad 08       		.byte	0x8
 1455 02ae 3F       		.byte	0x3f
 1456 02af 73000000 		.4byte	0x73
 1457 02b3 04       		.byte	0x4
 1458 02b4 08       		.uleb128 0x8
 1459 02b5 54010000 		.4byte	.LASF42
 1460 02b9 08       		.byte	0x8
 1461 02ba 40       		.byte	0x40
 1462 02bb 73000000 		.4byte	0x73
 1463 02bf 08       		.byte	0x8
 1464 02c0 08       		.uleb128 0x8
 1465 02c1 0B010000 		.4byte	.LASF43
 1466 02c5 08       		.byte	0x8
 1467 02c6 41       		.byte	0x41
 1468 02c7 73000000 		.4byte	0x73
 1469 02cb 0C       		.byte	0xc
 1470 02cc 08       		.uleb128 0x8
 1471 02cd 5B030000 		.4byte	.LASF44
 1472 02d1 08       		.byte	0x8
 1473 02d2 42       		.byte	0x42
 1474 02d3 73000000 		.4byte	0x73
 1475 02d7 10       		.byte	0x10
 1476 02d8 08       		.uleb128 0x8
 1477 02d9 59010000 		.4byte	.LASF45
 1478 02dd 08       		.byte	0x8
 1479 02de 43       		.byte	0x43
 1480 02df 73000000 		.4byte	0x73
 1481 02e3 14       		.byte	0x14
 1482 02e4 08       		.uleb128 0x8
 1483 02e5 EA020000 		.4byte	.LASF46
 1484 02e9 08       		.byte	0x8
 1485 02ea 44       		.byte	0x44
 1486 02eb 73000000 		.4byte	0x73
 1487 02ef 18       		.byte	0x18
 1488 02f0 08       		.uleb128 0x8
 1489 02f1 20030000 		.4byte	.LASF47
 1490 02f5 08       		.byte	0x8
 1491 02f6 45       		.byte	0x45
 1492 02f7 73000000 		.4byte	0x73
 1493 02fb 1C       		.byte	0x1c
 1494 02fc 00       		.byte	0
 1495 02fd 03       		.uleb128 0x3
 1496 02fe 47030000 		.4byte	.LASF48
 1497 0302 08       		.byte	0x8
 1498 0303 47       		.byte	0x47
 1499 0304 94020000 		.4byte	0x294
 1500 0308 07       		.uleb128 0x7
 1501 0309 05       		.byte	0x5
 1502 030a 08       		.byte	0x8
 1503 030b 53       		.byte	0x53
 1504 030c 4D030000 		.4byte	0x34d
 1505 0310 08       		.uleb128 0x8
 1506 0311 1F040000 		.4byte	.LASF49
ARM GAS  C:\Users\klabu\AppData\Local\Temp\ccgBioJt.s 			page 33


 1507 0315 08       		.byte	0x8
 1508 0316 55       		.byte	0x55
 1509 0317 97000000 		.4byte	0x97
 1510 031b 00       		.byte	0
 1511 031c 08       		.uleb128 0x8
 1512 031d CE020000 		.4byte	.LASF50
 1513 0321 08       		.byte	0x8
 1514 0322 57       		.byte	0x57
 1515 0323 4D030000 		.4byte	0x34d
 1516 0327 01       		.byte	0x1
 1517 0328 08       		.uleb128 0x8
 1518 0329 15020000 		.4byte	.LASF51
 1519 032d 08       		.byte	0x8
 1520 032e 59       		.byte	0x59
 1521 032f 97000000 		.4byte	0x97
 1522 0333 02       		.byte	0x2
 1523 0334 08       		.uleb128 0x8
 1524 0335 A1020000 		.4byte	.LASF52
 1525 0339 08       		.byte	0x8
 1526 033a 5B       		.byte	0x5b
 1527 033b 97000000 		.4byte	0x97
 1528 033f 03       		.byte	0x3
 1529 0340 08       		.uleb128 0x8
 1530 0341 C5030000 		.4byte	.LASF53
 1531 0345 08       		.byte	0x8
 1532 0346 5E       		.byte	0x5e
 1533 0347 97000000 		.4byte	0x97
 1534 034b 04       		.byte	0x4
 1535 034c 00       		.byte	0
 1536 034d 02       		.uleb128 0x2
 1537 034e 01       		.byte	0x1
 1538 034f 02       		.byte	0x2
 1539 0350 55030000 		.4byte	.LASF54
 1540 0354 03       		.uleb128 0x3
 1541 0355 B7020000 		.4byte	.LASF55
 1542 0359 08       		.byte	0x8
 1543 035a 60       		.byte	0x60
 1544 035b 08030000 		.4byte	0x308
 1545 035f 0C       		.uleb128 0xc
 1546 0360 02030000 		.4byte	.LASF83
 1547 0364 01       		.byte	0x1
 1548 0365 0B       		.byte	0xb
 1549 0366 97000000 		.4byte	0x97
 1550 036a 00000000 		.4byte	.LFB64
 1551 036e B2040000 		.4byte	.LFE64-.LFB64
 1552 0372 01       		.uleb128 0x1
 1553 0373 9C       		.byte	0x9c
 1554 0374 3E040000 		.4byte	0x43e
 1555 0378 0D       		.uleb128 0xd
 1556 0379 31040000 		.4byte	.LASF84
 1557 037d 01       		.byte	0x1
 1558 037e 0B       		.byte	0xb
 1559 037f 3E040000 		.4byte	0x43e
 1560 0383 03       		.uleb128 0x3
 1561 0384 91       		.byte	0x91
 1562 0385 847E     		.sleb128 -252
 1563 0387 0E       		.uleb128 0xe
ARM GAS  C:\Users\klabu\AppData\Local\Temp\ccgBioJt.s 			page 34


 1564 0388 5A000000 		.4byte	.LASF56
 1565 038c 01       		.byte	0x1
 1566 038d 0E       		.byte	0xe
 1567 038e 44040000 		.4byte	0x444
 1568 0392 05       		.uleb128 0x5
 1569 0393 03       		.byte	0x3
 1570 0394 00000000 		.4byte	SDI12_uart_buf.9395
 1571 0398 0E       		.uleb128 0xe
 1572 0399 3C020000 		.4byte	.LASF57
 1573 039d 01       		.byte	0x1
 1574 039e 0F       		.byte	0xf
 1575 039f 81000000 		.4byte	0x81
 1576 03a3 05       		.uleb128 0x5
 1577 03a4 03       		.byte	0x3
 1578 03a5 01010000 		.4byte	SDI12_buf_idx.9396
 1579 03a9 0F       		.uleb128 0xf
 1580 03aa 6900     		.ascii	"i\000"
 1581 03ac 01       		.byte	0x1
 1582 03ad 12       		.byte	0x12
 1583 03ae 97000000 		.4byte	0x97
 1584 03b2 02       		.uleb128 0x2
 1585 03b3 91       		.byte	0x91
 1586 03b4 6F       		.sleb128 -17
 1587 03b5 0F       		.uleb128 0xf
 1588 03b6 6A00     		.ascii	"j\000"
 1589 03b8 01       		.byte	0x1
 1590 03b9 13       		.byte	0x13
 1591 03ba 97000000 		.4byte	0x97
 1592 03be 02       		.uleb128 0x2
 1593 03bf 91       		.byte	0x91
 1594 03c0 6E       		.sleb128 -18
 1595 03c1 0F       		.uleb128 0xf
 1596 03c2 6B00     		.ascii	"k\000"
 1597 03c4 01       		.byte	0x1
 1598 03c5 14       		.byte	0x14
 1599 03c6 97000000 		.4byte	0x97
 1600 03ca 02       		.uleb128 0x2
 1601 03cb 91       		.byte	0x91
 1602 03cc 6D       		.sleb128 -19
 1603 03cd 0E       		.uleb128 0xe
 1604 03ce 38040000 		.4byte	.LASF58
 1605 03d2 01       		.byte	0x1
 1606 03d3 15       		.byte	0x15
 1607 03d4 AF000000 		.4byte	0xaf
 1608 03d8 02       		.uleb128 0x2
 1609 03d9 91       		.byte	0x91
 1610 03da 68       		.sleb128 -24
 1611 03db 0E       		.uleb128 0xe
 1612 03dc 29040000 		.4byte	.LASF59
 1613 03e0 01       		.byte	0x1
 1614 03e1 18       		.byte	0x18
 1615 03e2 55040000 		.4byte	0x455
 1616 03e6 03       		.uleb128 0x3
 1617 03e7 91       		.byte	0x91
 1618 03e8 807F     		.sleb128 -128
 1619 03ea 0E       		.uleb128 0xe
 1620 03eb 60030000 		.4byte	.LASF60
ARM GAS  C:\Users\klabu\AppData\Local\Temp\ccgBioJt.s 			page 35


 1621 03ef 01       		.byte	0x1
 1622 03f0 1B       		.byte	0x1b
 1623 03f1 55040000 		.4byte	0x455
 1624 03f5 03       		.uleb128 0x3
 1625 03f6 91       		.byte	0x91
 1626 03f7 9C7E     		.sleb128 -228
 1627 03f9 0E       		.uleb128 0xe
 1628 03fa 0F000000 		.4byte	.LASF61
 1629 03fe 01       		.byte	0x1
 1630 03ff 1B       		.byte	0x1b
 1631 0400 65040000 		.4byte	0x465
 1632 0404 03       		.uleb128 0x3
 1633 0405 91       		.byte	0x91
 1634 0406 907E     		.sleb128 -240
 1635 0408 0E       		.uleb128 0xe
 1636 0409 FE000000 		.4byte	.LASF62
 1637 040d 01       		.byte	0x1
 1638 040e 1B       		.byte	0x1b
 1639 040f EA000000 		.4byte	0xea
 1640 0413 03       		.uleb128 0x3
 1641 0414 91       		.byte	0x91
 1642 0415 8C7E     		.sleb128 -244
 1643 0417 0E       		.uleb128 0xe
 1644 0418 83030000 		.4byte	.LASF63
 1645 041c 01       		.byte	0x1
 1646 041d 1B       		.byte	0x1b
 1647 041e EA000000 		.4byte	0xea
 1648 0422 02       		.uleb128 0x2
 1649 0423 91       		.byte	0x91
 1650 0424 64       		.sleb128 -28
 1651 0425 10       		.uleb128 0x10
 1652 0426 74010000 		.4byte	.LBB2
 1653 042a 0C030000 		.4byte	.LBE2-.LBB2
 1654 042e 0F       		.uleb128 0xf
 1655 042f 6D617800 		.ascii	"max\000"
 1656 0433 01       		.byte	0x1
 1657 0434 84       		.byte	0x84
 1658 0435 97000000 		.4byte	0x97
 1659 0439 02       		.uleb128 0x2
 1660 043a 91       		.byte	0x91
 1661 043b 6C       		.sleb128 -20
 1662 043c 00       		.byte	0
 1663 043d 00       		.byte	0
 1664 043e 06       		.uleb128 0x6
 1665 043f 04       		.byte	0x4
 1666 0440 C1010000 		.4byte	0x1c1
 1667 0444 09       		.uleb128 0x9
 1668 0445 D5000000 		.4byte	0xd5
 1669 0449 55040000 		.4byte	0x455
 1670 044d 11       		.uleb128 0x11
 1671 044e E3000000 		.4byte	0xe3
 1672 0452 0001     		.2byte	0x100
 1673 0454 00       		.byte	0
 1674 0455 09       		.uleb128 0x9
 1675 0456 D5000000 		.4byte	0xd5
 1676 045a 65040000 		.4byte	0x465
 1677 045e 0A       		.uleb128 0xa
ARM GAS  C:\Users\klabu\AppData\Local\Temp\ccgBioJt.s 			page 36


 1678 045f E3000000 		.4byte	0xe3
 1679 0463 63       		.byte	0x63
 1680 0464 00       		.byte	0
 1681 0465 09       		.uleb128 0x9
 1682 0466 D5000000 		.4byte	0xd5
 1683 046a 75040000 		.4byte	0x475
 1684 046e 0A       		.uleb128 0xa
 1685 046f E3000000 		.4byte	0xe3
 1686 0473 09       		.byte	0x9
 1687 0474 00       		.byte	0
 1688 0475 12       		.uleb128 0x12
 1689 0476 8F010000 		.4byte	.LASF85
 1690 047a 01       		.byte	0x1
 1691 047b B2       		.byte	0xb2
 1692 047c 09020000 		.4byte	0x209
 1693 0480 00000000 		.4byte	.LFB65
 1694 0484 18020000 		.4byte	.LFE65-.LFB65
 1695 0488 01       		.uleb128 0x1
 1696 0489 9C       		.byte	0x9c
 1697 048a 23050000 		.4byte	0x523
 1698 048e 0E       		.uleb128 0xe
 1699 048f 5E010000 		.4byte	.LASF64
 1700 0493 01       		.byte	0x1
 1701 0494 B5       		.byte	0xb5
 1702 0495 09020000 		.4byte	0x209
 1703 0499 03       		.uleb128 0x3
 1704 049a 91       		.byte	0x91
 1705 049b F87E     		.sleb128 -136
 1706 049d 0E       		.uleb128 0xe
 1707 049e 38000000 		.4byte	.LASF65
 1708 04a2 01       		.byte	0x1
 1709 04a3 BB       		.byte	0xbb
 1710 04a4 EA000000 		.4byte	0xea
 1711 04a8 02       		.uleb128 0x2
 1712 04a9 91       		.byte	0x91
 1713 04aa 68       		.sleb128 -24
 1714 04ab 0E       		.uleb128 0xe
 1715 04ac 9C030000 		.4byte	.LASF66
 1716 04b0 01       		.byte	0x1
 1717 04b1 BD       		.byte	0xbd
 1718 04b2 23050000 		.4byte	0x523
 1719 04b6 03       		.uleb128 0x3
 1720 04b7 91       		.byte	0x91
 1721 04b8 8C7E     		.sleb128 -244
 1722 04ba 0E       		.uleb128 0xe
 1723 04bb 81020000 		.4byte	.LASF67
 1724 04bf 01       		.byte	0x1
 1725 04c0 BF       		.byte	0xbf
 1726 04c1 F9010000 		.4byte	0x1f9
 1727 04c5 03       		.uleb128 0x3
 1728 04c6 91       		.byte	0x91
 1729 04c7 A07D     		.sleb128 -352
 1730 04c9 0E       		.uleb128 0xe
 1731 04ca FC030000 		.4byte	.LASF68
 1732 04ce 01       		.byte	0x1
 1733 04cf C2       		.byte	0xc2
 1734 04d0 C1010000 		.4byte	0x1c1
ARM GAS  C:\Users\klabu\AppData\Local\Temp\ccgBioJt.s 			page 37


 1735 04d4 03       		.uleb128 0x3
 1736 04d5 91       		.byte	0x91
 1737 04d6 EC7C     		.sleb128 -404
 1738 04d8 0E       		.uleb128 0xe
 1739 04d9 1A010000 		.4byte	.LASF34
 1740 04dd 01       		.byte	0x1
 1741 04de EE       		.byte	0xee
 1742 04df 41020000 		.4byte	0x241
 1743 04e3 03       		.uleb128 0x3
 1744 04e4 91       		.byte	0x91
 1745 04e5 D87C     		.sleb128 -424
 1746 04e7 0E       		.uleb128 0xe
 1747 04e8 69000000 		.4byte	.LASF69
 1748 04ec 01       		.byte	0x1
 1749 04ed EF       		.byte	0xef
 1750 04ee 41020000 		.4byte	0x241
 1751 04f2 03       		.uleb128 0x3
 1752 04f3 91       		.byte	0x91
 1753 04f4 C47C     		.sleb128 -444
 1754 04f6 10       		.uleb128 0x10
 1755 04f7 84000000 		.4byte	.LBB3
 1756 04fb 9E000000 		.4byte	.LBE3-.LBB3
 1757 04ff 0F       		.uleb128 0xf
 1758 0500 6900     		.ascii	"i\000"
 1759 0502 01       		.byte	0x1
 1760 0503 CE       		.byte	0xce
 1761 0504 97000000 		.4byte	0x97
 1762 0508 02       		.uleb128 0x2
 1763 0509 91       		.byte	0x91
 1764 050a 6F       		.sleb128 -17
 1765 050b 10       		.uleb128 0x10
 1766 050c CC000000 		.4byte	.LBB4
 1767 0510 34000000 		.4byte	.LBE4-.LBB4
 1768 0514 0F       		.uleb128 0xf
 1769 0515 6A00     		.ascii	"j\000"
 1770 0517 01       		.byte	0x1
 1771 0518 DA       		.byte	0xda
 1772 0519 97000000 		.4byte	0x97
 1773 051d 02       		.uleb128 0x2
 1774 051e 91       		.byte	0x91
 1775 051f 6E       		.sleb128 -18
 1776 0520 00       		.byte	0
 1777 0521 00       		.byte	0
 1778 0522 00       		.byte	0
 1779 0523 09       		.uleb128 0x9
 1780 0524 EA000000 		.4byte	0xea
 1781 0528 33050000 		.4byte	0x533
 1782 052c 0A       		.uleb128 0xa
 1783 052d E3000000 		.4byte	0xe3
 1784 0531 1A       		.byte	0x1a
 1785 0532 00       		.byte	0
 1786 0533 13       		.uleb128 0x13
 1787 0534 8F030000 		.4byte	.LASF70
 1788 0538 09       		.byte	0x9
 1789 0539 1207     		.2byte	0x712
 1790 053b 3F050000 		.4byte	0x53f
 1791 053f 14       		.uleb128 0x14
ARM GAS  C:\Users\klabu\AppData\Local\Temp\ccgBioJt.s 			page 38


 1792 0540 8C000000 		.4byte	0x8c
 1793 0544 15       		.uleb128 0x15
 1794 0545 E9010000 		.4byte	.LASF71
 1795 0549 07       		.byte	0x7
 1796 054a 11       		.byte	0x11
 1797 054b 4D030000 		.4byte	0x34d
 1798 054f 05       		.uleb128 0x5
 1799 0550 03       		.byte	0x3
 1800 0551 00000000 		.4byte	buffer_overflow
 1801 0555 15       		.uleb128 0x15
 1802 0556 2F010000 		.4byte	.LASF72
 1803 055a 07       		.byte	0x7
 1804 055b 22       		.byte	0x22
 1805 055c A3000000 		.4byte	0xa3
 1806 0560 05       		.uleb128 0x5
 1807 0561 03       		.byte	0x3
 1808 0562 00000000 		.4byte	dataPointsInStack
 1809 0566 15       		.uleb128 0x15
 1810 0567 67010000 		.4byte	.LASF73
 1811 056b 07       		.byte	0x7
 1812 056c 23       		.byte	0x23
 1813 056d A3000000 		.4byte	0xa3
 1814 0571 05       		.uleb128 0x5
 1815 0572 03       		.byte	0x3
 1816 0573 00000000 		.4byte	dataPointsInStackDesired
 1817 0577 09       		.uleb128 0x9
 1818 0578 51020000 		.4byte	0x251
 1819 057c 87050000 		.4byte	0x587
 1820 0580 0A       		.uleb128 0xa
 1821 0581 E3000000 		.4byte	0xe3
 1822 0585 95       		.byte	0x95
 1823 0586 00       		.byte	0
 1824 0587 15       		.uleb128 0x15
 1825 0588 06010000 		.4byte	.LASF74
 1826 058c 07       		.byte	0x7
 1827 058d 24       		.byte	0x24
 1828 058e 77050000 		.4byte	0x577
 1829 0592 05       		.uleb128 0x5
 1830 0593 03       		.byte	0x3
 1831 0594 00000000 		.4byte	data
 1832 0598 15       		.uleb128 0x15
 1833 0599 61020000 		.4byte	.LASF75
 1834 059d 08       		.byte	0x8
 1835 059e 20       		.byte	0x20
 1836 059f 97000000 		.4byte	0x97
 1837 05a3 05       		.uleb128 0x5
 1838 05a4 03       		.byte	0x3
 1839 05a5 00000000 		.4byte	modem_state
 1840 05a9 15       		.uleb128 0x15
 1841 05aa 4A020000 		.4byte	.LASF76
 1842 05ae 08       		.byte	0x8
 1843 05af 63       		.byte	0x63
 1844 05b0 BB000000 		.4byte	0xbb
 1845 05b4 05       		.uleb128 0x5
 1846 05b5 03       		.byte	0x3
 1847 05b6 00000000 		.4byte	modem_start_time_stamp
 1848 05ba 15       		.uleb128 0x15
ARM GAS  C:\Users\klabu\AppData\Local\Temp\ccgBioJt.s 			page 39


 1849 05bb F9010000 		.4byte	.LASF77
 1850 05bf 08       		.byte	0x8
 1851 05c0 64       		.byte	0x64
 1852 05c1 89020000 		.4byte	0x289
 1853 05c5 05       		.uleb128 0x5
 1854 05c6 03       		.byte	0x3
 1855 05c7 00000000 		.4byte	modem_info
 1856 05cb 15       		.uleb128 0x15
 1857 05cc AB020000 		.4byte	.LASF78
 1858 05d0 08       		.byte	0x8
 1859 05d1 65       		.byte	0x65
 1860 05d2 FD020000 		.4byte	0x2fd
 1861 05d6 05       		.uleb128 0x5
 1862 05d7 03       		.byte	0x3
 1863 05d8 00000000 		.4byte	modem_stats
 1864 05dc 15       		.uleb128 0x15
 1865 05dd E7030000 		.4byte	.LASF79
 1866 05e1 08       		.byte	0x8
 1867 05e2 66       		.byte	0x66
 1868 05e3 54030000 		.4byte	0x354
 1869 05e7 05       		.uleb128 0x5
 1870 05e8 03       		.byte	0x3
 1871 05e9 00000000 		.4byte	updatable_parameters
 1872 05ed 00       		.byte	0
 1873              		.section	.debug_abbrev,"",%progbits
 1874              	.Ldebug_abbrev0:
 1875 0000 01       		.uleb128 0x1
 1876 0001 11       		.uleb128 0x11
 1877 0002 01       		.byte	0x1
 1878 0003 25       		.uleb128 0x25
 1879 0004 0E       		.uleb128 0xe
 1880 0005 13       		.uleb128 0x13
 1881 0006 0B       		.uleb128 0xb
 1882 0007 03       		.uleb128 0x3
 1883 0008 0E       		.uleb128 0xe
 1884 0009 1B       		.uleb128 0x1b
 1885 000a 0E       		.uleb128 0xe
 1886 000b 55       		.uleb128 0x55
 1887 000c 17       		.uleb128 0x17
 1888 000d 11       		.uleb128 0x11
 1889 000e 01       		.uleb128 0x1
 1890 000f 10       		.uleb128 0x10
 1891 0010 17       		.uleb128 0x17
 1892 0011 00       		.byte	0
 1893 0012 00       		.byte	0
 1894 0013 02       		.uleb128 0x2
 1895 0014 24       		.uleb128 0x24
 1896 0015 00       		.byte	0
 1897 0016 0B       		.uleb128 0xb
 1898 0017 0B       		.uleb128 0xb
 1899 0018 3E       		.uleb128 0x3e
 1900 0019 0B       		.uleb128 0xb
 1901 001a 03       		.uleb128 0x3
 1902 001b 0E       		.uleb128 0xe
 1903 001c 00       		.byte	0
 1904 001d 00       		.byte	0
 1905 001e 03       		.uleb128 0x3
ARM GAS  C:\Users\klabu\AppData\Local\Temp\ccgBioJt.s 			page 40


 1906 001f 16       		.uleb128 0x16
 1907 0020 00       		.byte	0
 1908 0021 03       		.uleb128 0x3
 1909 0022 0E       		.uleb128 0xe
 1910 0023 3A       		.uleb128 0x3a
 1911 0024 0B       		.uleb128 0xb
 1912 0025 3B       		.uleb128 0x3b
 1913 0026 0B       		.uleb128 0xb
 1914 0027 49       		.uleb128 0x49
 1915 0028 13       		.uleb128 0x13
 1916 0029 00       		.byte	0
 1917 002a 00       		.byte	0
 1918 002b 04       		.uleb128 0x4
 1919 002c 24       		.uleb128 0x24
 1920 002d 00       		.byte	0
 1921 002e 0B       		.uleb128 0xb
 1922 002f 0B       		.uleb128 0xb
 1923 0030 3E       		.uleb128 0x3e
 1924 0031 0B       		.uleb128 0xb
 1925 0032 03       		.uleb128 0x3
 1926 0033 08       		.uleb128 0x8
 1927 0034 00       		.byte	0
 1928 0035 00       		.byte	0
 1929 0036 05       		.uleb128 0x5
 1930 0037 16       		.uleb128 0x16
 1931 0038 00       		.byte	0
 1932 0039 03       		.uleb128 0x3
 1933 003a 0E       		.uleb128 0xe
 1934 003b 3A       		.uleb128 0x3a
 1935 003c 0B       		.uleb128 0xb
 1936 003d 3B       		.uleb128 0x3b
 1937 003e 05       		.uleb128 0x5
 1938 003f 49       		.uleb128 0x49
 1939 0040 13       		.uleb128 0x13
 1940 0041 00       		.byte	0
 1941 0042 00       		.byte	0
 1942 0043 06       		.uleb128 0x6
 1943 0044 0F       		.uleb128 0xf
 1944 0045 00       		.byte	0
 1945 0046 0B       		.uleb128 0xb
 1946 0047 0B       		.uleb128 0xb
 1947 0048 49       		.uleb128 0x49
 1948 0049 13       		.uleb128 0x13
 1949 004a 00       		.byte	0
 1950 004b 00       		.byte	0
 1951 004c 07       		.uleb128 0x7
 1952 004d 13       		.uleb128 0x13
 1953 004e 01       		.byte	0x1
 1954 004f 0B       		.uleb128 0xb
 1955 0050 0B       		.uleb128 0xb
 1956 0051 3A       		.uleb128 0x3a
 1957 0052 0B       		.uleb128 0xb
 1958 0053 3B       		.uleb128 0x3b
 1959 0054 0B       		.uleb128 0xb
 1960 0055 01       		.uleb128 0x1
 1961 0056 13       		.uleb128 0x13
 1962 0057 00       		.byte	0
ARM GAS  C:\Users\klabu\AppData\Local\Temp\ccgBioJt.s 			page 41


 1963 0058 00       		.byte	0
 1964 0059 08       		.uleb128 0x8
 1965 005a 0D       		.uleb128 0xd
 1966 005b 00       		.byte	0
 1967 005c 03       		.uleb128 0x3
 1968 005d 0E       		.uleb128 0xe
 1969 005e 3A       		.uleb128 0x3a
 1970 005f 0B       		.uleb128 0xb
 1971 0060 3B       		.uleb128 0x3b
 1972 0061 0B       		.uleb128 0xb
 1973 0062 49       		.uleb128 0x49
 1974 0063 13       		.uleb128 0x13
 1975 0064 38       		.uleb128 0x38
 1976 0065 0B       		.uleb128 0xb
 1977 0066 00       		.byte	0
 1978 0067 00       		.byte	0
 1979 0068 09       		.uleb128 0x9
 1980 0069 01       		.uleb128 0x1
 1981 006a 01       		.byte	0x1
 1982 006b 49       		.uleb128 0x49
 1983 006c 13       		.uleb128 0x13
 1984 006d 01       		.uleb128 0x1
 1985 006e 13       		.uleb128 0x13
 1986 006f 00       		.byte	0
 1987 0070 00       		.byte	0
 1988 0071 0A       		.uleb128 0xa
 1989 0072 21       		.uleb128 0x21
 1990 0073 00       		.byte	0
 1991 0074 49       		.uleb128 0x49
 1992 0075 13       		.uleb128 0x13
 1993 0076 2F       		.uleb128 0x2f
 1994 0077 0B       		.uleb128 0xb
 1995 0078 00       		.byte	0
 1996 0079 00       		.byte	0
 1997 007a 0B       		.uleb128 0xb
 1998 007b 0D       		.uleb128 0xd
 1999 007c 00       		.byte	0
 2000 007d 03       		.uleb128 0x3
 2001 007e 08       		.uleb128 0x8
 2002 007f 3A       		.uleb128 0x3a
 2003 0080 0B       		.uleb128 0xb
 2004 0081 3B       		.uleb128 0x3b
 2005 0082 0B       		.uleb128 0xb
 2006 0083 49       		.uleb128 0x49
 2007 0084 13       		.uleb128 0x13
 2008 0085 38       		.uleb128 0x38
 2009 0086 0B       		.uleb128 0xb
 2010 0087 00       		.byte	0
 2011 0088 00       		.byte	0
 2012 0089 0C       		.uleb128 0xc
 2013 008a 2E       		.uleb128 0x2e
 2014 008b 01       		.byte	0x1
 2015 008c 3F       		.uleb128 0x3f
 2016 008d 19       		.uleb128 0x19
 2017 008e 03       		.uleb128 0x3
 2018 008f 0E       		.uleb128 0xe
 2019 0090 3A       		.uleb128 0x3a
ARM GAS  C:\Users\klabu\AppData\Local\Temp\ccgBioJt.s 			page 42


 2020 0091 0B       		.uleb128 0xb
 2021 0092 3B       		.uleb128 0x3b
 2022 0093 0B       		.uleb128 0xb
 2023 0094 27       		.uleb128 0x27
 2024 0095 19       		.uleb128 0x19
 2025 0096 49       		.uleb128 0x49
 2026 0097 13       		.uleb128 0x13
 2027 0098 11       		.uleb128 0x11
 2028 0099 01       		.uleb128 0x1
 2029 009a 12       		.uleb128 0x12
 2030 009b 06       		.uleb128 0x6
 2031 009c 40       		.uleb128 0x40
 2032 009d 18       		.uleb128 0x18
 2033 009e 9642     		.uleb128 0x2116
 2034 00a0 19       		.uleb128 0x19
 2035 00a1 01       		.uleb128 0x1
 2036 00a2 13       		.uleb128 0x13
 2037 00a3 00       		.byte	0
 2038 00a4 00       		.byte	0
 2039 00a5 0D       		.uleb128 0xd
 2040 00a6 05       		.uleb128 0x5
 2041 00a7 00       		.byte	0
 2042 00a8 03       		.uleb128 0x3
 2043 00a9 0E       		.uleb128 0xe
 2044 00aa 3A       		.uleb128 0x3a
 2045 00ab 0B       		.uleb128 0xb
 2046 00ac 3B       		.uleb128 0x3b
 2047 00ad 0B       		.uleb128 0xb
 2048 00ae 49       		.uleb128 0x49
 2049 00af 13       		.uleb128 0x13
 2050 00b0 02       		.uleb128 0x2
 2051 00b1 18       		.uleb128 0x18
 2052 00b2 00       		.byte	0
 2053 00b3 00       		.byte	0
 2054 00b4 0E       		.uleb128 0xe
 2055 00b5 34       		.uleb128 0x34
 2056 00b6 00       		.byte	0
 2057 00b7 03       		.uleb128 0x3
 2058 00b8 0E       		.uleb128 0xe
 2059 00b9 3A       		.uleb128 0x3a
 2060 00ba 0B       		.uleb128 0xb
 2061 00bb 3B       		.uleb128 0x3b
 2062 00bc 0B       		.uleb128 0xb
 2063 00bd 49       		.uleb128 0x49
 2064 00be 13       		.uleb128 0x13
 2065 00bf 02       		.uleb128 0x2
 2066 00c0 18       		.uleb128 0x18
 2067 00c1 00       		.byte	0
 2068 00c2 00       		.byte	0
 2069 00c3 0F       		.uleb128 0xf
 2070 00c4 34       		.uleb128 0x34
 2071 00c5 00       		.byte	0
 2072 00c6 03       		.uleb128 0x3
 2073 00c7 08       		.uleb128 0x8
 2074 00c8 3A       		.uleb128 0x3a
 2075 00c9 0B       		.uleb128 0xb
 2076 00ca 3B       		.uleb128 0x3b
ARM GAS  C:\Users\klabu\AppData\Local\Temp\ccgBioJt.s 			page 43


 2077 00cb 0B       		.uleb128 0xb
 2078 00cc 49       		.uleb128 0x49
 2079 00cd 13       		.uleb128 0x13
 2080 00ce 02       		.uleb128 0x2
 2081 00cf 18       		.uleb128 0x18
 2082 00d0 00       		.byte	0
 2083 00d1 00       		.byte	0
 2084 00d2 10       		.uleb128 0x10
 2085 00d3 0B       		.uleb128 0xb
 2086 00d4 01       		.byte	0x1
 2087 00d5 11       		.uleb128 0x11
 2088 00d6 01       		.uleb128 0x1
 2089 00d7 12       		.uleb128 0x12
 2090 00d8 06       		.uleb128 0x6
 2091 00d9 00       		.byte	0
 2092 00da 00       		.byte	0
 2093 00db 11       		.uleb128 0x11
 2094 00dc 21       		.uleb128 0x21
 2095 00dd 00       		.byte	0
 2096 00de 49       		.uleb128 0x49
 2097 00df 13       		.uleb128 0x13
 2098 00e0 2F       		.uleb128 0x2f
 2099 00e1 05       		.uleb128 0x5
 2100 00e2 00       		.byte	0
 2101 00e3 00       		.byte	0
 2102 00e4 12       		.uleb128 0x12
 2103 00e5 2E       		.uleb128 0x2e
 2104 00e6 01       		.byte	0x1
 2105 00e7 3F       		.uleb128 0x3f
 2106 00e8 19       		.uleb128 0x19
 2107 00e9 03       		.uleb128 0x3
 2108 00ea 0E       		.uleb128 0xe
 2109 00eb 3A       		.uleb128 0x3a
 2110 00ec 0B       		.uleb128 0xb
 2111 00ed 3B       		.uleb128 0x3b
 2112 00ee 0B       		.uleb128 0xb
 2113 00ef 49       		.uleb128 0x49
 2114 00f0 13       		.uleb128 0x13
 2115 00f1 11       		.uleb128 0x11
 2116 00f2 01       		.uleb128 0x1
 2117 00f3 12       		.uleb128 0x12
 2118 00f4 06       		.uleb128 0x6
 2119 00f5 40       		.uleb128 0x40
 2120 00f6 18       		.uleb128 0x18
 2121 00f7 9642     		.uleb128 0x2116
 2122 00f9 19       		.uleb128 0x19
 2123 00fa 01       		.uleb128 0x1
 2124 00fb 13       		.uleb128 0x13
 2125 00fc 00       		.byte	0
 2126 00fd 00       		.byte	0
 2127 00fe 13       		.uleb128 0x13
 2128 00ff 34       		.uleb128 0x34
 2129 0100 00       		.byte	0
 2130 0101 03       		.uleb128 0x3
 2131 0102 0E       		.uleb128 0xe
 2132 0103 3A       		.uleb128 0x3a
 2133 0104 0B       		.uleb128 0xb
ARM GAS  C:\Users\klabu\AppData\Local\Temp\ccgBioJt.s 			page 44


 2134 0105 3B       		.uleb128 0x3b
 2135 0106 05       		.uleb128 0x5
 2136 0107 49       		.uleb128 0x49
 2137 0108 13       		.uleb128 0x13
 2138 0109 3F       		.uleb128 0x3f
 2139 010a 19       		.uleb128 0x19
 2140 010b 3C       		.uleb128 0x3c
 2141 010c 19       		.uleb128 0x19
 2142 010d 00       		.byte	0
 2143 010e 00       		.byte	0
 2144 010f 14       		.uleb128 0x14
 2145 0110 35       		.uleb128 0x35
 2146 0111 00       		.byte	0
 2147 0112 49       		.uleb128 0x49
 2148 0113 13       		.uleb128 0x13
 2149 0114 00       		.byte	0
 2150 0115 00       		.byte	0
 2151 0116 15       		.uleb128 0x15
 2152 0117 34       		.uleb128 0x34
 2153 0118 00       		.byte	0
 2154 0119 03       		.uleb128 0x3
 2155 011a 0E       		.uleb128 0xe
 2156 011b 3A       		.uleb128 0x3a
 2157 011c 0B       		.uleb128 0xb
 2158 011d 3B       		.uleb128 0x3b
 2159 011e 0B       		.uleb128 0xb
 2160 011f 49       		.uleb128 0x49
 2161 0120 13       		.uleb128 0x13
 2162 0121 3F       		.uleb128 0x3f
 2163 0122 19       		.uleb128 0x19
 2164 0123 02       		.uleb128 0x2
 2165 0124 18       		.uleb128 0x18
 2166 0125 00       		.byte	0
 2167 0126 00       		.byte	0
 2168 0127 00       		.byte	0
 2169              		.section	.debug_aranges,"",%progbits
 2170 0000 24000000 		.4byte	0x24
 2171 0004 0200     		.2byte	0x2
 2172 0006 00000000 		.4byte	.Ldebug_info0
 2173 000a 04       		.byte	0x4
 2174 000b 00       		.byte	0
 2175 000c 0000     		.2byte	0
 2176 000e 0000     		.2byte	0
 2177 0010 00000000 		.4byte	.LFB64
 2178 0014 B2040000 		.4byte	.LFE64-.LFB64
 2179 0018 00000000 		.4byte	.LFB65
 2180 001c 18020000 		.4byte	.LFE65-.LFB65
 2181 0020 00000000 		.4byte	0
 2182 0024 00000000 		.4byte	0
 2183              		.section	.debug_ranges,"",%progbits
 2184              	.Ldebug_ranges0:
 2185 0000 00000000 		.4byte	.LFB64
 2186 0004 B2040000 		.4byte	.LFE64
 2187 0008 00000000 		.4byte	.LFB65
 2188 000c 18020000 		.4byte	.LFE65
 2189 0010 00000000 		.4byte	0
 2190 0014 00000000 		.4byte	0
ARM GAS  C:\Users\klabu\AppData\Local\Temp\ccgBioJt.s 			page 45


 2191              		.section	.debug_line,"",%progbits
 2192              	.Ldebug_line0:
 2193 0000 F0020000 		.section	.debug_str,"MS",%progbits,1
 2193      02007A01 
 2193      00000201 
 2193      FB0E0D00 
 2193      01010101 
 2194              	.LASF32:
 2195 0000 76616C69 		.ascii	"valid\000"
 2195      6400
 2196              	.LASF38:
 2197 0006 6D6F6465 		.ascii	"model_id\000"
 2197      6C5F6964 
 2197      00
 2198              	.LASF61:
 2199 000f 64656C61 		.ascii	"delay_str\000"
 2199      795F7374 
 2199      7200
 2200              	.LASF33:
 2201 0019 736F6E74 		.ascii	"sontek_t\000"
 2201      656B5F74 
 2201      00
 2202              	.LASF37:
 2203 0022 73696D5F 		.ascii	"sim_id\000"
 2203      696400
 2204              	.LASF29:
 2205 0029 76657273 		.ascii	"version\000"
 2205      696F6E00 
 2206              	.LASF23:
 2207 0031 6C616265 		.ascii	"labels\000"
 2207      6C7300
 2208              	.LASF65:
 2209 0038 736F6E74 		.ascii	"sontek_address\000"
 2209      656B5F61 
 2209      64647265 
 2209      737300
 2210              	.LASF35:
 2211 0047 74696D65 		.ascii	"timeStamp\000"
 2211      5374616D 
 2211      7000
 2212              	.LASF21:
 2213 0051 73697A65 		.ascii	"sizetype\000"
 2213      74797065 
 2213      00
 2214              	.LASF56:
 2215 005a 53444931 		.ascii	"SDI12_uart_buf\000"
 2215      325F7561 
 2215      72745F62 
 2215      756600
 2216              	.LASF69:
 2217 0069 76616C75 		.ascii	"value1\000"
 2217      653100
 2218              	.LASF80:
 2219 0070 474E5520 		.ascii	"GNU C11 5.4.1 20160609 (release) [ARM/embedded-5-br"
 2219      43313120 
 2219      352E342E 
 2219      31203230 
ARM GAS  C:\Users\klabu\AppData\Local\Temp\ccgBioJt.s 			page 46


 2219      31363036 
 2220 00a3 616E6368 		.ascii	"anch revision 237715] -mcpu=cortex-m3 -mthumb -g -O"
 2220      20726576 
 2220      6973696F 
 2220      6E203233 
 2220      37373135 
 2221 00d6 30202D66 		.ascii	"0 -ffunction-sections -ffat-lto-objects\000"
 2221      66756E63 
 2221      74696F6E 
 2221      2D736563 
 2221      74696F6E 
 2222              	.LASF62:
 2223 00fe 7074725F 		.ascii	"ptr_end\000"
 2223      656E6400 
 2224              	.LASF74:
 2225 0106 64617461 		.ascii	"data\000"
 2225      00
 2226              	.LASF43:
 2227 010b 65636E6F 		.ascii	"ecno\000"
 2227      00
 2228              	.LASF2:
 2229 0110 73686F72 		.ascii	"short int\000"
 2229      7420696E 
 2229      7400
 2230              	.LASF34:
 2231 011a 76616C75 		.ascii	"value\000"
 2231      6500
 2232              	.LASF14:
 2233 0120 75696E74 		.ascii	"uint16\000"
 2233      313600
 2234              	.LASF11:
 2235 0127 75696E74 		.ascii	"uint8_t\000"
 2235      385F7400 
 2236              	.LASF72:
 2237 012f 64617461 		.ascii	"dataPointsInStack\000"
 2237      506F696E 
 2237      7473496E 
 2237      53746163 
 2237      6B00
 2238              	.LASF13:
 2239 0141 75696E74 		.ascii	"uint8\000"
 2239      3800
 2240              	.LASF31:
 2241 0147 53444931 		.ascii	"SDI12_sensor\000"
 2241      325F7365 
 2241      6E736F72 
 2241      00
 2242              	.LASF42:
 2243 0154 72736370 		.ascii	"rscp\000"
 2243      00
 2244              	.LASF45:
 2245 0159 72737270 		.ascii	"rsrp\000"
 2245      00
 2246              	.LASF64:
 2247 015e 6D5F736F 		.ascii	"m_sontek\000"
 2247      6E74656B 
 2247      00
ARM GAS  C:\Users\klabu\AppData\Local\Temp\ccgBioJt.s 			page 47


 2248              	.LASF73:
 2249 0167 64617461 		.ascii	"dataPointsInStackDesired\000"
 2249      506F696E 
 2249      7473496E 
 2249      53746163 
 2249      6B446573 
 2250              	.LASF17:
 2251 0180 666C6F61 		.ascii	"float\000"
 2251      7400
 2252              	.LASF81:
 2253 0186 736F6E74 		.ascii	"sontek.c\000"
 2253      656B2E63 
 2253      00
 2254              	.LASF85:
 2255 018f 736F6E74 		.ascii	"sontek_take_reading\000"
 2255      656B5F74 
 2255      616B655F 
 2255      72656164 
 2255      696E6700 
 2256              	.LASF16:
 2257 01a3 696E7433 		.ascii	"int32\000"
 2257      3200
 2258              	.LASF8:
 2259 01a9 6C6F6E67 		.ascii	"long long int\000"
 2259      206C6F6E 
 2259      6720696E 
 2259      7400
 2260              	.LASF9:
 2261 01b7 6C6F6E67 		.ascii	"long long unsigned int\000"
 2261      206C6F6E 
 2261      6720756E 
 2261      7369676E 
 2261      65642069 
 2262              	.LASF19:
 2263 01ce 63686172 		.ascii	"char\000"
 2263      00
 2264              	.LASF40:
 2265 01d3 6D6F6465 		.ascii	"modem_info_t\000"
 2265      6D5F696E 
 2265      666F5F74 
 2265      00
 2266              	.LASF6:
 2267 01e0 6C6F6E67 		.ascii	"long int\000"
 2267      20696E74 
 2267      00
 2268              	.LASF71:
 2269 01e9 62756666 		.ascii	"buffer_overflow\000"
 2269      65725F6F 
 2269      76657266 
 2269      6C6F7700 
 2270              	.LASF77:
 2271 01f9 6D6F6465 		.ascii	"modem_info\000"
 2271      6D5F696E 
 2271      666F00
 2272              	.LASF24:
 2273 0204 76616C75 		.ascii	"values\000"
 2273      657300
ARM GAS  C:\Users\klabu\AppData\Local\Temp\ccgBioJt.s 			page 48


 2274              	.LASF4:
 2275 020b 5F5F7569 		.ascii	"__uint8_t\000"
 2275      6E74385F 
 2275      7400
 2276              	.LASF51:
 2277 0215 6D656173 		.ascii	"measure_time\000"
 2277      7572655F 
 2277      74696D65 
 2277      00
 2278              	.LASF20:
 2279 0222 6C6F6E67 		.ascii	"long double\000"
 2279      20646F75 
 2279      626C6500 
 2280              	.LASF1:
 2281 022e 756E7369 		.ascii	"unsigned char\000"
 2281      676E6564 
 2281      20636861 
 2281      7200
 2282              	.LASF57:
 2283 023c 53444931 		.ascii	"SDI12_buf_idx\000"
 2283      325F6275 
 2283      665F6964 
 2283      7800
 2284              	.LASF76:
 2285 024a 6D6F6465 		.ascii	"modem_start_time_stamp\000"
 2285      6D5F7374 
 2285      6172745F 
 2285      74696D65 
 2285      5F737461 
 2286              	.LASF75:
 2287 0261 6D6F6465 		.ascii	"modem_state\000"
 2287      6D5F7374 
 2287      61746500 
 2288              	.LASF0:
 2289 026d 7369676E 		.ascii	"signed char\000"
 2289      65642063 
 2289      68617200 
 2290              	.LASF22:
 2291 0279 61646472 		.ascii	"address\000"
 2291      65737300 
 2292              	.LASF67:
 2293 0281 736F6E74 		.ascii	"sontek_values\000"
 2293      656B5F76 
 2293      616C7565 
 2293      7300
 2294              	.LASF36:
 2295 028f 6B65795F 		.ascii	"key_value_t\000"
 2295      76616C75 
 2295      655F7400 
 2296              	.LASF41:
 2297 029b 72786C65 		.ascii	"rxlev\000"
 2297      7600
 2298              	.LASF52:
 2299 02a1 73796E63 		.ascii	"sync_time\000"
 2299      5F74696D 
 2299      6500
 2300              	.LASF78:
ARM GAS  C:\Users\klabu\AppData\Local\Temp\ccgBioJt.s 			page 49


 2301 02ab 6D6F6465 		.ascii	"modem_stats\000"
 2301      6D5F7374 
 2301      61747300 
 2302              	.LASF55:
 2303 02b7 75706461 		.ascii	"updatable_parameters_t\000"
 2303      7461626C 
 2303      655F7061 
 2303      72616D65 
 2303      74657273 
 2304              	.LASF50:
 2305 02ce 73696D5F 		.ascii	"sim_type\000"
 2305      74797065 
 2305      00
 2306              	.LASF3:
 2307 02d7 73686F72 		.ascii	"short unsigned int\000"
 2307      7420756E 
 2307      7369676E 
 2307      65642069 
 2307      6E7400
 2308              	.LASF46:
 2309 02ea 74696D65 		.ascii	"time_to_network_connect\000"
 2309      5F746F5F 
 2309      6E657477 
 2309      6F726B5F 
 2309      636F6E6E 
 2310              	.LASF83:
 2311 0302 53444931 		.ascii	"SDI12_sontek_take_measurement\000"
 2311      325F736F 
 2311      6E74656B 
 2311      5F74616B 
 2311      655F6D65 
 2312              	.LASF47:
 2313 0320 74696D65 		.ascii	"time_to_acquire_ip\000"
 2313      5F746F5F 
 2313      61637175 
 2313      6972655F 
 2313      697000
 2314              	.LASF39:
 2315 0333 696D6569 		.ascii	"imei\000"
 2315      00
 2316              	.LASF12:
 2317 0338 696E7433 		.ascii	"int32_t\000"
 2317      325F7400 
 2318              	.LASF30:
 2319 0340 73657269 		.ascii	"serial\000"
 2319      616C00
 2320              	.LASF48:
 2321 0347 6D6F6465 		.ascii	"modem_stats_t\000"
 2321      6D5F7374 
 2321      6174735F 
 2321      7400
 2322              	.LASF54:
 2323 0355 5F426F6F 		.ascii	"_Bool\000"
 2323      6C00
 2324              	.LASF44:
 2325 035b 72737271 		.ascii	"rsrq\000"
 2325      00
ARM GAS  C:\Users\klabu\AppData\Local\Temp\ccgBioJt.s 			page 50


 2326              	.LASF60:
 2327 0360 76616C75 		.ascii	"value_str\000"
 2327      655F7374 
 2327      7200
 2328              	.LASF15:
 2329 036a 75696E74 		.ascii	"uint32\000"
 2329      333200
 2330              	.LASF7:
 2331 0371 6C6F6E67 		.ascii	"long unsigned int\000"
 2331      20756E73 
 2331      69676E65 
 2331      6420696E 
 2331      7400
 2332              	.LASF63:
 2333 0383 7369676E 		.ascii	"sign\000"
 2333      00
 2334              	.LASF18:
 2335 0388 646F7562 		.ascii	"double\000"
 2335      6C6500
 2336              	.LASF70:
 2337 038f 49544D5F 		.ascii	"ITM_RxBuffer\000"
 2337      52784275 
 2337      66666572 
 2337      00
 2338              	.LASF66:
 2339 039c 736F6E74 		.ascii	"sontek_labels\000"
 2339      656B5F6C 
 2339      6162656C 
 2339      7300
 2340              	.LASF82:
 2341 03aa 433A5C6E 		.ascii	"C:\\notoriOS\\notoriOS.cydsn\000"
 2341      6F746F72 
 2341      694F535C 
 2341      6E6F746F 
 2341      72694F53 
 2342              	.LASF53:
 2343 03c5 64656275 		.ascii	"debug_level\000"
 2343      675F6C65 
 2343      76656C00 
 2344              	.LASF5:
 2345 03d1 5F5F696E 		.ascii	"__int32_t\000"
 2345      7433325F 
 2345      7400
 2346              	.LASF28:
 2347 03db 6D6F6465 		.ascii	"model\000"
 2347      6C00
 2348              	.LASF25:
 2349 03e1 6E766172 		.ascii	"nvars\000"
 2349      7300
 2350              	.LASF79:
 2351 03e7 75706461 		.ascii	"updatable_parameters\000"
 2351      7461626C 
 2351      655F7061 
 2351      72616D65 
 2351      74657273 
 2352              	.LASF68:
 2353 03fc 736F6E74 		.ascii	"sontek\000"
ARM GAS  C:\Users\klabu\AppData\Local\Temp\ccgBioJt.s 			page 51


 2353      656B00
 2354              	.LASF10:
 2355 0403 756E7369 		.ascii	"unsigned int\000"
 2355      676E6564 
 2355      20696E74 
 2355      00
 2356              	.LASF26:
 2357 0410 765F5344 		.ascii	"v_SDI12\000"
 2357      49313200 
 2358              	.LASF27:
 2359 0418 76656E64 		.ascii	"vendor\000"
 2359      6F7200
 2360              	.LASF49:
 2361 041f 6E6F6465 		.ascii	"node_type\000"
 2361      5F747970 
 2361      6500
 2362              	.LASF59:
 2363 0429 636F6D6D 		.ascii	"command\000"
 2363      616E6400 
 2364              	.LASF84:
 2365 0431 73656E73 		.ascii	"sensor\000"
 2365      6F7200
 2366              	.LASF58:
 2367 0438 6D735F64 		.ascii	"ms_delay\000"
 2367      656C6179 
 2367      00
 2368              		.ident	"GCC: (GNU Tools for ARM Embedded Processors) 5.4.1 20160609 (release) [ARM/embedded-5-bran
