ARM GAS  C:\Users\klabu\AppData\Local\Temp\cc4lE0vh.s 			page 1


   1              		.syntax unified
   2              		.cpu cortex-m3
   3              		.fpu softvfp
   4              		.eabi_attribute 20, 1
   5              		.eabi_attribute 21, 1
   6              		.eabi_attribute 23, 3
   7              		.eabi_attribute 24, 1
   8              		.eabi_attribute 25, 1
   9              		.eabi_attribute 26, 1
  10              		.eabi_attribute 30, 6
  11              		.eabi_attribute 34, 1
  12              		.eabi_attribute 18, 4
  13              		.thumb
  14              		.syntax unified
  15              		.file	"sontek.c"
  16              		.text
  17              	.Ltext0:
  18              		.cfi_sections	.debug_frame
  19              		.comm	buffer_overflow,1,1
  20              		.comm	dataPointsInStack,2,2
  21              		.comm	dataPointsInStackDesired,2,2
  22              		.comm	data,6600,4
  23              		.comm	modem_state,1,1
  24              		.comm	modem_start_time_stamp,4,4
  25              		.comm	modem_info,60,4
  26              		.comm	modem_stats,32,4
  27              		.comm	updatable_parameters,5,4
  28              		.syntax unified
  29              		.global _printf_float
  30              		.section	.rodata
  31              		.align	2
  32              	.LC53:
  33 0000 3000     		.ascii	"0\000"
  34              		.thumb
  35              		.syntax unified
  36 0002 0000     		.align	2
  37              	.LC0:
  38 0004 74656D70 		.ascii	"temp\000"
  38      00
  39 0009 000000   		.align	2
  40              	.LC1:
  41 000c 70726573 		.ascii	"pressure\000"
  41      73757265 
  41      00
  42 0015 000000   		.align	2
  43              	.LC2:
  44 0018 73746167 		.ascii	"stage\000"
  44      6500
  45 001e 0000     		.align	2
  46              	.LC3:
  47 0020 656E645F 		.ascii	"end_cell\000"
  47      63656C6C 
  47      00
  48 0029 000000   		.align	2
  49              	.LC4:
  50 002c 765F6265 		.ascii	"v_beam1\000"
  50      616D3100 
ARM GAS  C:\Users\klabu\AppData\Local\Temp\cc4lE0vh.s 			page 2


  51              		.align	2
  52              	.LC5:
  53 0034 765F6265 		.ascii	"v_beam2\000"
  53      616D3200 
  54              		.align	2
  55              	.LC6:
  56 003c 765F6231 		.ascii	"v_b1_b2_mag\000"
  56      5F62325F 
  56      6D616700 
  57              		.align	2
  58              	.LC7:
  59 0048 6176675F 		.ascii	"avg_SNR_b1_b2\000"
  59      534E525F 
  59      62315F62 
  59      3200
  60 0056 0000     		.align	2
  61              	.LC8:
  62 0058 5100     		.ascii	"Q\000"
  63 005a 0000     		.align	2
  64              	.LC9:
  65 005c 765F6231 		.ascii	"v_b1_c1\000"
  65      5F633100 
  66              		.align	2
  67              	.LC10:
  68 0064 765F6232 		.ascii	"v_b2_c1\000"
  68      5F633100 
  69              		.align	2
  70              	.LC11:
  71 006c 765F6231 		.ascii	"v_b1_c2\000"
  71      5F633200 
  72              		.align	2
  73              	.LC12:
  74 0074 765F6232 		.ascii	"v_b2_c2\000"
  74      5F633200 
  75              		.align	2
  76              	.LC13:
  77 007c 765F6231 		.ascii	"v_b1_c3\000"
  77      5F633300 
  78              		.align	2
  79              	.LC14:
  80 0084 765F6232 		.ascii	"v_b2_c3\000"
  80      5F633300 
  81              		.align	2
  82              	.LC15:
  83 008c 6176675F 		.ascii	"avg_amp1\000"
  83      616D7031 
  83      00
  84 0095 000000   		.align	2
  85              	.LC16:
  86 0098 6176675F 		.ascii	"avg_amp2\000"
  86      616D7032 
  86      00
  87 00a1 000000   		.align	2
  88              	.LC17:
  89 00a4 6176675F 		.ascii	"avg_amp3\000"
  89      616D7033 
  89      00
ARM GAS  C:\Users\klabu\AppData\Local\Temp\cc4lE0vh.s 			page 3


  90 00ad 000000   		.align	2
  91              	.LC18:
  92 00b0 6176675F 		.ascii	"avg_SNR1\000"
  92      534E5231 
  92      00
  93 00b9 000000   		.align	2
  94              	.LC19:
  95 00bc 6176675F 		.ascii	"avg_SNR2\000"
  95      534E5232 
  95      00
  96 00c5 000000   		.align	2
  97              	.LC20:
  98 00c8 6176675F 		.ascii	"avg_SNR3v_b1_c4\000"
  98      534E5233 
  98      765F6231 
  98      5F633400 
  99              		.align	2
 100              	.LC21:
 101 00d8 765F6232 		.ascii	"v_b2_c4\000"
 101      5F633400 
 102              		.align	2
 103              	.LC22:
 104 00e0 765F6231 		.ascii	"v_b1_c5\000"
 104      5F633500 
 105              		.align	2
 106              	.LC23:
 107 00e8 765F6232 		.ascii	"v_b2_c5\000"
 107      5F633500 
 108              		.align	2
 109              	.LC24:
 110 00f0 765F6231 		.ascii	"v_b1_c6\000"
 110      5F633600 
 111              		.align	2
 112              	.LC25:
 113 00f8 765F6232 		.ascii	"v_b2_c6\000"
 113      5F633600 
 114              		.align	2
 115              	.LC26:
 116 0100 6176675F 		.ascii	"avg_amp4\000"
 116      616D7034 
 116      00
 117 0109 000000   		.align	2
 118              	.LC27:
 119 010c 6176675F 		.ascii	"avg_amp5\000"
 119      616D7035 
 119      00
 120 0115 000000   		.align	2
 121              	.LC28:
 122 0118 6176675F 		.ascii	"avg_amp6\000"
 122      616D7036 
 122      00
 123 0121 000000   		.align	2
 124              	.LC29:
 125 0124 6176675F 		.ascii	"avg_SNR4\000"
 125      534E5234 
 125      00
 126 012d 000000   		.align	2
ARM GAS  C:\Users\klabu\AppData\Local\Temp\cc4lE0vh.s 			page 4


 127              	.LC30:
 128 0130 6176675F 		.ascii	"avg_SNR5\000"
 128      534E5235 
 128      00
 129 0139 000000   		.align	2
 130              	.LC31:
 131 013c 6176675F 		.ascii	"avg_SNR6v_b1_c7\000"
 131      534E5236 
 131      765F6231 
 131      5F633700 
 132              		.align	2
 133              	.LC32:
 134 014c 765F6232 		.ascii	"v_b2_c7\000"
 134      5F633700 
 135              		.align	2
 136              	.LC33:
 137 0154 765F6231 		.ascii	"v_b1_c8\000"
 137      5F633800 
 138              		.align	2
 139              	.LC34:
 140 015c 765F6232 		.ascii	"v_b2_c8\000"
 140      5F633800 
 141              		.align	2
 142              	.LC35:
 143 0164 765F6231 		.ascii	"v_b1_c9\000"
 143      5F633900 
 144              		.align	2
 145              	.LC36:
 146 016c 765F6232 		.ascii	"v_b2_c9\000"
 146      5F633900 
 147              		.align	2
 148              	.LC37:
 149 0174 6176675F 		.ascii	"avg_amp7\000"
 149      616D7037 
 149      00
 150 017d 000000   		.align	2
 151              	.LC38:
 152 0180 6176675F 		.ascii	"avg_amp8\000"
 152      616D7038 
 152      00
 153 0189 000000   		.align	2
 154              	.LC39:
 155 018c 6176675F 		.ascii	"avg_amp9\000"
 155      616D7039 
 155      00
 156 0195 000000   		.align	2
 157              	.LC40:
 158 0198 6176675F 		.ascii	"avg_SNR7\000"
 158      534E5237 
 158      00
 159 01a1 000000   		.align	2
 160              	.LC41:
 161 01a4 6176675F 		.ascii	"avg_SNR8\000"
 161      534E5238 
 161      00
 162 01ad 000000   		.align	2
 163              	.LC42:
ARM GAS  C:\Users\klabu\AppData\Local\Temp\cc4lE0vh.s 			page 5


 164 01b0 6176675F 		.ascii	"avg_SNR9\000"
 164      534E5239 
 164      00
 165 01b9 000000   		.align	2
 166              	.LC43:
 167 01bc 765F6231 		.ascii	"v_b1_c10\000"
 167      5F633130 
 167      00
 168 01c5 000000   		.align	2
 169              	.LC44:
 170 01c8 765F6232 		.ascii	"v_b2_c10\000"
 170      5F633130 
 170      00
 171 01d1 000000   		.align	2
 172              	.LC45:
 173 01d4 6176675F 		.ascii	"avg_amp10\000"
 173      616D7031 
 173      3000
 174 01de 0000     		.align	2
 175              	.LC46:
 176 01e0 6176675F 		.ascii	"avg_SNR10v_bat\000"
 176      534E5231 
 176      30765F62 
 176      617400
 177 01ef 00       		.align	2
 178              	.LC47:
 179 01f0 4D425F66 		.ascii	"MB_free\000"
 179      72656500 
 180              		.align	2
 181              	.LC48:
 182 01f8 746F7461 		.ascii	"total_vol\000"
 182      6C5F766F 
 182      6C00
 183 0202 0000     		.align	2
 184              	.LC49:
 185 0204 69636500 		.ascii	"ice\000"
 186              		.align	2
 187              	.LC52:
 188 0208 04000000 		.word	.LC0
 189 020c 0C000000 		.word	.LC1
 190 0210 18000000 		.word	.LC2
 191 0214 20000000 		.word	.LC3
 192 0218 2C000000 		.word	.LC4
 193 021c 34000000 		.word	.LC5
 194 0220 3C000000 		.word	.LC6
 195 0224 48000000 		.word	.LC7
 196 0228 58000000 		.word	.LC8
 197 022c 5C000000 		.word	.LC9
 198 0230 64000000 		.word	.LC10
 199 0234 6C000000 		.word	.LC11
 200 0238 74000000 		.word	.LC12
 201 023c 7C000000 		.word	.LC13
 202 0240 84000000 		.word	.LC14
 203 0244 8C000000 		.word	.LC15
 204 0248 98000000 		.word	.LC16
 205 024c A4000000 		.word	.LC17
 206 0250 B0000000 		.word	.LC18
ARM GAS  C:\Users\klabu\AppData\Local\Temp\cc4lE0vh.s 			page 6


 207 0254 BC000000 		.word	.LC19
 208 0258 C8000000 		.word	.LC20
 209 025c D8000000 		.word	.LC21
 210 0260 E0000000 		.word	.LC22
 211 0264 E8000000 		.word	.LC23
 212 0268 F0000000 		.word	.LC24
 213 026c F8000000 		.word	.LC25
 214 0270 00010000 		.word	.LC26
 215 0274 0C010000 		.word	.LC27
 216 0278 18010000 		.word	.LC28
 217 027c 24010000 		.word	.LC29
 218 0280 30010000 		.word	.LC30
 219 0284 3C010000 		.word	.LC31
 220 0288 4C010000 		.word	.LC32
 221 028c 54010000 		.word	.LC33
 222 0290 5C010000 		.word	.LC34
 223 0294 64010000 		.word	.LC35
 224 0298 6C010000 		.word	.LC36
 225 029c 74010000 		.word	.LC37
 226 02a0 80010000 		.word	.LC38
 227 02a4 8C010000 		.word	.LC39
 228 02a8 98010000 		.word	.LC40
 229 02ac A4010000 		.word	.LC41
 230 02b0 B0010000 		.word	.LC42
 231 02b4 BC010000 		.word	.LC43
 232 02b8 C8010000 		.word	.LC44
 233 02bc D4010000 		.word	.LC45
 234 02c0 E0010000 		.word	.LC46
 235 02c4 F0010000 		.word	.LC47
 236 02c8 58000000 		.word	.LC8
 237 02cc F8010000 		.word	.LC48
 238 02d0 04020000 		.word	.LC49
 239              		.align	2
 240              	.LC51:
 241 02d4 000080BF 		.word	-1082130432
 242 02d8 000000C0 		.word	-1073741824
 243 02dc 000040C0 		.word	-1069547520
 244 02e0 000080C0 		.word	-1065353216
 245 02e4 0000A0C0 		.word	-1063256064
 246 02e8 0000C0C0 		.word	-1061158912
 247 02ec 0000E0C0 		.word	-1059061760
 248 02f0 000000C1 		.word	-1056964608
 249 02f4 000010C1 		.word	-1055916032
 250 02f8 000020C1 		.word	-1054867456
 251 02fc 000030C1 		.word	-1053818880
 252 0300 000040C1 		.word	-1052770304
 253 0304 000050C1 		.word	-1051721728
 254 0308 000060C1 		.word	-1050673152
 255 030c 000070C1 		.word	-1049624576
 256 0310 000080C1 		.word	-1048576000
 257 0314 000088C1 		.word	-1048051712
 258 0318 000090C1 		.word	-1047527424
 259 031c 000098C1 		.word	-1047003136
 260 0320 0000A0C1 		.word	-1046478848
 261 0324 0000A8C1 		.word	-1045954560
 262 0328 0000B0C1 		.word	-1045430272
 263 032c 0000B8C1 		.word	-1044905984
ARM GAS  C:\Users\klabu\AppData\Local\Temp\cc4lE0vh.s 			page 7


 264 0330 0000C0C1 		.word	-1044381696
 265 0334 0000C8C1 		.word	-1043857408
 266 0338 0000D0C1 		.word	-1043333120
 267 033c 0000D8C1 		.word	-1042808832
 268 0340 0000E0C1 		.word	-1042284544
 269 0344 0000E8C1 		.word	-1041760256
 270 0348 0000F0C1 		.word	-1041235968
 271 034c 0000F8C1 		.word	-1040711680
 272 0350 000000C2 		.word	-1040187392
 273 0354 000004C2 		.word	-1039925248
 274 0358 000008C2 		.word	-1039663104
 275 035c 00000CC2 		.word	-1039400960
 276 0360 000010C2 		.word	-1039138816
 277 0364 000014C2 		.word	-1038876672
 278 0368 000018C2 		.word	-1038614528
 279 036c 00001CC2 		.word	-1038352384
 280 0370 000020C2 		.word	-1038090240
 281 0374 000024C2 		.word	-1037828096
 282 0378 000028C2 		.word	-1037565952
 283 037c 00002CC2 		.word	-1037303808
 284 0380 000030C2 		.word	-1037041664
 285 0384 000034C2 		.word	-1036779520
 286 0388 000038C2 		.word	-1036517376
 287 038c 00003CC2 		.word	-1036255232
 288 0390 000040C2 		.word	-1035993088
 289 0394 000044C2 		.word	-1035730944
 290 0398 000048C2 		.word	-1035468800
 291 039c 00004C42 		.word	1112276992
 292 03a0 000050C2 		.word	-1034944512
 293 03a4 000054C2 		.word	-1034682368
 294 03a8 000058C2 		.word	-1034420224
 295              		.section	.text.sontek_take_reading,"ax",%progbits
 296              		.align	2
 297              		.global	sontek_take_reading
 298              		.thumb
 299              		.thumb_func
 300              		.type	sontek_take_reading, %function
 301              	sontek_take_reading:
 302              	.LFB64:
 303              		.file 1 "sontek.c"
   1:sontek.c      **** #include "sontek.h"
   2:sontek.c      **** #include "debug.h" //for strextract
   3:sontek.c      **** 
   4:sontek.c      **** //Powers on, takes readings, powers off sontek sensor
   5:sontek.c      **** sontek_t sontek_take_reading(){
 304              		.loc 1 5 0
 305              		.cfi_startproc
 306              		@ args = 0, pretend = 0, frame = 712
 307              		@ frame_needed = 1, uses_anonymous_args = 0
 308 0000 80B5     		push	{r7, lr}
 309              		.cfi_def_cfa_offset 8
 310              		.cfi_offset 7, -8
 311              		.cfi_offset 14, -4
 312 0002 ADF5327D 		sub	sp, sp, #712
 313              		.cfi_def_cfa_offset 720
 314 0006 00AF     		add	r7, sp, #0
 315              		.cfi_def_cfa_register 7
ARM GAS  C:\Users\klabu\AppData\Local\Temp\cc4lE0vh.s 			page 8


 316 0008 3B1D     		adds	r3, r7, #4
 317 000a 1860     		str	r0, [r3]
   6:sontek.c      ****      
   7:sontek.c      ****     //-------------------- For default mode -----------------------------------
   8:sontek.c      ****     //    //parameter names
   9:sontek.c      ****     //    char* sontek_labels[] = {"Q","stage","v_mean","total_vol","depth","v_index","x_area","T",
  10:sontek.c      ****     //    //initialize values to be able to tell if/what parameters are not returned
  11:sontek.c      ****     //    float sontek_values[] = {-1.0, -2.0, -3.0, -4.0, -5.0, -6.0, -7.0, -8.0, -9.0, -10.0, -11
  12:sontek.c      ****      
  13:sontek.c      ****     //-------------------- For beam profile mode -----------------------------------
  14:sontek.c      ****     //parameter names line split by command used to read and for readability
  15:sontek.c      ****     char* sontek_labels[] = {"temp","pressure","stage","end_cell",\
 318              		.loc 1 15 0
 319 000c C54A     		ldr	r2, .L70
 320 000e 07F5FC73 		add	r3, r7, #504
 321 0012 1146     		mov	r1, r2
 322 0014 CC22     		movs	r2, #204
 323 0016 1846     		mov	r0, r3
 324 0018 FFF7FEFF 		bl	memcpy
  16:sontek.c      ****         "v_beam1","v_beam2","v_b1_b2_mag","avg_SNR_b1_b2","Q",\
  17:sontek.c      ****         "v_b1_c1","v_b2_c1","v_b1_c2","v_b2_c2","v_b1_c3","v_b2_c3",\
  18:sontek.c      ****         "avg_amp1","avg_amp2","avg_amp3","avg_SNR1","avg_SNR2","avg_SNR3"\
  19:sontek.c      ****         "v_b1_c4","v_b2_c4","v_b1_c5","v_b2_c5","v_b1_c6","v_b2_c6",\
  20:sontek.c      ****         "avg_amp4","avg_amp5","avg_amp6","avg_SNR4","avg_SNR5","avg_SNR6"\
  21:sontek.c      ****         "v_b1_c7","v_b2_c7","v_b1_c8","v_b2_c8","v_b1_c9","v_b2_c9",\
  22:sontek.c      ****         "avg_amp7","avg_amp8","avg_amp9","avg_SNR7","avg_SNR8","avg_SNR9",\
  23:sontek.c      ****         "v_b1_c10","v_b2_c10","avg_amp10","avg_SNR10"\
  24:sontek.c      ****         "v_bat","MB_free","Q","total_vol","ice"};
  25:sontek.c      ****     //initialize values to be able to tell if/what parameters are not returned
  26:sontek.c      ****     float sontek_values[] = {-1.0, -2.0, -3.0, -4.0,\
 325              		.loc 1 26 0
 326 001c 07F59073 		add	r3, r7, #288
 327 0020 C14A     		ldr	r2, .L70+4
 328 0022 1846     		mov	r0, r3
 329 0024 1146     		mov	r1, r2
 330 0026 D823     		movs	r3, #216
 331 0028 1A46     		mov	r2, r3
 332 002a FFF7FEFF 		bl	memcpy
  27:sontek.c      ****         -5.0, -6.0, -7.0, -8.0, -9.0,\
  28:sontek.c      ****         -10.0, -11.0, -12.0, -13.0, -14.0, -15.0,\
  29:sontek.c      ****         -16.0, -17.0, -18.0, -19.0, -20.0, -21.0,\
  30:sontek.c      ****         -22.0, -23.0, -24.0, -25.0, -26.0, -27.0,\
  31:sontek.c      ****         -28.0, -29.0, -30.0, -31.0, -32.0, -33.0,\
  32:sontek.c      ****         -34.0, -35.0, -36.0, -37.0, -38.0, -39.0,\
  33:sontek.c      ****         -40.0, -41.0, -42.0, -43.0, -44.0, -45.0,\
  34:sontek.c      ****         -46.0, -47.0, -48.0, -49.0,\
  35:sontek.c      ****         -50.0, 51.0, -52.0, -53.0, -54.0};
  36:sontek.c      ****        //create SDI12_sensor struct of sontek specific values. Not declaring labels as struct sonte
  37:sontek.c      ****         SDI12_sensor sontek = {
 333              		.loc 1 37 0
 334 002e 07F1EC03 		add	r3, r7, #236
 335 0032 1846     		mov	r0, r3
 336 0034 3423     		movs	r3, #52
 337 0036 1A46     		mov	r2, r3
 338 0038 0021     		movs	r1, #0
 339 003a FFF7FEFF 		bl	memset
 340 003e 07F1EC03 		add	r3, r7, #236
ARM GAS  C:\Users\klabu\AppData\Local\Temp\cc4lE0vh.s 			page 9


 341 0042 BA4A     		ldr	r2, .L70+8
 342 0044 1A60     		str	r2, [r3]
 343 0046 07F1EC03 		add	r3, r7, #236
 344 004a 07F59072 		add	r2, r7, #288
 345 004e 9A60     		str	r2, [r3, #8]
 346 0050 07F1EC03 		add	r3, r7, #236
 347 0054 3622     		movs	r2, #54
 348 0056 1A73     		strb	r2, [r3, #12]
  38:sontek.c      ****             .nvars = SONTEK_NVARS,
  39:sontek.c      ****             .address = SONTEK_ADDRESS,  //SDI12 address of sensor   
  40:sontek.c      ****             .values = sontek_values //use same initial array as sontek
  41:sontek.c      ****         };
  42:sontek.c      **** 
  43:sontek.c      ****     // sontek_t is a new data type we defined in sontek.h. We then use that data type to define a s
  44:sontek.c      ****     sontek_t m_sontek = {
 349              		.loc 1 44 0
 350 0058 07F10803 		add	r3, r7, #8
 351 005c 3622     		movs	r2, #54
 352 005e 1A70     		strb	r2, [r3]
 353 0060 07F10803 		add	r3, r7, #8
 354 0064 0022     		movs	r2, #0
 355 0066 5A70     		strb	r2, [r3, #1]
 356 0068 07F10803 		add	r3, r7, #8
 357 006c 07F59072 		add	r2, r7, #288
 358 0070 5A60     		str	r2, [r3, #4]
 359 0072 07F10803 		add	r3, r7, #8
 360 0076 07F5FC72 		add	r2, r7, #504
 361 007a 9A60     		str	r2, [r3, #8]
 362 007c 07F10803 		add	r3, r7, #8
 363 0080 AB4A     		ldr	r2, .L70+12
 364 0082 DA60     		str	r2, [r3, #12]	@ float
 365 0084 07F10803 		add	r3, r7, #8
 366 0088 4FF04042 		mov	r2, #-1073741824
 367 008c 1A61     		str	r2, [r3, #16]	@ float
 368 008e 07F10803 		add	r3, r7, #8
 369 0092 A84A     		ldr	r2, .L70+16
 370 0094 5A61     		str	r2, [r3, #20]	@ float
 371 0096 07F10803 		add	r3, r7, #8
 372 009a A74A     		ldr	r2, .L70+20
 373 009c 9A61     		str	r2, [r3, #24]	@ float
 374 009e 07F10803 		add	r3, r7, #8
 375 00a2 A64A     		ldr	r2, .L70+24
 376 00a4 DA61     		str	r2, [r3, #28]	@ float
 377 00a6 07F10803 		add	r3, r7, #8
 378 00aa A54A     		ldr	r2, .L70+28
 379 00ac 1A62     		str	r2, [r3, #32]	@ float
 380 00ae 07F10803 		add	r3, r7, #8
 381 00b2 A44A     		ldr	r2, .L70+32
 382 00b4 5A62     		str	r2, [r3, #36]	@ float
 383 00b6 07F10803 		add	r3, r7, #8
 384 00ba 4FF04142 		mov	r2, #-1056964608
 385 00be 9A62     		str	r2, [r3, #40]	@ float
 386 00c0 07F10803 		add	r3, r7, #8
 387 00c4 A04A     		ldr	r2, .L70+36
 388 00c6 DA62     		str	r2, [r3, #44]	@ float
 389 00c8 07F10803 		add	r3, r7, #8
 390 00cc 9F4A     		ldr	r2, .L70+40
ARM GAS  C:\Users\klabu\AppData\Local\Temp\cc4lE0vh.s 			page 10


 391 00ce 1A63     		str	r2, [r3, #48]	@ float
 392 00d0 07F10803 		add	r3, r7, #8
 393 00d4 9E4A     		ldr	r2, .L70+44
 394 00d6 5A63     		str	r2, [r3, #52]	@ float
 395 00d8 07F10803 		add	r3, r7, #8
 396 00dc 9D4A     		ldr	r2, .L70+48
 397 00de 9A63     		str	r2, [r3, #56]	@ float
 398 00e0 07F10803 		add	r3, r7, #8
 399 00e4 9C4A     		ldr	r2, .L70+52
 400 00e6 DA63     		str	r2, [r3, #60]	@ float
 401 00e8 07F10803 		add	r3, r7, #8
 402 00ec 9B4A     		ldr	r2, .L70+56
 403 00ee 1A64     		str	r2, [r3, #64]	@ float
 404 00f0 07F10803 		add	r3, r7, #8
 405 00f4 9A4A     		ldr	r2, .L70+60
 406 00f6 5A64     		str	r2, [r3, #68]	@ float
 407 00f8 07F10803 		add	r3, r7, #8
 408 00fc 994A     		ldr	r2, .L70+64
 409 00fe 9A64     		str	r2, [r3, #72]	@ float
 410 0100 07F10803 		add	r3, r7, #8
 411 0104 984A     		ldr	r2, .L70+68
 412 0106 DA64     		str	r2, [r3, #76]	@ float
 413 0108 07F10803 		add	r3, r7, #8
 414 010c 974A     		ldr	r2, .L70+72
 415 010e 1A65     		str	r2, [r3, #80]	@ float
 416 0110 07F10803 		add	r3, r7, #8
 417 0114 964A     		ldr	r2, .L70+76
 418 0116 5A65     		str	r2, [r3, #84]	@ float
 419 0118 07F10803 		add	r3, r7, #8
 420 011c 954A     		ldr	r2, .L70+80
 421 011e 9A65     		str	r2, [r3, #88]	@ float
 422 0120 07F10803 		add	r3, r7, #8
 423 0124 944A     		ldr	r2, .L70+84
 424 0126 DA65     		str	r2, [r3, #92]	@ float
 425 0128 07F10803 		add	r3, r7, #8
 426 012c 934A     		ldr	r2, .L70+88
 427 012e 1A66     		str	r2, [r3, #96]	@ float
 428 0130 07F10803 		add	r3, r7, #8
 429 0134 924A     		ldr	r2, .L70+92
 430 0136 5A66     		str	r2, [r3, #100]	@ float
 431 0138 07F10803 		add	r3, r7, #8
 432 013c 914A     		ldr	r2, .L70+96
 433 013e 9A66     		str	r2, [r3, #104]	@ float
 434 0140 07F10803 		add	r3, r7, #8
 435 0144 904A     		ldr	r2, .L70+100
 436 0146 DA66     		str	r2, [r3, #108]	@ float
 437 0148 07F10803 		add	r3, r7, #8
 438 014c 8F4A     		ldr	r2, .L70+104
 439 014e 1A67     		str	r2, [r3, #112]	@ float
 440 0150 07F10803 		add	r3, r7, #8
 441 0154 8E4A     		ldr	r2, .L70+108
 442 0156 5A67     		str	r2, [r3, #116]	@ float
 443 0158 07F10803 		add	r3, r7, #8
 444 015c 8D4A     		ldr	r2, .L70+112
 445 015e 9A67     		str	r2, [r3, #120]	@ float
 446 0160 07F10803 		add	r3, r7, #8
 447 0164 8C4A     		ldr	r2, .L70+116
ARM GAS  C:\Users\klabu\AppData\Local\Temp\cc4lE0vh.s 			page 11


 448 0166 DA67     		str	r2, [r3, #124]	@ float
 449 0168 07F10803 		add	r3, r7, #8
 450 016c 8B4A     		ldr	r2, .L70+120
 451 016e C3F88020 		str	r2, [r3, #128]	@ float
 452 0172 07F10803 		add	r3, r7, #8
 453 0176 8A4A     		ldr	r2, .L70+124
 454 0178 C3F88420 		str	r2, [r3, #132]	@ float
 455 017c 07F10803 		add	r3, r7, #8
 456 0180 4FF04242 		mov	r2, #-1040187392
 457 0184 C3F88820 		str	r2, [r3, #136]	@ float
 458 0188 07F10803 		add	r3, r7, #8
 459 018c 854A     		ldr	r2, .L70+128
 460 018e C3F88C20 		str	r2, [r3, #140]	@ float
 461 0192 07F10803 		add	r3, r7, #8
 462 0196 844A     		ldr	r2, .L70+132
 463 0198 C3F89020 		str	r2, [r3, #144]	@ float
 464 019c 07F10803 		add	r3, r7, #8
 465 01a0 824A     		ldr	r2, .L70+136
 466 01a2 C3F89420 		str	r2, [r3, #148]	@ float
 467 01a6 07F10803 		add	r3, r7, #8
 468 01aa 814A     		ldr	r2, .L70+140
 469 01ac C3F89820 		str	r2, [r3, #152]	@ float
 470 01b0 07F10803 		add	r3, r7, #8
 471 01b4 7F4A     		ldr	r2, .L70+144
 472 01b6 C3F89C20 		str	r2, [r3, #156]	@ float
 473 01ba 07F10803 		add	r3, r7, #8
 474 01be 7E4A     		ldr	r2, .L70+148
 475 01c0 C3F8A020 		str	r2, [r3, #160]	@ float
 476 01c4 07F10803 		add	r3, r7, #8
 477 01c8 7C4A     		ldr	r2, .L70+152
 478 01ca C3F8A420 		str	r2, [r3, #164]	@ float
 479 01ce 07F10803 		add	r3, r7, #8
 480 01d2 7B4A     		ldr	r2, .L70+156
 481 01d4 C3F8A820 		str	r2, [r3, #168]	@ float
 482 01d8 07F10803 		add	r3, r7, #8
 483 01dc 794A     		ldr	r2, .L70+160
 484 01de C3F8AC20 		str	r2, [r3, #172]	@ float
 485 01e2 07F10803 		add	r3, r7, #8
 486 01e6 784A     		ldr	r2, .L70+164
 487 01e8 C3F8B020 		str	r2, [r3, #176]	@ float
 488 01ec 07F10803 		add	r3, r7, #8
 489 01f0 764A     		ldr	r2, .L70+168
 490 01f2 C3F8B420 		str	r2, [r3, #180]	@ float
 491 01f6 07F10803 		add	r3, r7, #8
 492 01fa 754A     		ldr	r2, .L70+172
 493 01fc C3F8B820 		str	r2, [r3, #184]	@ float
 494 0200 07F10803 		add	r3, r7, #8
 495 0204 734A     		ldr	r2, .L70+176
 496 0206 C3F8BC20 		str	r2, [r3, #188]	@ float
 497 020a 07F10803 		add	r3, r7, #8
 498 020e 724A     		ldr	r2, .L70+180
 499 0210 C3F8C020 		str	r2, [r3, #192]	@ float
 500 0214 07F10803 		add	r3, r7, #8
 501 0218 704A     		ldr	r2, .L70+184
 502 021a C3F8C420 		str	r2, [r3, #196]	@ float
 503 021e 07F10803 		add	r3, r7, #8
 504 0222 6F4A     		ldr	r2, .L70+188
ARM GAS  C:\Users\klabu\AppData\Local\Temp\cc4lE0vh.s 			page 12


 505 0224 C3F8C820 		str	r2, [r3, #200]	@ float
 506 0228 07F10803 		add	r3, r7, #8
 507 022c 6D4A     		ldr	r2, .L70+192
 508 022e C3F8CC20 		str	r2, [r3, #204]	@ float
 509 0232 07F10803 		add	r3, r7, #8
 510 0236 6C4A     		ldr	r2, .L70+196
 511 0238 C3F8D020 		str	r2, [r3, #208]	@ float
 512 023c 07F10803 		add	r3, r7, #8
 513 0240 6A4A     		ldr	r2, .L70+200
 514 0242 C3F8D420 		str	r2, [r3, #212]	@ float
 515 0246 07F10803 		add	r3, r7, #8
 516 024a 694A     		ldr	r2, .L70+204
 517 024c C3F8D820 		str	r2, [r3, #216]	@ float
 518 0250 07F10803 		add	r3, r7, #8
 519 0254 674A     		ldr	r2, .L70+208
 520 0256 C3F8DC20 		str	r2, [r3, #220]	@ float
 521 025a 07F10803 		add	r3, r7, #8
 522 025e 664A     		ldr	r2, .L70+212
 523 0260 C3F8E020 		str	r2, [r3, #224]	@ float
  45:sontek.c      ****         .nvars = SONTEK_NVARS,
  46:sontek.c      ****         .flag = SONTEK_READING_INIT, //to be determined/changed later what this means
  47:sontek.c      ****         .labels = sontek_labels,
  48:sontek.c      ****         .values = sontek_values,
  49:sontek.c      ****         .data0={-1.0, -2.0, -3.0, -4.0},
  50:sontek.c      ****         .data1={-5.0, -6.0, -7.0, -8.0, -9.0},
  51:sontek.c      ****         .data2={-10.0, -11.0, -12.0, -13.0, -14.0, -15.0},
  52:sontek.c      ****         .data3={-16.0, -17.0, -18.0, -19.0, -20.0, -21.0},
  53:sontek.c      ****         .data4={-22.0, -23.0, -24.0, -25.0, -26.0, -27.0},
  54:sontek.c      ****         .data5={-28.0, -29.0, -30.0, -31.0, -32.0, -33.0},
  55:sontek.c      ****         .data6={-34.0, -35.0, -36.0, -37.0, -38.0, -39.0},
  56:sontek.c      ****         .data7={-40.0, -41.0, -42.0, -43.0, -44.0, -45.0},
  57:sontek.c      ****         .data8={-46.0, -47.0, -48.0, -49.0},
  58:sontek.c      ****         .data9={-50.0, 51.0, -52.0, -53.0, -54.0}
  59:sontek.c      ****     }; 
  60:sontek.c      ****     
  61:sontek.c      ****     //Start UART connection and power up sensor
  62:sontek.c      ****     SDI12_start();
 524              		.loc 1 62 0
 525 0264 FFF7FEFF 		bl	SDI12_start
  63:sontek.c      ****     SDI12_Power_Write(1u);
 526              		.loc 1 63 0
 527 0268 0120     		movs	r0, #1
 528 026a FFF7FEFF 		bl	SDI12_Power_Write
 529              	.LBB2:
  64:sontek.c      ****     
  65:sontek.c      ****     //Will try up to 10 times (1/second) to connect to sontek sensor
  66:sontek.c      ****     for (uint8 i = 0; i < 10; i++) {
 530              		.loc 1 66 0
 531 026e 0023     		movs	r3, #0
 532 0270 87F8C732 		strb	r3, [r7, #711]
 533 0274 57E3     		b	.L2
 534              	.L68:
  67:sontek.c      ****         CyDelay(1000u);
 535              		.loc 1 67 0
 536 0276 4FF47A70 		mov	r0, #1000
 537 027a FFF7FEFF 		bl	CyDelay
  68:sontek.c      ****             
ARM GAS  C:\Users\klabu\AppData\Local\Temp\cc4lE0vh.s 			page 13


  69:sontek.c      ****         //Checks if sontek sensor is on    
  70:sontek.c      ****         if (SDI12_is_active(&sontek)){
 538              		.loc 1 70 0
 539 027e 07F1EC03 		add	r3, r7, #236
 540 0282 1846     		mov	r0, r3
 541 0284 FFF7FEFF 		bl	SDI12_is_active
 542 0288 0346     		mov	r3, r0
 543 028a 002B     		cmp	r3, #0
 544 028c 00F04283 		beq	.L3
  71:sontek.c      ****             //valid = SDI12_change_address(&sensors[0],"0");  -----comment out copied code
  72:sontek.c      ****             SDI12_info(&sontek); CyDelay(500u); // ------ I don't know what this does/it's purpose 
 545              		.loc 1 72 0
 546 0290 07F1EC03 		add	r3, r7, #236
 547 0294 1846     		mov	r0, r3
 548 0296 FFF7FEFF 		bl	SDI12_info
 549 029a 4FF4FA70 		mov	r0, #500
 550 029e FFF7FEFF 		bl	CyDelay
 551              	.LBB3:
  73:sontek.c      ****             //Trys to take a measurment and loops through differnt measurment commands 
  74:sontek.c      ****             
  75:sontek.c      **** /*--------Set for beam profile ("M" with D0 and D1, "M_" 1-8, D0 for all)--------*/
  76:sontek.c      ****             //loop through all M commands
  77:sontek.c      ****             for (uint8 k = 0; k < 9; k++){ 
 552              		.loc 1 77 0
 553 02a2 0023     		movs	r3, #0
 554 02a4 87F8C632 		strb	r3, [r7, #710]
 555 02a8 2EE3     		b	.L4
 556              	.L66:
 557              	.LBB4:
  78:sontek.c      ****                 
  79:sontek.c      ****                 uint8 j=0;
 558              		.loc 1 79 0
 559 02aa 0023     		movs	r3, #0
 560 02ac 87F8C532 		strb	r3, [r7, #709]
  80:sontek.c      ****                
  81:sontek.c      ****                 if (SDI12_take_measurement(&sontek, k, 0)){
 561              		.loc 1 81 0
 562 02b0 97F9C612 		ldrsb	r1, [r7, #710]
 563 02b4 07F1EC03 		add	r3, r7, #236
 564 02b8 0022     		movs	r2, #0
 565 02ba 1846     		mov	r0, r3
 566 02bc FFF7FEFF 		bl	SDI12_take_measurement
 567 02c0 0346     		mov	r3, r0
 568 02c2 002B     		cmp	r3, #0
 569 02c4 00F0C482 		beq	.L5
  82:sontek.c      ****                     m_sontek.flag = SONTEK_READING_VALID; // Successfully took a measurement
 570              		.loc 1 82 0
 571 02c8 07F10803 		add	r3, r7, #8
 572 02cc 0122     		movs	r2, #1
 573 02ce 5A70     		strb	r2, [r3, #1]
  83:sontek.c      ****                     //set sontek_t struct values equal to SDI12_sensor struct values for all M_ + D
  84:sontek.c      ****                     if(k==0){for(j=0; j < MD1-MD0; j++){
 574              		.loc 1 84 0
 575 02d0 97F8C632 		ldrb	r3, [r7, #710]	@ zero_extendqisi2
 576 02d4 002B     		cmp	r3, #0
 577 02d6 1CD1     		bne	.L6
 578              		.loc 1 84 0 is_stmt 0 discriminator 1
ARM GAS  C:\Users\klabu\AppData\Local\Temp\cc4lE0vh.s 			page 14


 579 02d8 0023     		movs	r3, #0
 580 02da 87F8C532 		strb	r3, [r7, #709]
 581 02de 14E0     		b	.L7
 582              	.L8:
  85:sontek.c      ****                         m_sontek.data0[j] = sontek.values[j];}}
 583              		.loc 1 85 0 is_stmt 1 discriminator 4
 584 02e0 97F8C532 		ldrb	r3, [r7, #709]	@ zero_extendqisi2
 585 02e4 07F1EC02 		add	r2, r7, #236
 586 02e8 9168     		ldr	r1, [r2, #8]
 587 02ea 97F8C522 		ldrb	r2, [r7, #709]	@ zero_extendqisi2
 588 02ee 9200     		lsls	r2, r2, #2
 589 02f0 0A44     		add	r2, r2, r1
 590 02f2 1268     		ldr	r2, [r2]	@ float
 591 02f4 07F10801 		add	r1, r7, #8
 592 02f8 0233     		adds	r3, r3, #2
 593 02fa 9B00     		lsls	r3, r3, #2
 594 02fc 0B44     		add	r3, r3, r1
 595 02fe 5A60     		str	r2, [r3, #4]	@ float
  84:sontek.c      ****                         m_sontek.data0[j] = sontek.values[j];}}
 596              		.loc 1 84 0 discriminator 4
 597 0300 97F8C532 		ldrb	r3, [r7, #709]	@ zero_extendqisi2
 598 0304 0133     		adds	r3, r3, #1
 599 0306 87F8C532 		strb	r3, [r7, #709]
 600              	.L7:
  84:sontek.c      ****                         m_sontek.data0[j] = sontek.values[j];}}
 601              		.loc 1 84 0 is_stmt 0 discriminator 2
 602 030a 97F8C532 		ldrb	r3, [r7, #709]	@ zero_extendqisi2
 603 030e 032B     		cmp	r3, #3
 604 0310 E6D9     		bls	.L8
 605              	.L6:
  86:sontek.c      ****                     if(k==1){for(j=0; j < M2D0-M1D0; j++){
 606              		.loc 1 86 0 is_stmt 1
 607 0312 97F8C632 		ldrb	r3, [r7, #710]	@ zero_extendqisi2
 608 0316 012B     		cmp	r3, #1
 609 0318 40F08880 		bne	.L9
 610              		.loc 1 86 0 is_stmt 0 discriminator 1
 611 031c 0023     		movs	r3, #0
 612 031e 87F8C532 		strb	r3, [r7, #709]
 613 0322 7FE0     		b	.L10
 614              	.L71:
 615              		.align	2
 616              	.L70:
 617 0324 08020000 		.word	.LC52
 618 0328 D4020000 		.word	.LC51
 619 032c 00000000 		.word	.LC53
 620 0330 000080BF 		.word	-1082130432
 621 0334 000040C0 		.word	-1069547520
 622 0338 000080C0 		.word	-1065353216
 623 033c 0000A0C0 		.word	-1063256064
 624 0340 0000C0C0 		.word	-1061158912
 625 0344 0000E0C0 		.word	-1059061760
 626 0348 000010C1 		.word	-1055916032
 627 034c 000020C1 		.word	-1054867456
 628 0350 000030C1 		.word	-1053818880
 629 0354 000040C1 		.word	-1052770304
 630 0358 000050C1 		.word	-1051721728
 631 035c 000060C1 		.word	-1050673152
ARM GAS  C:\Users\klabu\AppData\Local\Temp\cc4lE0vh.s 			page 15


 632 0360 000070C1 		.word	-1049624576
 633 0364 000080C1 		.word	-1048576000
 634 0368 000088C1 		.word	-1048051712
 635 036c 000090C1 		.word	-1047527424
 636 0370 000098C1 		.word	-1047003136
 637 0374 0000A0C1 		.word	-1046478848
 638 0378 0000A8C1 		.word	-1045954560
 639 037c 0000B0C1 		.word	-1045430272
 640 0380 0000B8C1 		.word	-1044905984
 641 0384 0000C0C1 		.word	-1044381696
 642 0388 0000C8C1 		.word	-1043857408
 643 038c 0000D0C1 		.word	-1043333120
 644 0390 0000D8C1 		.word	-1042808832
 645 0394 0000E0C1 		.word	-1042284544
 646 0398 0000E8C1 		.word	-1041760256
 647 039c 0000F0C1 		.word	-1041235968
 648 03a0 0000F8C1 		.word	-1040711680
 649 03a4 000004C2 		.word	-1039925248
 650 03a8 000008C2 		.word	-1039663104
 651 03ac 00000CC2 		.word	-1039400960
 652 03b0 000010C2 		.word	-1039138816
 653 03b4 000014C2 		.word	-1038876672
 654 03b8 000018C2 		.word	-1038614528
 655 03bc 00001CC2 		.word	-1038352384
 656 03c0 000020C2 		.word	-1038090240
 657 03c4 000024C2 		.word	-1037828096
 658 03c8 000028C2 		.word	-1037565952
 659 03cc 00002CC2 		.word	-1037303808
 660 03d0 000030C2 		.word	-1037041664
 661 03d4 000034C2 		.word	-1036779520
 662 03d8 000038C2 		.word	-1036517376
 663 03dc 00003CC2 		.word	-1036255232
 664 03e0 000040C2 		.word	-1035993088
 665 03e4 000044C2 		.word	-1035730944
 666 03e8 000048C2 		.word	-1035468800
 667 03ec 00004C42 		.word	1112276992
 668 03f0 000050C2 		.word	-1034944512
 669 03f4 000054C2 		.word	-1034682368
 670 03f8 000058C2 		.word	-1034420224
 671              	.L11:
  87:sontek.c      ****                          m_sontek.data2[j] = sontek.values[j];}}
 672              		.loc 1 87 0 is_stmt 1 discriminator 4
 673 03fc 97F8C522 		ldrb	r2, [r7, #709]	@ zero_extendqisi2
 674 0400 07F1EC03 		add	r3, r7, #236
 675 0404 9968     		ldr	r1, [r3, #8]
 676 0406 97F8C532 		ldrb	r3, [r7, #709]	@ zero_extendqisi2
 677 040a 9B00     		lsls	r3, r3, #2
 678 040c 0B44     		add	r3, r3, r1
 679 040e 1968     		ldr	r1, [r3]	@ float
 680 0410 07F10803 		add	r3, r7, #8
 681 0414 0C32     		adds	r2, r2, #12
 682 0416 43F82210 		str	r1, [r3, r2, lsl #2]	@ float
  86:sontek.c      ****                     if(k==1){for(j=0; j < M2D0-M1D0; j++){
 683              		.loc 1 86 0 discriminator 4
 684 041a 97F8C532 		ldrb	r3, [r7, #709]	@ zero_extendqisi2
 685 041e 0133     		adds	r3, r3, #1
 686 0420 87F8C532 		strb	r3, [r7, #709]
ARM GAS  C:\Users\klabu\AppData\Local\Temp\cc4lE0vh.s 			page 16


 687              	.L10:
  86:sontek.c      ****                     if(k==1){for(j=0; j < M2D0-M1D0; j++){
 688              		.loc 1 86 0 is_stmt 0 discriminator 2
 689 0424 97F8C532 		ldrb	r3, [r7, #709]	@ zero_extendqisi2
 690 0428 052B     		cmp	r3, #5
 691 042a E7D9     		bls	.L11
 692              	.L9:
  88:sontek.c      ****                     if(k==2){for(j=0; j < M3D0-M2D0; j++){
 693              		.loc 1 88 0 is_stmt 1
 694 042c 97F8C632 		ldrb	r3, [r7, #710]	@ zero_extendqisi2
 695 0430 022B     		cmp	r3, #2
 696 0432 1BD1     		bne	.L12
 697              		.loc 1 88 0 is_stmt 0 discriminator 1
 698 0434 0023     		movs	r3, #0
 699 0436 87F8C532 		strb	r3, [r7, #709]
 700 043a 13E0     		b	.L13
 701              	.L14:
  89:sontek.c      ****                          m_sontek.data3[j] = sontek.values[j];}}
 702              		.loc 1 89 0 is_stmt 1 discriminator 4
 703 043c 97F8C522 		ldrb	r2, [r7, #709]	@ zero_extendqisi2
 704 0440 07F1EC03 		add	r3, r7, #236
 705 0444 9968     		ldr	r1, [r3, #8]
 706 0446 97F8C532 		ldrb	r3, [r7, #709]	@ zero_extendqisi2
 707 044a 9B00     		lsls	r3, r3, #2
 708 044c 0B44     		add	r3, r3, r1
 709 044e 1968     		ldr	r1, [r3]	@ float
 710 0450 07F10803 		add	r3, r7, #8
 711 0454 1232     		adds	r2, r2, #18
 712 0456 43F82210 		str	r1, [r3, r2, lsl #2]	@ float
  88:sontek.c      ****                     if(k==2){for(j=0; j < M3D0-M2D0; j++){
 713              		.loc 1 88 0 discriminator 4
 714 045a 97F8C532 		ldrb	r3, [r7, #709]	@ zero_extendqisi2
 715 045e 0133     		adds	r3, r3, #1
 716 0460 87F8C532 		strb	r3, [r7, #709]
 717              	.L13:
  88:sontek.c      ****                     if(k==2){for(j=0; j < M3D0-M2D0; j++){
 718              		.loc 1 88 0 is_stmt 0 discriminator 2
 719 0464 97F8C532 		ldrb	r3, [r7, #709]	@ zero_extendqisi2
 720 0468 052B     		cmp	r3, #5
 721 046a E7D9     		bls	.L14
 722              	.L12:
  90:sontek.c      ****                     if(k==3){for(j=0; j < M4D0-M3D0; j++){
 723              		.loc 1 90 0 is_stmt 1
 724 046c 97F8C632 		ldrb	r3, [r7, #710]	@ zero_extendqisi2
 725 0470 032B     		cmp	r3, #3
 726 0472 1BD1     		bne	.L15
 727              		.loc 1 90 0 is_stmt 0 discriminator 1
 728 0474 0023     		movs	r3, #0
 729 0476 87F8C532 		strb	r3, [r7, #709]
 730 047a 13E0     		b	.L16
 731              	.L17:
  91:sontek.c      ****                          m_sontek.data4[j] = sontek.values[j];}}
 732              		.loc 1 91 0 is_stmt 1 discriminator 4
 733 047c 97F8C522 		ldrb	r2, [r7, #709]	@ zero_extendqisi2
 734 0480 07F1EC03 		add	r3, r7, #236
 735 0484 9968     		ldr	r1, [r3, #8]
 736 0486 97F8C532 		ldrb	r3, [r7, #709]	@ zero_extendqisi2
ARM GAS  C:\Users\klabu\AppData\Local\Temp\cc4lE0vh.s 			page 17


 737 048a 9B00     		lsls	r3, r3, #2
 738 048c 0B44     		add	r3, r3, r1
 739 048e 1968     		ldr	r1, [r3]	@ float
 740 0490 07F10803 		add	r3, r7, #8
 741 0494 1832     		adds	r2, r2, #24
 742 0496 43F82210 		str	r1, [r3, r2, lsl #2]	@ float
  90:sontek.c      ****                     if(k==3){for(j=0; j < M4D0-M3D0; j++){
 743              		.loc 1 90 0 discriminator 4
 744 049a 97F8C532 		ldrb	r3, [r7, #709]	@ zero_extendqisi2
 745 049e 0133     		adds	r3, r3, #1
 746 04a0 87F8C532 		strb	r3, [r7, #709]
 747              	.L16:
  90:sontek.c      ****                     if(k==3){for(j=0; j < M4D0-M3D0; j++){
 748              		.loc 1 90 0 is_stmt 0 discriminator 2
 749 04a4 97F8C532 		ldrb	r3, [r7, #709]	@ zero_extendqisi2
 750 04a8 052B     		cmp	r3, #5
 751 04aa E7D9     		bls	.L17
 752              	.L15:
  92:sontek.c      ****                     if(k==4){for(j=0; j < M5D0-M4D0; j++){
 753              		.loc 1 92 0 is_stmt 1
 754 04ac 97F8C632 		ldrb	r3, [r7, #710]	@ zero_extendqisi2
 755 04b0 042B     		cmp	r3, #4
 756 04b2 1BD1     		bne	.L18
 757              		.loc 1 92 0 is_stmt 0 discriminator 1
 758 04b4 0023     		movs	r3, #0
 759 04b6 87F8C532 		strb	r3, [r7, #709]
 760 04ba 13E0     		b	.L19
 761              	.L20:
  93:sontek.c      ****                          m_sontek.data5[j] = sontek.values[j];}}
 762              		.loc 1 93 0 is_stmt 1 discriminator 4
 763 04bc 97F8C522 		ldrb	r2, [r7, #709]	@ zero_extendqisi2
 764 04c0 07F1EC03 		add	r3, r7, #236
 765 04c4 9968     		ldr	r1, [r3, #8]
 766 04c6 97F8C532 		ldrb	r3, [r7, #709]	@ zero_extendqisi2
 767 04ca 9B00     		lsls	r3, r3, #2
 768 04cc 0B44     		add	r3, r3, r1
 769 04ce 1968     		ldr	r1, [r3]	@ float
 770 04d0 07F10803 		add	r3, r7, #8
 771 04d4 1E32     		adds	r2, r2, #30
 772 04d6 43F82210 		str	r1, [r3, r2, lsl #2]	@ float
  92:sontek.c      ****                     if(k==4){for(j=0; j < M5D0-M4D0; j++){
 773              		.loc 1 92 0 discriminator 4
 774 04da 97F8C532 		ldrb	r3, [r7, #709]	@ zero_extendqisi2
 775 04de 0133     		adds	r3, r3, #1
 776 04e0 87F8C532 		strb	r3, [r7, #709]
 777              	.L19:
  92:sontek.c      ****                     if(k==4){for(j=0; j < M5D0-M4D0; j++){
 778              		.loc 1 92 0 is_stmt 0 discriminator 2
 779 04e4 97F8C532 		ldrb	r3, [r7, #709]	@ zero_extendqisi2
 780 04e8 052B     		cmp	r3, #5
 781 04ea E7D9     		bls	.L20
 782              	.L18:
  94:sontek.c      ****                     if(k==5){for(j=0; j < M6D0-M5D0; j++){
 783              		.loc 1 94 0 is_stmt 1
 784 04ec 97F8C632 		ldrb	r3, [r7, #710]	@ zero_extendqisi2
 785 04f0 052B     		cmp	r3, #5
 786 04f2 1BD1     		bne	.L21
ARM GAS  C:\Users\klabu\AppData\Local\Temp\cc4lE0vh.s 			page 18


 787              		.loc 1 94 0 is_stmt 0 discriminator 1
 788 04f4 0023     		movs	r3, #0
 789 04f6 87F8C532 		strb	r3, [r7, #709]
 790 04fa 13E0     		b	.L22
 791              	.L23:
  95:sontek.c      ****                          m_sontek.data6[j] = sontek.values[j];}}
 792              		.loc 1 95 0 is_stmt 1 discriminator 4
 793 04fc 97F8C522 		ldrb	r2, [r7, #709]	@ zero_extendqisi2
 794 0500 07F1EC03 		add	r3, r7, #236
 795 0504 9968     		ldr	r1, [r3, #8]
 796 0506 97F8C532 		ldrb	r3, [r7, #709]	@ zero_extendqisi2
 797 050a 9B00     		lsls	r3, r3, #2
 798 050c 0B44     		add	r3, r3, r1
 799 050e 1968     		ldr	r1, [r3]	@ float
 800 0510 07F10803 		add	r3, r7, #8
 801 0514 2432     		adds	r2, r2, #36
 802 0516 43F82210 		str	r1, [r3, r2, lsl #2]	@ float
  94:sontek.c      ****                     if(k==5){for(j=0; j < M6D0-M5D0; j++){
 803              		.loc 1 94 0 discriminator 4
 804 051a 97F8C532 		ldrb	r3, [r7, #709]	@ zero_extendqisi2
 805 051e 0133     		adds	r3, r3, #1
 806 0520 87F8C532 		strb	r3, [r7, #709]
 807              	.L22:
  94:sontek.c      ****                     if(k==5){for(j=0; j < M6D0-M5D0; j++){
 808              		.loc 1 94 0 is_stmt 0 discriminator 2
 809 0524 97F8C532 		ldrb	r3, [r7, #709]	@ zero_extendqisi2
 810 0528 052B     		cmp	r3, #5
 811 052a E7D9     		bls	.L23
 812              	.L21:
  96:sontek.c      ****                     if(k==6){for(j=0; j < M7D0-M6D0; j++){
 813              		.loc 1 96 0 is_stmt 1
 814 052c 97F8C632 		ldrb	r3, [r7, #710]	@ zero_extendqisi2
 815 0530 062B     		cmp	r3, #6
 816 0532 1BD1     		bne	.L24
 817              		.loc 1 96 0 is_stmt 0 discriminator 1
 818 0534 0023     		movs	r3, #0
 819 0536 87F8C532 		strb	r3, [r7, #709]
 820 053a 13E0     		b	.L25
 821              	.L26:
  97:sontek.c      ****                          m_sontek.data7[j] = sontek.values[j];}}
 822              		.loc 1 97 0 is_stmt 1 discriminator 4
 823 053c 97F8C522 		ldrb	r2, [r7, #709]	@ zero_extendqisi2
 824 0540 07F1EC03 		add	r3, r7, #236
 825 0544 9968     		ldr	r1, [r3, #8]
 826 0546 97F8C532 		ldrb	r3, [r7, #709]	@ zero_extendqisi2
 827 054a 9B00     		lsls	r3, r3, #2
 828 054c 0B44     		add	r3, r3, r1
 829 054e 1968     		ldr	r1, [r3]	@ float
 830 0550 07F10803 		add	r3, r7, #8
 831 0554 2A32     		adds	r2, r2, #42
 832 0556 43F82210 		str	r1, [r3, r2, lsl #2]	@ float
  96:sontek.c      ****                     if(k==6){for(j=0; j < M7D0-M6D0; j++){
 833              		.loc 1 96 0 discriminator 4
 834 055a 97F8C532 		ldrb	r3, [r7, #709]	@ zero_extendqisi2
 835 055e 0133     		adds	r3, r3, #1
 836 0560 87F8C532 		strb	r3, [r7, #709]
 837              	.L25:
ARM GAS  C:\Users\klabu\AppData\Local\Temp\cc4lE0vh.s 			page 19


  96:sontek.c      ****                     if(k==6){for(j=0; j < M7D0-M6D0; j++){
 838              		.loc 1 96 0 is_stmt 0 discriminator 2
 839 0564 97F8C532 		ldrb	r3, [r7, #709]	@ zero_extendqisi2
 840 0568 052B     		cmp	r3, #5
 841 056a E7D9     		bls	.L26
 842              	.L24:
  98:sontek.c      ****                     if(k==7){for(j=0; j < M8D0-M7D0; j++){
 843              		.loc 1 98 0 is_stmt 1
 844 056c 97F8C632 		ldrb	r3, [r7, #710]	@ zero_extendqisi2
 845 0570 072B     		cmp	r3, #7
 846 0572 1BD1     		bne	.L27
 847              		.loc 1 98 0 is_stmt 0 discriminator 1
 848 0574 0023     		movs	r3, #0
 849 0576 87F8C532 		strb	r3, [r7, #709]
 850 057a 13E0     		b	.L28
 851              	.L29:
  99:sontek.c      ****                          m_sontek.data8[j] = sontek.values[j];}}
 852              		.loc 1 99 0 is_stmt 1 discriminator 4
 853 057c 97F8C522 		ldrb	r2, [r7, #709]	@ zero_extendqisi2
 854 0580 07F1EC03 		add	r3, r7, #236
 855 0584 9968     		ldr	r1, [r3, #8]
 856 0586 97F8C532 		ldrb	r3, [r7, #709]	@ zero_extendqisi2
 857 058a 9B00     		lsls	r3, r3, #2
 858 058c 0B44     		add	r3, r3, r1
 859 058e 1968     		ldr	r1, [r3]	@ float
 860 0590 07F10803 		add	r3, r7, #8
 861 0594 3032     		adds	r2, r2, #48
 862 0596 43F82210 		str	r1, [r3, r2, lsl #2]	@ float
  98:sontek.c      ****                     if(k==7){for(j=0; j < M8D0-M7D0; j++){
 863              		.loc 1 98 0 discriminator 4
 864 059a 97F8C532 		ldrb	r3, [r7, #709]	@ zero_extendqisi2
 865 059e 0133     		adds	r3, r3, #1
 866 05a0 87F8C532 		strb	r3, [r7, #709]
 867              	.L28:
  98:sontek.c      ****                     if(k==7){for(j=0; j < M8D0-M7D0; j++){
 868              		.loc 1 98 0 is_stmt 0 discriminator 2
 869 05a4 97F8C532 		ldrb	r3, [r7, #709]	@ zero_extendqisi2
 870 05a8 032B     		cmp	r3, #3
 871 05aa E7D9     		bls	.L29
 872              	.L27:
 100:sontek.c      ****                     if(k==8){for(j=0; j < SONTEK_NVARS-M8D0; j++){
 873              		.loc 1 100 0 is_stmt 1
 874 05ac 97F8C632 		ldrb	r3, [r7, #710]	@ zero_extendqisi2
 875 05b0 082B     		cmp	r3, #8
 876 05b2 1BD1     		bne	.L30
 877              		.loc 1 100 0 is_stmt 0 discriminator 1
 878 05b4 0023     		movs	r3, #0
 879 05b6 87F8C532 		strb	r3, [r7, #709]
 880 05ba 13E0     		b	.L31
 881              	.L32:
 101:sontek.c      ****                          m_sontek.data9[j] = sontek.values[j];}}
 882              		.loc 1 101 0 is_stmt 1 discriminator 4
 883 05bc 97F8C522 		ldrb	r2, [r7, #709]	@ zero_extendqisi2
 884 05c0 07F1EC03 		add	r3, r7, #236
 885 05c4 9968     		ldr	r1, [r3, #8]
 886 05c6 97F8C532 		ldrb	r3, [r7, #709]	@ zero_extendqisi2
 887 05ca 9B00     		lsls	r3, r3, #2
ARM GAS  C:\Users\klabu\AppData\Local\Temp\cc4lE0vh.s 			page 20


 888 05cc 0B44     		add	r3, r3, r1
 889 05ce 1968     		ldr	r1, [r3]	@ float
 890 05d0 07F10803 		add	r3, r7, #8
 891 05d4 3432     		adds	r2, r2, #52
 892 05d6 43F82210 		str	r1, [r3, r2, lsl #2]	@ float
 100:sontek.c      ****                     if(k==8){for(j=0; j < SONTEK_NVARS-M8D0; j++){
 893              		.loc 1 100 0 discriminator 4
 894 05da 97F8C532 		ldrb	r3, [r7, #709]	@ zero_extendqisi2
 895 05de 0133     		adds	r3, r3, #1
 896 05e0 87F8C532 		strb	r3, [r7, #709]
 897              	.L31:
 100:sontek.c      ****                     if(k==8){for(j=0; j < SONTEK_NVARS-M8D0; j++){
 898              		.loc 1 100 0 is_stmt 0 discriminator 2
 899 05e4 97F8C532 		ldrb	r3, [r7, #709]	@ zero_extendqisi2
 900 05e8 042B     		cmp	r3, #4
 901 05ea E7D9     		bls	.L32
 902              	.L30:
 102:sontek.c      ****                     
 103:sontek.c      ****                     //maybe start at j = 0 for all but then start .values as j+ instead of the minu
 104:sontek.c      ****                     //now concatonate data_ arrays into m_sontek.values
 105:sontek.c      ****                     if(k==0){for(j=MD0; j < MD1; j++){
 903              		.loc 1 105 0 is_stmt 1
 904 05ec 97F8C632 		ldrb	r3, [r7, #710]	@ zero_extendqisi2
 905 05f0 002B     		cmp	r3, #0
 906 05f2 1CD1     		bne	.L33
 907              		.loc 1 105 0 is_stmt 0 discriminator 1
 908 05f4 0023     		movs	r3, #0
 909 05f6 87F8C532 		strb	r3, [r7, #709]
 910 05fa 14E0     		b	.L34
 911              	.L35:
 106:sontek.c      ****                         m_sontek.values[j] =  m_sontek.data0[j-MD0];}}
 912              		.loc 1 106 0 is_stmt 1 discriminator 4
 913 05fc 07F10803 		add	r3, r7, #8
 914 0600 5A68     		ldr	r2, [r3, #4]
 915 0602 97F8C532 		ldrb	r3, [r7, #709]	@ zero_extendqisi2
 916 0606 9B00     		lsls	r3, r3, #2
 917 0608 1A44     		add	r2, r2, r3
 918 060a 97F8C532 		ldrb	r3, [r7, #709]	@ zero_extendqisi2
 919 060e 07F10801 		add	r1, r7, #8
 920 0612 0233     		adds	r3, r3, #2
 921 0614 9B00     		lsls	r3, r3, #2
 922 0616 0B44     		add	r3, r3, r1
 923 0618 5B68     		ldr	r3, [r3, #4]	@ float
 924 061a 1360     		str	r3, [r2]	@ float
 105:sontek.c      ****                         m_sontek.values[j] =  m_sontek.data0[j-MD0];}}
 925              		.loc 1 105 0 discriminator 4
 926 061c 97F8C532 		ldrb	r3, [r7, #709]	@ zero_extendqisi2
 927 0620 0133     		adds	r3, r3, #1
 928 0622 87F8C532 		strb	r3, [r7, #709]
 929              	.L34:
 105:sontek.c      ****                         m_sontek.values[j] =  m_sontek.data0[j-MD0];}}
 930              		.loc 1 105 0 is_stmt 0 discriminator 2
 931 0626 97F8C532 		ldrb	r3, [r7, #709]	@ zero_extendqisi2
 932 062a 032B     		cmp	r3, #3
 933 062c E6D9     		bls	.L35
 934              	.L33:
 107:sontek.c      ****                     if(k==1){for(j=M1D0; j < M2D0; j++){
ARM GAS  C:\Users\klabu\AppData\Local\Temp\cc4lE0vh.s 			page 21


 935              		.loc 1 107 0 is_stmt 1
 936 062e 97F8C632 		ldrb	r3, [r7, #710]	@ zero_extendqisi2
 937 0632 012B     		cmp	r3, #1
 938 0634 1DD1     		bne	.L36
 939              		.loc 1 107 0 is_stmt 0 discriminator 1
 940 0636 0923     		movs	r3, #9
 941 0638 87F8C532 		strb	r3, [r7, #709]
 942 063c 15E0     		b	.L37
 943              	.L38:
 108:sontek.c      ****                         m_sontek.values[j] = m_sontek.data2[j-M1D0];}}
 944              		.loc 1 108 0 is_stmt 1 discriminator 4
 945 063e 07F10803 		add	r3, r7, #8
 946 0642 5A68     		ldr	r2, [r3, #4]
 947 0644 97F8C532 		ldrb	r3, [r7, #709]	@ zero_extendqisi2
 948 0648 9B00     		lsls	r3, r3, #2
 949 064a 1344     		add	r3, r3, r2
 950 064c 97F8C522 		ldrb	r2, [r7, #709]	@ zero_extendqisi2
 951 0650 A2F10901 		sub	r1, r2, #9
 952 0654 07F10802 		add	r2, r7, #8
 953 0658 0C31     		adds	r1, r1, #12
 954 065a 52F82120 		ldr	r2, [r2, r1, lsl #2]	@ float
 955 065e 1A60     		str	r2, [r3]	@ float
 107:sontek.c      ****                     if(k==1){for(j=M1D0; j < M2D0; j++){
 956              		.loc 1 107 0 discriminator 4
 957 0660 97F8C532 		ldrb	r3, [r7, #709]	@ zero_extendqisi2
 958 0664 0133     		adds	r3, r3, #1
 959 0666 87F8C532 		strb	r3, [r7, #709]
 960              	.L37:
 107:sontek.c      ****                     if(k==1){for(j=M1D0; j < M2D0; j++){
 961              		.loc 1 107 0 is_stmt 0 discriminator 2
 962 066a 97F8C532 		ldrb	r3, [r7, #709]	@ zero_extendqisi2
 963 066e 0E2B     		cmp	r3, #14
 964 0670 E5D9     		bls	.L38
 965              	.L36:
 109:sontek.c      ****                     if(k==2){for(j=M2D0; j < M3D0; j++){
 966              		.loc 1 109 0 is_stmt 1
 967 0672 97F8C632 		ldrb	r3, [r7, #710]	@ zero_extendqisi2
 968 0676 022B     		cmp	r3, #2
 969 0678 1DD1     		bne	.L39
 970              		.loc 1 109 0 is_stmt 0 discriminator 1
 971 067a 0F23     		movs	r3, #15
 972 067c 87F8C532 		strb	r3, [r7, #709]
 973 0680 15E0     		b	.L40
 974              	.L41:
 110:sontek.c      ****                         m_sontek.values[j] =  m_sontek.data3[j-M2D0];}}
 975              		.loc 1 110 0 is_stmt 1 discriminator 4
 976 0682 07F10803 		add	r3, r7, #8
 977 0686 5A68     		ldr	r2, [r3, #4]
 978 0688 97F8C532 		ldrb	r3, [r7, #709]	@ zero_extendqisi2
 979 068c 9B00     		lsls	r3, r3, #2
 980 068e 1344     		add	r3, r3, r2
 981 0690 97F8C522 		ldrb	r2, [r7, #709]	@ zero_extendqisi2
 982 0694 A2F10F01 		sub	r1, r2, #15
 983 0698 07F10802 		add	r2, r7, #8
 984 069c 1231     		adds	r1, r1, #18
 985 069e 52F82120 		ldr	r2, [r2, r1, lsl #2]	@ float
 986 06a2 1A60     		str	r2, [r3]	@ float
ARM GAS  C:\Users\klabu\AppData\Local\Temp\cc4lE0vh.s 			page 22


 109:sontek.c      ****                     if(k==2){for(j=M2D0; j < M3D0; j++){
 987              		.loc 1 109 0 discriminator 4
 988 06a4 97F8C532 		ldrb	r3, [r7, #709]	@ zero_extendqisi2
 989 06a8 0133     		adds	r3, r3, #1
 990 06aa 87F8C532 		strb	r3, [r7, #709]
 991              	.L40:
 109:sontek.c      ****                     if(k==2){for(j=M2D0; j < M3D0; j++){
 992              		.loc 1 109 0 is_stmt 0 discriminator 2
 993 06ae 97F8C532 		ldrb	r3, [r7, #709]	@ zero_extendqisi2
 994 06b2 142B     		cmp	r3, #20
 995 06b4 E5D9     		bls	.L41
 996              	.L39:
 111:sontek.c      ****                     if(k==3){for(j=M3D0; j < M4D0; j++){
 997              		.loc 1 111 0 is_stmt 1
 998 06b6 97F8C632 		ldrb	r3, [r7, #710]	@ zero_extendqisi2
 999 06ba 032B     		cmp	r3, #3
 1000 06bc 1DD1     		bne	.L42
 1001              		.loc 1 111 0 is_stmt 0 discriminator 1
 1002 06be 1523     		movs	r3, #21
 1003 06c0 87F8C532 		strb	r3, [r7, #709]
 1004 06c4 15E0     		b	.L43
 1005              	.L44:
 112:sontek.c      ****                         m_sontek.values[j] =  m_sontek.data4[j-M3D0];}}
 1006              		.loc 1 112 0 is_stmt 1 discriminator 4
 1007 06c6 07F10803 		add	r3, r7, #8
 1008 06ca 5A68     		ldr	r2, [r3, #4]
 1009 06cc 97F8C532 		ldrb	r3, [r7, #709]	@ zero_extendqisi2
 1010 06d0 9B00     		lsls	r3, r3, #2
 1011 06d2 1344     		add	r3, r3, r2
 1012 06d4 97F8C522 		ldrb	r2, [r7, #709]	@ zero_extendqisi2
 1013 06d8 A2F11501 		sub	r1, r2, #21
 1014 06dc 07F10802 		add	r2, r7, #8
 1015 06e0 1831     		adds	r1, r1, #24
 1016 06e2 52F82120 		ldr	r2, [r2, r1, lsl #2]	@ float
 1017 06e6 1A60     		str	r2, [r3]	@ float
 111:sontek.c      ****                     if(k==3){for(j=M3D0; j < M4D0; j++){
 1018              		.loc 1 111 0 discriminator 4
 1019 06e8 97F8C532 		ldrb	r3, [r7, #709]	@ zero_extendqisi2
 1020 06ec 0133     		adds	r3, r3, #1
 1021 06ee 87F8C532 		strb	r3, [r7, #709]
 1022              	.L43:
 111:sontek.c      ****                     if(k==3){for(j=M3D0; j < M4D0; j++){
 1023              		.loc 1 111 0 is_stmt 0 discriminator 2
 1024 06f2 97F8C532 		ldrb	r3, [r7, #709]	@ zero_extendqisi2
 1025 06f6 1A2B     		cmp	r3, #26
 1026 06f8 E5D9     		bls	.L44
 1027              	.L42:
 113:sontek.c      ****                     if(k==4){for(j=M4D0; j < M5D0; j++){
 1028              		.loc 1 113 0 is_stmt 1
 1029 06fa 97F8C632 		ldrb	r3, [r7, #710]	@ zero_extendqisi2
 1030 06fe 042B     		cmp	r3, #4
 1031 0700 1DD1     		bne	.L45
 1032              		.loc 1 113 0 is_stmt 0 discriminator 1
 1033 0702 1B23     		movs	r3, #27
 1034 0704 87F8C532 		strb	r3, [r7, #709]
 1035 0708 15E0     		b	.L46
 1036              	.L47:
ARM GAS  C:\Users\klabu\AppData\Local\Temp\cc4lE0vh.s 			page 23


 114:sontek.c      ****                         m_sontek.values[j] =  m_sontek.data5[j-M4D0];}}
 1037              		.loc 1 114 0 is_stmt 1 discriminator 4
 1038 070a 07F10803 		add	r3, r7, #8
 1039 070e 5A68     		ldr	r2, [r3, #4]
 1040 0710 97F8C532 		ldrb	r3, [r7, #709]	@ zero_extendqisi2
 1041 0714 9B00     		lsls	r3, r3, #2
 1042 0716 1344     		add	r3, r3, r2
 1043 0718 97F8C522 		ldrb	r2, [r7, #709]	@ zero_extendqisi2
 1044 071c A2F11B01 		sub	r1, r2, #27
 1045 0720 07F10802 		add	r2, r7, #8
 1046 0724 1E31     		adds	r1, r1, #30
 1047 0726 52F82120 		ldr	r2, [r2, r1, lsl #2]	@ float
 1048 072a 1A60     		str	r2, [r3]	@ float
 113:sontek.c      ****                     if(k==4){for(j=M4D0; j < M5D0; j++){
 1049              		.loc 1 113 0 discriminator 4
 1050 072c 97F8C532 		ldrb	r3, [r7, #709]	@ zero_extendqisi2
 1051 0730 0133     		adds	r3, r3, #1
 1052 0732 87F8C532 		strb	r3, [r7, #709]
 1053              	.L46:
 113:sontek.c      ****                     if(k==4){for(j=M4D0; j < M5D0; j++){
 1054              		.loc 1 113 0 is_stmt 0 discriminator 2
 1055 0736 97F8C532 		ldrb	r3, [r7, #709]	@ zero_extendqisi2
 1056 073a 202B     		cmp	r3, #32
 1057 073c E5D9     		bls	.L47
 1058              	.L45:
 115:sontek.c      ****                     if(k==5){for(j=M5D0; j < M6D0; j++){
 1059              		.loc 1 115 0 is_stmt 1
 1060 073e 97F8C632 		ldrb	r3, [r7, #710]	@ zero_extendqisi2
 1061 0742 052B     		cmp	r3, #5
 1062 0744 1DD1     		bne	.L48
 1063              		.loc 1 115 0 is_stmt 0 discriminator 1
 1064 0746 2123     		movs	r3, #33
 1065 0748 87F8C532 		strb	r3, [r7, #709]
 1066 074c 15E0     		b	.L49
 1067              	.L50:
 116:sontek.c      ****                         m_sontek.values[j] =  m_sontek.data6[j-M5D0];}}
 1068              		.loc 1 116 0 is_stmt 1 discriminator 4
 1069 074e 07F10803 		add	r3, r7, #8
 1070 0752 5A68     		ldr	r2, [r3, #4]
 1071 0754 97F8C532 		ldrb	r3, [r7, #709]	@ zero_extendqisi2
 1072 0758 9B00     		lsls	r3, r3, #2
 1073 075a 1344     		add	r3, r3, r2
 1074 075c 97F8C522 		ldrb	r2, [r7, #709]	@ zero_extendqisi2
 1075 0760 A2F12101 		sub	r1, r2, #33
 1076 0764 07F10802 		add	r2, r7, #8
 1077 0768 2431     		adds	r1, r1, #36
 1078 076a 52F82120 		ldr	r2, [r2, r1, lsl #2]	@ float
 1079 076e 1A60     		str	r2, [r3]	@ float
 115:sontek.c      ****                     if(k==5){for(j=M5D0; j < M6D0; j++){
 1080              		.loc 1 115 0 discriminator 4
 1081 0770 97F8C532 		ldrb	r3, [r7, #709]	@ zero_extendqisi2
 1082 0774 0133     		adds	r3, r3, #1
 1083 0776 87F8C532 		strb	r3, [r7, #709]
 1084              	.L49:
 115:sontek.c      ****                     if(k==5){for(j=M5D0; j < M6D0; j++){
 1085              		.loc 1 115 0 is_stmt 0 discriminator 2
 1086 077a 97F8C532 		ldrb	r3, [r7, #709]	@ zero_extendqisi2
ARM GAS  C:\Users\klabu\AppData\Local\Temp\cc4lE0vh.s 			page 24


 1087 077e 262B     		cmp	r3, #38
 1088 0780 E5D9     		bls	.L50
 1089              	.L48:
 117:sontek.c      ****                     if(k==6){for(j=M6D0; j < M7D0; j++){
 1090              		.loc 1 117 0 is_stmt 1
 1091 0782 97F8C632 		ldrb	r3, [r7, #710]	@ zero_extendqisi2
 1092 0786 062B     		cmp	r3, #6
 1093 0788 1DD1     		bne	.L51
 1094              		.loc 1 117 0 is_stmt 0 discriminator 1
 1095 078a 2723     		movs	r3, #39
 1096 078c 87F8C532 		strb	r3, [r7, #709]
 1097 0790 15E0     		b	.L52
 1098              	.L53:
 118:sontek.c      ****                         m_sontek.values[j] =  m_sontek.data7[j-M6D0];}}
 1099              		.loc 1 118 0 is_stmt 1 discriminator 4
 1100 0792 07F10803 		add	r3, r7, #8
 1101 0796 5A68     		ldr	r2, [r3, #4]
 1102 0798 97F8C532 		ldrb	r3, [r7, #709]	@ zero_extendqisi2
 1103 079c 9B00     		lsls	r3, r3, #2
 1104 079e 1344     		add	r3, r3, r2
 1105 07a0 97F8C522 		ldrb	r2, [r7, #709]	@ zero_extendqisi2
 1106 07a4 A2F12701 		sub	r1, r2, #39
 1107 07a8 07F10802 		add	r2, r7, #8
 1108 07ac 2A31     		adds	r1, r1, #42
 1109 07ae 52F82120 		ldr	r2, [r2, r1, lsl #2]	@ float
 1110 07b2 1A60     		str	r2, [r3]	@ float
 117:sontek.c      ****                     if(k==6){for(j=M6D0; j < M7D0; j++){
 1111              		.loc 1 117 0 discriminator 4
 1112 07b4 97F8C532 		ldrb	r3, [r7, #709]	@ zero_extendqisi2
 1113 07b8 0133     		adds	r3, r3, #1
 1114 07ba 87F8C532 		strb	r3, [r7, #709]
 1115              	.L52:
 117:sontek.c      ****                     if(k==6){for(j=M6D0; j < M7D0; j++){
 1116              		.loc 1 117 0 is_stmt 0 discriminator 2
 1117 07be 97F8C532 		ldrb	r3, [r7, #709]	@ zero_extendqisi2
 1118 07c2 2C2B     		cmp	r3, #44
 1119 07c4 E5D9     		bls	.L53
 1120              	.L51:
 119:sontek.c      ****                     if(k==7){for(j=M7D0; j < M8D0; j++){
 1121              		.loc 1 119 0 is_stmt 1
 1122 07c6 97F8C632 		ldrb	r3, [r7, #710]	@ zero_extendqisi2
 1123 07ca 072B     		cmp	r3, #7
 1124 07cc 1DD1     		bne	.L54
 1125              		.loc 1 119 0 is_stmt 0 discriminator 1
 1126 07ce 2D23     		movs	r3, #45
 1127 07d0 87F8C532 		strb	r3, [r7, #709]
 1128 07d4 15E0     		b	.L55
 1129              	.L56:
 120:sontek.c      ****                         m_sontek.values[j] =  m_sontek.data8[j-M7D0];}}
 1130              		.loc 1 120 0 is_stmt 1 discriminator 4
 1131 07d6 07F10803 		add	r3, r7, #8
 1132 07da 5A68     		ldr	r2, [r3, #4]
 1133 07dc 97F8C532 		ldrb	r3, [r7, #709]	@ zero_extendqisi2
 1134 07e0 9B00     		lsls	r3, r3, #2
 1135 07e2 1344     		add	r3, r3, r2
 1136 07e4 97F8C522 		ldrb	r2, [r7, #709]	@ zero_extendqisi2
 1137 07e8 A2F12D01 		sub	r1, r2, #45
ARM GAS  C:\Users\klabu\AppData\Local\Temp\cc4lE0vh.s 			page 25


 1138 07ec 07F10802 		add	r2, r7, #8
 1139 07f0 3031     		adds	r1, r1, #48
 1140 07f2 52F82120 		ldr	r2, [r2, r1, lsl #2]	@ float
 1141 07f6 1A60     		str	r2, [r3]	@ float
 119:sontek.c      ****                     if(k==7){for(j=M7D0; j < M8D0; j++){
 1142              		.loc 1 119 0 discriminator 4
 1143 07f8 97F8C532 		ldrb	r3, [r7, #709]	@ zero_extendqisi2
 1144 07fc 0133     		adds	r3, r3, #1
 1145 07fe 87F8C532 		strb	r3, [r7, #709]
 1146              	.L55:
 119:sontek.c      ****                     if(k==7){for(j=M7D0; j < M8D0; j++){
 1147              		.loc 1 119 0 is_stmt 0 discriminator 2
 1148 0802 97F8C532 		ldrb	r3, [r7, #709]	@ zero_extendqisi2
 1149 0806 302B     		cmp	r3, #48
 1150 0808 E5D9     		bls	.L56
 1151              	.L54:
 121:sontek.c      ****                     if(k==8){for(j=M8D0; j < SONTEK_NVARS; j++){
 1152              		.loc 1 121 0 is_stmt 1
 1153 080a 97F8C632 		ldrb	r3, [r7, #710]	@ zero_extendqisi2
 1154 080e 082B     		cmp	r3, #8
 1155 0810 22D1     		bne	.L57
 1156              		.loc 1 121 0 is_stmt 0 discriminator 1
 1157 0812 3123     		movs	r3, #49
 1158 0814 87F8C532 		strb	r3, [r7, #709]
 1159 0818 15E0     		b	.L58
 1160              	.L59:
 122:sontek.c      ****                         m_sontek.values[j] =  m_sontek.data9[j-M8D0];}}
 1161              		.loc 1 122 0 is_stmt 1 discriminator 4
 1162 081a 07F10803 		add	r3, r7, #8
 1163 081e 5A68     		ldr	r2, [r3, #4]
 1164 0820 97F8C532 		ldrb	r3, [r7, #709]	@ zero_extendqisi2
 1165 0824 9B00     		lsls	r3, r3, #2
 1166 0826 1344     		add	r3, r3, r2
 1167 0828 97F8C522 		ldrb	r2, [r7, #709]	@ zero_extendqisi2
 1168 082c A2F13101 		sub	r1, r2, #49
 1169 0830 07F10802 		add	r2, r7, #8
 1170 0834 3431     		adds	r1, r1, #52
 1171 0836 52F82120 		ldr	r2, [r2, r1, lsl #2]	@ float
 1172 083a 1A60     		str	r2, [r3]	@ float
 121:sontek.c      ****                     if(k==8){for(j=M8D0; j < SONTEK_NVARS; j++){
 1173              		.loc 1 121 0 discriminator 4
 1174 083c 97F8C532 		ldrb	r3, [r7, #709]	@ zero_extendqisi2
 1175 0840 0133     		adds	r3, r3, #1
 1176 0842 87F8C532 		strb	r3, [r7, #709]
 1177              	.L58:
 121:sontek.c      ****                     if(k==8){for(j=M8D0; j < SONTEK_NVARS; j++){
 1178              		.loc 1 121 0 is_stmt 0 discriminator 2
 1179 0846 97F8C532 		ldrb	r3, [r7, #709]	@ zero_extendqisi2
 1180 084a 352B     		cmp	r3, #53
 1181 084c E5D9     		bls	.L59
 1182 084e 03E0     		b	.L57
 1183              	.L5:
 123:sontek.c      ****                     
 124:sontek.c      **** //                    if(k==0){for(j=MD0; j < MD1; j++){
 125:sontek.c      **** //                        m_sontek.values[j] = sontek.values[j-MD0];}}
 126:sontek.c      **** //                    if(k==1){for(j=M1D0; j < M2D0; j++){
 127:sontek.c      **** //                        m_sontek.values[j] = sontek.values[j-M1D0];}}
ARM GAS  C:\Users\klabu\AppData\Local\Temp\cc4lE0vh.s 			page 26


 128:sontek.c      **** //                    if(k==2){for(j=M2D0; j < M3D0; j++){
 129:sontek.c      **** //                        m_sontek.values[j] = sontek.values[j-M2D0];}}
 130:sontek.c      **** //                    if(k==3){for(j=M3D0; j < M4D0; j++){
 131:sontek.c      **** //                        m_sontek.values[j] = sontek.values[j-M3D0];}}
 132:sontek.c      **** //                    if(k==4){for(j=M4D0; j < M5D0; j++){
 133:sontek.c      **** //                        m_sontek.values[j] = sontek.values[j-M4D0];}}
 134:sontek.c      **** //                    if(k==5){for(j=M5D0; j < M6D0; j++){
 135:sontek.c      **** //                        m_sontek.values[j] = sontek.values[j-M5D0];}}
 136:sontek.c      **** //                    if(k==6){for(j=M6D0; j < M7D0; j++){
 137:sontek.c      **** //                        m_sontek.values[j] = sontek.values[j-M6D0];}}
 138:sontek.c      **** //                    if(k==7){for(j=M7D0; j < M8D0; j++){
 139:sontek.c      **** //                        m_sontek.values[j] = sontek.values[j-M7D0];}}
 140:sontek.c      **** //                    if(k==8){for(j=M8D0; j < SONTEK_NVARS; j++){
 141:sontek.c      **** //                        m_sontek.values[j] = sontek.values[j-M8D0];}}
 142:sontek.c      ****                 } 
 143:sontek.c      ****                 else {
 144:sontek.c      ****                     m_sontek.flag = SONTEK_READING_PARSE_ERROR; // SDI12 sensor powered on, but una
 1184              		.loc 1 144 0 is_stmt 1
 1185 0850 07F10803 		add	r3, r7, #8
 1186 0854 0222     		movs	r2, #2
 1187 0856 5A70     		strb	r2, [r3, #1]
 1188              	.L57:
 145:sontek.c      ****                 }
 146:sontek.c      **** 
 147:sontek.c      ****                 // For "M" (k=0) send "D1" commands additionally
 148:sontek.c      ****                 if(k==0){
 1189              		.loc 1 148 0
 1190 0858 97F8C632 		ldrb	r3, [r7, #710]	@ zero_extendqisi2
 1191 085c 002B     		cmp	r3, #0
 1192 085e 4ED1     		bne	.L60
 149:sontek.c      ****                     if (SDI12_take_measurement(&sontek, k, 1)){
 1193              		.loc 1 149 0
 1194 0860 97F9C612 		ldrsb	r1, [r7, #710]
 1195 0864 07F1EC03 		add	r3, r7, #236
 1196 0868 0122     		movs	r2, #1
 1197 086a 1846     		mov	r0, r3
 1198 086c FFF7FEFF 		bl	SDI12_take_measurement
 1199 0870 0346     		mov	r3, r0
 1200 0872 002B     		cmp	r3, #0
 1201 0874 3FD0     		beq	.L61
 150:sontek.c      ****                         m_sontek.flag = SONTEK_READING_VALID; // Successfully took a measurement
 1202              		.loc 1 150 0
 1203 0876 07F10803 		add	r3, r7, #8
 1204 087a 0122     		movs	r2, #1
 1205 087c 5A70     		strb	r2, [r3, #1]
 151:sontek.c      ****                         //set sontek_t struct values equal to SDI12_sensor struct values for M + D1
 152:sontek.c      ****                         //--------change so it just sends a data request
 153:sontek.c      ****                         for(j=0; j < M1D0-MD1; j++){
 1206              		.loc 1 153 0
 1207 087e 0023     		movs	r3, #0
 1208 0880 87F8C532 		strb	r3, [r7, #709]
 1209 0884 14E0     		b	.L62
 1210              	.L63:
 154:sontek.c      ****                              m_sontek.data1[j] = sontek.values[j];}
 1211              		.loc 1 154 0 discriminator 3
 1212 0886 97F8C532 		ldrb	r3, [r7, #709]	@ zero_extendqisi2
 1213 088a 07F1EC02 		add	r2, r7, #236
ARM GAS  C:\Users\klabu\AppData\Local\Temp\cc4lE0vh.s 			page 27


 1214 088e 9168     		ldr	r1, [r2, #8]
 1215 0890 97F8C522 		ldrb	r2, [r7, #709]	@ zero_extendqisi2
 1216 0894 9200     		lsls	r2, r2, #2
 1217 0896 0A44     		add	r2, r2, r1
 1218 0898 1268     		ldr	r2, [r2]	@ float
 1219 089a 07F10801 		add	r1, r7, #8
 1220 089e 0633     		adds	r3, r3, #6
 1221 08a0 9B00     		lsls	r3, r3, #2
 1222 08a2 0B44     		add	r3, r3, r1
 1223 08a4 5A60     		str	r2, [r3, #4]	@ float
 153:sontek.c      ****                              m_sontek.data1[j] = sontek.values[j];}
 1224              		.loc 1 153 0 discriminator 3
 1225 08a6 97F8C532 		ldrb	r3, [r7, #709]	@ zero_extendqisi2
 1226 08aa 0133     		adds	r3, r3, #1
 1227 08ac 87F8C532 		strb	r3, [r7, #709]
 1228              	.L62:
 153:sontek.c      ****                              m_sontek.data1[j] = sontek.values[j];}
 1229              		.loc 1 153 0 is_stmt 0 discriminator 1
 1230 08b0 97F8C532 		ldrb	r3, [r7, #709]	@ zero_extendqisi2
 1231 08b4 042B     		cmp	r3, #4
 1232 08b6 E6D9     		bls	.L63
 155:sontek.c      ****                         
 156:sontek.c      ****                         for(j=MD1; j < M1D0; j++){
 1233              		.loc 1 156 0 is_stmt 1
 1234 08b8 0423     		movs	r3, #4
 1235 08ba 87F8C532 		strb	r3, [r7, #709]
 1236 08be 15E0     		b	.L64
 1237              	.L65:
 157:sontek.c      ****                             m_sontek.values[j] =  m_sontek.data1[j-MD1];}
 1238              		.loc 1 157 0 discriminator 3
 1239 08c0 07F10803 		add	r3, r7, #8
 1240 08c4 5A68     		ldr	r2, [r3, #4]
 1241 08c6 97F8C532 		ldrb	r3, [r7, #709]	@ zero_extendqisi2
 1242 08ca 9B00     		lsls	r3, r3, #2
 1243 08cc 1A44     		add	r2, r2, r3
 1244 08ce 97F8C532 		ldrb	r3, [r7, #709]	@ zero_extendqisi2
 1245 08d2 043B     		subs	r3, r3, #4
 1246 08d4 07F10801 		add	r1, r7, #8
 1247 08d8 0633     		adds	r3, r3, #6
 1248 08da 9B00     		lsls	r3, r3, #2
 1249 08dc 0B44     		add	r3, r3, r1
 1250 08de 5B68     		ldr	r3, [r3, #4]	@ float
 1251 08e0 1360     		str	r3, [r2]	@ float
 156:sontek.c      ****                             m_sontek.values[j] =  m_sontek.data1[j-MD1];}
 1252              		.loc 1 156 0 discriminator 3
 1253 08e2 97F8C532 		ldrb	r3, [r7, #709]	@ zero_extendqisi2
 1254 08e6 0133     		adds	r3, r3, #1
 1255 08e8 87F8C532 		strb	r3, [r7, #709]
 1256              	.L64:
 156:sontek.c      ****                             m_sontek.values[j] =  m_sontek.data1[j-MD1];}
 1257              		.loc 1 156 0 is_stmt 0 discriminator 1
 1258 08ec 97F8C532 		ldrb	r3, [r7, #709]	@ zero_extendqisi2
 1259 08f0 082B     		cmp	r3, #8
 1260 08f2 E5D9     		bls	.L65
 1261 08f4 03E0     		b	.L60
 1262              	.L61:
 158:sontek.c      ****                         
ARM GAS  C:\Users\klabu\AppData\Local\Temp\cc4lE0vh.s 			page 28


 159:sontek.c      **** //                        for(j=MD1; j < M1D0; j++){
 160:sontek.c      **** //                            m_sontek.values[j] = sontek.values[j-MD1];}
 161:sontek.c      ****                     } 
 162:sontek.c      ****                     else {
 163:sontek.c      ****                         m_sontek.flag = SONTEK_READING_PARSE_ERROR; // SDI12 sensor powered on, but
 1263              		.loc 1 163 0 is_stmt 1
 1264 08f6 07F10803 		add	r3, r7, #8
 1265 08fa 0222     		movs	r2, #2
 1266 08fc 5A70     		strb	r2, [r3, #1]
 1267              	.L60:
 1268              	.LBE4:
  77:sontek.c      ****                 
 1269              		.loc 1 77 0 discriminator 2
 1270 08fe 97F8C632 		ldrb	r3, [r7, #710]	@ zero_extendqisi2
 1271 0902 0133     		adds	r3, r3, #1
 1272 0904 87F8C632 		strb	r3, [r7, #710]
 1273              	.L4:
  77:sontek.c      ****                 
 1274              		.loc 1 77 0 is_stmt 0 discriminator 1
 1275 0908 97F8C632 		ldrb	r3, [r7, #710]	@ zero_extendqisi2
 1276 090c 082B     		cmp	r3, #8
 1277 090e 7FF6CCAC 		bls	.L66
 1278              	.LBE3:
 164:sontek.c      ****                     }
 165:sontek.c      **** ////                    if (SDI12_take_measurement(&sontek, k, 1)){
 166:sontek.c      **** ////                        m_sontek.flag = SONTEK_READING_VALID; // Successfully took a measuremen
 167:sontek.c      **** ////                        //set sontek_t struct values equal to SDI12_sensor struct values
 168:sontek.c      **** ////                        for(uint8 j; j < SONTEK_NVARS; j++){
 169:sontek.c      **** //////fix indexing                            
 170:sontek.c      **** ////                            m_sontek.values[j] = sontek.values[j];
 171:sontek.c      **** ////                        }                     
 172:sontek.c      **** ////                    } 
 173:sontek.c      **** ////                    else {
 174:sontek.c      **** ////                        m_sontek.flag = SONTEK_READING_PARSE_ERROR; // SDI12 sensor powered on,
 175:sontek.c      **** ////                    }
 176:sontek.c      ****                 }  
 177:sontek.c      ****             }
 178:sontek.c      ****             
 179:sontek.c      ****             break;
 1279              		.loc 1 179 0 is_stmt 1
 1280 0912 0DE0     		b	.L67
 1281              	.L3:
 180:sontek.c      ****         }
 181:sontek.c      ****         
 182:sontek.c      ****         else {
 183:sontek.c      ****             m_sontek.flag = SONTEK_READING_NOT_RESPONDING; // SDI12 sensor failes active test and n
 1282              		.loc 1 183 0 discriminator 2
 1283 0914 07F10803 		add	r3, r7, #8
 1284 0918 0322     		movs	r2, #3
 1285 091a 5A70     		strb	r2, [r3, #1]
  66:sontek.c      ****         CyDelay(1000u);
 1286              		.loc 1 66 0 discriminator 2
 1287 091c 97F8C732 		ldrb	r3, [r7, #711]	@ zero_extendqisi2
 1288 0920 0133     		adds	r3, r3, #1
 1289 0922 87F8C732 		strb	r3, [r7, #711]
 1290              	.L2:
  66:sontek.c      ****         CyDelay(1000u);
ARM GAS  C:\Users\klabu\AppData\Local\Temp\cc4lE0vh.s 			page 29


 1291              		.loc 1 66 0 is_stmt 0 discriminator 1
 1292 0926 97F8C732 		ldrb	r3, [r7, #711]	@ zero_extendqisi2
 1293 092a 092B     		cmp	r3, #9
 1294 092c 7FF6A3AC 		bls	.L68
 1295              	.L67:
 1296              	.LBE2:
 184:sontek.c      ****         }
 185:sontek.c      ****     }
 186:sontek.c      ****     //delay to give time for sontek to store readings onto sensor ---------------------- see if goo
 187:sontek.c      ****     CyDelay(SONTEK_WRITE_TIME);
 1297              		.loc 1 187 0 is_stmt 1
 1298 0930 41F28830 		movw	r0, #5000
 1299 0934 FFF7FEFF 		bl	CyDelay
 188:sontek.c      ****     //shuts off sensor and turns of UART
 189:sontek.c      ****     SDI12_Power_Write(0u);
 1300              		.loc 1 189 0
 1301 0938 0020     		movs	r0, #0
 1302 093a FFF7FEFF 		bl	SDI12_Power_Write
 190:sontek.c      ****     SDI12_stop();
 1303              		.loc 1 190 0
 1304 093e FFF7FEFF 		bl	SDI12_stop
 191:sontek.c      ****             
 192:sontek.c      ****     return m_sontek;
 1305              		.loc 1 192 0
 1306 0942 3B1D     		adds	r3, r7, #4
 1307 0944 1A68     		ldr	r2, [r3]
 1308 0946 07F10803 		add	r3, r7, #8
 1309 094a 1046     		mov	r0, r2
 1310 094c 1946     		mov	r1, r3
 1311 094e E423     		movs	r3, #228
 1312 0950 1A46     		mov	r2, r3
 1313 0952 FFF7FEFF 		bl	memcpy
 193:sontek.c      **** }
 1314              		.loc 1 193 0
 1315 0956 3B1D     		adds	r3, r7, #4
 1316 0958 1868     		ldr	r0, [r3]
 1317 095a 07F53277 		add	r7, r7, #712
 1318              		.cfi_def_cfa_offset 8
 1319 095e BD46     		mov	sp, r7
 1320              		.cfi_def_cfa_register 13
 1321              		@ sp needed
 1322 0960 80BD     		pop	{r7, pc}
 1323              		.cfi_endproc
 1324              	.LFE64:
 1325              		.size	sontek_take_reading, .-sontek_take_reading
 1326 0962 00BF     		.text
 1327              	.Letext0:
 1328              		.file 2 "c:\\program files (x86)\\cypress\\psoc creator\\4.4\\psoc creator\\import\\gnu\\arm\\5.4.
 1329              		.file 3 "c:\\program files (x86)\\cypress\\psoc creator\\4.4\\psoc creator\\import\\gnu\\arm\\5.4.
 1330              		.file 4 "Generated_Source\\PSoC5/cytypes.h"
 1331              		.file 5 "SDI12.h"
 1332              		.file 6 "sontek.h"
 1333              		.file 7 "data.h"
 1334              		.file 8 "modem.h"
 1335              		.file 9 "Generated_Source\\PSoC5/core_cm3.h"
 1336              		.section	.debug_info,"",%progbits
 1337              	.Ldebug_info0:
ARM GAS  C:\Users\klabu\AppData\Local\Temp\cc4lE0vh.s 			page 30


 1338 0000 50050000 		.4byte	0x550
 1339 0004 0400     		.2byte	0x4
 1340 0006 00000000 		.4byte	.Ldebug_abbrev0
 1341 000a 04       		.byte	0x4
 1342 000b 01       		.uleb128 0x1
 1343 000c 49000000 		.4byte	.LASF77
 1344 0010 0C       		.byte	0xc
 1345 0011 4A010000 		.4byte	.LASF78
 1346 0015 4F030000 		.4byte	.LASF79
 1347 0019 00000000 		.4byte	.Ldebug_ranges0+0
 1348 001d 00000000 		.4byte	0
 1349 0021 00000000 		.4byte	.Ldebug_line0
 1350 0025 02       		.uleb128 0x2
 1351 0026 01       		.byte	0x1
 1352 0027 06       		.byte	0x6
 1353 0028 34020000 		.4byte	.LASF0
 1354 002c 02       		.uleb128 0x2
 1355 002d 01       		.byte	0x1
 1356 002e 08       		.byte	0x8
 1357 002f 03020000 		.4byte	.LASF1
 1358 0033 02       		.uleb128 0x2
 1359 0034 02       		.byte	0x2
 1360 0035 05       		.byte	0x5
 1361 0036 DC000000 		.4byte	.LASF2
 1362 003a 02       		.uleb128 0x2
 1363 003b 02       		.byte	0x2
 1364 003c 07       		.byte	0x7
 1365 003d 9D020000 		.4byte	.LASF3
 1366 0041 03       		.uleb128 0x3
 1367 0042 76030000 		.4byte	.LASF9
 1368 0046 02       		.byte	0x2
 1369 0047 3F       		.byte	0x3f
 1370 0048 4C000000 		.4byte	0x4c
 1371 004c 02       		.uleb128 0x2
 1372 004d 04       		.byte	0x4
 1373 004e 05       		.byte	0x5
 1374 004f 9E010000 		.4byte	.LASF4
 1375 0053 02       		.uleb128 0x2
 1376 0054 04       		.byte	0x4
 1377 0055 07       		.byte	0x7
 1378 0056 15030000 		.4byte	.LASF5
 1379 005a 02       		.uleb128 0x2
 1380 005b 08       		.byte	0x8
 1381 005c 05       		.byte	0x5
 1382 005d 67010000 		.4byte	.LASF6
 1383 0061 02       		.uleb128 0x2
 1384 0062 08       		.byte	0x8
 1385 0063 07       		.byte	0x7
 1386 0064 75010000 		.4byte	.LASF7
 1387 0068 04       		.uleb128 0x4
 1388 0069 04       		.byte	0x4
 1389 006a 05       		.byte	0x5
 1390 006b 696E7400 		.ascii	"int\000"
 1391 006f 02       		.uleb128 0x2
 1392 0070 04       		.byte	0x4
 1393 0071 07       		.byte	0x7
 1394 0072 48020000 		.4byte	.LASF8
ARM GAS  C:\Users\klabu\AppData\Local\Temp\cc4lE0vh.s 			page 31


 1395 0076 03       		.uleb128 0x3
 1396 0077 E8020000 		.4byte	.LASF10
 1397 007b 03       		.byte	0x3
 1398 007c 2C       		.byte	0x2c
 1399 007d 41000000 		.4byte	0x41
 1400 0081 05       		.uleb128 0x5
 1401 0082 05010000 		.4byte	.LASF11
 1402 0086 04       		.byte	0x4
 1403 0087 9201     		.2byte	0x192
 1404 0089 2C000000 		.4byte	0x2c
 1405 008d 05       		.uleb128 0x5
 1406 008e EC000000 		.4byte	.LASF12
 1407 0092 04       		.byte	0x4
 1408 0093 9301     		.2byte	0x193
 1409 0095 3A000000 		.4byte	0x3a
 1410 0099 05       		.uleb128 0x5
 1411 009a 27030000 		.4byte	.LASF13
 1412 009e 04       		.byte	0x4
 1413 009f 9701     		.2byte	0x197
 1414 00a1 4C000000 		.4byte	0x4c
 1415 00a5 02       		.uleb128 0x2
 1416 00a6 04       		.byte	0x4
 1417 00a7 04       		.byte	0x4
 1418 00a8 44010000 		.4byte	.LASF14
 1419 00ac 02       		.uleb128 0x2
 1420 00ad 08       		.byte	0x8
 1421 00ae 04       		.byte	0x4
 1422 00af 2D030000 		.4byte	.LASF15
 1423 00b3 02       		.uleb128 0x2
 1424 00b4 01       		.byte	0x1
 1425 00b5 08       		.byte	0x8
 1426 00b6 8C010000 		.4byte	.LASF16
 1427 00ba 02       		.uleb128 0x2
 1428 00bb 08       		.byte	0x8
 1429 00bc 04       		.byte	0x4
 1430 00bd E2010000 		.4byte	.LASF17
 1431 00c1 02       		.uleb128 0x2
 1432 00c2 04       		.byte	0x4
 1433 00c3 07       		.byte	0x7
 1434 00c4 40000000 		.4byte	.LASF18
 1435 00c8 06       		.uleb128 0x6
 1436 00c9 04       		.byte	0x4
 1437 00ca B3000000 		.4byte	0xb3
 1438 00ce 07       		.uleb128 0x7
 1439 00cf 34       		.byte	0x34
 1440 00d0 05       		.byte	0x5
 1441 00d1 2D       		.byte	0x2d
 1442 00d2 43010000 		.4byte	0x143
 1443 00d6 08       		.uleb128 0x8
 1444 00d7 40020000 		.4byte	.LASF19
 1445 00db 05       		.byte	0x5
 1446 00dc 2F       		.byte	0x2f
 1447 00dd C8000000 		.4byte	0xc8
 1448 00e1 00       		.byte	0
 1449 00e2 08       		.uleb128 0x8
 1450 00e3 21000000 		.4byte	.LASF20
 1451 00e7 05       		.byte	0x5
ARM GAS  C:\Users\klabu\AppData\Local\Temp\cc4lE0vh.s 			page 32


 1452 00e8 30       		.byte	0x30
 1453 00e9 43010000 		.4byte	0x143
 1454 00ed 04       		.byte	0x4
 1455 00ee 08       		.uleb128 0x8
 1456 00ef C2010000 		.4byte	.LASF21
 1457 00f3 05       		.byte	0x5
 1458 00f4 31       		.byte	0x31
 1459 00f5 49010000 		.4byte	0x149
 1460 00f9 08       		.byte	0x8
 1461 00fa 08       		.uleb128 0x8
 1462 00fb 86030000 		.4byte	.LASF22
 1463 00ff 05       		.byte	0x5
 1464 0100 32       		.byte	0x32
 1465 0101 81000000 		.4byte	0x81
 1466 0105 0C       		.byte	0xc
 1467 0106 08       		.uleb128 0x8
 1468 0107 C8020000 		.4byte	.LASF23
 1469 010b 05       		.byte	0x5
 1470 010c 34       		.byte	0x34
 1471 010d 4F010000 		.4byte	0x14f
 1472 0111 0D       		.byte	0xd
 1473 0112 08       		.uleb128 0x8
 1474 0113 C8030000 		.4byte	.LASF24
 1475 0117 05       		.byte	0x5
 1476 0118 35       		.byte	0x35
 1477 0119 5F010000 		.4byte	0x15f
 1478 011d 10       		.byte	0x10
 1479 011e 08       		.uleb128 0x8
 1480 011f 80030000 		.4byte	.LASF25
 1481 0123 05       		.byte	0x5
 1482 0124 36       		.byte	0x36
 1483 0125 6F010000 		.4byte	0x16f
 1484 0129 19       		.byte	0x19
 1485 012a 08       		.uleb128 0x8
 1486 012b 19000000 		.4byte	.LASF26
 1487 012f 05       		.byte	0x5
 1488 0130 37       		.byte	0x37
 1489 0131 7F010000 		.4byte	0x17f
 1490 0135 20       		.byte	0x20
 1491 0136 08       		.uleb128 0x8
 1492 0137 F0020000 		.4byte	.LASF27
 1493 013b 05       		.byte	0x5
 1494 013c 38       		.byte	0x38
 1495 013d 8F010000 		.4byte	0x18f
 1496 0141 24       		.byte	0x24
 1497 0142 00       		.byte	0
 1498 0143 06       		.uleb128 0x6
 1499 0144 04       		.byte	0x4
 1500 0145 C8000000 		.4byte	0xc8
 1501 0149 06       		.uleb128 0x6
 1502 014a 04       		.byte	0x4
 1503 014b A5000000 		.4byte	0xa5
 1504 014f 09       		.uleb128 0x9
 1505 0150 B3000000 		.4byte	0xb3
 1506 0154 5F010000 		.4byte	0x15f
 1507 0158 0A       		.uleb128 0xa
 1508 0159 C1000000 		.4byte	0xc1
ARM GAS  C:\Users\klabu\AppData\Local\Temp\cc4lE0vh.s 			page 33


 1509 015d 02       		.byte	0x2
 1510 015e 00       		.byte	0
 1511 015f 09       		.uleb128 0x9
 1512 0160 B3000000 		.4byte	0xb3
 1513 0164 6F010000 		.4byte	0x16f
 1514 0168 0A       		.uleb128 0xa
 1515 0169 C1000000 		.4byte	0xc1
 1516 016d 08       		.byte	0x8
 1517 016e 00       		.byte	0
 1518 016f 09       		.uleb128 0x9
 1519 0170 B3000000 		.4byte	0xb3
 1520 0174 7F010000 		.4byte	0x17f
 1521 0178 0A       		.uleb128 0xa
 1522 0179 C1000000 		.4byte	0xc1
 1523 017d 06       		.byte	0x6
 1524 017e 00       		.byte	0
 1525 017f 09       		.uleb128 0x9
 1526 0180 B3000000 		.4byte	0xb3
 1527 0184 8F010000 		.4byte	0x18f
 1528 0188 0A       		.uleb128 0xa
 1529 0189 C1000000 		.4byte	0xc1
 1530 018d 03       		.byte	0x3
 1531 018e 00       		.byte	0
 1532 018f 09       		.uleb128 0x9
 1533 0190 B3000000 		.4byte	0xb3
 1534 0194 9F010000 		.4byte	0x19f
 1535 0198 0A       		.uleb128 0xa
 1536 0199 C1000000 		.4byte	0xc1
 1537 019d 0D       		.byte	0xd
 1538 019e 00       		.byte	0
 1539 019f 03       		.uleb128 0x3
 1540 01a0 0B010000 		.4byte	.LASF28
 1541 01a4 05       		.byte	0x5
 1542 01a5 39       		.byte	0x39
 1543 01a6 CE000000 		.4byte	0xce
 1544 01aa 07       		.uleb128 0x7
 1545 01ab E4       		.byte	0xe4
 1546 01ac 06       		.byte	0x6
 1547 01ad 1D       		.byte	0x1d
 1548 01ae 5B020000 		.4byte	0x25b
 1549 01b2 08       		.uleb128 0x8
 1550 01b3 86030000 		.4byte	.LASF22
 1551 01b7 06       		.byte	0x6
 1552 01b8 1F       		.byte	0x1f
 1553 01b9 81000000 		.4byte	0x81
 1554 01bd 00       		.byte	0
 1555 01be 08       		.uleb128 0x8
 1556 01bf 8C030000 		.4byte	.LASF29
 1557 01c3 06       		.byte	0x6
 1558 01c4 20       		.byte	0x20
 1559 01c5 81000000 		.4byte	0x81
 1560 01c9 01       		.byte	0x1
 1561 01ca 08       		.uleb128 0x8
 1562 01cb C2010000 		.4byte	.LASF21
 1563 01cf 06       		.byte	0x6
 1564 01d0 22       		.byte	0x22
 1565 01d1 49010000 		.4byte	0x149
ARM GAS  C:\Users\klabu\AppData\Local\Temp\cc4lE0vh.s 			page 34


 1566 01d5 04       		.byte	0x4
 1567 01d6 08       		.uleb128 0x8
 1568 01d7 21000000 		.4byte	.LASF20
 1569 01db 06       		.byte	0x6
 1570 01dc 23       		.byte	0x23
 1571 01dd 43010000 		.4byte	0x143
 1572 01e1 08       		.byte	0x8
 1573 01e2 08       		.uleb128 0x8
 1574 01e3 91030000 		.4byte	.LASF30
 1575 01e7 06       		.byte	0x6
 1576 01e8 25       		.byte	0x25
 1577 01e9 5B020000 		.4byte	0x25b
 1578 01ed 0C       		.byte	0xc
 1579 01ee 08       		.uleb128 0x8
 1580 01ef 97030000 		.4byte	.LASF31
 1581 01f3 06       		.byte	0x6
 1582 01f4 25       		.byte	0x25
 1583 01f5 6B020000 		.4byte	0x26b
 1584 01f9 1C       		.byte	0x1c
 1585 01fa 08       		.uleb128 0x8
 1586 01fb 9D030000 		.4byte	.LASF32
 1587 01ff 06       		.byte	0x6
 1588 0200 25       		.byte	0x25
 1589 0201 7B020000 		.4byte	0x27b
 1590 0205 30       		.byte	0x30
 1591 0206 08       		.uleb128 0x8
 1592 0207 A3030000 		.4byte	.LASF33
 1593 020b 06       		.byte	0x6
 1594 020c 25       		.byte	0x25
 1595 020d 7B020000 		.4byte	0x27b
 1596 0211 48       		.byte	0x48
 1597 0212 08       		.uleb128 0x8
 1598 0213 C9010000 		.4byte	.LASF34
 1599 0217 06       		.byte	0x6
 1600 0218 25       		.byte	0x25
 1601 0219 7B020000 		.4byte	0x27b
 1602 021d 60       		.byte	0x60
 1603 021e 08       		.uleb128 0x8
 1604 021f B0030000 		.4byte	.LASF35
 1605 0223 06       		.byte	0x6
 1606 0224 25       		.byte	0x25
 1607 0225 7B020000 		.4byte	0x27b
 1608 0229 78       		.byte	0x78
 1609 022a 08       		.uleb128 0x8
 1610 022b B6030000 		.4byte	.LASF36
 1611 022f 06       		.byte	0x6
 1612 0230 25       		.byte	0x25
 1613 0231 7B020000 		.4byte	0x27b
 1614 0235 90       		.byte	0x90
 1615 0236 08       		.uleb128 0x8
 1616 0237 BC030000 		.4byte	.LASF37
 1617 023b 06       		.byte	0x6
 1618 023c 25       		.byte	0x25
 1619 023d 7B020000 		.4byte	0x27b
 1620 0241 A8       		.byte	0xa8
 1621 0242 08       		.uleb128 0x8
 1622 0243 C2030000 		.4byte	.LASF38
ARM GAS  C:\Users\klabu\AppData\Local\Temp\cc4lE0vh.s 			page 35


 1623 0247 06       		.byte	0x6
 1624 0248 25       		.byte	0x25
 1625 0249 5B020000 		.4byte	0x25b
 1626 024d C0       		.byte	0xc0
 1627 024e 08       		.uleb128 0x8
 1628 024f DC010000 		.4byte	.LASF39
 1629 0253 06       		.byte	0x6
 1630 0254 25       		.byte	0x25
 1631 0255 6B020000 		.4byte	0x26b
 1632 0259 D0       		.byte	0xd0
 1633 025a 00       		.byte	0
 1634 025b 09       		.uleb128 0x9
 1635 025c A5000000 		.4byte	0xa5
 1636 0260 6B020000 		.4byte	0x26b
 1637 0264 0A       		.uleb128 0xa
 1638 0265 C1000000 		.4byte	0xc1
 1639 0269 03       		.byte	0x3
 1640 026a 00       		.byte	0
 1641 026b 09       		.uleb128 0x9
 1642 026c A5000000 		.4byte	0xa5
 1643 0270 7B020000 		.4byte	0x27b
 1644 0274 0A       		.uleb128 0xa
 1645 0275 C1000000 		.4byte	0xc1
 1646 0279 04       		.byte	0x4
 1647 027a 00       		.byte	0
 1648 027b 09       		.uleb128 0x9
 1649 027c A5000000 		.4byte	0xa5
 1650 0280 8B020000 		.4byte	0x28b
 1651 0284 0A       		.uleb128 0xa
 1652 0285 C1000000 		.4byte	0xc1
 1653 0289 05       		.byte	0x5
 1654 028a 00       		.byte	0
 1655 028b 03       		.uleb128 0x3
 1656 028c 09000000 		.4byte	.LASF40
 1657 0290 06       		.byte	0x6
 1658 0291 28       		.byte	0x28
 1659 0292 AA010000 		.4byte	0x1aa
 1660 0296 07       		.uleb128 0x7
 1661 0297 2C       		.byte	0x2c
 1662 0298 07       		.byte	0x7
 1663 0299 14       		.byte	0x14
 1664 029a C3020000 		.4byte	0x2c3
 1665 029e 0B       		.uleb128 0xb
 1666 029f 6B657900 		.ascii	"key\000"
 1667 02a3 07       		.byte	0x7
 1668 02a4 15       		.byte	0x15
 1669 02a5 C3020000 		.4byte	0x2c3
 1670 02a9 00       		.byte	0
 1671 02aa 08       		.uleb128 0x8
 1672 02ab E6000000 		.4byte	.LASF41
 1673 02af 07       		.byte	0x7
 1674 02b0 16       		.byte	0x16
 1675 02b1 C3020000 		.4byte	0x2c3
 1676 02b5 14       		.byte	0x14
 1677 02b6 08       		.uleb128 0x8
 1678 02b7 36000000 		.4byte	.LASF42
 1679 02bb 07       		.byte	0x7
ARM GAS  C:\Users\klabu\AppData\Local\Temp\cc4lE0vh.s 			page 36


 1680 02bc 17       		.byte	0x17
 1681 02bd 99000000 		.4byte	0x99
 1682 02c1 28       		.byte	0x28
 1683 02c2 00       		.byte	0
 1684 02c3 09       		.uleb128 0x9
 1685 02c4 B3000000 		.4byte	0xb3
 1686 02c8 D3020000 		.4byte	0x2d3
 1687 02cc 0A       		.uleb128 0xa
 1688 02cd C1000000 		.4byte	0xc1
 1689 02d1 13       		.byte	0x13
 1690 02d2 00       		.byte	0
 1691 02d3 03       		.uleb128 0x3
 1692 02d4 55020000 		.4byte	.LASF43
 1693 02d8 07       		.byte	0x7
 1694 02d9 19       		.byte	0x19
 1695 02da 96020000 		.4byte	0x296
 1696 02de 07       		.uleb128 0x7
 1697 02df 3C       		.byte	0x3c
 1698 02e0 08       		.byte	0x8
 1699 02e1 36       		.byte	0x36
 1700 02e2 0B030000 		.4byte	0x30b
 1701 02e6 08       		.uleb128 0x8
 1702 02e7 12000000 		.4byte	.LASF44
 1703 02eb 08       		.byte	0x8
 1704 02ec 37       		.byte	0x37
 1705 02ed C3020000 		.4byte	0x2c3
 1706 02f1 00       		.byte	0
 1707 02f2 08       		.uleb128 0x8
 1708 02f3 00000000 		.4byte	.LASF45
 1709 02f7 08       		.byte	0x8
 1710 02f8 38       		.byte	0x38
 1711 02f9 C3020000 		.4byte	0x2c3
 1712 02fd 14       		.byte	0x14
 1713 02fe 08       		.uleb128 0x8
 1714 02ff E3020000 		.4byte	.LASF46
 1715 0303 08       		.byte	0x8
 1716 0304 39       		.byte	0x39
 1717 0305 C3020000 		.4byte	0x2c3
 1718 0309 28       		.byte	0x28
 1719 030a 00       		.byte	0
 1720 030b 03       		.uleb128 0x3
 1721 030c 91010000 		.4byte	.LASF47
 1722 0310 08       		.byte	0x8
 1723 0311 3B       		.byte	0x3b
 1724 0312 DE020000 		.4byte	0x2de
 1725 0316 07       		.uleb128 0x7
 1726 0317 20       		.byte	0x20
 1727 0318 08       		.byte	0x8
 1728 0319 3D       		.byte	0x3d
 1729 031a 7F030000 		.4byte	0x37f
 1730 031e 08       		.uleb128 0x8
 1731 031f 61020000 		.4byte	.LASF48
 1732 0323 08       		.byte	0x8
 1733 0324 3E       		.byte	0x3e
 1734 0325 68000000 		.4byte	0x68
 1735 0329 00       		.byte	0
 1736 032a 0B       		.uleb128 0xb
ARM GAS  C:\Users\klabu\AppData\Local\Temp\cc4lE0vh.s 			page 37


 1737 032b 62657200 		.ascii	"ber\000"
 1738 032f 08       		.byte	0x8
 1739 0330 3F       		.byte	0x3f
 1740 0331 68000000 		.4byte	0x68
 1741 0335 04       		.byte	0x4
 1742 0336 08       		.uleb128 0x8
 1743 0337 18010000 		.4byte	.LASF49
 1744 033b 08       		.byte	0x8
 1745 033c 40       		.byte	0x40
 1746 033d 68000000 		.4byte	0x68
 1747 0341 08       		.byte	0x8
 1748 0342 08       		.uleb128 0x8
 1749 0343 D7000000 		.4byte	.LASF50
 1750 0347 08       		.byte	0x8
 1751 0348 41       		.byte	0x41
 1752 0349 68000000 		.4byte	0x68
 1753 034d 0C       		.byte	0xc
 1754 034e 08       		.uleb128 0x8
 1755 034f 10030000 		.4byte	.LASF51
 1756 0353 08       		.byte	0x8
 1757 0354 42       		.byte	0x42
 1758 0355 68000000 		.4byte	0x68
 1759 0359 10       		.byte	0x10
 1760 035a 08       		.uleb128 0x8
 1761 035b 1D010000 		.4byte	.LASF52
 1762 035f 08       		.byte	0x8
 1763 0360 43       		.byte	0x43
 1764 0361 68000000 		.4byte	0x68
 1765 0365 14       		.byte	0x14
 1766 0366 08       		.uleb128 0x8
 1767 0367 B0020000 		.4byte	.LASF53
 1768 036b 08       		.byte	0x8
 1769 036c 44       		.byte	0x44
 1770 036d 68000000 		.4byte	0x68
 1771 0371 18       		.byte	0x18
 1772 0372 08       		.uleb128 0x8
 1773 0373 D0020000 		.4byte	.LASF54
 1774 0377 08       		.byte	0x8
 1775 0378 45       		.byte	0x45
 1776 0379 68000000 		.4byte	0x68
 1777 037d 1C       		.byte	0x1c
 1778 037e 00       		.byte	0
 1779 037f 03       		.uleb128 0x3
 1780 0380 F7020000 		.4byte	.LASF55
 1781 0384 08       		.byte	0x8
 1782 0385 47       		.byte	0x47
 1783 0386 16030000 		.4byte	0x316
 1784 038a 07       		.uleb128 0x7
 1785 038b 05       		.byte	0x5
 1786 038c 08       		.byte	0x8
 1787 038d 53       		.byte	0x53
 1788 038e CF030000 		.4byte	0x3cf
 1789 0392 08       		.uleb128 0x8
 1790 0393 CF030000 		.4byte	.LASF56
 1791 0397 08       		.byte	0x8
 1792 0398 55       		.byte	0x55
 1793 0399 81000000 		.4byte	0x81
ARM GAS  C:\Users\klabu\AppData\Local\Temp\cc4lE0vh.s 			page 38


 1794 039d 00       		.byte	0
 1795 039e 08       		.uleb128 0x8
 1796 039f 94020000 		.4byte	.LASF57
 1797 03a3 08       		.byte	0x8
 1798 03a4 57       		.byte	0x57
 1799 03a5 CF030000 		.4byte	0x3cf
 1800 03a9 01       		.byte	0x1
 1801 03aa 08       		.uleb128 0x8
 1802 03ab CF010000 		.4byte	.LASF58
 1803 03af 08       		.byte	0x8
 1804 03b0 59       		.byte	0x59
 1805 03b1 81000000 		.4byte	0x81
 1806 03b5 02       		.byte	0x2
 1807 03b6 08       		.uleb128 0x8
 1808 03b7 67020000 		.4byte	.LASF59
 1809 03bb 08       		.byte	0x8
 1810 03bc 5B       		.byte	0x5b
 1811 03bd 81000000 		.4byte	0x81
 1812 03c1 03       		.byte	0x3
 1813 03c2 08       		.uleb128 0x8
 1814 03c3 6A030000 		.4byte	.LASF60
 1815 03c7 08       		.byte	0x8
 1816 03c8 5E       		.byte	0x5e
 1817 03c9 81000000 		.4byte	0x81
 1818 03cd 04       		.byte	0x4
 1819 03ce 00       		.byte	0
 1820 03cf 02       		.uleb128 0x2
 1821 03d0 01       		.byte	0x1
 1822 03d1 02       		.byte	0x2
 1823 03d2 05030000 		.4byte	.LASF61
 1824 03d6 03       		.uleb128 0x3
 1825 03d7 7D020000 		.4byte	.LASF62
 1826 03db 08       		.byte	0x8
 1827 03dc 60       		.byte	0x60
 1828 03dd 8A030000 		.4byte	0x38a
 1829 03e1 0C       		.uleb128 0xc
 1830 03e2 53010000 		.4byte	.LASF80
 1831 03e6 01       		.byte	0x1
 1832 03e7 05       		.byte	0x5
 1833 03e8 8B020000 		.4byte	0x28b
 1834 03ec 00000000 		.4byte	.LFB64
 1835 03f0 62090000 		.4byte	.LFE64-.LFB64
 1836 03f4 01       		.uleb128 0x1
 1837 03f5 9C       		.byte	0x9c
 1838 03f6 79040000 		.4byte	0x479
 1839 03fa 0D       		.uleb128 0xd
 1840 03fb 41030000 		.4byte	.LASF63
 1841 03ff 01       		.byte	0x1
 1842 0400 0F       		.byte	0xf
 1843 0401 79040000 		.4byte	0x479
 1844 0405 03       		.uleb128 0x3
 1845 0406 91       		.byte	0x91
 1846 0407 A87E     		.sleb128 -216
 1847 0409 0D       		.uleb128 0xd
 1848 040a 28000000 		.4byte	.LASF64
 1849 040e 01       		.byte	0x1
 1850 040f 1A       		.byte	0x1a
ARM GAS  C:\Users\klabu\AppData\Local\Temp\cc4lE0vh.s 			page 39


 1851 0410 89040000 		.4byte	0x489
 1852 0414 03       		.uleb128 0x3
 1853 0415 91       		.byte	0x91
 1854 0416 D07C     		.sleb128 -432
 1855 0418 0D       		.uleb128 0xd
 1856 0419 A9030000 		.4byte	.LASF65
 1857 041d 01       		.byte	0x1
 1858 041e 25       		.byte	0x25
 1859 041f 9F010000 		.4byte	0x19f
 1860 0423 03       		.uleb128 0x3
 1861 0424 91       		.byte	0x91
 1862 0425 9C7C     		.sleb128 -484
 1863 0427 0D       		.uleb128 0xd
 1864 0428 22010000 		.4byte	.LASF66
 1865 042c 01       		.byte	0x1
 1866 042d 2C       		.byte	0x2c
 1867 042e 8B020000 		.4byte	0x28b
 1868 0432 03       		.uleb128 0x3
 1869 0433 91       		.byte	0x91
 1870 0434 B87A     		.sleb128 -712
 1871 0436 0E       		.uleb128 0xe
 1872 0437 6E020000 		.4byte	.LBB2
 1873 043b C2060000 		.4byte	.LBE2-.LBB2
 1874 043f 0F       		.uleb128 0xf
 1875 0440 6900     		.ascii	"i\000"
 1876 0442 01       		.byte	0x1
 1877 0443 42       		.byte	0x42
 1878 0444 81000000 		.4byte	0x81
 1879 0448 02       		.uleb128 0x2
 1880 0449 91       		.byte	0x91
 1881 044a 77       		.sleb128 -9
 1882 044b 0E       		.uleb128 0xe
 1883 044c A2020000 		.4byte	.LBB3
 1884 0450 70060000 		.4byte	.LBE3-.LBB3
 1885 0454 0F       		.uleb128 0xf
 1886 0455 6B00     		.ascii	"k\000"
 1887 0457 01       		.byte	0x1
 1888 0458 4D       		.byte	0x4d
 1889 0459 81000000 		.4byte	0x81
 1890 045d 02       		.uleb128 0x2
 1891 045e 91       		.byte	0x91
 1892 045f 76       		.sleb128 -10
 1893 0460 0E       		.uleb128 0xe
 1894 0461 AA020000 		.4byte	.LBB4
 1895 0465 54060000 		.4byte	.LBE4-.LBB4
 1896 0469 0F       		.uleb128 0xf
 1897 046a 6A00     		.ascii	"j\000"
 1898 046c 01       		.byte	0x1
 1899 046d 4F       		.byte	0x4f
 1900 046e 81000000 		.4byte	0x81
 1901 0472 02       		.uleb128 0x2
 1902 0473 91       		.byte	0x91
 1903 0474 75       		.sleb128 -11
 1904 0475 00       		.byte	0
 1905 0476 00       		.byte	0
 1906 0477 00       		.byte	0
 1907 0478 00       		.byte	0
ARM GAS  C:\Users\klabu\AppData\Local\Temp\cc4lE0vh.s 			page 40


 1908 0479 09       		.uleb128 0x9
 1909 047a C8000000 		.4byte	0xc8
 1910 047e 89040000 		.4byte	0x489
 1911 0482 0A       		.uleb128 0xa
 1912 0483 C1000000 		.4byte	0xc1
 1913 0487 32       		.byte	0x32
 1914 0488 00       		.byte	0
 1915 0489 09       		.uleb128 0x9
 1916 048a A5000000 		.4byte	0xa5
 1917 048e 99040000 		.4byte	0x499
 1918 0492 0A       		.uleb128 0xa
 1919 0493 C1000000 		.4byte	0xc1
 1920 0497 35       		.byte	0x35
 1921 0498 00       		.byte	0
 1922 0499 10       		.uleb128 0x10
 1923 049a 34030000 		.4byte	.LASF67
 1924 049e 09       		.byte	0x9
 1925 049f 1207     		.2byte	0x712
 1926 04a1 A5040000 		.4byte	0x4a5
 1927 04a5 11       		.uleb128 0x11
 1928 04a6 76000000 		.4byte	0x76
 1929 04aa 12       		.uleb128 0x12
 1930 04ab A7010000 		.4byte	.LASF68
 1931 04af 07       		.byte	0x7
 1932 04b0 11       		.byte	0x11
 1933 04b1 CF030000 		.4byte	0x3cf
 1934 04b5 05       		.uleb128 0x5
 1935 04b6 03       		.byte	0x3
 1936 04b7 00000000 		.4byte	buffer_overflow
 1937 04bb 12       		.uleb128 0x12
 1938 04bc F3000000 		.4byte	.LASF69
 1939 04c0 07       		.byte	0x7
 1940 04c1 22       		.byte	0x22
 1941 04c2 8D000000 		.4byte	0x8d
 1942 04c6 05       		.uleb128 0x5
 1943 04c7 03       		.byte	0x3
 1944 04c8 00000000 		.4byte	dataPointsInStack
 1945 04cc 12       		.uleb128 0x12
 1946 04cd 2B010000 		.4byte	.LASF70
 1947 04d1 07       		.byte	0x7
 1948 04d2 23       		.byte	0x23
 1949 04d3 8D000000 		.4byte	0x8d
 1950 04d7 05       		.uleb128 0x5
 1951 04d8 03       		.byte	0x3
 1952 04d9 00000000 		.4byte	dataPointsInStackDesired
 1953 04dd 09       		.uleb128 0x9
 1954 04de D3020000 		.4byte	0x2d3
 1955 04e2 ED040000 		.4byte	0x4ed
 1956 04e6 0A       		.uleb128 0xa
 1957 04e7 C1000000 		.4byte	0xc1
 1958 04eb 95       		.byte	0x95
 1959 04ec 00       		.byte	0
 1960 04ed 12       		.uleb128 0x12
 1961 04ee 0B030000 		.4byte	.LASF71
 1962 04f2 07       		.byte	0x7
 1963 04f3 24       		.byte	0x24
 1964 04f4 DD040000 		.4byte	0x4dd
ARM GAS  C:\Users\klabu\AppData\Local\Temp\cc4lE0vh.s 			page 41


 1965 04f8 05       		.uleb128 0x5
 1966 04f9 03       		.byte	0x3
 1967 04fa 00000000 		.4byte	data
 1968 04fe 12       		.uleb128 0x12
 1969 04ff 28020000 		.4byte	.LASF72
 1970 0503 08       		.byte	0x8
 1971 0504 20       		.byte	0x20
 1972 0505 81000000 		.4byte	0x81
 1973 0509 05       		.uleb128 0x5
 1974 050a 03       		.byte	0x3
 1975 050b 00000000 		.4byte	modem_state
 1976 050f 12       		.uleb128 0x12
 1977 0510 11020000 		.4byte	.LASF73
 1978 0514 08       		.byte	0x8
 1979 0515 63       		.byte	0x63
 1980 0516 99000000 		.4byte	0x99
 1981 051a 05       		.uleb128 0x5
 1982 051b 03       		.byte	0x3
 1983 051c 00000000 		.4byte	modem_start_time_stamp
 1984 0520 12       		.uleb128 0x12
 1985 0521 B7010000 		.4byte	.LASF74
 1986 0525 08       		.byte	0x8
 1987 0526 64       		.byte	0x64
 1988 0527 0B030000 		.4byte	0x30b
 1989 052b 05       		.uleb128 0x5
 1990 052c 03       		.byte	0x3
 1991 052d 00000000 		.4byte	modem_info
 1992 0531 12       		.uleb128 0x12
 1993 0532 71020000 		.4byte	.LASF75
 1994 0536 08       		.byte	0x8
 1995 0537 65       		.byte	0x65
 1996 0538 7F030000 		.4byte	0x37f
 1997 053c 05       		.uleb128 0x5
 1998 053d 03       		.byte	0x3
 1999 053e 00000000 		.4byte	modem_stats
 2000 0542 12       		.uleb128 0x12
 2001 0543 EE010000 		.4byte	.LASF76
 2002 0547 08       		.byte	0x8
 2003 0548 66       		.byte	0x66
 2004 0549 D6030000 		.4byte	0x3d6
 2005 054d 05       		.uleb128 0x5
 2006 054e 03       		.byte	0x3
 2007 054f 00000000 		.4byte	updatable_parameters
 2008 0553 00       		.byte	0
 2009              		.section	.debug_abbrev,"",%progbits
 2010              	.Ldebug_abbrev0:
 2011 0000 01       		.uleb128 0x1
 2012 0001 11       		.uleb128 0x11
 2013 0002 01       		.byte	0x1
 2014 0003 25       		.uleb128 0x25
 2015 0004 0E       		.uleb128 0xe
 2016 0005 13       		.uleb128 0x13
 2017 0006 0B       		.uleb128 0xb
 2018 0007 03       		.uleb128 0x3
 2019 0008 0E       		.uleb128 0xe
 2020 0009 1B       		.uleb128 0x1b
 2021 000a 0E       		.uleb128 0xe
ARM GAS  C:\Users\klabu\AppData\Local\Temp\cc4lE0vh.s 			page 42


 2022 000b 55       		.uleb128 0x55
 2023 000c 17       		.uleb128 0x17
 2024 000d 11       		.uleb128 0x11
 2025 000e 01       		.uleb128 0x1
 2026 000f 10       		.uleb128 0x10
 2027 0010 17       		.uleb128 0x17
 2028 0011 00       		.byte	0
 2029 0012 00       		.byte	0
 2030 0013 02       		.uleb128 0x2
 2031 0014 24       		.uleb128 0x24
 2032 0015 00       		.byte	0
 2033 0016 0B       		.uleb128 0xb
 2034 0017 0B       		.uleb128 0xb
 2035 0018 3E       		.uleb128 0x3e
 2036 0019 0B       		.uleb128 0xb
 2037 001a 03       		.uleb128 0x3
 2038 001b 0E       		.uleb128 0xe
 2039 001c 00       		.byte	0
 2040 001d 00       		.byte	0
 2041 001e 03       		.uleb128 0x3
 2042 001f 16       		.uleb128 0x16
 2043 0020 00       		.byte	0
 2044 0021 03       		.uleb128 0x3
 2045 0022 0E       		.uleb128 0xe
 2046 0023 3A       		.uleb128 0x3a
 2047 0024 0B       		.uleb128 0xb
 2048 0025 3B       		.uleb128 0x3b
 2049 0026 0B       		.uleb128 0xb
 2050 0027 49       		.uleb128 0x49
 2051 0028 13       		.uleb128 0x13
 2052 0029 00       		.byte	0
 2053 002a 00       		.byte	0
 2054 002b 04       		.uleb128 0x4
 2055 002c 24       		.uleb128 0x24
 2056 002d 00       		.byte	0
 2057 002e 0B       		.uleb128 0xb
 2058 002f 0B       		.uleb128 0xb
 2059 0030 3E       		.uleb128 0x3e
 2060 0031 0B       		.uleb128 0xb
 2061 0032 03       		.uleb128 0x3
 2062 0033 08       		.uleb128 0x8
 2063 0034 00       		.byte	0
 2064 0035 00       		.byte	0
 2065 0036 05       		.uleb128 0x5
 2066 0037 16       		.uleb128 0x16
 2067 0038 00       		.byte	0
 2068 0039 03       		.uleb128 0x3
 2069 003a 0E       		.uleb128 0xe
 2070 003b 3A       		.uleb128 0x3a
 2071 003c 0B       		.uleb128 0xb
 2072 003d 3B       		.uleb128 0x3b
 2073 003e 05       		.uleb128 0x5
 2074 003f 49       		.uleb128 0x49
 2075 0040 13       		.uleb128 0x13
 2076 0041 00       		.byte	0
 2077 0042 00       		.byte	0
 2078 0043 06       		.uleb128 0x6
ARM GAS  C:\Users\klabu\AppData\Local\Temp\cc4lE0vh.s 			page 43


 2079 0044 0F       		.uleb128 0xf
 2080 0045 00       		.byte	0
 2081 0046 0B       		.uleb128 0xb
 2082 0047 0B       		.uleb128 0xb
 2083 0048 49       		.uleb128 0x49
 2084 0049 13       		.uleb128 0x13
 2085 004a 00       		.byte	0
 2086 004b 00       		.byte	0
 2087 004c 07       		.uleb128 0x7
 2088 004d 13       		.uleb128 0x13
 2089 004e 01       		.byte	0x1
 2090 004f 0B       		.uleb128 0xb
 2091 0050 0B       		.uleb128 0xb
 2092 0051 3A       		.uleb128 0x3a
 2093 0052 0B       		.uleb128 0xb
 2094 0053 3B       		.uleb128 0x3b
 2095 0054 0B       		.uleb128 0xb
 2096 0055 01       		.uleb128 0x1
 2097 0056 13       		.uleb128 0x13
 2098 0057 00       		.byte	0
 2099 0058 00       		.byte	0
 2100 0059 08       		.uleb128 0x8
 2101 005a 0D       		.uleb128 0xd
 2102 005b 00       		.byte	0
 2103 005c 03       		.uleb128 0x3
 2104 005d 0E       		.uleb128 0xe
 2105 005e 3A       		.uleb128 0x3a
 2106 005f 0B       		.uleb128 0xb
 2107 0060 3B       		.uleb128 0x3b
 2108 0061 0B       		.uleb128 0xb
 2109 0062 49       		.uleb128 0x49
 2110 0063 13       		.uleb128 0x13
 2111 0064 38       		.uleb128 0x38
 2112 0065 0B       		.uleb128 0xb
 2113 0066 00       		.byte	0
 2114 0067 00       		.byte	0
 2115 0068 09       		.uleb128 0x9
 2116 0069 01       		.uleb128 0x1
 2117 006a 01       		.byte	0x1
 2118 006b 49       		.uleb128 0x49
 2119 006c 13       		.uleb128 0x13
 2120 006d 01       		.uleb128 0x1
 2121 006e 13       		.uleb128 0x13
 2122 006f 00       		.byte	0
 2123 0070 00       		.byte	0
 2124 0071 0A       		.uleb128 0xa
 2125 0072 21       		.uleb128 0x21
 2126 0073 00       		.byte	0
 2127 0074 49       		.uleb128 0x49
 2128 0075 13       		.uleb128 0x13
 2129 0076 2F       		.uleb128 0x2f
 2130 0077 0B       		.uleb128 0xb
 2131 0078 00       		.byte	0
 2132 0079 00       		.byte	0
 2133 007a 0B       		.uleb128 0xb
 2134 007b 0D       		.uleb128 0xd
 2135 007c 00       		.byte	0
ARM GAS  C:\Users\klabu\AppData\Local\Temp\cc4lE0vh.s 			page 44


 2136 007d 03       		.uleb128 0x3
 2137 007e 08       		.uleb128 0x8
 2138 007f 3A       		.uleb128 0x3a
 2139 0080 0B       		.uleb128 0xb
 2140 0081 3B       		.uleb128 0x3b
 2141 0082 0B       		.uleb128 0xb
 2142 0083 49       		.uleb128 0x49
 2143 0084 13       		.uleb128 0x13
 2144 0085 38       		.uleb128 0x38
 2145 0086 0B       		.uleb128 0xb
 2146 0087 00       		.byte	0
 2147 0088 00       		.byte	0
 2148 0089 0C       		.uleb128 0xc
 2149 008a 2E       		.uleb128 0x2e
 2150 008b 01       		.byte	0x1
 2151 008c 3F       		.uleb128 0x3f
 2152 008d 19       		.uleb128 0x19
 2153 008e 03       		.uleb128 0x3
 2154 008f 0E       		.uleb128 0xe
 2155 0090 3A       		.uleb128 0x3a
 2156 0091 0B       		.uleb128 0xb
 2157 0092 3B       		.uleb128 0x3b
 2158 0093 0B       		.uleb128 0xb
 2159 0094 49       		.uleb128 0x49
 2160 0095 13       		.uleb128 0x13
 2161 0096 11       		.uleb128 0x11
 2162 0097 01       		.uleb128 0x1
 2163 0098 12       		.uleb128 0x12
 2164 0099 06       		.uleb128 0x6
 2165 009a 40       		.uleb128 0x40
 2166 009b 18       		.uleb128 0x18
 2167 009c 9642     		.uleb128 0x2116
 2168 009e 19       		.uleb128 0x19
 2169 009f 01       		.uleb128 0x1
 2170 00a0 13       		.uleb128 0x13
 2171 00a1 00       		.byte	0
 2172 00a2 00       		.byte	0
 2173 00a3 0D       		.uleb128 0xd
 2174 00a4 34       		.uleb128 0x34
 2175 00a5 00       		.byte	0
 2176 00a6 03       		.uleb128 0x3
 2177 00a7 0E       		.uleb128 0xe
 2178 00a8 3A       		.uleb128 0x3a
 2179 00a9 0B       		.uleb128 0xb
 2180 00aa 3B       		.uleb128 0x3b
 2181 00ab 0B       		.uleb128 0xb
 2182 00ac 49       		.uleb128 0x49
 2183 00ad 13       		.uleb128 0x13
 2184 00ae 02       		.uleb128 0x2
 2185 00af 18       		.uleb128 0x18
 2186 00b0 00       		.byte	0
 2187 00b1 00       		.byte	0
 2188 00b2 0E       		.uleb128 0xe
 2189 00b3 0B       		.uleb128 0xb
 2190 00b4 01       		.byte	0x1
 2191 00b5 11       		.uleb128 0x11
 2192 00b6 01       		.uleb128 0x1
ARM GAS  C:\Users\klabu\AppData\Local\Temp\cc4lE0vh.s 			page 45


 2193 00b7 12       		.uleb128 0x12
 2194 00b8 06       		.uleb128 0x6
 2195 00b9 00       		.byte	0
 2196 00ba 00       		.byte	0
 2197 00bb 0F       		.uleb128 0xf
 2198 00bc 34       		.uleb128 0x34
 2199 00bd 00       		.byte	0
 2200 00be 03       		.uleb128 0x3
 2201 00bf 08       		.uleb128 0x8
 2202 00c0 3A       		.uleb128 0x3a
 2203 00c1 0B       		.uleb128 0xb
 2204 00c2 3B       		.uleb128 0x3b
 2205 00c3 0B       		.uleb128 0xb
 2206 00c4 49       		.uleb128 0x49
 2207 00c5 13       		.uleb128 0x13
 2208 00c6 02       		.uleb128 0x2
 2209 00c7 18       		.uleb128 0x18
 2210 00c8 00       		.byte	0
 2211 00c9 00       		.byte	0
 2212 00ca 10       		.uleb128 0x10
 2213 00cb 34       		.uleb128 0x34
 2214 00cc 00       		.byte	0
 2215 00cd 03       		.uleb128 0x3
 2216 00ce 0E       		.uleb128 0xe
 2217 00cf 3A       		.uleb128 0x3a
 2218 00d0 0B       		.uleb128 0xb
 2219 00d1 3B       		.uleb128 0x3b
 2220 00d2 05       		.uleb128 0x5
 2221 00d3 49       		.uleb128 0x49
 2222 00d4 13       		.uleb128 0x13
 2223 00d5 3F       		.uleb128 0x3f
 2224 00d6 19       		.uleb128 0x19
 2225 00d7 3C       		.uleb128 0x3c
 2226 00d8 19       		.uleb128 0x19
 2227 00d9 00       		.byte	0
 2228 00da 00       		.byte	0
 2229 00db 11       		.uleb128 0x11
 2230 00dc 35       		.uleb128 0x35
 2231 00dd 00       		.byte	0
 2232 00de 49       		.uleb128 0x49
 2233 00df 13       		.uleb128 0x13
 2234 00e0 00       		.byte	0
 2235 00e1 00       		.byte	0
 2236 00e2 12       		.uleb128 0x12
 2237 00e3 34       		.uleb128 0x34
 2238 00e4 00       		.byte	0
 2239 00e5 03       		.uleb128 0x3
 2240 00e6 0E       		.uleb128 0xe
 2241 00e7 3A       		.uleb128 0x3a
 2242 00e8 0B       		.uleb128 0xb
 2243 00e9 3B       		.uleb128 0x3b
 2244 00ea 0B       		.uleb128 0xb
 2245 00eb 49       		.uleb128 0x49
 2246 00ec 13       		.uleb128 0x13
 2247 00ed 3F       		.uleb128 0x3f
 2248 00ee 19       		.uleb128 0x19
 2249 00ef 02       		.uleb128 0x2
ARM GAS  C:\Users\klabu\AppData\Local\Temp\cc4lE0vh.s 			page 46


 2250 00f0 18       		.uleb128 0x18
 2251 00f1 00       		.byte	0
 2252 00f2 00       		.byte	0
 2253 00f3 00       		.byte	0
 2254              		.section	.debug_aranges,"",%progbits
 2255 0000 1C000000 		.4byte	0x1c
 2256 0004 0200     		.2byte	0x2
 2257 0006 00000000 		.4byte	.Ldebug_info0
 2258 000a 04       		.byte	0x4
 2259 000b 00       		.byte	0
 2260 000c 0000     		.2byte	0
 2261 000e 0000     		.2byte	0
 2262 0010 00000000 		.4byte	.LFB64
 2263 0014 62090000 		.4byte	.LFE64-.LFB64
 2264 0018 00000000 		.4byte	0
 2265 001c 00000000 		.4byte	0
 2266              		.section	.debug_ranges,"",%progbits
 2267              	.Ldebug_ranges0:
 2268 0000 00000000 		.4byte	.LFB64
 2269 0004 62090000 		.4byte	.LFE64
 2270 0008 00000000 		.4byte	0
 2271 000c 00000000 		.4byte	0
 2272              		.section	.debug_line,"",%progbits
 2273              	.Ldebug_line0:
 2274 0000 C5030000 		.section	.debug_str,"MS",%progbits,1
 2274      02007A01 
 2274      00000201 
 2274      FB0E0D00 
 2274      01010101 
 2275              	.LASF45:
 2276 0000 6D6F6465 		.ascii	"model_id\000"
 2276      6C5F6964 
 2276      00
 2277              	.LASF40:
 2278 0009 736F6E74 		.ascii	"sontek_t\000"
 2278      656B5F74 
 2278      00
 2279              	.LASF44:
 2280 0012 73696D5F 		.ascii	"sim_id\000"
 2280      696400
 2281              	.LASF26:
 2282 0019 76657273 		.ascii	"version\000"
 2282      696F6E00 
 2283              	.LASF20:
 2284 0021 6C616265 		.ascii	"labels\000"
 2284      6C7300
 2285              	.LASF64:
 2286 0028 736F6E74 		.ascii	"sontek_values\000"
 2286      656B5F76 
 2286      616C7565 
 2286      7300
 2287              	.LASF42:
 2288 0036 74696D65 		.ascii	"timeStamp\000"
 2288      5374616D 
 2288      7000
 2289              	.LASF18:
 2290 0040 73697A65 		.ascii	"sizetype\000"
ARM GAS  C:\Users\klabu\AppData\Local\Temp\cc4lE0vh.s 			page 47


 2290      74797065 
 2290      00
 2291              	.LASF77:
 2292 0049 474E5520 		.ascii	"GNU C11 5.4.1 20160609 (release) [ARM/embedded-5-br"
 2292      43313120 
 2292      352E342E 
 2292      31203230 
 2292      31363036 
 2293 007c 616E6368 		.ascii	"anch revision 237715] -mcpu=cortex-m3 -mthumb -g -O"
 2293      20726576 
 2293      6973696F 
 2293      6E203233 
 2293      37373135 
 2294 00af 30202D66 		.ascii	"0 -ffunction-sections -ffat-lto-objects\000"
 2294      66756E63 
 2294      74696F6E 
 2294      2D736563 
 2294      74696F6E 
 2295              	.LASF50:
 2296 00d7 65636E6F 		.ascii	"ecno\000"
 2296      00
 2297              	.LASF2:
 2298 00dc 73686F72 		.ascii	"short int\000"
 2298      7420696E 
 2298      7400
 2299              	.LASF41:
 2300 00e6 76616C75 		.ascii	"value\000"
 2300      6500
 2301              	.LASF12:
 2302 00ec 75696E74 		.ascii	"uint16\000"
 2302      313600
 2303              	.LASF69:
 2304 00f3 64617461 		.ascii	"dataPointsInStack\000"
 2304      506F696E 
 2304      7473496E 
 2304      53746163 
 2304      6B00
 2305              	.LASF11:
 2306 0105 75696E74 		.ascii	"uint8\000"
 2306      3800
 2307              	.LASF28:
 2308 010b 53444931 		.ascii	"SDI12_sensor\000"
 2308      325F7365 
 2308      6E736F72 
 2308      00
 2309              	.LASF49:
 2310 0118 72736370 		.ascii	"rscp\000"
 2310      00
 2311              	.LASF52:
 2312 011d 72737270 		.ascii	"rsrp\000"
 2312      00
 2313              	.LASF66:
 2314 0122 6D5F736F 		.ascii	"m_sontek\000"
 2314      6E74656B 
 2314      00
 2315              	.LASF70:
 2316 012b 64617461 		.ascii	"dataPointsInStackDesired\000"
ARM GAS  C:\Users\klabu\AppData\Local\Temp\cc4lE0vh.s 			page 48


 2316      506F696E 
 2316      7473496E 
 2316      53746163 
 2316      6B446573 
 2317              	.LASF14:
 2318 0144 666C6F61 		.ascii	"float\000"
 2318      7400
 2319              	.LASF78:
 2320 014a 736F6E74 		.ascii	"sontek.c\000"
 2320      656B2E63 
 2320      00
 2321              	.LASF80:
 2322 0153 736F6E74 		.ascii	"sontek_take_reading\000"
 2322      656B5F74 
 2322      616B655F 
 2322      72656164 
 2322      696E6700 
 2323              	.LASF6:
 2324 0167 6C6F6E67 		.ascii	"long long int\000"
 2324      206C6F6E 
 2324      6720696E 
 2324      7400
 2325              	.LASF7:
 2326 0175 6C6F6E67 		.ascii	"long long unsigned int\000"
 2326      206C6F6E 
 2326      6720756E 
 2326      7369676E 
 2326      65642069 
 2327              	.LASF16:
 2328 018c 63686172 		.ascii	"char\000"
 2328      00
 2329              	.LASF47:
 2330 0191 6D6F6465 		.ascii	"modem_info_t\000"
 2330      6D5F696E 
 2330      666F5F74 
 2330      00
 2331              	.LASF4:
 2332 019e 6C6F6E67 		.ascii	"long int\000"
 2332      20696E74 
 2332      00
 2333              	.LASF68:
 2334 01a7 62756666 		.ascii	"buffer_overflow\000"
 2334      65725F6F 
 2334      76657266 
 2334      6C6F7700 
 2335              	.LASF74:
 2336 01b7 6D6F6465 		.ascii	"modem_info\000"
 2336      6D5F696E 
 2336      666F00
 2337              	.LASF21:
 2338 01c2 76616C75 		.ascii	"values\000"
 2338      657300
 2339              	.LASF34:
 2340 01c9 64617461 		.ascii	"data4\000"
 2340      3400
 2341              	.LASF58:
 2342 01cf 6D656173 		.ascii	"measure_time\000"
ARM GAS  C:\Users\klabu\AppData\Local\Temp\cc4lE0vh.s 			page 49


 2342      7572655F 
 2342      74696D65 
 2342      00
 2343              	.LASF39:
 2344 01dc 64617461 		.ascii	"data9\000"
 2344      3900
 2345              	.LASF17:
 2346 01e2 6C6F6E67 		.ascii	"long double\000"
 2346      20646F75 
 2346      626C6500 
 2347              	.LASF76:
 2348 01ee 75706461 		.ascii	"updatable_parameters\000"
 2348      7461626C 
 2348      655F7061 
 2348      72616D65 
 2348      74657273 
 2349              	.LASF1:
 2350 0203 756E7369 		.ascii	"unsigned char\000"
 2350      676E6564 
 2350      20636861 
 2350      7200
 2351              	.LASF73:
 2352 0211 6D6F6465 		.ascii	"modem_start_time_stamp\000"
 2352      6D5F7374 
 2352      6172745F 
 2352      74696D65 
 2352      5F737461 
 2353              	.LASF72:
 2354 0228 6D6F6465 		.ascii	"modem_state\000"
 2354      6D5F7374 
 2354      61746500 
 2355              	.LASF0:
 2356 0234 7369676E 		.ascii	"signed char\000"
 2356      65642063 
 2356      68617200 
 2357              	.LASF19:
 2358 0240 61646472 		.ascii	"address\000"
 2358      65737300 
 2359              	.LASF8:
 2360 0248 756E7369 		.ascii	"unsigned int\000"
 2360      676E6564 
 2360      20696E74 
 2360      00
 2361              	.LASF43:
 2362 0255 6B65795F 		.ascii	"key_value_t\000"
 2362      76616C75 
 2362      655F7400 
 2363              	.LASF48:
 2364 0261 72786C65 		.ascii	"rxlev\000"
 2364      7600
 2365              	.LASF59:
 2366 0267 73796E63 		.ascii	"sync_time\000"
 2366      5F74696D 
 2366      6500
 2367              	.LASF75:
 2368 0271 6D6F6465 		.ascii	"modem_stats\000"
 2368      6D5F7374 
ARM GAS  C:\Users\klabu\AppData\Local\Temp\cc4lE0vh.s 			page 50


 2368      61747300 
 2369              	.LASF62:
 2370 027d 75706461 		.ascii	"updatable_parameters_t\000"
 2370      7461626C 
 2370      655F7061 
 2370      72616D65 
 2370      74657273 
 2371              	.LASF57:
 2372 0294 73696D5F 		.ascii	"sim_type\000"
 2372      74797065 
 2372      00
 2373              	.LASF3:
 2374 029d 73686F72 		.ascii	"short unsigned int\000"
 2374      7420756E 
 2374      7369676E 
 2374      65642069 
 2374      6E7400
 2375              	.LASF53:
 2376 02b0 74696D65 		.ascii	"time_to_network_connect\000"
 2376      5F746F5F 
 2376      6E657477 
 2376      6F726B5F 
 2376      636F6E6E 
 2377              	.LASF23:
 2378 02c8 765F5344 		.ascii	"v_SDI12\000"
 2378      49313200 
 2379              	.LASF54:
 2380 02d0 74696D65 		.ascii	"time_to_acquire_ip\000"
 2380      5F746F5F 
 2380      61637175 
 2380      6972655F 
 2380      697000
 2381              	.LASF46:
 2382 02e3 696D6569 		.ascii	"imei\000"
 2382      00
 2383              	.LASF10:
 2384 02e8 696E7433 		.ascii	"int32_t\000"
 2384      325F7400 
 2385              	.LASF27:
 2386 02f0 73657269 		.ascii	"serial\000"
 2386      616C00
 2387              	.LASF55:
 2388 02f7 6D6F6465 		.ascii	"modem_stats_t\000"
 2388      6D5F7374 
 2388      6174735F 
 2388      7400
 2389              	.LASF61:
 2390 0305 5F426F6F 		.ascii	"_Bool\000"
 2390      6C00
 2391              	.LASF71:
 2392 030b 64617461 		.ascii	"data\000"
 2392      00
 2393              	.LASF51:
 2394 0310 72737271 		.ascii	"rsrq\000"
 2394      00
 2395              	.LASF5:
 2396 0315 6C6F6E67 		.ascii	"long unsigned int\000"
ARM GAS  C:\Users\klabu\AppData\Local\Temp\cc4lE0vh.s 			page 51


 2396      20756E73 
 2396      69676E65 
 2396      6420696E 
 2396      7400
 2397              	.LASF13:
 2398 0327 696E7433 		.ascii	"int32\000"
 2398      3200
 2399              	.LASF15:
 2400 032d 646F7562 		.ascii	"double\000"
 2400      6C6500
 2401              	.LASF67:
 2402 0334 49544D5F 		.ascii	"ITM_RxBuffer\000"
 2402      52784275 
 2402      66666572 
 2402      00
 2403              	.LASF63:
 2404 0341 736F6E74 		.ascii	"sontek_labels\000"
 2404      656B5F6C 
 2404      6162656C 
 2404      7300
 2405              	.LASF79:
 2406 034f 433A5C6E 		.ascii	"C:\\notoriOS\\notoriOS.cydsn\000"
 2406      6F746F72 
 2406      694F535C 
 2406      6E6F746F 
 2406      72694F53 
 2407              	.LASF60:
 2408 036a 64656275 		.ascii	"debug_level\000"
 2408      675F6C65 
 2408      76656C00 
 2409              	.LASF9:
 2410 0376 5F5F696E 		.ascii	"__int32_t\000"
 2410      7433325F 
 2410      7400
 2411              	.LASF25:
 2412 0380 6D6F6465 		.ascii	"model\000"
 2412      6C00
 2413              	.LASF22:
 2414 0386 6E766172 		.ascii	"nvars\000"
 2414      7300
 2415              	.LASF29:
 2416 038c 666C6167 		.ascii	"flag\000"
 2416      00
 2417              	.LASF30:
 2418 0391 64617461 		.ascii	"data0\000"
 2418      3000
 2419              	.LASF31:
 2420 0397 64617461 		.ascii	"data1\000"
 2420      3100
 2421              	.LASF32:
 2422 039d 64617461 		.ascii	"data2\000"
 2422      3200
 2423              	.LASF33:
 2424 03a3 64617461 		.ascii	"data3\000"
 2424      3300
 2425              	.LASF65:
 2426 03a9 736F6E74 		.ascii	"sontek\000"
ARM GAS  C:\Users\klabu\AppData\Local\Temp\cc4lE0vh.s 			page 52


 2426      656B00
 2427              	.LASF35:
 2428 03b0 64617461 		.ascii	"data5\000"
 2428      3500
 2429              	.LASF36:
 2430 03b6 64617461 		.ascii	"data6\000"
 2430      3600
 2431              	.LASF37:
 2432 03bc 64617461 		.ascii	"data7\000"
 2432      3700
 2433              	.LASF38:
 2434 03c2 64617461 		.ascii	"data8\000"
 2434      3800
 2435              	.LASF24:
 2436 03c8 76656E64 		.ascii	"vendor\000"
 2436      6F7200
 2437              	.LASF56:
 2438 03cf 6E6F6465 		.ascii	"node_type\000"
 2438      5F747970 
 2438      6500
 2439              		.ident	"GCC: (GNU Tools for ARM Embedded Processors) 5.4.1 20160609 (release) [ARM/embedded-5-bran
