ARM GAS  C:\Users\klabu\AppData\Local\Temp\ccgKCBve.s 			page 1


   1              		.syntax unified
   2              		.cpu cortex-m3
   3              		.fpu softvfp
   4              		.eabi_attribute 20, 1
   5              		.eabi_attribute 21, 1
   6              		.eabi_attribute 23, 3
   7              		.eabi_attribute 24, 1
   8              		.eabi_attribute 25, 1
   9              		.eabi_attribute 26, 1
  10              		.eabi_attribute 30, 6
  11              		.eabi_attribute 34, 1
  12              		.eabi_attribute 18, 4
  13              		.thumb
  14              		.syntax unified
  15              		.file	"sontek.c"
  16              		.text
  17              	.Ltext0:
  18              		.cfi_sections	.debug_frame
  19              		.comm	buffer_overflow,1,1
  20              		.comm	dataPointsInStack,2,2
  21              		.comm	dataPointsInStackDesired,2,2
  22              		.comm	data,6600,4
  23              		.comm	modem_state,1,1
  24              		.comm	modem_start_time_stamp,4,4
  25              		.comm	modem_info,60,4
  26              		.comm	modem_stats,32,4
  27              		.comm	updatable_parameters,5,4
  28              		.syntax unified
  29              		.global _printf_float
  30              		.section	.rodata
  31              		.align	2
  32              	.LC29:
  33 0000 4D00     		.ascii	"M\000"
  34 0002 0000     		.align	2
  35              	.LC30:
  36 0004 25732573 		.ascii	"%s%s%s\000"
  36      257300
  37 000b 00       		.align	2
  38              	.LC31:
  39 000c 2100     		.ascii	"!\000"
  40 000e 0000     		.align	2
  41              	.LC32:
  42 0010 4D3100   		.ascii	"M1\000"
  43 0013 00       		.align	2
  44              	.LC33:
  45 0014 4D3200   		.ascii	"M2\000"
  46 0017 00       		.align	2
  47              	.LC34:
  48 0018 0D0A00   		.ascii	"\015\012\000"
  49              		.global	__aeabi_d2uiz
  50 001b 00       		.align	2
  51              	.LC35:
  52 001c 443000   		.ascii	"D0\000"
  53 001f 00       		.align	2
  54              	.LC36:
  55 0020 443100   		.ascii	"D1\000"
  56 0023 00       		.align	2
ARM GAS  C:\Users\klabu\AppData\Local\Temp\ccgKCBve.s 			page 2


  57              	.LC37:
  58 0024 443200   		.ascii	"D2\000"
  59              		.global	__aeabi_d2f
  60              		.thumb
  61              		.syntax unified
  62              		.section	.text.SDI12_sontek_take_measurement,"ax",%progbits
  63              		.align	2
  64              		.global	SDI12_sontek_take_measurement
  65              		.thumb
  66              		.thumb_func
  67              		.type	SDI12_sontek_take_measurement, %function
  68              	SDI12_sontek_take_measurement:
  69              	.LFB64:
  70              		.file 1 "sontek.c"
   1:sontek.c      **** #include "sontek.h"
   2:sontek.c      **** #include "debug.h" //for strextract
   3:sontek.c      **** 
   4:sontek.c      **** /**
   5:sontek.c      ****  * @brief Take a measurement specifically for sontek sensor, given its address. Special case of SDI
   6:sontek.c      ****  * 
   7:sontek.c      ****  * @param sensor SDI12_sensor that we want to request measurements from
   8:sontek.c      ****  *
   9:sontek.c      ****  * @ return 1u if measurements were successfully taken, 0u if there was a communication error
  10:sontek.c      ****  */
  11:sontek.c      **** uint8 SDI12_sontek_take_measurement(SDI12_sensor* sensor) {
  71              		.loc 1 11 0
  72              		.cfi_startproc
  73              		@ args = 0, pretend = 0, frame = 240
  74              		@ frame_needed = 1, uses_anonymous_args = 0
  75 0000 90B5     		push	{r4, r7, lr}
  76              		.cfi_def_cfa_offset 12
  77              		.cfi_offset 4, -12
  78              		.cfi_offset 7, -8
  79              		.cfi_offset 14, -4
  80 0002 BFB0     		sub	sp, sp, #252
  81              		.cfi_def_cfa_offset 264
  82 0004 02AF     		add	r7, sp, #8
  83              		.cfi_def_cfa 7, 256
  84 0006 7860     		str	r0, [r7, #4]
  12:sontek.c      ****     
  13:sontek.c      ****     // The buffer and index are dependent on eachother. This buffer is implemented as a circular bu
  14:sontek.c      ****     static char SDI12_uart_buf[257] = {'\0'};
  15:sontek.c      ****     static uint8_t SDI12_buf_idx = 0u;
  16:sontek.c      ****     
  17:sontek.c      ****     // unsigned ints for taking measurements
  18:sontek.c      ****     uint8         i = 0u; // for iterating through sensor measurements
  85              		.loc 1 18 0
  86 0008 0023     		movs	r3, #0
  87 000a 87F8EF30 		strb	r3, [r7, #239]
  19:sontek.c      ****     uint8         j = 0u; //for iterating through M commands
  88              		.loc 1 19 0
  89 000e 0023     		movs	r3, #0
  90 0010 87F8EE30 		strb	r3, [r7, #238]
  20:sontek.c      ****     uint8         k = 0u; //for iterating through D commands
  91              		.loc 1 20 0
  92 0014 0023     		movs	r3, #0
  93 0016 87F8ED30 		strb	r3, [r7, #237]
ARM GAS  C:\Users\klabu\AppData\Local\Temp\ccgKCBve.s 			page 3


  21:sontek.c      ****     uint32 ms_delay = 0u; // for delaying the code while measurements are being taken
  94              		.loc 1 21 0
  95 001a 0023     		movs	r3, #0
  96 001c C7F8E830 		str	r3, [r7, #232]
  22:sontek.c      **** 
  23:sontek.c      ****     // string for constructing the command sent to the SDI12 sensor
  24:sontek.c      ****     char command[100] = {'\0'};
  97              		.loc 1 24 0
  98 0020 07F18003 		add	r3, r7, #128
  99 0024 6422     		movs	r2, #100
 100 0026 0021     		movs	r1, #0
 101 0028 1846     		mov	r0, r3
 102 002a FFF7FEFF 		bl	memset
  25:sontek.c      **** 
  26:sontek.c      ****     // string and pointer to store and parse SDI12 measurement results
  27:sontek.c      ****     char value_str[100] = {'\0'}, delay_str[10] = {'\0'}, *ptr_end, *sign; 
 103              		.loc 1 27 0
 104 002e 07F11C03 		add	r3, r7, #28
 105 0032 6422     		movs	r2, #100
 106 0034 0021     		movs	r1, #0
 107 0036 1846     		mov	r0, r3
 108 0038 FFF7FEFF 		bl	memset
 109 003c 07F11003 		add	r3, r7, #16
 110 0040 0022     		movs	r2, #0
 111 0042 1A60     		str	r2, [r3]
 112 0044 5A60     		str	r2, [r3, #4]
 113 0046 1A81     		strh	r2, [r3, #8]	@ movhi
  28:sontek.c      ****     
  29:sontek.c      ****     //First the M command needs to be sent and read, then M1 and M2 requests extra data that was al
  30:sontek.c      ****     for(j = 0; j<3; j++){
 114              		.loc 1 30 0
 115 0048 0023     		movs	r3, #0
 116 004a 87F8EE30 		strb	r3, [r7, #238]
 117 004e 26E2     		b	.L2
 118              	.L41:
  31:sontek.c      ****         /* 1. Request measurement from addressed SDI12 sensor */
  32:sontek.c      ****         clear_str(command);
 119              		.loc 1 32 0
 120 0050 07F18003 		add	r3, r7, #128
 121 0054 1846     		mov	r0, r3
 122 0056 FFF7FEFF 		bl	clear_str
  33:sontek.c      ****         //determines which M commands to send
  34:sontek.c      ****         if(j==0){                                                                  
 123              		.loc 1 34 0
 124 005a 97F8EE30 		ldrb	r3, [r7, #238]	@ zero_extendqisi2
 125 005e 002B     		cmp	r3, #0
 126 0060 0AD1     		bne	.L3
  35:sontek.c      ****             sprintf(command,"%s%s%s",(*sensor).address,TAKE_MEASUREMENT,"!");
 127              		.loc 1 35 0
 128 0062 7B68     		ldr	r3, [r7, #4]
 129 0064 1A68     		ldr	r2, [r3]
 130 0066 07F18000 		add	r0, r7, #128
 131 006a C44B     		ldr	r3, .L45
 132 006c 0093     		str	r3, [sp]
 133 006e C44B     		ldr	r3, .L45+4
 134 0070 C449     		ldr	r1, .L45+8
 135 0072 FFF7FEFF 		bl	sprintf
ARM GAS  C:\Users\klabu\AppData\Local\Temp\ccgKCBve.s 			page 4


 136 0076 1CE0     		b	.L4
 137              	.L3:
  36:sontek.c      ****         }
  37:sontek.c      ****         else if(j==1){
 138              		.loc 1 37 0
 139 0078 97F8EE30 		ldrb	r3, [r7, #238]	@ zero_extendqisi2
 140 007c 012B     		cmp	r3, #1
 141 007e 0AD1     		bne	.L5
  38:sontek.c      ****             sprintf(command,"%s%s%s",(*sensor).address,TAKE_MEASUREMENT_1,"!");
 142              		.loc 1 38 0
 143 0080 7B68     		ldr	r3, [r7, #4]
 144 0082 1A68     		ldr	r2, [r3]
 145 0084 07F18000 		add	r0, r7, #128
 146 0088 BC4B     		ldr	r3, .L45
 147 008a 0093     		str	r3, [sp]
 148 008c BE4B     		ldr	r3, .L45+12
 149 008e BD49     		ldr	r1, .L45+8
 150 0090 FFF7FEFF 		bl	sprintf
 151 0094 0DE0     		b	.L4
 152              	.L5:
  39:sontek.c      ****         }
  40:sontek.c      ****         else if(j==2){
 153              		.loc 1 40 0
 154 0096 97F8EE30 		ldrb	r3, [r7, #238]	@ zero_extendqisi2
 155 009a 022B     		cmp	r3, #2
 156 009c 09D1     		bne	.L4
  41:sontek.c      ****             sprintf(command,"%s%s%s",(*sensor).address,TAKE_MEASUREMENT_2,"!");
 157              		.loc 1 41 0
 158 009e 7B68     		ldr	r3, [r7, #4]
 159 00a0 1A68     		ldr	r2, [r3]
 160 00a2 07F18000 		add	r0, r7, #128
 161 00a6 B54B     		ldr	r3, .L45
 162 00a8 0093     		str	r3, [sp]
 163 00aa B84B     		ldr	r3, .L45+16
 164 00ac B549     		ldr	r1, .L45+8
 165 00ae FFF7FEFF 		bl	sprintf
 166              	.L4:
  42:sontek.c      ****         }
  43:sontek.c      ****         
  44:sontek.c      ****         SDI12_uart_clear_string();
 167              		.loc 1 44 0
 168 00b2 FFF7FEFF 		bl	SDI12_uart_clear_string
  45:sontek.c      ****         SDI12_send_command(command);
 169              		.loc 1 45 0
 170 00b6 07F18003 		add	r3, r7, #128
 171 00ba 1846     		mov	r0, r3
 172 00bc FFF7FEFF 		bl	SDI12_send_command
  46:sontek.c      ****         
  47:sontek.c      ****         /* 2. Delay for measurement to be taken */
  48:sontek.c      ****         /*
  49:sontek.c      ****          * The address sensor responds within 15.0 ms, returning the
  50:sontek.c      ****          * maximum time until the measurement data will be ready and the
  51:sontek.c      ****          * number of data values it will return
  52:sontek.c      ****          */
  53:sontek.c      ****         clear_str(value_str); 
 173              		.loc 1 53 0
 174 00c0 07F11C03 		add	r3, r7, #28
ARM GAS  C:\Users\klabu\AppData\Local\Temp\ccgKCBve.s 			page 5


 175 00c4 1846     		mov	r0, r3
 176 00c6 FFF7FEFF 		bl	clear_str
  54:sontek.c      ****         clear_str(delay_str);
 177              		.loc 1 54 0
 178 00ca 07F11003 		add	r3, r7, #16
 179 00ce 1846     		mov	r0, r3
 180 00d0 FFF7FEFF 		bl	clear_str
  55:sontek.c      ****         
  56:sontek.c      ****         // supposedly response time is 15 ms, but delaying max 1000 ms to be safe
  57:sontek.c      ****         // TODO: When taking concurrent measurements, look for <address><CR><LF> -- maybe add this 
  58:sontek.c      ****         for (i = 0; i < 200; i++) { 
 181              		.loc 1 58 0
 182 00d4 0023     		movs	r3, #0
 183 00d6 87F8EF30 		strb	r3, [r7, #239]
 184 00da 11E0     		b	.L6
 185              	.L9:
  59:sontek.c      ****             CyDelay(5u);
 186              		.loc 1 59 0
 187 00dc 0520     		movs	r0, #5
 188 00de FFF7FEFF 		bl	CyDelay
  60:sontek.c      ****             if ( strextract(SDI12_uart_buf, value_str, "!","\r\n") ) {
 189              		.loc 1 60 0
 190 00e2 07F11C01 		add	r1, r7, #28
 191 00e6 AA4B     		ldr	r3, .L45+20
 192 00e8 A44A     		ldr	r2, .L45
 193 00ea AA48     		ldr	r0, .L45+24
 194 00ec FFF7FEFF 		bl	strextract
 195 00f0 0346     		mov	r3, r0
 196 00f2 002B     		cmp	r3, #0
 197 00f4 09D1     		bne	.L43
  58:sontek.c      ****             CyDelay(5u);
 198              		.loc 1 58 0 discriminator 2
 199 00f6 97F8EF30 		ldrb	r3, [r7, #239]	@ zero_extendqisi2
 200 00fa 0133     		adds	r3, r3, #1
 201 00fc 87F8EF30 		strb	r3, [r7, #239]
 202              	.L6:
  58:sontek.c      ****             CyDelay(5u);
 203              		.loc 1 58 0 is_stmt 0 discriminator 1
 204 0100 97F8EF30 		ldrb	r3, [r7, #239]	@ zero_extendqisi2
 205 0104 C72B     		cmp	r3, #199
 206 0106 E9D9     		bls	.L9
 207 0108 00E0     		b	.L8
 208              	.L43:
  61:sontek.c      ****                 break;
 209              		.loc 1 61 0 is_stmt 1
 210 010a 00BF     		nop
 211              	.L8:
  62:sontek.c      ****             }
  63:sontek.c      ****         }
  64:sontek.c      ****         
  65:sontek.c      ****         /* Delay while measurements are being prepared */
  66:sontek.c      ****         /*
  67:sontek.c      ****          * The returned format for <address>M! is atttn<CR><LF>
  68:sontek.c      ****          * (NOTE: The returned format for <address>C! is atttnn<CR><LF> -- this will be useful when
  69:sontek.c      ****          *        concurrent measurements in the future)
  70:sontek.c      ****          * Where,
  71:sontek.c      ****          * -    a: sensor address
ARM GAS  C:\Users\klabu\AppData\Local\Temp\ccgKCBve.s 			page 6


  72:sontek.c      ****          * -  ttt: maximum time until measurement is ready
  73:sontek.c      ****          * - n(n): number of data values that will be returned
  74:sontek.c      ****          */
  75:sontek.c      ****         strncpy(delay_str, value_str+strlen((*sensor).address), 3); // shift ptr by strlen(...) to 
 212              		.loc 1 75 0
 213 010c 7B68     		ldr	r3, [r7, #4]
 214 010e 1B68     		ldr	r3, [r3]
 215 0110 1846     		mov	r0, r3
 216 0112 FFF7FEFF 		bl	strlen
 217 0116 0246     		mov	r2, r0
 218 0118 07F11C03 		add	r3, r7, #28
 219 011c 9918     		adds	r1, r3, r2
 220 011e 07F11003 		add	r3, r7, #16
 221 0122 0322     		movs	r2, #3
 222 0124 1846     		mov	r0, r3
 223 0126 FFF7FEFF 		bl	strncpy
  76:sontek.c      ****         ms_delay = ( (uint32) strtod(delay_str,(char**) NULL) ) * 1000u;
 224              		.loc 1 76 0
 225 012a 07F11003 		add	r3, r7, #16
 226 012e 0021     		movs	r1, #0
 227 0130 1846     		mov	r0, r3
 228 0132 FFF7FEFF 		bl	strtod
 229 0136 0346     		mov	r3, r0
 230 0138 0C46     		mov	r4, r1
 231 013a 1846     		mov	r0, r3
 232 013c 2146     		mov	r1, r4
 233 013e FFF7FEFF 		bl	__aeabi_d2uiz
 234 0142 0246     		mov	r2, r0
 235 0144 4FF47A73 		mov	r3, #1000
 236 0148 03FB02F3 		mul	r3, r3, r2
 237 014c C7F8E830 		str	r3, [r7, #232]
  77:sontek.c      ****         CyDelay(ms_delay);
 238              		.loc 1 77 0
 239 0150 D7F8E800 		ldr	r0, [r7, #232]
 240 0154 FFF7FEFF 		bl	CyDelay
  78:sontek.c      ****         
  79:sontek.c      ****         /* 3. Request data from SDI12 sensor */
  80:sontek.c      ****         clear_str(command);    
 241              		.loc 1 80 0
 242 0158 07F18003 		add	r3, r7, #128
 243 015c 1846     		mov	r0, r3
 244 015e FFF7FEFF 		bl	clear_str
  81:sontek.c      ****         clear_str(value_str);
 245              		.loc 1 81 0
 246 0162 07F11C03 		add	r3, r7, #28
 247 0166 1846     		mov	r0, r3
 248 0168 FFF7FEFF 		bl	clear_str
  82:sontek.c      ****         //Need to cycle through D0, D1, D2 to retrieve all 9 parameters of specified M command
  83:sontek.c      ****         for(k = 0; k<3; k++){                 
 249              		.loc 1 83 0
 250 016c 0023     		movs	r3, #0
 251 016e 87F8ED30 		strb	r3, [r7, #237]
 252 0172 8AE1     		b	.L10
 253              	.L40:
 254              	.LBB2:
  84:sontek.c      ****             if(k==0){
 255              		.loc 1 84 0
ARM GAS  C:\Users\klabu\AppData\Local\Temp\ccgKCBve.s 			page 7


 256 0174 97F8ED30 		ldrb	r3, [r7, #237]	@ zero_extendqisi2
 257 0178 002B     		cmp	r3, #0
 258 017a 0AD1     		bne	.L11
  85:sontek.c      ****                 sprintf(command,"%s%s%s",(*sensor).address,READ_MEASUREMENT,"!");
 259              		.loc 1 85 0
 260 017c 7B68     		ldr	r3, [r7, #4]
 261 017e 1A68     		ldr	r2, [r3]
 262 0180 07F18000 		add	r0, r7, #128
 263 0184 7D4B     		ldr	r3, .L45
 264 0186 0093     		str	r3, [sp]
 265 0188 834B     		ldr	r3, .L45+28
 266 018a 7E49     		ldr	r1, .L45+8
 267 018c FFF7FEFF 		bl	sprintf
 268 0190 1CE0     		b	.L12
 269              	.L11:
  86:sontek.c      ****             }
  87:sontek.c      ****             else if(k==1){
 270              		.loc 1 87 0
 271 0192 97F8ED30 		ldrb	r3, [r7, #237]	@ zero_extendqisi2
 272 0196 012B     		cmp	r3, #1
 273 0198 0AD1     		bne	.L13
  88:sontek.c      ****                 sprintf(command,"%s%s%s",(*sensor).address,READ_MEASUREMENT_1,"!");
 274              		.loc 1 88 0
 275 019a 7B68     		ldr	r3, [r7, #4]
 276 019c 1A68     		ldr	r2, [r3]
 277 019e 07F18000 		add	r0, r7, #128
 278 01a2 764B     		ldr	r3, .L45
 279 01a4 0093     		str	r3, [sp]
 280 01a6 7D4B     		ldr	r3, .L45+32
 281 01a8 7649     		ldr	r1, .L45+8
 282 01aa FFF7FEFF 		bl	sprintf
 283 01ae 0DE0     		b	.L12
 284              	.L13:
  89:sontek.c      ****             }
  90:sontek.c      ****             else if(k==2){
 285              		.loc 1 90 0
 286 01b0 97F8ED30 		ldrb	r3, [r7, #237]	@ zero_extendqisi2
 287 01b4 022B     		cmp	r3, #2
 288 01b6 09D1     		bne	.L12
  91:sontek.c      ****                 sprintf(command,"%s%s%s",(*sensor).address,READ_MEASUREMENT_2,"!");
 289              		.loc 1 91 0
 290 01b8 7B68     		ldr	r3, [r7, #4]
 291 01ba 1A68     		ldr	r2, [r3]
 292 01bc 07F18000 		add	r0, r7, #128
 293 01c0 6E4B     		ldr	r3, .L45
 294 01c2 0093     		str	r3, [sp]
 295 01c4 764B     		ldr	r3, .L45+36
 296 01c6 6F49     		ldr	r1, .L45+8
 297 01c8 FFF7FEFF 		bl	sprintf
 298              	.L12:
  92:sontek.c      ****             }
  93:sontek.c      ****             
  94:sontek.c      ****             SDI12_uart_clear_string();
 299              		.loc 1 94 0
 300 01cc FFF7FEFF 		bl	SDI12_uart_clear_string
  95:sontek.c      ****             SDI12_send_command(command);
 301              		.loc 1 95 0
ARM GAS  C:\Users\klabu\AppData\Local\Temp\ccgKCBve.s 			page 8


 302 01d0 07F18003 		add	r3, r7, #128
 303 01d4 1846     		mov	r0, r3
 304 01d6 FFF7FEFF 		bl	SDI12_send_command
  96:sontek.c      ****             
  97:sontek.c      ****             // Delay a maximum of 1000 ms as readings are transmitted
  98:sontek.c      ****             for (i = 0; i < 200; i++) {
 305              		.loc 1 98 0
 306 01da 0023     		movs	r3, #0
 307 01dc 87F8EF30 		strb	r3, [r7, #239]
 308 01e0 11E0     		b	.L14
 309              	.L17:
  99:sontek.c      ****                 CyDelay(5u);
 310              		.loc 1 99 0
 311 01e2 0520     		movs	r0, #5
 312 01e4 FFF7FEFF 		bl	CyDelay
 100:sontek.c      ****                 
 101:sontek.c      ****                 // Copy the SDI12 UART buffer into temporary buffer, value_str
 102:sontek.c      ****                 // and break once "\r\n" is returned
 103:sontek.c      ****                 if ( strextract(SDI12_uart_buf, value_str, "!","\r\n") ) {
 313              		.loc 1 103 0
 314 01e8 07F11C01 		add	r1, r7, #28
 315 01ec 684B     		ldr	r3, .L45+20
 316 01ee 634A     		ldr	r2, .L45
 317 01f0 6848     		ldr	r0, .L45+24
 318 01f2 FFF7FEFF 		bl	strextract
 319 01f6 0346     		mov	r3, r0
 320 01f8 002B     		cmp	r3, #0
 321 01fa 09D1     		bne	.L44
  98:sontek.c      ****                 CyDelay(5u);
 322              		.loc 1 98 0 discriminator 2
 323 01fc 97F8EF30 		ldrb	r3, [r7, #239]	@ zero_extendqisi2
 324 0200 0133     		adds	r3, r3, #1
 325 0202 87F8EF30 		strb	r3, [r7, #239]
 326              	.L14:
  98:sontek.c      ****                 CyDelay(5u);
 327              		.loc 1 98 0 is_stmt 0 discriminator 1
 328 0206 97F8EF30 		ldrb	r3, [r7, #239]	@ zero_extendqisi2
 329 020a C72B     		cmp	r3, #199
 330 020c E9D9     		bls	.L17
 331 020e 00E0     		b	.L16
 332              	.L44:
 104:sontek.c      ****                     break;
 333              		.loc 1 104 0 is_stmt 1
 334 0210 00BF     		nop
 335              	.L16:
 105:sontek.c      ****                 }
 106:sontek.c      ****             }
 107:sontek.c      ****             
 108:sontek.c      ****             
 109:sontek.c      ****             /* 4. Parse the received data */    
 110:sontek.c      ****             // Check for "+" or "-" signs to ensure data was sent
 111:sontek.c      ****             // First check for "+"
 112:sontek.c      ****             sign = strstr(value_str,"+");
 336              		.loc 1 112 0
 337 0212 07F11C03 		add	r3, r7, #28
 338 0216 2B21     		movs	r1, #43
 339 0218 1846     		mov	r0, r3
ARM GAS  C:\Users\klabu\AppData\Local\Temp\ccgKCBve.s 			page 9


 340 021a FFF7FEFF 		bl	strchr
 341 021e C7F8E400 		str	r0, [r7, #228]
 113:sontek.c      ****             if (sign == NULL) {
 342              		.loc 1 113 0
 343 0222 D7F8E430 		ldr	r3, [r7, #228]
 344 0226 002B     		cmp	r3, #0
 345 0228 24D1     		bne	.L18
 114:sontek.c      ****                 // If there is no + sign, check for "-"
 115:sontek.c      ****                 sign = strstr(value_str,"-");
 346              		.loc 1 115 0
 347 022a 07F11C03 		add	r3, r7, #28
 348 022e 2D21     		movs	r1, #45
 349 0230 1846     		mov	r0, r3
 350 0232 FFF7FEFF 		bl	strchr
 351 0236 C7F8E400 		str	r0, [r7, #228]
 116:sontek.c      ****                 
 117:sontek.c      ****                 // The absence of "+" or "-" indicates no data was sent yet
 118:sontek.c      ****                 // Return 0 and try querying the sensor again later
 119:sontek.c      ****                 if (sign == NULL) {
 352              		.loc 1 119 0
 353 023a D7F8E430 		ldr	r3, [r7, #228]
 354 023e 002B     		cmp	r3, #0
 355 0240 18D1     		bne	.L18
 120:sontek.c      ****                     for (i = 0; i < (*sensor).nvars; i++) {
 356              		.loc 1 120 0
 357 0242 0023     		movs	r3, #0
 358 0244 87F8EF30 		strb	r3, [r7, #239]
 359 0248 0CE0     		b	.L19
 360              	.L20:
 121:sontek.c      ****                         (*sensor).values[i] = -9999.0f;
 361              		.loc 1 121 0 discriminator 3
 362 024a 7B68     		ldr	r3, [r7, #4]
 363 024c 9A68     		ldr	r2, [r3, #8]
 364 024e 97F8EF30 		ldrb	r3, [r7, #239]	@ zero_extendqisi2
 365 0252 9B00     		lsls	r3, r3, #2
 366 0254 1344     		add	r3, r3, r2
 367 0256 534A     		ldr	r2, .L45+40
 368 0258 1A60     		str	r2, [r3]	@ float
 120:sontek.c      ****                     for (i = 0; i < (*sensor).nvars; i++) {
 369              		.loc 1 120 0 discriminator 3
 370 025a 97F8EF30 		ldrb	r3, [r7, #239]	@ zero_extendqisi2
 371 025e 0133     		adds	r3, r3, #1
 372 0260 87F8EF30 		strb	r3, [r7, #239]
 373              	.L19:
 120:sontek.c      ****                     for (i = 0; i < (*sensor).nvars; i++) {
 374              		.loc 1 120 0 is_stmt 0 discriminator 1
 375 0264 7B68     		ldr	r3, [r7, #4]
 376 0266 1B7B     		ldrb	r3, [r3, #12]	@ zero_extendqisi2
 377 0268 97F8EF20 		ldrb	r2, [r7, #239]	@ zero_extendqisi2
 378 026c 9A42     		cmp	r2, r3
 379 026e ECD3     		bcc	.L20
 122:sontek.c      ****                     }
 123:sontek.c      ****                     return 0u;
 380              		.loc 1 123 0 is_stmt 1
 381 0270 0023     		movs	r3, #0
 382 0272 1AE1     		b	.L42
 383              	.L18:
ARM GAS  C:\Users\klabu\AppData\Local\Temp\ccgKCBve.s 			page 10


 124:sontek.c      ****                 }
 125:sontek.c      ****             }
 126:sontek.c      ****             
 127:sontek.c      ****             // Set the pointer to the start of the returned results
 128:sontek.c      ****             // and shift forward past the address byte
 129:sontek.c      ****             ptr_end = value_str + strlen((*sensor).address);
 384              		.loc 1 129 0
 385 0274 7B68     		ldr	r3, [r7, #4]
 386 0276 1B68     		ldr	r3, [r3]
 387 0278 1846     		mov	r0, r3
 388 027a FFF7FEFF 		bl	strlen
 389 027e 0246     		mov	r2, r0
 390 0280 07F11C03 		add	r3, r7, #28
 391 0284 1344     		add	r3, r3, r2
 392 0286 FB60     		str	r3, [r7, #12]
 130:sontek.c      ****             
 131:sontek.c      ****             // Parse and store all values returned from the sensor
 132:sontek.c      ****             uint8 max = 0u; //to set high end of values index for specified M and D commands 
 393              		.loc 1 132 0
 394 0288 0023     		movs	r3, #0
 395 028a 87F8EC30 		strb	r3, [r7, #236]
 133:sontek.c      ****             //for M command sent
 134:sontek.c      ****             if(j==0){
 396              		.loc 1 134 0
 397 028e 97F8EE30 		ldrb	r3, [r7, #238]	@ zero_extendqisi2
 398 0292 002B     		cmp	r3, #0
 399 0294 47D1     		bne	.L22
 135:sontek.c      ****                 //D1
 136:sontek.c      ****                 if(k==0){i=0; max=4+i;}//add the +i for the max so that the range of i matches with
 400              		.loc 1 136 0
 401 0296 97F8ED30 		ldrb	r3, [r7, #237]	@ zero_extendqisi2
 402 029a 002B     		cmp	r3, #0
 403 029c 08D1     		bne	.L23
 404              		.loc 1 136 0 is_stmt 0 discriminator 1
 405 029e 0023     		movs	r3, #0
 406 02a0 87F8EF30 		strb	r3, [r7, #239]
 407 02a4 97F8EF30 		ldrb	r3, [r7, #239]
 408 02a8 0433     		adds	r3, r3, #4
 409 02aa 87F8EC30 		strb	r3, [r7, #236]
 410 02ae 33E0     		b	.L26
 411              	.L23:
 137:sontek.c      ****                 //D2
 138:sontek.c      ****                 else if(k==1){i=4;max=4+i;}
 412              		.loc 1 138 0 is_stmt 1
 413 02b0 97F8ED30 		ldrb	r3, [r7, #237]	@ zero_extendqisi2
 414 02b4 012B     		cmp	r3, #1
 415 02b6 08D1     		bne	.L25
 416              		.loc 1 138 0 is_stmt 0 discriminator 1
 417 02b8 0423     		movs	r3, #4
 418 02ba 87F8EF30 		strb	r3, [r7, #239]
 419 02be 97F8EF30 		ldrb	r3, [r7, #239]
 420 02c2 0433     		adds	r3, r3, #4
 421 02c4 87F8EC30 		strb	r3, [r7, #236]
 422 02c8 26E0     		b	.L26
 423              	.L25:
 139:sontek.c      ****                 //D3
 140:sontek.c      ****                 else if(k==2){i=8;max=1+i;}
ARM GAS  C:\Users\klabu\AppData\Local\Temp\ccgKCBve.s 			page 11


 424              		.loc 1 140 0 is_stmt 1
 425 02ca 97F8ED30 		ldrb	r3, [r7, #237]	@ zero_extendqisi2
 426 02ce 022B     		cmp	r3, #2
 427 02d0 22D1     		bne	.L26
 428              		.loc 1 140 0 is_stmt 0 discriminator 1
 429 02d2 0823     		movs	r3, #8
 430 02d4 87F8EF30 		strb	r3, [r7, #239]
 431 02d8 97F8EF30 		ldrb	r3, [r7, #239]
 432 02dc 0133     		adds	r3, r3, #1
 433 02de 87F8EC30 		strb	r3, [r7, #236]
 141:sontek.c      ****                 //puts parsed data into struct, parameters 1-9
 142:sontek.c      ****                 for (; i < max; i++) {  //i is initialized and set before the for loop, so the firs
 434              		.loc 1 142 0 is_stmt 1 discriminator 1
 435 02e2 19E0     		b	.L26
 436              	.L27:
 143:sontek.c      ****                     (*sensor).values[i] = (float) strtod(ptr_end, &ptr_end);
 437              		.loc 1 143 0 discriminator 2
 438 02e4 7B68     		ldr	r3, [r7, #4]
 439 02e6 9A68     		ldr	r2, [r3, #8]
 440 02e8 97F8EF30 		ldrb	r3, [r7, #239]	@ zero_extendqisi2
 441 02ec 9B00     		lsls	r3, r3, #2
 442 02ee D418     		adds	r4, r2, r3
 443 02f0 FB68     		ldr	r3, [r7, #12]
 444 02f2 07F10C02 		add	r2, r7, #12
 445 02f6 1146     		mov	r1, r2
 446 02f8 1846     		mov	r0, r3
 447 02fa FFF7FEFF 		bl	strtod
 448 02fe 0246     		mov	r2, r0
 449 0300 0B46     		mov	r3, r1
 450 0302 1046     		mov	r0, r2
 451 0304 1946     		mov	r1, r3
 452 0306 FFF7FEFF 		bl	__aeabi_d2f
 453 030a 0346     		mov	r3, r0
 454 030c 2360     		str	r3, [r4]	@ float
 142:sontek.c      ****                     (*sensor).values[i] = (float) strtod(ptr_end, &ptr_end);
 455              		.loc 1 142 0 discriminator 2
 456 030e 97F8EF30 		ldrb	r3, [r7, #239]	@ zero_extendqisi2
 457 0312 0133     		adds	r3, r3, #1
 458 0314 87F8EF30 		strb	r3, [r7, #239]
 459              	.L26:
 142:sontek.c      ****                     (*sensor).values[i] = (float) strtod(ptr_end, &ptr_end);
 460              		.loc 1 142 0 is_stmt 0 discriminator 1
 461 0318 97F8EF20 		ldrb	r2, [r7, #239]	@ zero_extendqisi2
 462 031c 97F8EC30 		ldrb	r3, [r7, #236]	@ zero_extendqisi2
 463 0320 9A42     		cmp	r2, r3
 464 0322 DFD3     		bcc	.L27
 465 0324 ACE0     		b	.L28
 466              	.L22:
 144:sontek.c      ****                 }
 145:sontek.c      ****             }
 146:sontek.c      ****             //for M1 command
 147:sontek.c      ****             else if(j==1){
 467              		.loc 1 147 0 is_stmt 1
 468 0326 97F8EE30 		ldrb	r3, [r7, #238]	@ zero_extendqisi2
 469 032a 012B     		cmp	r3, #1
 470 032c 5DD1     		bne	.L29
 148:sontek.c      ****                 //D0
ARM GAS  C:\Users\klabu\AppData\Local\Temp\ccgKCBve.s 			page 12


 149:sontek.c      ****                 if(k==0){i=9; max=4+i;}
 471              		.loc 1 149 0
 472 032e 97F8ED30 		ldrb	r3, [r7, #237]	@ zero_extendqisi2
 473 0332 002B     		cmp	r3, #0
 474 0334 08D1     		bne	.L30
 475              		.loc 1 149 0 is_stmt 0 discriminator 1
 476 0336 0923     		movs	r3, #9
 477 0338 87F8EF30 		strb	r3, [r7, #239]
 478 033c 97F8EF30 		ldrb	r3, [r7, #239]
 479 0340 0433     		adds	r3, r3, #4
 480 0342 87F8EC30 		strb	r3, [r7, #236]
 481 0346 49E0     		b	.L33
 482              	.L30:
 150:sontek.c      ****                 //D1
 151:sontek.c      ****                 else if(k==1){i=13; max=4+i;}
 483              		.loc 1 151 0 is_stmt 1
 484 0348 97F8ED30 		ldrb	r3, [r7, #237]	@ zero_extendqisi2
 485 034c 012B     		cmp	r3, #1
 486 034e 08D1     		bne	.L32
 487              		.loc 1 151 0 is_stmt 0 discriminator 1
 488 0350 0D23     		movs	r3, #13
 489 0352 87F8EF30 		strb	r3, [r7, #239]
 490 0356 97F8EF30 		ldrb	r3, [r7, #239]
 491 035a 0433     		adds	r3, r3, #4
 492 035c 87F8EC30 		strb	r3, [r7, #236]
 493 0360 3CE0     		b	.L33
 494              	.L32:
 152:sontek.c      ****                 //D2
 153:sontek.c      ****                 else if(k==2){i=17; max=1+i;}
 495              		.loc 1 153 0 is_stmt 1
 496 0362 97F8ED30 		ldrb	r3, [r7, #237]	@ zero_extendqisi2
 497 0366 022B     		cmp	r3, #2
 498 0368 38D1     		bne	.L33
 499              		.loc 1 153 0 is_stmt 0 discriminator 1
 500 036a 1123     		movs	r3, #17
 501 036c 87F8EF30 		strb	r3, [r7, #239]
 502 0370 97F8EF30 		ldrb	r3, [r7, #239]
 503 0374 0133     		adds	r3, r3, #1
 504 0376 87F8EC30 		strb	r3, [r7, #236]
 154:sontek.c      ****                 //parameters 10-18 (or 1-9 M1 parameters in manual)
 155:sontek.c      ****                 for (; i < max; i++) {                             
 505              		.loc 1 155 0 is_stmt 1 discriminator 1
 506 037a 2FE0     		b	.L33
 507              	.L46:
 508              		.align	2
 509              	.L45:
 510 037c 0C000000 		.word	.LC31
 511 0380 00000000 		.word	.LC29
 512 0384 04000000 		.word	.LC30
 513 0388 10000000 		.word	.LC32
 514 038c 14000000 		.word	.LC33
 515 0390 18000000 		.word	.LC34
 516 0394 00000000 		.word	SDI12_uart_buf.9398
 517 0398 1C000000 		.word	.LC35
 518 039c 20000000 		.word	.LC36
 519 03a0 24000000 		.word	.LC37
 520 03a4 003C1CC6 		.word	-971228160
ARM GAS  C:\Users\klabu\AppData\Local\Temp\ccgKCBve.s 			page 13


 521              	.L34:
 156:sontek.c      ****                     (*sensor).values[i] = (float) strtod(ptr_end, &ptr_end);
 522              		.loc 1 156 0 discriminator 2
 523 03a8 7B68     		ldr	r3, [r7, #4]
 524 03aa 9A68     		ldr	r2, [r3, #8]
 525 03ac 97F8EF30 		ldrb	r3, [r7, #239]	@ zero_extendqisi2
 526 03b0 9B00     		lsls	r3, r3, #2
 527 03b2 D418     		adds	r4, r2, r3
 528 03b4 FB68     		ldr	r3, [r7, #12]
 529 03b6 07F10C02 		add	r2, r7, #12
 530 03ba 1146     		mov	r1, r2
 531 03bc 1846     		mov	r0, r3
 532 03be FFF7FEFF 		bl	strtod
 533 03c2 0246     		mov	r2, r0
 534 03c4 0B46     		mov	r3, r1
 535 03c6 1046     		mov	r0, r2
 536 03c8 1946     		mov	r1, r3
 537 03ca FFF7FEFF 		bl	__aeabi_d2f
 538 03ce 0346     		mov	r3, r0
 539 03d0 2360     		str	r3, [r4]	@ float
 155:sontek.c      ****                     (*sensor).values[i] = (float) strtod(ptr_end, &ptr_end);
 540              		.loc 1 155 0 discriminator 2
 541 03d2 97F8EF30 		ldrb	r3, [r7, #239]	@ zero_extendqisi2
 542 03d6 0133     		adds	r3, r3, #1
 543 03d8 87F8EF30 		strb	r3, [r7, #239]
 544              	.L33:
 155:sontek.c      ****                     (*sensor).values[i] = (float) strtod(ptr_end, &ptr_end);
 545              		.loc 1 155 0 is_stmt 0 discriminator 1
 546 03dc 97F8EF20 		ldrb	r2, [r7, #239]	@ zero_extendqisi2
 547 03e0 97F8EC30 		ldrb	r3, [r7, #236]	@ zero_extendqisi2
 548 03e4 9A42     		cmp	r2, r3
 549 03e6 DFD3     		bcc	.L34
 550 03e8 4AE0     		b	.L28
 551              	.L29:
 157:sontek.c      ****                 }
 158:sontek.c      ****             }
 159:sontek.c      ****             //for M2 command
 160:sontek.c      ****             else if(j==2){
 552              		.loc 1 160 0 is_stmt 1
 553 03ea 97F8EE30 		ldrb	r3, [r7, #238]	@ zero_extendqisi2
 554 03ee 022B     		cmp	r3, #2
 555 03f0 46D1     		bne	.L28
 161:sontek.c      ****                 //D0
 162:sontek.c      ****                 if(k==0){i=18; max=4+i;}
 556              		.loc 1 162 0
 557 03f2 97F8ED30 		ldrb	r3, [r7, #237]	@ zero_extendqisi2
 558 03f6 002B     		cmp	r3, #0
 559 03f8 08D1     		bne	.L35
 560              		.loc 1 162 0 is_stmt 0 discriminator 1
 561 03fa 1223     		movs	r3, #18
 562 03fc 87F8EF30 		strb	r3, [r7, #239]
 563 0400 97F8EF30 		ldrb	r3, [r7, #239]
 564 0404 0433     		adds	r3, r3, #4
 565 0406 87F8EC30 		strb	r3, [r7, #236]
 566 040a 33E0     		b	.L38
 567              	.L35:
 163:sontek.c      ****                 //D1
ARM GAS  C:\Users\klabu\AppData\Local\Temp\ccgKCBve.s 			page 14


 164:sontek.c      ****                 else if(k==1){i=22; max=4+i;}
 568              		.loc 1 164 0 is_stmt 1
 569 040c 97F8ED30 		ldrb	r3, [r7, #237]	@ zero_extendqisi2
 570 0410 012B     		cmp	r3, #1
 571 0412 08D1     		bne	.L37
 572              		.loc 1 164 0 is_stmt 0 discriminator 1
 573 0414 1623     		movs	r3, #22
 574 0416 87F8EF30 		strb	r3, [r7, #239]
 575 041a 97F8EF30 		ldrb	r3, [r7, #239]
 576 041e 0433     		adds	r3, r3, #4
 577 0420 87F8EC30 		strb	r3, [r7, #236]
 578 0424 26E0     		b	.L38
 579              	.L37:
 165:sontek.c      ****                 //D2
 166:sontek.c      ****                 else if(k==2){i=26; max=1+i;}
 580              		.loc 1 166 0 is_stmt 1
 581 0426 97F8ED30 		ldrb	r3, [r7, #237]	@ zero_extendqisi2
 582 042a 022B     		cmp	r3, #2
 583 042c 22D1     		bne	.L38
 584              		.loc 1 166 0 is_stmt 0 discriminator 1
 585 042e 1A23     		movs	r3, #26
 586 0430 87F8EF30 		strb	r3, [r7, #239]
 587 0434 97F8EF30 		ldrb	r3, [r7, #239]
 588 0438 0133     		adds	r3, r3, #1
 589 043a 87F8EC30 		strb	r3, [r7, #236]
 167:sontek.c      ****                 //parameters 19-27 (or 1-9 M2 parameters in manual)
 168:sontek.c      ****                 for (; i < max; i++) {                             
 590              		.loc 1 168 0 is_stmt 1 discriminator 1
 591 043e 19E0     		b	.L38
 592              	.L39:
 169:sontek.c      ****                     (*sensor).values[i] = (float) strtod(ptr_end, &ptr_end);
 593              		.loc 1 169 0 discriminator 2
 594 0440 7B68     		ldr	r3, [r7, #4]
 595 0442 9A68     		ldr	r2, [r3, #8]
 596 0444 97F8EF30 		ldrb	r3, [r7, #239]	@ zero_extendqisi2
 597 0448 9B00     		lsls	r3, r3, #2
 598 044a D418     		adds	r4, r2, r3
 599 044c FB68     		ldr	r3, [r7, #12]
 600 044e 07F10C02 		add	r2, r7, #12
 601 0452 1146     		mov	r1, r2
 602 0454 1846     		mov	r0, r3
 603 0456 FFF7FEFF 		bl	strtod
 604 045a 0246     		mov	r2, r0
 605 045c 0B46     		mov	r3, r1
 606 045e 1046     		mov	r0, r2
 607 0460 1946     		mov	r1, r3
 608 0462 FFF7FEFF 		bl	__aeabi_d2f
 609 0466 0346     		mov	r3, r0
 610 0468 2360     		str	r3, [r4]	@ float
 168:sontek.c      ****                     (*sensor).values[i] = (float) strtod(ptr_end, &ptr_end);
 611              		.loc 1 168 0 discriminator 2
 612 046a 97F8EF30 		ldrb	r3, [r7, #239]	@ zero_extendqisi2
 613 046e 0133     		adds	r3, r3, #1
 614 0470 87F8EF30 		strb	r3, [r7, #239]
 615              	.L38:
 168:sontek.c      ****                     (*sensor).values[i] = (float) strtod(ptr_end, &ptr_end);
 616              		.loc 1 168 0 is_stmt 0 discriminator 1
ARM GAS  C:\Users\klabu\AppData\Local\Temp\ccgKCBve.s 			page 15


 617 0474 97F8EF20 		ldrb	r2, [r7, #239]	@ zero_extendqisi2
 618 0478 97F8EC30 		ldrb	r3, [r7, #236]	@ zero_extendqisi2
 619 047c 9A42     		cmp	r2, r3
 620 047e DFD3     		bcc	.L39
 621              	.L28:
 622              	.LBE2:
  83:sontek.c      ****             if(k==0){
 623              		.loc 1 83 0 is_stmt 1 discriminator 2
 624 0480 97F8ED30 		ldrb	r3, [r7, #237]	@ zero_extendqisi2
 625 0484 0133     		adds	r3, r3, #1
 626 0486 87F8ED30 		strb	r3, [r7, #237]
 627              	.L10:
  83:sontek.c      ****             if(k==0){
 628              		.loc 1 83 0 is_stmt 0 discriminator 1
 629 048a 97F8ED30 		ldrb	r3, [r7, #237]	@ zero_extendqisi2
 630 048e 022B     		cmp	r3, #2
 631 0490 7FF670AE 		bls	.L40
  30:sontek.c      ****         /* 1. Request measurement from addressed SDI12 sensor */
 632              		.loc 1 30 0 is_stmt 1 discriminator 2
 633 0494 97F8EE30 		ldrb	r3, [r7, #238]	@ zero_extendqisi2
 634 0498 0133     		adds	r3, r3, #1
 635 049a 87F8EE30 		strb	r3, [r7, #238]
 636              	.L2:
  30:sontek.c      ****         /* 1. Request measurement from addressed SDI12 sensor */
 637              		.loc 1 30 0 is_stmt 0 discriminator 1
 638 049e 97F8EE30 		ldrb	r3, [r7, #238]	@ zero_extendqisi2
 639 04a2 022B     		cmp	r3, #2
 640 04a4 7FF6D4AD 		bls	.L41
 170:sontek.c      ****                 }
 171:sontek.c      ****             }
 172:sontek.c      ****         }
 173:sontek.c      ****     }
 174:sontek.c      ****     return 1u; //returns true if successful
 641              		.loc 1 174 0 is_stmt 1
 642 04a8 0123     		movs	r3, #1
 643              	.L42:
 175:sontek.c      ****     
 176:sontek.c      **** }
 644              		.loc 1 176 0 discriminator 1
 645 04aa 1846     		mov	r0, r3
 646 04ac F437     		adds	r7, r7, #244
 647              		.cfi_def_cfa_offset 12
 648 04ae BD46     		mov	sp, r7
 649              		.cfi_def_cfa_register 13
 650              		@ sp needed
 651 04b0 90BD     		pop	{r4, r7, pc}
 652              		.cfi_endproc
 653              	.LFE64:
 654              		.size	SDI12_sontek_take_measurement, .-SDI12_sontek_take_measurement
 655 04b2 00BF     		.section	.rodata
 656 0027 00       		.align	2
 657              	.LC38:
 658 0028 3000     		.ascii	"0\000"
 659 002a 0000     		.align	2
 660              	.LC0:
 661 002c 5100     		.ascii	"Q\000"
 662 002e 0000     		.align	2
ARM GAS  C:\Users\klabu\AppData\Local\Temp\ccgKCBve.s 			page 16


 663              	.LC1:
 664 0030 73746167 		.ascii	"stage\000"
 664      6500
 665 0036 0000     		.align	2
 666              	.LC2:
 667 0038 765F6D65 		.ascii	"v_mean\000"
 667      616E00
 668 003f 00       		.align	2
 669              	.LC3:
 670 0040 746F7461 		.ascii	"total_vol\000"
 670      6C5F766F 
 670      6C00
 671 004a 0000     		.align	2
 672              	.LC4:
 673 004c 64657074 		.ascii	"depth\000"
 673      6800
 674 0052 0000     		.align	2
 675              	.LC5:
 676 0054 765F696E 		.ascii	"v_index\000"
 676      64657800 
 677              		.align	2
 678              	.LC6:
 679 005c 785F6172 		.ascii	"x_area\000"
 679      656100
 680 0063 00       		.align	2
 681              	.LC7:
 682 0064 5400     		.ascii	"T\000"
 683 0066 0000     		.align	2
 684              	.LC8:
 685 0068 73746174 		.ascii	"stat\000"
 685      00
 686 006d 000000   		.align	2
 687              	.LC9:
 688 0070 765F7800 		.ascii	"v_x\000"
 689              		.align	2
 690              	.LC10:
 691 0074 765F7A00 		.ascii	"v_z\000"
 692              		.align	2
 693              	.LC11:
 694 0078 765F785F 		.ascii	"v_x_left\000"
 694      6C656674 
 694      00
 695 0081 000000   		.align	2
 696              	.LC12:
 697 0084 765F785F 		.ascii	"v_x_right\000"
 697      72696768 
 697      7400
 698 008e 0000     		.align	2
 699              	.LC13:
 700 0090 765F6261 		.ascii	"v_bat\000"
 700      7400
 701 0096 0000     		.align	2
 702              	.LC14:
 703 0098 70697463 		.ascii	"pitch\000"
 703      6800
 704 009e 0000     		.align	2
 705              	.LC15:
ARM GAS  C:\Users\klabu\AppData\Local\Temp\ccgKCBve.s 			page 17


 706 00a0 726F6C6C 		.ascii	"roll\000"
 706      00
 707 00a5 000000   		.align	2
 708              	.LC16:
 709 00a8 7063745F 		.ascii	"pct_sub\000"
 709      73756200 
 710              		.align	2
 711              	.LC17:
 712 00b0 69636500 		.ascii	"ice\000"
 713              		.align	2
 714              	.LC18:
 715 00b4 72616E67 		.ascii	"range\000"
 715      6500
 716 00ba 0000     		.align	2
 717              	.LC19:
 718 00bc 64657074 		.ascii	"depth_adj\000"
 718      685F6164 
 718      6A00
 719 00c6 0000     		.align	2
 720              	.LC20:
 721 00c8 746F7461 		.ascii	"total_vol_pos\000"
 721      6C5F766F 
 721      6C5F706F 
 721      7300
 722 00d6 0000     		.align	2
 723              	.LC21:
 724 00d8 746F7461 		.ascii	"total_vol_neg\000"
 724      6C5F766F 
 724      6C5F6E65 
 724      6700
 725 00e6 0000     		.align	2
 726              	.LC22:
 727 00e8 656E645F 		.ascii	"end_cell\000"
 727      63656C6C 
 727      00
 728 00f1 000000   		.align	2
 729              	.LC23:
 730 00f4 736E7231 		.ascii	"snr1\000"
 730      00
 731 00f9 000000   		.align	2
 732              	.LC24:
 733 00fc 736E7232 		.ascii	"snr2\000"
 733      00
 734 0101 000000   		.align	2
 735              	.LC25:
 736 0104 736E7233 		.ascii	"snr3\000"
 736      00
 737 0109 000000   		.align	2
 738              	.LC26:
 739 010c 736E7234 		.ascii	"snr4\000"
 739      00
 740 0111 000000   		.align	2
 741              	.LC39:
 742 0114 2C000000 		.word	.LC0
 743 0118 30000000 		.word	.LC1
 744 011c 38000000 		.word	.LC2
 745 0120 40000000 		.word	.LC3
ARM GAS  C:\Users\klabu\AppData\Local\Temp\ccgKCBve.s 			page 18


 746 0124 4C000000 		.word	.LC4
 747 0128 54000000 		.word	.LC5
 748 012c 5C000000 		.word	.LC6
 749 0130 64000000 		.word	.LC7
 750 0134 68000000 		.word	.LC8
 751 0138 70000000 		.word	.LC9
 752 013c 74000000 		.word	.LC10
 753 0140 78000000 		.word	.LC11
 754 0144 84000000 		.word	.LC12
 755 0148 90000000 		.word	.LC13
 756 014c 98000000 		.word	.LC14
 757 0150 A0000000 		.word	.LC15
 758 0154 A8000000 		.word	.LC16
 759 0158 B0000000 		.word	.LC17
 760 015c B4000000 		.word	.LC18
 761 0160 BC000000 		.word	.LC19
 762 0164 C8000000 		.word	.LC20
 763 0168 D8000000 		.word	.LC21
 764 016c E8000000 		.word	.LC22
 765 0170 F4000000 		.word	.LC23
 766 0174 FC000000 		.word	.LC24
 767 0178 04010000 		.word	.LC25
 768 017c 0C010000 		.word	.LC26
 769              		.align	2
 770              	.LC28:
 771 0180 000080BF 		.word	-1082130432
 772 0184 000000C0 		.word	-1073741824
 773 0188 000040C0 		.word	-1069547520
 774 018c 000080C0 		.word	-1065353216
 775 0190 0000A0C0 		.word	-1063256064
 776 0194 0000C0C0 		.word	-1061158912
 777 0198 0000E0C0 		.word	-1059061760
 778 019c 000000C1 		.word	-1056964608
 779 01a0 000010C1 		.word	-1055916032
 780 01a4 000020C1 		.word	-1054867456
 781 01a8 000030C1 		.word	-1053818880
 782 01ac 000040C1 		.word	-1052770304
 783 01b0 000050C1 		.word	-1051721728
 784 01b4 000060C1 		.word	-1050673152
 785 01b8 000070C1 		.word	-1049624576
 786 01bc 000080C1 		.word	-1048576000
 787 01c0 000088C1 		.word	-1048051712
 788 01c4 000090C1 		.word	-1047527424
 789 01c8 000098C1 		.word	-1047003136
 790 01cc 0000A0C1 		.word	-1046478848
 791 01d0 0000A8C1 		.word	-1045954560
 792 01d4 0000B0C1 		.word	-1045430272
 793 01d8 0000B8C1 		.word	-1044905984
 794 01dc 0000C0C1 		.word	-1044381696
 795 01e0 0000C8C1 		.word	-1043857408
 796 01e4 0000D0C1 		.word	-1043333120
 797 01e8 0000D8C1 		.word	-1042808832
 798              		.section	.text.sontek_take_reading,"ax",%progbits
 799              		.align	2
 800              		.global	sontek_take_reading
 801              		.thumb
 802              		.thumb_func
ARM GAS  C:\Users\klabu\AppData\Local\Temp\ccgKCBve.s 			page 19


 803              		.type	sontek_take_reading, %function
 804              	sontek_take_reading:
 805              	.LFB65:
 177:sontek.c      **** //Powers on, takes readings, powers off sontek sensor
 178:sontek.c      **** sontek_t sontek_take_reading(){
 806              		.loc 1 178 0
 807              		.cfi_startproc
 808              		@ args = 0, pretend = 0, frame = 312
 809              		@ frame_needed = 1, uses_anonymous_args = 0
 810 0000 B0B5     		push	{r4, r5, r7, lr}
 811              		.cfi_def_cfa_offset 16
 812              		.cfi_offset 4, -16
 813              		.cfi_offset 5, -12
 814              		.cfi_offset 7, -8
 815              		.cfi_offset 14, -4
 816 0002 CEB0     		sub	sp, sp, #312
 817              		.cfi_def_cfa_offset 328
 818 0004 00AF     		add	r7, sp, #0
 819              		.cfi_def_cfa_register 7
 820 0006 3B1D     		adds	r3, r7, #4
 821 0008 1860     		str	r0, [r3]
 179:sontek.c      ****     
 180:sontek.c      ****      // sontek_t is a new data type we defined in sontek.h. We then use that data type to define a 
 181:sontek.c      ****     sontek_t sontek_output;                                                             //---------
 182:sontek.c      ****     sontek_output.valid = SONTEK_READING_INIT; //to be determined/changed later what this means
 822              		.loc 1 182 0
 823 000a 0023     		movs	r3, #0
 824 000c 87F81831 		strb	r3, [r7, #280]
 183:sontek.c      ****     
 184:sontek.c      ****     
 185:sontek.c      ****     uint8 sontek_nvars = 27; //number of parameters the sontek sensor outputs -1
 825              		.loc 1 185 0
 826 0010 1B23     		movs	r3, #27
 827 0012 87F83631 		strb	r3, [r7, #310]
 186:sontek.c      ****     char* sontek_address = "0"; //SDI12 address of sensor
 828              		.loc 1 186 0
 829 0016 4B4B     		ldr	r3, .L55
 830 0018 C7F83031 		str	r3, [r7, #304]
 187:sontek.c      ****     //parameter names
 188:sontek.c      ****     char* sontek_labels[] = {"Q","stage","v_mean","total_vol","depth","v_index","x_area","T","stat"
 831              		.loc 1 188 0
 832 001c 4A4A     		ldr	r2, .L55+4
 833 001e 07F1AC03 		add	r3, r7, #172
 834 0022 1146     		mov	r1, r2
 835 0024 6C22     		movs	r2, #108
 836 0026 1846     		mov	r0, r3
 837 0028 FFF7FEFF 		bl	memcpy
 189:sontek.c      ****     //initialize values to be able to tell if/what parameters are not returned
 190:sontek.c      ****     float sontek_values[] = {-1.0, -2.0, -3.0, -4.0, -5.0, -6.0, -7.0, -8.0, -9.0, -10.0, -11.0, -1
 838              		.loc 1 190 0
 839 002c 474A     		ldr	r2, .L55+8
 840 002e 07F14003 		add	r3, r7, #64
 841 0032 1146     		mov	r1, r2
 842 0034 6C22     		movs	r2, #108
 843 0036 1846     		mov	r0, r3
 844 0038 FFF7FEFF 		bl	memcpy
 191:sontek.c      ****     //create SDI12_sensor struct of sontek specific values
ARM GAS  C:\Users\klabu\AppData\Local\Temp\ccgKCBve.s 			page 20


 192:sontek.c      ****     SDI12_sensor sontek = {
 845              		.loc 1 192 0
 846 003c 07F10C03 		add	r3, r7, #12
 847 0040 1846     		mov	r0, r3
 848 0042 3423     		movs	r3, #52
 849 0044 1A46     		mov	r2, r3
 850 0046 0021     		movs	r1, #0
 851 0048 FFF7FEFF 		bl	memset
 852 004c 07F10C03 		add	r3, r7, #12
 853 0050 D7F83021 		ldr	r2, [r7, #304]
 854 0054 1A60     		str	r2, [r3]
 855 0056 07F10C03 		add	r3, r7, #12
 856 005a 07F1AC02 		add	r2, r7, #172
 857 005e 5A60     		str	r2, [r3, #4]
 858 0060 07F10C03 		add	r3, r7, #12
 859 0064 07F14002 		add	r2, r7, #64
 860 0068 9A60     		str	r2, [r3, #8]
 861 006a 07F10C03 		add	r3, r7, #12
 862 006e 97F83621 		ldrb	r2, [r7, #310]
 863 0072 1A73     		strb	r2, [r3, #12]
 193:sontek.c      ****         .nvars = sontek_nvars,
 194:sontek.c      ****         .address = sontek_address,
 195:sontek.c      ****         .labels = sontek_labels,
 196:sontek.c      ****         .values = sontek_values
 197:sontek.c      ****     };
 198:sontek.c      ****     
 199:sontek.c      ****     //Start UART connection and power up sensor
 200:sontek.c      ****     SDI12_start();
 864              		.loc 1 200 0
 865 0074 FFF7FEFF 		bl	SDI12_start
 201:sontek.c      ****     SDI12_Power_Write(1u);
 866              		.loc 1 201 0
 867 0078 0120     		movs	r0, #1
 868 007a FFF7FEFF 		bl	SDI12_Power_Write
 869              	.LBB3:
 202:sontek.c      ****     
 203:sontek.c      ****     //Will try up to 10 times (1/second) to connect to sontek sensor
 204:sontek.c      ****     for (uint8 i = 0; i < 10; i++) {
 870              		.loc 1 204 0
 871 007e 0023     		movs	r3, #0
 872 0080 87F83731 		strb	r3, [r7, #311]
 873 0084 44E0     		b	.L48
 874              	.L53:
 205:sontek.c      ****         CyDelay(1000u);
 875              		.loc 1 205 0
 876 0086 4FF47A70 		mov	r0, #1000
 877 008a FFF7FEFF 		bl	CyDelay
 206:sontek.c      ****             
 207:sontek.c      ****         //Checks if sontek sensor is on    
 208:sontek.c      ****         if (SDI12_is_active(&sontek)){
 878              		.loc 1 208 0
 879 008e 07F10C03 		add	r3, r7, #12
 880 0092 1846     		mov	r0, r3
 881 0094 FFF7FEFF 		bl	SDI12_is_active
 882 0098 0346     		mov	r3, r0
 883 009a 002B     		cmp	r3, #0
 884 009c 30D0     		beq	.L49
ARM GAS  C:\Users\klabu\AppData\Local\Temp\ccgKCBve.s 			page 21


 209:sontek.c      ****             //valid = SDI12_change_address(&sensors[0],"0");  -----comment out copied code
 210:sontek.c      ****             SDI12_info(&sontek); CyDelay(500u); // ------ I don't know what this does/it's purpose 
 885              		.loc 1 210 0
 886 009e 07F10C03 		add	r3, r7, #12
 887 00a2 1846     		mov	r0, r3
 888 00a4 FFF7FEFF 		bl	SDI12_info
 889 00a8 4FF4FA70 		mov	r0, #500
 890 00ac FFF7FEFF 		bl	CyDelay
 211:sontek.c      ****             //Trys to take a measurment
 212:sontek.c      ****             if (SDI12_take_measurement(&sontek)){
 891              		.loc 1 212 0
 892 00b0 07F10C03 		add	r3, r7, #12
 893 00b4 1846     		mov	r0, r3
 894 00b6 FFF7FEFF 		bl	SDI12_take_measurement
 895 00ba 0346     		mov	r3, r0
 896 00bc 002B     		cmp	r3, #0
 897 00be 1BD0     		beq	.L50
 213:sontek.c      ****                 sontek_output.valid = SONTEK_READING_VALID; // Successfully took a measurement
 898              		.loc 1 213 0
 899 00c0 0123     		movs	r3, #1
 900 00c2 87F81831 		strb	r3, [r7, #280]
 214:sontek.c      ****                 sontek_output.depth = sontek.values[4];
 901              		.loc 1 214 0
 902 00c6 07F10C03 		add	r3, r7, #12
 903 00ca 9B68     		ldr	r3, [r3, #8]
 904 00cc 1B69     		ldr	r3, [r3, #16]	@ float
 905 00ce C7F81C31 		str	r3, [r7, #284]	@ float
 215:sontek.c      ****                 sontek_output.SNR1 = sontek.values[23];
 906              		.loc 1 215 0
 907 00d2 07F10C03 		add	r3, r7, #12
 908 00d6 9B68     		ldr	r3, [r3, #8]
 909 00d8 DB6D     		ldr	r3, [r3, #92]	@ float
 910 00da C7F82031 		str	r3, [r7, #288]	@ float
 216:sontek.c      ****                 sontek_output.SNR2 = sontek.values[24];
 911              		.loc 1 216 0
 912 00de 07F10C03 		add	r3, r7, #12
 913 00e2 9B68     		ldr	r3, [r3, #8]
 914 00e4 1B6E     		ldr	r3, [r3, #96]	@ float
 915 00e6 C7F82431 		str	r3, [r7, #292]	@ float
 217:sontek.c      ****                 sontek_output.SNR3 = sontek.values[25];
 916              		.loc 1 217 0
 917 00ea 07F10C03 		add	r3, r7, #12
 918 00ee 9B68     		ldr	r3, [r3, #8]
 919 00f0 5B6E     		ldr	r3, [r3, #100]	@ float
 920 00f2 C7F82831 		str	r3, [r7, #296]	@ float
 218:sontek.c      ****                
 219:sontek.c      ****                 break;                    
 921              		.loc 1 219 0
 922 00f6 0FE0     		b	.L51
 923              	.L50:
 220:sontek.c      ****             } 
 221:sontek.c      ****             else {
 222:sontek.c      ****                 sontek_output.valid = SONTEK_READING_PARSE_ERROR; // SDI12 sensor powered on, but u
 924              		.loc 1 222 0
 925 00f8 0223     		movs	r3, #2
 926 00fa 87F81831 		strb	r3, [r7, #280]
 927 00fe 02E0     		b	.L52
ARM GAS  C:\Users\klabu\AppData\Local\Temp\ccgKCBve.s 			page 22


 928              	.L49:
 223:sontek.c      ****             } 
 224:sontek.c      ****         }
 225:sontek.c      ****         
 226:sontek.c      ****         else {
 227:sontek.c      ****             sontek_output.valid = SONTEK_READING_NOT_RESPONDING; // SDI12 sensor not responding. It
 929              		.loc 1 227 0
 930 0100 0323     		movs	r3, #3
 931 0102 87F81831 		strb	r3, [r7, #280]
 932              	.L52:
 204:sontek.c      ****         CyDelay(1000u);
 933              		.loc 1 204 0 discriminator 2
 934 0106 97F83731 		ldrb	r3, [r7, #311]	@ zero_extendqisi2
 935 010a 0133     		adds	r3, r3, #1
 936 010c 87F83731 		strb	r3, [r7, #311]
 937              	.L48:
 204:sontek.c      ****         CyDelay(1000u);
 938              		.loc 1 204 0 is_stmt 0 discriminator 1
 939 0110 97F83731 		ldrb	r3, [r7, #311]	@ zero_extendqisi2
 940 0114 092B     		cmp	r3, #9
 941 0116 B6D9     		bls	.L53
 942              	.L51:
 943              	.LBE3:
 228:sontek.c      ****         }
 229:sontek.c      ****     }
 230:sontek.c      ****             
 231:sontek.c      ****     //shuts off sensor and turns of UART
 232:sontek.c      ****     SDI12_Power_Write(0u);
 944              		.loc 1 232 0 is_stmt 1
 945 0118 0020     		movs	r0, #0
 946 011a FFF7FEFF 		bl	SDI12_Power_Write
 233:sontek.c      ****     SDI12_stop();
 947              		.loc 1 233 0
 948 011e FFF7FEFF 		bl	SDI12_stop
 234:sontek.c      ****     
 235:sontek.c      ****     // this isn't set to any of the measurements yet
 236:sontek.c      ****     return sontek_output;
 949              		.loc 1 236 0
 950 0122 3B1D     		adds	r3, r7, #4
 951 0124 1B68     		ldr	r3, [r3]
 952 0126 1D46     		mov	r5, r3
 953 0128 07F58C74 		add	r4, r7, #280
 954 012c 0FCC     		ldmia	r4!, {r0, r1, r2, r3}
 955 012e 0FC5     		stmia	r5!, {r0, r1, r2, r3}
 956 0130 94E80300 		ldmia	r4, {r0, r1}
 957 0134 85E80300 		stmia	r5, {r0, r1}
 237:sontek.c      **** }
 958              		.loc 1 237 0
 959 0138 3B1D     		adds	r3, r7, #4
 960 013a 1868     		ldr	r0, [r3]
 961 013c 07F59C77 		add	r7, r7, #312
 962              		.cfi_def_cfa_offset 16
 963 0140 BD46     		mov	sp, r7
 964              		.cfi_def_cfa_register 13
 965              		@ sp needed
 966 0142 B0BD     		pop	{r4, r5, r7, pc}
 967              	.L56:
ARM GAS  C:\Users\klabu\AppData\Local\Temp\ccgKCBve.s 			page 23


 968              		.align	2
 969              	.L55:
 970 0144 28000000 		.word	.LC38
 971 0148 14010000 		.word	.LC39
 972 014c 80010000 		.word	.LC28
 973              		.cfi_endproc
 974              	.LFE65:
 975              		.size	sontek_take_reading, .-sontek_take_reading
 976              		.bss
 977              		.align	2
 978              	SDI12_uart_buf.9398:
 979 0000 00000000 		.space	257
 979      00000000 
 979      00000000 
 979      00000000 
 979      00000000 
 980              	SDI12_buf_idx.9399:
 981 0101 00       		.space	1
 982              		.text
 983              	.Letext0:
 984              		.file 2 "c:\\program files (x86)\\cypress\\psoc creator\\4.4\\psoc creator\\import\\gnu\\arm\\5.4.
 985              		.file 3 "c:\\program files (x86)\\cypress\\psoc creator\\4.4\\psoc creator\\import\\gnu\\arm\\5.4.
 986              		.file 4 "Generated_Source\\PSoC5/cytypes.h"
 987              		.file 5 "SDI12.h"
 988              		.file 6 "sontek.h"
 989              		.file 7 "data.h"
 990              		.file 8 "modem.h"
 991              		.file 9 "Generated_Source\\PSoC5/core_cm3.h"