ARM GAS  C:\Users\dantz\AppData\Local\Temp\cc2WQxPL.s 			page 1


   1              		.syntax unified
   2              		.cpu cortex-m3
   3              		.fpu softvfp
   4              		.eabi_attribute 20, 1
   5              		.eabi_attribute 21, 1
   6              		.eabi_attribute 23, 3
   7              		.eabi_attribute 24, 1
   8              		.eabi_attribute 25, 1
   9              		.eabi_attribute 26, 1
  10              		.eabi_attribute 30, 6
  11              		.eabi_attribute 34, 1
  12              		.eabi_attribute 18, 4
  13              		.thumb
  14              		.syntax unified
  15              		.file	"valve.c"
  16              		.text
  17              	.Ltext0:
  18              		.cfi_sections	.debug_frame
  19              		.comm	buffer_overflow,1,1
  20              		.comm	dataPointsInStack,2,2
  21              		.comm	dataPointsInStackDesired,2,2
  22              		.comm	data,6600,4
  23              		.comm	modem_state,1,1
  24              		.comm	modem_start_time_stamp,4,4
  25              		.comm	modem_info,60,4
  26              		.comm	modem_stats,32,4
  27              		.comm	updatable_parameters,5,4
  28              		.syntax unified
  29              		.global _printf_float
  30              		.thumb
  31              		.syntax unified
  32              		.comm	http_request,10000,4
  33              		.comm	http_body,10000,4
  34              		.comm	http_route,200,4
  35              		.comm	system_info,28,4
  36              		.comm	system_settings,104,4
  37              		.comm	alarmMeasure,6,4
  38              		.comm	timeToMeasure,1,1
  39              		.comm	alarmSync,6,4
  40              		.comm	timeToSync,1,1
  41              		.comm	timeToSycnRemoteParams,1,1
  42              		.comm	hey,1,1
  43              		.section	.rodata
  44              		.align	2
  45              	.LC0:
  46 0000 54455354 		.ascii	"TEST_VALVE\000"
  46      5F56414C 
  46      564500
  47              		.global	__aeabi_f2d
  48              		.global	__aeabi_dcmplt
  49              		.global	__aeabi_dcmpgt
  50 000b 00       		.align	2
  51              	.LC1:
  52 000c 6E6F7420 		.ascii	"not fully closed or not fully opened\000"
  52      66756C6C 
  52      7920636C 
  52      6F736564 
ARM GAS  C:\Users\dantz\AppData\Local\Temp\cc2WQxPL.s 			page 2


  52      206F7220 
  53              		.global	__aeabi_fmul
  54 0031 000000   		.align	2
  55              	.LC2:
  56 0034 766F6C74 		.ascii	"voltages_blue_brown:%f:%f:%f:%f:%f:%f:%f:%f\000"
  56      61676573 
  56      5F626C75 
  56      655F6272 
  56      6F776E3A 
  57              		.section	.text.valve_test,"ax",%progbits
  58              		.align	2
  59              		.global	valve_test
  60              		.thumb
  61              		.thumb_func
  62              		.type	valve_test, %function
  63              	valve_test:
  64              	.LFB64:
  65              		.file 1 "valve.c"
   1:valve.c       **** #include "valve.h"
   2:valve.c       **** #include "notoriOS.h"
   3:valve.c       **** 
   4:valve.c       **** 
   5:valve.c       **** test_t valve_test(){
  66              		.loc 1 5 0
  67              		.cfi_startproc
  68              		@ args = 0, pretend = 0, frame = 728
  69              		@ frame_needed = 1, uses_anonymous_args = 0
  70 0000 2DE9F04F 		push	{r4, r5, r6, r7, r8, r9, r10, fp, lr}
  71              		.cfi_def_cfa_offset 36
  72              		.cfi_offset 4, -36
  73              		.cfi_offset 5, -32
  74              		.cfi_offset 6, -28
  75              		.cfi_offset 7, -24
  76              		.cfi_offset 8, -20
  77              		.cfi_offset 9, -16
  78              		.cfi_offset 10, -12
  79              		.cfi_offset 11, -8
  80              		.cfi_offset 14, -4
  81 0004 ADF5477D 		sub	sp, sp, #796
  82              		.cfi_def_cfa_offset 832
  83 0008 10AF     		add	r7, sp, #64
  84              		.cfi_def_cfa 7, 768
  85 000a 07F14403 		add	r3, r7, #68
  86 000e 1860     		str	r0, [r3]
   6:valve.c       ****  
   7:valve.c       ****      
   8:valve.c       ****     test_t test; // test_t is a new data type we defined in test.h. We then use that data type to d
   9:valve.c       ****     test.status = 0; // set test status to zero
  87              		.loc 1 9 0
  88 0010 07F5A673 		add	r3, r7, #332
  89 0014 0022     		movs	r2, #0
  90 0016 83F88020 		strb	r2, [r3, #128]
  10:valve.c       ****     snprintf(test.test_name,sizeof(test.test_name),"TEST_VALVE");
  91              		.loc 1 10 0
  92 001a 07F5A673 		add	r3, r7, #332
  93 001e BC4A     		ldr	r2, .L14+16
  94 0020 07CA     		ldmia	r2, {r0, r1, r2}
ARM GAS  C:\Users\dantz\AppData\Local\Temp\cc2WQxPL.s 			page 3


  95 0022 03C3     		stmia	r3!, {r0, r1}
  96 0024 1A80     		strh	r2, [r3]	@ movhi
  97 0026 0233     		adds	r3, r3, #2
  98 0028 120C     		lsrs	r2, r2, #16
  99 002a 1A70     		strb	r2, [r3]
  11:valve.c       **** 
  12:valve.c       ****     float32 positions[8];
  13:valve.c       ****     
  14:valve.c       ****     voltage_t voltages[8];
  15:valve.c       ****     
  16:valve.c       ****     // all the way open
  17:valve.c       ****     Power_VDD1_Write(1u);
 100              		.loc 1 17 0
 101 002c 0120     		movs	r0, #1
 102 002e FFF7FEFF 		bl	Power_VDD1_Write
  18:valve.c       ****     CyDelay(20000u); // check to confirm this is long enough
 103              		.loc 1 18 0
 104 0032 44F62060 		movw	r0, #20000
 105 0036 FFF7FEFF 		bl	CyDelay
  19:valve.c       ****     Power_VDD1_Write(0u);
 106              		.loc 1 19 0
 107 003a 0020     		movs	r0, #0
 108 003c FFF7FEFF 		bl	Power_VDD1_Write
  20:valve.c       ****     // take a position reading and verify that it's all the way open
  21:valve.c       ****     positions[0] = read_Valve_pos();
 109              		.loc 1 21 0
 110 0040 FFF7FEFF 		bl	read_Valve_pos
 111 0044 0246     		mov	r2, r0
 112 0046 07F59673 		add	r3, r7, #300
 113 004a 1A60     		str	r2, [r3]	@ float
  22:valve.c       ****     voltages[0] = voltage_take_readings();
 114              		.loc 1 22 0
 115 004c 07F14C04 		add	r4, r7, #76
 116 0050 07F12003 		add	r3, r7, #32
 117 0054 1846     		mov	r0, r3
 118 0056 FFF7FEFF 		bl	voltage_take_readings
 119 005a 07F12003 		add	r3, r7, #32
 120 005e 1D46     		mov	r5, r3
 121 0060 0FCD     		ldmia	r5!, {r0, r1, r2, r3}
 122 0062 0FC4     		stmia	r4!, {r0, r1, r2, r3}
 123 0064 95E80700 		ldmia	r5, {r0, r1, r2}
 124 0068 84E80700 		stmia	r4, {r0, r1, r2}
  23:valve.c       ****     // do the same for closed
  24:valve.c       ****     Power_VDD2_Write(1u);
 125              		.loc 1 24 0
 126 006c 0120     		movs	r0, #1
 127 006e FFF7FEFF 		bl	Power_VDD2_Write
  25:valve.c       ****     CyDelay(20000u);
 128              		.loc 1 25 0
 129 0072 44F62060 		movw	r0, #20000
 130 0076 FFF7FEFF 		bl	CyDelay
  26:valve.c       ****     Power_VDD2_Write(0u);
 131              		.loc 1 26 0
 132 007a 0020     		movs	r0, #0
 133 007c FFF7FEFF 		bl	Power_VDD2_Write
  27:valve.c       ****     // take a position reading and verify that it's all the way closed
  28:valve.c       ****     positions[1] = read_Valve_pos();
ARM GAS  C:\Users\dantz\AppData\Local\Temp\cc2WQxPL.s 			page 4


 134              		.loc 1 28 0
 135 0080 FFF7FEFF 		bl	read_Valve_pos
 136 0084 0246     		mov	r2, r0
 137 0086 07F59673 		add	r3, r7, #300
 138 008a 5A60     		str	r2, [r3, #4]	@ float
  29:valve.c       ****     voltages[1] = voltage_take_readings();
 139              		.loc 1 29 0
 140 008c 07F14C04 		add	r4, r7, #76
 141 0090 07F12003 		add	r3, r7, #32
 142 0094 1846     		mov	r0, r3
 143 0096 FFF7FEFF 		bl	voltage_take_readings
 144 009a 07F12003 		add	r3, r7, #32
 145 009e 1C34     		adds	r4, r4, #28
 146 00a0 1D46     		mov	r5, r3
 147 00a2 0FCD     		ldmia	r5!, {r0, r1, r2, r3}
 148 00a4 0FC4     		stmia	r4!, {r0, r1, r2, r3}
 149 00a6 95E80700 		ldmia	r5, {r0, r1, r2}
 150 00aa 84E80700 		stmia	r4, {r0, r1, r2}
  30:valve.c       ****     // initial displacement
  31:valve.c       ****     // open valve on
  32:valve.c       ****     Power_VDD1_Write(1u);
 151              		.loc 1 32 0
 152 00ae 0120     		movs	r0, #1
 153 00b0 FFF7FEFF 		bl	Power_VDD1_Write
  33:valve.c       ****     CyDelay(8000u);
 154              		.loc 1 33 0
 155 00b4 4FF4FA50 		mov	r0, #8000
 156 00b8 FFF7FEFF 		bl	CyDelay
  34:valve.c       ****     //open valve off
  35:valve.c       ****     Power_VDD1_Write(0u);
 157              		.loc 1 35 0
 158 00bc 0020     		movs	r0, #0
 159 00be FFF7FEFF 		bl	Power_VDD1_Write
 160              	.LBB2:
  36:valve.c       **** 
  37:valve.c       ****     // these readings should repeat consistently somewhere in the middle range
  38:valve.c       ****     
  39:valve.c       ****     for (int i = 2; i < 8; i++){
 161              		.loc 1 39 0
 162 00c2 0223     		movs	r3, #2
 163 00c4 C7F8D432 		str	r3, [r7, #724]
 164 00c8 32E0     		b	.L2
 165              	.L3:
  40:valve.c       ****         /*
  41:valve.c       ****         if ((i+1)%2){
  42:valve.c       ****             // open valve on
  43:valve.c       ****             Power_VDD1_Write(1u);
  44:valve.c       **** 
  45:valve.c       ****             CyDelay(4000u);
  46:valve.c       ****      
  47:valve.c       ****             //open valve off
  48:valve.c       ****             Power_VDD1_Write(0u);
  49:valve.c       **** 
  50:valve.c       ****             CyDelay(4000u);
  51:valve.c       ****         }
  52:valve.c       ****         else if(i%2){
  53:valve.c       ****             //close valve on
ARM GAS  C:\Users\dantz\AppData\Local\Temp\cc2WQxPL.s 			page 5


  54:valve.c       ****             Power_VDD2_Write(1u);
  55:valve.c       **** 
  56:valve.c       ****             CyDelay(4000u);
  57:valve.c       **** 
  58:valve.c       ****             //close valve off
  59:valve.c       ****             Power_VDD2_Write(0u);
  60:valve.c       **** 
  61:valve.c       ****             CyDelay(4000u);
  62:valve.c       ****         }
  63:valve.c       ****         else {
  64:valve.c       ****             test.status=0;
  65:valve.c       ****             snprintf(test.reason,sizeof(test.reason),"failed in pivot");  
  66:valve.c       ****             return test;
  67:valve.c       ****         }
  68:valve.c       ****         */
  69:valve.c       ****         // for now just slowly open
  70:valve.c       ****         // open valve on
  71:valve.c       ****         Power_VDD1_Write(1u);
 166              		.loc 1 71 0 discriminator 3
 167 00ca 0120     		movs	r0, #1
 168 00cc FFF7FEFF 		bl	Power_VDD1_Write
  72:valve.c       **** 
  73:valve.c       ****         CyDelay(4000u);
 169              		.loc 1 73 0 discriminator 3
 170 00d0 4FF47A60 		mov	r0, #4000
 171 00d4 FFF7FEFF 		bl	CyDelay
  74:valve.c       **** 
  75:valve.c       ****         //open valve off
  76:valve.c       ****         Power_VDD1_Write(0u);
 172              		.loc 1 76 0 discriminator 3
 173 00d8 0020     		movs	r0, #0
 174 00da FFF7FEFF 		bl	Power_VDD1_Write
  77:valve.c       **** 
  78:valve.c       ****         CyDelay(4000u);
 175              		.loc 1 78 0 discriminator 3
 176 00de 4FF47A60 		mov	r0, #4000
 177 00e2 FFF7FEFF 		bl	CyDelay
  79:valve.c       ****         // read position and record this
  80:valve.c       ****         positions[i] = read_Valve_pos();
 178              		.loc 1 80 0 discriminator 3
 179 00e6 FFF7FEFF 		bl	read_Valve_pos
 180 00ea 0146     		mov	r1, r0
 181 00ec 07F59673 		add	r3, r7, #300
 182 00f0 D7F8D422 		ldr	r2, [r7, #724]
 183 00f4 43F82210 		str	r1, [r3, r2, lsl #2]	@ float
  81:valve.c       ****         voltages[i] = voltage_take_readings();
 184              		.loc 1 81 0 discriminator 3
 185 00f8 07F14C01 		add	r1, r7, #76
 186 00fc D7F8D422 		ldr	r2, [r7, #724]
 187 0100 1346     		mov	r3, r2
 188 0102 DB00     		lsls	r3, r3, #3
 189 0104 9B1A     		subs	r3, r3, r2
 190 0106 9B00     		lsls	r3, r3, #2
 191 0108 CC18     		adds	r4, r1, r3
 192 010a 07F12003 		add	r3, r7, #32
 193 010e 1846     		mov	r0, r3
 194 0110 FFF7FEFF 		bl	voltage_take_readings
ARM GAS  C:\Users\dantz\AppData\Local\Temp\cc2WQxPL.s 			page 6


 195 0114 07F12003 		add	r3, r7, #32
 196 0118 1D46     		mov	r5, r3
 197 011a 0FCD     		ldmia	r5!, {r0, r1, r2, r3}
 198 011c 0FC4     		stmia	r4!, {r0, r1, r2, r3}
 199 011e 95E80700 		ldmia	r5, {r0, r1, r2}
 200 0122 84E80700 		stmia	r4, {r0, r1, r2}
  39:valve.c       ****         /*
 201              		.loc 1 39 0 discriminator 3
 202 0126 D7F8D432 		ldr	r3, [r7, #724]
 203 012a 0133     		adds	r3, r3, #1
 204 012c C7F8D432 		str	r3, [r7, #724]
 205              	.L2:
  39:valve.c       ****         /*
 206              		.loc 1 39 0 is_stmt 0 discriminator 1
 207 0130 D7F8D432 		ldr	r3, [r7, #724]
 208 0134 072B     		cmp	r3, #7
 209 0136 C8DD     		ble	.L3
 210              	.LBE2:
  82:valve.c       ****         
  83:valve.c       ****     }
  84:valve.c       **** 
  85:valve.c       ****     // if valve is not moving, return 0 and report an error (probably a blockage or insufficient vo
  86:valve.c       **** 
  87:valve.c       ****     // in test reason report the sequence of positions
  88:valve.c       ****     // should look like 100% open - 0% open - X% - Y% - X% - Y% - X% - Y%
  89:valve.c       ****     // this is what determines whether the test "passes"
  90:valve.c       ****     // because not only is the valve opening and closing properly, we're also measuring it properly
  91:valve.c       **** 
  92:valve.c       ****     // if test passes, set status to 1
  93:valve.c       ****     if (positions[0] < 0.1 && positions[1] > 0.90){
 211              		.loc 1 93 0 is_stmt 1
 212 0138 07F59673 		add	r3, r7, #300
 213 013c 1B68     		ldr	r3, [r3]	@ float
 214 013e 1846     		mov	r0, r3
 215 0140 FFF7FEFF 		bl	__aeabi_f2d
 216 0144 6EA3     		adr	r3, .L14
 217 0146 D3E90023 		ldrd	r2, [r3]
 218 014a FFF7FEFF 		bl	__aeabi_dcmplt
 219 014e 0346     		mov	r3, r0
 220 0150 002B     		cmp	r3, #0
 221 0152 16D0     		beq	.L4
 222              		.loc 1 93 0 is_stmt 0 discriminator 1
 223 0154 07F59673 		add	r3, r7, #300
 224 0158 5B68     		ldr	r3, [r3, #4]	@ float
 225 015a 1846     		mov	r0, r3
 226 015c FFF7FEFF 		bl	__aeabi_f2d
 227 0160 69A3     		adr	r3, .L14+8
 228 0162 D3E90023 		ldrd	r2, [r3]
 229 0166 FFF7FEFF 		bl	__aeabi_dcmpgt
 230 016a 0346     		mov	r3, r0
 231 016c 002B     		cmp	r3, #0
 232 016e 08D0     		beq	.L4
  94:valve.c       ****         test.status = 1;
 233              		.loc 1 94 0 is_stmt 1
 234 0170 07F5A673 		add	r3, r7, #332
 235 0174 0122     		movs	r2, #1
 236 0176 83F88020 		strb	r2, [r3, #128]
ARM GAS  C:\Users\dantz\AppData\Local\Temp\cc2WQxPL.s 			page 7


 237              	.LBB3:
  95:valve.c       ****     }
  96:valve.c       ****     else{
  97:valve.c       ****         test.status=0;
  98:valve.c       ****         snprintf(test.reason,sizeof(test.reason),"not fully closed or not fully opened");
  99:valve.c       ****         return test;
 100:valve.c       ****     }
 101:valve.c       ****     for (int i = 0; i < 8; i++){
 238              		.loc 1 101 0
 239 017a 0023     		movs	r3, #0
 240 017c C7F8D032 		str	r3, [r7, #720]
 241 0180 42E0     		b	.L7
 242              	.L4:
 243              	.LBE3:
  97:valve.c       ****         snprintf(test.reason,sizeof(test.reason),"not fully closed or not fully opened");
 244              		.loc 1 97 0
 245 0182 07F5A673 		add	r3, r7, #332
 246 0186 0022     		movs	r2, #0
 247 0188 83F88020 		strb	r2, [r3, #128]
  98:valve.c       ****         return test;
 248              		.loc 1 98 0
 249 018c 07F5A673 		add	r3, r7, #332
 250 0190 8133     		adds	r3, r3, #129
 251 0192 604A     		ldr	r2, .L14+20
 252 0194 1446     		mov	r4, r2
 253 0196 9E46     		mov	lr, r3
 254 0198 04F1200C 		add	ip, r4, #32
 255              	.L8:
 256 019c 7546     		mov	r5, lr
 257 019e 2646     		mov	r6, r4
 258 01a0 0FCE     		ldmia	r6!, {r0, r1, r2, r3}
 259 01a2 2860     		str	r0, [r5]	@ unaligned
 260 01a4 6960     		str	r1, [r5, #4]	@ unaligned
 261 01a6 AA60     		str	r2, [r5, #8]	@ unaligned
 262 01a8 EB60     		str	r3, [r5, #12]	@ unaligned
 263 01aa 1034     		adds	r4, r4, #16
 264 01ac 0EF1100E 		add	lr, lr, #16
 265 01b0 6445     		cmp	r4, ip
 266 01b2 F3D1     		bne	.L8
 267 01b4 7346     		mov	r3, lr
 268 01b6 2246     		mov	r2, r4
 269 01b8 1068     		ldr	r0, [r2]	@ unaligned
 270 01ba 1860     		str	r0, [r3]	@ unaligned
 271 01bc 1279     		ldrb	r2, [r2, #4]
 272 01be 1A71     		strb	r2, [r3, #4]
  99:valve.c       ****     }
 273              		.loc 1 99 0
 274 01c0 07F14403 		add	r3, r7, #68
 275 01c4 1A68     		ldr	r2, [r3]
 276 01c6 07F5A673 		add	r3, r7, #332
 277 01ca 1046     		mov	r0, r2
 278 01cc 1946     		mov	r1, r3
 279 01ce 40F28113 		movw	r3, #385
 280 01d2 1A46     		mov	r2, r3
 281 01d4 FFF7FEFF 		bl	memcpy
 282 01d8 87E0     		b	.L1
 283              	.L10:
ARM GAS  C:\Users\dantz\AppData\Local\Temp\cc2WQxPL.s 			page 8


 284              	.LBB4:
 102:valve.c       ****         positions[i] = positions[i]*100;
 285              		.loc 1 102 0 discriminator 3
 286 01da 07F59673 		add	r3, r7, #300
 287 01de D7F8D022 		ldr	r2, [r7, #720]
 288 01e2 53F82230 		ldr	r3, [r3, r2, lsl #2]	@ float
 289 01e6 4C49     		ldr	r1, .L14+24
 290 01e8 1846     		mov	r0, r3
 291 01ea FFF7FEFF 		bl	__aeabi_fmul
 292 01ee 0346     		mov	r3, r0
 293 01f0 1946     		mov	r1, r3
 294 01f2 07F59673 		add	r3, r7, #300
 295 01f6 D7F8D022 		ldr	r2, [r7, #720]
 296 01fa 43F82210 		str	r1, [r3, r2, lsl #2]	@ float
 101:valve.c       ****         positions[i] = positions[i]*100;
 297              		.loc 1 101 0 discriminator 3
 298 01fe D7F8D032 		ldr	r3, [r7, #720]
 299 0202 0133     		adds	r3, r3, #1
 300 0204 C7F8D032 		str	r3, [r7, #720]
 301              	.L7:
 101:valve.c       ****         positions[i] = positions[i]*100;
 302              		.loc 1 101 0 is_stmt 0 discriminator 1
 303 0208 D7F8D032 		ldr	r3, [r7, #720]
 304 020c 072B     		cmp	r3, #7
 305 020e E4DD     		ble	.L10
 306              	.LBE4:
 103:valve.c       ****     }
 104:valve.c       ****     // print the series of pivot positions
 105:valve.c       ****     snprintf(test.reason,sizeof(test.reason),"voltages_blue_brown:%f:%f:%f:%f:%f:%f:%f:%f", 
 106:valve.c       ****         voltages[0].voltage_valve_pos_blue, voltages[0].voltage_valve_pos_brown, 
 307              		.loc 1 106 0 is_stmt 1
 308 0210 07F14C03 		add	r3, r7, #76
 309 0214 5B69     		ldr	r3, [r3, #20]	@ float
 105:valve.c       ****         voltages[0].voltage_valve_pos_blue, voltages[0].voltage_valve_pos_brown, 
 310              		.loc 1 105 0
 311 0216 1846     		mov	r0, r3
 312 0218 FFF7FEFF 		bl	__aeabi_f2d
 313 021c 8246     		mov	r10, r0
 314 021e 8B46     		mov	fp, r1
 315              		.loc 1 106 0
 316 0220 07F14C03 		add	r3, r7, #76
 317 0224 1B69     		ldr	r3, [r3, #16]	@ float
 105:valve.c       ****         voltages[0].voltage_valve_pos_blue, voltages[0].voltage_valve_pos_brown, 
 318              		.loc 1 105 0
 319 0226 1846     		mov	r0, r3
 320 0228 FFF7FEFF 		bl	__aeabi_f2d
 321 022c C7E90601 		strd	r0, [r7, #24]
 107:valve.c       ****         voltages[1].voltage_valve_pos_blue, voltages[1].voltage_valve_pos_brown,
 322              		.loc 1 107 0
 323 0230 07F14C03 		add	r3, r7, #76
 324 0234 1B6B     		ldr	r3, [r3, #48]	@ float
 105:valve.c       ****         voltages[0].voltage_valve_pos_blue, voltages[0].voltage_valve_pos_brown, 
 325              		.loc 1 105 0
 326 0236 1846     		mov	r0, r3
 327 0238 FFF7FEFF 		bl	__aeabi_f2d
 328 023c C7E90401 		strd	r0, [r7, #16]
 329              		.loc 1 107 0
ARM GAS  C:\Users\dantz\AppData\Local\Temp\cc2WQxPL.s 			page 9


 330 0240 07F14C03 		add	r3, r7, #76
 331 0244 DB6A     		ldr	r3, [r3, #44]	@ float
 105:valve.c       ****         voltages[0].voltage_valve_pos_blue, voltages[0].voltage_valve_pos_brown, 
 332              		.loc 1 105 0
 333 0246 1846     		mov	r0, r3
 334 0248 FFF7FEFF 		bl	__aeabi_f2d
 335 024c C7E90201 		strd	r0, [r7, #8]
 108:valve.c       ****         voltages[2].voltage_valve_pos_blue, voltages[2].voltage_valve_pos_brown,
 336              		.loc 1 108 0
 337 0250 07F14C03 		add	r3, r7, #76
 338 0254 DB6C     		ldr	r3, [r3, #76]	@ float
 105:valve.c       ****         voltages[0].voltage_valve_pos_blue, voltages[0].voltage_valve_pos_brown, 
 339              		.loc 1 105 0
 340 0256 1846     		mov	r0, r3
 341 0258 FFF7FEFF 		bl	__aeabi_f2d
 342 025c C7E90001 		strd	r0, [r7]
 343              		.loc 1 108 0
 344 0260 07F14C03 		add	r3, r7, #76
 345 0264 9B6C     		ldr	r3, [r3, #72]	@ float
 105:valve.c       ****         voltages[0].voltage_valve_pos_blue, voltages[0].voltage_valve_pos_brown, 
 346              		.loc 1 105 0
 347 0266 1846     		mov	r0, r3
 348 0268 FFF7FEFF 		bl	__aeabi_f2d
 349 026c 8046     		mov	r8, r0
 350 026e 8946     		mov	r9, r1
 109:valve.c       ****         voltages[3].voltage_valve_pos_blue, voltages[3].voltage_valve_pos_brown
 351              		.loc 1 109 0
 352 0270 07F14C03 		add	r3, r7, #76
 353 0274 9B6E     		ldr	r3, [r3, #104]	@ float
 105:valve.c       ****         voltages[0].voltage_valve_pos_blue, voltages[0].voltage_valve_pos_brown, 
 354              		.loc 1 105 0
 355 0276 1846     		mov	r0, r3
 356 0278 FFF7FEFF 		bl	__aeabi_f2d
 357 027c 0446     		mov	r4, r0
 358 027e 0D46     		mov	r5, r1
 359              		.loc 1 109 0
 360 0280 07F14C03 		add	r3, r7, #76
 361 0284 5B6E     		ldr	r3, [r3, #100]	@ float
 105:valve.c       ****         voltages[0].voltage_valve_pos_blue, voltages[0].voltage_valve_pos_brown, 
 362              		.loc 1 105 0
 363 0286 1846     		mov	r0, r3
 364 0288 FFF7FEFF 		bl	__aeabi_f2d
 365 028c 0A46     		mov	r2, r1
 366 028e 0146     		mov	r1, r0
 367 0290 07F5A673 		add	r3, r7, #332
 368 0294 8133     		adds	r3, r3, #129
 369 0296 CDE90E12 		strd	r1, [sp, #56]
 370 029a CDE90C45 		strd	r4, [sp, #48]
 371 029e CDE90A89 		strd	r8, [sp, #40]
 372 02a2 D7E90012 		ldrd	r1, [r7]
 373 02a6 CDE90812 		strd	r1, [sp, #32]
 374 02aa D7E90212 		ldrd	r1, [r7, #8]
 375 02ae CDE90612 		strd	r1, [sp, #24]
 376 02b2 D7E90412 		ldrd	r1, [r7, #16]
 377 02b6 CDE90412 		strd	r1, [sp, #16]
 378 02ba D7E90612 		ldrd	r1, [r7, #24]
 379 02be CDE90212 		strd	r1, [sp, #8]
ARM GAS  C:\Users\dantz\AppData\Local\Temp\cc2WQxPL.s 			page 10


 380 02c2 CDE900AB 		strd	r10, [sp]
 381 02c6 154A     		ldr	r2, .L14+28
 382 02c8 4FF48071 		mov	r1, #256
 383 02cc 1846     		mov	r0, r3
 384 02ce FFF7FEFF 		bl	snprintf
 110:valve.c       ****     );
 111:valve.c       ****    
 112:valve.c       ****     return test;
 385              		.loc 1 112 0
 386 02d2 07F14403 		add	r3, r7, #68
 387 02d6 1A68     		ldr	r2, [r3]
 388 02d8 07F5A673 		add	r3, r7, #332
 389 02dc 1046     		mov	r0, r2
 390 02de 1946     		mov	r1, r3
 391 02e0 40F28113 		movw	r3, #385
 392 02e4 1A46     		mov	r2, r3
 393 02e6 FFF7FEFF 		bl	memcpy
 394              	.L1:
 113:valve.c       ****     
 114:valve.c       ****     // ratio of blue/brown is 0 when fully open and 1 when fully closed
 115:valve.c       ****     
 116:valve.c       **** }
 395              		.loc 1 116 0
 396 02ea 07F14403 		add	r3, r7, #68
 397 02ee 1868     		ldr	r0, [r3]
 398 02f0 07F53777 		add	r7, r7, #732
 399              		.cfi_def_cfa_offset 36
 400 02f4 BD46     		mov	sp, r7
 401              		.cfi_def_cfa_register 13
 402              		@ sp needed
 403 02f6 BDE8F08F 		pop	{r4, r5, r6, r7, r8, r9, r10, fp, pc}
 404              	.L15:
 405 02fa 00BFAFF3 		.align	3
 405      0080
 406              	.L14:
 407 0300 9A999999 		.word	-1717986918
 408 0304 9999B93F 		.word	1069128089
 409 0308 CDCCCCCC 		.word	-858993459
 410 030c CCCCEC3F 		.word	1072483532
 411 0310 00000000 		.word	.LC0
 412 0314 0C000000 		.word	.LC1
 413 0318 0000C842 		.word	1120403456
 414 031c 34000000 		.word	.LC2
 415              		.cfi_endproc
 416              	.LFE64:
 417              		.size	valve_test, .-valve_test
 418              		.global	__aeabi_fdiv
 419              		.section	.text.read_Valve_pos,"ax",%progbits
 420              		.align	2
 421              		.global	read_Valve_pos
 422              		.thumb
 423              		.thumb_func
 424              		.type	read_Valve_pos, %function
 425              	read_Valve_pos:
 426              	.LFB65:
 117:valve.c       **** 
 118:valve.c       **** float32 read_Valve_pos(){
ARM GAS  C:\Users\dantz\AppData\Local\Temp\cc2WQxPL.s 			page 11


 427              		.loc 1 118 0
 428              		.cfi_startproc
 429              		@ args = 0, pretend = 0, frame = 56
 430              		@ frame_needed = 1, uses_anonymous_args = 0
 431 0000 90B5     		push	{r4, r7, lr}
 432              		.cfi_def_cfa_offset 12
 433              		.cfi_offset 4, -12
 434              		.cfi_offset 7, -8
 435              		.cfi_offset 14, -4
 436 0002 8FB0     		sub	sp, sp, #60
 437              		.cfi_def_cfa_offset 72
 438 0004 00AF     		add	r7, sp, #0
 439              		.cfi_def_cfa_register 7
 119:valve.c       ****     
 120:valve.c       ****     
 121:valve.c       ****     
 122:valve.c       ****     return voltage_take_readings().voltage_valve_pos_blue/voltage_take_readings().voltage_valve_pos
 440              		.loc 1 122 0
 441 0006 3B46     		mov	r3, r7
 442 0008 1846     		mov	r0, r3
 443 000a FFF7FEFF 		bl	voltage_take_readings
 444 000e 7C69     		ldr	r4, [r7, #20]	@ float
 445 0010 07F11C03 		add	r3, r7, #28
 446 0014 1846     		mov	r0, r3
 447 0016 FFF7FEFF 		bl	voltage_take_readings
 448 001a FB6A     		ldr	r3, [r7, #44]	@ float
 449 001c 1946     		mov	r1, r3
 450 001e 2046     		mov	r0, r4
 451 0020 FFF7FEFF 		bl	__aeabi_fdiv
 452 0024 0346     		mov	r3, r0
 123:valve.c       **** }
 453              		.loc 1 123 0
 454 0026 1846     		mov	r0, r3
 455 0028 3C37     		adds	r7, r7, #60
 456              		.cfi_def_cfa_offset 12
 457 002a BD46     		mov	sp, r7
 458              		.cfi_def_cfa_register 13
 459              		@ sp needed
 460 002c 90BD     		pop	{r4, r7, pc}
 461              		.cfi_endproc
 462              	.LFE65:
 463              		.size	read_Valve_pos, .-read_Valve_pos
 464 002e 00BF     		.text
 465              	.Letext0:
 466              		.file 2 "c:\\program files (x86)\\cypress\\psoc creator\\4.4\\psoc creator\\import\\gnu\\arm\\5.4.
 467              		.file 3 "c:\\program files (x86)\\cypress\\psoc creator\\4.4\\psoc creator\\import\\gnu\\arm\\5.4.
 468              		.file 4 "Generated_Source\\PSoC5/cytypes.h"
 469              		.file 5 "testing.h"
 470              		.file 6 "voltages.h"
 471              		.file 7 "data.h"
 472              		.file 8 "modem.h"
 473              		.file 9 "notoriOS.h"
 474              		.file 10 "Generated_Source\\PSoC5/core_cm3.h"