ARM GAS  C:\Users\dantz\AppData\Local\Temp\ccn5EnqA.s 			page 1


   1              		.syntax unified
   2              		.cpu cortex-m3
   3              		.fpu softvfp
   4              		.eabi_attribute 20, 1
   5              		.eabi_attribute 21, 1
   6              		.eabi_attribute 23, 3
   7              		.eabi_attribute 24, 1
   8              		.eabi_attribute 25, 1
   9              		.eabi_attribute 26, 1
  10              		.eabi_attribute 30, 6
  11              		.eabi_attribute 34, 1
  12              		.eabi_attribute 18, 4
  13              		.thumb
  14              		.syntax unified
  15              		.file	"voltages.c"
  16              		.text
  17              	.Ltext0:
  18              		.cfi_sections	.debug_frame
  19              		.comm	level_sensor_inbox,100,4
  20              		.comm	level_sensor_enabled,1,1
  21              		.comm	downstream_level_sensor_inbox,100,4
  22              		.comm	downstream_level_sensor_enabled,1,1
  23              		.comm	buffer_overflow,1,1
  24              		.comm	dataPointsInStack,2,2
  25              		.comm	dataPointsInStackDesired,2,2
  26              		.comm	data,6600,4
  27              		.comm	modem_state,1,1
  28              		.comm	modem_start_time_stamp,4,4
  29              		.comm	modem_info,60,4
  30              		.comm	modem_stats,32,4
  31              		.comm	updatable_parameters,8,4
  32              		.syntax unified
  33              		.global _printf_float
  34              		.thumb
  35              		.syntax unified
  36              		.comm	App_LED_enabled,1,1
  37              		.comm	app_led_inbox,100,4
  38              		.comm	http_request,10000,4
  39              		.comm	http_body,10000,4
  40              		.comm	http_route,200,4
  41              		.comm	system_info,28,4
  42              		.comm	system_settings,104,4
  43              		.comm	alarmMeasure,6,4
  44              		.comm	timeToMeasure,1,1
  45              		.comm	alarmSync,6,4
  46              		.comm	timeToSync,1,1
  47              		.comm	timeToSycnRemoteParams,1,1
  48              		.comm	hey,1,1
  49              		.comm	alarmAppLED,6,4
  50              		.comm	timeToAppLED,1,1
  51              		.comm	alarmLevelSensor,6,4
  52              		.comm	timetoLevelSensor,1,1
  53              		.comm	alarmDownstreamLevelSensor,6,4
  54              		.comm	timetoDownstreamLevelSensor,1,1
  55              		.global	__aeabi_f2d
  56              		.global	__aeabi_dsub
  57              		.global	__aeabi_d2f
ARM GAS  C:\Users\dantz\AppData\Local\Temp\ccn5EnqA.s 			page 2


  58              		.global	__aeabi_fmul
  59              		.global	__aeabi_fsub
  60              		.section	.text.voltage_take_readings,"ax",%progbits
  61              		.align	2
  62              		.global	voltage_take_readings
  63              		.thumb
  64              		.thumb_func
  65              		.type	voltage_take_readings, %function
  66              	voltage_take_readings:
  67              	.LFB64:
  68              		.file 1 "voltages.c"
   1:voltages.c    **** #include "voltages.h"
   2:voltages.c    **** #include "notoriOS.h"
   3:voltages.c    **** #include <math.h>
   4:voltages.c    **** 
   5:voltages.c    **** // Function to take voltage readings and save them in the voltage_t datatype
   6:voltages.c    **** voltage_t voltage_take_readings(){
  69              		.loc 1 6 0
  70              		.cfi_startproc
  71              		@ args = 0, pretend = 0, frame = 96
  72              		@ frame_needed = 1, uses_anonymous_args = 0
  73 0000 B0B5     		push	{r4, r5, r7, lr}
  74              		.cfi_def_cfa_offset 16
  75              		.cfi_offset 4, -16
  76              		.cfi_offset 5, -12
  77              		.cfi_offset 7, -8
  78              		.cfi_offset 14, -4
  79 0002 98B0     		sub	sp, sp, #96
  80              		.cfi_def_cfa_offset 112
  81 0004 00AF     		add	r7, sp, #0
  82              		.cfi_def_cfa_register 7
  83 0006 7860     		str	r0, [r7, #4]
   7:voltages.c    ****     
   8:voltages.c    ****     voltage_t voltage;  // Create variable voltage of data structure voltage_t.
   9:voltages.c    ****      
  10:voltages.c    **** 	Battery_Voltage_Enable_Write(ON);   // Flip on the Battery Voltage ADC pin high (turns it on).
  84              		.loc 1 10 0
  85 0008 0120     		movs	r0, #1
  86 000a FFF7FEFF 		bl	Battery_Voltage_Enable_Write
  11:voltages.c    ****     Pressure_Voltage_Enable_Write(ON);  // Flip on the Pressure Transducer Voltage ADC pin high (tu
  87              		.loc 1 11 0
  88 000e 0120     		movs	r0, #1
  89 0010 FFF7FEFF 		bl	Pressure_Voltage_Enable_Write
  12:voltages.c    ****     
  13:voltages.c    **** 	CyDelay(10u);	    // 10 seconds delay to give time to flip on ADC pin.
  90              		.loc 1 13 0
  91 0014 0A20     		movs	r0, #10
  92 0016 FFF7FEFF 		bl	CyDelay
  14:voltages.c    ****     
  15:voltages.c    ****     AMux_Start();       // Start the Analog Multiplexer
  93              		.loc 1 15 0
  94 001a FFF7FEFF 		bl	AMux_Start
  16:voltages.c    ****  
  17:voltages.c    ****     ADC_RestoreConfig();// Have to call this and save (See below). Otherwise ADC won't work through
  95              		.loc 1 17 0
  96 001e FFF7FEFF 		bl	ADC_RestoreConfig
  18:voltages.c    ****     
ARM GAS  C:\Users\dantz\AppData\Local\Temp\ccn5EnqA.s 			page 3


  19:voltages.c    ****     ADC_Start();        // Start the ADC
  97              		.loc 1 19 0
  98 0022 FFF7FEFF 		bl	ADC_Start
  99              	.LBB2:
  20:voltages.c    ****     
  21:voltages.c    ****     float channels[AMux_CHANNELS];
  22:voltages.c    ****     
  23:voltages.c    ****     for(uint8 c = 0; c< AMux_CHANNELS + 1; c++) // Sweep the MUX Channels
 100              		.loc 1 23 0
 101 0026 0023     		movs	r3, #0
 102 0028 87F85F30 		strb	r3, [r7, #95]
 103 002c 34E0     		b	.L2
 104              	.L5:
 105              	.LBB3:
  24:voltages.c    ****     {
  25:voltages.c    ****         
  26:voltages.c    ****         int32 readings[N_SAMPLES];  // Creates new int32 array called readings of size N_SAMPLES = 
  27:voltages.c    ****         
  28:voltages.c    ****         AMux_Select(c); // This functions first disconnects all channels then connects the given ch
 106              		.loc 1 28 0
 107 002e 97F85F30 		ldrb	r3, [r7, #95]	@ zero_extendqisi2
 108 0032 1846     		mov	r0, r3
 109 0034 FFF7FEFF 		bl	AMux_Select
 110              	.LBB4:
  29:voltages.c    ****         
  30:voltages.c    ****         for(uint16 i=0; i< N_SAMPLES; i++){
 111              		.loc 1 30 0
 112 0038 0023     		movs	r3, #0
 113 003a A7F85C30 		strh	r3, [r7, #92]	@ movhi
 114 003e 0FE0     		b	.L3
 115              	.L4:
  31:voltages.c    ****             
  32:voltages.c    ****             readings[i] = ADC_Read32(); // When called, it will start ADC conversions, wait for the
 116              		.loc 1 32 0 discriminator 3
 117 0040 B7F85C40 		ldrh	r4, [r7, #92]
 118 0044 FFF7FEFF 		bl	ADC_Read32
 119 0048 0246     		mov	r2, r0
 120 004a A300     		lsls	r3, r4, #2
 121 004c 07F16001 		add	r1, r7, #96
 122 0050 0B44     		add	r3, r3, r1
 123 0052 43F8582C 		str	r2, [r3, #-88]
  30:voltages.c    ****             
 124              		.loc 1 30 0 discriminator 3
 125 0056 B7F85C30 		ldrh	r3, [r7, #92]
 126 005a 0133     		adds	r3, r3, #1
 127 005c A7F85C30 		strh	r3, [r7, #92]	@ movhi
 128              	.L3:
  30:voltages.c    ****             
 129              		.loc 1 30 0 is_stmt 0 discriminator 1
 130 0060 B7F85C30 		ldrh	r3, [r7, #92]
 131 0064 0A2B     		cmp	r3, #10
 132 0066 EBD9     		bls	.L4
 133              	.LBE4:
  33:voltages.c    ****         }
  34:voltages.c    ****         
  35:voltages.c    ****         // Converts the ADC output to Volts as a floating point number. 
  36:voltages.c    ****         // Get the median of readings and return that.
ARM GAS  C:\Users\dantz\AppData\Local\Temp\ccn5EnqA.s 			page 4


  37:voltages.c    ****         channels[c] = ADC_CountsTo_Volts(find_median32(readings,N_SAMPLES));    // Get median of re
 134              		.loc 1 37 0 is_stmt 1 discriminator 2
 135 0068 97F85F40 		ldrb	r4, [r7, #95]	@ zero_extendqisi2
 136 006c 07F10803 		add	r3, r7, #8
 137 0070 0B21     		movs	r1, #11
 138 0072 1846     		mov	r0, r3
 139 0074 FFF7FEFF 		bl	find_median32
 140 0078 0346     		mov	r3, r0
 141 007a 1846     		mov	r0, r3
 142 007c FFF7FEFF 		bl	ADC_CountsTo_Volts
 143 0080 0246     		mov	r2, r0
 144 0082 A300     		lsls	r3, r4, #2
 145 0084 07F16001 		add	r1, r7, #96
 146 0088 0B44     		add	r3, r3, r1
 147 008a 43F82C2C 		str	r2, [r3, #-44]	@ float
 148              	.LBE3:
  23:voltages.c    ****     {
 149              		.loc 1 23 0 discriminator 2
 150 008e 97F85F30 		ldrb	r3, [r7, #95]	@ zero_extendqisi2
 151 0092 0133     		adds	r3, r3, #1
 152 0094 87F85F30 		strb	r3, [r7, #95]
 153              	.L2:
  23:voltages.c    ****     {
 154              		.loc 1 23 0 is_stmt 0 discriminator 1
 155 0098 97F85F30 		ldrb	r3, [r7, #95]	@ zero_extendqisi2
 156 009c 042B     		cmp	r3, #4
 157 009e C6D9     		bls	.L5
 158              	.LBE2:
  38:voltages.c    ****     }
  39:voltages.c    ****     
  40:voltages.c    ****     AMux_Stop();        // Disconnects all Analog Multiplex channels.
 159              		.loc 1 40 0 is_stmt 1
 160 00a0 FFF7FEFF 		bl	AMux_Start
  41:voltages.c    ****     
  42:voltages.c    ****     ADC_SaveConfig();   // Save the register configuration which are not retention.
 161              		.loc 1 42 0
 162 00a4 FFF7FEFF 		bl	ADC_SaveConfig
  43:voltages.c    ****     
  44:voltages.c    ****     ADC_Stop();         // Stops and powers down the ADC component and the internal clock if the ex
 163              		.loc 1 44 0
 164 00a8 FFF7FEFF 		bl	ADC_Stop
  45:voltages.c    ****     
  46:voltages.c    ****     Battery_Voltage_Enable_Write(OFF);  // Pulls Battery ADC pin low (turns it off).
 165              		.loc 1 46 0
 166 00ac 0020     		movs	r0, #0
 167 00ae FFF7FEFF 		bl	Battery_Voltage_Enable_Write
  47:voltages.c    ****     Pressure_Voltage_Enable_Write(OFF);  // Pulls Pressure Transducer ADC pin low (turns it off).
 168              		.loc 1 47 0
 169 00b2 0020     		movs	r0, #0
 170 00b4 FFF7FEFF 		bl	Pressure_Voltage_Enable_Write
  48:voltages.c    ****     
  49:voltages.c    ****     float offset = channels[0] - 1.024; // Should be 1.024 exactly. BK saw an offset when measuring
 171              		.loc 1 49 0
 172 00b8 7B6B     		ldr	r3, [r7, #52]	@ float
 173 00ba 1846     		mov	r0, r3
 174 00bc FFF7FEFF 		bl	__aeabi_f2d
 175 00c0 19A3     		adr	r3, .L7
ARM GAS  C:\Users\dantz\AppData\Local\Temp\ccn5EnqA.s 			page 5


 176 00c2 D3E90023 		ldrd	r2, [r3]
 177 00c6 FFF7FEFF 		bl	__aeabi_dsub
 178 00ca 0346     		mov	r3, r0
 179 00cc 0C46     		mov	r4, r1
 180 00ce 1846     		mov	r0, r3
 181 00d0 2146     		mov	r1, r4
 182 00d2 FFF7FEFF 		bl	__aeabi_d2f
 183 00d6 0346     		mov	r3, r0
 184 00d8 BB65     		str	r3, [r7, #88]	@ float
  50:voltages.c    ****     voltage.voltage_battery = (channels[ADC_MUX_VBAT] * 11) - offset; // Voltage divider is (1/10) 
 185              		.loc 1 50 0
 186 00da BB6B     		ldr	r3, [r7, #56]	@ float
 187 00dc 1449     		ldr	r1, .L7+8
 188 00de 1846     		mov	r0, r3
 189 00e0 FFF7FEFF 		bl	__aeabi_fmul
 190 00e4 0346     		mov	r3, r0
 191 00e6 B96D     		ldr	r1, [r7, #88]	@ float
 192 00e8 1846     		mov	r0, r3
 193 00ea FFF7FEFF 		bl	__aeabi_fsub
 194 00ee 0346     		mov	r3, r0
 195 00f0 7B64     		str	r3, [r7, #68]	@ float
  51:voltages.c    ****     voltage.voltage_solar = channels[ADC_MUX_VSOL] - offset; // Just want voltage here
 196              		.loc 1 51 0
 197 00f2 FB6B     		ldr	r3, [r7, #60]	@ float
 198 00f4 B96D     		ldr	r1, [r7, #88]	@ float
 199 00f6 1846     		mov	r0, r3
 200 00f8 FFF7FEFF 		bl	__aeabi_fsub
 201 00fc 0346     		mov	r3, r0
 202 00fe BB64     		str	r3, [r7, #72]	@ float
  52:voltages.c    ****     // Voltage across sensor resistor gives 100mV drop for max current, which is 800mA
  53:voltages.c    ****     //voltage.voltage_charge_current = 0.1*(channels[ADC_MUX_CHRG] - voltage.voltage_battery);
  54:voltages.c    ****     voltage.voltage_pressure = channels[ADC_MUX_PRTRANS]; // Pressure transducer reading
 203              		.loc 1 54 0
 204 0100 3B6C     		ldr	r3, [r7, #64]	@ float
 205 0102 3B65     		str	r3, [r7, #80]	@ float
  55:voltages.c    **** 
  56:voltages.c    ****     voltage.valid = 1;
 206              		.loc 1 56 0
 207 0104 0123     		movs	r3, #1
 208 0106 87F85430 		strb	r3, [r7, #84]
  57:voltages.c    ****     
  58:voltages.c    ****     return voltage;
 209              		.loc 1 58 0
 210 010a 7B68     		ldr	r3, [r7, #4]
 211 010c 1D46     		mov	r5, r3
 212 010e 07F14404 		add	r4, r7, #68
 213 0112 0FCC     		ldmia	r4!, {r0, r1, r2, r3}
 214 0114 0FC5     		stmia	r5!, {r0, r1, r2, r3}
 215 0116 2368     		ldr	r3, [r4]
 216 0118 2B60     		str	r3, [r5]
  59:voltages.c    **** }
 217              		.loc 1 59 0
 218 011a 7868     		ldr	r0, [r7, #4]
 219 011c 6037     		adds	r7, r7, #96
 220              		.cfi_def_cfa_offset 16
 221 011e BD46     		mov	sp, r7
 222              		.cfi_def_cfa_register 13
ARM GAS  C:\Users\dantz\AppData\Local\Temp\ccn5EnqA.s 			page 6


 223              		@ sp needed
 224 0120 B0BD     		pop	{r4, r5, r7, pc}
 225              	.L8:
 226 0122 00BFAFF3 		.align	3
 226      0080
 227              	.L7:
 228 0128 FCA9F1D2 		.word	-755914244
 229 012c 4D62F03F 		.word	1072718413
 230 0130 00003041 		.word	1093664768
 231              		.cfi_endproc
 232              	.LFE64:
 233              		.size	voltage_take_readings, .-voltage_take_readings
 234              		.global	__aeabi_fdiv
 235              		.global	__aeabi_ddiv
 236              		.global	__aeabi_dmul
 237              		.section	.text.pressure_sensor_readings,"ax",%progbits
 238              		.align	2
 239              		.global	pressure_sensor_readings
 240              		.thumb
 241              		.thumb_func
 242              		.type	pressure_sensor_readings, %function
 243              	pressure_sensor_readings:
 244              	.LFB65:
  60:voltages.c    **** 
  61:voltages.c    **** // Function to take Pressure sensor readings and save them in the pressure_t datatype
  62:voltages.c    **** pressure_t pressure_sensor_readings(){
 245              		.loc 1 62 0
 246              		.cfi_startproc
 247              		@ args = 0, pretend = 0, frame = 88
 248              		@ frame_needed = 1, uses_anonymous_args = 0
 249 0000 90B5     		push	{r4, r7, lr}
 250              		.cfi_def_cfa_offset 12
 251              		.cfi_offset 4, -12
 252              		.cfi_offset 7, -8
 253              		.cfi_offset 14, -4
 254 0002 97B0     		sub	sp, sp, #92
 255              		.cfi_def_cfa_offset 104
 256 0004 00AF     		add	r7, sp, #0
 257              		.cfi_def_cfa_register 7
 258 0006 7860     		str	r0, [r7, #4]
  63:voltages.c    ****     
  64:voltages.c    ****     pressure_t pressure;  // Create variable voltage of data structure voltage_t.
  65:voltages.c    ****     float channels[AMux_CHANNELS];
  66:voltages.c    ****     int32 readings[N_SAMPLES];  // Creates new int32 array called readings of size N_SAMPLES = 11
  67:voltages.c    ****     
  68:voltages.c    ****     AMux_Start();       // Start the Analog Multiplexer
 259              		.loc 1 68 0
 260 0008 FFF7FEFF 		bl	AMux_Start
  69:voltages.c    ****  
  70:voltages.c    ****     ADC_RestoreConfig();// Have to call this and save (See below). Otherwise ADC won't work through
 261              		.loc 1 70 0
 262 000c FFF7FEFF 		bl	ADC_RestoreConfig
  71:voltages.c    ****     
  72:voltages.c    ****     ADC_Start();        // Start the ADC
 263              		.loc 1 72 0
 264 0010 FFF7FEFF 		bl	ADC_Start
  73:voltages.c    ****     
ARM GAS  C:\Users\dantz\AppData\Local\Temp\ccn5EnqA.s 			page 7


  74:voltages.c    ****     AMux_Select(ADC_MUX_PRTRANS); // This functions first disconnects all channels then connects th
 265              		.loc 1 74 0
 266 0014 0320     		movs	r0, #3
 267 0016 FFF7FEFF 		bl	AMux_Select
 268              	.LBB5:
  75:voltages.c    ****     
  76:voltages.c    ****     for(uint16 i=0; i< N_SAMPLES; i++){   
 269              		.loc 1 76 0
 270 001a 0023     		movs	r3, #0
 271 001c A7F85630 		strh	r3, [r7, #86]	@ movhi
 272 0020 0FE0     		b	.L10
 273              	.L11:
  77:voltages.c    ****         readings[i] = ADC_Read32(); // When called, it will start ADC conversions, wait for the con
 274              		.loc 1 77 0 discriminator 3
 275 0022 B7F85640 		ldrh	r4, [r7, #86]
 276 0026 FFF7FEFF 		bl	ADC_Read32
 277 002a 0246     		mov	r2, r0
 278 002c A300     		lsls	r3, r4, #2
 279 002e 07F15801 		add	r1, r7, #88
 280 0032 0B44     		add	r3, r3, r1
 281 0034 43F8502C 		str	r2, [r3, #-80]
  76:voltages.c    ****         readings[i] = ADC_Read32(); // When called, it will start ADC conversions, wait for the con
 282              		.loc 1 76 0 discriminator 3
 283 0038 B7F85630 		ldrh	r3, [r7, #86]
 284 003c 0133     		adds	r3, r3, #1
 285 003e A7F85630 		strh	r3, [r7, #86]	@ movhi
 286              	.L10:
  76:voltages.c    ****         readings[i] = ADC_Read32(); // When called, it will start ADC conversions, wait for the con
 287              		.loc 1 76 0 is_stmt 0 discriminator 1
 288 0042 B7F85630 		ldrh	r3, [r7, #86]
 289 0046 0A2B     		cmp	r3, #10
 290 0048 EBD9     		bls	.L11
 291              	.LBE5:
  78:voltages.c    ****     }
  79:voltages.c    ****     
  80:voltages.c    ****     // Converts the ADC output to Volts as a floating point number. 
  81:voltages.c    ****     // Get the median of readings and return that.
  82:voltages.c    ****     pressure.pressure_voltage_off = ADC_CountsTo_Volts(find_median32(readings,N_SAMPLES));    // Ge
 292              		.loc 1 82 0 is_stmt 1
 293 004a 07F10803 		add	r3, r7, #8
 294 004e 0B21     		movs	r1, #11
 295 0050 1846     		mov	r0, r3
 296 0052 FFF7FEFF 		bl	find_median32
 297 0056 0346     		mov	r3, r0
 298 0058 1846     		mov	r0, r3
 299 005a FFF7FEFF 		bl	ADC_CountsTo_Volts
 300 005e 0346     		mov	r3, r0
 301 0060 BB64     		str	r3, [r7, #72]	@ float
  83:voltages.c    ****     pressure.pressure_voltage_off = floorf(pressure.pressure_voltage_off * 100) / 100;
 302              		.loc 1 83 0
 303 0062 BB6C     		ldr	r3, [r7, #72]	@ float
 304 0064 4849     		ldr	r1, .L15+16
 305 0066 1846     		mov	r0, r3
 306 0068 FFF7FEFF 		bl	__aeabi_fmul
 307 006c 0346     		mov	r3, r0
 308 006e 1846     		mov	r0, r3
 309 0070 FFF7FEFF 		bl	floorf
ARM GAS  C:\Users\dantz\AppData\Local\Temp\ccn5EnqA.s 			page 8


 310 0074 0346     		mov	r3, r0
 311 0076 4449     		ldr	r1, .L15+16
 312 0078 1846     		mov	r0, r3
 313 007a FFF7FEFF 		bl	__aeabi_fdiv
 314 007e 0346     		mov	r3, r0
 315 0080 BB64     		str	r3, [r7, #72]	@ float
  84:voltages.c    ****     
  85:voltages.c    ****     Pressure_Voltage_Enable_Write(ON);  // Flip on the Pressure Transducer Voltage ADC pin high (tu
 316              		.loc 1 85 0
 317 0082 0120     		movs	r0, #1
 318 0084 FFF7FEFF 		bl	Pressure_Voltage_Enable_Write
  86:voltages.c    ****     
  87:voltages.c    **** 	CyDelay(10u);	    // 10 seconds delay to give time to flip on ADC pin.
 319              		.loc 1 87 0
 320 0088 0A20     		movs	r0, #10
 321 008a FFF7FEFF 		bl	CyDelay
 322              	.LBB6:
  88:voltages.c    ****   
  89:voltages.c    ****     for(uint16 i=0; i< N_SAMPLES; i++){   
 323              		.loc 1 89 0
 324 008e 0023     		movs	r3, #0
 325 0090 A7F85430 		strh	r3, [r7, #84]	@ movhi
 326 0094 0FE0     		b	.L12
 327              	.L13:
  90:voltages.c    ****         readings[i] = ADC_Read32(); // When called, it will start ADC conversions, wait for the con
 328              		.loc 1 90 0 discriminator 3
 329 0096 B7F85440 		ldrh	r4, [r7, #84]
 330 009a FFF7FEFF 		bl	ADC_Read32
 331 009e 0246     		mov	r2, r0
 332 00a0 A300     		lsls	r3, r4, #2
 333 00a2 07F15801 		add	r1, r7, #88
 334 00a6 0B44     		add	r3, r3, r1
 335 00a8 43F8502C 		str	r2, [r3, #-80]
  89:voltages.c    ****         readings[i] = ADC_Read32(); // When called, it will start ADC conversions, wait for the con
 336              		.loc 1 89 0 discriminator 3
 337 00ac B7F85430 		ldrh	r3, [r7, #84]
 338 00b0 0133     		adds	r3, r3, #1
 339 00b2 A7F85430 		strh	r3, [r7, #84]	@ movhi
 340              	.L12:
  89:voltages.c    ****         readings[i] = ADC_Read32(); // When called, it will start ADC conversions, wait for the con
 341              		.loc 1 89 0 is_stmt 0 discriminator 1
 342 00b6 B7F85430 		ldrh	r3, [r7, #84]
 343 00ba 0A2B     		cmp	r3, #10
 344 00bc EBD9     		bls	.L13
 345              	.LBE6:
  91:voltages.c    ****     }
  92:voltages.c    ****     
  93:voltages.c    ****     // Converts the ADC output to Volts as a floating point number. 
  94:voltages.c    ****     // Get the median of readings and return that.
  95:voltages.c    ****     pressure.pressure_voltage_on = ADC_CountsTo_Volts(find_median32(readings,N_SAMPLES));    // Get
 346              		.loc 1 95 0 is_stmt 1
 347 00be 07F10803 		add	r3, r7, #8
 348 00c2 0B21     		movs	r1, #11
 349 00c4 1846     		mov	r0, r3
 350 00c6 FFF7FEFF 		bl	find_median32
 351 00ca 0346     		mov	r3, r0
 352 00cc 1846     		mov	r0, r3
ARM GAS  C:\Users\dantz\AppData\Local\Temp\ccn5EnqA.s 			page 9


 353 00ce FFF7FEFF 		bl	ADC_CountsTo_Volts
 354 00d2 0346     		mov	r3, r0
 355 00d4 7B64     		str	r3, [r7, #68]	@ float
  96:voltages.c    ****     
  97:voltages.c    ****     AMux_Stop();        // Disconnects all Analog Multiplex channels.
 356              		.loc 1 97 0
 357 00d6 FFF7FEFF 		bl	AMux_Start
  98:voltages.c    ****     
  99:voltages.c    ****     ADC_SaveConfig();   // Save the register configuration which are not retention.
 358              		.loc 1 99 0
 359 00da FFF7FEFF 		bl	ADC_SaveConfig
 100:voltages.c    ****     
 101:voltages.c    ****     ADC_Stop();         // Stops and powers down the ADC component and the internal clock if the ex
 360              		.loc 1 101 0
 361 00de FFF7FEFF 		bl	ADC_Stop
 102:voltages.c    ****     
 103:voltages.c    ****     Pressure_Voltage_Enable_Write(OFF);  // Pulls Pressure Transducer ADC pin low (turns it off).
 362              		.loc 1 103 0
 363 00e2 0020     		movs	r0, #0
 364 00e4 FFF7FEFF 		bl	Pressure_Voltage_Enable_Write
 104:voltages.c    ****     // Calculate the pressure transducer current output.
 105:voltages.c    ****     // i=V/R where i= currrent, V= voltage, and R= resistance= 150 ohms. Divide by 1000 to get curr
 106:voltages.c    ****     // Should fall between 4 and 20mA
 107:voltages.c    ****     pressure.pressure_current = (pressure.pressure_voltage_on/ 150.0)*1000; 
 365              		.loc 1 107 0
 366 00e8 7B6C     		ldr	r3, [r7, #68]	@ float
 367 00ea 1846     		mov	r0, r3
 368 00ec FFF7FEFF 		bl	__aeabi_f2d
 369 00f0 21A3     		adr	r3, .L15
 370 00f2 D3E90023 		ldrd	r2, [r3]
 371 00f6 FFF7FEFF 		bl	__aeabi_ddiv
 372 00fa 0346     		mov	r3, r0
 373 00fc 0C46     		mov	r4, r1
 374 00fe 1846     		mov	r0, r3
 375 0100 2146     		mov	r1, r4
 376 0102 4FF00002 		mov	r2, #0
 377 0106 214B     		ldr	r3, .L15+20
 378 0108 FFF7FEFF 		bl	__aeabi_dmul
 379 010c 0346     		mov	r3, r0
 380 010e 0C46     		mov	r4, r1
 381 0110 1846     		mov	r0, r3
 382 0112 2146     		mov	r1, r4
 383 0114 FFF7FEFF 		bl	__aeabi_d2f
 384 0118 0346     		mov	r3, r0
 385 011a FB64     		str	r3, [r7, #76]	@ float
 108:voltages.c    ****     // Calculate the estimated depth from the pressure transducer.
 109:voltages.c    ****     // d = (Dmax*V/0.016R) - (Dmax/4) where d= depth, V= voltage, R= resistance= 150 ohms, Dmax = s
 110:voltages.c    ****     // Should fall between 0 and 10 ft
 111:voltages.c    ****     pressure.pressure_depth = ((10.0*pressure.pressure_voltage_on)/(0.016*150))-(10.0/4.0);   
 386              		.loc 1 111 0
 387 011c 7B6C     		ldr	r3, [r7, #68]	@ float
 388 011e 1846     		mov	r0, r3
 389 0120 FFF7FEFF 		bl	__aeabi_f2d
 390 0124 4FF00002 		mov	r2, #0
 391 0128 194B     		ldr	r3, .L15+24
 392 012a FFF7FEFF 		bl	__aeabi_dmul
 393 012e 0346     		mov	r3, r0
ARM GAS  C:\Users\dantz\AppData\Local\Temp\ccn5EnqA.s 			page 10


 394 0130 0C46     		mov	r4, r1
 395 0132 1846     		mov	r0, r3
 396 0134 2146     		mov	r1, r4
 397 0136 12A3     		adr	r3, .L15+8
 398 0138 D3E90023 		ldrd	r2, [r3]
 399 013c FFF7FEFF 		bl	__aeabi_ddiv
 400 0140 0346     		mov	r3, r0
 401 0142 0C46     		mov	r4, r1
 402 0144 1846     		mov	r0, r3
 403 0146 2146     		mov	r1, r4
 404 0148 4FF00002 		mov	r2, #0
 405 014c 114B     		ldr	r3, .L15+28
 406 014e FFF7FEFF 		bl	__aeabi_dsub
 407 0152 0346     		mov	r3, r0
 408 0154 0C46     		mov	r4, r1
 409 0156 1846     		mov	r0, r3
 410 0158 2146     		mov	r1, r4
 411 015a FFF7FEFF 		bl	__aeabi_d2f
 412 015e 0346     		mov	r3, r0
 413 0160 3B65     		str	r3, [r7, #80]	@ float
 112:voltages.c    ****     return pressure;
 414              		.loc 1 112 0
 415 0162 7B68     		ldr	r3, [r7, #4]
 416 0164 1C46     		mov	r4, r3
 417 0166 07F14403 		add	r3, r7, #68
 418 016a 0FCB     		ldmia	r3, {r0, r1, r2, r3}
 419 016c 84E80F00 		stmia	r4, {r0, r1, r2, r3}
 113:voltages.c    **** }
 420              		.loc 1 113 0
 421 0170 7868     		ldr	r0, [r7, #4]
 422 0172 5C37     		adds	r7, r7, #92
 423              		.cfi_def_cfa_offset 12
 424 0174 BD46     		mov	sp, r7
 425              		.cfi_def_cfa_register 13
 426              		@ sp needed
 427 0176 90BD     		pop	{r4, r7, pc}
 428              	.L16:
 429              		.align	3
 430              	.L15:
 431 0178 00000000 		.word	0
 432 017c 00C06240 		.word	1080213504
 433 0180 33333333 		.word	858993459
 434 0184 33330340 		.word	1073951539
 435 0188 0000C842 		.word	1120403456
 436 018c 00408F40 		.word	1083129856
 437 0190 00002440 		.word	1076101120
 438 0194 00000440 		.word	1074003968
 439              		.cfi_endproc
 440              	.LFE65:
 441              		.size	pressure_sensor_readings, .-pressure_sensor_readings
 442              		.section	.text.pressure_calculations,"ax",%progbits
 443              		.align	2
 444              		.global	pressure_calculations
 445              		.thumb
 446              		.thumb_func
 447              		.type	pressure_calculations, %function
 448              	pressure_calculations:
ARM GAS  C:\Users\dantz\AppData\Local\Temp\ccn5EnqA.s 			page 11


 449              	.LFB66:
 114:voltages.c    **** 
 115:voltages.c    **** // Function to calculate the pressure transducer current and depth estimate.
 116:voltages.c    **** pressure_t pressure_calculations(voltage_t voltage){
 450              		.loc 1 116 0
 451              		.cfi_startproc
 452              		@ args = 24, pretend = 16, frame = 24
 453              		@ frame_needed = 1, uses_anonymous_args = 0
 454 0000 84B0     		sub	sp, sp, #16
 455              		.cfi_def_cfa_offset 16
 456 0002 90B5     		push	{r4, r7, lr}
 457              		.cfi_def_cfa_offset 28
 458              		.cfi_offset 4, -28
 459              		.cfi_offset 7, -24
 460              		.cfi_offset 14, -20
 461 0004 87B0     		sub	sp, sp, #28
 462              		.cfi_def_cfa_offset 56
 463 0006 00AF     		add	r7, sp, #0
 464              		.cfi_def_cfa_register 7
 465 0008 7860     		str	r0, [r7, #4]
 466 000a 07F12C00 		add	r0, r7, #44
 467 000e 80E80E00 		stmia	r0, {r1, r2, r3}
 117:voltages.c    ****     // Create variable pressure of data structure type pressure_t.
 118:voltages.c    ****     pressure_t pressure;
 119:voltages.c    ****     
 120:voltages.c    ****     // Calculate the pressure transducer current output.
 121:voltages.c    ****     // i=V/R where i= currrent, V= voltage, and R= resistance= 150 ohms. Divide by 1000 to get curr
 122:voltages.c    ****     // Should fall between 4 and 20mA
 123:voltages.c    ****     pressure.pressure_current = (voltage.voltage_pressure/ 150.0)/1000; 
 468              		.loc 1 123 0
 469 0012 BB6B     		ldr	r3, [r7, #56]	@ float
 470 0014 1846     		mov	r0, r3
 471 0016 FFF7FEFF 		bl	__aeabi_f2d
 472 001a 23A3     		adr	r3, .L19
 473 001c D3E90023 		ldrd	r2, [r3]
 474 0020 FFF7FEFF 		bl	__aeabi_ddiv
 475 0024 0346     		mov	r3, r0
 476 0026 0C46     		mov	r4, r1
 477 0028 1846     		mov	r0, r3
 478 002a 2146     		mov	r1, r4
 479 002c 4FF00002 		mov	r2, #0
 480 0030 214B     		ldr	r3, .L19+16
 481 0032 FFF7FEFF 		bl	__aeabi_ddiv
 482 0036 0346     		mov	r3, r0
 483 0038 0C46     		mov	r4, r1
 484 003a 1846     		mov	r0, r3
 485 003c 2146     		mov	r1, r4
 486 003e FFF7FEFF 		bl	__aeabi_d2f
 487 0042 0346     		mov	r3, r0
 488 0044 3B61     		str	r3, [r7, #16]	@ float
 124:voltages.c    ****     // Calculate the estimated depth from the pressure transducer.
 125:voltages.c    ****     // d = (Dmax*V/0.016R) - (Dmax/4) where d= depth, V= voltage, R= resistance= 150 ohms, Dmax = s
 126:voltages.c    ****     // Should fall between 0 and 10 ft
 127:voltages.c    ****     pressure.pressure_depth = ((10.0*voltage.voltage_pressure)/(0.016*150))-(10.0/4.0); 
 489              		.loc 1 127 0
 490 0046 BB6B     		ldr	r3, [r7, #56]	@ float
 491 0048 1846     		mov	r0, r3
ARM GAS  C:\Users\dantz\AppData\Local\Temp\ccn5EnqA.s 			page 12


 492 004a FFF7FEFF 		bl	__aeabi_f2d
 493 004e 4FF00002 		mov	r2, #0
 494 0052 1A4B     		ldr	r3, .L19+20
 495 0054 FFF7FEFF 		bl	__aeabi_dmul
 496 0058 0346     		mov	r3, r0
 497 005a 0C46     		mov	r4, r1
 498 005c 1846     		mov	r0, r3
 499 005e 2146     		mov	r1, r4
 500 0060 13A3     		adr	r3, .L19+8
 501 0062 D3E90023 		ldrd	r2, [r3]
 502 0066 FFF7FEFF 		bl	__aeabi_ddiv
 503 006a 0346     		mov	r3, r0
 504 006c 0C46     		mov	r4, r1
 505 006e 1846     		mov	r0, r3
 506 0070 2146     		mov	r1, r4
 507 0072 4FF00002 		mov	r2, #0
 508 0076 124B     		ldr	r3, .L19+24
 509 0078 FFF7FEFF 		bl	__aeabi_dsub
 510 007c 0346     		mov	r3, r0
 511 007e 0C46     		mov	r4, r1
 512 0080 1846     		mov	r0, r3
 513 0082 2146     		mov	r1, r4
 514 0084 FFF7FEFF 		bl	__aeabi_d2f
 515 0088 0346     		mov	r3, r0
 516 008a 7B61     		str	r3, [r7, #20]	@ float
 128:voltages.c    ****     return pressure;
 517              		.loc 1 128 0
 518 008c 7B68     		ldr	r3, [r7, #4]
 519 008e 1C46     		mov	r4, r3
 520 0090 07F10803 		add	r3, r7, #8
 521 0094 0FCB     		ldmia	r3, {r0, r1, r2, r3}
 522 0096 84E80F00 		stmia	r4, {r0, r1, r2, r3}
 129:voltages.c    **** }
 523              		.loc 1 129 0
 524 009a 7868     		ldr	r0, [r7, #4]
 525 009c 1C37     		adds	r7, r7, #28
 526              		.cfi_def_cfa_offset 28
 527 009e BD46     		mov	sp, r7
 528              		.cfi_def_cfa_register 13
 529              		@ sp needed
 530 00a0 BDE89040 		pop	{r4, r7, lr}
 531              		.cfi_restore 14
 532              		.cfi_restore 7
 533              		.cfi_restore 4
 534              		.cfi_def_cfa_offset 16
 535 00a4 04B0     		add	sp, sp, #16
 536              		.cfi_def_cfa_offset 0
 537 00a6 7047     		bx	lr
 538              	.L20:
 539              		.align	3
 540              	.L19:
 541 00a8 00000000 		.word	0
 542 00ac 00C06240 		.word	1080213504
 543 00b0 33333333 		.word	858993459
 544 00b4 33330340 		.word	1073951539
 545 00b8 00408F40 		.word	1083129856
 546 00bc 00002440 		.word	1076101120
ARM GAS  C:\Users\dantz\AppData\Local\Temp\ccn5EnqA.s 			page 13


 547 00c0 00000440 		.word	1074003968
 548              		.cfi_endproc
 549              	.LFE66:
 550              		.size	pressure_calculations, .-pressure_calculations
 551              		.section	.text.sort32,"ax",%progbits
 552              		.align	2
 553              		.global	sort32
 554              		.thumb
 555              		.thumb_func
 556              		.type	sort32, %function
 557              	sort32:
 558              	.LFB67:
 130:voltages.c    ****     
 131:voltages.c    ****     
 132:voltages.c    **** 
 133:voltages.c    **** // Function to sort the elements in the level readings array
 134:voltages.c    **** void sort32(int32 a[],int32 n) { 
 559              		.loc 1 134 0
 560              		.cfi_startproc
 561              		@ args = 0, pretend = 0, frame = 16
 562              		@ frame_needed = 1, uses_anonymous_args = 0
 563 0000 80B5     		push	{r7, lr}
 564              		.cfi_def_cfa_offset 8
 565              		.cfi_offset 7, -8
 566              		.cfi_offset 14, -4
 567 0002 84B0     		sub	sp, sp, #16
 568              		.cfi_def_cfa_offset 24
 569 0004 00AF     		add	r7, sp, #0
 570              		.cfi_def_cfa_register 7
 571 0006 7860     		str	r0, [r7, #4]
 572 0008 3960     		str	r1, [r7]
 135:voltages.c    ****    int32 i,j;
 136:voltages.c    **** 
 137:voltages.c    ****    for(i = 0;i < n-1;i++) {
 573              		.loc 1 137 0
 574 000a 0023     		movs	r3, #0
 575 000c FB60     		str	r3, [r7, #12]
 576 000e 28E0     		b	.L22
 577              	.L26:
 138:voltages.c    ****       for(j = 0;j < n-i-1;j++) {
 578              		.loc 1 138 0
 579 0010 0023     		movs	r3, #0
 580 0012 BB60     		str	r3, [r7, #8]
 581 0014 1BE0     		b	.L23
 582              	.L25:
 139:voltages.c    ****          if(a[j] > a[j+1])
 583              		.loc 1 139 0
 584 0016 BB68     		ldr	r3, [r7, #8]
 585 0018 9B00     		lsls	r3, r3, #2
 586 001a 7A68     		ldr	r2, [r7, #4]
 587 001c 1344     		add	r3, r3, r2
 588 001e 1A68     		ldr	r2, [r3]
 589 0020 BB68     		ldr	r3, [r7, #8]
 590 0022 0133     		adds	r3, r3, #1
 591 0024 9B00     		lsls	r3, r3, #2
 592 0026 7968     		ldr	r1, [r7, #4]
 593 0028 0B44     		add	r3, r3, r1
ARM GAS  C:\Users\dantz\AppData\Local\Temp\ccn5EnqA.s 			page 14


 594 002a 1B68     		ldr	r3, [r3]
 595 002c 9A42     		cmp	r2, r3
 596 002e 0BDD     		ble	.L24
 140:voltages.c    ****             swap32(&a[j],&a[j+1]);  // Swap the address of a[j] and a[j+1]
 597              		.loc 1 140 0
 598 0030 BB68     		ldr	r3, [r7, #8]
 599 0032 9B00     		lsls	r3, r3, #2
 600 0034 7A68     		ldr	r2, [r7, #4]
 601 0036 D018     		adds	r0, r2, r3
 602 0038 BB68     		ldr	r3, [r7, #8]
 603 003a 0133     		adds	r3, r3, #1
 604 003c 9B00     		lsls	r3, r3, #2
 605 003e 7A68     		ldr	r2, [r7, #4]
 606 0040 1344     		add	r3, r3, r2
 607 0042 1946     		mov	r1, r3
 608 0044 FFF7FEFF 		bl	swap32
 609              	.L24:
 138:voltages.c    ****       for(j = 0;j < n-i-1;j++) {
 610              		.loc 1 138 0 discriminator 2
 611 0048 BB68     		ldr	r3, [r7, #8]
 612 004a 0133     		adds	r3, r3, #1
 613 004c BB60     		str	r3, [r7, #8]
 614              	.L23:
 138:voltages.c    ****       for(j = 0;j < n-i-1;j++) {
 615              		.loc 1 138 0 is_stmt 0 discriminator 1
 616 004e 3A68     		ldr	r2, [r7]
 617 0050 FB68     		ldr	r3, [r7, #12]
 618 0052 D31A     		subs	r3, r2, r3
 619 0054 5A1E     		subs	r2, r3, #1
 620 0056 BB68     		ldr	r3, [r7, #8]
 621 0058 9A42     		cmp	r2, r3
 622 005a DCDC     		bgt	.L25
 137:voltages.c    ****       for(j = 0;j < n-i-1;j++) {
 623              		.loc 1 137 0 is_stmt 1 discriminator 2
 624 005c FB68     		ldr	r3, [r7, #12]
 625 005e 0133     		adds	r3, r3, #1
 626 0060 FB60     		str	r3, [r7, #12]
 627              	.L22:
 137:voltages.c    ****       for(j = 0;j < n-i-1;j++) {
 628              		.loc 1 137 0 is_stmt 0 discriminator 1
 629 0062 3B68     		ldr	r3, [r7]
 630 0064 5A1E     		subs	r2, r3, #1
 631 0066 FB68     		ldr	r3, [r7, #12]
 632 0068 9A42     		cmp	r2, r3
 633 006a D1DC     		bgt	.L26
 141:voltages.c    ****       }
 142:voltages.c    ****    }
 143:voltages.c    **** }
 634              		.loc 1 143 0 is_stmt 1
 635 006c 00BF     		nop
 636 006e 1037     		adds	r7, r7, #16
 637              		.cfi_def_cfa_offset 8
 638 0070 BD46     		mov	sp, r7
 639              		.cfi_def_cfa_register 13
 640              		@ sp needed
 641 0072 80BD     		pop	{r7, pc}
 642              		.cfi_endproc
ARM GAS  C:\Users\dantz\AppData\Local\Temp\ccn5EnqA.s 			page 15


 643              	.LFE67:
 644              		.size	sort32, .-sort32
 645              		.section	.text.swap32,"ax",%progbits
 646              		.align	2
 647              		.global	swap32
 648              		.thumb
 649              		.thumb_func
 650              		.type	swap32, %function
 651              	swap32:
 652              	.LFB68:
 144:voltages.c    **** 
 145:voltages.c    **** // Function to swap elements in the level readings array in order to sort them
 146:voltages.c    **** void swap32(int32 *p,int32 *q){
 653              		.loc 1 146 0
 654              		.cfi_startproc
 655              		@ args = 0, pretend = 0, frame = 16
 656              		@ frame_needed = 1, uses_anonymous_args = 0
 657              		@ link register save eliminated.
 658 0000 80B4     		push	{r7}
 659              		.cfi_def_cfa_offset 4
 660              		.cfi_offset 7, -4
 661 0002 85B0     		sub	sp, sp, #20
 662              		.cfi_def_cfa_offset 24
 663 0004 00AF     		add	r7, sp, #0
 664              		.cfi_def_cfa_register 7
 665 0006 7860     		str	r0, [r7, #4]
 666 0008 3960     		str	r1, [r7]
 147:voltages.c    ****    int32 t;
 148:voltages.c    ****    
 149:voltages.c    ****    t=*p; 
 667              		.loc 1 149 0
 668 000a 7B68     		ldr	r3, [r7, #4]
 669 000c 1B68     		ldr	r3, [r3]
 670 000e FB60     		str	r3, [r7, #12]
 150:voltages.c    ****    *p=*q; 
 671              		.loc 1 150 0
 672 0010 3B68     		ldr	r3, [r7]
 673 0012 1A68     		ldr	r2, [r3]
 674 0014 7B68     		ldr	r3, [r7, #4]
 675 0016 1A60     		str	r2, [r3]
 151:voltages.c    ****    *q=t;
 676              		.loc 1 151 0
 677 0018 3B68     		ldr	r3, [r7]
 678 001a FA68     		ldr	r2, [r7, #12]
 679 001c 1A60     		str	r2, [r3]
 152:voltages.c    **** }
 680              		.loc 1 152 0
 681 001e 00BF     		nop
 682 0020 1437     		adds	r7, r7, #20
 683              		.cfi_def_cfa_offset 4
 684 0022 BD46     		mov	sp, r7
 685              		.cfi_def_cfa_register 13
 686              		@ sp needed
 687 0024 80BC     		pop	{r7}
 688              		.cfi_restore 7
 689              		.cfi_def_cfa_offset 0
 690 0026 7047     		bx	lr
ARM GAS  C:\Users\dantz\AppData\Local\Temp\ccn5EnqA.s 			page 16


 691              		.cfi_endproc
 692              	.LFE68:
 693              		.size	swap32, .-swap32
 694              		.global	__aeabi_i2d
 695              		.global	__aeabi_d2iz
 696              		.section	.text.find_median32,"ax",%progbits
 697              		.align	2
 698              		.global	find_median32
 699              		.thumb
 700              		.thumb_func
 701              		.type	find_median32, %function
 702              	find_median32:
 703              	.LFB69:
 153:voltages.c    **** 
 154:voltages.c    **** // Function to calculate the median of the array, after array is sorted
 155:voltages.c    **** int32 find_median32(int32 array[] , int32 n)
 156:voltages.c    **** {
 704              		.loc 1 156 0
 705              		.cfi_startproc
 706              		@ args = 0, pretend = 0, frame = 16
 707              		@ frame_needed = 1, uses_anonymous_args = 0
 708 0000 90B5     		push	{r4, r7, lr}
 709              		.cfi_def_cfa_offset 12
 710              		.cfi_offset 4, -12
 711              		.cfi_offset 7, -8
 712              		.cfi_offset 14, -4
 713 0002 85B0     		sub	sp, sp, #20
 714              		.cfi_def_cfa_offset 32
 715 0004 00AF     		add	r7, sp, #0
 716              		.cfi_def_cfa_register 7
 717 0006 7860     		str	r0, [r7, #4]
 718 0008 3960     		str	r1, [r7]
 157:voltages.c    ****     int32 median=0;
 719              		.loc 1 157 0
 720 000a 0023     		movs	r3, #0
 721 000c FB60     		str	r3, [r7, #12]
 158:voltages.c    ****     sort32(array,n);
 722              		.loc 1 158 0
 723 000e 3968     		ldr	r1, [r7]
 724 0010 7868     		ldr	r0, [r7, #4]
 725 0012 FFF7FEFF 		bl	sort32
 159:voltages.c    ****     
 160:voltages.c    ****     // If number of elements are even
 161:voltages.c    ****     if(n%2 == 0)
 726              		.loc 1 161 0
 727 0016 3B68     		ldr	r3, [r7]
 728 0018 03F00103 		and	r3, r3, #1
 729 001c 002B     		cmp	r3, #0
 730 001e 23D1     		bne	.L29
 162:voltages.c    ****         // Median is the average of the  two middle sorted numbers
 163:voltages.c    ****         median = (array[(n-1)/2] + array[n/2])/2.0;
 731              		.loc 1 163 0
 732 0020 3B68     		ldr	r3, [r7]
 733 0022 013B     		subs	r3, r3, #1
 734 0024 DA0F     		lsrs	r2, r3, #31
 735 0026 1344     		add	r3, r3, r2
 736 0028 5B10     		asrs	r3, r3, #1
ARM GAS  C:\Users\dantz\AppData\Local\Temp\ccn5EnqA.s 			page 17


 737 002a 9B00     		lsls	r3, r3, #2
 738 002c 7A68     		ldr	r2, [r7, #4]
 739 002e 1344     		add	r3, r3, r2
 740 0030 1A68     		ldr	r2, [r3]
 741 0032 3B68     		ldr	r3, [r7]
 742 0034 D90F     		lsrs	r1, r3, #31
 743 0036 0B44     		add	r3, r3, r1
 744 0038 5B10     		asrs	r3, r3, #1
 745 003a 9B00     		lsls	r3, r3, #2
 746 003c 7968     		ldr	r1, [r7, #4]
 747 003e 0B44     		add	r3, r3, r1
 748 0040 1B68     		ldr	r3, [r3]
 749 0042 1344     		add	r3, r3, r2
 750 0044 1846     		mov	r0, r3
 751 0046 FFF7FEFF 		bl	__aeabi_i2d
 752 004a 4FF00002 		mov	r2, #0
 753 004e 4FF08043 		mov	r3, #1073741824
 754 0052 FFF7FEFF 		bl	__aeabi_ddiv
 755 0056 0346     		mov	r3, r0
 756 0058 0C46     		mov	r4, r1
 757 005a 1846     		mov	r0, r3
 758 005c 2146     		mov	r1, r4
 759 005e FFF7FEFF 		bl	__aeabi_d2iz
 760 0062 0346     		mov	r3, r0
 761 0064 FB60     		str	r3, [r7, #12]
 762 0066 08E0     		b	.L30
 763              	.L29:
 164:voltages.c    ****     // If number of elements are odd
 165:voltages.c    ****     else
 166:voltages.c    ****         // Median is the the middle sorted number. 
 167:voltages.c    ****         median = array[n/2];
 764              		.loc 1 167 0
 765 0068 3B68     		ldr	r3, [r7]
 766 006a DA0F     		lsrs	r2, r3, #31
 767 006c 1344     		add	r3, r3, r2
 768 006e 5B10     		asrs	r3, r3, #1
 769 0070 9B00     		lsls	r3, r3, #2
 770 0072 7A68     		ldr	r2, [r7, #4]
 771 0074 1344     		add	r3, r3, r2
 772 0076 1B68     		ldr	r3, [r3]
 773 0078 FB60     		str	r3, [r7, #12]
 774              	.L30:
 168:voltages.c    ****     
 169:voltages.c    ****     return median;
 775              		.loc 1 169 0
 776 007a FB68     		ldr	r3, [r7, #12]
 170:voltages.c    **** }
 777              		.loc 1 170 0
 778 007c 1846     		mov	r0, r3
 779 007e 1437     		adds	r7, r7, #20
 780              		.cfi_def_cfa_offset 12
 781 0080 BD46     		mov	sp, r7
 782              		.cfi_def_cfa_register 13
 783              		@ sp needed
 784 0082 90BD     		pop	{r4, r7, pc}
 785              		.cfi_endproc
 786              	.LFE69:
ARM GAS  C:\Users\dantz\AppData\Local\Temp\ccn5EnqA.s 			page 18


 787              		.size	find_median32, .-find_median32
 788              		.section	.rodata
 789              		.align	2
 790              	.LC0:
 791 0000 54455354 		.ascii	"TEST_ANALOG_VOLTAGES\000"
 791      5F414E41 
 791      4C4F475F 
 791      564F4C54 
 791      41474553 
 792 0015 000000   		.align	2
 793              	.LC1:
 794 0018 56424154 		.ascii	"VBAT=%.3f,VSOL=%.3f,CHRG=%.3f\000"
 794      3D252E33 
 794      662C5653 
 794      4F4C3D25 
 794      2E33662C 
 795              		.section	.text.voltages_test,"ax",%progbits
 796              		.align	2
 797              		.global	voltages_test
 798              		.thumb
 799              		.thumb_func
 800              		.type	voltages_test, %function
 801              	voltages_test:
 802              	.LFB70:
 171:voltages.c    **** 
 172:voltages.c    **** // Test the voltage readings
 173:voltages.c    **** test_t voltages_test(){
 803              		.loc 1 173 0
 804              		.cfi_startproc
 805              		@ args = 0, pretend = 0, frame = 416
 806              		@ frame_needed = 1, uses_anonymous_args = 0
 807 0000 2DE9B043 		push	{r4, r5, r7, r8, r9, lr}
 808              		.cfi_def_cfa_offset 24
 809              		.cfi_offset 4, -24
 810              		.cfi_offset 5, -20
 811              		.cfi_offset 7, -16
 812              		.cfi_offset 8, -12
 813              		.cfi_offset 9, -8
 814              		.cfi_offset 14, -4
 815 0004 EEB0     		sub	sp, sp, #440
 816              		.cfi_def_cfa_offset 464
 817 0006 06AF     		add	r7, sp, #24
 818              		.cfi_def_cfa 7, 440
 819 0008 3B1D     		adds	r3, r7, #4
 820 000a 1860     		str	r0, [r3]
 174:voltages.c    ****     // Create variable test of the data structure test_t
 175:voltages.c    ****     test_t test;
 176:voltages.c    ****     test.status = 0;
 821              		.loc 1 176 0
 822 000c 07F11C03 		add	r3, r7, #28
 823 0010 0022     		movs	r2, #0
 824 0012 83F88020 		strb	r2, [r3, #128]
 177:voltages.c    ****     snprintf(test.test_name,sizeof(test.test_name),"TEST_ANALOG_VOLTAGES");
 825              		.loc 1 177 0
 826 0016 07F11C03 		add	r3, r7, #28
 827 001a 264A     		ldr	r2, .L34
 828 001c 1C46     		mov	r4, r3
ARM GAS  C:\Users\dantz\AppData\Local\Temp\ccn5EnqA.s 			page 19


 829 001e 1546     		mov	r5, r2
 830 0020 0FCD     		ldmia	r5!, {r0, r1, r2, r3}
 831 0022 0FC4     		stmia	r4!, {r0, r1, r2, r3}
 832 0024 95E80300 		ldmia	r5, {r0, r1}
 833 0028 2060     		str	r0, [r4]
 834 002a 0434     		adds	r4, r4, #4
 835 002c 2170     		strb	r1, [r4]
 178:voltages.c    ****     
 179:voltages.c    ****     voltage_t voltage = voltage_take_readings();
 836              		.loc 1 179 0
 837 002e 07F10803 		add	r3, r7, #8
 838 0032 1846     		mov	r0, r3
 839 0034 FFF7FEFF 		bl	voltage_take_readings
 180:voltages.c    ****     
 181:voltages.c    ****     //do some checks here if you want the test to meet some voltage requirement
 182:voltages.c    ****     
 183:voltages.c    ****     snprintf(test.reason,sizeof(test.reason),"VBAT=%.3f,VSOL=%.3f,CHRG=%.3f",
 184:voltages.c    ****             voltage.voltage_battery,
 840              		.loc 1 184 0
 841 0038 07F10803 		add	r3, r7, #8
 842 003c 1B68     		ldr	r3, [r3]	@ float
 183:voltages.c    ****             voltage.voltage_battery,
 843              		.loc 1 183 0
 844 003e 1846     		mov	r0, r3
 845 0040 FFF7FEFF 		bl	__aeabi_f2d
 846 0044 0446     		mov	r4, r0
 847 0046 0D46     		mov	r5, r1
 185:voltages.c    ****             voltage.voltage_solar,
 848              		.loc 1 185 0
 849 0048 07F10803 		add	r3, r7, #8
 850 004c 5B68     		ldr	r3, [r3, #4]	@ float
 183:voltages.c    ****             voltage.voltage_battery,
 851              		.loc 1 183 0
 852 004e 1846     		mov	r0, r3
 853 0050 FFF7FEFF 		bl	__aeabi_f2d
 854 0054 8046     		mov	r8, r0
 855 0056 8946     		mov	r9, r1
 186:voltages.c    ****             voltage.voltage_charge_current);
 856              		.loc 1 186 0
 857 0058 07F10803 		add	r3, r7, #8
 858 005c 9B68     		ldr	r3, [r3, #8]	@ float
 183:voltages.c    ****             voltage.voltage_battery,
 859              		.loc 1 183 0
 860 005e 1846     		mov	r0, r3
 861 0060 FFF7FEFF 		bl	__aeabi_f2d
 862 0064 0246     		mov	r2, r0
 863 0066 0B46     		mov	r3, r1
 864 0068 07F11C01 		add	r1, r7, #28
 865 006c 01F18100 		add	r0, r1, #129
 866 0070 CDE90423 		strd	r2, [sp, #16]
 867 0074 CDE90289 		strd	r8, [sp, #8]
 868 0078 CDE90045 		strd	r4, [sp]
 869 007c 0E4A     		ldr	r2, .L34+4
 870 007e 4FF48071 		mov	r1, #256
 871 0082 FFF7FEFF 		bl	snprintf
 187:voltages.c    ****     
 188:voltages.c    ****     test.status = 1;
ARM GAS  C:\Users\dantz\AppData\Local\Temp\ccn5EnqA.s 			page 20


 872              		.loc 1 188 0
 873 0086 07F11C03 		add	r3, r7, #28
 874 008a 0122     		movs	r2, #1
 875 008c 83F88020 		strb	r2, [r3, #128]
 189:voltages.c    ****     
 190:voltages.c    ****     return test;
 876              		.loc 1 190 0
 877 0090 3B1D     		adds	r3, r7, #4
 878 0092 1A68     		ldr	r2, [r3]
 879 0094 07F11C03 		add	r3, r7, #28
 880 0098 1046     		mov	r0, r2
 881 009a 1946     		mov	r1, r3
 882 009c 40F28113 		movw	r3, #385
 883 00a0 1A46     		mov	r2, r3
 884 00a2 FFF7FEFF 		bl	memcpy
 191:voltages.c    **** }
 885              		.loc 1 191 0
 886 00a6 3B1D     		adds	r3, r7, #4
 887 00a8 1868     		ldr	r0, [r3]
 888 00aa 07F5D077 		add	r7, r7, #416
 889              		.cfi_def_cfa_offset 24
 890 00ae BD46     		mov	sp, r7
 891              		.cfi_def_cfa_register 13
 892              		@ sp needed
 893 00b0 BDE8B083 		pop	{r4, r5, r7, r8, r9, pc}
 894              	.L35:
 895              		.align	2
 896              	.L34:
 897 00b4 00000000 		.word	.LC0
 898 00b8 18000000 		.word	.LC1
 899              		.cfi_endproc
 900              	.LFE70:
 901              		.size	voltages_test, .-voltages_test
 902              		.section	.rodata
 903 0036 0000     		.align	2
 904              	.LC2:
 905 0038 54455354 		.ascii	"TEST_PRESSURE_SENSOR\000"
 905      5F505245 
 905      53535552 
 905      455F5345 
 905      4E534F52 
 906 004d 000000   		.align	2
 907              	.LC3:
 908 0050 50524553 		.ascii	"PRESSURE=%.3f,PRES_CURRENT=%.3f,PRES_DEPTH=%.3f\000"
 908      53555245 
 908      3D252E33 
 908      662C5052 
 908      45535F43 
 909              		.global	__aeabi_fcmpeq
 910              		.section	.text.pressure_sensor_test,"ax",%progbits
 911              		.align	2
 912              		.global	pressure_sensor_test
 913              		.thumb
 914              		.thumb_func
 915              		.type	pressure_sensor_test, %function
 916              	pressure_sensor_test:
 917              	.LFB71:
ARM GAS  C:\Users\dantz\AppData\Local\Temp\ccn5EnqA.s 			page 21


 192:voltages.c    **** 
 193:voltages.c    **** // Test the pressure sensor readings
 194:voltages.c    **** test_t pressure_sensor_test(){
 918              		.loc 1 194 0
 919              		.cfi_startproc
 920              		@ args = 0, pretend = 0, frame = 416
 921              		@ frame_needed = 1, uses_anonymous_args = 0
 922 0000 2DE9B043 		push	{r4, r5, r7, r8, r9, lr}
 923              		.cfi_def_cfa_offset 24
 924              		.cfi_offset 4, -24
 925              		.cfi_offset 5, -20
 926              		.cfi_offset 7, -16
 927              		.cfi_offset 8, -12
 928              		.cfi_offset 9, -8
 929              		.cfi_offset 14, -4
 930 0004 EEB0     		sub	sp, sp, #440
 931              		.cfi_def_cfa_offset 464
 932 0006 06AF     		add	r7, sp, #24
 933              		.cfi_def_cfa 7, 440
 934 0008 3B1D     		adds	r3, r7, #4
 935 000a 1860     		str	r0, [r3]
 195:voltages.c    ****     // Create variable test of the data structure test_t
 196:voltages.c    ****     test_t test;
 197:voltages.c    ****     test.status = 0;
 936              		.loc 1 197 0
 937 000c 07F11C03 		add	r3, r7, #28
 938 0010 0022     		movs	r2, #0
 939 0012 83F88020 		strb	r2, [r3, #128]
 198:voltages.c    ****     snprintf(test.test_name,sizeof(test.test_name),"TEST_PRESSURE_SENSOR");
 940              		.loc 1 198 0
 941 0016 07F11C03 		add	r3, r7, #28
 942 001a 374A     		ldr	r2, .L41
 943 001c 1C46     		mov	r4, r3
 944 001e 1546     		mov	r5, r2
 945 0020 0FCD     		ldmia	r5!, {r0, r1, r2, r3}
 946 0022 0FC4     		stmia	r4!, {r0, r1, r2, r3}
 947 0024 95E80300 		ldmia	r5, {r0, r1}
 948 0028 2060     		str	r0, [r4]
 949 002a 0434     		adds	r4, r4, #4
 950 002c 2170     		strb	r1, [r4]
 199:voltages.c    ****     
 200:voltages.c    ****     pressure_t pressure = pressure_sensor_readings();
 951              		.loc 1 200 0
 952 002e 07F10C03 		add	r3, r7, #12
 953 0032 1846     		mov	r0, r3
 954 0034 FFF7FEFF 		bl	pressure_sensor_readings
 201:voltages.c    ****     
 202:voltages.c    ****     //do some checks here if you want the test to meet some voltage requirement
 203:voltages.c    ****     
 204:voltages.c    ****     snprintf(test.reason,sizeof(test.reason),"PRESSURE=%.3f,PRES_CURRENT=%.3f,PRES_DEPTH=%.3f",
 205:voltages.c    ****             pressure.pressure_voltage_on,
 955              		.loc 1 205 0
 956 0038 07F10C03 		add	r3, r7, #12
 957 003c 1B68     		ldr	r3, [r3]	@ float
 204:voltages.c    ****             pressure.pressure_voltage_on,
 958              		.loc 1 204 0
 959 003e 1846     		mov	r0, r3
ARM GAS  C:\Users\dantz\AppData\Local\Temp\ccn5EnqA.s 			page 22


 960 0040 FFF7FEFF 		bl	__aeabi_f2d
 961 0044 0446     		mov	r4, r0
 962 0046 0D46     		mov	r5, r1
 206:voltages.c    ****             pressure.pressure_current,
 963              		.loc 1 206 0
 964 0048 07F10C03 		add	r3, r7, #12
 965 004c 9B68     		ldr	r3, [r3, #8]	@ float
 204:voltages.c    ****             pressure.pressure_voltage_on,
 966              		.loc 1 204 0
 967 004e 1846     		mov	r0, r3
 968 0050 FFF7FEFF 		bl	__aeabi_f2d
 969 0054 8046     		mov	r8, r0
 970 0056 8946     		mov	r9, r1
 207:voltages.c    ****             pressure.pressure_depth);
 971              		.loc 1 207 0
 972 0058 07F10C03 		add	r3, r7, #12
 973 005c DB68     		ldr	r3, [r3, #12]	@ float
 204:voltages.c    ****             pressure.pressure_voltage_on,
 974              		.loc 1 204 0
 975 005e 1846     		mov	r0, r3
 976 0060 FFF7FEFF 		bl	__aeabi_f2d
 977 0064 0246     		mov	r2, r0
 978 0066 0B46     		mov	r3, r1
 979 0068 07F11C01 		add	r1, r7, #28
 980 006c 01F18100 		add	r0, r1, #129
 981 0070 CDE90423 		strd	r2, [sp, #16]
 982 0074 CDE90289 		strd	r8, [sp, #8]
 983 0078 CDE90045 		strd	r4, [sp]
 984 007c 1F4A     		ldr	r2, .L41+4
 985 007e 4FF48071 		mov	r1, #256
 986 0082 FFF7FEFF 		bl	snprintf
 208:voltages.c    ****     pressure.pressure_voltage_on = floorf(pressure.pressure_voltage_on * 100) / 100;
 987              		.loc 1 208 0
 988 0086 07F10C03 		add	r3, r7, #12
 989 008a 1B68     		ldr	r3, [r3]	@ float
 990 008c 1C49     		ldr	r1, .L41+8
 991 008e 1846     		mov	r0, r3
 992 0090 FFF7FEFF 		bl	__aeabi_fmul
 993 0094 0346     		mov	r3, r0
 994 0096 1846     		mov	r0, r3
 995 0098 FFF7FEFF 		bl	floorf
 996 009c 0346     		mov	r3, r0
 997 009e 1849     		ldr	r1, .L41+8
 998 00a0 1846     		mov	r0, r3
 999 00a2 FFF7FEFF 		bl	__aeabi_fdiv
 1000 00a6 0346     		mov	r3, r0
 1001 00a8 1A46     		mov	r2, r3
 1002 00aa 07F10C03 		add	r3, r7, #12
 1003 00ae 1A60     		str	r2, [r3]	@ float
 209:voltages.c    ****     if (pressure.pressure_voltage_off != pressure.pressure_voltage_on) {
 1004              		.loc 1 209 0
 1005 00b0 07F10C03 		add	r3, r7, #12
 1006 00b4 5A68     		ldr	r2, [r3, #4]	@ float
 1007 00b6 07F10C03 		add	r3, r7, #12
 1008 00ba 1B68     		ldr	r3, [r3]	@ float
 1009 00bc 1946     		mov	r1, r3
 1010 00be 1046     		mov	r0, r2
ARM GAS  C:\Users\dantz\AppData\Local\Temp\ccn5EnqA.s 			page 23


 1011 00c0 FFF7FEFF 		bl	__aeabi_fcmpeq
 1012 00c4 0346     		mov	r3, r0
 1013 00c6 002B     		cmp	r3, #0
 1014 00c8 04D1     		bne	.L37
 210:voltages.c    ****         test.status = 1;
 1015              		.loc 1 210 0
 1016 00ca 07F11C03 		add	r3, r7, #28
 1017 00ce 0122     		movs	r2, #1
 1018 00d0 83F88020 		strb	r2, [r3, #128]
 1019              	.L37:
 211:voltages.c    ****     }
 212:voltages.c    ****     
 213:voltages.c    ****     return test;
 1020              		.loc 1 213 0
 1021 00d4 3B1D     		adds	r3, r7, #4
 1022 00d6 1A68     		ldr	r2, [r3]
 1023 00d8 07F11C03 		add	r3, r7, #28
 1024 00dc 1046     		mov	r0, r2
 1025 00de 1946     		mov	r1, r3
 1026 00e0 40F28113 		movw	r3, #385
 1027 00e4 1A46     		mov	r2, r3
 1028 00e6 FFF7FEFF 		bl	memcpy
 214:voltages.c    **** }
 1029              		.loc 1 214 0
 1030 00ea 3B1D     		adds	r3, r7, #4
 1031 00ec 1868     		ldr	r0, [r3]
 1032 00ee 07F5D077 		add	r7, r7, #416
 1033              		.cfi_def_cfa_offset 24
 1034 00f2 BD46     		mov	sp, r7
 1035              		.cfi_def_cfa_register 13
 1036              		@ sp needed
 1037 00f4 BDE8B083 		pop	{r4, r5, r7, r8, r9, pc}
 1038              	.L42:
 1039              		.align	2
 1040              	.L41:
 1041 00f8 38000000 		.word	.LC2
 1042 00fc 50000000 		.word	.LC3
 1043 0100 0000C842 		.word	1120403456
 1044              		.cfi_endproc
 1045              	.LFE71:
 1046              		.size	pressure_sensor_test, .-pressure_sensor_test
 1047              		.text
 1048              	.Letext0:
 1049              		.file 2 "c:\\program files (x86)\\cypress\\psoc creator\\4.2\\psoc creator\\import\\gnu\\arm\\5.4.
 1050              		.file 3 "c:\\program files (x86)\\cypress\\psoc creator\\4.2\\psoc creator\\import\\gnu\\arm\\5.4.
 1051              		.file 4 "Generated_Source\\PSoC5/cytypes.h"
 1052              		.file 5 "testing.h"
 1053              		.file 6 "voltages.h"
 1054              		.file 7 "data.h"
 1055              		.file 8 "modem.h"
 1056              		.file 9 "notoriOS.h"
 1057              		.file 10 "Generated_Source\\PSoC5/core_cm3.h"
 1058              		.file 11 "level_sensor.h"
 1059              		.file 12 "downstream_level_sensor.h"
 1060              		.file 13 "App_LED.h"