ARM GAS  C:\Users\jniej\AppData\Local\Temp\ccMn1EjJ.s 			page 1


   1              		.syntax unified
   2              		.cpu cortex-m3
   3              		.fpu softvfp
   4              		.eabi_attribute 20, 1
   5              		.eabi_attribute 21, 1
   6              		.eabi_attribute 23, 3
   7              		.eabi_attribute 24, 1
   8              		.eabi_attribute 25, 1
   9              		.eabi_attribute 26, 1
  10              		.eabi_attribute 30, 6
  11              		.eabi_attribute 34, 1
  12              		.eabi_attribute 18, 4
  13              		.thumb
  14              		.syntax unified
  15              		.file	"water_quality.c"
  16              		.text
  17              	.Ltext0:
  18              		.cfi_sections	.debug_frame
  19              		.comm	buffer_overflow,1,1
  20              		.comm	dataPointsInStack,2,2
  21              		.comm	dataPointsInStackDesired,2,2
  22              		.comm	data,6600,4
  23              		.comm	modem_state,1,1
  24              		.comm	modem_start_time_stamp,4,4
  25              		.comm	modem_info,60,4
  26              		.comm	modem_stats,32,4
  27              		.comm	updatable_parameters,5,4
  28              		.syntax unified
  29              		.global _printf_float
  30              		.thumb
  31              		.syntax unified
  32              		.comm	http_request,10000,4
  33              		.comm	http_body,10000,4
  34              		.comm	http_route,200,4
  35              		.comm	system_info,28,4
  36              		.comm	system_settings,104,4
  37              		.comm	alarmMeasure,6,4
  38              		.comm	timeToMeasure,1,1
  39              		.comm	alarmSync,6,4
  40              		.comm	timeToSync,1,1
  41              		.comm	timeToSycnRemoteParams,1,1
  42              		.comm	hey,1,1
  43              		.comm	wq_received_string,1024,4
  44              		.global	wq_string_index
  45              		.bss
  46              		.align	1
  47              		.type	wq_string_index, %object
  48              		.size	wq_string_index, 2
  49              	wq_string_index:
  50 0000 0000     		.space	2
  51              		.section	.text.WQ_ISR,"ax",%progbits
  52              		.align	2
  53              		.global	WQ_ISR
  54              		.thumb
  55              		.thumb_func
  56              		.type	WQ_ISR, %function
  57              	WQ_ISR:
ARM GAS  C:\Users\jniej\AppData\Local\Temp\ccMn1EjJ.s 			page 2


  58              	.LFB64:
  59              		.file 1 "water_quality.c"
   1:water_quality.c **** #include "notoriOS.h"
   2:water_quality.c **** //#include "water_quality.h"
   3:water_quality.c **** 
   4:water_quality.c **** char wq_received_string[1024];
   5:water_quality.c **** int16 wq_string_index = 0;
   6:water_quality.c **** 
   7:water_quality.c **** CY_ISR_PROTO(WQ_ISR); // Declares a custom ISR function "isr_telit_rx" using the CY_ISR_PROTO macro
   8:water_quality.c **** 
   9:water_quality.c **** // Define the custom ISR function "isr_telit_rx" using the CY_ISR macro
  10:water_quality.c **** // Get each character from Telit and saves it to uart_received_string
  11:water_quality.c **** CY_ISR(WQ_ISR){      
  60              		.loc 1 11 0
  61              		.cfi_startproc
  62              		@ args = 0, pretend = 0, frame = 0
  63              		@ frame_needed = 1, uses_anonymous_args = 0
  64 0000 98B5     		push	{r3, r4, r7, lr}
  65              		.cfi_def_cfa_offset 16
  66              		.cfi_offset 3, -16
  67              		.cfi_offset 4, -12
  68              		.cfi_offset 7, -8
  69              		.cfi_offset 14, -4
  70 0002 00AF     		add	r7, sp, #0
  71              		.cfi_def_cfa_register 7
  12:water_quality.c ****     // UART_Telit_GetRxBufferSize() returns the number of received bytes available in the RX buffer
  13:water_quality.c **** 
  14:water_quality.c ****     while(WQ_UART_GetRxBufferSize()== 1){
  72              		.loc 1 14 0
  73 0004 12E0     		b	.L2
  74              	.L3:
  15:water_quality.c ****         //char rx = DO_UART_GetChar();
  16:water_quality.c ****         wq_received_string[wq_string_index] = WQ_UART_GetChar();
  75              		.loc 1 16 0
  76 0006 0D4B     		ldr	r3, .L4
  77 0008 B3F90030 		ldrsh	r3, [r3]
  78 000c 1C46     		mov	r4, r3
  79 000e FFF7FEFF 		bl	WQ_UART_GetChar
  80 0012 0346     		mov	r3, r0
  81 0014 1A46     		mov	r2, r3
  82 0016 0A4B     		ldr	r3, .L4+4
  83 0018 1A55     		strb	r2, [r3, r4]
  17:water_quality.c ****         //printNotif(NOTIF_TYPE_EVENT, "received char: %c", rx);
  18:water_quality.c ****         wq_string_index ++;
  84              		.loc 1 18 0
  85 001a 084B     		ldr	r3, .L4
  86 001c B3F90030 		ldrsh	r3, [r3]
  87 0020 9BB2     		uxth	r3, r3
  88 0022 0133     		adds	r3, r3, #1
  89 0024 9BB2     		uxth	r3, r3
  90 0026 1AB2     		sxth	r2, r3
  91 0028 044B     		ldr	r3, .L4
  92 002a 1A80     		strh	r2, [r3]	@ movhi
  93              	.L2:
  14:water_quality.c ****         //char rx = DO_UART_GetChar();
  94              		.loc 1 14 0
  95 002c FFF7FEFF 		bl	WQ_UART_GetRxBufferSize
ARM GAS  C:\Users\jniej\AppData\Local\Temp\ccMn1EjJ.s 			page 3


  96 0030 0346     		mov	r3, r0
  97 0032 012B     		cmp	r3, #1
  98 0034 E7D0     		beq	.L3
  19:water_quality.c **** 
  20:water_quality.c ****     }
  21:water_quality.c **** 
  22:water_quality.c **** }
  99              		.loc 1 22 0
 100 0036 00BF     		nop
 101 0038 98BD     		pop	{r3, r4, r7, pc}
 102              	.L5:
 103 003a 00BF     		.align	2
 104              	.L4:
 105 003c 00000000 		.word	wq_string_index
 106 0040 00000000 		.word	wq_received_string
 107              		.cfi_endproc
 108              	.LFE64:
 109              		.size	WQ_ISR, .-WQ_ISR
 110              		.section	.text.wq_uart_clear,"ax",%progbits
 111              		.align	2
 112              		.global	wq_uart_clear
 113              		.thumb
 114              		.thumb_func
 115              		.type	wq_uart_clear, %function
 116              	wq_uart_clear:
 117              	.LFB65:
  23:water_quality.c **** 
  24:water_quality.c **** // Clears the sensor data 
  25:water_quality.c **** void wq_uart_clear(void) {
 118              		.loc 1 25 0
 119              		.cfi_startproc
 120              		@ args = 0, pretend = 0, frame = 0
 121              		@ frame_needed = 1, uses_anonymous_args = 0
 122 0000 80B5     		push	{r7, lr}
 123              		.cfi_def_cfa_offset 8
 124              		.cfi_offset 7, -8
 125              		.cfi_offset 14, -4
 126 0002 00AF     		add	r7, sp, #0
 127              		.cfi_def_cfa_register 7
  26:water_quality.c ****   // UART_ClearRxBuffer(): Clears the receiver memory buffer and hardware RX FIFO of all received d
  27:water_quality.c ****   WQ_UART_ClearRxBuffer();
 128              		.loc 1 27 0
 129 0004 FFF7FEFF 		bl	WQ_UART_ClearRxBuffer
  28:water_quality.c ****   // void *memset(void *str, int c, size_t n) where str is a pointer to the block of memory to fill
  29:water_quality.c ****   // The value is passed as an int, but the function fills the block of memory using the unsigned c
  30:water_quality.c ****   // n is the number of bytes to be set to the value.
  31:water_quality.c ****   memset((void*)wq_received_string, 0, 1023);
 130              		.loc 1 31 0
 131 0008 40F2FF32 		movw	r2, #1023
 132 000c 0021     		movs	r1, #0
 133 000e 0448     		ldr	r0, .L7
 134 0010 FFF7FEFF 		bl	memset
  32:water_quality.c ****   wq_string_index = 0;
 135              		.loc 1 32 0
 136 0014 034B     		ldr	r3, .L7+4
 137 0016 0022     		movs	r2, #0
 138 0018 1A80     		strh	r2, [r3]	@ movhi
ARM GAS  C:\Users\jniej\AppData\Local\Temp\ccMn1EjJ.s 			page 4


  33:water_quality.c **** }
 139              		.loc 1 33 0
 140 001a 00BF     		nop
 141 001c 80BD     		pop	{r7, pc}
 142              	.L8:
 143 001e 00BF     		.align	2
 144              	.L7:
 145 0020 00000000 		.word	wq_received_string
 146 0024 00000000 		.word	wq_string_index
 147              		.cfi_endproc
 148              	.LFE65:
 149              		.size	wq_uart_clear, .-wq_uart_clear
 150              		.section	.text.wq_start_talking,"ax",%progbits
 151              		.align	2
 152              		.global	wq_start_talking
 153              		.thumb
 154              		.thumb_func
 155              		.type	wq_start_talking, %function
 156              	wq_start_talking:
 157              	.LFB66:
  34:water_quality.c **** 
  35:water_quality.c **** // get everything ready to communicate
  36:water_quality.c **** void wq_start_talking(){
 158              		.loc 1 36 0
 159              		.cfi_startproc
 160              		@ args = 0, pretend = 0, frame = 0
 161              		@ frame_needed = 1, uses_anonymous_args = 0
 162 0000 80B5     		push	{r7, lr}
 163              		.cfi_def_cfa_offset 8
 164              		.cfi_offset 7, -8
 165              		.cfi_offset 14, -4
 166 0002 00AF     		add	r7, sp, #0
 167              		.cfi_def_cfa_register 7
  37:water_quality.c ****     // I think the below two lines are not necessary for digital multiplexers, just analog
  38:water_quality.c ****     //RXmux_Start();       // Start the Digital Multiplexer
  39:water_quality.c ****     //TXmux_Start();       // Start the Digital Multiplexer
  40:water_quality.c ****     
  41:water_quality.c ****     WQ_UART_Start();
 168              		.loc 1 41 0
 169 0004 FFF7FEFF 		bl	WQ_UART_Start
  42:water_quality.c ****     
  43:water_quality.c ****     // sensor specific calls
  44:water_quality.c ****     DO_RX_SetDriveMode(PIN_DM_DIG_HIZ); // RX_SetDriveMode(): Sets the drive mode for each of the P
 170              		.loc 1 44 0
 171 0008 0220     		movs	r0, #2
 172 000a FFF7FEFF 		bl	DO_RX_SetDriveMode
  45:water_quality.c ****     TEMP_RX_SetDriveMode(PIN_DM_DIG_HIZ); // RX_SetDriveMode(): Sets the drive mode for each of the
 173              		.loc 1 45 0
 174 000e 0220     		movs	r0, #2
 175 0010 FFF7FEFF 		bl	TEMP_RX_SetDriveMode
  46:water_quality.c ****     
  47:water_quality.c ****     WQ_UART_ClearRxBuffer();
 176              		.loc 1 47 0
 177 0014 FFF7FEFF 		bl	WQ_UART_ClearRxBuffer
  48:water_quality.c ****     WQ_ISR_StartEx(WQ_ISR);
 178              		.loc 1 48 0
 179 0018 0548     		ldr	r0, .L10
ARM GAS  C:\Users\jniej\AppData\Local\Temp\ccMn1EjJ.s 			page 5


 180 001a FFF7FEFF 		bl	WQ_ISR_StartEx
  49:water_quality.c ****     Level_Sensor_Power_Write(ON); // Pulls pwr pin high (turns it on).
 181              		.loc 1 49 0
 182 001e 0120     		movs	r0, #1
 183 0020 FFF7FEFF 		bl	Level_Sensor_Power_Write
  50:water_quality.c ****     CyDelay(1000u); // reset sequence
 184              		.loc 1 50 0
 185 0024 4FF47A70 		mov	r0, #1000
 186 0028 FFF7FEFF 		bl	CyDelay
  51:water_quality.c **** 
  52:water_quality.c **** }
 187              		.loc 1 52 0
 188 002c 00BF     		nop
 189 002e 80BD     		pop	{r7, pc}
 190              	.L11:
 191              		.align	2
 192              	.L10:
 193 0030 00000000 		.word	WQ_ISR
 194              		.cfi_endproc
 195              	.LFE66:
 196              		.size	wq_start_talking, .-wq_start_talking
 197              		.section	.text.wq_stop_talking,"ax",%progbits
 198              		.align	2
 199              		.global	wq_stop_talking
 200              		.thumb
 201              		.thumb_func
 202              		.type	wq_stop_talking, %function
 203              	wq_stop_talking:
 204              	.LFB67:
  53:water_quality.c **** 
  54:water_quality.c **** // pull everything low to stop power leaks
  55:water_quality.c **** void wq_stop_talking(){
 205              		.loc 1 55 0
 206              		.cfi_startproc
 207              		@ args = 0, pretend = 0, frame = 0
 208              		@ frame_needed = 1, uses_anonymous_args = 0
 209 0000 80B5     		push	{r7, lr}
 210              		.cfi_def_cfa_offset 8
 211              		.cfi_offset 7, -8
 212              		.cfi_offset 14, -4
 213 0002 00AF     		add	r7, sp, #0
 214              		.cfi_def_cfa_register 7
  56:water_quality.c **** 
  57:water_quality.c ****     Level_Sensor_Power_Write(OFF);
 215              		.loc 1 57 0
 216 0004 0020     		movs	r0, #0
 217 0006 FFF7FEFF 		bl	Level_Sensor_Power_Write
  58:water_quality.c ****     WQ_UART_Stop();
 218              		.loc 1 58 0
 219 000a FFF7FEFF 		bl	WQ_UART_Stop
  59:water_quality.c ****     
  60:water_quality.c ****     // sensor specific calls
  61:water_quality.c ****     DO_RX_SetDriveMode(PIN_DM_STRONG); // to die
 220              		.loc 1 61 0
 221 000e 0C20     		movs	r0, #12
 222 0010 FFF7FEFF 		bl	DO_RX_SetDriveMode
  62:water_quality.c ****     TEMP_RX_SetDriveMode(PIN_DM_STRONG); // to die
ARM GAS  C:\Users\jniej\AppData\Local\Temp\ccMn1EjJ.s 			page 6


 223              		.loc 1 62 0
 224 0014 0C20     		movs	r0, #12
 225 0016 FFF7FEFF 		bl	TEMP_RX_SetDriveMode
  63:water_quality.c ****     DO_RX_Write(OFF);
 226              		.loc 1 63 0
 227 001a 0020     		movs	r0, #0
 228 001c FFF7FEFF 		bl	DO_RX_Write
  64:water_quality.c ****     TEMP_RX_Write(OFF);
 229              		.loc 1 64 0
 230 0020 0020     		movs	r0, #0
 231 0022 FFF7FEFF 		bl	TEMP_RX_Write
  65:water_quality.c ****     DO_TX_Write(OFF);
 232              		.loc 1 65 0
 233 0026 0020     		movs	r0, #0
 234 0028 FFF7FEFF 		bl	DO_TX_Write
  66:water_quality.c ****     TEMP_TX_Write(OFF);
 235              		.loc 1 66 0
 236 002c 0020     		movs	r0, #0
 237 002e FFF7FEFF 		bl	TEMP_TX_Write
  67:water_quality.c ****     
  68:water_quality.c ****     WQ_ISR_Stop();
 238              		.loc 1 68 0
 239 0032 FFF7FEFF 		bl	WQ_ISR_Stop
  69:water_quality.c **** 
  70:water_quality.c **** }
 240              		.loc 1 70 0
 241 0036 00BF     		nop
 242 0038 80BD     		pop	{r7, pc}
 243              		.cfi_endproc
 244              	.LFE67:
 245              		.size	wq_stop_talking, .-wq_stop_talking
 246 003a 00BF     		.section	.rodata
 247              		.align	2
 248              	.LC0:
 249 0000 432C300D 		.ascii	"C,0\015\000"
 249      00
 250 0005 000000   		.align	2
 251              	.LC1:
 252 0008 2A4F4B2C 		.ascii	"*OK,0\015\000"
 252      300D00
 253 000f 00       		.align	2
 254              	.LC2:
 255 0010 520D00   		.ascii	"R\015\000"
 256 0013 00       		.align	2
 257              	.LC3:
 258 0014 0D00     		.ascii	"\015\000"
 259              		.global	__aeabi_d2f
 260 0016 0000     		.align	2
 261              	.LC4:
 262 0018 2A4F4B2C 		.ascii	"*OK,1\015\000"
 262      310D00
 263              		.section	.text.wq_take_reading,"ax",%progbits
 264              		.align	2
 265              		.global	wq_take_reading
 266              		.thumb
 267              		.thumb_func
 268              		.type	wq_take_reading, %function
ARM GAS  C:\Users\jniej\AppData\Local\Temp\ccMn1EjJ.s 			page 7


 269              	wq_take_reading:
 270              	.LFB68:
  71:water_quality.c **** 
  72:water_quality.c **** wq_sensors_t wq_take_reading(){
 271              		.loc 1 72 0
 272              		.cfi_startproc
 273              		@ args = 0, pretend = 0, frame = 128
 274              		@ frame_needed = 1, uses_anonymous_args = 0
 275 0000 90B5     		push	{r4, r7, lr}
 276              		.cfi_def_cfa_offset 12
 277              		.cfi_offset 4, -12
 278              		.cfi_offset 7, -8
 279              		.cfi_offset 14, -4
 280 0002 A1B0     		sub	sp, sp, #132
 281              		.cfi_def_cfa_offset 144
 282 0004 00AF     		add	r7, sp, #0
 283              		.cfi_def_cfa_register 7
 284 0006 7860     		str	r0, [r7, #4]
  73:water_quality.c **** 
  74:water_quality.c ****     wq_uart_clear();
 285              		.loc 1 74 0
 286 0008 FFF7FEFF 		bl	wq_uart_clear
  75:water_quality.c ****     wq_sensors_t output;
  76:water_quality.c ****     
  77:water_quality.c ****     wq_start_talking();
 287              		.loc 1 77 0
 288 000c FFF7FEFF 		bl	wq_start_talking
  78:water_quality.c ****     
  79:water_quality.c ****     rx_mux_controller_Wakeup();
 289              		.loc 1 79 0
 290 0010 FFF7FEFF 		bl	rx_mux_controller_Wakeup
  80:water_quality.c ****     tx_mux_controller_Wakeup();
 291              		.loc 1 80 0
 292 0014 FFF7FEFF 		bl	tx_mux_controller_Wakeup
 293              	.LBB2:
  81:water_quality.c ****     
  82:water_quality.c ****     // first, everyone shut up
  83:water_quality.c ****     for (uint8 channel = 0; channel < N_params; channel++){
 294              		.loc 1 83 0
 295 0018 0023     		movs	r3, #0
 296 001a 87F87F30 		strb	r3, [r7, #127]
 297 001e 18E0     		b	.L14
 298              	.L15:
  84:water_quality.c ****         
  85:water_quality.c ****         rx_mux_controller_Write(channel);
 299              		.loc 1 85 0 discriminator 3
 300 0020 97F87F30 		ldrb	r3, [r7, #127]	@ zero_extendqisi2
 301 0024 1846     		mov	r0, r3
 302 0026 FFF7FEFF 		bl	rx_mux_controller_Write
  86:water_quality.c ****         tx_mux_controller_Write(channel); // talking and listening on the same channel
 303              		.loc 1 86 0 discriminator 3
 304 002a 97F87F30 		ldrb	r3, [r7, #127]	@ zero_extendqisi2
 305 002e 1846     		mov	r0, r3
 306 0030 FFF7FEFF 		bl	tx_mux_controller_Write
  87:water_quality.c ****         //char excerpt[80]; // for debugging
  88:water_quality.c ****         WQ_UART_PutString("C,0\r"); // turn off automated sampling
 307              		.loc 1 88 0 discriminator 3
ARM GAS  C:\Users\jniej\AppData\Local\Temp\ccMn1EjJ.s 			page 8


 308 0034 5B48     		ldr	r0, .L27
 309 0036 FFF7FEFF 		bl	WQ_UART_PutString
  89:water_quality.c ****         
  90:water_quality.c ****         // turn "*OK" response off
  91:water_quality.c ****         CyDelay(1000u);
 310              		.loc 1 91 0 discriminator 3
 311 003a 4FF47A70 		mov	r0, #1000
 312 003e FFF7FEFF 		bl	CyDelay
  92:water_quality.c ****         WQ_UART_PutString("*OK,0\r");
 313              		.loc 1 92 0 discriminator 3
 314 0042 5948     		ldr	r0, .L27+4
 315 0044 FFF7FEFF 		bl	WQ_UART_PutString
  83:water_quality.c ****         
 316              		.loc 1 83 0 discriminator 3
 317 0048 97F87F30 		ldrb	r3, [r7, #127]	@ zero_extendqisi2
 318 004c 0133     		adds	r3, r3, #1
 319 004e 87F87F30 		strb	r3, [r7, #127]
 320              	.L14:
  83:water_quality.c ****         
 321              		.loc 1 83 0 is_stmt 0 discriminator 1
 322 0052 97F87F30 		ldrb	r3, [r7, #127]	@ zero_extendqisi2
 323 0056 012B     		cmp	r3, #1
 324 0058 E2D9     		bls	.L15
 325              	.LBE2:
  93:water_quality.c **** 
  94:water_quality.c **** 
  95:water_quality.c ****     }
  96:water_quality.c ****     // CyDelay(2000u);
  97:water_quality.c **** 
  98:water_quality.c ****     wq_uart_clear(); // get rid of anything we've received so far
 326              		.loc 1 98 0 is_stmt 1
 327 005a FFF7FEFF 		bl	wq_uart_clear
 328              	.LBB3:
  99:water_quality.c ****     // now let's take some readings
 100:water_quality.c ****     for (uint8 channel = 0; channel < N_params; channel++){
 329              		.loc 1 100 0
 330 005e 0023     		movs	r3, #0
 331 0060 87F87E30 		strb	r3, [r7, #126]
 332 0064 58E0     		b	.L16
 333              	.L23:
 334              	.LBB4:
 101:water_quality.c ****         
 102:water_quality.c ****         rx_mux_controller_Write(channel);
 335              		.loc 1 102 0
 336 0066 97F87E30 		ldrb	r3, [r7, #126]	@ zero_extendqisi2
 337 006a 1846     		mov	r0, r3
 338 006c FFF7FEFF 		bl	rx_mux_controller_Write
 103:water_quality.c ****         tx_mux_controller_Write(channel); // talking and listening on the same channel
 339              		.loc 1 103 0
 340 0070 97F87E30 		ldrb	r3, [r7, #126]	@ zero_extendqisi2
 341 0074 1846     		mov	r0, r3
 342 0076 FFF7FEFF 		bl	tx_mux_controller_Write
 343              	.LBB5:
 104:water_quality.c ****         
 105:water_quality.c ****         // take 11 readings
 106:water_quality.c ****         for (int i = 0; i < 11; i++){
 344              		.loc 1 106 0
ARM GAS  C:\Users\jniej\AppData\Local\Temp\ccMn1EjJ.s 			page 9


 345 007a 0023     		movs	r3, #0
 346 007c BB67     		str	r3, [r7, #120]
 347 007e 09E0     		b	.L17
 348              	.L18:
 107:water_quality.c ****             WQ_UART_PutString("R\r"); // take one reading
 349              		.loc 1 107 0 discriminator 3
 350 0080 4A48     		ldr	r0, .L27+8
 351 0082 FFF7FEFF 		bl	WQ_UART_PutString
 108:water_quality.c ****             CyDelay(1200u); // docs say readings take one second
 352              		.loc 1 108 0 discriminator 3
 353 0086 4FF49660 		mov	r0, #1200
 354 008a FFF7FEFF 		bl	CyDelay
 106:water_quality.c ****             WQ_UART_PutString("R\r"); // take one reading
 355              		.loc 1 106 0 discriminator 3
 356 008e BB6F     		ldr	r3, [r7, #120]
 357 0090 0133     		adds	r3, r3, #1
 358 0092 BB67     		str	r3, [r7, #120]
 359              	.L17:
 106:water_quality.c ****             WQ_UART_PutString("R\r"); // take one reading
 360              		.loc 1 106 0 is_stmt 0 discriminator 1
 361 0094 BB6F     		ldr	r3, [r7, #120]
 362 0096 0A2B     		cmp	r3, #10
 363 0098 F2DD     		ble	.L18
 364              	.LBE5:
 109:water_quality.c ****         }
 110:water_quality.c ****         
 111:water_quality.c ****         char *token;    
 112:water_quality.c ****         token = strtok(wq_received_string, "\r");
 365              		.loc 1 112 0 is_stmt 1
 366 009a 4549     		ldr	r1, .L27+12
 367 009c 4548     		ldr	r0, .L27+16
 368 009e FFF7FEFF 		bl	strtok
 369 00a2 7867     		str	r0, [r7, #116]
 113:water_quality.c **** 
 114:water_quality.c ****         int i = 0;
 370              		.loc 1 114 0
 371 00a4 0023     		movs	r3, #0
 372 00a6 3B67     		str	r3, [r7, #112]
 115:water_quality.c ****         float32 reading;
 116:water_quality.c ****         while( token != NULL ) {
 373              		.loc 1 116 0
 374 00a8 2CE0     		b	.L19
 375              	.L22:
 117:water_quality.c ****             reading = atof(token);
 376              		.loc 1 117 0
 377 00aa 786F     		ldr	r0, [r7, #116]
 378 00ac FFF7FEFF 		bl	atof
 379 00b0 0346     		mov	r3, r0
 380 00b2 0C46     		mov	r4, r1
 381 00b4 1846     		mov	r0, r3
 382 00b6 2146     		mov	r1, r4
 383 00b8 FFF7FEFF 		bl	__aeabi_d2f
 384 00bc 0346     		mov	r3, r0
 385 00be BB66     		str	r3, [r7, #104]	@ float
 118:water_quality.c ****             if (channel < 1){ // we're reading DO
 386              		.loc 1 118 0
 387 00c0 97F87E30 		ldrb	r3, [r7, #126]	@ zero_extendqisi2
ARM GAS  C:\Users\jniej\AppData\Local\Temp\ccMn1EjJ.s 			page 10


 388 00c4 002B     		cmp	r3, #0
 389 00c6 08D1     		bne	.L20
 119:water_quality.c ****                 output.all_do_readings[i] = reading;
 390              		.loc 1 119 0
 391 00c8 3B6F     		ldr	r3, [r7, #112]
 392 00ca 9B00     		lsls	r3, r3, #2
 393 00cc 07F18002 		add	r2, r7, #128
 394 00d0 1344     		add	r3, r3, r2
 395 00d2 BA6E     		ldr	r2, [r7, #104]	@ float
 396 00d4 43F8782C 		str	r2, [r3, #-120]	@ float
 397 00d8 0CE0     		b	.L21
 398              	.L20:
 120:water_quality.c ****             }
 121:water_quality.c ****             else if (channel < 2) { // we're reading temperature
 399              		.loc 1 121 0
 400 00da 97F87E30 		ldrb	r3, [r7, #126]	@ zero_extendqisi2
 401 00de 012B     		cmp	r3, #1
 402 00e0 08D8     		bhi	.L21
 122:water_quality.c ****                 output.all_temp_readings[i] = reading;
 403              		.loc 1 122 0
 404 00e2 3B6F     		ldr	r3, [r7, #112]
 405 00e4 0C33     		adds	r3, r3, #12
 406 00e6 9B00     		lsls	r3, r3, #2
 407 00e8 07F18002 		add	r2, r7, #128
 408 00ec 1344     		add	r3, r3, r2
 409 00ee BA6E     		ldr	r2, [r7, #104]	@ float
 410 00f0 43F8782C 		str	r2, [r3, #-120]	@ float
 411              	.L21:
 123:water_quality.c ****             }
 124:water_quality.c ****             
 125:water_quality.c ****             token = strtok(NULL, "\r"); // This "NULL" says to continue where you left off last tim
 412              		.loc 1 125 0
 413 00f4 2E49     		ldr	r1, .L27+12
 414 00f6 0020     		movs	r0, #0
 415 00f8 FFF7FEFF 		bl	strtok
 416 00fc 7867     		str	r0, [r7, #116]
 126:water_quality.c ****             i++;
 417              		.loc 1 126 0
 418 00fe 3B6F     		ldr	r3, [r7, #112]
 419 0100 0133     		adds	r3, r3, #1
 420 0102 3B67     		str	r3, [r7, #112]
 421              	.L19:
 116:water_quality.c ****             reading = atof(token);
 422              		.loc 1 116 0
 423 0104 7B6F     		ldr	r3, [r7, #116]
 424 0106 002B     		cmp	r3, #0
 425 0108 CFD1     		bne	.L22
 127:water_quality.c ****         }
 128:water_quality.c ****         
 129:water_quality.c ****         wq_uart_clear();
 426              		.loc 1 129 0 discriminator 2
 427 010a FFF7FEFF 		bl	wq_uart_clear
 428              	.LBE4:
 100:water_quality.c ****         
 429              		.loc 1 100 0 discriminator 2
 430 010e 97F87E30 		ldrb	r3, [r7, #126]	@ zero_extendqisi2
 431 0112 0133     		adds	r3, r3, #1
ARM GAS  C:\Users\jniej\AppData\Local\Temp\ccMn1EjJ.s 			page 11


 432 0114 87F87E30 		strb	r3, [r7, #126]
 433              	.L16:
 100:water_quality.c ****         
 434              		.loc 1 100 0 is_stmt 0 discriminator 1
 435 0118 97F87E30 		ldrb	r3, [r7, #126]	@ zero_extendqisi2
 436 011c 012B     		cmp	r3, #1
 437 011e A2D9     		bls	.L23
 438              	.LBE3:
 130:water_quality.c **** 
 131:water_quality.c ****         // readings array should have eleven nice floats now
 132:water_quality.c ****         // TODO: check this and throw an error if not
 133:water_quality.c ****         
 134:water_quality.c ****     }
 135:water_quality.c ****     
 136:water_quality.c ****     rx_mux_controller_Sleep();
 439              		.loc 1 136 0 is_stmt 1
 440 0120 FFF7FEFF 		bl	rx_mux_controller_Sleep
 137:water_quality.c ****     tx_mux_controller_Sleep();
 441              		.loc 1 137 0
 442 0124 FFF7FEFF 		bl	tx_mux_controller_Sleep
 138:water_quality.c ****    
 139:water_quality.c ****     output.do_reading = float_find_median(output.all_do_readings, 11);
 443              		.loc 1 139 0
 444 0128 07F10803 		add	r3, r7, #8
 445 012c 0B21     		movs	r1, #11
 446 012e 1846     		mov	r0, r3
 447 0130 FFF7FEFF 		bl	float_find_median
 448 0134 0346     		mov	r3, r0
 449 0136 7B63     		str	r3, [r7, #52]	@ float
 140:water_quality.c ****     output.temp_reading = float_find_median(output.all_temp_readings, 11);
 450              		.loc 1 140 0
 451 0138 07F10803 		add	r3, r7, #8
 452 013c 3033     		adds	r3, r3, #48
 453 013e 0B21     		movs	r1, #11
 454 0140 1846     		mov	r0, r3
 455 0142 FFF7FEFF 		bl	float_find_median
 456 0146 0346     		mov	r3, r0
 457 0148 7B66     		str	r3, [r7, #100]	@ float
 458              	.LBB6:
 141:water_quality.c ****     
 142:water_quality.c ****     // turn "*OK" response back on (this is default and useful for debugging)
 143:water_quality.c ****     for (uint8 channel = 0; channel < N_params; channel++){
 459              		.loc 1 143 0
 460 014a 0023     		movs	r3, #0
 461 014c 87F86F30 		strb	r3, [r7, #111]
 462 0150 11E0     		b	.L24
 463              	.L25:
 144:water_quality.c ****         
 145:water_quality.c ****         rx_mux_controller_Write(channel);
 464              		.loc 1 145 0 discriminator 3
 465 0152 97F86F30 		ldrb	r3, [r7, #111]	@ zero_extendqisi2
 466 0156 1846     		mov	r0, r3
 467 0158 FFF7FEFF 		bl	rx_mux_controller_Write
 146:water_quality.c ****         tx_mux_controller_Write(channel); // talking and listening on the same channel
 468              		.loc 1 146 0 discriminator 3
 469 015c 97F86F30 		ldrb	r3, [r7, #111]	@ zero_extendqisi2
 470 0160 1846     		mov	r0, r3
ARM GAS  C:\Users\jniej\AppData\Local\Temp\ccMn1EjJ.s 			page 12


 471 0162 FFF7FEFF 		bl	tx_mux_controller_Write
 147:water_quality.c ****         WQ_UART_PutString("*OK,1\r");
 472              		.loc 1 147 0 discriminator 3
 473 0166 1448     		ldr	r0, .L27+20
 474 0168 FFF7FEFF 		bl	WQ_UART_PutString
 143:water_quality.c ****         
 475              		.loc 1 143 0 discriminator 3
 476 016c 97F86F30 		ldrb	r3, [r7, #111]	@ zero_extendqisi2
 477 0170 0133     		adds	r3, r3, #1
 478 0172 87F86F30 		strb	r3, [r7, #111]
 479              	.L24:
 143:water_quality.c ****         
 480              		.loc 1 143 0 is_stmt 0 discriminator 1
 481 0176 97F86F30 		ldrb	r3, [r7, #111]	@ zero_extendqisi2
 482 017a 012B     		cmp	r3, #1
 483 017c E9D9     		bls	.L25
 484              	.LBE6:
 148:water_quality.c **** 
 149:water_quality.c ****     }
 150:water_quality.c ****     
 151:water_quality.c ****     
 152:water_quality.c ****     CyDelay(1000u);
 485              		.loc 1 152 0 is_stmt 1
 486 017e 4FF47A70 		mov	r0, #1000
 487 0182 FFF7FEFF 		bl	CyDelay
 153:water_quality.c ****     wq_stop_talking();
 488              		.loc 1 153 0
 489 0186 FFF7FEFF 		bl	wq_stop_talking
 154:water_quality.c ****     
 155:water_quality.c ****     return output;
 490              		.loc 1 155 0
 491 018a 7B68     		ldr	r3, [r7, #4]
 492 018c 1846     		mov	r0, r3
 493 018e 07F10803 		add	r3, r7, #8
 494 0192 6022     		movs	r2, #96
 495 0194 1946     		mov	r1, r3
 496 0196 FFF7FEFF 		bl	memcpy
 156:water_quality.c **** }
 497              		.loc 1 156 0
 498 019a 7868     		ldr	r0, [r7, #4]
 499 019c 8437     		adds	r7, r7, #132
 500              		.cfi_def_cfa_offset 12
 501 019e BD46     		mov	sp, r7
 502              		.cfi_def_cfa_register 13
 503              		@ sp needed
 504 01a0 90BD     		pop	{r4, r7, pc}
 505              	.L28:
 506 01a2 00BF     		.align	2
 507              	.L27:
 508 01a4 00000000 		.word	.LC0
 509 01a8 08000000 		.word	.LC1
 510 01ac 10000000 		.word	.LC2
 511 01b0 14000000 		.word	.LC3
 512 01b4 00000000 		.word	wq_received_string
 513 01b8 18000000 		.word	.LC4
 514              		.cfi_endproc
 515              	.LFE68:
ARM GAS  C:\Users\jniej\AppData\Local\Temp\ccMn1EjJ.s 			page 13


 516              		.size	wq_take_reading, .-wq_take_reading
 517              		.section	.rodata
 518 001f 00       		.align	2
 519              	.LC5:
 520 0020 46616374 		.ascii	"Factory\015\000"
 520      6F72790D 
 520      00
 521              		.global	__aeabi_f2d
 522              		.global	__aeabi_dcmplt
 523 0029 000000   		.align	2
 524              	.LC6:
 525 002c 444F2072 		.ascii	"DO readings invalid\015\012Details:\015\012median r"
 525      65616469 
 525      6E677320 
 525      696E7661 
 525      6C69640D 
 526 0053 65616469 		.ascii	"eading:%f \015\012all readings (11): %f : %f : %f :"
 526      6E673A25 
 526      66200D0A 
 526      616C6C20 
 526      72656164 
 527 0080 20256620 		.ascii	" %f : %f : %f : %f : %f : %f : %f : %f\000"
 527      3A202566 
 527      203A2025 
 527      66203A20 
 527      2566203A 
 528              		.global	__aeabi_fcmpgt
 529 00a7 00       		.align	2
 530              	.LC7:
 531 00a8 54656D70 		.ascii	"Temperature readings invalid\015\012Details:\015\012"
 531      65726174 
 531      75726520 
 531      72656164 
 531      696E6773 
 532 00d0 6D656469 		.ascii	"median reading:%f \015\012all readings (11): %f : %"
 532      616E2072 
 532      65616469 
 532      6E673A25 
 532      66200D0A 
 533 00fd 66203A20 		.ascii	"f : %f : %f : %f : %f : %f : %f : %f : %f : %f\000"
 533      2566203A 
 533      20256620 
 533      3A202566 
 533      203A2025 
 534              		.align	2
 535              	.LC8:
 536 012c 54455354 		.ascii	"TEST_wq_SENSOR\000"
 536      5F77715F 
 536      53454E53 
 536      4F5200
 537 013b 00       		.align	2
 538              	.LC9:
 539 013c 6D656469 		.ascii	"median DO reading:%f \015\012median Temperature Rea"
 539      616E2044 
 539      4F207265 
 539      6164696E 
 539      673A2566 
ARM GAS  C:\Users\jniej\AppData\Local\Temp\ccMn1EjJ.s 			page 14


 540 0169 64696E67 		.ascii	"ding: %f \000"
 540      3A202566 
 540      2000
 541              		.section	.text.wq_sensor_test,"ax",%progbits
 542              		.align	2
 543              		.global	wq_sensor_test
 544              		.thumb
 545              		.thumb_func
 546              		.type	wq_sensor_test, %function
 547              	wq_sensor_test:
 548              	.LFB69:
 157:water_quality.c **** 
 158:water_quality.c **** test_t wq_sensor_test(){
 549              		.loc 1 158 0
 550              		.cfi_startproc
 551              		@ args = 0, pretend = 0, frame = 864
 552              		@ frame_needed = 1, uses_anonymous_args = 0
 553 0000 2DE9B04F 		push	{r4, r5, r7, r8, r9, r10, fp, lr}
 554              		.cfi_def_cfa_offset 32
 555              		.cfi_offset 4, -32
 556              		.cfi_offset 5, -28
 557              		.cfi_offset 7, -24
 558              		.cfi_offset 8, -20
 559              		.cfi_offset 9, -16
 560              		.cfi_offset 10, -12
 561              		.cfi_offset 11, -8
 562              		.cfi_offset 14, -4
 563 0004 ADF5707D 		sub	sp, sp, #960
 564              		.cfi_def_cfa_offset 992
 565 0008 18AF     		add	r7, sp, #96
 566              		.cfi_def_cfa 7, 896
 567 000a 07F14403 		add	r3, r7, #68
 568 000e 1860     		str	r0, [r3]
 159:water_quality.c ****     wq_uart_clear();
 569              		.loc 1 159 0
 570 0010 FFF7FEFF 		bl	wq_uart_clear
 160:water_quality.c ****     char excerpt[300]; // for debugging
 161:water_quality.c ****     // only call this in the lab for initial setup (calibration to air)
 162:water_quality.c ****     WQ_UART_PutString("Factory\r"); // take one reading
 571              		.loc 1 162 0
 572 0014 6048     		ldr	r0, .L42+8
 573 0016 FFF7FEFF 		bl	WQ_UART_PutString
 163:water_quality.c ****     CyDelay(2000u); // docs say readings take one second
 574              		.loc 1 163 0
 575 001a 4FF4FA60 		mov	r0, #2000
 576 001e FFF7FEFF 		bl	CyDelay
 164:water_quality.c ****     // wq_cal() should be commented out in the main repo and never called in the field
 165:water_quality.c ****     //wq_cal();
 166:water_quality.c ****     
 167:water_quality.c ****     wq_sensors_t results = wq_take_reading();
 577              		.loc 1 167 0
 578 0022 07F5E873 		add	r3, r7, #464
 579 0026 1846     		mov	r0, r3
 580 0028 FFF7FEFF 		bl	wq_take_reading
 168:water_quality.c **** 
 169:water_quality.c ****     test_t test;
 170:water_quality.c ****     
ARM GAS  C:\Users\jniej\AppData\Local\Temp\ccMn1EjJ.s 			page 15


 171:water_quality.c ****     // I don't think the way the tests fail is ideal, 
 172:water_quality.c ****     // can't tell if temperature is working or not if DO fails currently
 173:water_quality.c ****     
 174:water_quality.c ****     if (results.do_reading < 0.01){
 581              		.loc 1 174 0
 582 002c 07F5E873 		add	r3, r7, #464
 583 0030 DB6A     		ldr	r3, [r3, #44]	@ float
 584 0032 1846     		mov	r0, r3
 585 0034 FFF7FEFF 		bl	__aeabi_f2d
 586 0038 55A3     		adr	r3, .L42
 587 003a D3E90023 		ldrd	r2, [r3]
 588 003e FFF7FEFF 		bl	__aeabi_dcmplt
 589 0042 0346     		mov	r3, r0
 590 0044 002B     		cmp	r3, #0
 591 0046 00F0AB80 		beq	.L40
 175:water_quality.c ****         test.status = 0;
 592              		.loc 1 175 0
 593 004a 07F14C03 		add	r3, r7, #76
 594 004e 0022     		movs	r2, #0
 595 0050 83F88020 		strb	r2, [r3, #128]
 176:water_quality.c ****         // test reason  
 177:water_quality.c ****         snprintf(test.reason,sizeof(test.reason), 
 178:water_quality.c ****         "DO readings invalid\r\nDetails:\r\nmedian reading:%f \r\nall readings (11): %f : %f : %f :
 179:water_quality.c ****         results.do_reading,
 596              		.loc 1 179 0
 597 0054 07F5E873 		add	r3, r7, #464
 598 0058 DB6A     		ldr	r3, [r3, #44]	@ float
 177:water_quality.c ****         "DO readings invalid\r\nDetails:\r\nmedian reading:%f \r\nall readings (11): %f : %f : %f :
 599              		.loc 1 177 0
 600 005a 1846     		mov	r0, r3
 601 005c FFF7FEFF 		bl	__aeabi_f2d
 602 0060 C7E90E01 		strd	r0, [r7, #56]
 180:water_quality.c ****         results.all_do_readings[0], results.all_do_readings[1], results.all_do_readings[2], 
 603              		.loc 1 180 0
 604 0064 07F5E873 		add	r3, r7, #464
 605 0068 1B68     		ldr	r3, [r3]	@ float
 177:water_quality.c ****         "DO readings invalid\r\nDetails:\r\nmedian reading:%f \r\nall readings (11): %f : %f : %f :
 606              		.loc 1 177 0
 607 006a 1846     		mov	r0, r3
 608 006c FFF7FEFF 		bl	__aeabi_f2d
 609 0070 C7E90C01 		strd	r0, [r7, #48]
 610              		.loc 1 180 0
 611 0074 07F5E873 		add	r3, r7, #464
 612 0078 5B68     		ldr	r3, [r3, #4]	@ float
 177:water_quality.c ****         "DO readings invalid\r\nDetails:\r\nmedian reading:%f \r\nall readings (11): %f : %f : %f :
 613              		.loc 1 177 0
 614 007a 1846     		mov	r0, r3
 615 007c FFF7FEFF 		bl	__aeabi_f2d
 616 0080 C7E90A01 		strd	r0, [r7, #40]
 617              		.loc 1 180 0
 618 0084 07F5E873 		add	r3, r7, #464
 619 0088 9B68     		ldr	r3, [r3, #8]	@ float
 177:water_quality.c ****         "DO readings invalid\r\nDetails:\r\nmedian reading:%f \r\nall readings (11): %f : %f : %f :
 620              		.loc 1 177 0
 621 008a 1846     		mov	r0, r3
 622 008c FFF7FEFF 		bl	__aeabi_f2d
 623 0090 C7E90801 		strd	r0, [r7, #32]
ARM GAS  C:\Users\jniej\AppData\Local\Temp\ccMn1EjJ.s 			page 16


 181:water_quality.c ****         results.all_do_readings[3], results.all_do_readings[4], results.all_do_readings[5], 
 624              		.loc 1 181 0
 625 0094 07F5E873 		add	r3, r7, #464
 626 0098 DB68     		ldr	r3, [r3, #12]	@ float
 177:water_quality.c ****         "DO readings invalid\r\nDetails:\r\nmedian reading:%f \r\nall readings (11): %f : %f : %f :
 627              		.loc 1 177 0
 628 009a 1846     		mov	r0, r3
 629 009c FFF7FEFF 		bl	__aeabi_f2d
 630 00a0 C7E90601 		strd	r0, [r7, #24]
 631              		.loc 1 181 0
 632 00a4 07F5E873 		add	r3, r7, #464
 633 00a8 1B69     		ldr	r3, [r3, #16]	@ float
 177:water_quality.c ****         "DO readings invalid\r\nDetails:\r\nmedian reading:%f \r\nall readings (11): %f : %f : %f :
 634              		.loc 1 177 0
 635 00aa 1846     		mov	r0, r3
 636 00ac FFF7FEFF 		bl	__aeabi_f2d
 637 00b0 C7E90401 		strd	r0, [r7, #16]
 638              		.loc 1 181 0
 639 00b4 07F5E873 		add	r3, r7, #464
 640 00b8 5B69     		ldr	r3, [r3, #20]	@ float
 177:water_quality.c ****         "DO readings invalid\r\nDetails:\r\nmedian reading:%f \r\nall readings (11): %f : %f : %f :
 641              		.loc 1 177 0
 642 00ba 1846     		mov	r0, r3
 643 00bc FFF7FEFF 		bl	__aeabi_f2d
 644 00c0 C7E90201 		strd	r0, [r7, #8]
 182:water_quality.c ****         results.all_do_readings[6], results.all_do_readings[7], results.all_do_readings[8], 
 645              		.loc 1 182 0
 646 00c4 07F5E873 		add	r3, r7, #464
 647 00c8 9B69     		ldr	r3, [r3, #24]	@ float
 177:water_quality.c ****         "DO readings invalid\r\nDetails:\r\nmedian reading:%f \r\nall readings (11): %f : %f : %f :
 648              		.loc 1 177 0
 649 00ca 1846     		mov	r0, r3
 650 00cc FFF7FEFF 		bl	__aeabi_f2d
 651 00d0 C7E90001 		strd	r0, [r7]
 652              		.loc 1 182 0
 653 00d4 07F5E873 		add	r3, r7, #464
 654 00d8 DB69     		ldr	r3, [r3, #28]	@ float
 177:water_quality.c ****         "DO readings invalid\r\nDetails:\r\nmedian reading:%f \r\nall readings (11): %f : %f : %f :
 655              		.loc 1 177 0
 656 00da 1846     		mov	r0, r3
 657 00dc FFF7FEFF 		bl	__aeabi_f2d
 658 00e0 8246     		mov	r10, r0
 659 00e2 8B46     		mov	fp, r1
 660              		.loc 1 182 0
 661 00e4 07F5E873 		add	r3, r7, #464
 662 00e8 1B6A     		ldr	r3, [r3, #32]	@ float
 177:water_quality.c ****         "DO readings invalid\r\nDetails:\r\nmedian reading:%f \r\nall readings (11): %f : %f : %f :
 663              		.loc 1 177 0
 664 00ea 1846     		mov	r0, r3
 665 00ec FFF7FEFF 		bl	__aeabi_f2d
 666 00f0 8046     		mov	r8, r0
 667 00f2 8946     		mov	r9, r1
 183:water_quality.c ****         results.all_do_readings[9], results.all_do_readings[10]
 668              		.loc 1 183 0
 669 00f4 07F5E873 		add	r3, r7, #464
 670 00f8 5B6A     		ldr	r3, [r3, #36]	@ float
 177:water_quality.c ****         "DO readings invalid\r\nDetails:\r\nmedian reading:%f \r\nall readings (11): %f : %f : %f :
ARM GAS  C:\Users\jniej\AppData\Local\Temp\ccMn1EjJ.s 			page 17


 671              		.loc 1 177 0
 672 00fa 1846     		mov	r0, r3
 673 00fc FFF7FEFF 		bl	__aeabi_f2d
 674 0100 0446     		mov	r4, r0
 675 0102 0D46     		mov	r5, r1
 676              		.loc 1 183 0
 677 0104 07F5E873 		add	r3, r7, #464
 678 0108 9B6A     		ldr	r3, [r3, #40]	@ float
 177:water_quality.c ****         "DO readings invalid\r\nDetails:\r\nmedian reading:%f \r\nall readings (11): %f : %f : %f :
 679              		.loc 1 177 0
 680 010a 1846     		mov	r0, r3
 681 010c FFF7FEFF 		bl	__aeabi_f2d
 682 0110 0A46     		mov	r2, r1
 683 0112 0146     		mov	r1, r0
 684 0114 07F14C03 		add	r3, r7, #76
 685 0118 8133     		adds	r3, r3, #129
 686 011a CDE91612 		strd	r1, [sp, #88]
 687 011e CDE91445 		strd	r4, [sp, #80]
 688 0122 CDE91289 		strd	r8, [sp, #72]
 689 0126 CDE910AB 		strd	r10, [sp, #64]
 690 012a D7E90012 		ldrd	r1, [r7]
 691 012e CDE90E12 		strd	r1, [sp, #56]
 692 0132 D7E90212 		ldrd	r1, [r7, #8]
 693 0136 CDE90C12 		strd	r1, [sp, #48]
 694 013a D7E90412 		ldrd	r1, [r7, #16]
 695 013e CDE90A12 		strd	r1, [sp, #40]
 696 0142 D7E90612 		ldrd	r1, [r7, #24]
 697 0146 CDE90812 		strd	r1, [sp, #32]
 698 014a D7E90812 		ldrd	r1, [r7, #32]
 699 014e CDE90612 		strd	r1, [sp, #24]
 700 0152 D7E90A12 		ldrd	r1, [r7, #40]
 701 0156 CDE90412 		strd	r1, [sp, #16]
 702 015a D7E90C12 		ldrd	r1, [r7, #48]
 703 015e CDE90212 		strd	r1, [sp, #8]
 704 0162 D7E90E12 		ldrd	r1, [r7, #56]
 705 0166 CDE90012 		strd	r1, [sp]
 706 016a 0C4A     		ldr	r2, .L42+12
 707 016c 4FF48071 		mov	r1, #256
 708 0170 1846     		mov	r0, r3
 709 0172 FFF7FEFF 		bl	snprintf
 184:water_quality.c ****         );
 185:water_quality.c ****         return test;
 710              		.loc 1 185 0
 711 0176 07F14403 		add	r3, r7, #68
 712 017a 1A68     		ldr	r2, [r3]
 713 017c 07F14C03 		add	r3, r7, #76
 714 0180 1046     		mov	r0, r2
 715 0182 1946     		mov	r1, r3
 716 0184 40F28113 		movw	r3, #385
 717 0188 1A46     		mov	r2, r3
 718 018a FFF7FEFF 		bl	memcpy
 719 018e 08E1     		b	.L29
 720              	.L43:
 721              		.align	3
 722              	.L42:
 723 0190 7B14AE47 		.word	1202590843
 724 0194 E17A843F 		.word	1065646817
ARM GAS  C:\Users\jniej\AppData\Local\Temp\ccMn1EjJ.s 			page 18


 725 0198 20000000 		.word	.LC5
 726 019c 2C000000 		.word	.LC6
 727              	.L40:
 186:water_quality.c ****     }
 187:water_quality.c ****     
 188:water_quality.c ****     if (results.temp_reading > 150){ // not sure what the error reading actually is
 728              		.loc 1 188 0
 729 01a0 07F5E873 		add	r3, r7, #464
 730 01a4 DB6D     		ldr	r3, [r3, #92]	@ float
 731 01a6 8349     		ldr	r1, .L44
 732 01a8 1846     		mov	r0, r3
 733 01aa FFF7FEFF 		bl	__aeabi_fcmpgt
 734 01ae 0346     		mov	r3, r0
 735 01b0 002B     		cmp	r3, #0
 736 01b2 00F0A380 		beq	.L41
 189:water_quality.c ****         // this cutoff threshold needs to be changed to reflect the documenation of the sensor
 190:water_quality.c ****         test.status = 0;
 737              		.loc 1 190 0
 738 01b6 07F14C03 		add	r3, r7, #76
 739 01ba 0022     		movs	r2, #0
 740 01bc 83F88020 		strb	r2, [r3, #128]
 191:water_quality.c ****         // test reason  
 192:water_quality.c ****         snprintf(test.reason,sizeof(test.reason), 
 193:water_quality.c ****         "Temperature readings invalid\r\nDetails:\r\nmedian reading:%f \r\nall readings (11): %f : 
 194:water_quality.c ****         results.temp_reading,
 741              		.loc 1 194 0
 742 01c0 07F5E873 		add	r3, r7, #464
 743 01c4 DB6D     		ldr	r3, [r3, #92]	@ float
 192:water_quality.c ****         "Temperature readings invalid\r\nDetails:\r\nmedian reading:%f \r\nall readings (11): %f : 
 744              		.loc 1 192 0
 745 01c6 1846     		mov	r0, r3
 746 01c8 FFF7FEFF 		bl	__aeabi_f2d
 747 01cc C7E90E01 		strd	r0, [r7, #56]
 195:water_quality.c ****         results.all_temp_readings[0], results.all_temp_readings[1], results.all_temp_readings[2], 
 748              		.loc 1 195 0
 749 01d0 07F5E873 		add	r3, r7, #464
 750 01d4 1B6B     		ldr	r3, [r3, #48]	@ float
 192:water_quality.c ****         "Temperature readings invalid\r\nDetails:\r\nmedian reading:%f \r\nall readings (11): %f : 
 751              		.loc 1 192 0
 752 01d6 1846     		mov	r0, r3
 753 01d8 FFF7FEFF 		bl	__aeabi_f2d
 754 01dc C7E90C01 		strd	r0, [r7, #48]
 755              		.loc 1 195 0
 756 01e0 07F5E873 		add	r3, r7, #464
 757 01e4 5B6B     		ldr	r3, [r3, #52]	@ float
 192:water_quality.c ****         "Temperature readings invalid\r\nDetails:\r\nmedian reading:%f \r\nall readings (11): %f : 
 758              		.loc 1 192 0
 759 01e6 1846     		mov	r0, r3
 760 01e8 FFF7FEFF 		bl	__aeabi_f2d
 761 01ec C7E90A01 		strd	r0, [r7, #40]
 762              		.loc 1 195 0
 763 01f0 07F5E873 		add	r3, r7, #464
 764 01f4 9B6B     		ldr	r3, [r3, #56]	@ float
 192:water_quality.c ****         "Temperature readings invalid\r\nDetails:\r\nmedian reading:%f \r\nall readings (11): %f : 
 765              		.loc 1 192 0
 766 01f6 1846     		mov	r0, r3
 767 01f8 FFF7FEFF 		bl	__aeabi_f2d
ARM GAS  C:\Users\jniej\AppData\Local\Temp\ccMn1EjJ.s 			page 19


 768 01fc C7E90801 		strd	r0, [r7, #32]
 196:water_quality.c ****         results.all_temp_readings[3], results.all_temp_readings[4], results.all_temp_readings[5], 
 769              		.loc 1 196 0
 770 0200 07F5E873 		add	r3, r7, #464
 771 0204 DB6B     		ldr	r3, [r3, #60]	@ float
 192:water_quality.c ****         "Temperature readings invalid\r\nDetails:\r\nmedian reading:%f \r\nall readings (11): %f : 
 772              		.loc 1 192 0
 773 0206 1846     		mov	r0, r3
 774 0208 FFF7FEFF 		bl	__aeabi_f2d
 775 020c C7E90601 		strd	r0, [r7, #24]
 776              		.loc 1 196 0
 777 0210 07F5E873 		add	r3, r7, #464
 778 0214 1B6C     		ldr	r3, [r3, #64]	@ float
 192:water_quality.c ****         "Temperature readings invalid\r\nDetails:\r\nmedian reading:%f \r\nall readings (11): %f : 
 779              		.loc 1 192 0
 780 0216 1846     		mov	r0, r3
 781 0218 FFF7FEFF 		bl	__aeabi_f2d
 782 021c C7E90401 		strd	r0, [r7, #16]
 783              		.loc 1 196 0
 784 0220 07F5E873 		add	r3, r7, #464
 785 0224 5B6C     		ldr	r3, [r3, #68]	@ float
 192:water_quality.c ****         "Temperature readings invalid\r\nDetails:\r\nmedian reading:%f \r\nall readings (11): %f : 
 786              		.loc 1 192 0
 787 0226 1846     		mov	r0, r3
 788 0228 FFF7FEFF 		bl	__aeabi_f2d
 789 022c C7E90201 		strd	r0, [r7, #8]
 197:water_quality.c ****         results.all_temp_readings[6], results.all_temp_readings[7], results.all_temp_readings[8], 
 790              		.loc 1 197 0
 791 0230 07F5E873 		add	r3, r7, #464
 792 0234 9B6C     		ldr	r3, [r3, #72]	@ float
 192:water_quality.c ****         "Temperature readings invalid\r\nDetails:\r\nmedian reading:%f \r\nall readings (11): %f : 
 793              		.loc 1 192 0
 794 0236 1846     		mov	r0, r3
 795 0238 FFF7FEFF 		bl	__aeabi_f2d
 796 023c C7E90001 		strd	r0, [r7]
 797              		.loc 1 197 0
 798 0240 07F5E873 		add	r3, r7, #464
 799 0244 DB6C     		ldr	r3, [r3, #76]	@ float
 192:water_quality.c ****         "Temperature readings invalid\r\nDetails:\r\nmedian reading:%f \r\nall readings (11): %f : 
 800              		.loc 1 192 0
 801 0246 1846     		mov	r0, r3
 802 0248 FFF7FEFF 		bl	__aeabi_f2d
 803 024c 8246     		mov	r10, r0
 804 024e 8B46     		mov	fp, r1
 805              		.loc 1 197 0
 806 0250 07F5E873 		add	r3, r7, #464
 807 0254 1B6D     		ldr	r3, [r3, #80]	@ float
 192:water_quality.c ****         "Temperature readings invalid\r\nDetails:\r\nmedian reading:%f \r\nall readings (11): %f : 
 808              		.loc 1 192 0
 809 0256 1846     		mov	r0, r3
 810 0258 FFF7FEFF 		bl	__aeabi_f2d
 811 025c 8046     		mov	r8, r0
 812 025e 8946     		mov	r9, r1
 198:water_quality.c ****         results.all_temp_readings[9], results.all_temp_readings[10]
 813              		.loc 1 198 0
 814 0260 07F5E873 		add	r3, r7, #464
 815 0264 5B6D     		ldr	r3, [r3, #84]	@ float
ARM GAS  C:\Users\jniej\AppData\Local\Temp\ccMn1EjJ.s 			page 20


 192:water_quality.c ****         "Temperature readings invalid\r\nDetails:\r\nmedian reading:%f \r\nall readings (11): %f : 
 816              		.loc 1 192 0
 817 0266 1846     		mov	r0, r3
 818 0268 FFF7FEFF 		bl	__aeabi_f2d
 819 026c 0446     		mov	r4, r0
 820 026e 0D46     		mov	r5, r1
 821              		.loc 1 198 0
 822 0270 07F5E873 		add	r3, r7, #464
 823 0274 9B6D     		ldr	r3, [r3, #88]	@ float
 192:water_quality.c ****         "Temperature readings invalid\r\nDetails:\r\nmedian reading:%f \r\nall readings (11): %f : 
 824              		.loc 1 192 0
 825 0276 1846     		mov	r0, r3
 826 0278 FFF7FEFF 		bl	__aeabi_f2d
 827 027c 0A46     		mov	r2, r1
 828 027e 0146     		mov	r1, r0
 829 0280 07F14C03 		add	r3, r7, #76
 830 0284 8133     		adds	r3, r3, #129
 831 0286 CDE91612 		strd	r1, [sp, #88]
 832 028a CDE91445 		strd	r4, [sp, #80]
 833 028e CDE91289 		strd	r8, [sp, #72]
 834 0292 CDE910AB 		strd	r10, [sp, #64]
 835 0296 D7E90012 		ldrd	r1, [r7]
 836 029a CDE90E12 		strd	r1, [sp, #56]
 837 029e D7E90212 		ldrd	r1, [r7, #8]
 838 02a2 CDE90C12 		strd	r1, [sp, #48]
 839 02a6 D7E90412 		ldrd	r1, [r7, #16]
 840 02aa CDE90A12 		strd	r1, [sp, #40]
 841 02ae D7E90612 		ldrd	r1, [r7, #24]
 842 02b2 CDE90812 		strd	r1, [sp, #32]
 843 02b6 D7E90812 		ldrd	r1, [r7, #32]
 844 02ba CDE90612 		strd	r1, [sp, #24]
 845 02be D7E90A12 		ldrd	r1, [r7, #40]
 846 02c2 CDE90412 		strd	r1, [sp, #16]
 847 02c6 D7E90C12 		ldrd	r1, [r7, #48]
 848 02ca CDE90212 		strd	r1, [sp, #8]
 849 02ce D7E90E12 		ldrd	r1, [r7, #56]
 850 02d2 CDE90012 		strd	r1, [sp]
 851 02d6 384A     		ldr	r2, .L44+4
 852 02d8 4FF48071 		mov	r1, #256
 853 02dc 1846     		mov	r0, r3
 854 02de FFF7FEFF 		bl	snprintf
 199:water_quality.c ****         );
 200:water_quality.c ****         return test;
 855              		.loc 1 200 0
 856 02e2 07F14403 		add	r3, r7, #68
 857 02e6 1A68     		ldr	r2, [r3]
 858 02e8 07F14C03 		add	r3, r7, #76
 859 02ec 1046     		mov	r0, r2
 860 02ee 1946     		mov	r1, r3
 861 02f0 40F28113 		movw	r3, #385
 862 02f4 1A46     		mov	r2, r3
 863 02f6 FFF7FEFF 		bl	memcpy
 864 02fa 52E0     		b	.L29
 865              	.L41:
 201:water_quality.c ****     }
 202:water_quality.c **** 
 203:water_quality.c ****     // for now, getting something besides zeros is valid
ARM GAS  C:\Users\jniej\AppData\Local\Temp\ccMn1EjJ.s 			page 21


 204:water_quality.c ****     test.status = 1; // set test status to zero
 866              		.loc 1 204 0
 867 02fc 07F14C03 		add	r3, r7, #76
 868 0300 0122     		movs	r2, #1
 869 0302 83F88020 		strb	r2, [r3, #128]
 205:water_quality.c ****     snprintf(test.test_name,sizeof(test.test_name),"TEST_wq_SENSOR");
 870              		.loc 1 205 0
 871 0306 07F14C03 		add	r3, r7, #76
 872 030a 2C4A     		ldr	r2, .L44+8
 873 030c 1C46     		mov	r4, r3
 874 030e 1346     		mov	r3, r2
 875 0310 0FCB     		ldmia	r3, {r0, r1, r2, r3}
 876 0312 07C4     		stmia	r4!, {r0, r1, r2}
 877 0314 2380     		strh	r3, [r4]	@ movhi
 878 0316 0234     		adds	r4, r4, #2
 879 0318 1B0C     		lsrs	r3, r3, #16
 880 031a 2370     		strb	r3, [r4]
 206:water_quality.c ****    
 207:water_quality.c ****     
 208:water_quality.c ****     // test reason  
 209:water_quality.c ****     snprintf(test.reason,sizeof(test.reason), 
 210:water_quality.c ****     "median DO reading:%f \r\nmedian Temperature Reading: %f ",
 211:water_quality.c ****     results.do_reading,
 881              		.loc 1 211 0
 882 031c 07F5E873 		add	r3, r7, #464
 883 0320 DB6A     		ldr	r3, [r3, #44]	@ float
 209:water_quality.c ****     "median DO reading:%f \r\nmedian Temperature Reading: %f ",
 884              		.loc 1 209 0
 885 0322 1846     		mov	r0, r3
 886 0324 FFF7FEFF 		bl	__aeabi_f2d
 887 0328 0446     		mov	r4, r0
 888 032a 0D46     		mov	r5, r1
 212:water_quality.c ****     results.temp_reading
 889              		.loc 1 212 0
 890 032c 07F5E873 		add	r3, r7, #464
 891 0330 DB6D     		ldr	r3, [r3, #92]	@ float
 209:water_quality.c ****     "median DO reading:%f \r\nmedian Temperature Reading: %f ",
 892              		.loc 1 209 0
 893 0332 1846     		mov	r0, r3
 894 0334 FFF7FEFF 		bl	__aeabi_f2d
 895 0338 0246     		mov	r2, r0
 896 033a 0B46     		mov	r3, r1
 897 033c 07F14C01 		add	r1, r7, #76
 898 0340 01F18100 		add	r0, r1, #129
 899 0344 CDE90223 		strd	r2, [sp, #8]
 900 0348 CDE90045 		strd	r4, [sp]
 901 034c 1C4A     		ldr	r2, .L44+12
 902 034e 4FF48071 		mov	r1, #256
 903 0352 FFF7FEFF 		bl	snprintf
 904              	.LBB7:
 213:water_quality.c ****     );
 214:water_quality.c ****     
 215:water_quality.c ****     for (uint i = 0; i < 300; i++){
 905              		.loc 1 215 0
 906 0356 0023     		movs	r3, #0
 907 0358 C7F85C33 		str	r3, [r7, #860]
 908 035c 10E0     		b	.L35
ARM GAS  C:\Users\jniej\AppData\Local\Temp\ccMn1EjJ.s 			page 22


 909              	.L36:
 216:water_quality.c ****         excerpt[i] = wq_received_string[i];  
 910              		.loc 1 216 0 discriminator 3
 911 035e 194A     		ldr	r2, .L44+16
 912 0360 D7F85C33 		ldr	r3, [r7, #860]
 913 0364 1344     		add	r3, r3, r2
 914 0366 1978     		ldrb	r1, [r3]	@ zero_extendqisi2
 915 0368 07F50C72 		add	r2, r7, #560
 916 036c D7F85C33 		ldr	r3, [r7, #860]
 917 0370 1344     		add	r3, r3, r2
 918 0372 0A46     		mov	r2, r1
 919 0374 1A70     		strb	r2, [r3]
 215:water_quality.c ****         excerpt[i] = wq_received_string[i];  
 920              		.loc 1 215 0 discriminator 3
 921 0376 D7F85C33 		ldr	r3, [r7, #860]
 922 037a 0133     		adds	r3, r3, #1
 923 037c C7F85C33 		str	r3, [r7, #860]
 924              	.L35:
 215:water_quality.c ****         excerpt[i] = wq_received_string[i];  
 925              		.loc 1 215 0 is_stmt 0 discriminator 1
 926 0380 D7F85C33 		ldr	r3, [r7, #860]
 927 0384 B3F5967F 		cmp	r3, #300
 928 0388 E9D3     		bcc	.L36
 929              	.LBE7:
 217:water_quality.c ****     }
 218:water_quality.c ****     
 219:water_quality.c **** 
 220:water_quality.c ****     return test;
 930              		.loc 1 220 0 is_stmt 1
 931 038a 07F14403 		add	r3, r7, #68
 932 038e 1A68     		ldr	r2, [r3]
 933 0390 07F14C03 		add	r3, r7, #76
 934 0394 1046     		mov	r0, r2
 935 0396 1946     		mov	r1, r3
 936 0398 40F28113 		movw	r3, #385
 937 039c 1A46     		mov	r2, r3
 938 039e FFF7FEFF 		bl	memcpy
 939              	.L29:
 221:water_quality.c ****     
 222:water_quality.c **** }
 940              		.loc 1 222 0
 941 03a2 07F14403 		add	r3, r7, #68
 942 03a6 1868     		ldr	r0, [r3]
 943 03a8 07F55877 		add	r7, r7, #864
 944              		.cfi_def_cfa_offset 32
 945 03ac BD46     		mov	sp, r7
 946              		.cfi_def_cfa_register 13
 947              		@ sp needed
 948 03ae BDE8B08F 		pop	{r4, r5, r7, r8, r9, r10, fp, pc}
 949              	.L45:
 950 03b2 00BF     		.align	2
 951              	.L44:
 952 03b4 00001643 		.word	1125515264
 953 03b8 A8000000 		.word	.LC7
 954 03bc 2C010000 		.word	.LC8
 955 03c0 3C010000 		.word	.LC9
 956 03c4 00000000 		.word	wq_received_string
ARM GAS  C:\Users\jniej\AppData\Local\Temp\ccMn1EjJ.s 			page 23


 957              		.cfi_endproc
 958              	.LFE69:
 959              		.size	wq_sensor_test, .-wq_sensor_test
 960              		.global	__aeabi_fsub
 961              		.global	__aeabi_dmul
 962              		.global	__aeabi_dcmple
 963              		.section	.rodata
 964 0173 00       		.align	2
 965              	.LC10:
 966 0174 43616C2C 		.ascii	"Cal,clear\015\000"
 966      636C6561 
 966      720D00
 967 017f 00       		.align	2
 968              	.LC11:
 969 0180 43616C0D 		.ascii	"Cal\015\000"
 969      00
 970 0185 000000   		.align	2
 971              	.LC12:
 972 0188 53756363 		.ascii	"Successfully calibrated DO sensor\000"
 972      65737366 
 972      756C6C79 
 972      2063616C 
 972      69627261 
 973 01aa 0000     		.align	2
 974              	.LC13:
 975 01ac 63616C69 		.ascii	"calibrated DO reading: %f ::: Expected [9.0,9.3] mg"
 975      62726174 
 975      65642044 
 975      4F207265 
 975      6164696E 
 976 01df 2F4C00   		.ascii	"/L\000"
 977 01e2 0000     		.align	2
 978              	.LC14:
 979 01e4 444F2072 		.ascii	"DO readings failed to converge\000"
 979      65616469 
 979      6E677320 
 979      6661696C 
 979      65642074 
 980              		.section	.text.wq_cal,"ax",%progbits
 981              		.align	2
 982              		.global	wq_cal
 983              		.thumb
 984              		.thumb_func
 985              		.type	wq_cal, %function
 986              	wq_cal:
 987              	.LFB70:
 223:water_quality.c **** 
 224:water_quality.c **** uint8 wq_cal(){ // NOT DONE YET AS OF APR 6
 988              		.loc 1 224 0
 989              		.cfi_startproc
 990              		@ args = 0, pretend = 0, frame = 504
 991              		@ frame_needed = 1, uses_anonymous_args = 0
 992 0000 B0B5     		push	{r4, r5, r7, lr}
 993              		.cfi_def_cfa_offset 16
 994              		.cfi_offset 4, -16
 995              		.cfi_offset 5, -12
 996              		.cfi_offset 7, -8
ARM GAS  C:\Users\jniej\AppData\Local\Temp\ccMn1EjJ.s 			page 24


 997              		.cfi_offset 14, -4
 998 0002 FEB0     		sub	sp, sp, #504
 999              		.cfi_def_cfa_offset 520
 1000 0004 00AF     		add	r7, sp, #0
 1001              		.cfi_def_cfa_register 7
 225:water_quality.c ****     wq_uart_clear(); // forget what you think you know
 1002              		.loc 1 225 0
 1003 0006 FFF7FEFF 		bl	wq_uart_clear
 1004              	.LBB8:
 226:water_quality.c ****     char excerpt[300]; // for debugging
 227:water_quality.c ****     for (int i = 0; i < 2; i++){
 1005              		.loc 1 227 0
 1006 000a 0023     		movs	r3, #0
 1007 000c C7F8F431 		str	r3, [r7, #500]
 1008 0010 9BE0     		b	.L47
 1009              	.L57:
 1010              	.LBB9:
 228:water_quality.c ****         wq_sensors_t readings = wq_take_reading();
 1011              		.loc 1 228 0
 1012 0012 3B46     		mov	r3, r7
 1013 0014 1846     		mov	r0, r3
 1014 0016 FFF7FEFF 		bl	wq_take_reading
 229:water_quality.c ****         // I'll take convergence as the range less than 5 percent the median
 230:water_quality.c ****         // this is arbitrary but information we can already generate
 231:water_quality.c ****         fsort(readings.all_do_readings,N_READINGS); // sort it
 1015              		.loc 1 231 0
 1016 001a 3B46     		mov	r3, r7
 1017 001c 0B21     		movs	r1, #11
 1018 001e 1846     		mov	r0, r3
 1019 0020 FFF7FEFF 		bl	fsort
 232:water_quality.c ****         float32 range = readings.all_do_readings[N_READINGS-1] - readings.all_do_readings[0];
 1020              		.loc 1 232 0
 1021 0024 3B46     		mov	r3, r7
 1022 0026 9A6A     		ldr	r2, [r3, #40]	@ float
 1023 0028 3B46     		mov	r3, r7
 1024 002a 1B68     		ldr	r3, [r3]	@ float
 1025 002c 1946     		mov	r1, r3
 1026 002e 1046     		mov	r0, r2
 1027 0030 FFF7FEFF 		bl	__aeabi_fsub
 1028 0034 0346     		mov	r3, r0
 1029 0036 C7F8EC31 		str	r3, [r7, #492]	@ float
 1030              	.LBB10:
 233:water_quality.c ****         
 234:water_quality.c ****         for (uint i = 0; i < 300; i++){
 1031              		.loc 1 234 0
 1032 003a 0023     		movs	r3, #0
 1033 003c C7F8F031 		str	r3, [r7, #496]
 1034 0040 10E0     		b	.L48
 1035              	.L49:
 235:water_quality.c ****             excerpt[i] = wq_received_string[i];  
 1036              		.loc 1 235 0 discriminator 3
 1037 0042 4D4A     		ldr	r2, .L63+16
 1038 0044 D7F8F031 		ldr	r3, [r7, #496]
 1039 0048 1344     		add	r3, r3, r2
 1040 004a 1978     		ldrb	r1, [r3]	@ zero_extendqisi2
 1041 004c 07F1C002 		add	r2, r7, #192
 1042 0050 D7F8F031 		ldr	r3, [r7, #496]
ARM GAS  C:\Users\jniej\AppData\Local\Temp\ccMn1EjJ.s 			page 25


 1043 0054 1344     		add	r3, r3, r2
 1044 0056 0A46     		mov	r2, r1
 1045 0058 1A70     		strb	r2, [r3]
 234:water_quality.c ****             excerpt[i] = wq_received_string[i];  
 1046              		.loc 1 234 0 discriminator 3
 1047 005a D7F8F031 		ldr	r3, [r7, #496]
 1048 005e 0133     		adds	r3, r3, #1
 1049 0060 C7F8F031 		str	r3, [r7, #496]
 1050              	.L48:
 234:water_quality.c ****             excerpt[i] = wq_received_string[i];  
 1051              		.loc 1 234 0 is_stmt 0 discriminator 1
 1052 0064 D7F8F031 		ldr	r3, [r7, #496]
 1053 0068 B3F5967F 		cmp	r3, #300
 1054 006c E9D3     		bcc	.L49
 1055              	.LBE10:
 236:water_quality.c ****         }
 237:water_quality.c ****         
 238:water_quality.c ****         // we did it in less than two tries so it's converging quickly as expected
 239:water_quality.c ****         // send calibration command and return 1 indicating success
 240:water_quality.c ****         if (range <= (0.05*readings.do_reading)){
 1056              		.loc 1 240 0 is_stmt 1
 1057 006e D7F8EC01 		ldr	r0, [r7, #492]	@ float
 1058 0072 FFF7FEFF 		bl	__aeabi_f2d
 1059 0076 0446     		mov	r4, r0
 1060 0078 0D46     		mov	r5, r1
 1061 007a 3B46     		mov	r3, r7
 1062 007c DB6A     		ldr	r3, [r3, #44]	@ float
 1063 007e 1846     		mov	r0, r3
 1064 0080 FFF7FEFF 		bl	__aeabi_f2d
 1065 0084 38A3     		adr	r3, .L63
 1066 0086 D3E90023 		ldrd	r2, [r3]
 1067 008a FFF7FEFF 		bl	__aeabi_dmul
 1068 008e 0246     		mov	r2, r0
 1069 0090 0B46     		mov	r3, r1
 1070 0092 2046     		mov	r0, r4
 1071 0094 2946     		mov	r1, r5
 1072 0096 FFF7FEFF 		bl	__aeabi_dcmple
 1073 009a 0346     		mov	r3, r0
 1074 009c 002B     		cmp	r3, #0
 1075 009e 4FD0     		beq	.L62
 1076              	.LBB11:
 241:water_quality.c ****             
 242:water_quality.c ****             wq_start_talking();
 1077              		.loc 1 242 0
 1078 00a0 FFF7FEFF 		bl	wq_start_talking
 243:water_quality.c ****             /*
 244:water_quality.c ****             
 245:water_quality.c ****             //DO_UART_PutString("*OK,1\r"); // are you hearing me?
 246:water_quality.c ****             // 
 247:water_quality.c ****             //CyDelay(1000u); 
 248:water_quality.c ****             */
 249:water_quality.c ****             WQ_UART_PutString("C,0\r"); // turn off automated sampling
 1079              		.loc 1 249 0
 1080 00a4 3548     		ldr	r0, .L63+20
 1081 00a6 FFF7FEFF 		bl	WQ_UART_PutString
 250:water_quality.c ****             CyDelay(1000u); 
 1082              		.loc 1 250 0
ARM GAS  C:\Users\jniej\AppData\Local\Temp\ccMn1EjJ.s 			page 26


 1083 00aa 4FF47A70 		mov	r0, #1000
 1084 00ae FFF7FEFF 		bl	CyDelay
 251:water_quality.c ****             WQ_UART_PutString("Cal,clear\r"); // clear existing calibration data
 1085              		.loc 1 251 0
 1086 00b2 3348     		ldr	r0, .L63+24
 1087 00b4 FFF7FEFF 		bl	WQ_UART_PutString
 252:water_quality.c ****             CyDelay(1000u);
 1088              		.loc 1 252 0
 1089 00b8 4FF47A70 		mov	r0, #1000
 1090 00bc FFF7FEFF 		bl	CyDelay
 253:water_quality.c ****             WQ_UART_PutString("Cal\r"); // calibrate to atmospheric oxygen for DO sensor
 1091              		.loc 1 253 0
 1092 00c0 3048     		ldr	r0, .L63+28
 1093 00c2 FFF7FEFF 		bl	WQ_UART_PutString
 254:water_quality.c ****             
 255:water_quality.c ****             /*CyDelay(1000u); 
 256:water_quality.c ****             // "temp, salinity, and pressure compensation values have no effect on calibration"
 257:water_quality.c ****             DO_UART_PutString("T,?\r"); // compensated temp value?
 258:water_quality.c ****             CyDelay(1000u); 
 259:water_quality.c ****             //DO_UART_PutString("T,20\r"); // for some reason temp was set to 0 C
 260:water_quality.c ****             //CyDelay(1000u); 
 261:water_quality.c ****             //DO_UART_PutString("T,?\r"); // compensated temp value?
 262:water_quality.c ****             //CyDelay(1000u); 
 263:water_quality.c ****             DO_UART_PutString("S,?\r"); // salinity?
 264:water_quality.c ****             CyDelay(1000u); 
 265:water_quality.c ****             DO_UART_PutString("P,?\r"); // pressure?
 266:water_quality.c ****             */
 267:water_quality.c ****             CyDelay(2000u); 
 1094              		.loc 1 267 0
 1095 00c6 4FF4FA60 		mov	r0, #2000
 1096 00ca FFF7FEFF 		bl	CyDelay
 268:water_quality.c ****             wq_stop_talking();
 1097              		.loc 1 268 0
 1098 00ce FFF7FEFF 		bl	wq_stop_talking
 269:water_quality.c ****             // "After calibration is complete, you should see readings between 9.09 - 9.2 mg/l
 270:water_quality.c ****             // if temperature, salinity, and pressure compensation are at default values"
 271:water_quality.c ****             
 272:water_quality.c **** 
 273:water_quality.c ****             
 274:water_quality.c ****             CyDelay(1000u);
 1099              		.loc 1 274 0
 1100 00d2 4FF47A70 		mov	r0, #1000
 1101 00d6 FFF7FEFF 		bl	CyDelay
 275:water_quality.c ****             wq_sensors_t calibrated = wq_take_reading();
 1102              		.loc 1 275 0
 1103 00da 07F16003 		add	r3, r7, #96
 1104 00de 1846     		mov	r0, r3
 1105 00e0 FFF7FEFF 		bl	wq_take_reading
 276:water_quality.c ****             //calibrated.all_do_readings;
 277:water_quality.c ****             if (calibrated.do_reading > 9.0 && calibrated.do_reading < 9.3){
 1106              		.loc 1 277 0
 1107 00e4 07F16003 		add	r3, r7, #96
 1108 00e8 DB6A     		ldr	r3, [r3, #44]	@ float
 1109 00ea 2749     		ldr	r1, .L63+32
 1110 00ec 1846     		mov	r0, r3
 1111 00ee FFF7FEFF 		bl	__aeabi_fcmpgt
 1112 00f2 0346     		mov	r3, r0
ARM GAS  C:\Users\jniej\AppData\Local\Temp\ccMn1EjJ.s 			page 27


 1113 00f4 002B     		cmp	r3, #0
 1114 00f6 13D0     		beq	.L52
 1115              		.loc 1 277 0 is_stmt 0 discriminator 1
 1116 00f8 07F16003 		add	r3, r7, #96
 1117 00fc DB6A     		ldr	r3, [r3, #44]	@ float
 1118 00fe 1846     		mov	r0, r3
 1119 0100 FFF7FEFF 		bl	__aeabi_f2d
 1120 0104 1AA3     		adr	r3, .L63+8
 1121 0106 D3E90023 		ldrd	r2, [r3]
 1122 010a FFF7FEFF 		bl	__aeabi_dcmplt
 1123 010e 0346     		mov	r3, r0
 1124 0110 002B     		cmp	r3, #0
 1125 0112 05D0     		beq	.L52
 278:water_quality.c ****                 printNotif(NOTIF_TYPE_EVENT, "Successfully calibrated DO sensor");
 1126              		.loc 1 278 0 is_stmt 1
 1127 0114 1D49     		ldr	r1, .L63+36
 1128 0116 0020     		movs	r0, #0
 1129 0118 FFF7FEFF 		bl	printNotif
 279:water_quality.c ****                 return 1;
 1130              		.loc 1 279 0
 1131 011c 0123     		movs	r3, #1
 1132 011e 1EE0     		b	.L58
 1133              	.L52:
 280:water_quality.c ****             }
 281:water_quality.c ****             // if we didn't get what we expected, let us know what we did get
 282:water_quality.c ****             printNotif(NOTIF_TYPE_ERROR, "calibrated DO reading: %f ::: Expected [9.0,9.3] mg/L", c
 1134              		.loc 1 282 0
 1135 0120 07F16003 		add	r3, r7, #96
 1136 0124 DB6A     		ldr	r3, [r3, #44]	@ float
 1137 0126 1846     		mov	r0, r3
 1138 0128 FFF7FEFF 		bl	__aeabi_f2d
 1139 012c 0346     		mov	r3, r0
 1140 012e 0C46     		mov	r4, r1
 1141 0130 1A46     		mov	r2, r3
 1142 0132 2346     		mov	r3, r4
 1143 0134 1649     		ldr	r1, .L63+40
 1144 0136 0220     		movs	r0, #2
 1145 0138 FFF7FEFF 		bl	printNotif
 283:water_quality.c ****             return 0;
 1146              		.loc 1 283 0
 1147 013c 0023     		movs	r3, #0
 1148 013e 0EE0     		b	.L58
 1149              	.L62:
 1150              	.LBE11:
 1151              	.LBE9:
 227:water_quality.c ****         wq_sensors_t readings = wq_take_reading();
 1152              		.loc 1 227 0
 1153 0140 D7F8F431 		ldr	r3, [r7, #500]
 1154 0144 0133     		adds	r3, r3, #1
 1155 0146 C7F8F431 		str	r3, [r7, #500]
 1156              	.L47:
 227:water_quality.c ****         wq_sensors_t readings = wq_take_reading();
 1157              		.loc 1 227 0 is_stmt 0 discriminator 1
 1158 014a D7F8F431 		ldr	r3, [r7, #500]
 1159 014e 012B     		cmp	r3, #1
 1160 0150 7FF75FAF 		ble	.L57
 1161              	.LBE8:
ARM GAS  C:\Users\jniej\AppData\Local\Temp\ccMn1EjJ.s 			page 28


 284:water_quality.c ****             
 285:water_quality.c ****         }
 286:water_quality.c ****     
 287:water_quality.c ****     }
 288:water_quality.c **** 
 289:water_quality.c ****     printNotif(NOTIF_TYPE_ERROR, "DO readings failed to converge");
 1162              		.loc 1 289 0 is_stmt 1
 1163 0154 0F49     		ldr	r1, .L63+44
 1164 0156 0220     		movs	r0, #2
 1165 0158 FFF7FEFF 		bl	printNotif
 290:water_quality.c ****     return 0;   
 1166              		.loc 1 290 0
 1167 015c 0023     		movs	r3, #0
 1168              	.L58:
 291:water_quality.c **** }
 1169              		.loc 1 291 0 discriminator 3
 1170 015e 1846     		mov	r0, r3
 1171 0160 07F5FC77 		add	r7, r7, #504
 1172              		.cfi_def_cfa_offset 16
 1173 0164 BD46     		mov	sp, r7
 1174              		.cfi_def_cfa_register 13
 1175              		@ sp needed
 1176 0166 B0BD     		pop	{r4, r5, r7, pc}
 1177              	.L64:
 1178              		.align	3
 1179              	.L63:
 1180 0168 9A999999 		.word	-1717986918
 1181 016c 9999A93F 		.word	1068079513
 1182 0170 9A999999 		.word	-1717986918
 1183 0174 99992240 		.word	1076009369
 1184 0178 00000000 		.word	wq_received_string
 1185 017c 00000000 		.word	.LC0
 1186 0180 74010000 		.word	.LC10
 1187 0184 80010000 		.word	.LC11
 1188 0188 00001041 		.word	1091567616
 1189 018c 88010000 		.word	.LC12
 1190 0190 AC010000 		.word	.LC13
 1191 0194 E4010000 		.word	.LC14
 1192              		.cfi_endproc
 1193              	.LFE70:
 1194              		.size	wq_cal, .-wq_cal
 1195              		.global	__aeabi_fadd
 1196              		.global	__aeabi_fdiv
 1197              		.section	.text.float_find_median,"ax",%progbits
 1198              		.align	2
 1199              		.global	float_find_median
 1200              		.thumb
 1201              		.thumb_func
 1202              		.type	float_find_median, %function
 1203              	float_find_median:
 1204              	.LFB71:
 292:water_quality.c **** 
 293:water_quality.c **** 
 294:water_quality.c **** // code for finding medians "duplicated" from level_sensor because we need *floats* not *longs*
 295:water_quality.c **** 
 296:water_quality.c **** 
 297:water_quality.c **** // function to calculate the median of the array, after array is sorted
ARM GAS  C:\Users\jniej\AppData\Local\Temp\ccMn1EjJ.s 			page 29


 298:water_quality.c **** float32 float_find_median(float32 array[] , uint8 n){
 1205              		.loc 1 298 0
 1206              		.cfi_startproc
 1207              		@ args = 0, pretend = 0, frame = 16
 1208              		@ frame_needed = 1, uses_anonymous_args = 0
 1209 0000 80B5     		push	{r7, lr}
 1210              		.cfi_def_cfa_offset 8
 1211              		.cfi_offset 7, -8
 1212              		.cfi_offset 14, -4
 1213 0002 84B0     		sub	sp, sp, #16
 1214              		.cfi_def_cfa_offset 24
 1215 0004 00AF     		add	r7, sp, #0
 1216              		.cfi_def_cfa_register 7
 1217 0006 7860     		str	r0, [r7, #4]
 1218 0008 0B46     		mov	r3, r1
 1219 000a FB70     		strb	r3, [r7, #3]
 299:water_quality.c ****     float32 median=0;
 1220              		.loc 1 299 0
 1221 000c 4FF00003 		mov	r3, #0
 1222 0010 FB60     		str	r3, [r7, #12]	@ float
 300:water_quality.c ****     fsort(array,n);
 1223              		.loc 1 300 0
 1224 0012 FB78     		ldrb	r3, [r7, #3]	@ zero_extendqisi2
 1225 0014 1946     		mov	r1, r3
 1226 0016 7868     		ldr	r0, [r7, #4]
 1227 0018 FFF7FEFF 		bl	fsort
 301:water_quality.c ****     
 302:water_quality.c ****     // if number of elements are even
 303:water_quality.c ****     if(n%2 == 0)
 1228              		.loc 1 303 0
 1229 001c FB78     		ldrb	r3, [r7, #3]
 1230 001e 03F00103 		and	r3, r3, #1
 1231 0022 DBB2     		uxtb	r3, r3
 1232 0024 002B     		cmp	r3, #0
 1233 0026 1BD1     		bne	.L66
 304:water_quality.c ****         // median is the average of the  two middle sorted numbers
 305:water_quality.c ****         median = (array[(n-1)/2] + array[n/2])/2.0;
 1234              		.loc 1 305 0
 1235 0028 FB78     		ldrb	r3, [r7, #3]	@ zero_extendqisi2
 1236 002a 013B     		subs	r3, r3, #1
 1237 002c DA0F     		lsrs	r2, r3, #31
 1238 002e 1344     		add	r3, r3, r2
 1239 0030 5B10     		asrs	r3, r3, #1
 1240 0032 9B00     		lsls	r3, r3, #2
 1241 0034 7A68     		ldr	r2, [r7, #4]
 1242 0036 1344     		add	r3, r3, r2
 1243 0038 1868     		ldr	r0, [r3]	@ float
 1244 003a FB78     		ldrb	r3, [r7, #3]	@ zero_extendqisi2
 1245 003c 5B08     		lsrs	r3, r3, #1
 1246 003e DBB2     		uxtb	r3, r3
 1247 0040 9B00     		lsls	r3, r3, #2
 1248 0042 7A68     		ldr	r2, [r7, #4]
 1249 0044 1344     		add	r3, r3, r2
 1250 0046 1B68     		ldr	r3, [r3]	@ float
 1251 0048 1946     		mov	r1, r3
 1252 004a FFF7FEFF 		bl	__aeabi_fadd
 1253 004e 0346     		mov	r3, r0
ARM GAS  C:\Users\jniej\AppData\Local\Temp\ccMn1EjJ.s 			page 30


 1254 0050 4FF08041 		mov	r1, #1073741824
 1255 0054 1846     		mov	r0, r3
 1256 0056 FFF7FEFF 		bl	__aeabi_fdiv
 1257 005a 0346     		mov	r3, r0
 1258 005c FB60     		str	r3, [r7, #12]	@ float
 1259 005e 07E0     		b	.L67
 1260              	.L66:
 306:water_quality.c ****     // if number of elements are odd
 307:water_quality.c ****     else
 308:water_quality.c ****         // median is the the middle sorted number 
 309:water_quality.c ****         median = array[n/2];
 1261              		.loc 1 309 0
 1262 0060 FB78     		ldrb	r3, [r7, #3]	@ zero_extendqisi2
 1263 0062 5B08     		lsrs	r3, r3, #1
 1264 0064 DBB2     		uxtb	r3, r3
 1265 0066 9B00     		lsls	r3, r3, #2
 1266 0068 7A68     		ldr	r2, [r7, #4]
 1267 006a 1344     		add	r3, r3, r2
 1268 006c 1B68     		ldr	r3, [r3]	@ float
 1269 006e FB60     		str	r3, [r7, #12]	@ float
 1270              	.L67:
 310:water_quality.c ****     
 311:water_quality.c ****     return median;
 1271              		.loc 1 311 0
 1272 0070 FB68     		ldr	r3, [r7, #12]	@ float
 312:water_quality.c **** }
 1273              		.loc 1 312 0
 1274 0072 1846     		mov	r0, r3
 1275 0074 1037     		adds	r7, r7, #16
 1276              		.cfi_def_cfa_offset 8
 1277 0076 BD46     		mov	sp, r7
 1278              		.cfi_def_cfa_register 13
 1279              		@ sp needed
 1280 0078 80BD     		pop	{r7, pc}
 1281              		.cfi_endproc
 1282              	.LFE71:
 1283              		.size	float_find_median, .-float_find_median
 1284 007a 00BF     		.section	.text.fsort,"ax",%progbits
 1285              		.align	2
 1286              		.global	fsort
 1287              		.thumb
 1288              		.thumb_func
 1289              		.type	fsort, %function
 1290              	fsort:
 1291              	.LFB72:
 313:water_quality.c **** 
 314:water_quality.c **** // function to sort the elements in the level readings array
 315:water_quality.c **** void fsort(float32 a[],uint8 n) { 
 1292              		.loc 1 315 0
 1293              		.cfi_startproc
 1294              		@ args = 0, pretend = 0, frame = 16
 1295              		@ frame_needed = 1, uses_anonymous_args = 0
 1296 0000 80B5     		push	{r7, lr}
 1297              		.cfi_def_cfa_offset 8
 1298              		.cfi_offset 7, -8
 1299              		.cfi_offset 14, -4
 1300 0002 84B0     		sub	sp, sp, #16
ARM GAS  C:\Users\jniej\AppData\Local\Temp\ccMn1EjJ.s 			page 31


 1301              		.cfi_def_cfa_offset 24
 1302 0004 00AF     		add	r7, sp, #0
 1303              		.cfi_def_cfa_register 7
 1304 0006 7860     		str	r0, [r7, #4]
 1305 0008 0B46     		mov	r3, r1
 1306 000a FB70     		strb	r3, [r7, #3]
 316:water_quality.c ****    uint8 i,j;
 317:water_quality.c **** 
 318:water_quality.c ****    for(i = 0;i < n-1;i++) {
 1307              		.loc 1 318 0
 1308 000c 0023     		movs	r3, #0
 1309 000e FB73     		strb	r3, [r7, #15]
 1310 0010 2CE0     		b	.L70
 1311              	.L75:
 319:water_quality.c ****       for(j = 0;j < n-i-1;j++) {
 1312              		.loc 1 319 0
 1313 0012 0023     		movs	r3, #0
 1314 0014 BB73     		strb	r3, [r7, #14]
 1315 0016 1FE0     		b	.L71
 1316              	.L74:
 320:water_quality.c ****          if(a[j] > a[j+1])
 1317              		.loc 1 320 0
 1318 0018 BB7B     		ldrb	r3, [r7, #14]	@ zero_extendqisi2
 1319 001a 9B00     		lsls	r3, r3, #2
 1320 001c 7A68     		ldr	r2, [r7, #4]
 1321 001e 1344     		add	r3, r3, r2
 1322 0020 1868     		ldr	r0, [r3]	@ float
 1323 0022 BB7B     		ldrb	r3, [r7, #14]	@ zero_extendqisi2
 1324 0024 0133     		adds	r3, r3, #1
 1325 0026 9B00     		lsls	r3, r3, #2
 1326 0028 7A68     		ldr	r2, [r7, #4]
 1327 002a 1344     		add	r3, r3, r2
 1328 002c 1B68     		ldr	r3, [r3]	@ float
 1329 002e 1946     		mov	r1, r3
 1330 0030 FFF7FEFF 		bl	__aeabi_fcmpgt
 1331 0034 0346     		mov	r3, r0
 1332 0036 002B     		cmp	r3, #0
 1333 0038 0BD0     		beq	.L72
 321:water_quality.c ****             fswap(&a[j],&a[j+1]); // swap the address of a[j] and a[j+1]
 1334              		.loc 1 321 0
 1335 003a BB7B     		ldrb	r3, [r7, #14]	@ zero_extendqisi2
 1336 003c 9B00     		lsls	r3, r3, #2
 1337 003e 7A68     		ldr	r2, [r7, #4]
 1338 0040 D018     		adds	r0, r2, r3
 1339 0042 BB7B     		ldrb	r3, [r7, #14]	@ zero_extendqisi2
 1340 0044 0133     		adds	r3, r3, #1
 1341 0046 9B00     		lsls	r3, r3, #2
 1342 0048 7A68     		ldr	r2, [r7, #4]
 1343 004a 1344     		add	r3, r3, r2
 1344 004c 1946     		mov	r1, r3
 1345 004e FFF7FEFF 		bl	fswap
 1346              	.L72:
 319:water_quality.c ****       for(j = 0;j < n-i-1;j++) {
 1347              		.loc 1 319 0 discriminator 2
 1348 0052 BB7B     		ldrb	r3, [r7, #14]	@ zero_extendqisi2
 1349 0054 0133     		adds	r3, r3, #1
 1350 0056 BB73     		strb	r3, [r7, #14]
ARM GAS  C:\Users\jniej\AppData\Local\Temp\ccMn1EjJ.s 			page 32


 1351              	.L71:
 319:water_quality.c ****       for(j = 0;j < n-i-1;j++) {
 1352              		.loc 1 319 0 is_stmt 0 discriminator 1
 1353 0058 BA7B     		ldrb	r2, [r7, #14]	@ zero_extendqisi2
 1354 005a F978     		ldrb	r1, [r7, #3]	@ zero_extendqisi2
 1355 005c FB7B     		ldrb	r3, [r7, #15]	@ zero_extendqisi2
 1356 005e CB1A     		subs	r3, r1, r3
 1357 0060 013B     		subs	r3, r3, #1
 1358 0062 9A42     		cmp	r2, r3
 1359 0064 D8DB     		blt	.L74
 318:water_quality.c ****       for(j = 0;j < n-i-1;j++) {
 1360              		.loc 1 318 0 is_stmt 1 discriminator 2
 1361 0066 FB7B     		ldrb	r3, [r7, #15]	@ zero_extendqisi2
 1362 0068 0133     		adds	r3, r3, #1
 1363 006a FB73     		strb	r3, [r7, #15]
 1364              	.L70:
 318:water_quality.c ****       for(j = 0;j < n-i-1;j++) {
 1365              		.loc 1 318 0 is_stmt 0 discriminator 1
 1366 006c FA7B     		ldrb	r2, [r7, #15]	@ zero_extendqisi2
 1367 006e FB78     		ldrb	r3, [r7, #3]	@ zero_extendqisi2
 1368 0070 013B     		subs	r3, r3, #1
 1369 0072 9A42     		cmp	r2, r3
 1370 0074 CDDB     		blt	.L75
 322:water_quality.c ****       }
 323:water_quality.c ****    }
 324:water_quality.c **** }
 1371              		.loc 1 324 0 is_stmt 1
 1372 0076 00BF     		nop
 1373 0078 1037     		adds	r7, r7, #16
 1374              		.cfi_def_cfa_offset 8
 1375 007a BD46     		mov	sp, r7
 1376              		.cfi_def_cfa_register 13
 1377              		@ sp needed
 1378 007c 80BD     		pop	{r7, pc}
 1379              		.cfi_endproc
 1380              	.LFE72:
 1381              		.size	fsort, .-fsort
 1382 007e 00BF     		.section	.text.fswap,"ax",%progbits
 1383              		.align	2
 1384              		.global	fswap
 1385              		.thumb
 1386              		.thumb_func
 1387              		.type	fswap, %function
 1388              	fswap:
 1389              	.LFB73:
 325:water_quality.c **** 
 326:water_quality.c **** // function to swap elements in the level readings array in order to sort them
 327:water_quality.c **** void fswap(float32 *p,float32 *q) {
 1390              		.loc 1 327 0
 1391              		.cfi_startproc
 1392              		@ args = 0, pretend = 0, frame = 16
 1393              		@ frame_needed = 1, uses_anonymous_args = 0
 1394              		@ link register save eliminated.
 1395 0000 80B4     		push	{r7}
 1396              		.cfi_def_cfa_offset 4
 1397              		.cfi_offset 7, -4
 1398 0002 85B0     		sub	sp, sp, #20
ARM GAS  C:\Users\jniej\AppData\Local\Temp\ccMn1EjJ.s 			page 33


 1399              		.cfi_def_cfa_offset 24
 1400 0004 00AF     		add	r7, sp, #0
 1401              		.cfi_def_cfa_register 7
 1402 0006 7860     		str	r0, [r7, #4]
 1403 0008 3960     		str	r1, [r7]
 328:water_quality.c ****    float32 t;
 329:water_quality.c ****    
 330:water_quality.c ****    t=*p; 
 1404              		.loc 1 330 0
 1405 000a 7B68     		ldr	r3, [r7, #4]
 1406 000c 1B68     		ldr	r3, [r3]	@ float
 1407 000e FB60     		str	r3, [r7, #12]	@ float
 331:water_quality.c ****    *p=*q; 
 1408              		.loc 1 331 0
 1409 0010 3B68     		ldr	r3, [r7]
 1410 0012 1A68     		ldr	r2, [r3]	@ float
 1411 0014 7B68     		ldr	r3, [r7, #4]
 1412 0016 1A60     		str	r2, [r3]	@ float
 332:water_quality.c ****    *q=t;
 1413              		.loc 1 332 0
 1414 0018 3B68     		ldr	r3, [r7]
 1415 001a FA68     		ldr	r2, [r7, #12]	@ float
 1416 001c 1A60     		str	r2, [r3]	@ float
 333:water_quality.c **** }
 1417              		.loc 1 333 0
 1418 001e 00BF     		nop
 1419 0020 1437     		adds	r7, r7, #20
 1420              		.cfi_def_cfa_offset 4
 1421 0022 BD46     		mov	sp, r7
 1422              		.cfi_def_cfa_register 13
 1423              		@ sp needed
 1424 0024 80BC     		pop	{r7}
 1425              		.cfi_restore 7
 1426              		.cfi_def_cfa_offset 0
 1427 0026 7047     		bx	lr
 1428              		.cfi_endproc
 1429              	.LFE73:
 1430              		.size	fswap, .-fswap
 1431              		.text
 1432              	.Letext0:
 1433              		.file 2 "c:\\program files (x86)\\cypress\\psoc creator\\4.4\\psoc creator\\import\\gnu\\arm\\5.4.
 1434              		.file 3 "c:\\program files (x86)\\cypress\\psoc creator\\4.4\\psoc creator\\import\\gnu\\arm\\5.4.
 1435              		.file 4 "Generated_Source\\PSoC5/cytypes.h"
 1436              		.file 5 "c:\\program files (x86)\\cypress\\psoc creator\\4.4\\psoc creator\\import\\gnu\\arm\\5.4.
 1437              		.file 6 "testing.h"
 1438              		.file 7 "data.h"
 1439              		.file 8 "modem.h"
 1440              		.file 9 "water_quality.h"
 1441              		.file 10 "notoriOS.h"
 1442              		.file 11 "Generated_Source\\PSoC5/core_cm3.h"