ARM GAS  C:\Users\klabu\AppData\Local\Temp\ccPR0mEi.s 			page 1


   1              		.syntax unified
   2              		.cpu cortex-m3
   3              		.fpu softvfp
   4              		.eabi_attribute 20, 1
   5              		.eabi_attribute 21, 1
   6              		.eabi_attribute 23, 3
   7              		.eabi_attribute 24, 1
   8              		.eabi_attribute 25, 1
   9              		.eabi_attribute 26, 1
  10              		.eabi_attribute 30, 6
  11              		.eabi_attribute 34, 1
  12              		.eabi_attribute 18, 4
  13              		.thumb
  14              		.syntax unified
  15              		.file	"water_quality.c"
  16              		.text
  17              	.Ltext0:
  18              		.cfi_sections	.debug_frame
  19              		.comm	buffer_overflow,1,1
  20              		.comm	dataPointsInStack,2,2
  21              		.comm	dataPointsInStackDesired,2,2
  22              		.comm	data,6600,4
  23              		.comm	modem_state,1,1
  24              		.comm	modem_start_time_stamp,4,4
  25              		.comm	modem_info,60,4
  26              		.comm	modem_stats,32,4
  27              		.comm	updatable_parameters,5,4
  28              		.syntax unified
  29              		.global _printf_float
  30              		.thumb
  31              		.syntax unified
  32              		.comm	http_request,10000,4
  33              		.comm	http_body,10000,4
  34              		.comm	http_route,200,4
  35              		.comm	system_info,28,4
  36              		.comm	system_settings,104,4
  37              		.comm	alarmMeasure,6,4
  38              		.comm	timeToMeasure,1,1
  39              		.comm	alarmSync,6,4
  40              		.comm	timeToSync,1,1
  41              		.comm	timeToSycnRemoteParams,1,1
  42              		.comm	hey,1,1
  43              		.comm	wq_received_string,1024,4
  44              		.global	wq_string_index
  45              		.bss
  46              		.align	1
  47              		.type	wq_string_index, %object
  48              		.size	wq_string_index, 2
  49              	wq_string_index:
  50 0000 0000     		.space	2
  51              		.section	.text.WQ_ISR,"ax",%progbits
  52              		.align	2
  53              		.global	WQ_ISR
  54              		.thumb
  55              		.thumb_func
  56              		.type	WQ_ISR, %function
  57              	WQ_ISR:
ARM GAS  C:\Users\klabu\AppData\Local\Temp\ccPR0mEi.s 			page 2


  58              	.LFB64:
  59              		.file 1 "water_quality.c"
   1:water_quality.c **** #include "notoriOS.h"
   2:water_quality.c **** //#include "water_quality.h"
   3:water_quality.c **** 
   4:water_quality.c **** char wq_received_string[1024];
   5:water_quality.c **** int16 wq_string_index = 0;
   6:water_quality.c **** 
   7:water_quality.c **** CY_ISR_PROTO(WQ_ISR); // Declares a custom ISR function "isr_telit_rx" using the CY_ISR_PROTO macro
   8:water_quality.c **** 
   9:water_quality.c **** // Define the custom ISR function "isr_telit_rx" using the CY_ISR macro
  10:water_quality.c **** // Get each character from Telit and saves it to uart_received_string
  11:water_quality.c **** CY_ISR(WQ_ISR){      
  60              		.loc 1 11 0
  61              		.cfi_startproc
  62              		@ args = 0, pretend = 0, frame = 0
  63              		@ frame_needed = 1, uses_anonymous_args = 0
  64 0000 98B5     		push	{r3, r4, r7, lr}
  65              		.cfi_def_cfa_offset 16
  66              		.cfi_offset 3, -16
  67              		.cfi_offset 4, -12
  68              		.cfi_offset 7, -8
  69              		.cfi_offset 14, -4
  70 0002 00AF     		add	r7, sp, #0
  71              		.cfi_def_cfa_register 7
  12:water_quality.c ****     // UART_Telit_GetRxBufferSize() returns the number of received bytes available in the RX buffer
  13:water_quality.c **** 
  14:water_quality.c ****     while(WQ_UART_GetRxBufferSize()== 1){
  72              		.loc 1 14 0
  73 0004 12E0     		b	.L2
  74              	.L3:
  15:water_quality.c ****         //char rx = DO_UART_GetChar();
  16:water_quality.c ****         wq_received_string[wq_string_index] = WQ_UART_GetChar();
  75              		.loc 1 16 0
  76 0006 0D4B     		ldr	r3, .L4
  77 0008 B3F90030 		ldrsh	r3, [r3]
  78 000c 1C46     		mov	r4, r3
  79 000e FFF7FEFF 		bl	WQ_UART_GetChar
  80 0012 0346     		mov	r3, r0
  81 0014 1A46     		mov	r2, r3
  82 0016 0A4B     		ldr	r3, .L4+4
  83 0018 1A55     		strb	r2, [r3, r4]
  17:water_quality.c ****         //printNotif(NOTIF_TYPE_EVENT, "received char: %c", rx);
  18:water_quality.c ****         wq_string_index ++;
  84              		.loc 1 18 0
  85 001a 084B     		ldr	r3, .L4
  86 001c B3F90030 		ldrsh	r3, [r3]
  87 0020 9BB2     		uxth	r3, r3
  88 0022 0133     		adds	r3, r3, #1
  89 0024 9BB2     		uxth	r3, r3
  90 0026 1AB2     		sxth	r2, r3
  91 0028 044B     		ldr	r3, .L4
  92 002a 1A80     		strh	r2, [r3]	@ movhi
  93              	.L2:
  14:water_quality.c ****         //char rx = DO_UART_GetChar();
  94              		.loc 1 14 0
  95 002c FFF7FEFF 		bl	WQ_UART_GetRxBufferSize
ARM GAS  C:\Users\klabu\AppData\Local\Temp\ccPR0mEi.s 			page 3


  96 0030 0346     		mov	r3, r0
  97 0032 012B     		cmp	r3, #1
  98 0034 E7D0     		beq	.L3
  19:water_quality.c ****     }
  20:water_quality.c **** 
  21:water_quality.c **** }
  99              		.loc 1 21 0
 100 0036 00BF     		nop
 101 0038 98BD     		pop	{r3, r4, r7, pc}
 102              	.L5:
 103 003a 00BF     		.align	2
 104              	.L4:
 105 003c 00000000 		.word	wq_string_index
 106 0040 00000000 		.word	wq_received_string
 107              		.cfi_endproc
 108              	.LFE64:
 109              		.size	WQ_ISR, .-WQ_ISR
 110              		.section	.text.wq_uart_clear,"ax",%progbits
 111              		.align	2
 112              		.global	wq_uart_clear
 113              		.thumb
 114              		.thumb_func
 115              		.type	wq_uart_clear, %function
 116              	wq_uart_clear:
 117              	.LFB65:
  22:water_quality.c **** 
  23:water_quality.c **** // Clears the sensor data 
  24:water_quality.c **** void wq_uart_clear(void) {
 118              		.loc 1 24 0
 119              		.cfi_startproc
 120              		@ args = 0, pretend = 0, frame = 0
 121              		@ frame_needed = 1, uses_anonymous_args = 0
 122 0000 80B5     		push	{r7, lr}
 123              		.cfi_def_cfa_offset 8
 124              		.cfi_offset 7, -8
 125              		.cfi_offset 14, -4
 126 0002 00AF     		add	r7, sp, #0
 127              		.cfi_def_cfa_register 7
  25:water_quality.c ****   // UART_ClearRxBuffer(): Clears the receiver memory buffer and hardware RX FIFO of all received d
  26:water_quality.c ****   WQ_UART_ClearRxBuffer();
 128              		.loc 1 26 0
 129 0004 FFF7FEFF 		bl	WQ_UART_ClearRxBuffer
  27:water_quality.c ****   // void *memset(void *str, int c, size_t n) where str is a pointer to the block of memory to fill
  28:water_quality.c ****   // The value is passed as an int, but the function fills the block of memory using the unsigned c
  29:water_quality.c ****   // n is the number of bytes to be set to the value.
  30:water_quality.c ****   memset((void*)wq_received_string, 0, 1023);
 130              		.loc 1 30 0
 131 0008 40F2FF32 		movw	r2, #1023
 132 000c 0021     		movs	r1, #0
 133 000e 0448     		ldr	r0, .L7
 134 0010 FFF7FEFF 		bl	memset
  31:water_quality.c ****   wq_string_index = 0;
 135              		.loc 1 31 0
 136 0014 034B     		ldr	r3, .L7+4
 137 0016 0022     		movs	r2, #0
 138 0018 1A80     		strh	r2, [r3]	@ movhi
  32:water_quality.c **** 
ARM GAS  C:\Users\klabu\AppData\Local\Temp\ccPR0mEi.s 			page 4


  33:water_quality.c **** }
 139              		.loc 1 33 0
 140 001a 00BF     		nop
 141 001c 80BD     		pop	{r7, pc}
 142              	.L8:
 143 001e 00BF     		.align	2
 144              	.L7:
 145 0020 00000000 		.word	wq_received_string
 146 0024 00000000 		.word	wq_string_index
 147              		.cfi_endproc
 148              	.LFE65:
 149              		.size	wq_uart_clear, .-wq_uart_clear
 150              		.section	.text.wq_start_talking,"ax",%progbits
 151              		.align	2
 152              		.global	wq_start_talking
 153              		.thumb
 154              		.thumb_func
 155              		.type	wq_start_talking, %function
 156              	wq_start_talking:
 157              	.LFB66:
  34:water_quality.c **** 
  35:water_quality.c **** // get everything ready to communicate
  36:water_quality.c **** void wq_start_talking(){
 158              		.loc 1 36 0
 159              		.cfi_startproc
 160              		@ args = 0, pretend = 0, frame = 0
 161              		@ frame_needed = 1, uses_anonymous_args = 0
 162 0000 80B5     		push	{r7, lr}
 163              		.cfi_def_cfa_offset 8
 164              		.cfi_offset 7, -8
 165              		.cfi_offset 14, -4
 166 0002 00AF     		add	r7, sp, #0
 167              		.cfi_def_cfa_register 7
  37:water_quality.c ****     WQ_UART_Start();
 168              		.loc 1 37 0
 169 0004 FFF7FEFF 		bl	WQ_UART_Start
  38:water_quality.c ****     
  39:water_quality.c ****     // sensor specific calls
  40:water_quality.c ****     DO_RX_SetDriveMode(PIN_DM_DIG_HIZ); // RX_SetDriveMode(): Sets the drive mode for each of the P
 170              		.loc 1 40 0
 171 0008 0220     		movs	r0, #2
 172 000a FFF7FEFF 		bl	DO_RX_SetDriveMode
  41:water_quality.c ****     TEMP_RX_SetDriveMode(PIN_DM_DIG_HIZ); // RX_SetDriveMode(): Sets the drive mode for each of the
 173              		.loc 1 41 0
 174 000e 0220     		movs	r0, #2
 175 0010 FFF7FEFF 		bl	TEMP_RX_SetDriveMode
  42:water_quality.c ****     
  43:water_quality.c ****     WQ_UART_ClearRxBuffer();
 176              		.loc 1 43 0
 177 0014 FFF7FEFF 		bl	WQ_UART_ClearRxBuffer
  44:water_quality.c ****     WQ_ISR_StartEx(WQ_ISR);
 178              		.loc 1 44 0
 179 0018 0548     		ldr	r0, .L10
 180 001a FFF7FEFF 		bl	WQ_ISR_StartEx
  45:water_quality.c ****     Power_VDD1_Write(ON); // Pulls pwr pin high (turns it on).
 181              		.loc 1 45 0
 182 001e 0120     		movs	r0, #1
ARM GAS  C:\Users\klabu\AppData\Local\Temp\ccPR0mEi.s 			page 5


 183 0020 FFF7FEFF 		bl	Power_VDD1_Write
  46:water_quality.c ****     CyDelay(1000u); // reset sequence
 184              		.loc 1 46 0
 185 0024 4FF47A70 		mov	r0, #1000
 186 0028 FFF7FEFF 		bl	CyDelay
  47:water_quality.c **** 
  48:water_quality.c **** }
 187              		.loc 1 48 0
 188 002c 00BF     		nop
 189 002e 80BD     		pop	{r7, pc}
 190              	.L11:
 191              		.align	2
 192              	.L10:
 193 0030 00000000 		.word	WQ_ISR
 194              		.cfi_endproc
 195              	.LFE66:
 196              		.size	wq_start_talking, .-wq_start_talking
 197              		.section	.text.wq_stop_talking,"ax",%progbits
 198              		.align	2
 199              		.global	wq_stop_talking
 200              		.thumb
 201              		.thumb_func
 202              		.type	wq_stop_talking, %function
 203              	wq_stop_talking:
 204              	.LFB67:
  49:water_quality.c **** 
  50:water_quality.c **** // pull everything low to stop power leaks
  51:water_quality.c **** void wq_stop_talking(){
 205              		.loc 1 51 0
 206              		.cfi_startproc
 207              		@ args = 0, pretend = 0, frame = 0
 208              		@ frame_needed = 1, uses_anonymous_args = 0
 209 0000 80B5     		push	{r7, lr}
 210              		.cfi_def_cfa_offset 8
 211              		.cfi_offset 7, -8
 212              		.cfi_offset 14, -4
 213 0002 00AF     		add	r7, sp, #0
 214              		.cfi_def_cfa_register 7
  52:water_quality.c **** 
  53:water_quality.c ****     Power_VDD1_Write(OFF);
 215              		.loc 1 53 0
 216 0004 0020     		movs	r0, #0
 217 0006 FFF7FEFF 		bl	Power_VDD1_Write
  54:water_quality.c ****     WQ_UART_Stop();
 218              		.loc 1 54 0
 219 000a FFF7FEFF 		bl	WQ_UART_Stop
  55:water_quality.c ****     
  56:water_quality.c ****     // sensor specific calls
  57:water_quality.c ****     DO_RX_SetDriveMode(PIN_DM_STRONG); // to die
 220              		.loc 1 57 0
 221 000e 0C20     		movs	r0, #12
 222 0010 FFF7FEFF 		bl	DO_RX_SetDriveMode
  58:water_quality.c ****     TEMP_RX_SetDriveMode(PIN_DM_STRONG); // to die
 223              		.loc 1 58 0
 224 0014 0C20     		movs	r0, #12
 225 0016 FFF7FEFF 		bl	TEMP_RX_SetDriveMode
  59:water_quality.c ****     DO_RX_Write(OFF);
ARM GAS  C:\Users\klabu\AppData\Local\Temp\ccPR0mEi.s 			page 6


 226              		.loc 1 59 0
 227 001a 0020     		movs	r0, #0
 228 001c FFF7FEFF 		bl	DO_RX_Write
  60:water_quality.c ****     TEMP_RX_Write(OFF);
 229              		.loc 1 60 0
 230 0020 0020     		movs	r0, #0
 231 0022 FFF7FEFF 		bl	TEMP_RX_Write
  61:water_quality.c ****     DO_TX_Write(OFF);
 232              		.loc 1 61 0
 233 0026 0020     		movs	r0, #0
 234 0028 FFF7FEFF 		bl	DO_TX_Write
  62:water_quality.c ****     TEMP_TX_Write(OFF);
 235              		.loc 1 62 0
 236 002c 0020     		movs	r0, #0
 237 002e FFF7FEFF 		bl	TEMP_TX_Write
  63:water_quality.c ****     
  64:water_quality.c ****     WQ_ISR_Stop();
 238              		.loc 1 64 0
 239 0032 FFF7FEFF 		bl	WQ_ISR_Stop
  65:water_quality.c **** 
  66:water_quality.c **** }
 240              		.loc 1 66 0
 241 0036 00BF     		nop
 242 0038 80BD     		pop	{r7, pc}
 243              		.cfi_endproc
 244              	.LFE67:
 245              		.size	wq_stop_talking, .-wq_stop_talking
 246 003a 00BF     		.section	.rodata
 247              		.align	2
 248              	.LC0:
 249 0000 432C300D 		.ascii	"C,0\015\000"
 249      00
 250 0005 000000   		.align	2
 251              	.LC1:
 252 0008 2A4F4B2C 		.ascii	"*OK,0\015\000"
 252      300D00
 253 000f 00       		.align	2
 254              	.LC2:
 255 0010 520D00   		.ascii	"R\015\000"
 256 0013 00       		.align	2
 257              	.LC3:
 258 0014 0D00     		.ascii	"\015\000"
 259              		.global	__aeabi_d2f
 260              		.section	.text.wq_take_reading,"ax",%progbits
 261              		.align	2
 262              		.global	wq_take_reading
 263              		.thumb
 264              		.thumb_func
 265              		.type	wq_take_reading, %function
 266              	wq_take_reading:
 267              	.LFB68:
  67:water_quality.c **** 
  68:water_quality.c **** wq_sensors_t wq_take_reading(){
 268              		.loc 1 68 0
 269              		.cfi_startproc
 270              		@ args = 0, pretend = 0, frame = 128
 271              		@ frame_needed = 1, uses_anonymous_args = 0
ARM GAS  C:\Users\klabu\AppData\Local\Temp\ccPR0mEi.s 			page 7


 272 0000 90B5     		push	{r4, r7, lr}
 273              		.cfi_def_cfa_offset 12
 274              		.cfi_offset 4, -12
 275              		.cfi_offset 7, -8
 276              		.cfi_offset 14, -4
 277 0002 A1B0     		sub	sp, sp, #132
 278              		.cfi_def_cfa_offset 144
 279 0004 00AF     		add	r7, sp, #0
 280              		.cfi_def_cfa_register 7
 281 0006 7860     		str	r0, [r7, #4]
  69:water_quality.c **** 
  70:water_quality.c ****     wq_uart_clear();
 282              		.loc 1 70 0
 283 0008 FFF7FEFF 		bl	wq_uart_clear
  71:water_quality.c ****     wq_sensors_t output;
  72:water_quality.c ****     
  73:water_quality.c ****     wq_start_talking();
 284              		.loc 1 73 0
 285 000c FFF7FEFF 		bl	wq_start_talking
  74:water_quality.c ****     
  75:water_quality.c ****     rx_mux_controller_Wakeup();
 286              		.loc 1 75 0
 287 0010 FFF7FEFF 		bl	rx_mux_controller_Wakeup
  76:water_quality.c ****     tx_mux_controller_Wakeup();
 288              		.loc 1 76 0
 289 0014 FFF7FEFF 		bl	tx_mux_controller_Wakeup
 290              	.LBB2:
  77:water_quality.c ****     
  78:water_quality.c ****     // first, everyone shut up
  79:water_quality.c ****     for (uint8 channel = 0; channel < N_params; channel++){
 291              		.loc 1 79 0
 292 0018 0023     		movs	r3, #0
 293 001a 87F87F30 		strb	r3, [r7, #127]
 294 001e 18E0     		b	.L14
 295              	.L15:
  80:water_quality.c ****         
  81:water_quality.c ****         rx_mux_controller_Write(channel);
 296              		.loc 1 81 0 discriminator 3
 297 0020 97F87F30 		ldrb	r3, [r7, #127]	@ zero_extendqisi2
 298 0024 1846     		mov	r0, r3
 299 0026 FFF7FEFF 		bl	rx_mux_controller_Write
  82:water_quality.c ****         tx_mux_controller_Write(channel); // talking and listening on the same channel
 300              		.loc 1 82 0 discriminator 3
 301 002a 97F87F30 		ldrb	r3, [r7, #127]	@ zero_extendqisi2
 302 002e 1846     		mov	r0, r3
 303 0030 FFF7FEFF 		bl	tx_mux_controller_Write
  83:water_quality.c ****         //char excerpt[80]; // for debugging
  84:water_quality.c ****         WQ_UART_PutString("C,0\r"); // turn off automated sampling
 304              		.loc 1 84 0 discriminator 3
 305 0034 4E48     		ldr	r0, .L25
 306 0036 FFF7FEFF 		bl	WQ_UART_PutString
  85:water_quality.c ****         
  86:water_quality.c ****         // turn "*OK" response off
  87:water_quality.c ****         CyDelay(1000u);
 307              		.loc 1 87 0 discriminator 3
 308 003a 4FF47A70 		mov	r0, #1000
 309 003e FFF7FEFF 		bl	CyDelay
ARM GAS  C:\Users\klabu\AppData\Local\Temp\ccPR0mEi.s 			page 8


  88:water_quality.c ****         WQ_UART_PutString("*OK,0\r");
 310              		.loc 1 88 0 discriminator 3
 311 0042 4C48     		ldr	r0, .L25+4
 312 0044 FFF7FEFF 		bl	WQ_UART_PutString
  79:water_quality.c ****         
 313              		.loc 1 79 0 discriminator 3
 314 0048 97F87F30 		ldrb	r3, [r7, #127]	@ zero_extendqisi2
 315 004c 0133     		adds	r3, r3, #1
 316 004e 87F87F30 		strb	r3, [r7, #127]
 317              	.L14:
  79:water_quality.c ****         
 318              		.loc 1 79 0 is_stmt 0 discriminator 1
 319 0052 97F87F30 		ldrb	r3, [r7, #127]	@ zero_extendqisi2
 320 0056 012B     		cmp	r3, #1
 321 0058 E2D9     		bls	.L15
 322              	.LBE2:
  89:water_quality.c **** 
  90:water_quality.c ****     }
  91:water_quality.c **** 
  92:water_quality.c ****     wq_uart_clear(); // get rid of anything we've received so far
 323              		.loc 1 92 0 is_stmt 1
 324 005a FFF7FEFF 		bl	wq_uart_clear
 325              	.LBB3:
  93:water_quality.c ****     // now let's take some readings
  94:water_quality.c ****     for (uint8 channel = 0; channel < N_params; channel++){
 326              		.loc 1 94 0
 327 005e 0023     		movs	r3, #0
 328 0060 87F87E30 		strb	r3, [r7, #126]
 329 0064 58E0     		b	.L16
 330              	.L23:
 331              	.LBB4:
  95:water_quality.c ****         
  96:water_quality.c ****         rx_mux_controller_Write(channel);
 332              		.loc 1 96 0
 333 0066 97F87E30 		ldrb	r3, [r7, #126]	@ zero_extendqisi2
 334 006a 1846     		mov	r0, r3
 335 006c FFF7FEFF 		bl	rx_mux_controller_Write
  97:water_quality.c ****         tx_mux_controller_Write(channel); // talking and listening on the same channel
 336              		.loc 1 97 0
 337 0070 97F87E30 		ldrb	r3, [r7, #126]	@ zero_extendqisi2
 338 0074 1846     		mov	r0, r3
 339 0076 FFF7FEFF 		bl	tx_mux_controller_Write
 340              	.LBB5:
  98:water_quality.c ****         
  99:water_quality.c ****         // take 11 readings
 100:water_quality.c ****         for (int i = 0; i < 11; i++){
 341              		.loc 1 100 0
 342 007a 0023     		movs	r3, #0
 343 007c BB67     		str	r3, [r7, #120]
 344 007e 09E0     		b	.L17
 345              	.L18:
 101:water_quality.c ****             WQ_UART_PutString("R\r"); // take one reading
 346              		.loc 1 101 0 discriminator 3
 347 0080 3D48     		ldr	r0, .L25+8
 348 0082 FFF7FEFF 		bl	WQ_UART_PutString
 102:water_quality.c ****             CyDelay(1200u); // docs say readings take one second
 349              		.loc 1 102 0 discriminator 3
ARM GAS  C:\Users\klabu\AppData\Local\Temp\ccPR0mEi.s 			page 9


 350 0086 4FF49660 		mov	r0, #1200
 351 008a FFF7FEFF 		bl	CyDelay
 100:water_quality.c ****             WQ_UART_PutString("R\r"); // take one reading
 352              		.loc 1 100 0 discriminator 3
 353 008e BB6F     		ldr	r3, [r7, #120]
 354 0090 0133     		adds	r3, r3, #1
 355 0092 BB67     		str	r3, [r7, #120]
 356              	.L17:
 100:water_quality.c ****             WQ_UART_PutString("R\r"); // take one reading
 357              		.loc 1 100 0 is_stmt 0 discriminator 1
 358 0094 BB6F     		ldr	r3, [r7, #120]
 359 0096 0A2B     		cmp	r3, #10
 360 0098 F2DD     		ble	.L18
 361              	.LBE5:
 103:water_quality.c ****         }
 104:water_quality.c ****         
 105:water_quality.c ****         char *token;    
 106:water_quality.c ****         token = strtok(wq_received_string, "\r");
 362              		.loc 1 106 0 is_stmt 1
 363 009a 3849     		ldr	r1, .L25+12
 364 009c 3848     		ldr	r0, .L25+16
 365 009e FFF7FEFF 		bl	strtok
 366 00a2 7867     		str	r0, [r7, #116]
 107:water_quality.c **** 
 108:water_quality.c ****         int i = 0;
 367              		.loc 1 108 0
 368 00a4 0023     		movs	r3, #0
 369 00a6 3B67     		str	r3, [r7, #112]
 109:water_quality.c ****         float32 reading;
 110:water_quality.c ****         while( token != NULL ) {
 370              		.loc 1 110 0
 371 00a8 2CE0     		b	.L19
 372              	.L22:
 111:water_quality.c ****             reading = atof(token);
 373              		.loc 1 111 0
 374 00aa 786F     		ldr	r0, [r7, #116]
 375 00ac FFF7FEFF 		bl	atof
 376 00b0 0346     		mov	r3, r0
 377 00b2 0C46     		mov	r4, r1
 378 00b4 1846     		mov	r0, r3
 379 00b6 2146     		mov	r1, r4
 380 00b8 FFF7FEFF 		bl	__aeabi_d2f
 381 00bc 0346     		mov	r3, r0
 382 00be FB66     		str	r3, [r7, #108]	@ float
 112:water_quality.c ****             if (channel < 1){ // we're reading DO (channel 0)
 383              		.loc 1 112 0
 384 00c0 97F87E30 		ldrb	r3, [r7, #126]	@ zero_extendqisi2
 385 00c4 002B     		cmp	r3, #0
 386 00c6 08D1     		bne	.L20
 113:water_quality.c ****                 output.all_do_readings[i] = reading;
 387              		.loc 1 113 0
 388 00c8 3B6F     		ldr	r3, [r7, #112]
 389 00ca 9B00     		lsls	r3, r3, #2
 390 00cc 07F18002 		add	r2, r7, #128
 391 00d0 1344     		add	r3, r3, r2
 392 00d2 FA6E     		ldr	r2, [r7, #108]	@ float
 393 00d4 43F8742C 		str	r2, [r3, #-116]	@ float
ARM GAS  C:\Users\klabu\AppData\Local\Temp\ccPR0mEi.s 			page 10


 394 00d8 0CE0     		b	.L21
 395              	.L20:
 114:water_quality.c ****             }
 115:water_quality.c ****             else if (channel < 2) { // we're reading temperature (channel 1)
 396              		.loc 1 115 0
 397 00da 97F87E30 		ldrb	r3, [r7, #126]	@ zero_extendqisi2
 398 00de 012B     		cmp	r3, #1
 399 00e0 08D8     		bhi	.L21
 116:water_quality.c ****                 output.all_temp_readings[i] = reading;
 400              		.loc 1 116 0
 401 00e2 3B6F     		ldr	r3, [r7, #112]
 402 00e4 0C33     		adds	r3, r3, #12
 403 00e6 9B00     		lsls	r3, r3, #2
 404 00e8 07F18002 		add	r2, r7, #128
 405 00ec 1344     		add	r3, r3, r2
 406 00ee FA6E     		ldr	r2, [r7, #108]	@ float
 407 00f0 43F8742C 		str	r2, [r3, #-116]	@ float
 408              	.L21:
 117:water_quality.c ****             }
 118:water_quality.c ****             
 119:water_quality.c ****             token = strtok(NULL, "\r"); // This "NULL" says to continue where you left off last tim
 409              		.loc 1 119 0
 410 00f4 2149     		ldr	r1, .L25+12
 411 00f6 0020     		movs	r0, #0
 412 00f8 FFF7FEFF 		bl	strtok
 413 00fc 7867     		str	r0, [r7, #116]
 120:water_quality.c ****             i++;
 414              		.loc 1 120 0
 415 00fe 3B6F     		ldr	r3, [r7, #112]
 416 0100 0133     		adds	r3, r3, #1
 417 0102 3B67     		str	r3, [r7, #112]
 418              	.L19:
 110:water_quality.c ****             reading = atof(token);
 419              		.loc 1 110 0
 420 0104 7B6F     		ldr	r3, [r7, #116]
 421 0106 002B     		cmp	r3, #0
 422 0108 CFD1     		bne	.L22
 121:water_quality.c ****         }
 122:water_quality.c ****         
 123:water_quality.c ****         wq_uart_clear();
 423              		.loc 1 123 0 discriminator 2
 424 010a FFF7FEFF 		bl	wq_uart_clear
 425              	.LBE4:
  94:water_quality.c ****         
 426              		.loc 1 94 0 discriminator 2
 427 010e 97F87E30 		ldrb	r3, [r7, #126]	@ zero_extendqisi2
 428 0112 0133     		adds	r3, r3, #1
 429 0114 87F87E30 		strb	r3, [r7, #126]
 430              	.L16:
  94:water_quality.c ****         
 431              		.loc 1 94 0 is_stmt 0 discriminator 1
 432 0118 97F87E30 		ldrb	r3, [r7, #126]	@ zero_extendqisi2
 433 011c 012B     		cmp	r3, #1
 434 011e A2D9     		bls	.L23
 435              	.LBE3:
 124:water_quality.c **** 
 125:water_quality.c ****         // readings array should have eleven nice floats now
ARM GAS  C:\Users\klabu\AppData\Local\Temp\ccPR0mEi.s 			page 11


 126:water_quality.c ****         // TODO: check this and throw an error if not
 127:water_quality.c ****         
 128:water_quality.c ****     }
 129:water_quality.c ****     
 130:water_quality.c ****     rx_mux_controller_Sleep();
 436              		.loc 1 130 0 is_stmt 1
 437 0120 FFF7FEFF 		bl	rx_mux_controller_Sleep
 131:water_quality.c ****     tx_mux_controller_Sleep();
 438              		.loc 1 131 0
 439 0124 FFF7FEFF 		bl	tx_mux_controller_Sleep
 132:water_quality.c ****    
 133:water_quality.c ****     output.do_reading = float_find_median(output.all_do_readings, 11);
 440              		.loc 1 133 0
 441 0128 07F10C03 		add	r3, r7, #12
 442 012c 0B21     		movs	r1, #11
 443 012e 1846     		mov	r0, r3
 444 0130 FFF7FEFF 		bl	float_find_median
 445 0134 0346     		mov	r3, r0
 446 0136 BB63     		str	r3, [r7, #56]	@ float
 134:water_quality.c ****     output.temp_reading = float_find_median(output.all_temp_readings, 11);
 447              		.loc 1 134 0
 448 0138 07F10C03 		add	r3, r7, #12
 449 013c 3033     		adds	r3, r3, #48
 450 013e 0B21     		movs	r1, #11
 451 0140 1846     		mov	r0, r3
 452 0142 FFF7FEFF 		bl	float_find_median
 453 0146 0346     		mov	r3, r0
 454 0148 BB66     		str	r3, [r7, #104]	@ float
 135:water_quality.c ****     /*
 136:water_quality.c ****     // turn "*OK" response back on (this is default and useful for debugging)
 137:water_quality.c ****     for (uint8 channel = 0; channel < N_params; channel++){
 138:water_quality.c ****         
 139:water_quality.c ****         rx_mux_controller_Write(channel);
 140:water_quality.c ****         tx_mux_controller_Write(channel); // talking and listening on the same channel
 141:water_quality.c ****         WQ_UART_PutString("*OK,1\r");
 142:water_quality.c ****     }
 143:water_quality.c ****     */
 144:water_quality.c ****     
 145:water_quality.c ****     CyDelay(1000u);
 455              		.loc 1 145 0
 456 014a 4FF47A70 		mov	r0, #1000
 457 014e FFF7FEFF 		bl	CyDelay
 146:water_quality.c ****     wq_stop_talking();
 458              		.loc 1 146 0
 459 0152 FFF7FEFF 		bl	wq_stop_talking
 147:water_quality.c ****     
 148:water_quality.c ****     return output;
 460              		.loc 1 148 0
 461 0156 7B68     		ldr	r3, [r7, #4]
 462 0158 1846     		mov	r0, r3
 463 015a 07F10C03 		add	r3, r7, #12
 464 015e 6022     		movs	r2, #96
 465 0160 1946     		mov	r1, r3
 466 0162 FFF7FEFF 		bl	memcpy
 149:water_quality.c **** }
 467              		.loc 1 149 0
 468 0166 7868     		ldr	r0, [r7, #4]
ARM GAS  C:\Users\klabu\AppData\Local\Temp\ccPR0mEi.s 			page 12


 469 0168 8437     		adds	r7, r7, #132
 470              		.cfi_def_cfa_offset 12
 471 016a BD46     		mov	sp, r7
 472              		.cfi_def_cfa_register 13
 473              		@ sp needed
 474 016c 90BD     		pop	{r4, r7, pc}
 475              	.L26:
 476 016e 00BF     		.align	2
 477              	.L25:
 478 0170 00000000 		.word	.LC0
 479 0174 08000000 		.word	.LC1
 480 0178 10000000 		.word	.LC2
 481 017c 14000000 		.word	.LC3
 482 0180 00000000 		.word	wq_received_string
 483              		.cfi_endproc
 484              	.LFE68:
 485              		.size	wq_take_reading, .-wq_take_reading
 486              		.global	__aeabi_f2d
 487              		.global	__aeabi_dcmplt
 488              		.global	__aeabi_fcmpgt
 489              		.section	.rodata
 490 0016 0000     		.align	2
 491              	.LC4:
 492 0018 444F2072 		.ascii	"DO readings invalid\015\012Details:\015\012median r"
 492      65616469 
 492      6E677320 
 492      696E7661 
 492      6C69640D 
 493 003f 65616469 		.ascii	"eading:%f \015\012all readings (11): %f : %f : %f :"
 493      6E673A25 
 493      66200D0A 
 493      616C6C20 
 493      72656164 
 494 006c 20256620 		.ascii	" %f : %f : %f : %f : %f : %f : %f : %f\000"
 494      3A202566 
 494      203A2025 
 494      66203A20 
 494      2566203A 
 495              		.global	__aeabi_fcmplt
 496 0093 00       		.align	2
 497              	.LC5:
 498 0094 54656D70 		.ascii	"Temperature readings invalid\015\012Details:\015\012"
 498      65726174 
 498      75726520 
 498      72656164 
 498      696E6773 
 499 00bc 6D656469 		.ascii	"median reading:%f \015\012all readings (11): %f : %"
 499      616E2072 
 499      65616469 
 499      6E673A25 
 499      66200D0A 
 500 00e9 66203A20 		.ascii	"f : %f : %f : %f : %f : %f : %f : %f : %f : %f\000"
 500      2566203A 
 500      20256620 
 500      3A202566 
 500      203A2025 
 501              		.align	2
ARM GAS  C:\Users\klabu\AppData\Local\Temp\ccPR0mEi.s 			page 13


 502              	.LC6:
 503 0118 54455354 		.ascii	"TEST_wq_SENSOR\000"
 503      5F77715F 
 503      53454E53 
 503      4F5200
 504 0127 00       		.align	2
 505              	.LC7:
 506 0128 6D656469 		.ascii	"median DO reading:%f \015\012median Temperature Rea"
 506      616E2044 
 506      4F207265 
 506      6164696E 
 506      673A2566 
 507 0155 64696E67 		.ascii	"ding: %f \000"
 507      3A202566 
 507      2000
 508              		.section	.text.wq_sensor_test,"ax",%progbits
 509              		.align	2
 510              		.global	wq_sensor_test
 511              		.thumb
 512              		.thumb_func
 513              		.type	wq_sensor_test, %function
 514              	wq_sensor_test:
 515              	.LFB69:
 150:water_quality.c **** 
 151:water_quality.c **** test_t wq_sensor_test(){
 516              		.loc 1 151 0
 517              		.cfi_startproc
 518              		@ args = 0, pretend = 0, frame = 864
 519              		@ frame_needed = 1, uses_anonymous_args = 0
 520 0000 2DE9B04F 		push	{r4, r5, r7, r8, r9, r10, fp, lr}
 521              		.cfi_def_cfa_offset 32
 522              		.cfi_offset 4, -32
 523              		.cfi_offset 5, -28
 524              		.cfi_offset 7, -24
 525              		.cfi_offset 8, -20
 526              		.cfi_offset 9, -16
 527              		.cfi_offset 10, -12
 528              		.cfi_offset 11, -8
 529              		.cfi_offset 14, -4
 530 0004 ADF5707D 		sub	sp, sp, #960
 531              		.cfi_def_cfa_offset 992
 532 0008 18AF     		add	r7, sp, #96
 533              		.cfi_def_cfa 7, 896
 534 000a 07F14403 		add	r3, r7, #68
 535 000e 1860     		str	r0, [r3]
 152:water_quality.c ****     wq_uart_clear();
 536              		.loc 1 152 0
 537 0010 FFF7FEFF 		bl	wq_uart_clear
 153:water_quality.c ****     char excerpt[300]; // for debugging
 154:water_quality.c **** 
 155:water_quality.c ****     wq_sensors_t results = wq_take_reading();
 538              		.loc 1 155 0
 539 0014 07F5E873 		add	r3, r7, #464
 540 0018 1846     		mov	r0, r3
 541 001a FFF7FEFF 		bl	wq_take_reading
 156:water_quality.c **** 
 157:water_quality.c ****     test_t test;
ARM GAS  C:\Users\klabu\AppData\Local\Temp\ccPR0mEi.s 			page 14


 158:water_quality.c ****     
 159:water_quality.c ****     // I don't think the way the tests fail is ideal, 
 160:water_quality.c ****     // can't tell if temperature is working or not if DO fails currently
 161:water_quality.c ****     
 162:water_quality.c ****     if ((results.do_reading < 0.01)||(results.do_reading > 100.0)){ // this is the sensor's output 
 542              		.loc 1 162 0
 543 001e 07F5E873 		add	r3, r7, #464
 544 0022 DB6A     		ldr	r3, [r3, #44]	@ float
 545 0024 1846     		mov	r0, r3
 546 0026 FFF7FEFF 		bl	__aeabi_f2d
 547 002a 5BA3     		adr	r3, .L40
 548 002c D3E90023 		ldrd	r2, [r3]
 549 0030 FFF7FEFF 		bl	__aeabi_dcmplt
 550 0034 0346     		mov	r3, r0
 551 0036 002B     		cmp	r3, #0
 552 0038 0AD1     		bne	.L28
 553              		.loc 1 162 0 is_stmt 0 discriminator 1
 554 003a 07F5E873 		add	r3, r7, #464
 555 003e DB6A     		ldr	r3, [r3, #44]	@ float
 556 0040 5749     		ldr	r1, .L40+8
 557 0042 1846     		mov	r0, r3
 558 0044 FFF7FEFF 		bl	__aeabi_fcmpgt
 559 0048 0346     		mov	r3, r0
 560 004a 002B     		cmp	r3, #0
 561 004c 00F0AC80 		beq	.L38
 562              	.L28:
 163:water_quality.c ****         test.status = 0;
 563              		.loc 1 163 0 is_stmt 1
 564 0050 07F14C03 		add	r3, r7, #76
 565 0054 0022     		movs	r2, #0
 566 0056 83F88020 		strb	r2, [r3, #128]
 164:water_quality.c ****         // test reason  
 165:water_quality.c ****         snprintf(test.reason,sizeof(test.reason), 
 166:water_quality.c ****         "DO readings invalid\r\nDetails:\r\nmedian reading:%f \r\nall readings (11): %f : %f : %f :
 167:water_quality.c ****         results.do_reading,
 567              		.loc 1 167 0
 568 005a 07F5E873 		add	r3, r7, #464
 569 005e DB6A     		ldr	r3, [r3, #44]	@ float
 165:water_quality.c ****         "DO readings invalid\r\nDetails:\r\nmedian reading:%f \r\nall readings (11): %f : %f : %f :
 570              		.loc 1 165 0
 571 0060 1846     		mov	r0, r3
 572 0062 FFF7FEFF 		bl	__aeabi_f2d
 573 0066 C7E90E01 		strd	r0, [r7, #56]
 168:water_quality.c ****         results.all_do_readings[0], results.all_do_readings[1], results.all_do_readings[2], 
 574              		.loc 1 168 0
 575 006a 07F5E873 		add	r3, r7, #464
 576 006e 1B68     		ldr	r3, [r3]	@ float
 165:water_quality.c ****         "DO readings invalid\r\nDetails:\r\nmedian reading:%f \r\nall readings (11): %f : %f : %f :
 577              		.loc 1 165 0
 578 0070 1846     		mov	r0, r3
 579 0072 FFF7FEFF 		bl	__aeabi_f2d
 580 0076 C7E90C01 		strd	r0, [r7, #48]
 581              		.loc 1 168 0
 582 007a 07F5E873 		add	r3, r7, #464
 583 007e 5B68     		ldr	r3, [r3, #4]	@ float
 165:water_quality.c ****         "DO readings invalid\r\nDetails:\r\nmedian reading:%f \r\nall readings (11): %f : %f : %f :
 584              		.loc 1 165 0
ARM GAS  C:\Users\klabu\AppData\Local\Temp\ccPR0mEi.s 			page 15


 585 0080 1846     		mov	r0, r3
 586 0082 FFF7FEFF 		bl	__aeabi_f2d
 587 0086 C7E90A01 		strd	r0, [r7, #40]
 588              		.loc 1 168 0
 589 008a 07F5E873 		add	r3, r7, #464
 590 008e 9B68     		ldr	r3, [r3, #8]	@ float
 165:water_quality.c ****         "DO readings invalid\r\nDetails:\r\nmedian reading:%f \r\nall readings (11): %f : %f : %f :
 591              		.loc 1 165 0
 592 0090 1846     		mov	r0, r3
 593 0092 FFF7FEFF 		bl	__aeabi_f2d
 594 0096 C7E90801 		strd	r0, [r7, #32]
 169:water_quality.c ****         results.all_do_readings[3], results.all_do_readings[4], results.all_do_readings[5], 
 595              		.loc 1 169 0
 596 009a 07F5E873 		add	r3, r7, #464
 597 009e DB68     		ldr	r3, [r3, #12]	@ float
 165:water_quality.c ****         "DO readings invalid\r\nDetails:\r\nmedian reading:%f \r\nall readings (11): %f : %f : %f :
 598              		.loc 1 165 0
 599 00a0 1846     		mov	r0, r3
 600 00a2 FFF7FEFF 		bl	__aeabi_f2d
 601 00a6 C7E90601 		strd	r0, [r7, #24]
 602              		.loc 1 169 0
 603 00aa 07F5E873 		add	r3, r7, #464
 604 00ae 1B69     		ldr	r3, [r3, #16]	@ float
 165:water_quality.c ****         "DO readings invalid\r\nDetails:\r\nmedian reading:%f \r\nall readings (11): %f : %f : %f :
 605              		.loc 1 165 0
 606 00b0 1846     		mov	r0, r3
 607 00b2 FFF7FEFF 		bl	__aeabi_f2d
 608 00b6 C7E90401 		strd	r0, [r7, #16]
 609              		.loc 1 169 0
 610 00ba 07F5E873 		add	r3, r7, #464
 611 00be 5B69     		ldr	r3, [r3, #20]	@ float
 165:water_quality.c ****         "DO readings invalid\r\nDetails:\r\nmedian reading:%f \r\nall readings (11): %f : %f : %f :
 612              		.loc 1 165 0
 613 00c0 1846     		mov	r0, r3
 614 00c2 FFF7FEFF 		bl	__aeabi_f2d
 615 00c6 C7E90201 		strd	r0, [r7, #8]
 170:water_quality.c ****         results.all_do_readings[6], results.all_do_readings[7], results.all_do_readings[8], 
 616              		.loc 1 170 0
 617 00ca 07F5E873 		add	r3, r7, #464
 618 00ce 9B69     		ldr	r3, [r3, #24]	@ float
 165:water_quality.c ****         "DO readings invalid\r\nDetails:\r\nmedian reading:%f \r\nall readings (11): %f : %f : %f :
 619              		.loc 1 165 0
 620 00d0 1846     		mov	r0, r3
 621 00d2 FFF7FEFF 		bl	__aeabi_f2d
 622 00d6 C7E90001 		strd	r0, [r7]
 623              		.loc 1 170 0
 624 00da 07F5E873 		add	r3, r7, #464
 625 00de DB69     		ldr	r3, [r3, #28]	@ float
 165:water_quality.c ****         "DO readings invalid\r\nDetails:\r\nmedian reading:%f \r\nall readings (11): %f : %f : %f :
 626              		.loc 1 165 0
 627 00e0 1846     		mov	r0, r3
 628 00e2 FFF7FEFF 		bl	__aeabi_f2d
 629 00e6 8246     		mov	r10, r0
 630 00e8 8B46     		mov	fp, r1
 631              		.loc 1 170 0
 632 00ea 07F5E873 		add	r3, r7, #464
 633 00ee 1B6A     		ldr	r3, [r3, #32]	@ float
ARM GAS  C:\Users\klabu\AppData\Local\Temp\ccPR0mEi.s 			page 16


 165:water_quality.c ****         "DO readings invalid\r\nDetails:\r\nmedian reading:%f \r\nall readings (11): %f : %f : %f :
 634              		.loc 1 165 0
 635 00f0 1846     		mov	r0, r3
 636 00f2 FFF7FEFF 		bl	__aeabi_f2d
 637 00f6 8046     		mov	r8, r0
 638 00f8 8946     		mov	r9, r1
 171:water_quality.c ****         results.all_do_readings[9], results.all_do_readings[10]
 639              		.loc 1 171 0
 640 00fa 07F5E873 		add	r3, r7, #464
 641 00fe 5B6A     		ldr	r3, [r3, #36]	@ float
 165:water_quality.c ****         "DO readings invalid\r\nDetails:\r\nmedian reading:%f \r\nall readings (11): %f : %f : %f :
 642              		.loc 1 165 0
 643 0100 1846     		mov	r0, r3
 644 0102 FFF7FEFF 		bl	__aeabi_f2d
 645 0106 0446     		mov	r4, r0
 646 0108 0D46     		mov	r5, r1
 647              		.loc 1 171 0
 648 010a 07F5E873 		add	r3, r7, #464
 649 010e 9B6A     		ldr	r3, [r3, #40]	@ float
 165:water_quality.c ****         "DO readings invalid\r\nDetails:\r\nmedian reading:%f \r\nall readings (11): %f : %f : %f :
 650              		.loc 1 165 0
 651 0110 1846     		mov	r0, r3
 652 0112 FFF7FEFF 		bl	__aeabi_f2d
 653 0116 0A46     		mov	r2, r1
 654 0118 0146     		mov	r1, r0
 655 011a 07F14C03 		add	r3, r7, #76
 656 011e 8133     		adds	r3, r3, #129
 657 0120 CDE91612 		strd	r1, [sp, #88]
 658 0124 CDE91445 		strd	r4, [sp, #80]
 659 0128 CDE91289 		strd	r8, [sp, #72]
 660 012c CDE910AB 		strd	r10, [sp, #64]
 661 0130 D7E90012 		ldrd	r1, [r7]
 662 0134 CDE90E12 		strd	r1, [sp, #56]
 663 0138 D7E90212 		ldrd	r1, [r7, #8]
 664 013c CDE90C12 		strd	r1, [sp, #48]
 665 0140 D7E90412 		ldrd	r1, [r7, #16]
 666 0144 CDE90A12 		strd	r1, [sp, #40]
 667 0148 D7E90612 		ldrd	r1, [r7, #24]
 668 014c CDE90812 		strd	r1, [sp, #32]
 669 0150 D7E90812 		ldrd	r1, [r7, #32]
 670 0154 CDE90612 		strd	r1, [sp, #24]
 671 0158 D7E90A12 		ldrd	r1, [r7, #40]
 672 015c CDE90412 		strd	r1, [sp, #16]
 673 0160 D7E90C12 		ldrd	r1, [r7, #48]
 674 0164 CDE90212 		strd	r1, [sp, #8]
 675 0168 D7E90E12 		ldrd	r1, [r7, #56]
 676 016c CDE90012 		strd	r1, [sp]
 677 0170 0C4A     		ldr	r2, .L40+12
 678 0172 4FF48071 		mov	r1, #256
 679 0176 1846     		mov	r0, r3
 680 0178 FFF7FEFF 		bl	snprintf
 172:water_quality.c ****         );
 173:water_quality.c ****         return test;
 681              		.loc 1 173 0
 682 017c 07F14403 		add	r3, r7, #68
 683 0180 1A68     		ldr	r2, [r3]
 684 0182 07F14C03 		add	r3, r7, #76
ARM GAS  C:\Users\klabu\AppData\Local\Temp\ccPR0mEi.s 			page 17


 685 0186 1046     		mov	r0, r2
 686 0188 1946     		mov	r1, r3
 687 018a 40F28113 		movw	r3, #385
 688 018e 1A46     		mov	r2, r3
 689 0190 FFF7FEFF 		bl	memcpy
 690 0194 13E1     		b	.L27
 691              	.L41:
 692 0196 00BF     		.align	3
 693              	.L40:
 694 0198 7B14AE47 		.word	1202590843
 695 019c E17A843F 		.word	1065646817
 696 01a0 0000C842 		.word	1120403456
 697 01a4 18000000 		.word	.LC4
 698              	.L38:
 174:water_quality.c ****     }
 175:water_quality.c ****     
 176:water_quality.c ****     if ((results.temp_reading < -55.0)||(results.temp_reading > 125.0)){ // this is the sensor's ou
 699              		.loc 1 176 0
 700 01a8 07F5E873 		add	r3, r7, #464
 701 01ac DB6D     		ldr	r3, [r3, #92]	@ float
 702 01ae 8849     		ldr	r1, .L42
 703 01b0 1846     		mov	r0, r3
 704 01b2 FFF7FEFF 		bl	__aeabi_fcmplt
 705 01b6 0346     		mov	r3, r0
 706 01b8 002B     		cmp	r3, #0
 707 01ba 0AD1     		bne	.L32
 708              		.loc 1 176 0 is_stmt 0 discriminator 1
 709 01bc 07F5E873 		add	r3, r7, #464
 710 01c0 DB6D     		ldr	r3, [r3, #92]	@ float
 711 01c2 8449     		ldr	r1, .L42+4
 712 01c4 1846     		mov	r0, r3
 713 01c6 FFF7FEFF 		bl	__aeabi_fcmpgt
 714 01ca 0346     		mov	r3, r0
 715 01cc 002B     		cmp	r3, #0
 716 01ce 00F0A380 		beq	.L39
 717              	.L32:
 177:water_quality.c ****         test.status = 0;
 718              		.loc 1 177 0 is_stmt 1
 719 01d2 07F14C03 		add	r3, r7, #76
 720 01d6 0022     		movs	r2, #0
 721 01d8 83F88020 		strb	r2, [r3, #128]
 178:water_quality.c ****         // test reason  
 179:water_quality.c ****         snprintf(test.reason,sizeof(test.reason), 
 180:water_quality.c ****         "Temperature readings invalid\r\nDetails:\r\nmedian reading:%f \r\nall readings (11): %f : 
 181:water_quality.c ****         results.temp_reading,
 722              		.loc 1 181 0
 723 01dc 07F5E873 		add	r3, r7, #464
 724 01e0 DB6D     		ldr	r3, [r3, #92]	@ float
 179:water_quality.c ****         "Temperature readings invalid\r\nDetails:\r\nmedian reading:%f \r\nall readings (11): %f : 
 725              		.loc 1 179 0
 726 01e2 1846     		mov	r0, r3
 727 01e4 FFF7FEFF 		bl	__aeabi_f2d
 728 01e8 C7E90E01 		strd	r0, [r7, #56]
 182:water_quality.c ****         results.all_temp_readings[0], results.all_temp_readings[1], results.all_temp_readings[2], 
 729              		.loc 1 182 0
 730 01ec 07F5E873 		add	r3, r7, #464
 731 01f0 1B6B     		ldr	r3, [r3, #48]	@ float
ARM GAS  C:\Users\klabu\AppData\Local\Temp\ccPR0mEi.s 			page 18


 179:water_quality.c ****         "Temperature readings invalid\r\nDetails:\r\nmedian reading:%f \r\nall readings (11): %f : 
 732              		.loc 1 179 0
 733 01f2 1846     		mov	r0, r3
 734 01f4 FFF7FEFF 		bl	__aeabi_f2d
 735 01f8 C7E90C01 		strd	r0, [r7, #48]
 736              		.loc 1 182 0
 737 01fc 07F5E873 		add	r3, r7, #464
 738 0200 5B6B     		ldr	r3, [r3, #52]	@ float
 179:water_quality.c ****         "Temperature readings invalid\r\nDetails:\r\nmedian reading:%f \r\nall readings (11): %f : 
 739              		.loc 1 179 0
 740 0202 1846     		mov	r0, r3
 741 0204 FFF7FEFF 		bl	__aeabi_f2d
 742 0208 C7E90A01 		strd	r0, [r7, #40]
 743              		.loc 1 182 0
 744 020c 07F5E873 		add	r3, r7, #464
 745 0210 9B6B     		ldr	r3, [r3, #56]	@ float
 179:water_quality.c ****         "Temperature readings invalid\r\nDetails:\r\nmedian reading:%f \r\nall readings (11): %f : 
 746              		.loc 1 179 0
 747 0212 1846     		mov	r0, r3
 748 0214 FFF7FEFF 		bl	__aeabi_f2d
 749 0218 C7E90801 		strd	r0, [r7, #32]
 183:water_quality.c ****         results.all_temp_readings[3], results.all_temp_readings[4], results.all_temp_readings[5], 
 750              		.loc 1 183 0
 751 021c 07F5E873 		add	r3, r7, #464
 752 0220 DB6B     		ldr	r3, [r3, #60]	@ float
 179:water_quality.c ****         "Temperature readings invalid\r\nDetails:\r\nmedian reading:%f \r\nall readings (11): %f : 
 753              		.loc 1 179 0
 754 0222 1846     		mov	r0, r3
 755 0224 FFF7FEFF 		bl	__aeabi_f2d
 756 0228 C7E90601 		strd	r0, [r7, #24]
 757              		.loc 1 183 0
 758 022c 07F5E873 		add	r3, r7, #464
 759 0230 1B6C     		ldr	r3, [r3, #64]	@ float
 179:water_quality.c ****         "Temperature readings invalid\r\nDetails:\r\nmedian reading:%f \r\nall readings (11): %f : 
 760              		.loc 1 179 0
 761 0232 1846     		mov	r0, r3
 762 0234 FFF7FEFF 		bl	__aeabi_f2d
 763 0238 C7E90401 		strd	r0, [r7, #16]
 764              		.loc 1 183 0
 765 023c 07F5E873 		add	r3, r7, #464
 766 0240 5B6C     		ldr	r3, [r3, #68]	@ float
 179:water_quality.c ****         "Temperature readings invalid\r\nDetails:\r\nmedian reading:%f \r\nall readings (11): %f : 
 767              		.loc 1 179 0
 768 0242 1846     		mov	r0, r3
 769 0244 FFF7FEFF 		bl	__aeabi_f2d
 770 0248 C7E90201 		strd	r0, [r7, #8]
 184:water_quality.c ****         results.all_temp_readings[6], results.all_temp_readings[7], results.all_temp_readings[8], 
 771              		.loc 1 184 0
 772 024c 07F5E873 		add	r3, r7, #464
 773 0250 9B6C     		ldr	r3, [r3, #72]	@ float
 179:water_quality.c ****         "Temperature readings invalid\r\nDetails:\r\nmedian reading:%f \r\nall readings (11): %f : 
 774              		.loc 1 179 0
 775 0252 1846     		mov	r0, r3
 776 0254 FFF7FEFF 		bl	__aeabi_f2d
 777 0258 C7E90001 		strd	r0, [r7]
 778              		.loc 1 184 0
 779 025c 07F5E873 		add	r3, r7, #464
ARM GAS  C:\Users\klabu\AppData\Local\Temp\ccPR0mEi.s 			page 19


 780 0260 DB6C     		ldr	r3, [r3, #76]	@ float
 179:water_quality.c ****         "Temperature readings invalid\r\nDetails:\r\nmedian reading:%f \r\nall readings (11): %f : 
 781              		.loc 1 179 0
 782 0262 1846     		mov	r0, r3
 783 0264 FFF7FEFF 		bl	__aeabi_f2d
 784 0268 8246     		mov	r10, r0
 785 026a 8B46     		mov	fp, r1
 786              		.loc 1 184 0
 787 026c 07F5E873 		add	r3, r7, #464
 788 0270 1B6D     		ldr	r3, [r3, #80]	@ float
 179:water_quality.c ****         "Temperature readings invalid\r\nDetails:\r\nmedian reading:%f \r\nall readings (11): %f : 
 789              		.loc 1 179 0
 790 0272 1846     		mov	r0, r3
 791 0274 FFF7FEFF 		bl	__aeabi_f2d
 792 0278 8046     		mov	r8, r0
 793 027a 8946     		mov	r9, r1
 185:water_quality.c ****         results.all_temp_readings[9], results.all_temp_readings[10]
 794              		.loc 1 185 0
 795 027c 07F5E873 		add	r3, r7, #464
 796 0280 5B6D     		ldr	r3, [r3, #84]	@ float
 179:water_quality.c ****         "Temperature readings invalid\r\nDetails:\r\nmedian reading:%f \r\nall readings (11): %f : 
 797              		.loc 1 179 0
 798 0282 1846     		mov	r0, r3
 799 0284 FFF7FEFF 		bl	__aeabi_f2d
 800 0288 0446     		mov	r4, r0
 801 028a 0D46     		mov	r5, r1
 802              		.loc 1 185 0
 803 028c 07F5E873 		add	r3, r7, #464
 804 0290 9B6D     		ldr	r3, [r3, #88]	@ float
 179:water_quality.c ****         "Temperature readings invalid\r\nDetails:\r\nmedian reading:%f \r\nall readings (11): %f : 
 805              		.loc 1 179 0
 806 0292 1846     		mov	r0, r3
 807 0294 FFF7FEFF 		bl	__aeabi_f2d
 808 0298 0A46     		mov	r2, r1
 809 029a 0146     		mov	r1, r0
 810 029c 07F14C03 		add	r3, r7, #76
 811 02a0 8133     		adds	r3, r3, #129
 812 02a2 CDE91612 		strd	r1, [sp, #88]
 813 02a6 CDE91445 		strd	r4, [sp, #80]
 814 02aa CDE91289 		strd	r8, [sp, #72]
 815 02ae CDE910AB 		strd	r10, [sp, #64]
 816 02b2 D7E90012 		ldrd	r1, [r7]
 817 02b6 CDE90E12 		strd	r1, [sp, #56]
 818 02ba D7E90212 		ldrd	r1, [r7, #8]
 819 02be CDE90C12 		strd	r1, [sp, #48]
 820 02c2 D7E90412 		ldrd	r1, [r7, #16]
 821 02c6 CDE90A12 		strd	r1, [sp, #40]
 822 02ca D7E90612 		ldrd	r1, [r7, #24]
 823 02ce CDE90812 		strd	r1, [sp, #32]
 824 02d2 D7E90812 		ldrd	r1, [r7, #32]
 825 02d6 CDE90612 		strd	r1, [sp, #24]
 826 02da D7E90A12 		ldrd	r1, [r7, #40]
 827 02de CDE90412 		strd	r1, [sp, #16]
 828 02e2 D7E90C12 		ldrd	r1, [r7, #48]
 829 02e6 CDE90212 		strd	r1, [sp, #8]
 830 02ea D7E90E12 		ldrd	r1, [r7, #56]
 831 02ee CDE90012 		strd	r1, [sp]
ARM GAS  C:\Users\klabu\AppData\Local\Temp\ccPR0mEi.s 			page 20


 832 02f2 394A     		ldr	r2, .L42+8
 833 02f4 4FF48071 		mov	r1, #256
 834 02f8 1846     		mov	r0, r3
 835 02fa FFF7FEFF 		bl	snprintf
 186:water_quality.c ****         );
 187:water_quality.c ****         return test;
 836              		.loc 1 187 0
 837 02fe 07F14403 		add	r3, r7, #68
 838 0302 1A68     		ldr	r2, [r3]
 839 0304 07F14C03 		add	r3, r7, #76
 840 0308 1046     		mov	r0, r2
 841 030a 1946     		mov	r1, r3
 842 030c 40F28113 		movw	r3, #385
 843 0310 1A46     		mov	r2, r3
 844 0312 FFF7FEFF 		bl	memcpy
 845 0316 52E0     		b	.L27
 846              	.L39:
 188:water_quality.c ****     }
 189:water_quality.c **** 
 190:water_quality.c ****     // for now, getting something besides zeros is valid
 191:water_quality.c ****     test.status = 1; // set test status to zero
 847              		.loc 1 191 0
 848 0318 07F14C03 		add	r3, r7, #76
 849 031c 0122     		movs	r2, #1
 850 031e 83F88020 		strb	r2, [r3, #128]
 192:water_quality.c ****     snprintf(test.test_name,sizeof(test.test_name),"TEST_wq_SENSOR");
 851              		.loc 1 192 0
 852 0322 07F14C03 		add	r3, r7, #76
 853 0326 2D4A     		ldr	r2, .L42+12
 854 0328 1C46     		mov	r4, r3
 855 032a 1346     		mov	r3, r2
 856 032c 0FCB     		ldmia	r3, {r0, r1, r2, r3}
 857 032e 07C4     		stmia	r4!, {r0, r1, r2}
 858 0330 2380     		strh	r3, [r4]	@ movhi
 859 0332 0234     		adds	r4, r4, #2
 860 0334 1B0C     		lsrs	r3, r3, #16
 861 0336 2370     		strb	r3, [r4]
 193:water_quality.c ****    
 194:water_quality.c ****     
 195:water_quality.c ****     // test reason  
 196:water_quality.c ****     snprintf(test.reason,sizeof(test.reason), 
 197:water_quality.c ****     "median DO reading:%f \r\nmedian Temperature Reading: %f ",
 198:water_quality.c ****     results.do_reading,
 862              		.loc 1 198 0
 863 0338 07F5E873 		add	r3, r7, #464
 864 033c DB6A     		ldr	r3, [r3, #44]	@ float
 196:water_quality.c ****     "median DO reading:%f \r\nmedian Temperature Reading: %f ",
 865              		.loc 1 196 0
 866 033e 1846     		mov	r0, r3
 867 0340 FFF7FEFF 		bl	__aeabi_f2d
 868 0344 0446     		mov	r4, r0
 869 0346 0D46     		mov	r5, r1
 199:water_quality.c ****     results.temp_reading
 870              		.loc 1 199 0
 871 0348 07F5E873 		add	r3, r7, #464
 872 034c DB6D     		ldr	r3, [r3, #92]	@ float
 196:water_quality.c ****     "median DO reading:%f \r\nmedian Temperature Reading: %f ",
ARM GAS  C:\Users\klabu\AppData\Local\Temp\ccPR0mEi.s 			page 21


 873              		.loc 1 196 0
 874 034e 1846     		mov	r0, r3
 875 0350 FFF7FEFF 		bl	__aeabi_f2d
 876 0354 0246     		mov	r2, r0
 877 0356 0B46     		mov	r3, r1
 878 0358 07F14C01 		add	r1, r7, #76
 879 035c 01F18100 		add	r0, r1, #129
 880 0360 CDE90223 		strd	r2, [sp, #8]
 881 0364 CDE90045 		strd	r4, [sp]
 882 0368 1D4A     		ldr	r2, .L42+16
 883 036a 4FF48071 		mov	r1, #256
 884 036e FFF7FEFF 		bl	snprintf
 885              	.LBB6:
 200:water_quality.c ****     );
 201:water_quality.c ****     
 202:water_quality.c ****     for (uint i = 0; i < 300; i++){
 886              		.loc 1 202 0
 887 0372 0023     		movs	r3, #0
 888 0374 C7F85C33 		str	r3, [r7, #860]
 889 0378 10E0     		b	.L35
 890              	.L36:
 203:water_quality.c ****         excerpt[i] = wq_received_string[i];  
 891              		.loc 1 203 0 discriminator 3
 892 037a 1A4A     		ldr	r2, .L42+20
 893 037c D7F85C33 		ldr	r3, [r7, #860]
 894 0380 1344     		add	r3, r3, r2
 895 0382 1978     		ldrb	r1, [r3]	@ zero_extendqisi2
 896 0384 07F50C72 		add	r2, r7, #560
 897 0388 D7F85C33 		ldr	r3, [r7, #860]
 898 038c 1344     		add	r3, r3, r2
 899 038e 0A46     		mov	r2, r1
 900 0390 1A70     		strb	r2, [r3]
 202:water_quality.c ****         excerpt[i] = wq_received_string[i];  
 901              		.loc 1 202 0 discriminator 3
 902 0392 D7F85C33 		ldr	r3, [r7, #860]
 903 0396 0133     		adds	r3, r3, #1
 904 0398 C7F85C33 		str	r3, [r7, #860]
 905              	.L35:
 202:water_quality.c ****         excerpt[i] = wq_received_string[i];  
 906              		.loc 1 202 0 is_stmt 0 discriminator 1
 907 039c D7F85C33 		ldr	r3, [r7, #860]
 908 03a0 B3F5967F 		cmp	r3, #300
 909 03a4 E9D3     		bcc	.L36
 910              	.LBE6:
 204:water_quality.c ****     }
 205:water_quality.c **** 
 206:water_quality.c ****     return test;
 911              		.loc 1 206 0 is_stmt 1
 912 03a6 07F14403 		add	r3, r7, #68
 913 03aa 1A68     		ldr	r2, [r3]
 914 03ac 07F14C03 		add	r3, r7, #76
 915 03b0 1046     		mov	r0, r2
 916 03b2 1946     		mov	r1, r3
 917 03b4 40F28113 		movw	r3, #385
 918 03b8 1A46     		mov	r2, r3
 919 03ba FFF7FEFF 		bl	memcpy
 920              	.L27:
ARM GAS  C:\Users\klabu\AppData\Local\Temp\ccPR0mEi.s 			page 22


 207:water_quality.c ****     
 208:water_quality.c **** }
 921              		.loc 1 208 0
 922 03be 07F14403 		add	r3, r7, #68
 923 03c2 1868     		ldr	r0, [r3]
 924 03c4 07F55877 		add	r7, r7, #864
 925              		.cfi_def_cfa_offset 32
 926 03c8 BD46     		mov	sp, r7
 927              		.cfi_def_cfa_register 13
 928              		@ sp needed
 929 03ca BDE8B08F 		pop	{r4, r5, r7, r8, r9, r10, fp, pc}
 930              	.L43:
 931 03ce 00BF     		.align	2
 932              	.L42:
 933 03d0 00005CC2 		.word	-1034158080
 934 03d4 0000FA42 		.word	1123680256
 935 03d8 94000000 		.word	.LC5
 936 03dc 18010000 		.word	.LC6
 937 03e0 28010000 		.word	.LC7
 938 03e4 00000000 		.word	wq_received_string
 939              		.cfi_endproc
 940              	.LFE69:
 941              		.size	wq_sensor_test, .-wq_sensor_test
 942              		.global	__aeabi_fsub
 943              		.global	__aeabi_dmul
 944              		.global	__aeabi_dcmple
 945              		.section	.rodata
 946 015f 00       		.align	2
 947              	.LC8:
 948 0160 43616C2C 		.ascii	"Cal,clear\015\000"
 948      636C6561 
 948      720D00
 949 016b 00       		.align	2
 950              	.LC9:
 951 016c 43616C0D 		.ascii	"Cal\015\000"
 951      00
 952 0171 000000   		.align	2
 953              	.LC10:
 954 0174 53756363 		.ascii	"Successfully calibrated DO sensor\000"
 954      65737366 
 954      756C6C79 
 954      2063616C 
 954      69627261 
 955 0196 0000     		.align	2
 956              	.LC11:
 957 0198 63616C69 		.ascii	"calibrated DO reading: %f ::: Expected [9.0,9.3] mg"
 957      62726174 
 957      65642044 
 957      4F207265 
 957      6164696E 
 958 01cb 2F4C00   		.ascii	"/L\000"
 959 01ce 0000     		.align	2
 960              	.LC12:
 961 01d0 444F2072 		.ascii	"DO readings failed to converge\000"
 961      65616469 
 961      6E677320 
 961      6661696C 
ARM GAS  C:\Users\klabu\AppData\Local\Temp\ccPR0mEi.s 			page 23


 961      65642074 
 962              		.section	.text.DO_cal,"ax",%progbits
 963              		.align	2
 964              		.global	DO_cal
 965              		.thumb
 966              		.thumb_func
 967              		.type	DO_cal, %function
 968              	DO_cal:
 969              	.LFB70:
 209:water_quality.c **** 
 210:water_quality.c **** // ref: https://atlas-scientific.com/kits/dissolved-oxygen-kit/
 211:water_quality.c **** // DO EZO circuit datasheet -> UART calibration
 212:water_quality.c **** // let DO probe sit exposed to air until readings stabilize, then send "cal" command
 213:water_quality.c **** // make sure to put DO probe back in water after calibrated so it doesn't dry out
 214:water_quality.c **** uint8 DO_cal(){
 970              		.loc 1 214 0
 971              		.cfi_startproc
 972              		@ args = 0, pretend = 0, frame = 504
 973              		@ frame_needed = 1, uses_anonymous_args = 0
 974 0000 B0B5     		push	{r4, r5, r7, lr}
 975              		.cfi_def_cfa_offset 16
 976              		.cfi_offset 4, -16
 977              		.cfi_offset 5, -12
 978              		.cfi_offset 7, -8
 979              		.cfi_offset 14, -4
 980 0002 FEB0     		sub	sp, sp, #504
 981              		.cfi_def_cfa_offset 520
 982 0004 00AF     		add	r7, sp, #0
 983              		.cfi_def_cfa_register 7
 215:water_quality.c ****     wq_uart_clear(); // forget what you think you know
 984              		.loc 1 215 0
 985 0006 FFF7FEFF 		bl	wq_uart_clear
 986              	.LBB7:
 216:water_quality.c ****     char excerpt[300]; // for debugging
 217:water_quality.c ****     
 218:water_quality.c ****     for (int i = 0; i < 2; i++){
 987              		.loc 1 218 0
 988 000a 0023     		movs	r3, #0
 989 000c C7F8F431 		str	r3, [r7, #500]
 990 0010 A5E0     		b	.L45
 991              	.L55:
 992              	.LBB8:
 219:water_quality.c ****         wq_sensors_t readings = wq_take_reading();
 993              		.loc 1 219 0
 994 0012 3B46     		mov	r3, r7
 995 0014 1846     		mov	r0, r3
 996 0016 FFF7FEFF 		bl	wq_take_reading
 220:water_quality.c ****         // I'll take convergence as the range less than 5 percent the median
 221:water_quality.c ****         // this is arbitrary but information we can already generate
 222:water_quality.c ****         fsort(readings.all_do_readings,N_READINGS); // sort it
 997              		.loc 1 222 0
 998 001a 3B46     		mov	r3, r7
 999 001c 0B21     		movs	r1, #11
 1000 001e 1846     		mov	r0, r3
 1001 0020 FFF7FEFF 		bl	fsort
 223:water_quality.c ****         float32 range = readings.all_do_readings[N_READINGS-1] - readings.all_do_readings[0];
 1002              		.loc 1 223 0
ARM GAS  C:\Users\klabu\AppData\Local\Temp\ccPR0mEi.s 			page 24


 1003 0024 3B46     		mov	r3, r7
 1004 0026 9A6A     		ldr	r2, [r3, #40]	@ float
 1005 0028 3B46     		mov	r3, r7
 1006 002a 1B68     		ldr	r3, [r3]	@ float
 1007 002c 1946     		mov	r1, r3
 1008 002e 1046     		mov	r0, r2
 1009 0030 FFF7FEFF 		bl	__aeabi_fsub
 1010 0034 0346     		mov	r3, r0
 1011 0036 C7F8EC31 		str	r3, [r7, #492]	@ float
 1012              	.LBB9:
 224:water_quality.c ****         
 225:water_quality.c ****         for (uint i = 0; i < 300; i++){
 1013              		.loc 1 225 0
 1014 003a 0023     		movs	r3, #0
 1015 003c C7F8F031 		str	r3, [r7, #496]
 1016 0040 10E0     		b	.L46
 1017              	.L47:
 226:water_quality.c ****             excerpt[i] = wq_received_string[i];  
 1018              		.loc 1 226 0 discriminator 3
 1019 0042 534A     		ldr	r2, .L61+16
 1020 0044 D7F8F031 		ldr	r3, [r7, #496]
 1021 0048 1344     		add	r3, r3, r2
 1022 004a 1978     		ldrb	r1, [r3]	@ zero_extendqisi2
 1023 004c 07F1C002 		add	r2, r7, #192
 1024 0050 D7F8F031 		ldr	r3, [r7, #496]
 1025 0054 1344     		add	r3, r3, r2
 1026 0056 0A46     		mov	r2, r1
 1027 0058 1A70     		strb	r2, [r3]
 225:water_quality.c ****             excerpt[i] = wq_received_string[i];  
 1028              		.loc 1 225 0 discriminator 3
 1029 005a D7F8F031 		ldr	r3, [r7, #496]
 1030 005e 0133     		adds	r3, r3, #1
 1031 0060 C7F8F031 		str	r3, [r7, #496]
 1032              	.L46:
 225:water_quality.c ****             excerpt[i] = wq_received_string[i];  
 1033              		.loc 1 225 0 is_stmt 0 discriminator 1
 1034 0064 D7F8F031 		ldr	r3, [r7, #496]
 1035 0068 B3F5967F 		cmp	r3, #300
 1036 006c E9D3     		bcc	.L47
 1037              	.LBE9:
 227:water_quality.c ****         }
 228:water_quality.c ****         
 229:water_quality.c ****         // we did it in less than two tries so it's converging quickly as expected
 230:water_quality.c ****         // send calibration command and return 1 indicating success
 231:water_quality.c ****         if (range <= (0.05*readings.do_reading)){
 1038              		.loc 1 231 0 is_stmt 1
 1039 006e D7F8EC01 		ldr	r0, [r7, #492]	@ float
 1040 0072 FFF7FEFF 		bl	__aeabi_f2d
 1041 0076 0446     		mov	r4, r0
 1042 0078 0D46     		mov	r5, r1
 1043 007a 3B46     		mov	r3, r7
 1044 007c DB6A     		ldr	r3, [r3, #44]	@ float
 1045 007e 1846     		mov	r0, r3
 1046 0080 FFF7FEFF 		bl	__aeabi_f2d
 1047 0084 3EA3     		adr	r3, .L61
 1048 0086 D3E90023 		ldrd	r2, [r3]
 1049 008a FFF7FEFF 		bl	__aeabi_dmul
ARM GAS  C:\Users\klabu\AppData\Local\Temp\ccPR0mEi.s 			page 25


 1050 008e 0246     		mov	r2, r0
 1051 0090 0B46     		mov	r3, r1
 1052 0092 2046     		mov	r0, r4
 1053 0094 2946     		mov	r1, r5
 1054 0096 FFF7FEFF 		bl	__aeabi_dcmple
 1055 009a 0346     		mov	r3, r0
 1056 009c 002B     		cmp	r3, #0
 1057 009e 59D0     		beq	.L60
 1058              	.LBB10:
 232:water_quality.c ****             
 233:water_quality.c ****             wq_start_talking();
 1059              		.loc 1 233 0
 1060 00a0 FFF7FEFF 		bl	wq_start_talking
 234:water_quality.c ****             rx_mux_controller_Write(0);// DO is parameter 0
 1061              		.loc 1 234 0
 1062 00a4 0020     		movs	r0, #0
 1063 00a6 FFF7FEFF 		bl	rx_mux_controller_Write
 235:water_quality.c ****             tx_mux_controller_Write(0); // talking and listening on the same channel
 1064              		.loc 1 235 0
 1065 00aa 0020     		movs	r0, #0
 1066 00ac FFF7FEFF 		bl	tx_mux_controller_Write
 236:water_quality.c ****         
 237:water_quality.c ****             
 238:water_quality.c ****             //DO_UART_PutString("*OK,1\r"); // are you hearing me? (for debugging)
 239:water_quality.c ****             CyDelay(1000u);
 1067              		.loc 1 239 0
 1068 00b0 4FF47A70 		mov	r0, #1000
 1069 00b4 FFF7FEFF 		bl	CyDelay
 240:water_quality.c ****             WQ_UART_PutString("C,0\r"); // turn off automated sampling
 1070              		.loc 1 240 0
 1071 00b8 3648     		ldr	r0, .L61+20
 1072 00ba FFF7FEFF 		bl	WQ_UART_PutString
 241:water_quality.c ****             CyDelay(1000u); 
 1073              		.loc 1 241 0
 1074 00be 4FF47A70 		mov	r0, #1000
 1075 00c2 FFF7FEFF 		bl	CyDelay
 242:water_quality.c ****             WQ_UART_PutString("Cal,clear\r"); // clear existing calibration data
 1076              		.loc 1 242 0
 1077 00c6 3448     		ldr	r0, .L61+24
 1078 00c8 FFF7FEFF 		bl	WQ_UART_PutString
 243:water_quality.c ****             CyDelay(1000u);
 1079              		.loc 1 243 0
 1080 00cc 4FF47A70 		mov	r0, #1000
 1081 00d0 FFF7FEFF 		bl	CyDelay
 244:water_quality.c ****             WQ_UART_PutString("Cal\r"); // calibrate to atmospheric oxygen
 1082              		.loc 1 244 0
 1083 00d4 3148     		ldr	r0, .L61+28
 1084 00d6 FFF7FEFF 		bl	WQ_UART_PutString
 245:water_quality.c **** 
 246:water_quality.c ****             CyDelay(2000u); 
 1085              		.loc 1 246 0
 1086 00da 4FF4FA60 		mov	r0, #2000
 1087 00de FFF7FEFF 		bl	CyDelay
 247:water_quality.c ****             wq_stop_talking();
 1088              		.loc 1 247 0
 1089 00e2 FFF7FEFF 		bl	wq_stop_talking
 248:water_quality.c ****             // "After calibration is complete, you should see readings between 9.09 - 9.2 mg/l
ARM GAS  C:\Users\klabu\AppData\Local\Temp\ccPR0mEi.s 			page 26


 249:water_quality.c ****             // if temperature, salinity, and pressure compensation are at default values"
 250:water_quality.c ****             
 251:water_quality.c ****       
 252:water_quality.c ****             CyDelay(1000u);
 1090              		.loc 1 252 0
 1091 00e6 4FF47A70 		mov	r0, #1000
 1092 00ea FFF7FEFF 		bl	CyDelay
 253:water_quality.c ****             wq_sensors_t calibrated = wq_take_reading();
 1093              		.loc 1 253 0
 1094 00ee 07F16003 		add	r3, r7, #96
 1095 00f2 1846     		mov	r0, r3
 1096 00f4 FFF7FEFF 		bl	wq_take_reading
 254:water_quality.c ****             //calibrated.all_do_readings;
 255:water_quality.c ****             if (calibrated.do_reading > 9.0 && calibrated.do_reading < 9.3){
 1097              		.loc 1 255 0
 1098 00f8 07F16003 		add	r3, r7, #96
 1099 00fc DB6A     		ldr	r3, [r3, #44]	@ float
 1100 00fe 2849     		ldr	r1, .L61+32
 1101 0100 1846     		mov	r0, r3
 1102 0102 FFF7FEFF 		bl	__aeabi_fcmpgt
 1103 0106 0346     		mov	r3, r0
 1104 0108 002B     		cmp	r3, #0
 1105 010a 13D0     		beq	.L50
 1106              		.loc 1 255 0 is_stmt 0 discriminator 1
 1107 010c 07F16003 		add	r3, r7, #96
 1108 0110 DB6A     		ldr	r3, [r3, #44]	@ float
 1109 0112 1846     		mov	r0, r3
 1110 0114 FFF7FEFF 		bl	__aeabi_f2d
 1111 0118 1BA3     		adr	r3, .L61+8
 1112 011a D3E90023 		ldrd	r2, [r3]
 1113 011e FFF7FEFF 		bl	__aeabi_dcmplt
 1114 0122 0346     		mov	r3, r0
 1115 0124 002B     		cmp	r3, #0
 1116 0126 05D0     		beq	.L50
 256:water_quality.c ****                 printNotif(NOTIF_TYPE_EVENT, "Successfully calibrated DO sensor");
 1117              		.loc 1 256 0 is_stmt 1
 1118 0128 1E49     		ldr	r1, .L61+36
 1119 012a 0020     		movs	r0, #0
 1120 012c FFF7FEFF 		bl	printNotif
 257:water_quality.c ****                 return 1;
 1121              		.loc 1 257 0
 1122 0130 0123     		movs	r3, #1
 1123 0132 1EE0     		b	.L56
 1124              	.L50:
 258:water_quality.c ****             }
 259:water_quality.c ****             // if we didn't get what we expected, let us know what we did get
 260:water_quality.c ****             printNotif(NOTIF_TYPE_ERROR, "calibrated DO reading: %f ::: Expected [9.0,9.3] mg/L", c
 1125              		.loc 1 260 0
 1126 0134 07F16003 		add	r3, r7, #96
 1127 0138 DB6A     		ldr	r3, [r3, #44]	@ float
 1128 013a 1846     		mov	r0, r3
 1129 013c FFF7FEFF 		bl	__aeabi_f2d
 1130 0140 0346     		mov	r3, r0
 1131 0142 0C46     		mov	r4, r1
 1132 0144 1A46     		mov	r2, r3
 1133 0146 2346     		mov	r3, r4
 1134 0148 1749     		ldr	r1, .L61+40
ARM GAS  C:\Users\klabu\AppData\Local\Temp\ccPR0mEi.s 			page 27


 1135 014a 0220     		movs	r0, #2
 1136 014c FFF7FEFF 		bl	printNotif
 261:water_quality.c ****             return 0;
 1137              		.loc 1 261 0
 1138 0150 0023     		movs	r3, #0
 1139 0152 0EE0     		b	.L56
 1140              	.L60:
 1141              	.LBE10:
 1142              	.LBE8:
 218:water_quality.c ****         wq_sensors_t readings = wq_take_reading();
 1143              		.loc 1 218 0
 1144 0154 D7F8F431 		ldr	r3, [r7, #500]
 1145 0158 0133     		adds	r3, r3, #1
 1146 015a C7F8F431 		str	r3, [r7, #500]
 1147              	.L45:
 218:water_quality.c ****         wq_sensors_t readings = wq_take_reading();
 1148              		.loc 1 218 0 is_stmt 0 discriminator 1
 1149 015e D7F8F431 		ldr	r3, [r7, #500]
 1150 0162 012B     		cmp	r3, #1
 1151 0164 7FF755AF 		ble	.L55
 1152              	.LBE7:
 262:water_quality.c ****             
 263:water_quality.c ****         }
 264:water_quality.c ****     
 265:water_quality.c ****     }
 266:water_quality.c **** 
 267:water_quality.c ****     printNotif(NOTIF_TYPE_ERROR, "DO readings failed to converge");
 1153              		.loc 1 267 0 is_stmt 1
 1154 0168 1049     		ldr	r1, .L61+44
 1155 016a 0220     		movs	r0, #2
 1156 016c FFF7FEFF 		bl	printNotif
 268:water_quality.c ****     return 0;  
 1157              		.loc 1 268 0
 1158 0170 0023     		movs	r3, #0
 1159              	.L56:
 269:water_quality.c ****     
 270:water_quality.c **** }
 1160              		.loc 1 270 0 discriminator 3
 1161 0172 1846     		mov	r0, r3
 1162 0174 07F5FC77 		add	r7, r7, #504
 1163              		.cfi_def_cfa_offset 16
 1164 0178 BD46     		mov	sp, r7
 1165              		.cfi_def_cfa_register 13
 1166              		@ sp needed
 1167 017a B0BD     		pop	{r4, r5, r7, pc}
 1168              	.L62:
 1169 017c AFF30080 		.align	3
 1170              	.L61:
 1171 0180 9A999999 		.word	-1717986918
 1172 0184 9999A93F 		.word	1068079513
 1173 0188 9A999999 		.word	-1717986918
 1174 018c 99992240 		.word	1076009369
 1175 0190 00000000 		.word	wq_received_string
 1176 0194 00000000 		.word	.LC0
 1177 0198 60010000 		.word	.LC8
 1178 019c 6C010000 		.word	.LC9
 1179 01a0 00001041 		.word	1091567616
ARM GAS  C:\Users\klabu\AppData\Local\Temp\ccPR0mEi.s 			page 28


 1180 01a4 74010000 		.word	.LC10
 1181 01a8 98010000 		.word	.LC11
 1182 01ac D0010000 		.word	.LC12
 1183              		.cfi_endproc
 1184              	.LFE70:
 1185              		.size	DO_cal, .-DO_cal
 1186              		.global	__aeabi_fcmple
 1187              		.section	.rodata
 1188 01ef 00       		.align	2
 1189              	.LC13:
 1190 01f0 53756363 		.ascii	"Successfully calibrated temperature sensor\000"
 1190      65737366 
 1190      756C6C79 
 1190      2063616C 
 1190      69627261 
 1191 021b 00       		.align	2
 1192              	.LC14:
 1193 021c 74656D70 		.ascii	"temp reading: %f ::: Expected 100 +/- 1 C\000"
 1193      20726561 
 1193      64696E67 
 1193      3A202566 
 1193      203A3A3A 
 1194              		.section	.text.Temperature_cal,"ax",%progbits
 1195              		.align	2
 1196              		.global	Temperature_cal
 1197              		.thumb
 1198              		.thumb_func
 1199              		.type	Temperature_cal, %function
 1200              	Temperature_cal:
 1201              	.LFB71:
 271:water_quality.c **** 
 272:water_quality.c **** // ref: https://atlas-scientific.com/kits/pt-1000-temperature-kit/
 273:water_quality.c **** // EZO RTD circuit datasheet -> single point calibration
 274:water_quality.c **** // use boiling water
 275:water_quality.c **** uint8 Temperature_cal(){
 1202              		.loc 1 275 0
 1203              		.cfi_startproc
 1204              		@ args = 0, pretend = 0, frame = 504
 1205              		@ frame_needed = 1, uses_anonymous_args = 0
 1206 0000 90B5     		push	{r4, r7, lr}
 1207              		.cfi_def_cfa_offset 12
 1208              		.cfi_offset 4, -12
 1209              		.cfi_offset 7, -8
 1210              		.cfi_offset 14, -4
 1211 0002 FFB0     		sub	sp, sp, #508
 1212              		.cfi_def_cfa_offset 520
 1213 0004 00AF     		add	r7, sp, #0
 1214              		.cfi_def_cfa_register 7
 276:water_quality.c ****     wq_uart_clear(); // forget what you think you know
 1215              		.loc 1 276 0
 1216 0006 FFF7FEFF 		bl	wq_uart_clear
 1217              	.LBB11:
 277:water_quality.c ****     char excerpt[300]; // for debugging
 278:water_quality.c ****     
 279:water_quality.c ****     for (int i = 0; i < 2; i++){
 1218              		.loc 1 279 0
 1219 000a 0023     		movs	r3, #0
ARM GAS  C:\Users\klabu\AppData\Local\Temp\ccPR0mEi.s 			page 29


 1220 000c C7F8F431 		str	r3, [r7, #500]
 1221 0010 5CE0     		b	.L64
 1222              	.L70:
 1223              	.LBB12:
 280:water_quality.c ****         wq_sensors_t readings = wq_take_reading();
 1224              		.loc 1 280 0
 1225 0012 3B1D     		adds	r3, r7, #4
 1226 0014 1846     		mov	r0, r3
 1227 0016 FFF7FEFF 		bl	wq_take_reading
 1228              	.LBB13:
 281:water_quality.c ****        
 282:water_quality.c ****         for (uint i = 0; i < 300; i++){
 1229              		.loc 1 282 0
 1230 001a 0023     		movs	r3, #0
 1231 001c C7F8F031 		str	r3, [r7, #496]
 1232 0020 10E0     		b	.L65
 1233              	.L66:
 283:water_quality.c ****             excerpt[i] = wq_received_string[i];  
 1234              		.loc 1 283 0 discriminator 3
 1235 0022 394A     		ldr	r2, .L74
 1236 0024 D7F8F031 		ldr	r3, [r7, #496]
 1237 0028 1344     		add	r3, r3, r2
 1238 002a 1978     		ldrb	r1, [r3]	@ zero_extendqisi2
 1239 002c 07F1C402 		add	r2, r7, #196
 1240 0030 D7F8F031 		ldr	r3, [r7, #496]
 1241 0034 1344     		add	r3, r3, r2
 1242 0036 0A46     		mov	r2, r1
 1243 0038 1A70     		strb	r2, [r3]
 282:water_quality.c ****             excerpt[i] = wq_received_string[i];  
 1244              		.loc 1 282 0 discriminator 3
 1245 003a D7F8F031 		ldr	r3, [r7, #496]
 1246 003e 0133     		adds	r3, r3, #1
 1247 0040 C7F8F031 		str	r3, [r7, #496]
 1248              	.L65:
 282:water_quality.c ****             excerpt[i] = wq_received_string[i];  
 1249              		.loc 1 282 0 is_stmt 0 discriminator 1
 1250 0044 D7F8F031 		ldr	r3, [r7, #496]
 1251 0048 B3F5967F 		cmp	r3, #300
 1252 004c E9D3     		bcc	.L66
 1253              	.LBE13:
 284:water_quality.c ****         }
 285:water_quality.c ****         
 286:water_quality.c ****         // we did it in less than two tries so it's converging quickly as expected
 287:water_quality.c ****         // send calibration command and return 1 indicating success
 288:water_quality.c ****         // specify that reading is within one degree of 100 C
 289:water_quality.c ****         if (fabs(readings.temp_reading-100) <= 1){
 1254              		.loc 1 289 0 is_stmt 1
 1255 004e 3B1D     		adds	r3, r7, #4
 1256 0050 DB6D     		ldr	r3, [r3, #92]	@ float
 1257 0052 2E49     		ldr	r1, .L74+4
 1258 0054 1846     		mov	r0, r3
 1259 0056 FFF7FEFF 		bl	__aeabi_fsub
 1260 005a 0346     		mov	r3, r0
 1261 005c 23F00043 		bic	r3, r3, #-2147483648
 1262 0060 4FF07E51 		mov	r1, #1065353216
 1263 0064 1846     		mov	r0, r3
 1264 0066 FFF7FEFF 		bl	__aeabi_fcmple
ARM GAS  C:\Users\klabu\AppData\Local\Temp\ccPR0mEi.s 			page 30


 1265 006a 0346     		mov	r3, r0
 1266 006c 002B     		cmp	r3, #0
 1267 006e 28D0     		beq	.L73
 290:water_quality.c ****             
 291:water_quality.c ****             wq_start_talking();
 1268              		.loc 1 291 0
 1269 0070 FFF7FEFF 		bl	wq_start_talking
 292:water_quality.c ****             rx_mux_controller_Write(1);//temperature is parameter 1
 1270              		.loc 1 292 0
 1271 0074 0120     		movs	r0, #1
 1272 0076 FFF7FEFF 		bl	rx_mux_controller_Write
 293:water_quality.c ****             tx_mux_controller_Write(1); // talking and listening on the same channel
 1273              		.loc 1 293 0
 1274 007a 0120     		movs	r0, #1
 1275 007c FFF7FEFF 		bl	tx_mux_controller_Write
 294:water_quality.c ****         
 295:water_quality.c ****           
 296:water_quality.c ****             CyDelay(1000u); 
 1276              		.loc 1 296 0
 1277 0080 4FF47A70 		mov	r0, #1000
 1278 0084 FFF7FEFF 		bl	CyDelay
 297:water_quality.c ****             //
 298:water_quality.c ****             WQ_UART_PutString("C,0\r"); // turn off automated sampling
 1279              		.loc 1 298 0
 1280 0088 2148     		ldr	r0, .L74+8
 1281 008a FFF7FEFF 		bl	WQ_UART_PutString
 299:water_quality.c ****             CyDelay(1000u); 
 1282              		.loc 1 299 0
 1283 008e 4FF47A70 		mov	r0, #1000
 1284 0092 FFF7FEFF 		bl	CyDelay
 300:water_quality.c ****             WQ_UART_PutString("Cal,clear\r"); // clear existing calibration data
 1285              		.loc 1 300 0
 1286 0096 1F48     		ldr	r0, .L74+12
 1287 0098 FFF7FEFF 		bl	WQ_UART_PutString
 301:water_quality.c ****             CyDelay(1000u);
 1288              		.loc 1 301 0
 1289 009c 4FF47A70 		mov	r0, #1000
 1290 00a0 FFF7FEFF 		bl	CyDelay
 302:water_quality.c ****             WQ_UART_PutString("Cal\r"); // temperature is currently reading correctly
 1291              		.loc 1 302 0
 1292 00a4 1C48     		ldr	r0, .L74+16
 1293 00a6 FFF7FEFF 		bl	WQ_UART_PutString
 303:water_quality.c **** 
 304:water_quality.c ****             CyDelay(2000u); 
 1294              		.loc 1 304 0
 1295 00aa 4FF4FA60 		mov	r0, #2000
 1296 00ae FFF7FEFF 		bl	CyDelay
 305:water_quality.c ****             wq_stop_talking();
 1297              		.loc 1 305 0
 1298 00b2 FFF7FEFF 		bl	wq_stop_talking
 306:water_quality.c **** 
 307:water_quality.c ****             printNotif(NOTIF_TYPE_EVENT, "Successfully calibrated temperature sensor");
 1299              		.loc 1 307 0
 1300 00b6 1949     		ldr	r1, .L74+20
 1301 00b8 0020     		movs	r0, #0
 1302 00ba FFF7FEFF 		bl	printNotif
 308:water_quality.c ****             return 1;
ARM GAS  C:\Users\klabu\AppData\Local\Temp\ccPR0mEi.s 			page 31


 1303              		.loc 1 308 0
 1304 00be 0123     		movs	r3, #1
 1305 00c0 1CE0     		b	.L71
 1306              	.L73:
 1307              	.LBE12:
 279:water_quality.c ****         wq_sensors_t readings = wq_take_reading();
 1308              		.loc 1 279 0
 1309 00c2 D7F8F431 		ldr	r3, [r7, #500]
 1310 00c6 0133     		adds	r3, r3, #1
 1311 00c8 C7F8F431 		str	r3, [r7, #500]
 1312              	.L64:
 279:water_quality.c ****         wq_sensors_t readings = wq_take_reading();
 1313              		.loc 1 279 0 is_stmt 0 discriminator 1
 1314 00cc D7F8F431 		ldr	r3, [r7, #500]
 1315 00d0 012B     		cmp	r3, #1
 1316 00d2 9EDD     		ble	.L70
 1317              	.LBE11:
 309:water_quality.c ****             
 310:water_quality.c ****         }
 311:water_quality.c ****     
 312:water_quality.c ****     }
 313:water_quality.c ****     wq_sensors_t readings = wq_take_reading();
 1318              		.loc 1 313 0 is_stmt 1
 1319 00d4 07F16403 		add	r3, r7, #100
 1320 00d8 1846     		mov	r0, r3
 1321 00da FFF7FEFF 		bl	wq_take_reading
 314:water_quality.c ****     // if we didn't get what we expected, let us know what we did get
 315:water_quality.c ****     printNotif(NOTIF_TYPE_ERROR, "temp reading: %f ::: Expected 100 +/- 1 C", readings.temp_reading
 1322              		.loc 1 315 0
 1323 00de 07F16403 		add	r3, r7, #100
 1324 00e2 DB6D     		ldr	r3, [r3, #92]	@ float
 1325 00e4 1846     		mov	r0, r3
 1326 00e6 FFF7FEFF 		bl	__aeabi_f2d
 1327 00ea 0346     		mov	r3, r0
 1328 00ec 0C46     		mov	r4, r1
 1329 00ee 1A46     		mov	r2, r3
 1330 00f0 2346     		mov	r3, r4
 1331 00f2 0B49     		ldr	r1, .L74+24
 1332 00f4 0220     		movs	r0, #2
 1333 00f6 FFF7FEFF 		bl	printNotif
 316:water_quality.c ****     return 0; 
 1334              		.loc 1 316 0
 1335 00fa 0023     		movs	r3, #0
 1336              	.L71:
 317:water_quality.c **** 
 318:water_quality.c **** }
 1337              		.loc 1 318 0 discriminator 1
 1338 00fc 1846     		mov	r0, r3
 1339 00fe 07F5FE77 		add	r7, r7, #508
 1340              		.cfi_def_cfa_offset 12
 1341 0102 BD46     		mov	sp, r7
 1342              		.cfi_def_cfa_register 13
 1343              		@ sp needed
 1344 0104 90BD     		pop	{r4, r7, pc}
 1345              	.L75:
 1346 0106 00BF     		.align	2
 1347              	.L74:
ARM GAS  C:\Users\klabu\AppData\Local\Temp\ccPR0mEi.s 			page 32


 1348 0108 00000000 		.word	wq_received_string
 1349 010c 0000C842 		.word	1120403456
 1350 0110 00000000 		.word	.LC0
 1351 0114 60010000 		.word	.LC8
 1352 0118 6C010000 		.word	.LC9
 1353 011c F0010000 		.word	.LC13
 1354 0120 1C020000 		.word	.LC14
 1355              		.cfi_endproc
 1356              	.LFE71:
 1357              		.size	Temperature_cal, .-Temperature_cal
 1358              		.global	__aeabi_fadd
 1359              		.global	__aeabi_fdiv
 1360              		.section	.text.float_find_median,"ax",%progbits
 1361              		.align	2
 1362              		.global	float_find_median
 1363              		.thumb
 1364              		.thumb_func
 1365              		.type	float_find_median, %function
 1366              	float_find_median:
 1367              	.LFB72:
 319:water_quality.c **** 
 320:water_quality.c **** // code for finding medians "duplicated" from level_sensor because we need *floats* not *longs*
 321:water_quality.c **** // function to calculate the median of the array, after array is sorted
 322:water_quality.c **** float32 float_find_median(float32 array[] , uint8 n){
 1368              		.loc 1 322 0
 1369              		.cfi_startproc
 1370              		@ args = 0, pretend = 0, frame = 16
 1371              		@ frame_needed = 1, uses_anonymous_args = 0
 1372 0000 80B5     		push	{r7, lr}
 1373              		.cfi_def_cfa_offset 8
 1374              		.cfi_offset 7, -8
 1375              		.cfi_offset 14, -4
 1376 0002 84B0     		sub	sp, sp, #16
 1377              		.cfi_def_cfa_offset 24
 1378 0004 00AF     		add	r7, sp, #0
 1379              		.cfi_def_cfa_register 7
 1380 0006 7860     		str	r0, [r7, #4]
 1381 0008 0B46     		mov	r3, r1
 1382 000a FB70     		strb	r3, [r7, #3]
 323:water_quality.c ****     float32 median=0;
 1383              		.loc 1 323 0
 1384 000c 4FF00003 		mov	r3, #0
 1385 0010 FB60     		str	r3, [r7, #12]	@ float
 324:water_quality.c ****     fsort(array,n);
 1386              		.loc 1 324 0
 1387 0012 FB78     		ldrb	r3, [r7, #3]	@ zero_extendqisi2
 1388 0014 1946     		mov	r1, r3
 1389 0016 7868     		ldr	r0, [r7, #4]
 1390 0018 FFF7FEFF 		bl	fsort
 325:water_quality.c ****     
 326:water_quality.c ****     // if number of elements are even
 327:water_quality.c ****     if(n%2 == 0)
 1391              		.loc 1 327 0
 1392 001c FB78     		ldrb	r3, [r7, #3]
 1393 001e 03F00103 		and	r3, r3, #1
 1394 0022 DBB2     		uxtb	r3, r3
 1395 0024 002B     		cmp	r3, #0
ARM GAS  C:\Users\klabu\AppData\Local\Temp\ccPR0mEi.s 			page 33


 1396 0026 1BD1     		bne	.L77
 328:water_quality.c ****         // median is the average of the  two middle sorted numbers
 329:water_quality.c ****         median = (array[(n-1)/2] + array[n/2])/2.0;
 1397              		.loc 1 329 0
 1398 0028 FB78     		ldrb	r3, [r7, #3]	@ zero_extendqisi2
 1399 002a 013B     		subs	r3, r3, #1
 1400 002c DA0F     		lsrs	r2, r3, #31
 1401 002e 1344     		add	r3, r3, r2
 1402 0030 5B10     		asrs	r3, r3, #1
 1403 0032 9B00     		lsls	r3, r3, #2
 1404 0034 7A68     		ldr	r2, [r7, #4]
 1405 0036 1344     		add	r3, r3, r2
 1406 0038 1868     		ldr	r0, [r3]	@ float
 1407 003a FB78     		ldrb	r3, [r7, #3]	@ zero_extendqisi2
 1408 003c 5B08     		lsrs	r3, r3, #1
 1409 003e DBB2     		uxtb	r3, r3
 1410 0040 9B00     		lsls	r3, r3, #2
 1411 0042 7A68     		ldr	r2, [r7, #4]
 1412 0044 1344     		add	r3, r3, r2
 1413 0046 1B68     		ldr	r3, [r3]	@ float
 1414 0048 1946     		mov	r1, r3
 1415 004a FFF7FEFF 		bl	__aeabi_fadd
 1416 004e 0346     		mov	r3, r0
 1417 0050 4FF08041 		mov	r1, #1073741824
 1418 0054 1846     		mov	r0, r3
 1419 0056 FFF7FEFF 		bl	__aeabi_fdiv
 1420 005a 0346     		mov	r3, r0
 1421 005c FB60     		str	r3, [r7, #12]	@ float
 1422 005e 07E0     		b	.L78
 1423              	.L77:
 330:water_quality.c ****     // if number of elements are odd
 331:water_quality.c ****     else
 332:water_quality.c ****         // median is the the middle sorted number 
 333:water_quality.c ****         median = array[n/2];
 1424              		.loc 1 333 0
 1425 0060 FB78     		ldrb	r3, [r7, #3]	@ zero_extendqisi2
 1426 0062 5B08     		lsrs	r3, r3, #1
 1427 0064 DBB2     		uxtb	r3, r3
 1428 0066 9B00     		lsls	r3, r3, #2
 1429 0068 7A68     		ldr	r2, [r7, #4]
 1430 006a 1344     		add	r3, r3, r2
 1431 006c 1B68     		ldr	r3, [r3]	@ float
 1432 006e FB60     		str	r3, [r7, #12]	@ float
 1433              	.L78:
 334:water_quality.c ****     
 335:water_quality.c ****     return median;
 1434              		.loc 1 335 0
 1435 0070 FB68     		ldr	r3, [r7, #12]	@ float
 336:water_quality.c **** }
 1436              		.loc 1 336 0
 1437 0072 1846     		mov	r0, r3
 1438 0074 1037     		adds	r7, r7, #16
 1439              		.cfi_def_cfa_offset 8
 1440 0076 BD46     		mov	sp, r7
 1441              		.cfi_def_cfa_register 13
 1442              		@ sp needed
 1443 0078 80BD     		pop	{r7, pc}
ARM GAS  C:\Users\klabu\AppData\Local\Temp\ccPR0mEi.s 			page 34


 1444              		.cfi_endproc
 1445              	.LFE72:
 1446              		.size	float_find_median, .-float_find_median
 1447 007a 00BF     		.section	.text.fsort,"ax",%progbits
 1448              		.align	2
 1449              		.global	fsort
 1450              		.thumb
 1451              		.thumb_func
 1452              		.type	fsort, %function
 1453              	fsort:
 1454              	.LFB73:
 337:water_quality.c **** 
 338:water_quality.c **** // function to sort the elements in the level readings array
 339:water_quality.c **** void fsort(float32 a[],uint8 n) { 
 1455              		.loc 1 339 0
 1456              		.cfi_startproc
 1457              		@ args = 0, pretend = 0, frame = 16
 1458              		@ frame_needed = 1, uses_anonymous_args = 0
 1459 0000 80B5     		push	{r7, lr}
 1460              		.cfi_def_cfa_offset 8
 1461              		.cfi_offset 7, -8
 1462              		.cfi_offset 14, -4
 1463 0002 84B0     		sub	sp, sp, #16
 1464              		.cfi_def_cfa_offset 24
 1465 0004 00AF     		add	r7, sp, #0
 1466              		.cfi_def_cfa_register 7
 1467 0006 7860     		str	r0, [r7, #4]
 1468 0008 0B46     		mov	r3, r1
 1469 000a FB70     		strb	r3, [r7, #3]
 340:water_quality.c ****    uint8 i,j;
 341:water_quality.c **** 
 342:water_quality.c ****    for(i = 0;i < n-1;i++) {
 1470              		.loc 1 342 0
 1471 000c 0023     		movs	r3, #0
 1472 000e FB73     		strb	r3, [r7, #15]
 1473 0010 2CE0     		b	.L81
 1474              	.L86:
 343:water_quality.c ****       for(j = 0;j < n-i-1;j++) {
 1475              		.loc 1 343 0
 1476 0012 0023     		movs	r3, #0
 1477 0014 BB73     		strb	r3, [r7, #14]
 1478 0016 1FE0     		b	.L82
 1479              	.L85:
 344:water_quality.c ****          if(a[j] > a[j+1])
 1480              		.loc 1 344 0
 1481 0018 BB7B     		ldrb	r3, [r7, #14]	@ zero_extendqisi2
 1482 001a 9B00     		lsls	r3, r3, #2
 1483 001c 7A68     		ldr	r2, [r7, #4]
 1484 001e 1344     		add	r3, r3, r2
 1485 0020 1868     		ldr	r0, [r3]	@ float
 1486 0022 BB7B     		ldrb	r3, [r7, #14]	@ zero_extendqisi2
 1487 0024 0133     		adds	r3, r3, #1
 1488 0026 9B00     		lsls	r3, r3, #2
 1489 0028 7A68     		ldr	r2, [r7, #4]
 1490 002a 1344     		add	r3, r3, r2
 1491 002c 1B68     		ldr	r3, [r3]	@ float
 1492 002e 1946     		mov	r1, r3
ARM GAS  C:\Users\klabu\AppData\Local\Temp\ccPR0mEi.s 			page 35


 1493 0030 FFF7FEFF 		bl	__aeabi_fcmpgt
 1494 0034 0346     		mov	r3, r0
 1495 0036 002B     		cmp	r3, #0
 1496 0038 0BD0     		beq	.L83
 345:water_quality.c ****             fswap(&a[j],&a[j+1]); // swap the address of a[j] and a[j+1]
 1497              		.loc 1 345 0
 1498 003a BB7B     		ldrb	r3, [r7, #14]	@ zero_extendqisi2
 1499 003c 9B00     		lsls	r3, r3, #2
 1500 003e 7A68     		ldr	r2, [r7, #4]
 1501 0040 D018     		adds	r0, r2, r3
 1502 0042 BB7B     		ldrb	r3, [r7, #14]	@ zero_extendqisi2
 1503 0044 0133     		adds	r3, r3, #1
 1504 0046 9B00     		lsls	r3, r3, #2
 1505 0048 7A68     		ldr	r2, [r7, #4]
 1506 004a 1344     		add	r3, r3, r2
 1507 004c 1946     		mov	r1, r3
 1508 004e FFF7FEFF 		bl	fswap
 1509              	.L83:
 343:water_quality.c ****       for(j = 0;j < n-i-1;j++) {
 1510              		.loc 1 343 0 discriminator 2
 1511 0052 BB7B     		ldrb	r3, [r7, #14]	@ zero_extendqisi2
 1512 0054 0133     		adds	r3, r3, #1
 1513 0056 BB73     		strb	r3, [r7, #14]
 1514              	.L82:
 343:water_quality.c ****       for(j = 0;j < n-i-1;j++) {
 1515              		.loc 1 343 0 is_stmt 0 discriminator 1
 1516 0058 BA7B     		ldrb	r2, [r7, #14]	@ zero_extendqisi2
 1517 005a F978     		ldrb	r1, [r7, #3]	@ zero_extendqisi2
 1518 005c FB7B     		ldrb	r3, [r7, #15]	@ zero_extendqisi2
 1519 005e CB1A     		subs	r3, r1, r3
 1520 0060 013B     		subs	r3, r3, #1
 1521 0062 9A42     		cmp	r2, r3
 1522 0064 D8DB     		blt	.L85
 342:water_quality.c ****       for(j = 0;j < n-i-1;j++) {
 1523              		.loc 1 342 0 is_stmt 1 discriminator 2
 1524 0066 FB7B     		ldrb	r3, [r7, #15]	@ zero_extendqisi2
 1525 0068 0133     		adds	r3, r3, #1
 1526 006a FB73     		strb	r3, [r7, #15]
 1527              	.L81:
 342:water_quality.c ****       for(j = 0;j < n-i-1;j++) {
 1528              		.loc 1 342 0 is_stmt 0 discriminator 1
 1529 006c FA7B     		ldrb	r2, [r7, #15]	@ zero_extendqisi2
 1530 006e FB78     		ldrb	r3, [r7, #3]	@ zero_extendqisi2
 1531 0070 013B     		subs	r3, r3, #1
 1532 0072 9A42     		cmp	r2, r3
 1533 0074 CDDB     		blt	.L86
 346:water_quality.c ****       }
 347:water_quality.c ****    }
 348:water_quality.c **** }
 1534              		.loc 1 348 0 is_stmt 1
 1535 0076 00BF     		nop
 1536 0078 1037     		adds	r7, r7, #16
 1537              		.cfi_def_cfa_offset 8
 1538 007a BD46     		mov	sp, r7
 1539              		.cfi_def_cfa_register 13
 1540              		@ sp needed
 1541 007c 80BD     		pop	{r7, pc}
ARM GAS  C:\Users\klabu\AppData\Local\Temp\ccPR0mEi.s 			page 36


 1542              		.cfi_endproc
 1543              	.LFE73:
 1544              		.size	fsort, .-fsort
 1545 007e 00BF     		.section	.text.fswap,"ax",%progbits
 1546              		.align	2
 1547              		.global	fswap
 1548              		.thumb
 1549              		.thumb_func
 1550              		.type	fswap, %function
 1551              	fswap:
 1552              	.LFB74:
 349:water_quality.c **** 
 350:water_quality.c **** // function to swap elements in the level readings array in order to sort them
 351:water_quality.c **** void fswap(float32 *p,float32 *q) {
 1553              		.loc 1 351 0
 1554              		.cfi_startproc
 1555              		@ args = 0, pretend = 0, frame = 16
 1556              		@ frame_needed = 1, uses_anonymous_args = 0
 1557              		@ link register save eliminated.
 1558 0000 80B4     		push	{r7}
 1559              		.cfi_def_cfa_offset 4
 1560              		.cfi_offset 7, -4
 1561 0002 85B0     		sub	sp, sp, #20
 1562              		.cfi_def_cfa_offset 24
 1563 0004 00AF     		add	r7, sp, #0
 1564              		.cfi_def_cfa_register 7
 1565 0006 7860     		str	r0, [r7, #4]
 1566 0008 3960     		str	r1, [r7]
 352:water_quality.c ****    float32 t;
 353:water_quality.c ****    
 354:water_quality.c ****    t=*p; 
 1567              		.loc 1 354 0
 1568 000a 7B68     		ldr	r3, [r7, #4]
 1569 000c 1B68     		ldr	r3, [r3]	@ float
 1570 000e FB60     		str	r3, [r7, #12]	@ float
 355:water_quality.c ****    *p=*q; 
 1571              		.loc 1 355 0
 1572 0010 3B68     		ldr	r3, [r7]
 1573 0012 1A68     		ldr	r2, [r3]	@ float
 1574 0014 7B68     		ldr	r3, [r7, #4]
 1575 0016 1A60     		str	r2, [r3]	@ float
 356:water_quality.c ****    *q=t;
 1576              		.loc 1 356 0
 1577 0018 3B68     		ldr	r3, [r7]
 1578 001a FA68     		ldr	r2, [r7, #12]	@ float
 1579 001c 1A60     		str	r2, [r3]	@ float
 357:water_quality.c **** }
 1580              		.loc 1 357 0
 1581 001e 00BF     		nop
 1582 0020 1437     		adds	r7, r7, #20
 1583              		.cfi_def_cfa_offset 4
 1584 0022 BD46     		mov	sp, r7
 1585              		.cfi_def_cfa_register 13
 1586              		@ sp needed
 1587 0024 80BC     		pop	{r7}
 1588              		.cfi_restore 7
 1589              		.cfi_def_cfa_offset 0
ARM GAS  C:\Users\klabu\AppData\Local\Temp\ccPR0mEi.s 			page 37


 1590 0026 7047     		bx	lr
 1591              		.cfi_endproc
 1592              	.LFE74:
 1593              		.size	fswap, .-fswap
 1594              		.text
 1595              	.Letext0:
 1596              		.file 2 "c:\\program files (x86)\\cypress\\psoc creator\\4.4\\psoc creator\\import\\gnu\\arm\\5.4.
 1597              		.file 3 "c:\\program files (x86)\\cypress\\psoc creator\\4.4\\psoc creator\\import\\gnu\\arm\\5.4.
 1598              		.file 4 "Generated_Source\\PSoC5/cytypes.h"
 1599              		.file 5 "c:\\program files (x86)\\cypress\\psoc creator\\4.4\\psoc creator\\import\\gnu\\arm\\5.4.
 1600              		.file 6 "testing.h"
 1601              		.file 7 "data.h"
 1602              		.file 8 "modem.h"
 1603              		.file 9 "water_quality.h"
 1604              		.file 10 "notoriOS.h"
 1605              		.file 11 "Generated_Source\\PSoC5/core_cm3.h"
 1606              		.section	.debug_info,"",%progbits
 1607              	.Ldebug_info0:
 1608 0000 BE080000 		.4byte	0x8be
 1609 0004 0400     		.2byte	0x4
 1610 0006 00000000 		.4byte	.Ldebug_abbrev0
 1611 000a 04       		.byte	0x4
 1612 000b 01       		.uleb128 0x1
 1613 000c 96000000 		.4byte	.LASF107
 1614 0010 0C       		.byte	0xc
 1615 0011 77010000 		.4byte	.LASF108
 1616 0015 43030000 		.4byte	.LASF109
 1617 0019 00000000 		.4byte	.Ldebug_ranges0+0
 1618 001d 00000000 		.4byte	0
 1619 0021 00000000 		.4byte	.Ldebug_line0
 1620 0025 02       		.uleb128 0x2
 1621 0026 01       		.byte	0x1
 1622 0027 06       		.byte	0x6
 1623 0028 F0020000 		.4byte	.LASF0
 1624 002c 02       		.uleb128 0x2
 1625 002d 01       		.byte	0x1
 1626 002e 08       		.byte	0x8
 1627 002f 9A020000 		.4byte	.LASF1
 1628 0033 02       		.uleb128 0x2
 1629 0034 02       		.byte	0x2
 1630 0035 05       		.byte	0x5
 1631 0036 7B000000 		.4byte	.LASF2
 1632 003a 02       		.uleb128 0x2
 1633 003b 02       		.byte	0x2
 1634 003c 07       		.byte	0x7
 1635 003d E6030000 		.4byte	.LASF3
 1636 0041 03       		.uleb128 0x3
 1637 0042 12050000 		.4byte	.LASF9
 1638 0046 02       		.byte	0x2
 1639 0047 3F       		.byte	0x3f
 1640 0048 4C000000 		.4byte	0x4c
 1641 004c 02       		.uleb128 0x2
 1642 004d 04       		.byte	0x4
 1643 004e 05       		.byte	0x5
 1644 004f 0B020000 		.4byte	.LASF4
 1645 0053 02       		.uleb128 0x2
 1646 0054 04       		.byte	0x4
ARM GAS  C:\Users\klabu\AppData\Local\Temp\ccPR0mEi.s 			page 38


 1647 0055 07       		.byte	0x7
 1648 0056 BA040000 		.4byte	.LASF5
 1649 005a 02       		.uleb128 0x2
 1650 005b 08       		.byte	0x8
 1651 005c 05       		.byte	0x5
 1652 005d D4010000 		.4byte	.LASF6
 1653 0061 02       		.uleb128 0x2
 1654 0062 08       		.byte	0x8
 1655 0063 07       		.byte	0x7
 1656 0064 E2010000 		.4byte	.LASF7
 1657 0068 04       		.uleb128 0x4
 1658 0069 04       		.byte	0x4
 1659 006a 05       		.byte	0x5
 1660 006b 696E7400 		.ascii	"int\000"
 1661 006f 02       		.uleb128 0x2
 1662 0070 04       		.byte	0x4
 1663 0071 07       		.byte	0x7
 1664 0072 2A030000 		.4byte	.LASF8
 1665 0076 03       		.uleb128 0x3
 1666 0077 49040000 		.4byte	.LASF10
 1667 007b 03       		.byte	0x3
 1668 007c 2C       		.byte	0x2c
 1669 007d 41000000 		.4byte	0x41
 1670 0081 05       		.uleb128 0x5
 1671 0082 71010000 		.4byte	.LASF11
 1672 0086 04       		.byte	0x4
 1673 0087 9201     		.2byte	0x192
 1674 0089 2C000000 		.4byte	0x2c
 1675 008d 05       		.uleb128 0x5
 1676 008e 58010000 		.4byte	.LASF12
 1677 0092 04       		.byte	0x4
 1678 0093 9301     		.2byte	0x193
 1679 0095 3A000000 		.4byte	0x3a
 1680 0099 05       		.uleb128 0x5
 1681 009a F9010000 		.4byte	.LASF13
 1682 009e 04       		.byte	0x4
 1683 009f 9601     		.2byte	0x196
 1684 00a1 33000000 		.4byte	0x33
 1685 00a5 05       		.uleb128 0x5
 1686 00a6 CE010000 		.4byte	.LASF14
 1687 00aa 04       		.byte	0x4
 1688 00ab 9701     		.2byte	0x197
 1689 00ad 4C000000 		.4byte	0x4c
 1690 00b1 05       		.uleb128 0x5
 1691 00b2 47000000 		.4byte	.LASF15
 1692 00b6 04       		.byte	0x4
 1693 00b7 9801     		.2byte	0x198
 1694 00b9 BD000000 		.4byte	0xbd
 1695 00bd 02       		.uleb128 0x2
 1696 00be 04       		.byte	0x4
 1697 00bf 04       		.byte	0x4
 1698 00c0 09000000 		.4byte	.LASF16
 1699 00c4 02       		.uleb128 0x2
 1700 00c5 08       		.byte	0x8
 1701 00c6 04       		.byte	0x4
 1702 00c7 CC040000 		.4byte	.LASF17
 1703 00cb 02       		.uleb128 0x2
ARM GAS  C:\Users\klabu\AppData\Local\Temp\ccPR0mEi.s 			page 39


 1704 00cc 01       		.byte	0x1
 1705 00cd 08       		.byte	0x8
 1706 00ce FF010000 		.4byte	.LASF18
 1707 00d2 02       		.uleb128 0x2
 1708 00d3 08       		.byte	0x8
 1709 00d4 04       		.byte	0x4
 1710 00d5 8E020000 		.4byte	.LASF19
 1711 00d9 02       		.uleb128 0x2
 1712 00da 04       		.byte	0x4
 1713 00db 07       		.byte	0x7
 1714 00dc 85000000 		.4byte	.LASF20
 1715 00e0 06       		.uleb128 0x6
 1716 00e1 04       		.byte	0x4
 1717 00e2 CB000000 		.4byte	0xcb
 1718 00e6 07       		.uleb128 0x7
 1719 00e7 CB000000 		.4byte	0xcb
 1720 00eb F6000000 		.4byte	0xf6
 1721 00ef 08       		.uleb128 0x8
 1722 00f0 D9000000 		.4byte	0xd9
 1723 00f4 17       		.byte	0x17
 1724 00f5 00       		.byte	0
 1725 00f6 03       		.uleb128 0x3
 1726 00f7 42010000 		.4byte	.LASF21
 1727 00fb 05       		.byte	0x5
 1728 00fc 6C       		.byte	0x6c
 1729 00fd 6F000000 		.4byte	0x6f
 1730 0101 09       		.uleb128 0x9
 1731 0102 8101     		.2byte	0x181
 1732 0104 06       		.byte	0x6
 1733 0105 0A       		.byte	0xa
 1734 0106 2F010000 		.4byte	0x12f
 1735 010a 0A       		.uleb128 0xa
 1736 010b 47050000 		.4byte	.LASF22
 1737 010f 06       		.byte	0x6
 1738 0110 0C       		.byte	0xc
 1739 0111 2F010000 		.4byte	0x12f
 1740 0115 00       		.byte	0
 1741 0116 0A       		.uleb128 0xa
 1742 0117 11040000 		.4byte	.LASF23
 1743 011b 06       		.byte	0x6
 1744 011c 0D       		.byte	0xd
 1745 011d 81000000 		.4byte	0x81
 1746 0121 80       		.byte	0x80
 1747 0122 0A       		.uleb128 0xa
 1748 0123 04020000 		.4byte	.LASF24
 1749 0127 06       		.byte	0x6
 1750 0128 0F       		.byte	0xf
 1751 0129 3F010000 		.4byte	0x13f
 1752 012d 81       		.byte	0x81
 1753 012e 00       		.byte	0
 1754 012f 07       		.uleb128 0x7
 1755 0130 CB000000 		.4byte	0xcb
 1756 0134 3F010000 		.4byte	0x13f
 1757 0138 08       		.uleb128 0x8
 1758 0139 D9000000 		.4byte	0xd9
 1759 013d 7F       		.byte	0x7f
 1760 013e 00       		.byte	0
ARM GAS  C:\Users\klabu\AppData\Local\Temp\ccPR0mEi.s 			page 40


 1761 013f 07       		.uleb128 0x7
 1762 0140 CB000000 		.4byte	0xcb
 1763 0144 4F010000 		.4byte	0x14f
 1764 0148 08       		.uleb128 0x8
 1765 0149 D9000000 		.4byte	0xd9
 1766 014d FF       		.byte	0xff
 1767 014e 00       		.byte	0
 1768 014f 03       		.uleb128 0x3
 1769 0150 40050000 		.4byte	.LASF25
 1770 0154 06       		.byte	0x6
 1771 0155 10       		.byte	0x10
 1772 0156 01010000 		.4byte	0x101
 1773 015a 0B       		.uleb128 0xb
 1774 015b 2C       		.byte	0x2c
 1775 015c 07       		.byte	0x7
 1776 015d 14       		.byte	0x14
 1777 015e 87010000 		.4byte	0x187
 1778 0162 0C       		.uleb128 0xc
 1779 0163 6B657900 		.ascii	"key\000"
 1780 0167 07       		.byte	0x7
 1781 0168 15       		.byte	0x15
 1782 0169 87010000 		.4byte	0x187
 1783 016d 00       		.byte	0
 1784 016e 0A       		.uleb128 0xa
 1785 016f 52010000 		.4byte	.LASF26
 1786 0173 07       		.byte	0x7
 1787 0174 16       		.byte	0x16
 1788 0175 87010000 		.4byte	0x187
 1789 0179 14       		.byte	0x14
 1790 017a 0A       		.uleb128 0xa
 1791 017b 9E010000 		.4byte	.LASF27
 1792 017f 07       		.byte	0x7
 1793 0180 17       		.byte	0x17
 1794 0181 A5000000 		.4byte	0xa5
 1795 0185 28       		.byte	0x28
 1796 0186 00       		.byte	0
 1797 0187 07       		.uleb128 0x7
 1798 0188 CB000000 		.4byte	0xcb
 1799 018c 97010000 		.4byte	0x197
 1800 0190 08       		.uleb128 0x8
 1801 0191 D9000000 		.4byte	0xd9
 1802 0195 13       		.byte	0x13
 1803 0196 00       		.byte	0
 1804 0197 03       		.uleb128 0x3
 1805 0198 37030000 		.4byte	.LASF28
 1806 019c 07       		.byte	0x7
 1807 019d 19       		.byte	0x19
 1808 019e 5A010000 		.4byte	0x15a
 1809 01a2 0B       		.uleb128 0xb
 1810 01a3 3C       		.byte	0x3c
 1811 01a4 08       		.byte	0x8
 1812 01a5 37       		.byte	0x37
 1813 01a6 CF010000 		.4byte	0x1cf
 1814 01aa 0A       		.uleb128 0xa
 1815 01ab 0F000000 		.4byte	.LASF29
 1816 01af 08       		.byte	0x8
 1817 01b0 38       		.byte	0x38
ARM GAS  C:\Users\klabu\AppData\Local\Temp\ccPR0mEi.s 			page 41


 1818 01b1 87010000 		.4byte	0x187
 1819 01b5 00       		.byte	0
 1820 01b6 0A       		.uleb128 0xa
 1821 01b7 00000000 		.4byte	.LASF30
 1822 01bb 08       		.byte	0x8
 1823 01bc 39       		.byte	0x39
 1824 01bd 87010000 		.4byte	0x187
 1825 01c1 14       		.byte	0x14
 1826 01c2 0A       		.uleb128 0xa
 1827 01c3 44040000 		.4byte	.LASF31
 1828 01c7 08       		.byte	0x8
 1829 01c8 3A       		.byte	0x3a
 1830 01c9 87010000 		.4byte	0x187
 1831 01cd 28       		.byte	0x28
 1832 01ce 00       		.byte	0
 1833 01cf 03       		.uleb128 0x3
 1834 01d0 F7040000 		.4byte	.LASF32
 1835 01d4 08       		.byte	0x8
 1836 01d5 3C       		.byte	0x3c
 1837 01d6 A2010000 		.4byte	0x1a2
 1838 01da 0B       		.uleb128 0xb
 1839 01db 20       		.byte	0x20
 1840 01dc 08       		.byte	0x8
 1841 01dd 3E       		.byte	0x3e
 1842 01de 43020000 		.4byte	0x243
 1843 01e2 0A       		.uleb128 0xa
 1844 01e3 CC030000 		.4byte	.LASF33
 1845 01e7 08       		.byte	0x8
 1846 01e8 3F       		.byte	0x3f
 1847 01e9 68000000 		.4byte	0x68
 1848 01ed 00       		.byte	0
 1849 01ee 0C       		.uleb128 0xc
 1850 01ef 62657200 		.ascii	"ber\000"
 1851 01f3 08       		.byte	0x8
 1852 01f4 40       		.byte	0x40
 1853 01f5 68000000 		.4byte	0x68
 1854 01f9 04       		.byte	0x4
 1855 01fa 0A       		.uleb128 0xa
 1856 01fb 99010000 		.4byte	.LASF34
 1857 01ff 08       		.byte	0x8
 1858 0200 41       		.byte	0x41
 1859 0201 68000000 		.4byte	0x68
 1860 0205 08       		.byte	0x8
 1861 0206 0A       		.uleb128 0xa
 1862 0207 4D010000 		.4byte	.LASF35
 1863 020b 08       		.byte	0x8
 1864 020c 42       		.byte	0x42
 1865 020d 68000000 		.4byte	0x68
 1866 0211 0C       		.byte	0xc
 1867 0212 0A       		.uleb128 0xa
 1868 0213 8F040000 		.4byte	.LASF36
 1869 0217 08       		.byte	0x8
 1870 0218 43       		.byte	0x43
 1871 0219 68000000 		.4byte	0x68
 1872 021d 10       		.byte	0x10
 1873 021e 0A       		.uleb128 0xa
 1874 021f B8020000 		.4byte	.LASF37
ARM GAS  C:\Users\klabu\AppData\Local\Temp\ccPR0mEi.s 			page 42


 1875 0223 08       		.byte	0x8
 1876 0224 44       		.byte	0x44
 1877 0225 68000000 		.4byte	0x68
 1878 0229 14       		.byte	0x14
 1879 022a 0A       		.uleb128 0xa
 1880 022b F9030000 		.4byte	.LASF38
 1881 022f 08       		.byte	0x8
 1882 0230 45       		.byte	0x45
 1883 0231 68000000 		.4byte	0x68
 1884 0235 18       		.byte	0x18
 1885 0236 0A       		.uleb128 0xa
 1886 0237 24040000 		.4byte	.LASF39
 1887 023b 08       		.byte	0x8
 1888 023c 46       		.byte	0x46
 1889 023d 68000000 		.4byte	0x68
 1890 0241 1C       		.byte	0x1c
 1891 0242 00       		.byte	0
 1892 0243 03       		.uleb128 0x3
 1893 0244 57040000 		.4byte	.LASF40
 1894 0248 08       		.byte	0x8
 1895 0249 48       		.byte	0x48
 1896 024a DA010000 		.4byte	0x1da
 1897 024e 0B       		.uleb128 0xb
 1898 024f 05       		.byte	0x5
 1899 0250 08       		.byte	0x8
 1900 0251 54       		.byte	0x54
 1901 0252 93020000 		.4byte	0x293
 1902 0256 0A       		.uleb128 0xa
 1903 0257 8E050000 		.4byte	.LASF41
 1904 025b 08       		.byte	0x8
 1905 025c 56       		.byte	0x56
 1906 025d 81000000 		.4byte	0x81
 1907 0261 00       		.byte	0
 1908 0262 0A       		.uleb128 0xa
 1909 0263 D2030000 		.4byte	.LASF42
 1910 0267 08       		.byte	0x8
 1911 0268 58       		.byte	0x58
 1912 0269 93020000 		.4byte	0x293
 1913 026d 01       		.byte	0x1
 1914 026e 0A       		.uleb128 0xa
 1915 026f 6C020000 		.4byte	.LASF43
 1916 0273 08       		.byte	0x8
 1917 0274 5A       		.byte	0x5a
 1918 0275 81000000 		.4byte	0x81
 1919 0279 02       		.byte	0x2
 1920 027a 0A       		.uleb128 0xa
 1921 027b 81030000 		.4byte	.LASF44
 1922 027f 08       		.byte	0x8
 1923 0280 5C       		.byte	0x5c
 1924 0281 81000000 		.4byte	0x81
 1925 0285 03       		.byte	0x3
 1926 0286 0A       		.uleb128 0xa
 1927 0287 EB040000 		.4byte	.LASF45
 1928 028b 08       		.byte	0x8
 1929 028c 5F       		.byte	0x5f
 1930 028d 81000000 		.4byte	0x81
 1931 0291 04       		.byte	0x4
ARM GAS  C:\Users\klabu\AppData\Local\Temp\ccPR0mEi.s 			page 43


 1932 0292 00       		.byte	0
 1933 0293 02       		.uleb128 0x2
 1934 0294 01       		.byte	0x1
 1935 0295 02       		.byte	0x2
 1936 0296 65040000 		.4byte	.LASF46
 1937 029a 03       		.uleb128 0x3
 1938 029b B5030000 		.4byte	.LASF47
 1939 029f 08       		.byte	0x8
 1940 02a0 61       		.byte	0x61
 1941 02a1 4E020000 		.4byte	0x24e
 1942 02a5 0B       		.uleb128 0xb
 1943 02a6 60       		.byte	0x60
 1944 02a7 09       		.byte	0x9
 1945 02a8 07       		.byte	0x7
 1946 02a9 DE020000 		.4byte	0x2de
 1947 02ad 0A       		.uleb128 0xa
 1948 02ae BD020000 		.4byte	.LASF48
 1949 02b2 09       		.byte	0x9
 1950 02b3 08       		.byte	0x8
 1951 02b4 DE020000 		.4byte	0x2de
 1952 02b8 00       		.byte	0
 1953 02b9 0A       		.uleb128 0xa
 1954 02ba AF040000 		.4byte	.LASF49
 1955 02be 09       		.byte	0x9
 1956 02bf 09       		.byte	0x9
 1957 02c0 B1000000 		.4byte	0xb1
 1958 02c4 2C       		.byte	0x2c
 1959 02c5 0A       		.uleb128 0xa
 1960 02c6 41020000 		.4byte	.LASF50
 1961 02ca 09       		.byte	0x9
 1962 02cb 0A       		.byte	0xa
 1963 02cc DE020000 		.4byte	0x2de
 1964 02d0 30       		.byte	0x30
 1965 02d1 0A       		.uleb128 0xa
 1966 02d2 24010000 		.4byte	.LASF51
 1967 02d6 09       		.byte	0x9
 1968 02d7 0B       		.byte	0xb
 1969 02d8 B1000000 		.4byte	0xb1
 1970 02dc 5C       		.byte	0x5c
 1971 02dd 00       		.byte	0
 1972 02de 07       		.uleb128 0x7
 1973 02df B1000000 		.4byte	0xb1
 1974 02e3 EE020000 		.4byte	0x2ee
 1975 02e7 08       		.uleb128 0x8
 1976 02e8 D9000000 		.4byte	0xd9
 1977 02ec 0A       		.byte	0xa
 1978 02ed 00       		.byte	0
 1979 02ee 03       		.uleb128 0x3
 1980 02ef C1010000 		.4byte	.LASF52
 1981 02f3 09       		.byte	0x9
 1982 02f4 0C       		.byte	0xc
 1983 02f5 A5020000 		.4byte	0x2a5
 1984 02f9 0B       		.uleb128 0xb
 1985 02fa 06       		.byte	0x6
 1986 02fb 0A       		.byte	0xa
 1987 02fc 2E       		.byte	0x2e
 1988 02fd 32030000 		.4byte	0x332
ARM GAS  C:\Users\klabu\AppData\Local\Temp\ccPR0mEi.s 			page 44


 1989 0301 0A       		.uleb128 0xa
 1990 0302 6C000000 		.4byte	.LASF53
 1991 0306 0A       		.byte	0xa
 1992 0307 30       		.byte	0x30
 1993 0308 8D000000 		.4byte	0x8d
 1994 030c 00       		.byte	0
 1995 030d 0A       		.uleb128 0xa
 1996 030e 4F000000 		.4byte	.LASF54
 1997 0312 0A       		.byte	0xa
 1998 0313 31       		.byte	0x31
 1999 0314 99000000 		.4byte	0x99
 2000 0318 02       		.byte	0x2
 2001 0319 0A       		.uleb128 0xa
 2002 031a 04050000 		.4byte	.LASF55
 2003 031e 0A       		.byte	0xa
 2004 031f 32       		.byte	0x32
 2005 0320 81000000 		.4byte	0x81
 2006 0324 04       		.byte	0x4
 2007 0325 0A       		.uleb128 0xa
 2008 0326 28050000 		.4byte	.LASF56
 2009 032a 0A       		.byte	0xa
 2010 032b 33       		.byte	0x33
 2011 032c 81000000 		.4byte	0x81
 2012 0330 05       		.byte	0x5
 2013 0331 00       		.byte	0
 2014 0332 03       		.uleb128 0x3
 2015 0333 66020000 		.4byte	.LASF57
 2016 0337 0A       		.byte	0xa
 2017 0338 36       		.byte	0x36
 2018 0339 3D030000 		.4byte	0x33d
 2019 033d 0D       		.uleb128 0xd
 2020 033e F9020000 		.4byte	0x2f9
 2021 0342 0B       		.uleb128 0xb
 2022 0343 1C       		.byte	0x1c
 2023 0344 0A       		.byte	0xa
 2024 0345 39       		.byte	0x39
 2025 0346 63030000 		.4byte	0x363
 2026 034a 0A       		.uleb128 0xa
 2027 034b 87010000 		.4byte	.LASF58
 2028 034f 0A       		.byte	0xa
 2029 0350 3B       		.byte	0x3b
 2030 0351 63030000 		.4byte	0x363
 2031 0355 00       		.byte	0
 2032 0356 0A       		.uleb128 0xa
 2033 0357 1C030000 		.4byte	.LASF59
 2034 035b 0A       		.byte	0xa
 2035 035c 3C       		.byte	0x3c
 2036 035d E6000000 		.4byte	0xe6
 2037 0361 04       		.byte	0x4
 2038 0362 00       		.byte	0
 2039 0363 06       		.uleb128 0x6
 2040 0364 04       		.byte	0x4
 2041 0365 CF010000 		.4byte	0x1cf
 2042 0369 03       		.uleb128 0x3
 2043 036a DB030000 		.4byte	.LASF60
 2044 036e 0A       		.byte	0xa
 2045 036f 3E       		.byte	0x3e
ARM GAS  C:\Users\klabu\AppData\Local\Temp\ccPR0mEi.s 			page 45


 2046 0370 42030000 		.4byte	0x342
 2047 0374 0B       		.uleb128 0xb
 2048 0375 68       		.byte	0x68
 2049 0376 0A       		.byte	0xa
 2050 0377 44       		.byte	0x44
 2051 0378 95030000 		.4byte	0x395
 2052 037c 0A       		.uleb128 0xa
 2053 037d 8E000000 		.4byte	.LASF61
 2054 0381 0A       		.byte	0xa
 2055 0382 49       		.byte	0x49
 2056 0383 95030000 		.4byte	0x395
 2057 0387 00       		.byte	0
 2058 0388 0A       		.uleb128 0xa
 2059 0389 7C050000 		.4byte	.LASF62
 2060 038d 0A       		.byte	0xa
 2061 038e 4A       		.byte	0x4a
 2062 038f 68000000 		.4byte	0x68
 2063 0393 64       		.byte	0x64
 2064 0394 00       		.byte	0
 2065 0395 07       		.uleb128 0x7
 2066 0396 CB000000 		.4byte	0xcb
 2067 039a A5030000 		.4byte	0x3a5
 2068 039e 08       		.uleb128 0x8
 2069 039f D9000000 		.4byte	0xd9
 2070 03a3 63       		.byte	0x63
 2071 03a4 00       		.byte	0
 2072 03a5 03       		.uleb128 0x3
 2073 03a6 38000000 		.4byte	.LASF63
 2074 03aa 0A       		.byte	0xa
 2075 03ab 50       		.byte	0x50
 2076 03ac 74030000 		.4byte	0x374
 2077 03b0 0E       		.uleb128 0xe
 2078 03b1 92010000 		.4byte	.LASF64
 2079 03b5 01       		.byte	0x1
 2080 03b6 0B       		.byte	0xb
 2081 03b7 00000000 		.4byte	.LFB64
 2082 03bb 44000000 		.4byte	.LFE64-.LFB64
 2083 03bf 01       		.uleb128 0x1
 2084 03c0 9C       		.byte	0x9c
 2085 03c1 0E       		.uleb128 0xe
 2086 03c2 1D000000 		.4byte	.LASF65
 2087 03c6 01       		.byte	0x1
 2088 03c7 18       		.byte	0x18
 2089 03c8 00000000 		.4byte	.LFB65
 2090 03cc 28000000 		.4byte	.LFE65-.LFB65
 2091 03d0 01       		.uleb128 0x1
 2092 03d1 9C       		.byte	0x9c
 2093 03d2 0F       		.uleb128 0xf
 2094 03d3 31010000 		.4byte	.LASF66
 2095 03d7 01       		.byte	0x1
 2096 03d8 24       		.byte	0x24
 2097 03d9 00000000 		.4byte	.LFB66
 2098 03dd 34000000 		.4byte	.LFE66-.LFB66
 2099 03e1 01       		.uleb128 0x1
 2100 03e2 9C       		.byte	0x9c
 2101 03e3 0F       		.uleb128 0xf
 2102 03e4 A8020000 		.4byte	.LASF67
ARM GAS  C:\Users\klabu\AppData\Local\Temp\ccPR0mEi.s 			page 46


 2103 03e8 01       		.byte	0x1
 2104 03e9 33       		.byte	0x33
 2105 03ea 00000000 		.4byte	.LFB67
 2106 03ee 3A000000 		.4byte	.LFE67-.LFB67
 2107 03f2 01       		.uleb128 0x1
 2108 03f3 9C       		.byte	0x9c
 2109 03f4 10       		.uleb128 0x10
 2110 03f5 97030000 		.4byte	.LASF72
 2111 03f9 01       		.byte	0x1
 2112 03fa 44       		.byte	0x44
 2113 03fb EE020000 		.4byte	0x2ee
 2114 03ff 00000000 		.4byte	.LFB68
 2115 0403 84010000 		.4byte	.LFE68-.LFB68
 2116 0407 01       		.uleb128 0x1
 2117 0408 9C       		.byte	0x9c
 2118 0409 99040000 		.4byte	0x499
 2119 040d 11       		.uleb128 0x11
 2120 040e 51050000 		.4byte	.LASF68
 2121 0412 01       		.byte	0x1
 2122 0413 47       		.byte	0x47
 2123 0414 EE020000 		.4byte	0x2ee
 2124 0418 03       		.uleb128 0x3
 2125 0419 91       		.byte	0x91
 2126 041a FC7E     		.sleb128 -132
 2127 041c 12       		.uleb128 0x12
 2128 041d 18000000 		.4byte	.LBB2
 2129 0421 42000000 		.4byte	.LBE2-.LBB2
 2130 0425 38040000 		.4byte	0x438
 2131 0429 11       		.uleb128 0x11
 2132 042a 82040000 		.4byte	.LASF69
 2133 042e 01       		.byte	0x1
 2134 042f 4F       		.byte	0x4f
 2135 0430 81000000 		.4byte	0x81
 2136 0434 02       		.uleb128 0x2
 2137 0435 91       		.byte	0x91
 2138 0436 6F       		.sleb128 -17
 2139 0437 00       		.byte	0
 2140 0438 13       		.uleb128 0x13
 2141 0439 5E000000 		.4byte	.LBB3
 2142 043d C2000000 		.4byte	.LBE3-.LBB3
 2143 0441 11       		.uleb128 0x11
 2144 0442 82040000 		.4byte	.LASF69
 2145 0446 01       		.byte	0x1
 2146 0447 5E       		.byte	0x5e
 2147 0448 81000000 		.4byte	0x81
 2148 044c 02       		.uleb128 0x2
 2149 044d 91       		.byte	0x91
 2150 044e 6E       		.sleb128 -18
 2151 044f 13       		.uleb128 0x13
 2152 0450 66000000 		.4byte	.LBB4
 2153 0454 A8000000 		.4byte	.LBE4-.LBB4
 2154 0458 11       		.uleb128 0x11
 2155 0459 22050000 		.4byte	.LASF70
 2156 045d 01       		.byte	0x1
 2157 045e 69       		.byte	0x69
 2158 045f E0000000 		.4byte	0xe0
 2159 0463 02       		.uleb128 0x2
ARM GAS  C:\Users\klabu\AppData\Local\Temp\ccPR0mEi.s 			page 47


 2160 0464 91       		.byte	0x91
 2161 0465 64       		.sleb128 -28
 2162 0466 14       		.uleb128 0x14
 2163 0467 6900     		.ascii	"i\000"
 2164 0469 01       		.byte	0x1
 2165 046a 6C       		.byte	0x6c
 2166 046b 68000000 		.4byte	0x68
 2167 046f 02       		.uleb128 0x2
 2168 0470 91       		.byte	0x91
 2169 0471 60       		.sleb128 -32
 2170 0472 11       		.uleb128 0x11
 2171 0473 9F040000 		.4byte	.LASF71
 2172 0477 01       		.byte	0x1
 2173 0478 6D       		.byte	0x6d
 2174 0479 B1000000 		.4byte	0xb1
 2175 047d 02       		.uleb128 0x2
 2176 047e 91       		.byte	0x91
 2177 047f 5C       		.sleb128 -36
 2178 0480 13       		.uleb128 0x13
 2179 0481 7A000000 		.4byte	.LBB5
 2180 0485 20000000 		.4byte	.LBE5-.LBB5
 2181 0489 14       		.uleb128 0x14
 2182 048a 6900     		.ascii	"i\000"
 2183 048c 01       		.byte	0x1
 2184 048d 64       		.byte	0x64
 2185 048e 68000000 		.4byte	0x68
 2186 0492 02       		.uleb128 0x2
 2187 0493 91       		.byte	0x91
 2188 0494 68       		.sleb128 -24
 2189 0495 00       		.byte	0
 2190 0496 00       		.byte	0
 2191 0497 00       		.byte	0
 2192 0498 00       		.byte	0
 2193 0499 10       		.uleb128 0x10
 2194 049a 58050000 		.4byte	.LASF73
 2195 049e 01       		.byte	0x1
 2196 049f 97       		.byte	0x97
 2197 04a0 4F010000 		.4byte	0x14f
 2198 04a4 00000000 		.4byte	.LFB69
 2199 04a8 E8030000 		.4byte	.LFE69-.LFB69
 2200 04ac 01       		.uleb128 0x1
 2201 04ad 9C       		.byte	0x9c
 2202 04ae F6040000 		.4byte	0x4f6
 2203 04b2 11       		.uleb128 0x11
 2204 04b3 2B000000 		.4byte	.LASF74
 2205 04b7 01       		.byte	0x1
 2206 04b8 99       		.byte	0x99
 2207 04b9 F6040000 		.4byte	0x4f6
 2208 04bd 03       		.uleb128 0x3
 2209 04be 91       		.byte	0x91
 2210 04bf B07D     		.sleb128 -336
 2211 04c1 11       		.uleb128 0x11
 2212 04c2 A7040000 		.4byte	.LASF75
 2213 04c6 01       		.byte	0x1
 2214 04c7 9B       		.byte	0x9b
 2215 04c8 EE020000 		.4byte	0x2ee
 2216 04cc 03       		.uleb128 0x3
ARM GAS  C:\Users\klabu\AppData\Local\Temp\ccPR0mEi.s 			page 48


 2217 04cd 91       		.byte	0x91
 2218 04ce D07C     		.sleb128 -432
 2219 04d0 11       		.uleb128 0x11
 2220 04d1 8A040000 		.4byte	.LASF76
 2221 04d5 01       		.byte	0x1
 2222 04d6 9D       		.byte	0x9d
 2223 04d7 4F010000 		.4byte	0x14f
 2224 04db 03       		.uleb128 0x3
 2225 04dc 91       		.byte	0x91
 2226 04dd CC79     		.sleb128 -820
 2227 04df 13       		.uleb128 0x13
 2228 04e0 72030000 		.4byte	.LBB6
 2229 04e4 34000000 		.4byte	.LBE6-.LBB6
 2230 04e8 14       		.uleb128 0x14
 2231 04e9 6900     		.ascii	"i\000"
 2232 04eb 01       		.byte	0x1
 2233 04ec CA       		.byte	0xca
 2234 04ed F6000000 		.4byte	0xf6
 2235 04f1 02       		.uleb128 0x2
 2236 04f2 91       		.byte	0x91
 2237 04f3 5C       		.sleb128 -36
 2238 04f4 00       		.byte	0
 2239 04f5 00       		.byte	0
 2240 04f6 07       		.uleb128 0x7
 2241 04f7 CB000000 		.4byte	0xcb
 2242 04fb 07050000 		.4byte	0x507
 2243 04ff 15       		.uleb128 0x15
 2244 0500 D9000000 		.4byte	0xd9
 2245 0504 2B01     		.2byte	0x12b
 2246 0506 00       		.byte	0
 2247 0507 10       		.uleb128 0x10
 2248 0508 16000000 		.4byte	.LASF77
 2249 050c 01       		.byte	0x1
 2250 050d D6       		.byte	0xd6
 2251 050e 81000000 		.4byte	0x81
 2252 0512 00000000 		.4byte	.LFB70
 2253 0516 B0010000 		.4byte	.LFE70-.LFB70
 2254 051a 01       		.uleb128 0x1
 2255 051b 9C       		.byte	0x9c
 2256 051c A0050000 		.4byte	0x5a0
 2257 0520 11       		.uleb128 0x11
 2258 0521 2B000000 		.4byte	.LASF74
 2259 0525 01       		.byte	0x1
 2260 0526 D8       		.byte	0xd8
 2261 0527 F6040000 		.4byte	0x4f6
 2262 052b 03       		.uleb128 0x3
 2263 052c 91       		.byte	0x91
 2264 052d B87D     		.sleb128 -328
 2265 052f 13       		.uleb128 0x13
 2266 0530 0A000000 		.4byte	.LBB7
 2267 0534 5E010000 		.4byte	.LBE7-.LBB7
 2268 0538 14       		.uleb128 0x14
 2269 0539 6900     		.ascii	"i\000"
 2270 053b 01       		.byte	0x1
 2271 053c DA       		.byte	0xda
 2272 053d 68000000 		.4byte	0x68
 2273 0541 02       		.uleb128 0x2
ARM GAS  C:\Users\klabu\AppData\Local\Temp\ccPR0mEi.s 			page 49


 2274 0542 91       		.byte	0x91
 2275 0543 6C       		.sleb128 -20
 2276 0544 13       		.uleb128 0x13
 2277 0545 12000000 		.4byte	.LBB8
 2278 0549 42010000 		.4byte	.LBE8-.LBB8
 2279 054d 11       		.uleb128 0x11
 2280 054e B0050000 		.4byte	.LASF78
 2281 0552 01       		.byte	0x1
 2282 0553 DB       		.byte	0xdb
 2283 0554 EE020000 		.4byte	0x2ee
 2284 0558 03       		.uleb128 0x3
 2285 0559 91       		.byte	0x91
 2286 055a F87B     		.sleb128 -520
 2287 055c 11       		.uleb128 0x11
 2288 055d 1C050000 		.4byte	.LASF79
 2289 0561 01       		.byte	0x1
 2290 0562 DF       		.byte	0xdf
 2291 0563 B1000000 		.4byte	0xb1
 2292 0567 02       		.uleb128 0x2
 2293 0568 91       		.byte	0x91
 2294 0569 64       		.sleb128 -28
 2295 056a 12       		.uleb128 0x12
 2296 056b 3A000000 		.4byte	.LBB9
 2297 056f 34000000 		.4byte	.LBE9-.LBB9
 2298 0573 84050000 		.4byte	0x584
 2299 0577 14       		.uleb128 0x14
 2300 0578 6900     		.ascii	"i\000"
 2301 057a 01       		.byte	0x1
 2302 057b E1       		.byte	0xe1
 2303 057c F6000000 		.4byte	0xf6
 2304 0580 02       		.uleb128 0x2
 2305 0581 91       		.byte	0x91
 2306 0582 68       		.sleb128 -24
 2307 0583 00       		.byte	0
 2308 0584 13       		.uleb128 0x13
 2309 0585 A0000000 		.4byte	.LBB10
 2310 0589 B4000000 		.4byte	.LBE10-.LBB10
 2311 058d 11       		.uleb128 0x11
 2312 058e 79020000 		.4byte	.LASF80
 2313 0592 01       		.byte	0x1
 2314 0593 FD       		.byte	0xfd
 2315 0594 EE020000 		.4byte	0x2ee
 2316 0598 03       		.uleb128 0x3
 2317 0599 91       		.byte	0x91
 2318 059a D87C     		.sleb128 -424
 2319 059c 00       		.byte	0
 2320 059d 00       		.byte	0
 2321 059e 00       		.byte	0
 2322 059f 00       		.byte	0
 2323 05a0 16       		.uleb128 0x16
 2324 05a1 24020000 		.4byte	.LASF81
 2325 05a5 01       		.byte	0x1
 2326 05a6 1301     		.2byte	0x113
 2327 05a8 81000000 		.4byte	0x81
 2328 05ac 00000000 		.4byte	.LFB71
 2329 05b0 24010000 		.4byte	.LFE71-.LFB71
 2330 05b4 01       		.uleb128 0x1
ARM GAS  C:\Users\klabu\AppData\Local\Temp\ccPR0mEi.s 			page 50


 2331 05b5 9C       		.byte	0x9c
 2332 05b6 23060000 		.4byte	0x623
 2333 05ba 17       		.uleb128 0x17
 2334 05bb 2B000000 		.4byte	.LASF74
 2335 05bf 01       		.byte	0x1
 2336 05c0 1501     		.2byte	0x115
 2337 05c2 F6040000 		.4byte	0x4f6
 2338 05c6 03       		.uleb128 0x3
 2339 05c7 91       		.byte	0x91
 2340 05c8 BC7D     		.sleb128 -324
 2341 05ca 17       		.uleb128 0x17
 2342 05cb B0050000 		.4byte	.LASF78
 2343 05cf 01       		.byte	0x1
 2344 05d0 3901     		.2byte	0x139
 2345 05d2 EE020000 		.4byte	0x2ee
 2346 05d6 03       		.uleb128 0x3
 2347 05d7 91       		.byte	0x91
 2348 05d8 DC7C     		.sleb128 -420
 2349 05da 13       		.uleb128 0x13
 2350 05db 0A000000 		.4byte	.LBB11
 2351 05df CA000000 		.4byte	.LBE11-.LBB11
 2352 05e3 18       		.uleb128 0x18
 2353 05e4 6900     		.ascii	"i\000"
 2354 05e6 01       		.byte	0x1
 2355 05e7 1701     		.2byte	0x117
 2356 05e9 68000000 		.4byte	0x68
 2357 05ed 02       		.uleb128 0x2
 2358 05ee 91       		.byte	0x91
 2359 05ef 6C       		.sleb128 -20
 2360 05f0 13       		.uleb128 0x13
 2361 05f1 12000000 		.4byte	.LBB12
 2362 05f5 B0000000 		.4byte	.LBE12-.LBB12
 2363 05f9 17       		.uleb128 0x17
 2364 05fa B0050000 		.4byte	.LASF78
 2365 05fe 01       		.byte	0x1
 2366 05ff 1801     		.2byte	0x118
 2367 0601 EE020000 		.4byte	0x2ee
 2368 0605 03       		.uleb128 0x3
 2369 0606 91       		.byte	0x91
 2370 0607 FC7B     		.sleb128 -516
 2371 0609 13       		.uleb128 0x13
 2372 060a 1A000000 		.4byte	.LBB13
 2373 060e 34000000 		.4byte	.LBE13-.LBB13
 2374 0612 18       		.uleb128 0x18
 2375 0613 6900     		.ascii	"i\000"
 2376 0615 01       		.byte	0x1
 2377 0616 1A01     		.2byte	0x11a
 2378 0618 F6000000 		.4byte	0xf6
 2379 061c 02       		.uleb128 0x2
 2380 061d 91       		.byte	0x91
 2381 061e 68       		.sleb128 -24
 2382 061f 00       		.byte	0
 2383 0620 00       		.byte	0
 2384 0621 00       		.byte	0
 2385 0622 00       		.byte	0
 2386 0623 19       		.uleb128 0x19
 2387 0624 D9040000 		.4byte	.LASF110
ARM GAS  C:\Users\klabu\AppData\Local\Temp\ccPR0mEi.s 			page 51


 2388 0628 01       		.byte	0x1
 2389 0629 4201     		.2byte	0x142
 2390 062b B1000000 		.4byte	0xb1
 2391 062f 00000000 		.4byte	.LFB72
 2392 0633 7A000000 		.4byte	.LFE72-.LFB72
 2393 0637 01       		.uleb128 0x1
 2394 0638 9C       		.byte	0x9c
 2395 0639 69060000 		.4byte	0x669
 2396 063d 1A       		.uleb128 0x1a
 2397 063e D3040000 		.4byte	.LASF82
 2398 0642 01       		.byte	0x1
 2399 0643 4201     		.2byte	0x142
 2400 0645 69060000 		.4byte	0x669
 2401 0649 02       		.uleb128 0x2
 2402 064a 91       		.byte	0x91
 2403 064b 6C       		.sleb128 -20
 2404 064c 1B       		.uleb128 0x1b
 2405 064d 6E00     		.ascii	"n\000"
 2406 064f 01       		.byte	0x1
 2407 0650 4201     		.2byte	0x142
 2408 0652 81000000 		.4byte	0x81
 2409 0656 02       		.uleb128 0x2
 2410 0657 91       		.byte	0x91
 2411 0658 6B       		.sleb128 -21
 2412 0659 17       		.uleb128 0x17
 2413 065a 65000000 		.4byte	.LASF83
 2414 065e 01       		.byte	0x1
 2415 065f 4301     		.2byte	0x143
 2416 0661 B1000000 		.4byte	0xb1
 2417 0665 02       		.uleb128 0x2
 2418 0666 91       		.byte	0x91
 2419 0667 74       		.sleb128 -12
 2420 0668 00       		.byte	0
 2421 0669 06       		.uleb128 0x6
 2422 066a 04       		.byte	0x4
 2423 066b B1000000 		.4byte	0xb1
 2424 066f 1C       		.uleb128 0x1c
 2425 0670 51040000 		.4byte	.LASF84
 2426 0674 01       		.byte	0x1
 2427 0675 5301     		.2byte	0x153
 2428 0677 00000000 		.4byte	.LFB73
 2429 067b 7E000000 		.4byte	.LFE73-.LFB73
 2430 067f 01       		.uleb128 0x1
 2431 0680 9C       		.byte	0x9c
 2432 0681 BA060000 		.4byte	0x6ba
 2433 0685 1B       		.uleb128 0x1b
 2434 0686 6100     		.ascii	"a\000"
 2435 0688 01       		.byte	0x1
 2436 0689 5301     		.2byte	0x153
 2437 068b 69060000 		.4byte	0x669
 2438 068f 02       		.uleb128 0x2
 2439 0690 91       		.byte	0x91
 2440 0691 6C       		.sleb128 -20
 2441 0692 1B       		.uleb128 0x1b
 2442 0693 6E00     		.ascii	"n\000"
 2443 0695 01       		.byte	0x1
 2444 0696 5301     		.2byte	0x153
ARM GAS  C:\Users\klabu\AppData\Local\Temp\ccPR0mEi.s 			page 52


 2445 0698 81000000 		.4byte	0x81
 2446 069c 02       		.uleb128 0x2
 2447 069d 91       		.byte	0x91
 2448 069e 6B       		.sleb128 -21
 2449 069f 18       		.uleb128 0x18
 2450 06a0 6900     		.ascii	"i\000"
 2451 06a2 01       		.byte	0x1
 2452 06a3 5401     		.2byte	0x154
 2453 06a5 81000000 		.4byte	0x81
 2454 06a9 02       		.uleb128 0x2
 2455 06aa 91       		.byte	0x91
 2456 06ab 77       		.sleb128 -9
 2457 06ac 18       		.uleb128 0x18
 2458 06ad 6A00     		.ascii	"j\000"
 2459 06af 01       		.byte	0x1
 2460 06b0 5401     		.2byte	0x154
 2461 06b2 81000000 		.4byte	0x81
 2462 06b6 02       		.uleb128 0x2
 2463 06b7 91       		.byte	0x91
 2464 06b8 76       		.sleb128 -10
 2465 06b9 00       		.byte	0
 2466 06ba 1D       		.uleb128 0x1d
 2467 06bb 47010000 		.4byte	.LASF85
 2468 06bf 01       		.byte	0x1
 2469 06c0 5F01     		.2byte	0x15f
 2470 06c2 00000000 		.4byte	.LFB74
 2471 06c6 28000000 		.4byte	.LFE74-.LFB74
 2472 06ca 01       		.uleb128 0x1
 2473 06cb 9C       		.byte	0x9c
 2474 06cc F8060000 		.4byte	0x6f8
 2475 06d0 1B       		.uleb128 0x1b
 2476 06d1 7000     		.ascii	"p\000"
 2477 06d3 01       		.byte	0x1
 2478 06d4 5F01     		.2byte	0x15f
 2479 06d6 69060000 		.4byte	0x669
 2480 06da 02       		.uleb128 0x2
 2481 06db 91       		.byte	0x91
 2482 06dc 6C       		.sleb128 -20
 2483 06dd 1B       		.uleb128 0x1b
 2484 06de 7100     		.ascii	"q\000"
 2485 06e0 01       		.byte	0x1
 2486 06e1 5F01     		.2byte	0x15f
 2487 06e3 69060000 		.4byte	0x669
 2488 06e7 02       		.uleb128 0x2
 2489 06e8 91       		.byte	0x91
 2490 06e9 68       		.sleb128 -24
 2491 06ea 18       		.uleb128 0x18
 2492 06eb 7400     		.ascii	"t\000"
 2493 06ed 01       		.byte	0x1
 2494 06ee 6001     		.2byte	0x160
 2495 06f0 B1000000 		.4byte	0xb1
 2496 06f4 02       		.uleb128 0x2
 2497 06f5 91       		.byte	0x91
 2498 06f6 74       		.sleb128 -12
 2499 06f7 00       		.byte	0
 2500 06f8 1E       		.uleb128 0x1e
 2501 06f9 37040000 		.4byte	.LASF86
ARM GAS  C:\Users\klabu\AppData\Local\Temp\ccPR0mEi.s 			page 53


 2502 06fd 0B       		.byte	0xb
 2503 06fe 1207     		.2byte	0x712
 2504 0700 04070000 		.4byte	0x704
 2505 0704 0D       		.uleb128 0xd
 2506 0705 76000000 		.4byte	0x76
 2507 0709 1F       		.uleb128 0x1f
 2508 070a 14020000 		.4byte	.LASF87
 2509 070e 07       		.byte	0x7
 2510 070f 11       		.byte	0x11
 2511 0710 93020000 		.4byte	0x293
 2512 0714 05       		.uleb128 0x5
 2513 0715 03       		.byte	0x3
 2514 0716 00000000 		.4byte	buffer_overflow
 2515 071a 1F       		.uleb128 0x1f
 2516 071b 5F010000 		.4byte	.LASF88
 2517 071f 07       		.byte	0x7
 2518 0720 22       		.byte	0x22
 2519 0721 8D000000 		.4byte	0x8d
 2520 0725 05       		.uleb128 0x5
 2521 0726 03       		.byte	0x3
 2522 0727 00000000 		.4byte	dataPointsInStack
 2523 072b 1F       		.uleb128 0x1f
 2524 072c A8010000 		.4byte	.LASF89
 2525 0730 07       		.byte	0x7
 2526 0731 23       		.byte	0x23
 2527 0732 8D000000 		.4byte	0x8d
 2528 0736 05       		.uleb128 0x5
 2529 0737 03       		.byte	0x3
 2530 0738 00000000 		.4byte	dataPointsInStackDesired
 2531 073c 07       		.uleb128 0x7
 2532 073d 97010000 		.4byte	0x197
 2533 0741 4C070000 		.4byte	0x74c
 2534 0745 08       		.uleb128 0x8
 2535 0746 D9000000 		.4byte	0xd9
 2536 074a 95       		.byte	0x95
 2537 074b 00       		.byte	0
 2538 074c 1F       		.uleb128 0x1f
 2539 074d 33000000 		.4byte	.LASF90
 2540 0751 07       		.byte	0x7
 2541 0752 24       		.byte	0x24
 2542 0753 3C070000 		.4byte	0x73c
 2543 0757 05       		.uleb128 0x5
 2544 0758 03       		.byte	0x3
 2545 0759 00000000 		.4byte	data
 2546 075d 1F       		.uleb128 0x1f
 2547 075e E4020000 		.4byte	.LASF91
 2548 0762 08       		.byte	0x8
 2549 0763 21       		.byte	0x21
 2550 0764 81000000 		.4byte	0x81
 2551 0768 05       		.uleb128 0x5
 2552 0769 03       		.byte	0x3
 2553 076a 00000000 		.4byte	modem_state
 2554 076e 1F       		.uleb128 0x1f
 2555 076f CD020000 		.4byte	.LASF92
 2556 0773 08       		.byte	0x8
 2557 0774 64       		.byte	0x64
 2558 0775 A5000000 		.4byte	0xa5
ARM GAS  C:\Users\klabu\AppData\Local\Temp\ccPR0mEi.s 			page 54


 2559 0779 05       		.uleb128 0x5
 2560 077a 03       		.byte	0x3
 2561 077b 00000000 		.4byte	modem_start_time_stamp
 2562 077f 1F       		.uleb128 0x1f
 2563 0780 87010000 		.4byte	.LASF58
 2564 0784 08       		.byte	0x8
 2565 0785 65       		.byte	0x65
 2566 0786 CF010000 		.4byte	0x1cf
 2567 078a 05       		.uleb128 0x5
 2568 078b 03       		.byte	0x3
 2569 078c 00000000 		.4byte	modem_info
 2570 0790 1F       		.uleb128 0x1f
 2571 0791 8B030000 		.4byte	.LASF93
 2572 0795 08       		.byte	0x8
 2573 0796 66       		.byte	0x66
 2574 0797 43020000 		.4byte	0x243
 2575 079b 05       		.uleb128 0x5
 2576 079c 03       		.byte	0x3
 2577 079d 00000000 		.4byte	modem_stats
 2578 07a1 1F       		.uleb128 0x1f
 2579 07a2 67050000 		.4byte	.LASF94
 2580 07a6 08       		.byte	0x8
 2581 07a7 67       		.byte	0x67
 2582 07a8 9A020000 		.4byte	0x29a
 2583 07ac 05       		.uleb128 0x5
 2584 07ad 03       		.byte	0x3
 2585 07ae 00000000 		.4byte	updatable_parameters
 2586 07b2 07       		.uleb128 0x7
 2587 07b3 CB000000 		.4byte	0xcb
 2588 07b7 C3070000 		.4byte	0x7c3
 2589 07bb 15       		.uleb128 0x15
 2590 07bc D9000000 		.4byte	0xd9
 2591 07c0 0F27     		.2byte	0x270f
 2592 07c2 00       		.byte	0
 2593 07c3 1F       		.uleb128 0x1f
 2594 07c4 98050000 		.4byte	.LASF95
 2595 07c8 0A       		.byte	0xa
 2596 07c9 18       		.byte	0x18
 2597 07ca B2070000 		.4byte	0x7b2
 2598 07ce 05       		.uleb128 0x5
 2599 07cf 03       		.byte	0x3
 2600 07d0 00000000 		.4byte	http_request
 2601 07d4 1F       		.uleb128 0x1f
 2602 07d5 84050000 		.4byte	.LASF96
 2603 07d9 0A       		.byte	0xa
 2604 07da 19       		.byte	0x19
 2605 07db B2070000 		.4byte	0x7b2
 2606 07df 05       		.uleb128 0x5
 2607 07e0 03       		.byte	0x3
 2608 07e1 00000000 		.4byte	http_body
 2609 07e5 07       		.uleb128 0x7
 2610 07e6 CB000000 		.4byte	0xcb
 2611 07ea F5070000 		.4byte	0x7f5
 2612 07ee 08       		.uleb128 0x8
 2613 07ef D9000000 		.4byte	0xd9
 2614 07f3 C7       		.byte	0xc7
 2615 07f4 00       		.byte	0
ARM GAS  C:\Users\klabu\AppData\Local\Temp\ccPR0mEi.s 			page 55


 2616 07f5 1F       		.uleb128 0x1f
 2617 07f6 94040000 		.4byte	.LASF97
 2618 07fa 0A       		.byte	0xa
 2619 07fb 1A       		.byte	0x1a
 2620 07fc E5070000 		.4byte	0x7e5
 2621 0800 05       		.uleb128 0x5
 2622 0801 03       		.byte	0x3
 2623 0802 00000000 		.4byte	http_route
 2624 0806 1F       		.uleb128 0x1f
 2625 0807 18040000 		.4byte	.LASF98
 2626 080b 0A       		.byte	0xa
 2627 080c 41       		.byte	0x41
 2628 080d 69030000 		.4byte	0x369
 2629 0811 05       		.uleb128 0x5
 2630 0812 03       		.byte	0x3
 2631 0813 00000000 		.4byte	system_info
 2632 0817 1F       		.uleb128 0x1f
 2633 0818 0C030000 		.4byte	.LASF99
 2634 081c 0A       		.byte	0xa
 2635 081d 53       		.byte	0x53
 2636 081e A5030000 		.4byte	0x3a5
 2637 0822 05       		.uleb128 0x5
 2638 0823 03       		.byte	0x3
 2639 0824 00000000 		.4byte	system_settings
 2640 0828 1F       		.uleb128 0x1f
 2641 0829 34020000 		.4byte	.LASF100
 2642 082d 0A       		.byte	0xa
 2643 082e 6F       		.byte	0x6f
 2644 082f 32030000 		.4byte	0x332
 2645 0833 05       		.uleb128 0x5
 2646 0834 03       		.byte	0x3
 2647 0835 00000000 		.4byte	alarmMeasure
 2648 0839 1F       		.uleb128 0x1f
 2649 083a A7030000 		.4byte	.LASF101
 2650 083e 0A       		.byte	0xa
 2651 083f 70       		.byte	0x70
 2652 0840 81000000 		.4byte	0x81
 2653 0844 05       		.uleb128 0x5
 2654 0845 03       		.byte	0x3
 2655 0846 00000000 		.4byte	timeToMeasure
 2656 084a 1F       		.uleb128 0x1f
 2657 084b 84020000 		.4byte	.LASF102
 2658 084f 0A       		.byte	0xa
 2659 0850 71       		.byte	0x71
 2660 0851 32030000 		.4byte	0x332
 2661 0855 05       		.uleb128 0x5
 2662 0856 03       		.byte	0x3
 2663 0857 00000000 		.4byte	alarmSync
 2664 085b 1F       		.uleb128 0x1f
 2665 085c A5050000 		.4byte	.LASF103
 2666 0860 0A       		.byte	0xa
 2667 0861 72       		.byte	0x72
 2668 0862 81000000 		.4byte	0x81
 2669 0866 05       		.uleb128 0x5
 2670 0867 03       		.byte	0x3
 2671 0868 00000000 		.4byte	timeToSync
 2672 086c 1F       		.uleb128 0x1f
ARM GAS  C:\Users\klabu\AppData\Local\Temp\ccPR0mEi.s 			page 56


 2673 086d 6B040000 		.4byte	.LASF104
 2674 0871 0A       		.byte	0xa
 2675 0872 73       		.byte	0x73
 2676 0873 81000000 		.4byte	0x81
 2677 0877 05       		.uleb128 0x5
 2678 0878 03       		.byte	0x3
 2679 0879 00000000 		.4byte	timeToSycnRemoteParams
 2680 087d 20       		.uleb128 0x20
 2681 087e 68657900 		.ascii	"hey\000"
 2682 0882 0A       		.byte	0xa
 2683 0883 74       		.byte	0x74
 2684 0884 81000000 		.4byte	0x81
 2685 0888 05       		.uleb128 0x5
 2686 0889 03       		.byte	0x3
 2687 088a 00000000 		.4byte	hey
 2688 088e 07       		.uleb128 0x7
 2689 088f CB000000 		.4byte	0xcb
 2690 0893 9F080000 		.4byte	0x89f
 2691 0897 15       		.uleb128 0x15
 2692 0898 D9000000 		.4byte	0xd9
 2693 089c FF03     		.2byte	0x3ff
 2694 089e 00       		.byte	0
 2695 089f 1F       		.uleb128 0x1f
 2696 08a0 53020000 		.4byte	.LASF105
 2697 08a4 01       		.byte	0x1
 2698 08a5 04       		.byte	0x4
 2699 08a6 8E080000 		.4byte	0x88e
 2700 08aa 05       		.uleb128 0x5
 2701 08ab 03       		.byte	0x3
 2702 08ac 00000000 		.4byte	wq_received_string
 2703 08b0 1F       		.uleb128 0x1f
 2704 08b1 FC020000 		.4byte	.LASF106
 2705 08b5 01       		.byte	0x1
 2706 08b6 05       		.byte	0x5
 2707 08b7 99000000 		.4byte	0x99
 2708 08bb 05       		.uleb128 0x5
 2709 08bc 03       		.byte	0x3
 2710 08bd 00000000 		.4byte	wq_string_index
 2711 08c1 00       		.byte	0
 2712              		.section	.debug_abbrev,"",%progbits
 2713              	.Ldebug_abbrev0:
 2714 0000 01       		.uleb128 0x1
 2715 0001 11       		.uleb128 0x11
 2716 0002 01       		.byte	0x1
 2717 0003 25       		.uleb128 0x25
 2718 0004 0E       		.uleb128 0xe
 2719 0005 13       		.uleb128 0x13
 2720 0006 0B       		.uleb128 0xb
 2721 0007 03       		.uleb128 0x3
 2722 0008 0E       		.uleb128 0xe
 2723 0009 1B       		.uleb128 0x1b
 2724 000a 0E       		.uleb128 0xe
 2725 000b 55       		.uleb128 0x55
 2726 000c 17       		.uleb128 0x17
 2727 000d 11       		.uleb128 0x11
 2728 000e 01       		.uleb128 0x1
 2729 000f 10       		.uleb128 0x10
ARM GAS  C:\Users\klabu\AppData\Local\Temp\ccPR0mEi.s 			page 57


 2730 0010 17       		.uleb128 0x17
 2731 0011 00       		.byte	0
 2732 0012 00       		.byte	0
 2733 0013 02       		.uleb128 0x2
 2734 0014 24       		.uleb128 0x24
 2735 0015 00       		.byte	0
 2736 0016 0B       		.uleb128 0xb
 2737 0017 0B       		.uleb128 0xb
 2738 0018 3E       		.uleb128 0x3e
 2739 0019 0B       		.uleb128 0xb
 2740 001a 03       		.uleb128 0x3
 2741 001b 0E       		.uleb128 0xe
 2742 001c 00       		.byte	0
 2743 001d 00       		.byte	0
 2744 001e 03       		.uleb128 0x3
 2745 001f 16       		.uleb128 0x16
 2746 0020 00       		.byte	0
 2747 0021 03       		.uleb128 0x3
 2748 0022 0E       		.uleb128 0xe
 2749 0023 3A       		.uleb128 0x3a
 2750 0024 0B       		.uleb128 0xb
 2751 0025 3B       		.uleb128 0x3b
 2752 0026 0B       		.uleb128 0xb
 2753 0027 49       		.uleb128 0x49
 2754 0028 13       		.uleb128 0x13
 2755 0029 00       		.byte	0
 2756 002a 00       		.byte	0
 2757 002b 04       		.uleb128 0x4
 2758 002c 24       		.uleb128 0x24
 2759 002d 00       		.byte	0
 2760 002e 0B       		.uleb128 0xb
 2761 002f 0B       		.uleb128 0xb
 2762 0030 3E       		.uleb128 0x3e
 2763 0031 0B       		.uleb128 0xb
 2764 0032 03       		.uleb128 0x3
 2765 0033 08       		.uleb128 0x8
 2766 0034 00       		.byte	0
 2767 0035 00       		.byte	0
 2768 0036 05       		.uleb128 0x5
 2769 0037 16       		.uleb128 0x16
 2770 0038 00       		.byte	0
 2771 0039 03       		.uleb128 0x3
 2772 003a 0E       		.uleb128 0xe
 2773 003b 3A       		.uleb128 0x3a
 2774 003c 0B       		.uleb128 0xb
 2775 003d 3B       		.uleb128 0x3b
 2776 003e 05       		.uleb128 0x5
 2777 003f 49       		.uleb128 0x49
 2778 0040 13       		.uleb128 0x13
 2779 0041 00       		.byte	0
 2780 0042 00       		.byte	0
 2781 0043 06       		.uleb128 0x6
 2782 0044 0F       		.uleb128 0xf
 2783 0045 00       		.byte	0
 2784 0046 0B       		.uleb128 0xb
 2785 0047 0B       		.uleb128 0xb
 2786 0048 49       		.uleb128 0x49
ARM GAS  C:\Users\klabu\AppData\Local\Temp\ccPR0mEi.s 			page 58


 2787 0049 13       		.uleb128 0x13
 2788 004a 00       		.byte	0
 2789 004b 00       		.byte	0
 2790 004c 07       		.uleb128 0x7
 2791 004d 01       		.uleb128 0x1
 2792 004e 01       		.byte	0x1
 2793 004f 49       		.uleb128 0x49
 2794 0050 13       		.uleb128 0x13
 2795 0051 01       		.uleb128 0x1
 2796 0052 13       		.uleb128 0x13
 2797 0053 00       		.byte	0
 2798 0054 00       		.byte	0
 2799 0055 08       		.uleb128 0x8
 2800 0056 21       		.uleb128 0x21
 2801 0057 00       		.byte	0
 2802 0058 49       		.uleb128 0x49
 2803 0059 13       		.uleb128 0x13
 2804 005a 2F       		.uleb128 0x2f
 2805 005b 0B       		.uleb128 0xb
 2806 005c 00       		.byte	0
 2807 005d 00       		.byte	0
 2808 005e 09       		.uleb128 0x9
 2809 005f 13       		.uleb128 0x13
 2810 0060 01       		.byte	0x1
 2811 0061 0B       		.uleb128 0xb
 2812 0062 05       		.uleb128 0x5
 2813 0063 3A       		.uleb128 0x3a
 2814 0064 0B       		.uleb128 0xb
 2815 0065 3B       		.uleb128 0x3b
 2816 0066 0B       		.uleb128 0xb
 2817 0067 01       		.uleb128 0x1
 2818 0068 13       		.uleb128 0x13
 2819 0069 00       		.byte	0
 2820 006a 00       		.byte	0
 2821 006b 0A       		.uleb128 0xa
 2822 006c 0D       		.uleb128 0xd
 2823 006d 00       		.byte	0
 2824 006e 03       		.uleb128 0x3
 2825 006f 0E       		.uleb128 0xe
 2826 0070 3A       		.uleb128 0x3a
 2827 0071 0B       		.uleb128 0xb
 2828 0072 3B       		.uleb128 0x3b
 2829 0073 0B       		.uleb128 0xb
 2830 0074 49       		.uleb128 0x49
 2831 0075 13       		.uleb128 0x13
 2832 0076 38       		.uleb128 0x38
 2833 0077 0B       		.uleb128 0xb
 2834 0078 00       		.byte	0
 2835 0079 00       		.byte	0
 2836 007a 0B       		.uleb128 0xb
 2837 007b 13       		.uleb128 0x13
 2838 007c 01       		.byte	0x1
 2839 007d 0B       		.uleb128 0xb
 2840 007e 0B       		.uleb128 0xb
 2841 007f 3A       		.uleb128 0x3a
 2842 0080 0B       		.uleb128 0xb
 2843 0081 3B       		.uleb128 0x3b
ARM GAS  C:\Users\klabu\AppData\Local\Temp\ccPR0mEi.s 			page 59


 2844 0082 0B       		.uleb128 0xb
 2845 0083 01       		.uleb128 0x1
 2846 0084 13       		.uleb128 0x13
 2847 0085 00       		.byte	0
 2848 0086 00       		.byte	0
 2849 0087 0C       		.uleb128 0xc
 2850 0088 0D       		.uleb128 0xd
 2851 0089 00       		.byte	0
 2852 008a 03       		.uleb128 0x3
 2853 008b 08       		.uleb128 0x8
 2854 008c 3A       		.uleb128 0x3a
 2855 008d 0B       		.uleb128 0xb
 2856 008e 3B       		.uleb128 0x3b
 2857 008f 0B       		.uleb128 0xb
 2858 0090 49       		.uleb128 0x49
 2859 0091 13       		.uleb128 0x13
 2860 0092 38       		.uleb128 0x38
 2861 0093 0B       		.uleb128 0xb
 2862 0094 00       		.byte	0
 2863 0095 00       		.byte	0
 2864 0096 0D       		.uleb128 0xd
 2865 0097 35       		.uleb128 0x35
 2866 0098 00       		.byte	0
 2867 0099 49       		.uleb128 0x49
 2868 009a 13       		.uleb128 0x13
 2869 009b 00       		.byte	0
 2870 009c 00       		.byte	0
 2871 009d 0E       		.uleb128 0xe
 2872 009e 2E       		.uleb128 0x2e
 2873 009f 00       		.byte	0
 2874 00a0 3F       		.uleb128 0x3f
 2875 00a1 19       		.uleb128 0x19
 2876 00a2 03       		.uleb128 0x3
 2877 00a3 0E       		.uleb128 0xe
 2878 00a4 3A       		.uleb128 0x3a
 2879 00a5 0B       		.uleb128 0xb
 2880 00a6 3B       		.uleb128 0x3b
 2881 00a7 0B       		.uleb128 0xb
 2882 00a8 27       		.uleb128 0x27
 2883 00a9 19       		.uleb128 0x19
 2884 00aa 11       		.uleb128 0x11
 2885 00ab 01       		.uleb128 0x1
 2886 00ac 12       		.uleb128 0x12
 2887 00ad 06       		.uleb128 0x6
 2888 00ae 40       		.uleb128 0x40
 2889 00af 18       		.uleb128 0x18
 2890 00b0 9642     		.uleb128 0x2116
 2891 00b2 19       		.uleb128 0x19
 2892 00b3 00       		.byte	0
 2893 00b4 00       		.byte	0
 2894 00b5 0F       		.uleb128 0xf
 2895 00b6 2E       		.uleb128 0x2e
 2896 00b7 00       		.byte	0
 2897 00b8 3F       		.uleb128 0x3f
 2898 00b9 19       		.uleb128 0x19
 2899 00ba 03       		.uleb128 0x3
 2900 00bb 0E       		.uleb128 0xe
ARM GAS  C:\Users\klabu\AppData\Local\Temp\ccPR0mEi.s 			page 60


 2901 00bc 3A       		.uleb128 0x3a
 2902 00bd 0B       		.uleb128 0xb
 2903 00be 3B       		.uleb128 0x3b
 2904 00bf 0B       		.uleb128 0xb
 2905 00c0 11       		.uleb128 0x11
 2906 00c1 01       		.uleb128 0x1
 2907 00c2 12       		.uleb128 0x12
 2908 00c3 06       		.uleb128 0x6
 2909 00c4 40       		.uleb128 0x40
 2910 00c5 18       		.uleb128 0x18
 2911 00c6 9642     		.uleb128 0x2116
 2912 00c8 19       		.uleb128 0x19
 2913 00c9 00       		.byte	0
 2914 00ca 00       		.byte	0
 2915 00cb 10       		.uleb128 0x10
 2916 00cc 2E       		.uleb128 0x2e
 2917 00cd 01       		.byte	0x1
 2918 00ce 3F       		.uleb128 0x3f
 2919 00cf 19       		.uleb128 0x19
 2920 00d0 03       		.uleb128 0x3
 2921 00d1 0E       		.uleb128 0xe
 2922 00d2 3A       		.uleb128 0x3a
 2923 00d3 0B       		.uleb128 0xb
 2924 00d4 3B       		.uleb128 0x3b
 2925 00d5 0B       		.uleb128 0xb
 2926 00d6 49       		.uleb128 0x49
 2927 00d7 13       		.uleb128 0x13
 2928 00d8 11       		.uleb128 0x11
 2929 00d9 01       		.uleb128 0x1
 2930 00da 12       		.uleb128 0x12
 2931 00db 06       		.uleb128 0x6
 2932 00dc 40       		.uleb128 0x40
 2933 00dd 18       		.uleb128 0x18
 2934 00de 9642     		.uleb128 0x2116
 2935 00e0 19       		.uleb128 0x19
 2936 00e1 01       		.uleb128 0x1
 2937 00e2 13       		.uleb128 0x13
 2938 00e3 00       		.byte	0
 2939 00e4 00       		.byte	0
 2940 00e5 11       		.uleb128 0x11
 2941 00e6 34       		.uleb128 0x34
 2942 00e7 00       		.byte	0
 2943 00e8 03       		.uleb128 0x3
 2944 00e9 0E       		.uleb128 0xe
 2945 00ea 3A       		.uleb128 0x3a
 2946 00eb 0B       		.uleb128 0xb
 2947 00ec 3B       		.uleb128 0x3b
 2948 00ed 0B       		.uleb128 0xb
 2949 00ee 49       		.uleb128 0x49
 2950 00ef 13       		.uleb128 0x13
 2951 00f0 02       		.uleb128 0x2
 2952 00f1 18       		.uleb128 0x18
 2953 00f2 00       		.byte	0
 2954 00f3 00       		.byte	0
 2955 00f4 12       		.uleb128 0x12
 2956 00f5 0B       		.uleb128 0xb
 2957 00f6 01       		.byte	0x1
ARM GAS  C:\Users\klabu\AppData\Local\Temp\ccPR0mEi.s 			page 61


 2958 00f7 11       		.uleb128 0x11
 2959 00f8 01       		.uleb128 0x1
 2960 00f9 12       		.uleb128 0x12
 2961 00fa 06       		.uleb128 0x6
 2962 00fb 01       		.uleb128 0x1
 2963 00fc 13       		.uleb128 0x13
 2964 00fd 00       		.byte	0
 2965 00fe 00       		.byte	0
 2966 00ff 13       		.uleb128 0x13
 2967 0100 0B       		.uleb128 0xb
 2968 0101 01       		.byte	0x1
 2969 0102 11       		.uleb128 0x11
 2970 0103 01       		.uleb128 0x1
 2971 0104 12       		.uleb128 0x12
 2972 0105 06       		.uleb128 0x6
 2973 0106 00       		.byte	0
 2974 0107 00       		.byte	0
 2975 0108 14       		.uleb128 0x14
 2976 0109 34       		.uleb128 0x34
 2977 010a 00       		.byte	0
 2978 010b 03       		.uleb128 0x3
 2979 010c 08       		.uleb128 0x8
 2980 010d 3A       		.uleb128 0x3a
 2981 010e 0B       		.uleb128 0xb
 2982 010f 3B       		.uleb128 0x3b
 2983 0110 0B       		.uleb128 0xb
 2984 0111 49       		.uleb128 0x49
 2985 0112 13       		.uleb128 0x13
 2986 0113 02       		.uleb128 0x2
 2987 0114 18       		.uleb128 0x18
 2988 0115 00       		.byte	0
 2989 0116 00       		.byte	0
 2990 0117 15       		.uleb128 0x15
 2991 0118 21       		.uleb128 0x21
 2992 0119 00       		.byte	0
 2993 011a 49       		.uleb128 0x49
 2994 011b 13       		.uleb128 0x13
 2995 011c 2F       		.uleb128 0x2f
 2996 011d 05       		.uleb128 0x5
 2997 011e 00       		.byte	0
 2998 011f 00       		.byte	0
 2999 0120 16       		.uleb128 0x16
 3000 0121 2E       		.uleb128 0x2e
 3001 0122 01       		.byte	0x1
 3002 0123 3F       		.uleb128 0x3f
 3003 0124 19       		.uleb128 0x19
 3004 0125 03       		.uleb128 0x3
 3005 0126 0E       		.uleb128 0xe
 3006 0127 3A       		.uleb128 0x3a
 3007 0128 0B       		.uleb128 0xb
 3008 0129 3B       		.uleb128 0x3b
 3009 012a 05       		.uleb128 0x5
 3010 012b 49       		.uleb128 0x49
 3011 012c 13       		.uleb128 0x13
 3012 012d 11       		.uleb128 0x11
 3013 012e 01       		.uleb128 0x1
 3014 012f 12       		.uleb128 0x12
ARM GAS  C:\Users\klabu\AppData\Local\Temp\ccPR0mEi.s 			page 62


 3015 0130 06       		.uleb128 0x6
 3016 0131 40       		.uleb128 0x40
 3017 0132 18       		.uleb128 0x18
 3018 0133 9642     		.uleb128 0x2116
 3019 0135 19       		.uleb128 0x19
 3020 0136 01       		.uleb128 0x1
 3021 0137 13       		.uleb128 0x13
 3022 0138 00       		.byte	0
 3023 0139 00       		.byte	0
 3024 013a 17       		.uleb128 0x17
 3025 013b 34       		.uleb128 0x34
 3026 013c 00       		.byte	0
 3027 013d 03       		.uleb128 0x3
 3028 013e 0E       		.uleb128 0xe
 3029 013f 3A       		.uleb128 0x3a
 3030 0140 0B       		.uleb128 0xb
 3031 0141 3B       		.uleb128 0x3b
 3032 0142 05       		.uleb128 0x5
 3033 0143 49       		.uleb128 0x49
 3034 0144 13       		.uleb128 0x13
 3035 0145 02       		.uleb128 0x2
 3036 0146 18       		.uleb128 0x18
 3037 0147 00       		.byte	0
 3038 0148 00       		.byte	0
 3039 0149 18       		.uleb128 0x18
 3040 014a 34       		.uleb128 0x34
 3041 014b 00       		.byte	0
 3042 014c 03       		.uleb128 0x3
 3043 014d 08       		.uleb128 0x8
 3044 014e 3A       		.uleb128 0x3a
 3045 014f 0B       		.uleb128 0xb
 3046 0150 3B       		.uleb128 0x3b
 3047 0151 05       		.uleb128 0x5
 3048 0152 49       		.uleb128 0x49
 3049 0153 13       		.uleb128 0x13
 3050 0154 02       		.uleb128 0x2
 3051 0155 18       		.uleb128 0x18
 3052 0156 00       		.byte	0
 3053 0157 00       		.byte	0
 3054 0158 19       		.uleb128 0x19
 3055 0159 2E       		.uleb128 0x2e
 3056 015a 01       		.byte	0x1
 3057 015b 3F       		.uleb128 0x3f
 3058 015c 19       		.uleb128 0x19
 3059 015d 03       		.uleb128 0x3
 3060 015e 0E       		.uleb128 0xe
 3061 015f 3A       		.uleb128 0x3a
 3062 0160 0B       		.uleb128 0xb
 3063 0161 3B       		.uleb128 0x3b
 3064 0162 05       		.uleb128 0x5
 3065 0163 27       		.uleb128 0x27
 3066 0164 19       		.uleb128 0x19
 3067 0165 49       		.uleb128 0x49
 3068 0166 13       		.uleb128 0x13
 3069 0167 11       		.uleb128 0x11
 3070 0168 01       		.uleb128 0x1
 3071 0169 12       		.uleb128 0x12
ARM GAS  C:\Users\klabu\AppData\Local\Temp\ccPR0mEi.s 			page 63


 3072 016a 06       		.uleb128 0x6
 3073 016b 40       		.uleb128 0x40
 3074 016c 18       		.uleb128 0x18
 3075 016d 9642     		.uleb128 0x2116
 3076 016f 19       		.uleb128 0x19
 3077 0170 01       		.uleb128 0x1
 3078 0171 13       		.uleb128 0x13
 3079 0172 00       		.byte	0
 3080 0173 00       		.byte	0
 3081 0174 1A       		.uleb128 0x1a
 3082 0175 05       		.uleb128 0x5
 3083 0176 00       		.byte	0
 3084 0177 03       		.uleb128 0x3
 3085 0178 0E       		.uleb128 0xe
 3086 0179 3A       		.uleb128 0x3a
 3087 017a 0B       		.uleb128 0xb
 3088 017b 3B       		.uleb128 0x3b
 3089 017c 05       		.uleb128 0x5
 3090 017d 49       		.uleb128 0x49
 3091 017e 13       		.uleb128 0x13
 3092 017f 02       		.uleb128 0x2
 3093 0180 18       		.uleb128 0x18
 3094 0181 00       		.byte	0
 3095 0182 00       		.byte	0
 3096 0183 1B       		.uleb128 0x1b
 3097 0184 05       		.uleb128 0x5
 3098 0185 00       		.byte	0
 3099 0186 03       		.uleb128 0x3
 3100 0187 08       		.uleb128 0x8
 3101 0188 3A       		.uleb128 0x3a
 3102 0189 0B       		.uleb128 0xb
 3103 018a 3B       		.uleb128 0x3b
 3104 018b 05       		.uleb128 0x5
 3105 018c 49       		.uleb128 0x49
 3106 018d 13       		.uleb128 0x13
 3107 018e 02       		.uleb128 0x2
 3108 018f 18       		.uleb128 0x18
 3109 0190 00       		.byte	0
 3110 0191 00       		.byte	0
 3111 0192 1C       		.uleb128 0x1c
 3112 0193 2E       		.uleb128 0x2e
 3113 0194 01       		.byte	0x1
 3114 0195 3F       		.uleb128 0x3f
 3115 0196 19       		.uleb128 0x19
 3116 0197 03       		.uleb128 0x3
 3117 0198 0E       		.uleb128 0xe
 3118 0199 3A       		.uleb128 0x3a
 3119 019a 0B       		.uleb128 0xb
 3120 019b 3B       		.uleb128 0x3b
 3121 019c 05       		.uleb128 0x5
 3122 019d 27       		.uleb128 0x27
 3123 019e 19       		.uleb128 0x19
 3124 019f 11       		.uleb128 0x11
 3125 01a0 01       		.uleb128 0x1
 3126 01a1 12       		.uleb128 0x12
 3127 01a2 06       		.uleb128 0x6
 3128 01a3 40       		.uleb128 0x40
ARM GAS  C:\Users\klabu\AppData\Local\Temp\ccPR0mEi.s 			page 64


 3129 01a4 18       		.uleb128 0x18
 3130 01a5 9642     		.uleb128 0x2116
 3131 01a7 19       		.uleb128 0x19
 3132 01a8 01       		.uleb128 0x1
 3133 01a9 13       		.uleb128 0x13
 3134 01aa 00       		.byte	0
 3135 01ab 00       		.byte	0
 3136 01ac 1D       		.uleb128 0x1d
 3137 01ad 2E       		.uleb128 0x2e
 3138 01ae 01       		.byte	0x1
 3139 01af 3F       		.uleb128 0x3f
 3140 01b0 19       		.uleb128 0x19
 3141 01b1 03       		.uleb128 0x3
 3142 01b2 0E       		.uleb128 0xe
 3143 01b3 3A       		.uleb128 0x3a
 3144 01b4 0B       		.uleb128 0xb
 3145 01b5 3B       		.uleb128 0x3b
 3146 01b6 05       		.uleb128 0x5
 3147 01b7 27       		.uleb128 0x27
 3148 01b8 19       		.uleb128 0x19
 3149 01b9 11       		.uleb128 0x11
 3150 01ba 01       		.uleb128 0x1
 3151 01bb 12       		.uleb128 0x12
 3152 01bc 06       		.uleb128 0x6
 3153 01bd 40       		.uleb128 0x40
 3154 01be 18       		.uleb128 0x18
 3155 01bf 9742     		.uleb128 0x2117
 3156 01c1 19       		.uleb128 0x19
 3157 01c2 01       		.uleb128 0x1
 3158 01c3 13       		.uleb128 0x13
 3159 01c4 00       		.byte	0
 3160 01c5 00       		.byte	0
 3161 01c6 1E       		.uleb128 0x1e
 3162 01c7 34       		.uleb128 0x34
 3163 01c8 00       		.byte	0
 3164 01c9 03       		.uleb128 0x3
 3165 01ca 0E       		.uleb128 0xe
 3166 01cb 3A       		.uleb128 0x3a
 3167 01cc 0B       		.uleb128 0xb
 3168 01cd 3B       		.uleb128 0x3b
 3169 01ce 05       		.uleb128 0x5
 3170 01cf 49       		.uleb128 0x49
 3171 01d0 13       		.uleb128 0x13
 3172 01d1 3F       		.uleb128 0x3f
 3173 01d2 19       		.uleb128 0x19
 3174 01d3 3C       		.uleb128 0x3c
 3175 01d4 19       		.uleb128 0x19
 3176 01d5 00       		.byte	0
 3177 01d6 00       		.byte	0
 3178 01d7 1F       		.uleb128 0x1f
 3179 01d8 34       		.uleb128 0x34
 3180 01d9 00       		.byte	0
 3181 01da 03       		.uleb128 0x3
 3182 01db 0E       		.uleb128 0xe
 3183 01dc 3A       		.uleb128 0x3a
 3184 01dd 0B       		.uleb128 0xb
 3185 01de 3B       		.uleb128 0x3b
ARM GAS  C:\Users\klabu\AppData\Local\Temp\ccPR0mEi.s 			page 65


 3186 01df 0B       		.uleb128 0xb
 3187 01e0 49       		.uleb128 0x49
 3188 01e1 13       		.uleb128 0x13
 3189 01e2 3F       		.uleb128 0x3f
 3190 01e3 19       		.uleb128 0x19
 3191 01e4 02       		.uleb128 0x2
 3192 01e5 18       		.uleb128 0x18
 3193 01e6 00       		.byte	0
 3194 01e7 00       		.byte	0
 3195 01e8 20       		.uleb128 0x20
 3196 01e9 34       		.uleb128 0x34
 3197 01ea 00       		.byte	0
 3198 01eb 03       		.uleb128 0x3
 3199 01ec 08       		.uleb128 0x8
 3200 01ed 3A       		.uleb128 0x3a
 3201 01ee 0B       		.uleb128 0xb
 3202 01ef 3B       		.uleb128 0x3b
 3203 01f0 0B       		.uleb128 0xb
 3204 01f1 49       		.uleb128 0x49
 3205 01f2 13       		.uleb128 0x13
 3206 01f3 3F       		.uleb128 0x3f
 3207 01f4 19       		.uleb128 0x19
 3208 01f5 02       		.uleb128 0x2
 3209 01f6 18       		.uleb128 0x18
 3210 01f7 00       		.byte	0
 3211 01f8 00       		.byte	0
 3212 01f9 00       		.byte	0
 3213              		.section	.debug_aranges,"",%progbits
 3214 0000 6C000000 		.4byte	0x6c
 3215 0004 0200     		.2byte	0x2
 3216 0006 00000000 		.4byte	.Ldebug_info0
 3217 000a 04       		.byte	0x4
 3218 000b 00       		.byte	0
 3219 000c 0000     		.2byte	0
 3220 000e 0000     		.2byte	0
 3221 0010 00000000 		.4byte	.LFB64
 3222 0014 44000000 		.4byte	.LFE64-.LFB64
 3223 0018 00000000 		.4byte	.LFB65
 3224 001c 28000000 		.4byte	.LFE65-.LFB65
 3225 0020 00000000 		.4byte	.LFB66
 3226 0024 34000000 		.4byte	.LFE66-.LFB66
 3227 0028 00000000 		.4byte	.LFB67
 3228 002c 3A000000 		.4byte	.LFE67-.LFB67
 3229 0030 00000000 		.4byte	.LFB68
 3230 0034 84010000 		.4byte	.LFE68-.LFB68
 3231 0038 00000000 		.4byte	.LFB69
 3232 003c E8030000 		.4byte	.LFE69-.LFB69
 3233 0040 00000000 		.4byte	.LFB70
 3234 0044 B0010000 		.4byte	.LFE70-.LFB70
 3235 0048 00000000 		.4byte	.LFB71
 3236 004c 24010000 		.4byte	.LFE71-.LFB71
 3237 0050 00000000 		.4byte	.LFB72
 3238 0054 7A000000 		.4byte	.LFE72-.LFB72
 3239 0058 00000000 		.4byte	.LFB73
 3240 005c 7E000000 		.4byte	.LFE73-.LFB73
 3241 0060 00000000 		.4byte	.LFB74
 3242 0064 28000000 		.4byte	.LFE74-.LFB74
ARM GAS  C:\Users\klabu\AppData\Local\Temp\ccPR0mEi.s 			page 66


 3243 0068 00000000 		.4byte	0
 3244 006c 00000000 		.4byte	0
 3245              		.section	.debug_ranges,"",%progbits
 3246              	.Ldebug_ranges0:
 3247 0000 00000000 		.4byte	.LFB64
 3248 0004 44000000 		.4byte	.LFE64
 3249 0008 00000000 		.4byte	.LFB65
 3250 000c 28000000 		.4byte	.LFE65
 3251 0010 00000000 		.4byte	.LFB66
 3252 0014 34000000 		.4byte	.LFE66
 3253 0018 00000000 		.4byte	.LFB67
 3254 001c 3A000000 		.4byte	.LFE67
 3255 0020 00000000 		.4byte	.LFB68
 3256 0024 84010000 		.4byte	.LFE68
 3257 0028 00000000 		.4byte	.LFB69
 3258 002c E8030000 		.4byte	.LFE69
 3259 0030 00000000 		.4byte	.LFB70
 3260 0034 B0010000 		.4byte	.LFE70
 3261 0038 00000000 		.4byte	.LFB71
 3262 003c 24010000 		.4byte	.LFE71
 3263 0040 00000000 		.4byte	.LFB72
 3264 0044 7A000000 		.4byte	.LFE72
 3265 0048 00000000 		.4byte	.LFB73
 3266 004c 7E000000 		.4byte	.LFE73
 3267 0050 00000000 		.4byte	.LFB74
 3268 0054 28000000 		.4byte	.LFE74
 3269 0058 00000000 		.4byte	0
 3270 005c 00000000 		.4byte	0
 3271              		.section	.debug_line,"",%progbits
 3272              	.Ldebug_line0:
 3273 0000 FC030000 		.section	.debug_str,"MS",%progbits,1
 3273      0200A301 
 3273      00000201 
 3273      FB0E0D00 
 3273      01010101 
 3274              	.LASF30:
 3275 0000 6D6F6465 		.ascii	"model_id\000"
 3275      6C5F6964 
 3275      00
 3276              	.LASF16:
 3277 0009 666C6F61 		.ascii	"float\000"
 3277      7400
 3278              	.LASF29:
 3279 000f 73696D5F 		.ascii	"sim_id\000"
 3279      696400
 3280              	.LASF77:
 3281 0016 444F5F63 		.ascii	"DO_cal\000"
 3281      616C00
 3282              	.LASF65:
 3283 001d 77715F75 		.ascii	"wq_uart_clear\000"
 3283      6172745F 
 3283      636C6561 
 3283      7200
 3284              	.LASF74:
 3285 002b 65786365 		.ascii	"excerpt\000"
 3285      72707400 
 3286              	.LASF90:
ARM GAS  C:\Users\klabu\AppData\Local\Temp\ccPR0mEi.s 			page 67


 3287 0033 64617461 		.ascii	"data\000"
 3287      00
 3288              	.LASF63:
 3289 0038 7379735F 		.ascii	"sys_settings_t\000"
 3289      73657474 
 3289      696E6773 
 3289      5F7400
 3290              	.LASF15:
 3291 0047 666C6F61 		.ascii	"float32\000"
 3291      74333200 
 3292              	.LASF54:
 3293 004f 63757272 		.ascii	"currentCountDownValue\000"
 3293      656E7443 
 3293      6F756E74 
 3293      446F776E 
 3293      56616C75 
 3294              	.LASF83:
 3295 0065 6D656469 		.ascii	"median\000"
 3295      616E00
 3296              	.LASF53:
 3297 006c 636F756E 		.ascii	"countDownValue\000"
 3297      74446F77 
 3297      6E56616C 
 3297      756500
 3298              	.LASF2:
 3299 007b 73686F72 		.ascii	"short int\000"
 3299      7420696E 
 3299      7400
 3300              	.LASF20:
 3301 0085 73697A65 		.ascii	"sizetype\000"
 3301      74797065 
 3301      00
 3302              	.LASF61:
 3303 008e 65705F68 		.ascii	"ep_host\000"
 3303      6F737400 
 3304              	.LASF107:
 3305 0096 474E5520 		.ascii	"GNU C11 5.4.1 20160609 (release) [ARM/embedded-5-br"
 3305      43313120 
 3305      352E342E 
 3305      31203230 
 3305      31363036 
 3306 00c9 616E6368 		.ascii	"anch revision 237715] -mcpu=cortex-m3 -mthumb -g -O"
 3306      20726576 
 3306      6973696F 
 3306      6E203233 
 3306      37373135 
 3307 00fc 30202D66 		.ascii	"0 -ffunction-sections -ffat-lto-objects\000"
 3307      66756E63 
 3307      74696F6E 
 3307      2D736563 
 3307      74696F6E 
 3308              	.LASF51:
 3309 0124 74656D70 		.ascii	"temp_reading\000"
 3309      5F726561 
 3309      64696E67 
 3309      00
 3310              	.LASF66:
ARM GAS  C:\Users\klabu\AppData\Local\Temp\ccPR0mEi.s 			page 68


 3311 0131 77715F73 		.ascii	"wq_start_talking\000"
 3311      74617274 
 3311      5F74616C 
 3311      6B696E67 
 3311      00
 3312              	.LASF21:
 3313 0142 75696E74 		.ascii	"uint\000"
 3313      00
 3314              	.LASF85:
 3315 0147 66737761 		.ascii	"fswap\000"
 3315      7000
 3316              	.LASF35:
 3317 014d 65636E6F 		.ascii	"ecno\000"
 3317      00
 3318              	.LASF26:
 3319 0152 76616C75 		.ascii	"value\000"
 3319      6500
 3320              	.LASF12:
 3321 0158 75696E74 		.ascii	"uint16\000"
 3321      313600
 3322              	.LASF88:
 3323 015f 64617461 		.ascii	"dataPointsInStack\000"
 3323      506F696E 
 3323      7473496E 
 3323      53746163 
 3323      6B00
 3324              	.LASF11:
 3325 0171 75696E74 		.ascii	"uint8\000"
 3325      3800
 3326              	.LASF108:
 3327 0177 77617465 		.ascii	"water_quality.c\000"
 3327      725F7175 
 3327      616C6974 
 3327      792E6300 
 3328              	.LASF58:
 3329 0187 6D6F6465 		.ascii	"modem_info\000"
 3329      6D5F696E 
 3329      666F00
 3330              	.LASF64:
 3331 0192 57515F49 		.ascii	"WQ_ISR\000"
 3331      535200
 3332              	.LASF34:
 3333 0199 72736370 		.ascii	"rscp\000"
 3333      00
 3334              	.LASF27:
 3335 019e 74696D65 		.ascii	"timeStamp\000"
 3335      5374616D 
 3335      7000
 3336              	.LASF89:
 3337 01a8 64617461 		.ascii	"dataPointsInStackDesired\000"
 3337      506F696E 
 3337      7473496E 
 3337      53746163 
 3337      6B446573 
 3338              	.LASF52:
 3339 01c1 77715F73 		.ascii	"wq_sensors_t\000"
 3339      656E736F 
ARM GAS  C:\Users\klabu\AppData\Local\Temp\ccPR0mEi.s 			page 69


 3339      72735F74 
 3339      00
 3340              	.LASF14:
 3341 01ce 696E7433 		.ascii	"int32\000"
 3341      3200
 3342              	.LASF6:
 3343 01d4 6C6F6E67 		.ascii	"long long int\000"
 3343      206C6F6E 
 3343      6720696E 
 3343      7400
 3344              	.LASF7:
 3345 01e2 6C6F6E67 		.ascii	"long long unsigned int\000"
 3345      206C6F6E 
 3345      6720756E 
 3345      7369676E 
 3345      65642069 
 3346              	.LASF13:
 3347 01f9 696E7431 		.ascii	"int16\000"
 3347      3600
 3348              	.LASF18:
 3349 01ff 63686172 		.ascii	"char\000"
 3349      00
 3350              	.LASF24:
 3351 0204 72656173 		.ascii	"reason\000"
 3351      6F6E00
 3352              	.LASF4:
 3353 020b 6C6F6E67 		.ascii	"long int\000"
 3353      20696E74 
 3353      00
 3354              	.LASF87:
 3355 0214 62756666 		.ascii	"buffer_overflow\000"
 3355      65725F6F 
 3355      76657266 
 3355      6C6F7700 
 3356              	.LASF81:
 3357 0224 54656D70 		.ascii	"Temperature_cal\000"
 3357      65726174 
 3357      7572655F 
 3357      63616C00 
 3358              	.LASF100:
 3359 0234 616C6172 		.ascii	"alarmMeasure\000"
 3359      6D4D6561 
 3359      73757265 
 3359      00
 3360              	.LASF50:
 3361 0241 616C6C5F 		.ascii	"all_temp_readings\000"
 3361      74656D70 
 3361      5F726561 
 3361      64696E67 
 3361      7300
 3362              	.LASF105:
 3363 0253 77715F72 		.ascii	"wq_received_string\000"
 3363      65636569 
 3363      7665645F 
 3363      73747269 
 3363      6E6700
 3364              	.LASF57:
ARM GAS  C:\Users\klabu\AppData\Local\Temp\ccPR0mEi.s 			page 70


 3365 0266 616C6172 		.ascii	"alarm\000"
 3365      6D00
 3366              	.LASF43:
 3367 026c 6D656173 		.ascii	"measure_time\000"
 3367      7572655F 
 3367      74696D65 
 3367      00
 3368              	.LASF80:
 3369 0279 63616C69 		.ascii	"calibrated\000"
 3369      62726174 
 3369      656400
 3370              	.LASF102:
 3371 0284 616C6172 		.ascii	"alarmSync\000"
 3371      6D53796E 
 3371      6300
 3372              	.LASF19:
 3373 028e 6C6F6E67 		.ascii	"long double\000"
 3373      20646F75 
 3373      626C6500 
 3374              	.LASF1:
 3375 029a 756E7369 		.ascii	"unsigned char\000"
 3375      676E6564 
 3375      20636861 
 3375      7200
 3376              	.LASF67:
 3377 02a8 77715F73 		.ascii	"wq_stop_talking\000"
 3377      746F705F 
 3377      74616C6B 
 3377      696E6700 
 3378              	.LASF37:
 3379 02b8 72737270 		.ascii	"rsrp\000"
 3379      00
 3380              	.LASF48:
 3381 02bd 616C6C5F 		.ascii	"all_do_readings\000"
 3381      646F5F72 
 3381      65616469 
 3381      6E677300 
 3382              	.LASF92:
 3383 02cd 6D6F6465 		.ascii	"modem_start_time_stamp\000"
 3383      6D5F7374 
 3383      6172745F 
 3383      74696D65 
 3383      5F737461 
 3384              	.LASF91:
 3385 02e4 6D6F6465 		.ascii	"modem_state\000"
 3385      6D5F7374 
 3385      61746500 
 3386              	.LASF0:
 3387 02f0 7369676E 		.ascii	"signed char\000"
 3387      65642063 
 3387      68617200 
 3388              	.LASF106:
 3389 02fc 77715F73 		.ascii	"wq_string_index\000"
 3389      7472696E 
 3389      675F696E 
 3389      64657800 
 3390              	.LASF99:
ARM GAS  C:\Users\klabu\AppData\Local\Temp\ccPR0mEi.s 			page 71


 3391 030c 73797374 		.ascii	"system_settings\000"
 3391      656D5F73 
 3391      65747469 
 3391      6E677300 
 3392              	.LASF59:
 3393 031c 63686970 		.ascii	"chip_uniqueId\000"
 3393      5F756E69 
 3393      71756549 
 3393      6400
 3394              	.LASF8:
 3395 032a 756E7369 		.ascii	"unsigned int\000"
 3395      676E6564 
 3395      20696E74 
 3395      00
 3396              	.LASF28:
 3397 0337 6B65795F 		.ascii	"key_value_t\000"
 3397      76616C75 
 3397      655F7400 
 3398              	.LASF109:
 3399 0343 433A5C55 		.ascii	"C:\\Users\\klabu\\Desktop\\BrookeResearch\\notoriOS"
 3399      73657273 
 3399      5C6B6C61 
 3399      62755C44 
 3399      65736B74 
 3400 0371 5C6E6F74 		.ascii	"\\notoriOS.cydsn\000"
 3400      6F72694F 
 3400      532E6379 
 3400      64736E00 
 3401              	.LASF44:
 3402 0381 73796E63 		.ascii	"sync_time\000"
 3402      5F74696D 
 3402      6500
 3403              	.LASF93:
 3404 038b 6D6F6465 		.ascii	"modem_stats\000"
 3404      6D5F7374 
 3404      61747300 
 3405              	.LASF72:
 3406 0397 77715F74 		.ascii	"wq_take_reading\000"
 3406      616B655F 
 3406      72656164 
 3406      696E6700 
 3407              	.LASF101:
 3408 03a7 74696D65 		.ascii	"timeToMeasure\000"
 3408      546F4D65 
 3408      61737572 
 3408      6500
 3409              	.LASF47:
 3410 03b5 75706461 		.ascii	"updatable_parameters_t\000"
 3410      7461626C 
 3410      655F7061 
 3410      72616D65 
 3410      74657273 
 3411              	.LASF33:
 3412 03cc 72786C65 		.ascii	"rxlev\000"
 3412      7600
 3413              	.LASF42:
 3414 03d2 73696D5F 		.ascii	"sim_type\000"
ARM GAS  C:\Users\klabu\AppData\Local\Temp\ccPR0mEi.s 			page 72


 3414      74797065 
 3414      00
 3415              	.LASF60:
 3416 03db 7379735F 		.ascii	"sys_info_t\000"
 3416      696E666F 
 3416      5F7400
 3417              	.LASF3:
 3418 03e6 73686F72 		.ascii	"short unsigned int\000"
 3418      7420756E 
 3418      7369676E 
 3418      65642069 
 3418      6E7400
 3419              	.LASF38:
 3420 03f9 74696D65 		.ascii	"time_to_network_connect\000"
 3420      5F746F5F 
 3420      6E657477 
 3420      6F726B5F 
 3420      636F6E6E 
 3421              	.LASF23:
 3422 0411 73746174 		.ascii	"status\000"
 3422      757300
 3423              	.LASF98:
 3424 0418 73797374 		.ascii	"system_info\000"
 3424      656D5F69 
 3424      6E666F00 
 3425              	.LASF39:
 3426 0424 74696D65 		.ascii	"time_to_acquire_ip\000"
 3426      5F746F5F 
 3426      61637175 
 3426      6972655F 
 3426      697000
 3427              	.LASF86:
 3428 0437 49544D5F 		.ascii	"ITM_RxBuffer\000"
 3428      52784275 
 3428      66666572 
 3428      00
 3429              	.LASF31:
 3430 0444 696D6569 		.ascii	"imei\000"
 3430      00
 3431              	.LASF10:
 3432 0449 696E7433 		.ascii	"int32_t\000"
 3432      325F7400 
 3433              	.LASF84:
 3434 0451 66736F72 		.ascii	"fsort\000"
 3434      7400
 3435              	.LASF40:
 3436 0457 6D6F6465 		.ascii	"modem_stats_t\000"
 3436      6D5F7374 
 3436      6174735F 
 3436      7400
 3437              	.LASF46:
 3438 0465 5F426F6F 		.ascii	"_Bool\000"
 3438      6C00
 3439              	.LASF104:
 3440 046b 74696D65 		.ascii	"timeToSycnRemoteParams\000"
 3440      546F5379 
 3440      636E5265 
ARM GAS  C:\Users\klabu\AppData\Local\Temp\ccPR0mEi.s 			page 73


 3440      6D6F7465 
 3440      50617261 
 3441              	.LASF69:
 3442 0482 6368616E 		.ascii	"channel\000"
 3442      6E656C00 
 3443              	.LASF76:
 3444 048a 74657374 		.ascii	"test\000"
 3444      00
 3445              	.LASF36:
 3446 048f 72737271 		.ascii	"rsrq\000"
 3446      00
 3447              	.LASF97:
 3448 0494 68747470 		.ascii	"http_route\000"
 3448      5F726F75 
 3448      746500
 3449              	.LASF71:
 3450 049f 72656164 		.ascii	"reading\000"
 3450      696E6700 
 3451              	.LASF75:
 3452 04a7 72657375 		.ascii	"results\000"
 3452      6C747300 
 3453              	.LASF49:
 3454 04af 646F5F72 		.ascii	"do_reading\000"
 3454      65616469 
 3454      6E6700
 3455              	.LASF5:
 3456 04ba 6C6F6E67 		.ascii	"long unsigned int\000"
 3456      20756E73 
 3456      69676E65 
 3456      6420696E 
 3456      7400
 3457              	.LASF17:
 3458 04cc 646F7562 		.ascii	"double\000"
 3458      6C6500
 3459              	.LASF82:
 3460 04d3 61727261 		.ascii	"array\000"
 3460      7900
 3461              	.LASF110:
 3462 04d9 666C6F61 		.ascii	"float_find_median\000"
 3462      745F6669 
 3462      6E645F6D 
 3462      65646961 
 3462      6E00
 3463              	.LASF45:
 3464 04eb 64656275 		.ascii	"debug_level\000"
 3464      675F6C65 
 3464      76656C00 
 3465              	.LASF32:
 3466 04f7 6D6F6465 		.ascii	"modem_info_t\000"
 3466      6D5F696E 
 3466      666F5F74 
 3466      00
 3467              	.LASF55:
 3468 0504 636F756E 		.ascii	"countDownType\000"
 3468      74446F77 
 3468      6E547970 
 3468      6500
ARM GAS  C:\Users\klabu\AppData\Local\Temp\ccPR0mEi.s 			page 74


 3469              	.LASF9:
 3470 0512 5F5F696E 		.ascii	"__int32_t\000"
 3470      7433325F 
 3470      7400
 3471              	.LASF79:
 3472 051c 72616E67 		.ascii	"range\000"
 3472      6500
 3473              	.LASF70:
 3474 0522 746F6B65 		.ascii	"token\000"
 3474      6E00
 3475              	.LASF56:
 3476 0528 636F756E 		.ascii	"countDownResetCondition\000"
 3476      74446F77 
 3476      6E526573 
 3476      6574436F 
 3476      6E646974 
 3477              	.LASF25:
 3478 0540 74657374 		.ascii	"test_t\000"
 3478      5F7400
 3479              	.LASF22:
 3480 0547 74657374 		.ascii	"test_name\000"
 3480      5F6E616D 
 3480      6500
 3481              	.LASF68:
 3482 0551 6F757470 		.ascii	"output\000"
 3482      757400
 3483              	.LASF73:
 3484 0558 77715F73 		.ascii	"wq_sensor_test\000"
 3484      656E736F 
 3484      725F7465 
 3484      737400
 3485              	.LASF94:
 3486 0567 75706461 		.ascii	"updatable_parameters\000"
 3486      7461626C 
 3486      655F7061 
 3486      72616D65 
 3486      74657273 
 3487              	.LASF62:
 3488 057c 65705F70 		.ascii	"ep_port\000"
 3488      6F727400 
 3489              	.LASF96:
 3490 0584 68747470 		.ascii	"http_body\000"
 3490      5F626F64 
 3490      7900
 3491              	.LASF41:
 3492 058e 6E6F6465 		.ascii	"node_type\000"
 3492      5F747970 
 3492      6500
 3493              	.LASF95:
 3494 0598 68747470 		.ascii	"http_request\000"
 3494      5F726571 
 3494      75657374 
 3494      00
 3495              	.LASF103:
 3496 05a5 74696D65 		.ascii	"timeToSync\000"
 3496      546F5379 
 3496      6E6300
ARM GAS  C:\Users\klabu\AppData\Local\Temp\ccPR0mEi.s 			page 75


 3497              	.LASF78:
 3498 05b0 72656164 		.ascii	"readings\000"
 3498      696E6773 
 3498      00
 3499              		.ident	"GCC: (GNU Tools for ARM Embedded Processors) 5.4.1 20160609 (release) [ARM/embedded-5-bran
