ARM GAS  C:\Users\HYFI_A~1\AppData\Local\Temp\ccRajosi.s 			page 1


   1              		.syntax unified
   2              		.cpu cortex-m3
   3              		.fpu softvfp
   4              		.eabi_attribute 20, 1
   5              		.eabi_attribute 21, 1
   6              		.eabi_attribute 23, 3
   7              		.eabi_attribute 24, 1
   8              		.eabi_attribute 25, 1
   9              		.eabi_attribute 26, 1
  10              		.eabi_attribute 30, 6
  11              		.eabi_attribute 34, 1
  12              		.eabi_attribute 18, 4
  13              		.thumb
  14              		.syntax unified
  15              		.file	"data.c"
  16              		.text
  17              	.Ltext0:
  18              		.cfi_sections	.debug_frame
  19              		.comm	debug_string,100,4
  20              		.syntax unified
  21              		.global _printf_float
  22              		.thumb
  23              		.syntax unified
  24              		.comm	dataPointsInStack,2,2
  25              		.comm	data,4400,4
  26              		.section	.rodata
  27              		.align	2
  28              	.LC0:
  29 0000 44617461 		.ascii	"Data stack full. Begin overwrite of circular buffer"
  29      20737461 
  29      636B2066 
  29      756C6C2E 
  29      20426567 
  30 0033 2E00     		.ascii	".\000"
  31              		.section	.text.pushData,"ax",%progbits
  32              		.align	2
  33              		.global	pushData
  34              		.thumb
  35              		.thumb_func
  36              		.type	pushData, %function
  37              	pushData:
  38              	.LFB64:
  39              		.file 1 "data.c"
   1:data.c        **** // ==============================================
   2:data.c        **** //  I got stacks on stacks (on stacks)
   3:data.c        **** //      - Soulja Boy (2011)
   4:data.c        **** //
   5:data.c        **** // This defines methods for the core data stack, which will be syunced with the server
   6:data.c        **** // ==============================================
   7:data.c        **** #include "data.h"
   8:data.c        **** 
   9:data.c        **** 
  10:data.c        **** // ==============================================
  11:data.c        **** //  Push It
  12:data.c        **** //      - Salt-n-Peppa (1987)
  13:data.c        **** //
  14:data.c        **** // This pushes data onto the stack
ARM GAS  C:\Users\HYFI_A~1\AppData\Local\Temp\ccRajosi.s 			page 2


  15:data.c        **** // ==============================================
  16:data.c        **** uint8 pushData(char * key, char *value, int32 timestamp){
  40              		.loc 1 16 0
  41              		.cfi_startproc
  42              		@ args = 0, pretend = 0, frame = 16
  43              		@ frame_needed = 1, uses_anonymous_args = 0
  44 0000 80B5     		push	{r7, lr}
  45              		.cfi_def_cfa_offset 8
  46              		.cfi_offset 7, -8
  47              		.cfi_offset 14, -4
  48 0002 84B0     		sub	sp, sp, #16
  49              		.cfi_def_cfa_offset 24
  50 0004 00AF     		add	r7, sp, #0
  51              		.cfi_def_cfa_register 7
  52 0006 F860     		str	r0, [r7, #12]
  53 0008 B960     		str	r1, [r7, #8]
  54 000a 7A60     		str	r2, [r7, #4]
  17:data.c        ****     
  18:data.c        ****     sprintf(data[dataPointsInStack].key, "%s", key);
  55              		.loc 1 18 0
  56 000c 1E4B     		ldr	r3, .L4
  57 000e 1B88     		ldrh	r3, [r3]
  58 0010 1A46     		mov	r2, r3
  59 0012 2C23     		movs	r3, #44
  60 0014 03FB02F3 		mul	r3, r3, r2
  61 0018 1C4A     		ldr	r2, .L4+4
  62 001a 1344     		add	r3, r3, r2
  63 001c F968     		ldr	r1, [r7, #12]
  64 001e 1846     		mov	r0, r3
  65 0020 FFF7FEFF 		bl	strcpy
  19:data.c        ****     sprintf(data[dataPointsInStack].value, "%s", value);
  66              		.loc 1 19 0
  67 0024 184B     		ldr	r3, .L4
  68 0026 1B88     		ldrh	r3, [r3]
  69 0028 1A46     		mov	r2, r3
  70 002a 2C23     		movs	r3, #44
  71 002c 03FB02F3 		mul	r3, r3, r2
  72 0030 1033     		adds	r3, r3, #16
  73 0032 164A     		ldr	r2, .L4+4
  74 0034 1344     		add	r3, r3, r2
  75 0036 0433     		adds	r3, r3, #4
  76 0038 B968     		ldr	r1, [r7, #8]
  77 003a 1846     		mov	r0, r3
  78 003c FFF7FEFF 		bl	strcpy
  20:data.c        ****     data[dataPointsInStack].timeStamp = timestamp;
  79              		.loc 1 20 0
  80 0040 114B     		ldr	r3, .L4
  81 0042 1B88     		ldrh	r3, [r3]
  82 0044 1946     		mov	r1, r3
  83 0046 114A     		ldr	r2, .L4+4
  84 0048 2C23     		movs	r3, #44
  85 004a 03FB01F3 		mul	r3, r3, r1
  86 004e 1344     		add	r3, r3, r2
  87 0050 2833     		adds	r3, r3, #40
  88 0052 7A68     		ldr	r2, [r7, #4]
  89 0054 1A60     		str	r2, [r3]
  21:data.c        ****   
ARM GAS  C:\Users\HYFI_A~1\AppData\Local\Temp\ccRajosi.s 			page 3


  22:data.c        ****     dataPointsInStack++;
  90              		.loc 1 22 0
  91 0056 0C4B     		ldr	r3, .L4
  92 0058 1B88     		ldrh	r3, [r3]
  93 005a 0133     		adds	r3, r3, #1
  94 005c 9AB2     		uxth	r2, r3
  95 005e 0A4B     		ldr	r3, .L4
  96 0060 1A80     		strh	r2, [r3]	@ movhi
  23:data.c        ****     
  24:data.c        ****     //cricular buffer
  25:data.c        ****     //if stack is full, loop around and delete first point
  26:data.c        ****     //this should be fixed to store the overwritte data onto SD card
  27:data.c        ****     if(dataPointsInStack >= DATA_MAX_VALUES){
  97              		.loc 1 27 0
  98 0062 094B     		ldr	r3, .L4
  99 0064 1B88     		ldrh	r3, [r3]
 100 0066 632B     		cmp	r3, #99
 101 0068 08D9     		bls	.L2
  28:data.c        ****         dataPointsInStack = 0;
 102              		.loc 1 28 0
 103 006a 074B     		ldr	r3, .L4
 104 006c 0022     		movs	r2, #0
 105 006e 1A80     		strh	r2, [r3]	@ movhi
  29:data.c        ****         printNotif(NOTIF_TYPE_ERROR,"Data stack full. Begin overwrite of circular buffer.");
 106              		.loc 1 29 0
 107 0070 0749     		ldr	r1, .L4+8
 108 0072 0220     		movs	r0, #2
 109 0074 FFF7FEFF 		bl	printNotif
  30:data.c        ****         return 0;
 110              		.loc 1 30 0
 111 0078 0023     		movs	r3, #0
 112 007a 00E0     		b	.L3
 113              	.L2:
  31:data.c        ****     }
  32:data.c        ****     
  33:data.c        ****     return 1;
 114              		.loc 1 33 0
 115 007c 0123     		movs	r3, #1
 116              	.L3:
  34:data.c        **** }
 117              		.loc 1 34 0
 118 007e 1846     		mov	r0, r3
 119 0080 1037     		adds	r7, r7, #16
 120              		.cfi_def_cfa_offset 8
 121 0082 BD46     		mov	sp, r7
 122              		.cfi_def_cfa_register 13
 123              		@ sp needed
 124 0084 80BD     		pop	{r7, pc}
 125              	.L5:
 126 0086 00BF     		.align	2
 127              	.L4:
 128 0088 00000000 		.word	dataPointsInStack
 129 008c 00000000 		.word	data
 130 0090 00000000 		.word	.LC0
 131              		.cfi_endproc
 132              	.LFE64:
 133              		.size	pushData, .-pushData
ARM GAS  C:\Users\HYFI_A~1\AppData\Local\Temp\ccRajosi.s 			page 4


 134              		.section	.text.popData,"ax",%progbits
 135              		.align	2
 136              		.global	popData
 137              		.thumb
 138              		.thumb_func
 139              		.type	popData, %function
 140              	popData:
 141              	.LFB65:
  35:data.c        **** 
  36:data.c        **** key_value_t popData(){
 142              		.loc 1 36 0
 143              		.cfi_startproc
 144              		@ args = 0, pretend = 0, frame = 8
 145              		@ frame_needed = 1, uses_anonymous_args = 0
 146              		@ link register save eliminated.
 147 0000 B0B4     		push	{r4, r5, r7}
 148              		.cfi_def_cfa_offset 12
 149              		.cfi_offset 4, -12
 150              		.cfi_offset 5, -8
 151              		.cfi_offset 7, -4
 152 0002 83B0     		sub	sp, sp, #12
 153              		.cfi_def_cfa_offset 24
 154 0004 00AF     		add	r7, sp, #0
 155              		.cfi_def_cfa_register 7
 156 0006 7860     		str	r0, [r7, #4]
  37:data.c        ****     
  38:data.c        ****     if(dataPointsInStack>0){
 157              		.loc 1 38 0
 158 0008 184B     		ldr	r3, .L9
 159 000a 1B88     		ldrh	r3, [r3]
 160 000c 002B     		cmp	r3, #0
 161 000e 19D0     		beq	.L7
  39:data.c        ****         dataPointsInStack--;
 162              		.loc 1 39 0
 163 0010 164B     		ldr	r3, .L9
 164 0012 1B88     		ldrh	r3, [r3]
 165 0014 013B     		subs	r3, r3, #1
 166 0016 9AB2     		uxth	r2, r3
 167 0018 144B     		ldr	r3, .L9
 168 001a 1A80     		strh	r2, [r3]	@ movhi
  40:data.c        ****         return data[dataPointsInStack];
 169              		.loc 1 40 0
 170 001c 134B     		ldr	r3, .L9
 171 001e 1B88     		ldrh	r3, [r3]
 172 0020 1846     		mov	r0, r3
 173 0022 7968     		ldr	r1, [r7, #4]
 174 0024 124A     		ldr	r2, .L9+4
 175 0026 2C23     		movs	r3, #44
 176 0028 03FB00F3 		mul	r3, r3, r0
 177 002c 1344     		add	r3, r3, r2
 178 002e 0C46     		mov	r4, r1
 179 0030 1D46     		mov	r5, r3
 180 0032 0FCD     		ldmia	r5!, {r0, r1, r2, r3}
 181 0034 0FC4     		stmia	r4!, {r0, r1, r2, r3}
 182 0036 0FCD     		ldmia	r5!, {r0, r1, r2, r3}
 183 0038 0FC4     		stmia	r4!, {r0, r1, r2, r3}
 184 003a 95E80700 		ldmia	r5, {r0, r1, r2}
ARM GAS  C:\Users\HYFI_A~1\AppData\Local\Temp\ccRajosi.s 			page 5


 185 003e 84E80700 		stmia	r4, {r0, r1, r2}
 186 0042 0EE0     		b	.L6
 187              	.L7:
  41:data.c        ****     }else{
  42:data.c        ****         dataPointsInStack = 0;
 188              		.loc 1 42 0
 189 0044 094B     		ldr	r3, .L9
 190 0046 0022     		movs	r2, #0
 191 0048 1A80     		strh	r2, [r3]	@ movhi
  43:data.c        ****         return data[0];   
 192              		.loc 1 43 0
 193 004a 7B68     		ldr	r3, [r7, #4]
 194 004c 084A     		ldr	r2, .L9+4
 195 004e 1C46     		mov	r4, r3
 196 0050 1546     		mov	r5, r2
 197 0052 0FCD     		ldmia	r5!, {r0, r1, r2, r3}
 198 0054 0FC4     		stmia	r4!, {r0, r1, r2, r3}
 199 0056 0FCD     		ldmia	r5!, {r0, r1, r2, r3}
 200 0058 0FC4     		stmia	r4!, {r0, r1, r2, r3}
 201 005a 95E80700 		ldmia	r5, {r0, r1, r2}
 202 005e 84E80700 		stmia	r4, {r0, r1, r2}
 203              	.L6:
  44:data.c        ****     }
  45:data.c        **** }
 204              		.loc 1 45 0
 205 0062 7868     		ldr	r0, [r7, #4]
 206 0064 0C37     		adds	r7, r7, #12
 207              		.cfi_def_cfa_offset 12
 208 0066 BD46     		mov	sp, r7
 209              		.cfi_def_cfa_register 13
 210              		@ sp needed
 211 0068 B0BC     		pop	{r4, r5, r7}
 212              		.cfi_restore 7
 213              		.cfi_restore 5
 214              		.cfi_restore 4
 215              		.cfi_def_cfa_offset 0
 216 006a 7047     		bx	lr
 217              	.L10:
 218              		.align	2
 219              	.L9:
 220 006c 00000000 		.word	dataPointsInStack
 221 0070 00000000 		.word	data
 222              		.cfi_endproc
 223              	.LFE65:
 224              		.size	popData, .-popData
 225              		.section	.text.Initialize_Data_Stack,"ax",%progbits
 226              		.align	2
 227              		.global	Initialize_Data_Stack
 228              		.thumb
 229              		.thumb_func
 230              		.type	Initialize_Data_Stack, %function
 231              	Initialize_Data_Stack:
 232              	.LFB66:
  46:data.c        **** 
  47:data.c        **** 
  48:data.c        **** void Initialize_Data_Stack(){
 233              		.loc 1 48 0
ARM GAS  C:\Users\HYFI_A~1\AppData\Local\Temp\ccRajosi.s 			page 6


 234              		.cfi_startproc
 235              		@ args = 0, pretend = 0, frame = 0
 236              		@ frame_needed = 1, uses_anonymous_args = 0
 237 0000 80B5     		push	{r7, lr}
 238              		.cfi_def_cfa_offset 8
 239              		.cfi_offset 7, -8
 240              		.cfi_offset 14, -4
 241 0002 00AF     		add	r7, sp, #0
 242              		.cfi_def_cfa_register 7
  49:data.c        ****     Clear_Data_Stack();
 243              		.loc 1 49 0
 244 0004 FFF7FEFF 		bl	Clear_Data_Stack
  50:data.c        **** }
 245              		.loc 1 50 0
 246 0008 00BF     		nop
 247 000a 80BD     		pop	{r7, pc}
 248              		.cfi_endproc
 249              	.LFE66:
 250              		.size	Initialize_Data_Stack, .-Initialize_Data_Stack
 251              		.section	.text.Clear_Data_Stack,"ax",%progbits
 252              		.align	2
 253              		.global	Clear_Data_Stack
 254              		.thumb
 255              		.thumb_func
 256              		.type	Clear_Data_Stack, %function
 257              	Clear_Data_Stack:
 258              	.LFB67:
  51:data.c        **** 
  52:data.c        **** void Clear_Data_Stack(){
 259              		.loc 1 52 0
 260              		.cfi_startproc
 261              		@ args = 0, pretend = 0, frame = 8
 262              		@ frame_needed = 1, uses_anonymous_args = 0
 263              		@ link register save eliminated.
 264 0000 80B4     		push	{r7}
 265              		.cfi_def_cfa_offset 4
 266              		.cfi_offset 7, -4
 267 0002 83B0     		sub	sp, sp, #12
 268              		.cfi_def_cfa_offset 16
 269 0004 00AF     		add	r7, sp, #0
 270              		.cfi_def_cfa_register 7
 271              	.LBB2:
  53:data.c        ****     
  54:data.c        ****     for(uint16 i;i<DATA_MAX_VALUES;i++){
 272              		.loc 1 54 0
 273 0006 1CE0     		b	.L13
 274              	.L14:
  55:data.c        ****         data[i].key[0] = '\0';
 275              		.loc 1 55 0 discriminator 2
 276 0008 FB88     		ldrh	r3, [r7, #6]
 277 000a 134A     		ldr	r2, .L15
 278 000c 2C21     		movs	r1, #44
 279 000e 01FB03F3 		mul	r3, r1, r3
 280 0012 1344     		add	r3, r3, r2
 281 0014 0022     		movs	r2, #0
 282 0016 1A70     		strb	r2, [r3]
  56:data.c        ****         data[i].value[0] = '\0';
ARM GAS  C:\Users\HYFI_A~1\AppData\Local\Temp\ccRajosi.s 			page 7


 283              		.loc 1 56 0 discriminator 2
 284 0018 FB88     		ldrh	r3, [r7, #6]
 285 001a 0F4A     		ldr	r2, .L15
 286 001c 2C21     		movs	r1, #44
 287 001e 01FB03F3 		mul	r3, r1, r3
 288 0022 1344     		add	r3, r3, r2
 289 0024 1433     		adds	r3, r3, #20
 290 0026 0022     		movs	r2, #0
 291 0028 1A70     		strb	r2, [r3]
  57:data.c        ****         data[i].timeStamp = 0;
 292              		.loc 1 57 0 discriminator 2
 293 002a FB88     		ldrh	r3, [r7, #6]
 294 002c 0A4A     		ldr	r2, .L15
 295 002e 2C21     		movs	r1, #44
 296 0030 01FB03F3 		mul	r3, r1, r3
 297 0034 1344     		add	r3, r3, r2
 298 0036 2833     		adds	r3, r3, #40
 299 0038 0022     		movs	r2, #0
 300 003a 1A60     		str	r2, [r3]
  54:data.c        ****         data[i].key[0] = '\0';
 301              		.loc 1 54 0 discriminator 2
 302 003c FB88     		ldrh	r3, [r7, #6]
 303 003e 0133     		adds	r3, r3, #1
 304 0040 FB80     		strh	r3, [r7, #6]	@ movhi
 305              	.L13:
  54:data.c        ****         data[i].key[0] = '\0';
 306              		.loc 1 54 0 is_stmt 0 discriminator 1
 307 0042 FB88     		ldrh	r3, [r7, #6]
 308 0044 632B     		cmp	r3, #99
 309 0046 DFD9     		bls	.L14
 310              	.LBE2:
  58:data.c        ****     }
  59:data.c        ****     dataPointsInStack =0;
 311              		.loc 1 59 0 is_stmt 1
 312 0048 044B     		ldr	r3, .L15+4
 313 004a 0022     		movs	r2, #0
 314 004c 1A80     		strh	r2, [r3]	@ movhi
  60:data.c        ****    
  61:data.c        **** }
 315              		.loc 1 61 0
 316 004e 00BF     		nop
 317 0050 0C37     		adds	r7, r7, #12
 318              		.cfi_def_cfa_offset 4
 319 0052 BD46     		mov	sp, r7
 320              		.cfi_def_cfa_register 13
 321              		@ sp needed
 322 0054 80BC     		pop	{r7}
 323              		.cfi_restore 7
 324              		.cfi_def_cfa_offset 0
 325 0056 7047     		bx	lr
 326              	.L16:
 327              		.align	2
 328              	.L15:
 329 0058 00000000 		.word	data
 330 005c 00000000 		.word	dataPointsInStack
 331              		.cfi_endproc
 332              	.LFE67:
ARM GAS  C:\Users\HYFI_A~1\AppData\Local\Temp\ccRajosi.s 			page 8


 333              		.size	Clear_Data_Stack, .-Clear_Data_Stack
 334              		.section	.text.sizeOfDataStack,"ax",%progbits
 335              		.align	2
 336              		.global	sizeOfDataStack
 337              		.thumb
 338              		.thumb_func
 339              		.type	sizeOfDataStack, %function
 340              	sizeOfDataStack:
 341              	.LFB68:
  62:data.c        **** 
  63:data.c        **** uint16 sizeOfDataStack(){
 342              		.loc 1 63 0
 343              		.cfi_startproc
 344              		@ args = 0, pretend = 0, frame = 0
 345              		@ frame_needed = 1, uses_anonymous_args = 0
 346              		@ link register save eliminated.
 347 0000 80B4     		push	{r7}
 348              		.cfi_def_cfa_offset 4
 349              		.cfi_offset 7, -4
 350 0002 00AF     		add	r7, sp, #0
 351              		.cfi_def_cfa_register 7
  64:data.c        ****     return dataPointsInStack;
 352              		.loc 1 64 0
 353 0004 024B     		ldr	r3, .L19
 354 0006 1B88     		ldrh	r3, [r3]
  65:data.c        **** }
 355              		.loc 1 65 0
 356 0008 1846     		mov	r0, r3
 357 000a BD46     		mov	sp, r7
 358              		.cfi_def_cfa_register 13
 359              		@ sp needed
 360 000c 80BC     		pop	{r7}
 361              		.cfi_restore 7
 362              		.cfi_def_cfa_offset 0
 363 000e 7047     		bx	lr
 364              	.L20:
 365              		.align	2
 366              	.L19:
 367 0010 00000000 		.word	dataPointsInStack
 368              		.cfi_endproc
 369              	.LFE68:
 370              		.size	sizeOfDataStack, .-sizeOfDataStack
 371              		.section	.rodata
 372 0035 000000   		.align	2
 373              	.LC1:
 374 0038 2573202F 		.ascii	"%s /%s HTTP/%s\015\012\000"
 374      25732048 
 374      5454502F 
 374      25730D0A 
 374      00
 375 0049 000000   		.align	2
 376              	.LC2:
 377 004c 486F7374 		.ascii	"Host: \000"
 377      3A2000
 378 0053 00       		.align	2
 379              	.LC3:
 380 0054 25732573 		.ascii	"%s%s%s%s%d%s%s%s%s\000"
ARM GAS  C:\Users\HYFI_A~1\AppData\Local\Temp\ccRajosi.s 			page 9


 380      25732573 
 380      25642573 
 380      25732573 
 380      257300
 381 0067 00       		.align	2
 382              	.LC4:
 383 0068 0D0A00   		.ascii	"\015\012\000"
 384 006b 00       		.align	2
 385              	.LC5:
 386 006c 436F6E6E 		.ascii	"Connection: \000"
 386      65637469 
 386      6F6E3A20 
 386      00
 387 0079 000000   		.align	2
 388              	.LC6:
 389 007c 3A00     		.ascii	":\000"
 390 007e 0000     		.align	2
 391              	.LC7:
 392 0080 25732573 		.ascii	"%s%s\000"
 392      00
 393 0085 000000   		.align	2
 394              	.LC8:
 395 0088 47455400 		.ascii	"GET\000"
 396              		.align	2
 397              	.LC9:
 398 008c 436F6E74 		.ascii	"Content-Type: text/plain\015\012\000"
 398      656E742D 
 398      54797065 
 398      3A207465 
 398      78742F70 
 399 00a7 00       		.align	2
 400              	.LC10:
 401 00a8 25732573 		.ascii	"%s%s%s%d%s\000"
 401      25732564 
 401      257300
 402 00b3 00       		.align	2
 403              	.LC11:
 404 00b4 0D0A0D0A 		.ascii	"\015\012\015\012\000"
 404      00
 405 00b9 000000   		.align	2
 406              	.LC12:
 407 00bc 436F6E74 		.ascii	"Content-Length: \000"
 407      656E742D 
 407      4C656E67 
 407      74683A20 
 407      00
 408 00cd 000000   		.align	2
 409              	.LC13:
 410 00d0 25732573 		.ascii	"%s%s\015\012\000"
 410      0D0A00
 411              		.section	.text.construct_generic_HTTP_request,"ax",%progbits
 412              		.align	2
 413              		.global	construct_generic_HTTP_request
 414              		.thumb
 415              		.thumb_func
 416              		.type	construct_generic_HTTP_request, %function
 417              	construct_generic_HTTP_request:
ARM GAS  C:\Users\HYFI_A~1\AppData\Local\Temp\ccRajosi.s 			page 10


 418              	.LFB69:
  66:data.c        **** 
  67:data.c        **** 
  68:data.c        **** //thsi function could really use a test
  69:data.c        **** void construct_generic_HTTP_request(char* request, char* body, char* host, char* route,
  70:data.c        ****                                int port, char* method, char* connection_type,
  71:data.c        **** 	                           char *extra_headers, int extra_len, char* http_protocol){
 419              		.loc 1 71 0
 420              		.cfi_startproc
 421              		@ args = 24, pretend = 0, frame = 16
 422              		@ frame_needed = 1, uses_anonymous_args = 0
 423 0000 80B5     		push	{r7, lr}
 424              		.cfi_def_cfa_offset 8
 425              		.cfi_offset 7, -8
 426              		.cfi_offset 14, -4
 427 0002 8CB0     		sub	sp, sp, #48
 428              		.cfi_def_cfa_offset 56
 429 0004 08AF     		add	r7, sp, #32
 430              		.cfi_def_cfa 7, 24
 431 0006 F860     		str	r0, [r7, #12]
 432 0008 B960     		str	r1, [r7, #8]
 433 000a 7A60     		str	r2, [r7, #4]
 434 000c 3B60     		str	r3, [r7]
  72:data.c        **** 
  73:data.c        ****     sprintf(request,"%s /%s HTTP/%s\r\n", method, route, http_protocol);
 435              		.loc 1 73 0
 436 000e FB6A     		ldr	r3, [r7, #44]
 437 0010 0093     		str	r3, [sp]
 438 0012 3B68     		ldr	r3, [r7]
 439 0014 FA69     		ldr	r2, [r7, #28]
 440 0016 2349     		ldr	r1, .L24
 441 0018 F868     		ldr	r0, [r7, #12]
 442 001a FFF7FEFF 		bl	sprintf
  74:data.c        ****     sprintf(request,"%s%s%s%s%d%s%s%s%s",
 443              		.loc 1 74 0
 444 001e 224B     		ldr	r3, .L24+4
 445 0020 0693     		str	r3, [sp, #24]
 446 0022 3B6A     		ldr	r3, [r7, #32]
 447 0024 0593     		str	r3, [sp, #20]
 448 0026 214B     		ldr	r3, .L24+8
 449 0028 0493     		str	r3, [sp, #16]
 450 002a 1F4B     		ldr	r3, .L24+4
 451 002c 0393     		str	r3, [sp, #12]
 452 002e BB69     		ldr	r3, [r7, #24]
 453 0030 0293     		str	r3, [sp, #8]
 454 0032 1F4B     		ldr	r3, .L24+12
 455 0034 0193     		str	r3, [sp, #4]
 456 0036 7B68     		ldr	r3, [r7, #4]
 457 0038 0093     		str	r3, [sp]
 458 003a 1E4B     		ldr	r3, .L24+16
 459 003c FA68     		ldr	r2, [r7, #12]
 460 003e 1E49     		ldr	r1, .L24+20
 461 0040 F868     		ldr	r0, [r7, #12]
 462 0042 FFF7FEFF 		bl	sprintf
  75:data.c        ****             request, // 1
  76:data.c        ****             "Host: ", host, ":", port, "\r\n", // 2 3 4 5 6
  77:data.c        ****             "Connection: ", connection_type, "\r\n"); // 7 8 9
ARM GAS  C:\Users\HYFI_A~1\AppData\Local\Temp\ccRajosi.s 			page 11


  78:data.c        **** 	if (extra_headers && strlen(extra_headers) > 0){
 463              		.loc 1 78 0
 464 0046 7B6A     		ldr	r3, [r7, #36]
 465 0048 002B     		cmp	r3, #0
 466 004a 09D0     		beq	.L22
 467              		.loc 1 78 0 is_stmt 0 discriminator 1
 468 004c 7B6A     		ldr	r3, [r7, #36]
 469 004e 1B78     		ldrb	r3, [r3]	@ zero_extendqisi2
 470 0050 002B     		cmp	r3, #0
 471 0052 05D0     		beq	.L22
  79:data.c        **** 		sprintf(request, "%s%s", request, extra_headers);
 472              		.loc 1 79 0 is_stmt 1
 473 0054 7B6A     		ldr	r3, [r7, #36]
 474 0056 FA68     		ldr	r2, [r7, #12]
 475 0058 1849     		ldr	r1, .L24+24
 476 005a F868     		ldr	r0, [r7, #12]
 477 005c FFF7FEFF 		bl	sprintf
 478              	.L22:
  80:data.c        **** 	}
  81:data.c        **** 	if (strcmp(method, "GET") != 0){
 479              		.loc 1 81 0
 480 0060 1749     		ldr	r1, .L24+28
 481 0062 F869     		ldr	r0, [r7, #28]
 482 0064 FFF7FEFF 		bl	strcmp
 483 0068 0346     		mov	r3, r0
 484 006a 002B     		cmp	r3, #0
 485 006c 10D0     		beq	.L23
  82:data.c        **** 		sprintf(request, "%s%s%s%d%s",
  83:data.c        **** 			request,
  84:data.c        ****             "Content-Type: text/plain\r\n", // 10
  85:data.c        ****             "Content-Length: ", (extra_len + strlen(body)), //11 12 (Extra len should be 2 for flas
 486              		.loc 1 85 0
 487 006e B868     		ldr	r0, [r7, #8]
 488 0070 FFF7FEFF 		bl	strlen
 489 0074 0246     		mov	r2, r0
  82:data.c        **** 		sprintf(request, "%s%s%s%d%s",
 490              		.loc 1 82 0
 491 0076 BB6A     		ldr	r3, [r7, #40]
 492 0078 1344     		add	r3, r3, r2
 493 007a 124A     		ldr	r2, .L24+32
 494 007c 0292     		str	r2, [sp, #8]
 495 007e 0193     		str	r3, [sp, #4]
 496 0080 114B     		ldr	r3, .L24+36
 497 0082 0093     		str	r3, [sp]
 498 0084 114B     		ldr	r3, .L24+40
 499 0086 FA68     		ldr	r2, [r7, #12]
 500 0088 1149     		ldr	r1, .L24+44
 501 008a F868     		ldr	r0, [r7, #12]
 502 008c FFF7FEFF 		bl	sprintf
 503              	.L23:
  86:data.c        ****             "\r\n\r\n"); // 13 14 15
  87:data.c        **** 	}
  88:data.c        **** 	sprintf(request, "%s%s\r\n", request, body); 
 504              		.loc 1 88 0
 505 0090 BB68     		ldr	r3, [r7, #8]
 506 0092 FA68     		ldr	r2, [r7, #12]
 507 0094 0F49     		ldr	r1, .L24+48
ARM GAS  C:\Users\HYFI_A~1\AppData\Local\Temp\ccRajosi.s 			page 12


 508 0096 F868     		ldr	r0, [r7, #12]
 509 0098 FFF7FEFF 		bl	sprintf
  89:data.c        ****     
  90:data.c        **** }
 510              		.loc 1 90 0
 511 009c 00BF     		nop
 512 009e 1037     		adds	r7, r7, #16
 513              		.cfi_def_cfa_offset 8
 514 00a0 BD46     		mov	sp, r7
 515              		.cfi_def_cfa_register 13
 516              		@ sp needed
 517 00a2 80BD     		pop	{r7, pc}
 518              	.L25:
 519              		.align	2
 520              	.L24:
 521 00a4 38000000 		.word	.LC1
 522 00a8 68000000 		.word	.LC4
 523 00ac 6C000000 		.word	.LC5
 524 00b0 7C000000 		.word	.LC6
 525 00b4 4C000000 		.word	.LC2
 526 00b8 54000000 		.word	.LC3
 527 00bc 80000000 		.word	.LC7
 528 00c0 88000000 		.word	.LC8
 529 00c4 B4000000 		.word	.LC11
 530 00c8 BC000000 		.word	.LC12
 531 00cc 8C000000 		.word	.LC9
 532 00d0 A8000000 		.word	.LC10
 533 00d4 D0000000 		.word	.LC13
 534              		.cfi_endproc
 535              	.LFE69:
 536              		.size	construct_generic_HTTP_request, .-construct_generic_HTTP_request
 537              		.text
 538              	.Letext0:
 539              		.file 2 "c:\\program files (x86)\\cypress\\psoc creator\\4.3\\psoc creator\\import\\gnu\\arm\\5.4.
 540              		.file 3 "c:\\program files (x86)\\cypress\\psoc creator\\4.3\\psoc creator\\import\\gnu\\arm\\5.4.
 541              		.file 4 "Generated_Source\\PSoC5/cytypes.h"
 542              		.file 5 "data.h"
 543              		.file 6 "Generated_Source\\PSoC5/core_cm3.h"
 544              		.file 7 "debug.h"