ARM GAS  C:\Users\hail\AppData\Local\Temp\cccQqUje.s 			page 1


   1              		.syntax unified
   2              		.cpu cortex-m3
   3              		.fpu softvfp
   4              		.eabi_attribute 20, 1
   5              		.eabi_attribute 21, 1
   6              		.eabi_attribute 23, 3
   7              		.eabi_attribute 24, 1
   8              		.eabi_attribute 25, 1
   9              		.eabi_attribute 26, 1
  10              		.eabi_attribute 30, 6
  11              		.eabi_attribute 34, 1
  12              		.eabi_attribute 18, 4
  13              		.thumb
  14              		.syntax unified
  15              		.file	"debug.c"
  16              		.text
  17              	.Ltext0:
  18              		.cfi_sections	.debug_frame
  19              		.syntax unified
  20              		.global _printf_float
  21              		.thumb
  22              		.syntax unified
  23              		.global	BB_fileName
  24              		.data
  25              		.align	2
  26              		.type	BB_fileName, %object
  27              		.size	BB_fileName, 30
  28              	BB_fileName:
  29 0000 626C6163 		.ascii	"blackbox.txt\000"
  29      6B626F78 
  29      2E747874 
  29      00
  30 000d 00000000 		.space	17
  30      00000000 
  30      00000000 
  30      00000000 
  30      00
  31              		.global	debug_level
  32              		.bss
  33              		.type	debug_level, %object
  34              		.size	debug_level, 1
  35              	debug_level:
  36 0000 00       		.space	1
  37              		.section	.text.debug_start,"ax",%progbits
  38              		.align	2
  39              		.global	debug_start
  40              		.thumb
  41              		.thumb_func
  42              		.type	debug_start, %function
  43              	debug_start:
  44              	.LFB64:
  45              		.file 1 "debug.c"
   1:debug.c       **** //drivers for UART debug 
   2:debug.c       **** 
   3:debug.c       **** #include "debug.h"
   4:debug.c       **** #include <stdarg.h> // handles variable argument list
   5:debug.c       **** 
ARM GAS  C:\Users\hail\AppData\Local\Temp\cccQqUje.s 			page 2


   6:debug.c       **** char    BB_fileName[30] = "blackbox.txt";
   7:debug.c       **** 
   8:debug.c       **** // Set debug level based on what you want printed/ written to SD card
   9:debug.c       **** // 0u = errors and warnings, 1u = all
  10:debug.c       **** uint8   debug_level = 0u;
  11:debug.c       **** 
  12:debug.c       **** // function to start UART debug
  13:debug.c       **** void debug_start(){
  46              		.loc 1 13 0
  47              		.cfi_startproc
  48              		@ args = 0, pretend = 0, frame = 0
  49              		@ frame_needed = 1, uses_anonymous_args = 0
  50 0000 80B5     		push	{r7, lr}
  51              		.cfi_def_cfa_offset 8
  52              		.cfi_offset 7, -8
  53              		.cfi_offset 14, -4
  54 0002 00AF     		add	r7, sp, #0
  55              		.cfi_def_cfa_register 7
  14:debug.c       ****     // if debug flag = 1 then start UART
  15:debug.c       ****     #if USE_DEBUG
  16:debug.c       ****        Debug_UART_Start();
  56              		.loc 1 16 0
  57 0004 FFF7FEFF 		bl	Debug_UART_Start
  17:debug.c       ****        //setvbuf(stdout, NULL, _IOFBF, Debug_UART_TX_BUFFER_SIZE);//this sets the printf() bufefr t
  18:debug.c       ****        //setbuf(stdout, NULL);
  19:debug.c       ****     #endif
  20:debug.c       **** }
  58              		.loc 1 20 0
  59 0008 00BF     		nop
  60 000a 80BD     		pop	{r7, pc}
  61              		.cfi_endproc
  62              	.LFE64:
  63              		.size	debug_start, .-debug_start
  64              		.section	.text.debug_stop,"ax",%progbits
  65              		.align	2
  66              		.global	debug_stop
  67              		.thumb
  68              		.thumb_func
  69              		.type	debug_stop, %function
  70              	debug_stop:
  71              	.LFB65:
  21:debug.c       **** 
  22:debug.c       **** // function to stop UART debug
  23:debug.c       **** void debug_stop(){
  72              		.loc 1 23 0
  73              		.cfi_startproc
  74              		@ args = 0, pretend = 0, frame = 0
  75              		@ frame_needed = 1, uses_anonymous_args = 0
  76 0000 80B5     		push	{r7, lr}
  77              		.cfi_def_cfa_offset 8
  78              		.cfi_offset 7, -8
  79              		.cfi_offset 14, -4
  80 0002 00AF     		add	r7, sp, #0
  81              		.cfi_def_cfa_register 7
  24:debug.c       ****     // if debug flag = 1 then stop UART
  25:debug.c       ****     #if USE_DEBUG
  26:debug.c       ****         Debug_UART_Stop();
ARM GAS  C:\Users\hail\AppData\Local\Temp\cccQqUje.s 			page 3


  82              		.loc 1 26 0
  83 0004 FFF7FEFF 		bl	Debug_UART_Stop
  27:debug.c       ****     #endif
  28:debug.c       **** }
  84              		.loc 1 28 0
  85 0008 00BF     		nop
  86 000a 80BD     		pop	{r7, pc}
  87              		.cfi_endproc
  88              	.LFE65:
  89              		.size	debug_stop, .-debug_stop
  90              		.section	.text.debug_sleep,"ax",%progbits
  91              		.align	2
  92              		.global	debug_sleep
  93              		.thumb
  94              		.thumb_func
  95              		.type	debug_sleep, %function
  96              	debug_sleep:
  97              	.LFB66:
  29:debug.c       **** 
  30:debug.c       **** // function to sleep UART debug
  31:debug.c       **** void debug_sleep(){
  98              		.loc 1 31 0
  99              		.cfi_startproc
 100              		@ args = 0, pretend = 0, frame = 0
 101              		@ frame_needed = 1, uses_anonymous_args = 0
 102 0000 80B5     		push	{r7, lr}
 103              		.cfi_def_cfa_offset 8
 104              		.cfi_offset 7, -8
 105              		.cfi_offset 14, -4
 106 0002 00AF     		add	r7, sp, #0
 107              		.cfi_def_cfa_register 7
  32:debug.c       ****     // if debug flag = 1 and printf still writing, sleep UART
  33:debug.c       ****     #if USE_DEBUG
  34:debug.c       **** 
  35:debug.c       ****         // Check if UART is busy writing and waiit, if needed
  36:debug.c       ****         // Debug_UART_ReadTxStatus() reads the status register for the TX portion of the UART.
  37:debug.c       ****         if(!(Debug_UART_ReadTxStatus() & Debug_UART_TX_STS_FIFO_EMPTY)){
 108              		.loc 1 37 0
 109 0004 FFF7FEFF 		bl	Debug_UART_ReadTxStatus
 110 0008 0346     		mov	r3, r0
 111 000a 03F00203 		and	r3, r3, #2
 112 000e 002B     		cmp	r3, #0
 113 0010 02D1     		bne	.L4
  38:debug.c       ****             CyDelay(1u);
 114              		.loc 1 38 0
 115 0012 0120     		movs	r0, #1
 116 0014 FFF7FEFF 		bl	CyDelay
 117              	.L4:
  39:debug.c       ****         }
  40:debug.c       ****     // This is the preferred API to prepare the component for sleep. 
  41:debug.c       ****     // The Debug_UART_Sleep() API saves the current component state. Then it calls the Debug_UART_S
  42:debug.c       ****     Debug_UART_Sleep(); 
 118              		.loc 1 42 0
 119 0018 FFF7FEFF 		bl	Debug_UART_Sleep
  43:debug.c       ****    #endif
  44:debug.c       ****    
  45:debug.c       **** }
ARM GAS  C:\Users\hail\AppData\Local\Temp\cccQqUje.s 			page 4


 120              		.loc 1 45 0
 121 001c 00BF     		nop
 122 001e 80BD     		pop	{r7, pc}
 123              		.cfi_endproc
 124              	.LFE66:
 125              		.size	debug_sleep, .-debug_sleep
 126              		.section	.text.debug_wakeup,"ax",%progbits
 127              		.align	2
 128              		.global	debug_wakeup
 129              		.thumb
 130              		.thumb_func
 131              		.type	debug_wakeup, %function
 132              	debug_wakeup:
 133              	.LFB67:
  46:debug.c       **** 
  47:debug.c       **** // function to wakeup UART debug
  48:debug.c       **** void debug_wakeup(){
 134              		.loc 1 48 0
 135              		.cfi_startproc
 136              		@ args = 0, pretend = 0, frame = 0
 137              		@ frame_needed = 1, uses_anonymous_args = 0
 138 0000 80B5     		push	{r7, lr}
 139              		.cfi_def_cfa_offset 8
 140              		.cfi_offset 7, -8
 141              		.cfi_offset 14, -4
 142 0002 00AF     		add	r7, sp, #0
 143              		.cfi_def_cfa_register 7
  49:debug.c       ****     // if debug flag = 1, wakeup UART debug and turn off stillWriting flag
  50:debug.c       ****     #if USE_DEBUG
  51:debug.c       ****         Debug_UART_Wakeup();
 144              		.loc 1 51 0
 145 0004 FFF7FEFF 		bl	Debug_UART_Wakeup
  52:debug.c       ****     #endif
  53:debug.c       **** }
 146              		.loc 1 53 0
 147 0008 00BF     		nop
 148 000a 80BD     		pop	{r7, pc}
 149              		.cfi_endproc
 150              	.LFE67:
 151              		.size	debug_wakeup, .-debug_wakeup
 152              		.section	.text._write,"ax",%progbits
 153              		.align	2
 154              		.global	_write
 155              		.thumb
 156              		.thumb_func
 157              		.type	_write, %function
 158              	_write:
 159              	.LFB68:
  54:debug.c       **** 
  55:debug.c       **** // if debug flag = 1, and using the GCC compiler, revise the _write() function so that when we call
  56:debug.c       **** // NOTE: For this to work HEAP size in "System" must be set to 0x300 or more
  57:debug.c       **** // Stack and heap are both a part of memory. Stack holds functions, variables, etc. Heap sits on to
  58:debug.c       **** // If heap is too small, then you get a stack overflow. FOr printing, need to have a bigger heap. B
  59:debug.c       **** // If have memory problems, play around with heap size.
  60:debug.c       **** #if USE_DEBUG
  61:debug.c       ****     
  62:debug.c       ****     
ARM GAS  C:\Users\hail\AppData\Local\Temp\cccQqUje.s 			page 5


  63:debug.c       **** // This will allow you to use printf(), as you would in regulart c programs
  64:debug.c       **** // careful though, printf() is sometimes not safe in embedded sytems
  65:debug.c       **** // may want to use printd() function below
  66:debug.c       **** int _write(int file, char *ptr, int len)
  67:debug.c       **** {
 160              		.loc 1 67 0
 161              		.cfi_startproc
 162              		@ args = 0, pretend = 0, frame = 24
 163              		@ frame_needed = 1, uses_anonymous_args = 0
 164 0000 80B5     		push	{r7, lr}
 165              		.cfi_def_cfa_offset 8
 166              		.cfi_offset 7, -8
 167              		.cfi_offset 14, -4
 168 0002 86B0     		sub	sp, sp, #24
 169              		.cfi_def_cfa_offset 32
 170 0004 00AF     		add	r7, sp, #0
 171              		.cfi_def_cfa_register 7
 172 0006 F860     		str	r0, [r7, #12]
 173 0008 B960     		str	r1, [r7, #8]
 174 000a 7A60     		str	r2, [r7, #4]
  68:debug.c       ****     int i;
  69:debug.c       ****     file = file;
  70:debug.c       ****     for (i = 0; i < len; i++)
 175              		.loc 1 70 0
 176 000c 0023     		movs	r3, #0
 177 000e 7B61     		str	r3, [r7, #20]
 178 0010 09E0     		b	.L7
 179              	.L8:
  71:debug.c       ****     {   
  72:debug.c       ****         // Puts a byte of data into the transmit buffer to be sent when the bus is available.
  73:debug.c       ****         Debug_UART_PutChar(*ptr++);
 180              		.loc 1 73 0 discriminator 3
 181 0012 BB68     		ldr	r3, [r7, #8]
 182 0014 5A1C     		adds	r2, r3, #1
 183 0016 BA60     		str	r2, [r7, #8]
 184 0018 1B78     		ldrb	r3, [r3]	@ zero_extendqisi2
 185 001a 1846     		mov	r0, r3
 186 001c FFF7FEFF 		bl	Debug_UART_PutChar
  70:debug.c       ****     {   
 187              		.loc 1 70 0 discriminator 3
 188 0020 7B69     		ldr	r3, [r7, #20]
 189 0022 0133     		adds	r3, r3, #1
 190 0024 7B61     		str	r3, [r7, #20]
 191              	.L7:
  70:debug.c       ****     {   
 192              		.loc 1 70 0 is_stmt 0 discriminator 1
 193 0026 7A69     		ldr	r2, [r7, #20]
 194 0028 7B68     		ldr	r3, [r7, #4]
 195 002a 9A42     		cmp	r2, r3
 196 002c F1DB     		blt	.L8
  74:debug.c       ****     }
  75:debug.c       ****     
  76:debug.c       ****     return (len);
 197              		.loc 1 76 0 is_stmt 1
 198 002e 7B68     		ldr	r3, [r7, #4]
  77:debug.c       **** }
 199              		.loc 1 77 0
ARM GAS  C:\Users\hail\AppData\Local\Temp\cccQqUje.s 			page 6


 200 0030 1846     		mov	r0, r3
 201 0032 1837     		adds	r7, r7, #24
 202              		.cfi_def_cfa_offset 8
 203 0034 BD46     		mov	sp, r7
 204              		.cfi_def_cfa_register 13
 205              		@ sp needed
 206 0036 80BD     		pop	{r7, pc}
 207              		.cfi_endproc
 208              	.LFE68:
 209              		.size	_write, .-_write
 210              		.section	.rodata
 211              		.align	2
 212              	.LC0:
 213 0000 7B2000   		.ascii	"{ \000"
 214 0003 00       		.align	2
 215              	.LC1:
 216 0004 2274696D 		.ascii	"\"time\":\"%ld\" \000"
 216      65223A22 
 216      256C6422 
 216      2000
 217 0012 0000     		.align	2
 218              	.LC2:
 219 0014 22657665 		.ascii	"\"event\":\"error\" \"value\":\"\000"
 219      6E74223A 
 219      22657272 
 219      6F722220 
 219      2276616C 
 220 002e 0000     		.align	2
 221              	.LC3:
 222 0030 22657665 		.ascii	"\"event\":\"warning\" \"value\":\"\000"
 222      6E74223A 
 222      22776172 
 222      6E696E67 
 222      22202276 
 223              		.align	2
 224              	.LC4:
 225 004c 227D0D0A 		.ascii	"\"}\015\012\000"
 225      00
 226 0051 000000   		.align	2
 227              	.LC5:
 228 0054 612B00   		.ascii	"a+\000"
 229 0057 00       		.align	2
 230              	.LC6:
 231 0058 22657665 		.ascii	"\"event\":\"notif\" \"value\":\"\000"
 231      6E74223A 
 231      226E6F74 
 231      69662220 
 231      2276616C 
 232              		.section	.text.printNotif,"ax",%progbits
 233              		.align	2
 234              		.global	printNotif
 235              		.thumb
 236              		.thumb_func
 237              		.type	printNotif, %function
 238              	printNotif:
 239              	.LFB69:
  78:debug.c       **** 
ARM GAS  C:\Users\hail\AppData\Local\Temp\cccQqUje.s 			page 7


  79:debug.c       **** #endif
  80:debug.c       **** 
  81:debug.c       **** // Create function to hijack printf to add an epoch timestamp to print output
  82:debug.c       **** // Whenever a function is declared to have an indeterminate number of arguments, in place of the la
  83:debug.c       **** // to tell the compiler the function should accept however many arguments that the programmer uses,
  84:debug.c       **** // to at least the number of variables declared. 
  85:debug.c       **** void printNotif(uint8 type, char* format, ...){
 240              		.loc 1 85 0
 241              		.cfi_startproc
 242              		@ args = 4, pretend = 12, frame = 2064
 243              		@ frame_needed = 1, uses_anonymous_args = 1
 244 0000 0EB4     		push	{r1, r2, r3}
 245              		.cfi_def_cfa_offset 12
 246              		.cfi_offset 1, -12
 247              		.cfi_offset 2, -8
 248              		.cfi_offset 3, -4
 249 0002 80B5     		push	{r7, lr}
 250              		.cfi_def_cfa_offset 20
 251              		.cfi_offset 7, -20
 252              		.cfi_offset 14, -16
 253 0004 ADF6140D 		subw	sp, sp, #2068
 254              		.cfi_def_cfa_offset 2088
 255 0008 00AF     		add	r7, sp, #0
 256              		.cfi_def_cfa_register 7
 257 000a 0246     		mov	r2, r0
 258 000c FB1D     		adds	r3, r7, #7
 259 000e 1A70     		strb	r2, [r3]
  86:debug.c       ****     
  87:debug.c       ****     char debug_string[MAX_DEBUG_STRING_LENGTH]; // string to be printed
  88:debug.c       ****     
  89:debug.c       ****     // if debug flag = 1, then print debug statements, otherwise don't print anything
  90:debug.c       ****     #if USE_DEBUG
  91:debug.c       ****         
  92:debug.c       ****         // if it is an error or warning and debug_level >= 0, then print the errors and warnings
  93:debug.c       ****         if ((type == NOTIF_TYPE_ERROR || type == NOTIF_TYPE_WARNING) && debug_level >= 0){
 260              		.loc 1 93 0
 261 0010 FB1D     		adds	r3, r7, #7
 262 0012 1B78     		ldrb	r3, [r3]	@ zero_extendqisi2
 263 0014 022B     		cmp	r3, #2
 264 0016 03D0     		beq	.L11
 265              		.loc 1 93 0 is_stmt 0 discriminator 1
 266 0018 FB1D     		adds	r3, r7, #7
 267 001a 1B78     		ldrb	r3, [r3]	@ zero_extendqisi2
 268 001c 012B     		cmp	r3, #1
 269 001e 2FD1     		bne	.L12
 270              	.L11:
 271              	.LBB2:
  94:debug.c       ****             printd("{ ");
 272              		.loc 1 94 0 is_stmt 1
 273 0020 3648     		ldr	r0, .L17
 274 0022 FFF7FEFF 		bl	printd
  95:debug.c       ****             printd("\"time\":\"%ld\" " , getTimeStamp());
 275              		.loc 1 95 0
 276 0026 FFF7FEFF 		bl	getTimeStamp
 277 002a 0346     		mov	r3, r0
 278 002c 1946     		mov	r1, r3
 279 002e 3448     		ldr	r0, .L17+4
ARM GAS  C:\Users\hail\AppData\Local\Temp\cccQqUje.s 			page 8


 280 0030 FFF7FEFF 		bl	printd
  96:debug.c       ****             printd("\"event\":\"error\" \"value\":\"");
 281              		.loc 1 96 0
 282 0034 3348     		ldr	r0, .L17+8
 283 0036 FFF7FEFF 		bl	printd
  97:debug.c       ****             printd("\"event\":\"warning\" \"value\":\"");
 284              		.loc 1 97 0
 285 003a 3348     		ldr	r0, .L17+12
 286 003c FFF7FEFF 		bl	printd
  98:debug.c       ****             va_list argptr; // create variable argprt of the type va_list from stdarg.h
  99:debug.c       ****             va_start(argptr, format); // from stdarg.h: the va_start() macro is invoked to initiali
 287              		.loc 1 99 0
 288 0040 07F50262 		add	r2, r7, #2080
 289 0044 07F10C03 		add	r3, r7, #12
 290 0048 1A60     		str	r2, [r3]
 100:debug.c       ****             vsnprintf(debug_string, MAX_DEBUG_STRING_LENGTH, format, argptr); // send text to buffe
 291              		.loc 1 100 0
 292 004a 07F10C03 		add	r3, r7, #12
 293 004e 07F11000 		add	r0, r7, #16
 294 0052 1B68     		ldr	r3, [r3]
 295 0054 D7F81C28 		ldr	r2, [r7, #2076]
 296 0058 4FF40061 		mov	r1, #2048
 297 005c FFF7FEFF 		bl	vsnprintf
 101:debug.c       ****             Debug_UART_PutString(debug_string); // Sends a NULL terminated string to the TX buffer 
 298              		.loc 1 101 0
 299 0060 07F11003 		add	r3, r7, #16
 300 0064 1846     		mov	r0, r3
 301 0066 FFF7FEFF 		bl	Debug_UART_PutString
 102:debug.c       ****             va_end(argptr); // the va_end() macro is used to clean up; it invalidates ap for use (u
 103:debug.c       ****             printd("\"}\r\n");
 302              		.loc 1 103 0
 303 006a 2848     		ldr	r0, .L17+16
 304 006c FFF7FEFF 		bl	printd
 104:debug.c       ****             SD_write(BB_fileName,"a+",debug_string); // Write data to SD Card 
 305              		.loc 1 104 0
 306 0070 07F11003 		add	r3, r7, #16
 307 0074 1A46     		mov	r2, r3
 308 0076 2649     		ldr	r1, .L17+20
 309 0078 2648     		ldr	r0, .L17+24
 310 007a FFF7FEFF 		bl	SD_write
 311              	.LBE2:
  93:debug.c       ****             printd("{ ");
 312              		.loc 1 93 0
 313 007e 35E0     		b	.L10
 314              	.L12:
 105:debug.c       ****         
 106:debug.c       ****         // else if it is an event and debug level >= 1, then print events
 107:debug.c       ****         }else if (type == NOTIF_TYPE_EVENT && debug_level >= 1){
 315              		.loc 1 107 0
 316 0080 FB1D     		adds	r3, r7, #7
 317 0082 1B78     		ldrb	r3, [r3]	@ zero_extendqisi2
 318 0084 002B     		cmp	r3, #0
 319 0086 30D1     		bne	.L16
 320              		.loc 1 107 0 is_stmt 0 discriminator 1
 321 0088 234B     		ldr	r3, .L17+28
 322 008a 1B78     		ldrb	r3, [r3]	@ zero_extendqisi2
 323 008c 002B     		cmp	r3, #0
ARM GAS  C:\Users\hail\AppData\Local\Temp\cccQqUje.s 			page 9


 324 008e 2CD0     		beq	.L16
 325              	.LBB3:
 108:debug.c       ****             printd("{ ");
 326              		.loc 1 108 0 is_stmt 1 discriminator 2
 327 0090 1A48     		ldr	r0, .L17
 328 0092 FFF7FEFF 		bl	printd
 109:debug.c       ****             printd("\"time\":\"%ld\" " , getTimeStamp());
 329              		.loc 1 109 0 discriminator 2
 330 0096 FFF7FEFF 		bl	getTimeStamp
 331 009a 0346     		mov	r3, r0
 332 009c 1946     		mov	r1, r3
 333 009e 1848     		ldr	r0, .L17+4
 334 00a0 FFF7FEFF 		bl	printd
 110:debug.c       ****             printd("\"event\":\"notif\" \"value\":\"");
 335              		.loc 1 110 0 discriminator 2
 336 00a4 1D48     		ldr	r0, .L17+32
 337 00a6 FFF7FEFF 		bl	printd
 111:debug.c       ****             va_list argptr; // create variable argprt of the type va_list from stdarg.h
 112:debug.c       ****             va_start(argptr, format); // from stdarg.h: the va_start() macro is invoked to initiali
 338              		.loc 1 112 0 discriminator 2
 339 00aa 07F50262 		add	r2, r7, #2080
 340 00ae 07F10803 		add	r3, r7, #8
 341 00b2 1A60     		str	r2, [r3]
 113:debug.c       ****             vsnprintf(debug_string, MAX_DEBUG_STRING_LENGTH, format, argptr); // send text to buffe
 342              		.loc 1 113 0 discriminator 2
 343 00b4 07F10803 		add	r3, r7, #8
 344 00b8 07F11000 		add	r0, r7, #16
 345 00bc 1B68     		ldr	r3, [r3]
 346 00be D7F81C28 		ldr	r2, [r7, #2076]
 347 00c2 4FF40061 		mov	r1, #2048
 348 00c6 FFF7FEFF 		bl	vsnprintf
 114:debug.c       ****             Debug_UART_PutString(debug_string); // Sends a NULL terminated string to the TX buffer 
 349              		.loc 1 114 0 discriminator 2
 350 00ca 07F11003 		add	r3, r7, #16
 351 00ce 1846     		mov	r0, r3
 352 00d0 FFF7FEFF 		bl	Debug_UART_PutString
 115:debug.c       ****             va_end(argptr); // the va_end() macro is used to clean up; it invalidates ap for use (u
 116:debug.c       ****             printd("\"}\r\n");
 353              		.loc 1 116 0 discriminator 2
 354 00d4 0D48     		ldr	r0, .L17+16
 355 00d6 FFF7FEFF 		bl	printd
 117:debug.c       ****             SD_write(BB_fileName,"a+",debug_string); // Write data to SD Card  
 356              		.loc 1 117 0 discriminator 2
 357 00da 07F11003 		add	r3, r7, #16
 358 00de 1A46     		mov	r2, r3
 359 00e0 0B49     		ldr	r1, .L17+20
 360 00e2 0C48     		ldr	r0, .L17+24
 361 00e4 FFF7FEFF 		bl	SD_write
 362              	.LBE3:
 107:debug.c       ****             printd("{ ");
 363              		.loc 1 107 0 discriminator 2
 364 00e8 00E0     		b	.L10
 365              	.L16:
 118:debug.c       **** 
 119:debug.c       ****         // else do not print and exit the function    
 120:debug.c       ****         }else{
 121:debug.c       ****             return;
ARM GAS  C:\Users\hail\AppData\Local\Temp\cccQqUje.s 			page 10


 366              		.loc 1 121 0
 367 00ea 00BF     		nop
 368              	.L10:
 122:debug.c       ****         }
 123:debug.c       **** 
 124:debug.c       ****     #endif 
 125:debug.c       **** }
 369              		.loc 1 125 0
 370 00ec 07F61407 		addw	r7, r7, #2068
 371              		.cfi_def_cfa_offset 20
 372 00f0 BD46     		mov	sp, r7
 373              		.cfi_def_cfa_register 13
 374              		@ sp needed
 375 00f2 BDE88040 		pop	{r7, lr}
 376              		.cfi_restore 14
 377              		.cfi_restore 7
 378              		.cfi_def_cfa_offset 12
 379 00f6 03B0     		add	sp, sp, #12
 380              		.cfi_restore 3
 381              		.cfi_restore 2
 382              		.cfi_restore 1
 383              		.cfi_def_cfa_offset 0
 384 00f8 7047     		bx	lr
 385              	.L18:
 386 00fa 00BF     		.align	2
 387              	.L17:
 388 00fc 00000000 		.word	.LC0
 389 0100 04000000 		.word	.LC1
 390 0104 14000000 		.word	.LC2
 391 0108 30000000 		.word	.LC3
 392 010c 4C000000 		.word	.LC4
 393 0110 54000000 		.word	.LC5
 394 0114 00000000 		.word	BB_fileName
 395 0118 00000000 		.word	debug_level
 396 011c 58000000 		.word	.LC6
 397              		.cfi_endproc
 398              	.LFE69:
 399              		.size	printNotif, .-printNotif
 400              		.section	.rodata
 401 0072 0000     		.align	2
 402              	.LC7:
 403 0074 22657665 		.ascii	"\"event\":\"test\" \000"
 403      6E74223A 
 403      22746573 
 403      74222000 
 404              		.align	2
 405              	.LC8:
 406 0084 226E616D 		.ascii	"\"name\":\"%s\" \000"
 406      65223A22 
 406      25732220 
 406      00
 407 0091 000000   		.align	2
 408              	.LC9:
 409 0094 22737461 		.ascii	"\"status\":\"%d\" \000"
 409      74757322 
 409      3A222564 
 409      222000
ARM GAS  C:\Users\hail\AppData\Local\Temp\cccQqUje.s 			page 11


 410 00a3 00       		.align	2
 411              	.LC10:
 412 00a4 22726561 		.ascii	"\"reason\":\"%s\" \000"
 412      736F6E22 
 412      3A222573 
 412      222000
 413 00b3 00       		.align	2
 414              	.LC11:
 415 00b4 7D0D0A00 		.ascii	"}\015\012\000"
 416              		.section	.text.printTestStatus,"ax",%progbits
 417              		.align	2
 418              		.global	printTestStatus
 419              		.thumb
 420              		.thumb_func
 421              		.type	printTestStatus, %function
 422              	printTestStatus:
 423              	.LFB70:
 126:debug.c       **** 
 127:debug.c       **** // Print debug test status
 128:debug.c       **** void printTestStatus(test_t test){
 424              		.loc 1 128 0
 425              		.cfi_startproc
 426              		@ args = 388, pretend = 16, frame = 0
 427              		@ frame_needed = 1, uses_anonymous_args = 0
 428 0000 84B0     		sub	sp, sp, #16
 429              		.cfi_def_cfa_offset 16
 430 0002 80B5     		push	{r7, lr}
 431              		.cfi_def_cfa_offset 24
 432              		.cfi_offset 7, -24
 433              		.cfi_offset 14, -20
 434 0004 00AF     		add	r7, sp, #0
 435              		.cfi_def_cfa_register 7
 436 0006 07F1080E 		add	lr, r7, #8
 437 000a 8EE80F00 		stmia	lr, {r0, r1, r2, r3}
 129:debug.c       ****     // if debug flag = 1
 130:debug.c       ****     #if USE_DEBUG
 131:debug.c       ****         printd("{ ");
 438              		.loc 1 131 0
 439 000e 1348     		ldr	r0, .L20
 440 0010 FFF7FEFF 		bl	printd
 132:debug.c       ****         printd("\"time\":\"%ld\" " , getTimeStamp());
 441              		.loc 1 132 0
 442 0014 FFF7FEFF 		bl	getTimeStamp
 443 0018 0346     		mov	r3, r0
 444 001a 1946     		mov	r1, r3
 445 001c 1048     		ldr	r0, .L20+4
 446 001e FFF7FEFF 		bl	printd
 133:debug.c       ****         
 134:debug.c       ****         printd("\"event\":\"test\" ");
 447              		.loc 1 134 0
 448 0022 1048     		ldr	r0, .L20+8
 449 0024 FFF7FEFF 		bl	printd
 135:debug.c       ****         printd("\"name\":\"%s\" ", test.test_name);
 450              		.loc 1 135 0
 451 0028 07F10801 		add	r1, r7, #8
 452 002c 0E48     		ldr	r0, .L20+12
 453 002e FFF7FEFF 		bl	printd
ARM GAS  C:\Users\hail\AppData\Local\Temp\cccQqUje.s 			page 12


 136:debug.c       ****         printd("\"status\":\"%d\" ", test.status);
 454              		.loc 1 136 0
 455 0032 97F88830 		ldrb	r3, [r7, #136]	@ zero_extendqisi2
 456 0036 1946     		mov	r1, r3
 457 0038 0C48     		ldr	r0, .L20+16
 458 003a FFF7FEFF 		bl	printd
 137:debug.c       ****         printd("\"reason\":\"%s\" ", test.reason);
 459              		.loc 1 137 0
 460 003e 07F18903 		add	r3, r7, #137
 461 0042 1946     		mov	r1, r3
 462 0044 0A48     		ldr	r0, .L20+20
 463 0046 FFF7FEFF 		bl	printd
 138:debug.c       **** 
 139:debug.c       ****         printd("}\r\n");
 464              		.loc 1 139 0
 465 004a 0A48     		ldr	r0, .L20+24
 466 004c FFF7FEFF 		bl	printd
 140:debug.c       ****     #endif
 141:debug.c       ****    
 142:debug.c       **** }
 467              		.loc 1 142 0
 468 0050 00BF     		nop
 469 0052 BD46     		mov	sp, r7
 470              		.cfi_def_cfa_register 13
 471              		@ sp needed
 472 0054 BDE88040 		pop	{r7, lr}
 473              		.cfi_restore 14
 474              		.cfi_restore 7
 475              		.cfi_def_cfa_offset 16
 476 0058 04B0     		add	sp, sp, #16
 477              		.cfi_def_cfa_offset 0
 478 005a 7047     		bx	lr
 479              	.L21:
 480              		.align	2
 481              	.L20:
 482 005c 00000000 		.word	.LC0
 483 0060 04000000 		.word	.LC1
 484 0064 74000000 		.word	.LC7
 485 0068 84000000 		.word	.LC8
 486 006c 94000000 		.word	.LC9
 487 0070 A4000000 		.word	.LC10
 488 0074 B4000000 		.word	.LC11
 489              		.cfi_endproc
 490              	.LFE70:
 491              		.size	printTestStatus, .-printTestStatus
 492              		.section	.text.getTimeStamp,"ax",%progbits
 493              		.align	2
 494              		.global	getTimeStamp
 495              		.thumb
 496              		.thumb_func
 497              		.type	getTimeStamp, %function
 498              	getTimeStamp:
 499              	.LFB71:
 143:debug.c       **** 
 144:debug.c       **** 
 145:debug.c       **** // Returns local times in epoch seconds (seconds since Jan 1, 1970)
 146:debug.c       **** // Can also cast this to a t_of_day struct
ARM GAS  C:\Users\hail\AppData\Local\Temp\cccQqUje.s 			page 13


 147:debug.c       **** long getTimeStamp(){
 500              		.loc 1 147 0
 501              		.cfi_startproc
 502              		@ args = 0, pretend = 0, frame = 48
 503              		@ frame_needed = 1, uses_anonymous_args = 0
 504 0000 80B5     		push	{r7, lr}
 505              		.cfi_def_cfa_offset 8
 506              		.cfi_offset 7, -8
 507              		.cfi_offset 14, -4
 508 0002 8CB0     		sub	sp, sp, #48
 509              		.cfi_def_cfa_offset 56
 510 0004 00AF     		add	r7, sp, #0
 511              		.cfi_def_cfa_register 7
 148:debug.c       ****     // RTC_TIME_DATE * RTC_ReadTime(void) Description: Reads the current time and date. Parameters:
 149:debug.c       ****     // Creates a variable named localTime that is a pointer to RTC_TIME_DATE. It saves the time and
 150:debug.c       ****     RTC_TIME_DATE *localTime = RTC_ReadTime();
 512              		.loc 1 150 0
 513 0006 FFF7FEFF 		bl	RTC_ReadTime
 514 000a F862     		str	r0, [r7, #44]
 151:debug.c       ****    
 152:debug.c       ****     struct tm t; // creates variable t of struct tm
 153:debug.c       ****     time_t t_of_day;
 154:debug.c       **** 
 155:debug.c       ****     // sets each variable to the correct time 
 156:debug.c       ****     t.tm_sec = localTime->Sec;
 515              		.loc 1 156 0
 516 000c FB6A     		ldr	r3, [r7, #44]
 517 000e 1B78     		ldrb	r3, [r3]
 518 0010 DBB2     		uxtb	r3, r3
 519 0012 7B60     		str	r3, [r7, #4]
 157:debug.c       ****     t.tm_min = localTime->Min;
 520              		.loc 1 157 0
 521 0014 FB6A     		ldr	r3, [r7, #44]
 522 0016 5B78     		ldrb	r3, [r3, #1]
 523 0018 DBB2     		uxtb	r3, r3
 524 001a BB60     		str	r3, [r7, #8]
 158:debug.c       ****     t.tm_hour = localTime->Hour;
 525              		.loc 1 158 0
 526 001c FB6A     		ldr	r3, [r7, #44]
 527 001e 9B78     		ldrb	r3, [r3, #2]
 528 0020 DBB2     		uxtb	r3, r3
 529 0022 FB60     		str	r3, [r7, #12]
 159:debug.c       ****     t.tm_year = localTime->Year - 1900;  // Year - 1900
 530              		.loc 1 159 0
 531 0024 FB6A     		ldr	r3, [r7, #44]
 532 0026 5B89     		ldrh	r3, [r3, #10]	@ movhi
 533 0028 9BB2     		uxth	r3, r3
 534 002a A3F26C73 		subw	r3, r3, #1900
 535 002e BB61     		str	r3, [r7, #24]
 160:debug.c       ****     t.tm_mon = localTime->Month;           // Month, where 0 = jan
 536              		.loc 1 160 0
 537 0030 FB6A     		ldr	r3, [r7, #44]
 538 0032 1B7A     		ldrb	r3, [r3, #8]
 539 0034 DBB2     		uxtb	r3, r3
 540 0036 7B61     		str	r3, [r7, #20]
 161:debug.c       ****     t.tm_mday = localTime->DayOfMonth;          // Day of the month
 541              		.loc 1 161 0
ARM GAS  C:\Users\hail\AppData\Local\Temp\cccQqUje.s 			page 14


 542 0038 FB6A     		ldr	r3, [r7, #44]
 543 003a 1B79     		ldrb	r3, [r3, #4]
 544 003c DBB2     		uxtb	r3, r3
 545 003e 3B61     		str	r3, [r7, #16]
 162:debug.c       ****     t.tm_isdst = 0;        // Is Daylight Savings on? 1 = yes, 0 = no, -1 = unknown
 546              		.loc 1 162 0
 547 0040 0023     		movs	r3, #0
 548 0042 7B62     		str	r3, [r7, #36]
 163:debug.c       ****     
 164:debug.c       ****     // the mktime() function converts a broken-down local time (pointed to by timeptr) and returns 
 165:debug.c       ****     // the syntax for the mktime function in the C Language is: time_t mktime(struct tm *timeptr);
 166:debug.c       ****     // creates variable t_of_day of type time_t
 167:debug.c       ****     t_of_day = mktime(&t); // determines a calendar time
 549              		.loc 1 167 0
 550 0044 3B1D     		adds	r3, r7, #4
 551 0046 1846     		mov	r0, r3
 552 0048 FFF7FEFF 		bl	mktime
 553 004c B862     		str	r0, [r7, #40]
 168:debug.c       **** 
 169:debug.c       ****     return (long) t_of_day;
 554              		.loc 1 169 0
 555 004e BB6A     		ldr	r3, [r7, #40]
 170:debug.c       **** }
 556              		.loc 1 170 0
 557 0050 1846     		mov	r0, r3
 558 0052 3037     		adds	r7, r7, #48
 559              		.cfi_def_cfa_offset 8
 560 0054 BD46     		mov	sp, r7
 561              		.cfi_def_cfa_register 13
 562              		@ sp needed
 563 0056 80BD     		pop	{r7, pc}
 564              		.cfi_endproc
 565              	.LFE71:
 566              		.size	getTimeStamp, .-getTimeStamp
 567              		.section	.text.stripEscapeCharacters,"ax",%progbits
 568              		.align	2
 569              		.global	stripEscapeCharacters
 570              		.thumb
 571              		.thumb_func
 572              		.type	stripEscapeCharacters, %function
 573              	stripEscapeCharacters:
 574              	.LFB72:
 171:debug.c       **** 
 172:debug.c       **** // The C library function char *strchr(const char *str, int c) searches for the first occurrence of
 173:debug.c       **** // Format for strchr() function: char *strchr(const char *str, int c).
 174:debug.c       **** void stripEscapeCharacters(char *string){
 575              		.loc 1 174 0
 576              		.cfi_startproc
 577              		@ args = 0, pretend = 0, frame = 16
 578              		@ frame_needed = 1, uses_anonymous_args = 0
 579 0000 80B5     		push	{r7, lr}
 580              		.cfi_def_cfa_offset 8
 581              		.cfi_offset 7, -8
 582              		.cfi_offset 14, -4
 583 0002 84B0     		sub	sp, sp, #16
 584              		.cfi_def_cfa_offset 24
 585 0004 00AF     		add	r7, sp, #0
ARM GAS  C:\Users\hail\AppData\Local\Temp\cccQqUje.s 			page 15


 586              		.cfi_def_cfa_register 7
 587 0006 7860     		str	r0, [r7, #4]
 175:debug.c       **** 
 176:debug.c       ****   char * pch;
 177:debug.c       ****   pch=strchr(string,'\n');
 588              		.loc 1 177 0
 589 0008 0A21     		movs	r1, #10
 590 000a 7868     		ldr	r0, [r7, #4]
 591 000c FFF7FEFF 		bl	strchr
 592 0010 F860     		str	r0, [r7, #12]
 178:debug.c       ****   while (pch!=NULL)
 593              		.loc 1 178 0
 594 0012 0EE0     		b	.L25
 595              	.L26:
 179:debug.c       ****   {
 180:debug.c       ****     string[pch-string+1] = 0;
 596              		.loc 1 180 0
 597 0014 FA68     		ldr	r2, [r7, #12]
 598 0016 7B68     		ldr	r3, [r7, #4]
 599 0018 D31A     		subs	r3, r2, r3
 600 001a 0133     		adds	r3, r3, #1
 601 001c 7A68     		ldr	r2, [r7, #4]
 602 001e 1344     		add	r3, r3, r2
 603 0020 0022     		movs	r2, #0
 604 0022 1A70     		strb	r2, [r3]
 181:debug.c       ****     pch=strchr(pch+1,'s');
 605              		.loc 1 181 0
 606 0024 FB68     		ldr	r3, [r7, #12]
 607 0026 0133     		adds	r3, r3, #1
 608 0028 7321     		movs	r1, #115
 609 002a 1846     		mov	r0, r3
 610 002c FFF7FEFF 		bl	strchr
 611 0030 F860     		str	r0, [r7, #12]
 612              	.L25:
 178:debug.c       ****   while (pch!=NULL)
 613              		.loc 1 178 0
 614 0032 FB68     		ldr	r3, [r7, #12]
 615 0034 002B     		cmp	r3, #0
 616 0036 EDD1     		bne	.L26
 182:debug.c       ****   }
 183:debug.c       **** }
 617              		.loc 1 183 0
 618 0038 00BF     		nop
 619 003a 1037     		adds	r7, r7, #16
 620              		.cfi_def_cfa_offset 8
 621 003c BD46     		mov	sp, r7
 622              		.cfi_def_cfa_register 13
 623              		@ sp needed
 624 003e 80BD     		pop	{r7, pc}
 625              		.cfi_endproc
 626              	.LFE72:
 627              		.size	stripEscapeCharacters, .-stripEscapeCharacters
 628              		.section	.text.strextract,"ax",%progbits
 629              		.align	2
 630              		.global	strextract
 631              		.thumb
 632              		.thumb_func
ARM GAS  C:\Users\hail\AppData\Local\Temp\cccQqUje.s 			page 16


 633              		.type	strextract, %function
 634              	strextract:
 635              	.LFB73:
 184:debug.c       **** 
 185:debug.c       **** // Extract
 186:debug.c       **** char *strextract(const char input_str[], char output_str[],
 187:debug.c       ****                  const char search_start[], const char search_end[]) {
 636              		.loc 1 187 0
 637              		.cfi_startproc
 638              		@ args = 0, pretend = 0, frame = 24
 639              		@ frame_needed = 1, uses_anonymous_args = 0
 640 0000 80B5     		push	{r7, lr}
 641              		.cfi_def_cfa_offset 8
 642              		.cfi_offset 7, -8
 643              		.cfi_offset 14, -4
 644 0002 86B0     		sub	sp, sp, #24
 645              		.cfi_def_cfa_offset 32
 646 0004 00AF     		add	r7, sp, #0
 647              		.cfi_def_cfa_register 7
 648 0006 F860     		str	r0, [r7, #12]
 649 0008 B960     		str	r1, [r7, #8]
 650 000a 7A60     		str	r2, [r7, #4]
 651 000c 3B60     		str	r3, [r7]
 188:debug.c       ****     if (input_str == NULL) return NULL;
 652              		.loc 1 188 0
 653 000e FB68     		ldr	r3, [r7, #12]
 654 0010 002B     		cmp	r3, #0
 655 0012 01D1     		bne	.L28
 656              		.loc 1 188 0 is_stmt 0 discriminator 1
 657 0014 0023     		movs	r3, #0
 658 0016 29E0     		b	.L29
 659              	.L28:
 189:debug.c       ****     char *begin, *end = NULL;
 660              		.loc 1 189 0 is_stmt 1
 661 0018 0023     		movs	r3, #0
 662 001a 7B61     		str	r3, [r7, #20]
 190:debug.c       **** 
 191:debug.c       ****     // strstr(): char *strstr(const char *haystack, const char *needle). haystack - main C string t
 192:debug.c       ****     if ((begin = strstr(input_str, search_start))) {
 663              		.loc 1 192 0
 664 001c 7968     		ldr	r1, [r7, #4]
 665 001e F868     		ldr	r0, [r7, #12]
 666 0020 FFF7FEFF 		bl	strstr
 667 0024 3861     		str	r0, [r7, #16]
 668 0026 3B69     		ldr	r3, [r7, #16]
 669 0028 002B     		cmp	r3, #0
 670 002a 1ED0     		beq	.L30
 193:debug.c       ****         // The strlen() function calculates the length of a given string. The strlen() function tak
 194:debug.c       ****         begin += strlen(search_start);
 671              		.loc 1 194 0
 672 002c 7868     		ldr	r0, [r7, #4]
 673 002e FFF7FEFF 		bl	strlen
 674 0032 0246     		mov	r2, r0
 675 0034 3B69     		ldr	r3, [r7, #16]
 676 0036 1344     		add	r3, r3, r2
 677 0038 3B61     		str	r3, [r7, #16]
 195:debug.c       ****         if ((end = strstr(begin, search_end))) {
ARM GAS  C:\Users\hail\AppData\Local\Temp\cccQqUje.s 			page 17


 678              		.loc 1 195 0
 679 003a 3968     		ldr	r1, [r7]
 680 003c 3869     		ldr	r0, [r7, #16]
 681 003e FFF7FEFF 		bl	strstr
 682 0042 7861     		str	r0, [r7, #20]
 683 0044 7B69     		ldr	r3, [r7, #20]
 684 0046 002B     		cmp	r3, #0
 685 0048 0FD0     		beq	.L30
 196:debug.c       ****             // strncpy(: char *strncpy(char *dest, const char *src, size_t n). dest -  pointer to t
 197:debug.c       ****             strncpy(output_str, begin, end - begin);
 686              		.loc 1 197 0
 687 004a 7A69     		ldr	r2, [r7, #20]
 688 004c 3B69     		ldr	r3, [r7, #16]
 689 004e D31A     		subs	r3, r2, r3
 690 0050 1A46     		mov	r2, r3
 691 0052 3969     		ldr	r1, [r7, #16]
 692 0054 B868     		ldr	r0, [r7, #8]
 693 0056 FFF7FEFF 		bl	strncpy
 198:debug.c       ****             output_str[end - begin] = '\0';
 694              		.loc 1 198 0
 695 005a 7A69     		ldr	r2, [r7, #20]
 696 005c 3B69     		ldr	r3, [r7, #16]
 697 005e D31A     		subs	r3, r2, r3
 698 0060 1A46     		mov	r2, r3
 699 0062 BB68     		ldr	r3, [r7, #8]
 700 0064 1344     		add	r3, r3, r2
 701 0066 0022     		movs	r2, #0
 702 0068 1A70     		strb	r2, [r3]
 703              	.L30:
 199:debug.c       ****         }
 200:debug.c       ****     }
 201:debug.c       **** 
 202:debug.c       ****     return end;
 704              		.loc 1 202 0
 705 006a 7B69     		ldr	r3, [r7, #20]
 706              	.L29:
 203:debug.c       **** }
 707              		.loc 1 203 0
 708 006c 1846     		mov	r0, r3
 709 006e 1837     		adds	r7, r7, #24
 710              		.cfi_def_cfa_offset 8
 711 0070 BD46     		mov	sp, r7
 712              		.cfi_def_cfa_register 13
 713              		@ sp needed
 714 0072 80BD     		pop	{r7, pc}
 715              		.cfi_endproc
 716              	.LFE73:
 717              		.size	strextract, .-strextract
 718              		.section	.text.printd,"ax",%progbits
 719              		.align	2
 720              		.global	printd
 721              		.thumb
 722              		.thumb_func
 723              		.type	printd, %function
 724              	printd:
 725              	.LFB74:
 204:debug.c       **** 
ARM GAS  C:\Users\hail\AppData\Local\Temp\cccQqUje.s 			page 18


 205:debug.c       **** //out attempt at a safe (from buffer overflow) version of printf     
 206:debug.c       **** void printd(char* format, ...){
 726              		.loc 1 206 0
 727              		.cfi_startproc
 728              		@ args = 4, pretend = 16, frame = 2056
 729              		@ frame_needed = 1, uses_anonymous_args = 1
 730 0000 0FB4     		push	{r0, r1, r2, r3}
 731              		.cfi_def_cfa_offset 16
 732              		.cfi_offset 0, -16
 733              		.cfi_offset 1, -12
 734              		.cfi_offset 2, -8
 735              		.cfi_offset 3, -4
 736 0002 80B5     		push	{r7, lr}
 737              		.cfi_def_cfa_offset 24
 738              		.cfi_offset 7, -24
 739              		.cfi_offset 14, -20
 740 0004 ADF6080D 		subw	sp, sp, #2056
 741              		.cfi_def_cfa_offset 2080
 742 0008 00AF     		add	r7, sp, #0
 743              		.cfi_def_cfa_register 7
 207:debug.c       ****     
 208:debug.c       ****     va_list argptr; // Create variable argptr of data structure va_list
 209:debug.c       ****     va_start(argptr, format); // void va_start(va_list ap, last_arg) initializes ap variable to be 
 744              		.loc 1 209 0
 745 000a 07F61403 		addw	r3, r7, #2068
 746 000e C7F80438 		str	r3, [r7, #2052]
 210:debug.c       ****     
 211:debug.c       ****     // Create character array debug_string of size MAX_DEBUG_STRING_LENGTH
 212:debug.c       ****     char debug_string[MAX_DEBUG_STRING_LENGTH];
 213:debug.c       ****     // The vsnprintf() used to write a formatted string to a string buffer.vsnprintf(debug_string,M
 214:debug.c       ****     vsnprintf(debug_string,MAX_DEBUG_STRING_LENGTH,format, argptr);
 747              		.loc 1 214 0
 748 0012 381D     		adds	r0, r7, #4
 749 0014 D7F80438 		ldr	r3, [r7, #2052]
 750 0018 D7F81028 		ldr	r2, [r7, #2064]
 751 001c 4FF40061 		mov	r1, #2048
 752 0020 FFF7FEFF 		bl	vsnprintf
 215:debug.c       ****     // Sends a NULL terminated string to the TX buffer for transmission.
 216:debug.c       ****     Debug_UART_PutString(debug_string);
 753              		.loc 1 216 0
 754 0024 3B1D     		adds	r3, r7, #4
 755 0026 1846     		mov	r0, r3
 756 0028 FFF7FEFF 		bl	Debug_UART_PutString
 217:debug.c       ****     
 218:debug.c       ****     va_end(argptr); // macro void va_end(va_list ap) allows a function with variable arguments whic
 219:debug.c       ****     
 220:debug.c       **** }
 757              		.loc 1 220 0
 758 002c 00BF     		nop
 759 002e 07F60807 		addw	r7, r7, #2056
 760              		.cfi_def_cfa_offset 24
 761 0032 BD46     		mov	sp, r7
 762              		.cfi_def_cfa_register 13
 763              		@ sp needed
 764 0034 BDE88040 		pop	{r7, lr}
 765              		.cfi_restore 14
 766              		.cfi_restore 7
ARM GAS  C:\Users\hail\AppData\Local\Temp\cccQqUje.s 			page 19


 767              		.cfi_def_cfa_offset 16
 768 0038 04B0     		add	sp, sp, #16
 769              		.cfi_restore 3
 770              		.cfi_restore 2
 771              		.cfi_restore 1
 772              		.cfi_restore 0
 773              		.cfi_def_cfa_offset 0
 774 003a 7047     		bx	lr
 775              		.cfi_endproc
 776              	.LFE74:
 777              		.size	printd, .-printd
 778              		.text
 779              	.Letext0:
 780              		.file 2 "c:\\program files (x86)\\cypress\\psoc creator\\4.1\\psoc creator\\import\\gnu\\arm\\5.4.
 781              		.file 3 "c:\\program files (x86)\\cypress\\psoc creator\\4.1\\psoc creator\\import\\gnu\\arm\\5.4.
 782              		.file 4 "c:\\program files (x86)\\cypress\\psoc creator\\4.1\\psoc creator\\import\\gnu\\arm\\5.4.
 783              		.file 5 "c:\\program files (x86)\\cypress\\psoc creator\\4.1\\psoc creator\\import\\gnu\\arm\\5.4.
 784              		.file 6 "c:\\program files (x86)\\cypress\\psoc creator\\4.1\\psoc creator\\import\\gnu\\arm\\5.4.
 785              		.file 7 "Generated_Source\\PSoC5/cytypes.h"
 786              		.file 8 "Generated_Source\\PSoC5/RTC.h"
 787              		.file 9 "testing.h"
 788              		.file 10 "Generated_Source\\PSoC5/core_cm3.h"
 789              		.file 11 "<built-in>"