ARM GAS  C:\Users\bk\AppData\Local\Temp\ccle169t.s 			page 1


   1              		.syntax unified
   2              		.cpu cortex-m3
   3              		.fpu softvfp
   4              		.eabi_attribute 20, 1
   5              		.eabi_attribute 21, 1
   6              		.eabi_attribute 23, 3
   7              		.eabi_attribute 24, 1
   8              		.eabi_attribute 25, 1
   9              		.eabi_attribute 26, 1
  10              		.eabi_attribute 30, 6
  11              		.eabi_attribute 34, 1
  12              		.eabi_attribute 18, 4
  13              		.thumb
  14              		.syntax unified
  15              		.file	"emFile_MMC_HW_SPI.c"
  16              		.text
  17              	.Ltext0:
  18              		.cfi_sections	.debug_frame
  19              		.bss
  20              	emFile_isInited0:
  21 0000 00       		.space	1
  22              		.section	.text.emFile_Init,"ax",%progbits
  23              		.align	2
  24              		.thumb
  25              		.thumb_func
  26              		.type	emFile_Init, %function
  27              	emFile_Init:
  28              	.LFB63:
  29              		.file 1 "Generated_Source\\PSoC5\\emFile_MMC_HW_SPI.c"
   1:Generated_Source\PSoC5/emFile_MMC_HW_SPI.c **** /*******************************************************************************
   2:Generated_Source\PSoC5/emFile_MMC_HW_SPI.c **** * File Name: emFile_MMC_HW_SPI.c
   3:Generated_Source\PSoC5/emFile_MMC_HW_SPI.c **** * Version 1.20
   4:Generated_Source\PSoC5/emFile_MMC_HW_SPI.c **** *
   5:Generated_Source\PSoC5/emFile_MMC_HW_SPI.c **** * Description:
   6:Generated_Source\PSoC5/emFile_MMC_HW_SPI.c **** *  Contains a set of File System APIs that implements SPI mode driver operation.
   7:Generated_Source\PSoC5/emFile_MMC_HW_SPI.c **** *
   8:Generated_Source\PSoC5/emFile_MMC_HW_SPI.c **** * Note:
   9:Generated_Source\PSoC5/emFile_MMC_HW_SPI.c **** *
  10:Generated_Source\PSoC5/emFile_MMC_HW_SPI.c **** ********************************************************************************
  11:Generated_Source\PSoC5/emFile_MMC_HW_SPI.c **** * Copyright 2011-2012, Cypress Semiconductor Corporation.  All rights reserved.
  12:Generated_Source\PSoC5/emFile_MMC_HW_SPI.c **** * You may use this file only in accordance with the license, terms, conditions,
  13:Generated_Source\PSoC5/emFile_MMC_HW_SPI.c **** * disclaimers, and limitations in the end user license agreement accompanying
  14:Generated_Source\PSoC5/emFile_MMC_HW_SPI.c **** * the software package with which this file was provided.
  15:Generated_Source\PSoC5/emFile_MMC_HW_SPI.c **** *******************************************************************************/
  16:Generated_Source\PSoC5/emFile_MMC_HW_SPI.c **** 
  17:Generated_Source\PSoC5/emFile_MMC_HW_SPI.c **** #include "FS.h"
  18:Generated_Source\PSoC5/emFile_MMC_HW_SPI.c **** #include "emFile.h"
  19:Generated_Source\PSoC5/emFile_MMC_HW_SPI.c **** #include "MMC_X_HW.h"
  20:Generated_Source\PSoC5/emFile_MMC_HW_SPI.c **** #include "project.h"
  21:Generated_Source\PSoC5/emFile_MMC_HW_SPI.c **** 
  22:Generated_Source\PSoC5/emFile_MMC_HW_SPI.c **** 
  23:Generated_Source\PSoC5/emFile_MMC_HW_SPI.c **** /*********************************************************************
  24:Generated_Source\PSoC5/emFile_MMC_HW_SPI.c **** *             Macros
  25:Generated_Source\PSoC5/emFile_MMC_HW_SPI.c **** *********************************************************************/
  26:Generated_Source\PSoC5/emFile_MMC_HW_SPI.c **** /* in mV, example means 3.3V */
  27:Generated_Source\PSoC5/emFile_MMC_HW_SPI.c **** #define emFile_MMC_DEFAULT_SUPPLY_VOLTAGE    (3300u)
  28:Generated_Source\PSoC5/emFile_MMC_HW_SPI.c **** 
ARM GAS  C:\Users\bk\AppData\Local\Temp\ccle169t.s 			page 2


  29:Generated_Source\PSoC5/emFile_MMC_HW_SPI.c **** /* Max. startup frequency (KHz) */
  30:Generated_Source\PSoC5/emFile_MMC_HW_SPI.c **** #define emFile_STARTUP_FREQ                   (400u)
  31:Generated_Source\PSoC5/emFile_MMC_HW_SPI.c **** 
  32:Generated_Source\PSoC5/emFile_MMC_HW_SPI.c **** 
  33:Generated_Source\PSoC5/emFile_MMC_HW_SPI.c **** /*********************************************************************
  34:Generated_Source\PSoC5/emFile_MMC_HW_SPI.c **** *       Static data
  35:Generated_Source\PSoC5/emFile_MMC_HW_SPI.c **** *********************************************************************/
  36:Generated_Source\PSoC5/emFile_MMC_HW_SPI.c **** 
  37:Generated_Source\PSoC5/emFile_MMC_HW_SPI.c **** static char emFile_isInited0;
  38:Generated_Source\PSoC5/emFile_MMC_HW_SPI.c **** 
  39:Generated_Source\PSoC5/emFile_MMC_HW_SPI.c **** #if (emFile_NUMBER_SD_CARDS >= 2u)
  40:Generated_Source\PSoC5/emFile_MMC_HW_SPI.c **** 
  41:Generated_Source\PSoC5/emFile_MMC_HW_SPI.c ****     static char emFile_isInited1;
  42:Generated_Source\PSoC5/emFile_MMC_HW_SPI.c **** 
  43:Generated_Source\PSoC5/emFile_MMC_HW_SPI.c **** #endif /* (emFile_NUMBER_SD_CARDS >= 2u) */
  44:Generated_Source\PSoC5/emFile_MMC_HW_SPI.c **** 
  45:Generated_Source\PSoC5/emFile_MMC_HW_SPI.c **** #if (emFile_NUMBER_SD_CARDS >= 3u)
  46:Generated_Source\PSoC5/emFile_MMC_HW_SPI.c **** 
  47:Generated_Source\PSoC5/emFile_MMC_HW_SPI.c ****     static char emFile_isInited2;
  48:Generated_Source\PSoC5/emFile_MMC_HW_SPI.c **** 
  49:Generated_Source\PSoC5/emFile_MMC_HW_SPI.c **** #endif /* (emFile_NUMBER_SD_CARDS >= 3u) */
  50:Generated_Source\PSoC5/emFile_MMC_HW_SPI.c **** 
  51:Generated_Source\PSoC5/emFile_MMC_HW_SPI.c **** #if (emFile_NUMBER_SD_CARDS == 4u)
  52:Generated_Source\PSoC5/emFile_MMC_HW_SPI.c **** 
  53:Generated_Source\PSoC5/emFile_MMC_HW_SPI.c ****     static char emFile_isInited3;
  54:Generated_Source\PSoC5/emFile_MMC_HW_SPI.c **** 
  55:Generated_Source\PSoC5/emFile_MMC_HW_SPI.c **** #endif /* (emFile_NUMBER_SD_CARDS == 4u) */
  56:Generated_Source\PSoC5/emFile_MMC_HW_SPI.c **** 
  57:Generated_Source\PSoC5/emFile_MMC_HW_SPI.c **** 
  58:Generated_Source\PSoC5/emFile_MMC_HW_SPI.c **** /*******************************************************************************
  59:Generated_Source\PSoC5/emFile_MMC_HW_SPI.c **** * Function Name: emFile_Init
  60:Generated_Source\PSoC5/emFile_MMC_HW_SPI.c **** ********************************************************************************
  61:Generated_Source\PSoC5/emFile_MMC_HW_SPI.c **** *
  62:Generated_Source\PSoC5/emFile_MMC_HW_SPI.c **** * Summary:
  63:Generated_Source\PSoC5/emFile_MMC_HW_SPI.c **** *  Initialize SPI Masters.
  64:Generated_Source\PSoC5/emFile_MMC_HW_SPI.c **** *
  65:Generated_Source\PSoC5/emFile_MMC_HW_SPI.c **** * Parameters:
  66:Generated_Source\PSoC5/emFile_MMC_HW_SPI.c **** *  Unit - Unit (SPIM) number.
  67:Generated_Source\PSoC5/emFile_MMC_HW_SPI.c **** *
  68:Generated_Source\PSoC5/emFile_MMC_HW_SPI.c **** * Return:
  69:Generated_Source\PSoC5/emFile_MMC_HW_SPI.c **** *  None
  70:Generated_Source\PSoC5/emFile_MMC_HW_SPI.c **** *
  71:Generated_Source\PSoC5/emFile_MMC_HW_SPI.c **** * Reentrant:
  72:Generated_Source\PSoC5/emFile_MMC_HW_SPI.c **** *  No
  73:Generated_Source\PSoC5/emFile_MMC_HW_SPI.c **** *
  74:Generated_Source\PSoC5/emFile_MMC_HW_SPI.c **** *******************************************************************************/
  75:Generated_Source\PSoC5/emFile_MMC_HW_SPI.c **** static void emFile_Init(U8 Unit) CYREENTRANT
  76:Generated_Source\PSoC5/emFile_MMC_HW_SPI.c **** {
  30              		.loc 1 76 0
  31              		.cfi_startproc
  32              		@ args = 0, pretend = 0, frame = 8
  33              		@ frame_needed = 1, uses_anonymous_args = 0
  34 0000 80B5     		push	{r7, lr}
  35              		.cfi_def_cfa_offset 8
  36              		.cfi_offset 7, -8
  37              		.cfi_offset 14, -4
  38 0002 82B0     		sub	sp, sp, #8
ARM GAS  C:\Users\bk\AppData\Local\Temp\ccle169t.s 			page 3


  39              		.cfi_def_cfa_offset 16
  40 0004 00AF     		add	r7, sp, #0
  41              		.cfi_def_cfa_register 7
  42 0006 0346     		mov	r3, r0
  43 0008 FB71     		strb	r3, [r7, #7]
  77:Generated_Source\PSoC5/emFile_MMC_HW_SPI.c ****     switch(Unit)
  44              		.loc 1 77 0
  45 000a FB79     		ldrb	r3, [r7, #7]	@ zero_extendqisi2
  46 000c 002B     		cmp	r3, #0
  47 000e 11D1     		bne	.L7
  78:Generated_Source\PSoC5/emFile_MMC_HW_SPI.c ****     {
  79:Generated_Source\PSoC5/emFile_MMC_HW_SPI.c ****     case 0u:
  80:Generated_Source\PSoC5/emFile_MMC_HW_SPI.c **** 
  81:Generated_Source\PSoC5/emFile_MMC_HW_SPI.c ****         if (emFile_isInited0 == 0u)
  48              		.loc 1 81 0
  49 0010 154B     		ldr	r3, .L10
  50 0012 1B78     		ldrb	r3, [r3]	@ zero_extendqisi2
  51 0014 002B     		cmp	r3, #0
  52 0016 1FD1     		bne	.L8
  82:Generated_Source\PSoC5/emFile_MMC_HW_SPI.c ****         {
  83:Generated_Source\PSoC5/emFile_MMC_HW_SPI.c ****             /* Indicate that SPI 0 was initialized */
  84:Generated_Source\PSoC5/emFile_MMC_HW_SPI.c ****             emFile_isInited0 = 1u;
  53              		.loc 1 84 0
  54 0018 134B     		ldr	r3, .L10
  55 001a 0122     		movs	r2, #1
  56 001c 1A70     		strb	r2, [r3]
  85:Generated_Source\PSoC5/emFile_MMC_HW_SPI.c **** 
  86:Generated_Source\PSoC5/emFile_MMC_HW_SPI.c ****             /* Initialize SPI */
  87:Generated_Source\PSoC5/emFile_MMC_HW_SPI.c **** 
  88:Generated_Source\PSoC5/emFile_MMC_HW_SPI.c ****             /* Stop the clock to set a required divider */
  89:Generated_Source\PSoC5/emFile_MMC_HW_SPI.c ****             emFile_Clock_1_Stop();
  57              		.loc 1 89 0
  58 001e FFF7FEFF 		bl	emFile_Clock_1_Stop
  90:Generated_Source\PSoC5/emFile_MMC_HW_SPI.c **** 
  91:Generated_Source\PSoC5/emFile_MMC_HW_SPI.c ****             /* Set the inital clock frequency to 400 KHz */
  92:Generated_Source\PSoC5/emFile_MMC_HW_SPI.c ****             emFile_Clock_1_SetDividerValue(BCLK__BUS_CLK__KHZ/emFile_STARTUP_FREQ);
  59              		.loc 1 92 0
  60 0022 0121     		movs	r1, #1
  61 0024 3B20     		movs	r0, #59
  62 0026 FFF7FEFF 		bl	emFile_Clock_1_SetDividerRegister
  93:Generated_Source\PSoC5/emFile_MMC_HW_SPI.c **** 
  94:Generated_Source\PSoC5/emFile_MMC_HW_SPI.c ****             /* Start the clock */
  95:Generated_Source\PSoC5/emFile_MMC_HW_SPI.c ****             emFile_Clock_1_Start();
  63              		.loc 1 95 0
  64 002a FFF7FEFF 		bl	emFile_Clock_1_Start
  96:Generated_Source\PSoC5/emFile_MMC_HW_SPI.c **** 
  97:Generated_Source\PSoC5/emFile_MMC_HW_SPI.c ****             /* Start SPI 0 */
  98:Generated_Source\PSoC5/emFile_MMC_HW_SPI.c ****             emFile_SPI0_Start();
  65              		.loc 1 98 0
  66 002e FFF7FEFF 		bl	emFile_SPI0_Start
  99:Generated_Source\PSoC5/emFile_MMC_HW_SPI.c ****         }
 100:Generated_Source\PSoC5/emFile_MMC_HW_SPI.c **** 
 101:Generated_Source\PSoC5/emFile_MMC_HW_SPI.c ****         break;
  67              		.loc 1 101 0
  68 0032 11E0     		b	.L8
  69              	.L7:
 102:Generated_Source\PSoC5/emFile_MMC_HW_SPI.c **** 
ARM GAS  C:\Users\bk\AppData\Local\Temp\ccle169t.s 			page 4


 103:Generated_Source\PSoC5/emFile_MMC_HW_SPI.c ****         #if (emFile_NUMBER_SD_CARDS >= 2u)
 104:Generated_Source\PSoC5/emFile_MMC_HW_SPI.c **** 
 105:Generated_Source\PSoC5/emFile_MMC_HW_SPI.c ****             case 1u:
 106:Generated_Source\PSoC5/emFile_MMC_HW_SPI.c **** 
 107:Generated_Source\PSoC5/emFile_MMC_HW_SPI.c ****                 if (emFile_isInited1 == 0u)
 108:Generated_Source\PSoC5/emFile_MMC_HW_SPI.c ****                 {
 109:Generated_Source\PSoC5/emFile_MMC_HW_SPI.c ****                     /* Indicate that SPI 1 was initialized */
 110:Generated_Source\PSoC5/emFile_MMC_HW_SPI.c ****                     emFile_isInited1 = 1u;
 111:Generated_Source\PSoC5/emFile_MMC_HW_SPI.c **** 
 112:Generated_Source\PSoC5/emFile_MMC_HW_SPI.c ****                     /* Stop the clock to set a required divider */
 113:Generated_Source\PSoC5/emFile_MMC_HW_SPI.c ****                     emFile_Clock_2_Stop();
 114:Generated_Source\PSoC5/emFile_MMC_HW_SPI.c **** 
 115:Generated_Source\PSoC5/emFile_MMC_HW_SPI.c ****                     /* Set the inital clock frequency to 400 KHz */
 116:Generated_Source\PSoC5/emFile_MMC_HW_SPI.c ****                     emFile_Clock_2_SetDividerValue(BCLK__BUS_CLK__KHZ/emFile_STARTUP_FREQ);
 117:Generated_Source\PSoC5/emFile_MMC_HW_SPI.c **** 
 118:Generated_Source\PSoC5/emFile_MMC_HW_SPI.c ****                     /* Start the clock */
 119:Generated_Source\PSoC5/emFile_MMC_HW_SPI.c ****                     emFile_Clock_2_Start();
 120:Generated_Source\PSoC5/emFile_MMC_HW_SPI.c **** 
 121:Generated_Source\PSoC5/emFile_MMC_HW_SPI.c ****                     /* Start SPI 1 */
 122:Generated_Source\PSoC5/emFile_MMC_HW_SPI.c ****                     emFile_SPI1_Start();
 123:Generated_Source\PSoC5/emFile_MMC_HW_SPI.c ****                 }
 124:Generated_Source\PSoC5/emFile_MMC_HW_SPI.c **** 
 125:Generated_Source\PSoC5/emFile_MMC_HW_SPI.c ****                 break;
 126:Generated_Source\PSoC5/emFile_MMC_HW_SPI.c **** 
 127:Generated_Source\PSoC5/emFile_MMC_HW_SPI.c ****         #endif /* (emFile_NUMBER_SD_CARDS >= 2u) */
 128:Generated_Source\PSoC5/emFile_MMC_HW_SPI.c **** 
 129:Generated_Source\PSoC5/emFile_MMC_HW_SPI.c ****         #if (emFile_NUMBER_SD_CARDS >= 3u)
 130:Generated_Source\PSoC5/emFile_MMC_HW_SPI.c **** 
 131:Generated_Source\PSoC5/emFile_MMC_HW_SPI.c ****             case 2u:
 132:Generated_Source\PSoC5/emFile_MMC_HW_SPI.c **** 
 133:Generated_Source\PSoC5/emFile_MMC_HW_SPI.c ****                 if (emFile_isInited2 == 0u)
 134:Generated_Source\PSoC5/emFile_MMC_HW_SPI.c ****                 {
 135:Generated_Source\PSoC5/emFile_MMC_HW_SPI.c ****                     /* Indicate that SPI 2 was initialized */
 136:Generated_Source\PSoC5/emFile_MMC_HW_SPI.c ****                     emFile_isInited2 = 1u;
 137:Generated_Source\PSoC5/emFile_MMC_HW_SPI.c **** 
 138:Generated_Source\PSoC5/emFile_MMC_HW_SPI.c ****                     /* Stop the clock to set a required divider */
 139:Generated_Source\PSoC5/emFile_MMC_HW_SPI.c ****                     emFile_Clock_3_Stop();
 140:Generated_Source\PSoC5/emFile_MMC_HW_SPI.c **** 
 141:Generated_Source\PSoC5/emFile_MMC_HW_SPI.c ****                     /* Set the inital clock frequency to 400 KHz */
 142:Generated_Source\PSoC5/emFile_MMC_HW_SPI.c ****                     emFile_Clock_3_SetDividerValue(BCLK__BUS_CLK__KHZ/emFile_STARTUP_FREQ);
 143:Generated_Source\PSoC5/emFile_MMC_HW_SPI.c **** 
 144:Generated_Source\PSoC5/emFile_MMC_HW_SPI.c ****                     /* Start the clock */
 145:Generated_Source\PSoC5/emFile_MMC_HW_SPI.c ****                     emFile_Clock_3_Start();
 146:Generated_Source\PSoC5/emFile_MMC_HW_SPI.c **** 
 147:Generated_Source\PSoC5/emFile_MMC_HW_SPI.c ****                     /* Start SPI 2 */
 148:Generated_Source\PSoC5/emFile_MMC_HW_SPI.c ****                     emFile_SPI2_Start();
 149:Generated_Source\PSoC5/emFile_MMC_HW_SPI.c ****                 }
 150:Generated_Source\PSoC5/emFile_MMC_HW_SPI.c **** 
 151:Generated_Source\PSoC5/emFile_MMC_HW_SPI.c ****                 break;
 152:Generated_Source\PSoC5/emFile_MMC_HW_SPI.c **** 
 153:Generated_Source\PSoC5/emFile_MMC_HW_SPI.c ****         #endif /* (emFile_NUMBER_SD_CARDS >= 3u) */
 154:Generated_Source\PSoC5/emFile_MMC_HW_SPI.c **** 
 155:Generated_Source\PSoC5/emFile_MMC_HW_SPI.c ****         #if (emFile_NUMBER_SD_CARDS == 4u)
 156:Generated_Source\PSoC5/emFile_MMC_HW_SPI.c **** 
 157:Generated_Source\PSoC5/emFile_MMC_HW_SPI.c ****             case 3u:
 158:Generated_Source\PSoC5/emFile_MMC_HW_SPI.c **** 
 159:Generated_Source\PSoC5/emFile_MMC_HW_SPI.c ****                 if (emFile_isInited3 == 0u)
ARM GAS  C:\Users\bk\AppData\Local\Temp\ccle169t.s 			page 5


 160:Generated_Source\PSoC5/emFile_MMC_HW_SPI.c ****                 {
 161:Generated_Source\PSoC5/emFile_MMC_HW_SPI.c ****                     /* Indicate that SPI 3 was initialized */
 162:Generated_Source\PSoC5/emFile_MMC_HW_SPI.c ****                     emFile_isInited3 = 1u;
 163:Generated_Source\PSoC5/emFile_MMC_HW_SPI.c **** 
 164:Generated_Source\PSoC5/emFile_MMC_HW_SPI.c ****                     /* Stop the clock to set a required divider */
 165:Generated_Source\PSoC5/emFile_MMC_HW_SPI.c ****                     emFile_Clock_4_Stop();
 166:Generated_Source\PSoC5/emFile_MMC_HW_SPI.c **** 
 167:Generated_Source\PSoC5/emFile_MMC_HW_SPI.c ****                     /* Set the inital clock frequency to 400 KHz */
 168:Generated_Source\PSoC5/emFile_MMC_HW_SPI.c ****                     emFile_Clock_4_SetDividerValue(BCLK__BUS_CLK__KHZ/emFile_STARTUP_FREQ);
 169:Generated_Source\PSoC5/emFile_MMC_HW_SPI.c **** 
 170:Generated_Source\PSoC5/emFile_MMC_HW_SPI.c ****                     /* Start the clock */
 171:Generated_Source\PSoC5/emFile_MMC_HW_SPI.c ****                     emFile_Clock_4_Start();
 172:Generated_Source\PSoC5/emFile_MMC_HW_SPI.c **** 
 173:Generated_Source\PSoC5/emFile_MMC_HW_SPI.c ****                     /* Start SPI 3 */
 174:Generated_Source\PSoC5/emFile_MMC_HW_SPI.c ****                     emFile_SPI3_Start();
 175:Generated_Source\PSoC5/emFile_MMC_HW_SPI.c ****                 }
 176:Generated_Source\PSoC5/emFile_MMC_HW_SPI.c **** 
 177:Generated_Source\PSoC5/emFile_MMC_HW_SPI.c ****                 break;
 178:Generated_Source\PSoC5/emFile_MMC_HW_SPI.c **** 
 179:Generated_Source\PSoC5/emFile_MMC_HW_SPI.c ****         #endif /* (emFile_NUMBER_SD_CARDS == 4u) */
 180:Generated_Source\PSoC5/emFile_MMC_HW_SPI.c **** 
 181:Generated_Source\PSoC5/emFile_MMC_HW_SPI.c ****     default:
 182:Generated_Source\PSoC5/emFile_MMC_HW_SPI.c **** 
 183:Generated_Source\PSoC5/emFile_MMC_HW_SPI.c ****         if (emFile_isInited0 == 0u)
  70              		.loc 1 183 0
  71 0034 0C4B     		ldr	r3, .L10
  72 0036 1B78     		ldrb	r3, [r3]	@ zero_extendqisi2
  73 0038 002B     		cmp	r3, #0
  74 003a 0FD1     		bne	.L9
 184:Generated_Source\PSoC5/emFile_MMC_HW_SPI.c ****         {
 185:Generated_Source\PSoC5/emFile_MMC_HW_SPI.c ****             /* Indicate that SPI 0 was initialized */
 186:Generated_Source\PSoC5/emFile_MMC_HW_SPI.c ****             emFile_isInited0 = 1u;
  75              		.loc 1 186 0
  76 003c 0A4B     		ldr	r3, .L10
  77 003e 0122     		movs	r2, #1
  78 0040 1A70     		strb	r2, [r3]
 187:Generated_Source\PSoC5/emFile_MMC_HW_SPI.c **** 
 188:Generated_Source\PSoC5/emFile_MMC_HW_SPI.c ****             /* Stop the clock to set a required divider */
 189:Generated_Source\PSoC5/emFile_MMC_HW_SPI.c ****             emFile_Clock_1_Stop();
  79              		.loc 1 189 0
  80 0042 FFF7FEFF 		bl	emFile_Clock_1_Stop
 190:Generated_Source\PSoC5/emFile_MMC_HW_SPI.c **** 
 191:Generated_Source\PSoC5/emFile_MMC_HW_SPI.c ****             /* Set the inital clock frequency to 400 KHz */
 192:Generated_Source\PSoC5/emFile_MMC_HW_SPI.c ****             emFile_Clock_1_SetDividerValue(BCLK__BUS_CLK__KHZ/emFile_STARTUP_FREQ);
  81              		.loc 1 192 0
  82 0046 0121     		movs	r1, #1
  83 0048 3B20     		movs	r0, #59
  84 004a FFF7FEFF 		bl	emFile_Clock_1_SetDividerRegister
 193:Generated_Source\PSoC5/emFile_MMC_HW_SPI.c **** 
 194:Generated_Source\PSoC5/emFile_MMC_HW_SPI.c ****             /* Start the clock */
 195:Generated_Source\PSoC5/emFile_MMC_HW_SPI.c ****             emFile_Clock_1_Start();
  85              		.loc 1 195 0
  86 004e FFF7FEFF 		bl	emFile_Clock_1_Start
 196:Generated_Source\PSoC5/emFile_MMC_HW_SPI.c **** 
 197:Generated_Source\PSoC5/emFile_MMC_HW_SPI.c ****             /* Start SPI 0 */
 198:Generated_Source\PSoC5/emFile_MMC_HW_SPI.c ****             emFile_SPI0_Start();
  87              		.loc 1 198 0
ARM GAS  C:\Users\bk\AppData\Local\Temp\ccle169t.s 			page 6


  88 0052 FFF7FEFF 		bl	emFile_SPI0_Start
 199:Generated_Source\PSoC5/emFile_MMC_HW_SPI.c ****         }
 200:Generated_Source\PSoC5/emFile_MMC_HW_SPI.c ****         
 201:Generated_Source\PSoC5/emFile_MMC_HW_SPI.c ****         break;
  89              		.loc 1 201 0
  90 0056 01E0     		b	.L9
  91              	.L8:
 101:Generated_Source\PSoC5/emFile_MMC_HW_SPI.c **** 
  92              		.loc 1 101 0
  93 0058 00BF     		nop
  94 005a 00E0     		b	.L5
  95              	.L9:
  96              		.loc 1 201 0
  97 005c 00BF     		nop
  98              	.L5:
 202:Generated_Source\PSoC5/emFile_MMC_HW_SPI.c ****       }
 203:Generated_Source\PSoC5/emFile_MMC_HW_SPI.c **** }
  99              		.loc 1 203 0
 100 005e 00BF     		nop
 101 0060 0837     		adds	r7, r7, #8
 102              		.cfi_def_cfa_offset 8
 103 0062 BD46     		mov	sp, r7
 104              		.cfi_def_cfa_register 13
 105              		@ sp needed
 106 0064 80BD     		pop	{r7, pc}
 107              	.L11:
 108 0066 00BF     		.align	2
 109              	.L10:
 110 0068 00000000 		.word	emFile_isInited0
 111              		.cfi_endproc
 112              	.LFE63:
 113              		.size	emFile_Init, .-emFile_Init
 114              		.section	.text.emFile_ReadWriteSPI,"ax",%progbits
 115              		.align	2
 116              		.thumb
 117              		.thumb_func
 118              		.type	emFile_ReadWriteSPI, %function
 119              	emFile_ReadWriteSPI:
 120              	.LFB64:
 204:Generated_Source\PSoC5/emFile_MMC_HW_SPI.c **** 
 205:Generated_Source\PSoC5/emFile_MMC_HW_SPI.c **** 
 206:Generated_Source\PSoC5/emFile_MMC_HW_SPI.c **** /*******************************************************************************
 207:Generated_Source\PSoC5/emFile_MMC_HW_SPI.c **** * Function Name: emFile_ReadWriteSPI
 208:Generated_Source\PSoC5/emFile_MMC_HW_SPI.c **** ********************************************************************************
 209:Generated_Source\PSoC5/emFile_MMC_HW_SPI.c **** *
 210:Generated_Source\PSoC5/emFile_MMC_HW_SPI.c **** * Summary:
 211:Generated_Source\PSoC5/emFile_MMC_HW_SPI.c **** *  Reads and Writes data via SPI.
 212:Generated_Source\PSoC5/emFile_MMC_HW_SPI.c **** *
 213:Generated_Source\PSoC5/emFile_MMC_HW_SPI.c **** * Parameters:
 214:Generated_Source\PSoC5/emFile_MMC_HW_SPI.c **** *  Unit - Unit number;
 215:Generated_Source\PSoC5/emFile_MMC_HW_SPI.c **** *  Data - data to be written.
 216:Generated_Source\PSoC5/emFile_MMC_HW_SPI.c **** *
 217:Generated_Source\PSoC5/emFile_MMC_HW_SPI.c **** * Return:
 218:Generated_Source\PSoC5/emFile_MMC_HW_SPI.c **** *  Data received from SD card.
 219:Generated_Source\PSoC5/emFile_MMC_HW_SPI.c **** *
 220:Generated_Source\PSoC5/emFile_MMC_HW_SPI.c **** * Reentrant:
 221:Generated_Source\PSoC5/emFile_MMC_HW_SPI.c **** *  No
ARM GAS  C:\Users\bk\AppData\Local\Temp\ccle169t.s 			page 7


 222:Generated_Source\PSoC5/emFile_MMC_HW_SPI.c **** *
 223:Generated_Source\PSoC5/emFile_MMC_HW_SPI.c **** *******************************************************************************/
 224:Generated_Source\PSoC5/emFile_MMC_HW_SPI.c **** static U8 emFile_ReadWriteSPI(U8 Unit, U8 Data) CYREENTRANT
 225:Generated_Source\PSoC5/emFile_MMC_HW_SPI.c **** {
 121              		.loc 1 225 0
 122              		.cfi_startproc
 123              		@ args = 0, pretend = 0, frame = 16
 124              		@ frame_needed = 1, uses_anonymous_args = 0
 125 0000 80B5     		push	{r7, lr}
 126              		.cfi_def_cfa_offset 8
 127              		.cfi_offset 7, -8
 128              		.cfi_offset 14, -4
 129 0002 84B0     		sub	sp, sp, #16
 130              		.cfi_def_cfa_offset 24
 131 0004 00AF     		add	r7, sp, #0
 132              		.cfi_def_cfa_register 7
 133 0006 0346     		mov	r3, r0
 134 0008 0A46     		mov	r2, r1
 135 000a FB71     		strb	r3, [r7, #7]
 136 000c 1346     		mov	r3, r2
 137 000e BB71     		strb	r3, [r7, #6]
 226:Generated_Source\PSoC5/emFile_MMC_HW_SPI.c ****     U8 spiData;
 227:Generated_Source\PSoC5/emFile_MMC_HW_SPI.c **** 
 228:Generated_Source\PSoC5/emFile_MMC_HW_SPI.c ****     switch(Unit)
 138              		.loc 1 228 0
 139 0010 FB79     		ldrb	r3, [r7, #7]	@ zero_extendqisi2
 140 0012 002B     		cmp	r3, #0
 141 0014 11D1     		bne	.L19
 229:Generated_Source\PSoC5/emFile_MMC_HW_SPI.c ****     {
 230:Generated_Source\PSoC5/emFile_MMC_HW_SPI.c ****     case 0u:
 231:Generated_Source\PSoC5/emFile_MMC_HW_SPI.c **** 
 232:Generated_Source\PSoC5/emFile_MMC_HW_SPI.c ****         /* Send Data */
 233:Generated_Source\PSoC5/emFile_MMC_HW_SPI.c ****         emFile_SPI0_WriteTxData(Data);
 142              		.loc 1 233 0
 143 0016 BB79     		ldrb	r3, [r7, #6]	@ zero_extendqisi2
 144 0018 1846     		mov	r0, r3
 145 001a FFF7FEFF 		bl	emFile_SPI0_WriteTxData
 234:Generated_Source\PSoC5/emFile_MMC_HW_SPI.c **** 
 235:Generated_Source\PSoC5/emFile_MMC_HW_SPI.c ****         /* Wait until all bits are shifted */
 236:Generated_Source\PSoC5/emFile_MMC_HW_SPI.c ****         while (0u == (emFile_SPI0_STS_SPI_DONE & emFile_SPI0_ReadTxStatus()));
 146              		.loc 1 236 0
 147 001e 00BF     		nop
 148              	.L15:
 149              		.loc 1 236 0 is_stmt 0 discriminator 1
 150 0020 FFF7FEFF 		bl	emFile_SPI0_ReadTxStatus
 151 0024 0346     		mov	r3, r0
 152 0026 03F00103 		and	r3, r3, #1
 153 002a DBB2     		uxtb	r3, r3
 154 002c 002B     		cmp	r3, #0
 155 002e F7D0     		beq	.L15
 237:Generated_Source\PSoC5/emFile_MMC_HW_SPI.c **** 
 238:Generated_Source\PSoC5/emFile_MMC_HW_SPI.c ****         /* Read data */
 239:Generated_Source\PSoC5/emFile_MMC_HW_SPI.c ****         spiData = emFile_SPI0_ReadRxData();
 156              		.loc 1 239 0 is_stmt 1
 157 0030 FFF7FEFF 		bl	emFile_SPI0_ReadRxData
 158 0034 0346     		mov	r3, r0
 159 0036 FB73     		strb	r3, [r7, #15]
ARM GAS  C:\Users\bk\AppData\Local\Temp\ccle169t.s 			page 8


 240:Generated_Source\PSoC5/emFile_MMC_HW_SPI.c **** 
 241:Generated_Source\PSoC5/emFile_MMC_HW_SPI.c ****         break;
 160              		.loc 1 241 0
 161 0038 11E0     		b	.L16
 162              	.L19:
 242:Generated_Source\PSoC5/emFile_MMC_HW_SPI.c **** 
 243:Generated_Source\PSoC5/emFile_MMC_HW_SPI.c ****     #if (emFile_NUMBER_SD_CARDS >= 2u)
 244:Generated_Source\PSoC5/emFile_MMC_HW_SPI.c **** 
 245:Generated_Source\PSoC5/emFile_MMC_HW_SPI.c ****         case 1u:
 246:Generated_Source\PSoC5/emFile_MMC_HW_SPI.c **** 
 247:Generated_Source\PSoC5/emFile_MMC_HW_SPI.c ****             /* Send Data */
 248:Generated_Source\PSoC5/emFile_MMC_HW_SPI.c ****             emFile_SPI1_WriteTxData(Data);
 249:Generated_Source\PSoC5/emFile_MMC_HW_SPI.c **** 
 250:Generated_Source\PSoC5/emFile_MMC_HW_SPI.c ****             /* Wait until all bits are shifted */
 251:Generated_Source\PSoC5/emFile_MMC_HW_SPI.c ****             while (0u == (emFile_SPI1_STS_SPI_DONE & emFile_SPI1_ReadTxStatus()));
 252:Generated_Source\PSoC5/emFile_MMC_HW_SPI.c **** 
 253:Generated_Source\PSoC5/emFile_MMC_HW_SPI.c ****             /* Read data */
 254:Generated_Source\PSoC5/emFile_MMC_HW_SPI.c ****             spiData = emFile_SPI1_ReadRxData();
 255:Generated_Source\PSoC5/emFile_MMC_HW_SPI.c **** 
 256:Generated_Source\PSoC5/emFile_MMC_HW_SPI.c ****             break;
 257:Generated_Source\PSoC5/emFile_MMC_HW_SPI.c **** 
 258:Generated_Source\PSoC5/emFile_MMC_HW_SPI.c ****     #endif /* (emFile_NUMBER_SD_CARDS >= 2u) */
 259:Generated_Source\PSoC5/emFile_MMC_HW_SPI.c **** 
 260:Generated_Source\PSoC5/emFile_MMC_HW_SPI.c ****     #if (emFile_NUMBER_SD_CARDS >= 3u)
 261:Generated_Source\PSoC5/emFile_MMC_HW_SPI.c **** 
 262:Generated_Source\PSoC5/emFile_MMC_HW_SPI.c ****         case 2u:
 263:Generated_Source\PSoC5/emFile_MMC_HW_SPI.c **** 
 264:Generated_Source\PSoC5/emFile_MMC_HW_SPI.c ****             /* Send Data */
 265:Generated_Source\PSoC5/emFile_MMC_HW_SPI.c ****             emFile_SPI2_WriteTxData(Data);
 266:Generated_Source\PSoC5/emFile_MMC_HW_SPI.c **** 
 267:Generated_Source\PSoC5/emFile_MMC_HW_SPI.c ****             /* Wait until all bits are shifted */
 268:Generated_Source\PSoC5/emFile_MMC_HW_SPI.c ****             while (0u == (emFile_SPI2_STS_SPI_DONE & emFile_SPI2_ReadTxStatus()));
 269:Generated_Source\PSoC5/emFile_MMC_HW_SPI.c **** 
 270:Generated_Source\PSoC5/emFile_MMC_HW_SPI.c ****             /* Read data */
 271:Generated_Source\PSoC5/emFile_MMC_HW_SPI.c ****             spiData = emFile_SPI2_ReadRxData();
 272:Generated_Source\PSoC5/emFile_MMC_HW_SPI.c **** 
 273:Generated_Source\PSoC5/emFile_MMC_HW_SPI.c ****             break;
 274:Generated_Source\PSoC5/emFile_MMC_HW_SPI.c **** 
 275:Generated_Source\PSoC5/emFile_MMC_HW_SPI.c ****     #endif /* (emFile_NUMBER_SD_CARDS >= 2u) */
 276:Generated_Source\PSoC5/emFile_MMC_HW_SPI.c **** 
 277:Generated_Source\PSoC5/emFile_MMC_HW_SPI.c ****     #if (emFile_NUMBER_SD_CARDS >= 4u)
 278:Generated_Source\PSoC5/emFile_MMC_HW_SPI.c **** 
 279:Generated_Source\PSoC5/emFile_MMC_HW_SPI.c ****         case 3u:
 280:Generated_Source\PSoC5/emFile_MMC_HW_SPI.c **** 
 281:Generated_Source\PSoC5/emFile_MMC_HW_SPI.c ****             /* Send Data */
 282:Generated_Source\PSoC5/emFile_MMC_HW_SPI.c ****             emFile_SPI3_WriteTxData(Data);
 283:Generated_Source\PSoC5/emFile_MMC_HW_SPI.c **** 
 284:Generated_Source\PSoC5/emFile_MMC_HW_SPI.c ****             /* Wait until all bits are shifted */
 285:Generated_Source\PSoC5/emFile_MMC_HW_SPI.c ****             while (0u == (emFile_SPI3_STS_SPI_DONE & emFile_SPI3_ReadTxStatus()));
 286:Generated_Source\PSoC5/emFile_MMC_HW_SPI.c **** 
 287:Generated_Source\PSoC5/emFile_MMC_HW_SPI.c ****             /* Read data */
 288:Generated_Source\PSoC5/emFile_MMC_HW_SPI.c ****             spiData = emFile_SPI3_ReadRxData();
 289:Generated_Source\PSoC5/emFile_MMC_HW_SPI.c **** 
 290:Generated_Source\PSoC5/emFile_MMC_HW_SPI.c ****             break;
 291:Generated_Source\PSoC5/emFile_MMC_HW_SPI.c **** 
 292:Generated_Source\PSoC5/emFile_MMC_HW_SPI.c ****     #endif /* (emFile_NUMBER_SD_CARDS >= 4u) */
 293:Generated_Source\PSoC5/emFile_MMC_HW_SPI.c **** 
ARM GAS  C:\Users\bk\AppData\Local\Temp\ccle169t.s 			page 9


 294:Generated_Source\PSoC5/emFile_MMC_HW_SPI.c ****     default:
 295:Generated_Source\PSoC5/emFile_MMC_HW_SPI.c **** 
 296:Generated_Source\PSoC5/emFile_MMC_HW_SPI.c ****         /* Send Data */
 297:Generated_Source\PSoC5/emFile_MMC_HW_SPI.c ****         emFile_SPI0_WriteTxData(Data);
 163              		.loc 1 297 0
 164 003a BB79     		ldrb	r3, [r7, #6]	@ zero_extendqisi2
 165 003c 1846     		mov	r0, r3
 166 003e FFF7FEFF 		bl	emFile_SPI0_WriteTxData
 298:Generated_Source\PSoC5/emFile_MMC_HW_SPI.c **** 
 299:Generated_Source\PSoC5/emFile_MMC_HW_SPI.c ****         /* Wait until all bits are shifted */
 300:Generated_Source\PSoC5/emFile_MMC_HW_SPI.c ****         while (0u == (emFile_SPI0_STS_SPI_DONE & emFile_SPI0_ReadTxStatus()));
 167              		.loc 1 300 0
 168 0042 00BF     		nop
 169              	.L17:
 170              		.loc 1 300 0 is_stmt 0 discriminator 1
 171 0044 FFF7FEFF 		bl	emFile_SPI0_ReadTxStatus
 172 0048 0346     		mov	r3, r0
 173 004a 03F00103 		and	r3, r3, #1
 174 004e DBB2     		uxtb	r3, r3
 175 0050 002B     		cmp	r3, #0
 176 0052 F7D0     		beq	.L17
 301:Generated_Source\PSoC5/emFile_MMC_HW_SPI.c **** 
 302:Generated_Source\PSoC5/emFile_MMC_HW_SPI.c ****         /* Read data */
 303:Generated_Source\PSoC5/emFile_MMC_HW_SPI.c ****         spiData = emFile_SPI0_ReadRxData();
 177              		.loc 1 303 0 is_stmt 1
 178 0054 FFF7FEFF 		bl	emFile_SPI0_ReadRxData
 179 0058 0346     		mov	r3, r0
 180 005a FB73     		strb	r3, [r7, #15]
 304:Generated_Source\PSoC5/emFile_MMC_HW_SPI.c ****         
 305:Generated_Source\PSoC5/emFile_MMC_HW_SPI.c ****         break;
 181              		.loc 1 305 0
 182 005c 00BF     		nop
 183              	.L16:
 306:Generated_Source\PSoC5/emFile_MMC_HW_SPI.c ****     }
 307:Generated_Source\PSoC5/emFile_MMC_HW_SPI.c **** 
 308:Generated_Source\PSoC5/emFile_MMC_HW_SPI.c ****     return(spiData);
 184              		.loc 1 308 0
 185 005e FB7B     		ldrb	r3, [r7, #15]	@ zero_extendqisi2
 309:Generated_Source\PSoC5/emFile_MMC_HW_SPI.c **** }
 186              		.loc 1 309 0
 187 0060 1846     		mov	r0, r3
 188 0062 1037     		adds	r7, r7, #16
 189              		.cfi_def_cfa_offset 8
 190 0064 BD46     		mov	sp, r7
 191              		.cfi_def_cfa_register 13
 192              		@ sp needed
 193 0066 80BD     		pop	{r7, pc}
 194              		.cfi_endproc
 195              	.LFE64:
 196              		.size	emFile_ReadWriteSPI, .-emFile_ReadWriteSPI
 197              		.section	.text.FS_MMC_HW_X_EnableCS,"ax",%progbits
 198              		.align	2
 199              		.global	FS_MMC_HW_X_EnableCS
 200              		.thumb
 201              		.thumb_func
 202              		.type	FS_MMC_HW_X_EnableCS, %function
 203              	FS_MMC_HW_X_EnableCS:
ARM GAS  C:\Users\bk\AppData\Local\Temp\ccle169t.s 			page 10


 204              	.LFB65:
 310:Generated_Source\PSoC5/emFile_MMC_HW_SPI.c **** 
 311:Generated_Source\PSoC5/emFile_MMC_HW_SPI.c **** /*******************************************************************************
 312:Generated_Source\PSoC5/emFile_MMC_HW_SPI.c **** * Function Name: FS_MMC_HW_X_EnableCS
 313:Generated_Source\PSoC5/emFile_MMC_HW_SPI.c **** ********************************************************************************
 314:Generated_Source\PSoC5/emFile_MMC_HW_SPI.c **** *
 315:Generated_Source\PSoC5/emFile_MMC_HW_SPI.c **** * Summary:
 316:Generated_Source\PSoC5/emFile_MMC_HW_SPI.c **** *  FS low level function. Sets the card slot active using the
 317:Generated_Source\PSoC5/emFile_MMC_HW_SPI.c **** *  chip select (CS) line.
 318:Generated_Source\PSoC5/emFile_MMC_HW_SPI.c **** *
 319:Generated_Source\PSoC5/emFile_MMC_HW_SPI.c **** * Parameters:
 320:Generated_Source\PSoC5/emFile_MMC_HW_SPI.c **** *  Unit      - Device Index.
 321:Generated_Source\PSoC5/emFile_MMC_HW_SPI.c **** *
 322:Generated_Source\PSoC5/emFile_MMC_HW_SPI.c **** * Return:
 323:Generated_Source\PSoC5/emFile_MMC_HW_SPI.c **** *  None
 324:Generated_Source\PSoC5/emFile_MMC_HW_SPI.c **** *
 325:Generated_Source\PSoC5/emFile_MMC_HW_SPI.c **** * Reentrant:
 326:Generated_Source\PSoC5/emFile_MMC_HW_SPI.c **** *  No
 327:Generated_Source\PSoC5/emFile_MMC_HW_SPI.c **** *
 328:Generated_Source\PSoC5/emFile_MMC_HW_SPI.c **** *******************************************************************************/
 329:Generated_Source\PSoC5/emFile_MMC_HW_SPI.c **** void FS_MMC_HW_X_EnableCS(U8 Unit)
 330:Generated_Source\PSoC5/emFile_MMC_HW_SPI.c **** {
 205              		.loc 1 330 0
 206              		.cfi_startproc
 207              		@ args = 0, pretend = 0, frame = 8
 208              		@ frame_needed = 1, uses_anonymous_args = 0
 209 0000 80B5     		push	{r7, lr}
 210              		.cfi_def_cfa_offset 8
 211              		.cfi_offset 7, -8
 212              		.cfi_offset 14, -4
 213 0002 82B0     		sub	sp, sp, #8
 214              		.cfi_def_cfa_offset 16
 215 0004 00AF     		add	r7, sp, #0
 216              		.cfi_def_cfa_register 7
 217 0006 0346     		mov	r3, r0
 218 0008 FB71     		strb	r3, [r7, #7]
 331:Generated_Source\PSoC5/emFile_MMC_HW_SPI.c ****     switch(Unit)
 219              		.loc 1 331 0
 220 000a FB79     		ldrb	r3, [r7, #7]	@ zero_extendqisi2
 221 000c 002B     		cmp	r3, #0
 222 000e 03D1     		bne	.L24
 332:Generated_Source\PSoC5/emFile_MMC_HW_SPI.c ****     {
 333:Generated_Source\PSoC5/emFile_MMC_HW_SPI.c ****         case 0u:
 334:Generated_Source\PSoC5/emFile_MMC_HW_SPI.c **** 
 335:Generated_Source\PSoC5/emFile_MMC_HW_SPI.c ****             /* Set CS to 0 */
 336:Generated_Source\PSoC5/emFile_MMC_HW_SPI.c ****             emFile_SPI0_CS_Write(0u);
 223              		.loc 1 336 0
 224 0010 0020     		movs	r0, #0
 225 0012 FFF7FEFF 		bl	emFile_SPI0_CS_Write
 337:Generated_Source\PSoC5/emFile_MMC_HW_SPI.c **** 
 338:Generated_Source\PSoC5/emFile_MMC_HW_SPI.c ****             break;
 226              		.loc 1 338 0
 227 0016 03E0     		b	.L23
 228              	.L24:
 339:Generated_Source\PSoC5/emFile_MMC_HW_SPI.c **** 
 340:Generated_Source\PSoC5/emFile_MMC_HW_SPI.c ****         #if (emFile_NUMBER_SD_CARDS >= 2u)
 341:Generated_Source\PSoC5/emFile_MMC_HW_SPI.c **** 
ARM GAS  C:\Users\bk\AppData\Local\Temp\ccle169t.s 			page 11


 342:Generated_Source\PSoC5/emFile_MMC_HW_SPI.c ****             case 1u:
 343:Generated_Source\PSoC5/emFile_MMC_HW_SPI.c **** 
 344:Generated_Source\PSoC5/emFile_MMC_HW_SPI.c ****                 /* Set CS to 0 */
 345:Generated_Source\PSoC5/emFile_MMC_HW_SPI.c ****                 emFile_SPI1_CS_Write(0u);
 346:Generated_Source\PSoC5/emFile_MMC_HW_SPI.c **** 
 347:Generated_Source\PSoC5/emFile_MMC_HW_SPI.c ****                 break;
 348:Generated_Source\PSoC5/emFile_MMC_HW_SPI.c **** 
 349:Generated_Source\PSoC5/emFile_MMC_HW_SPI.c ****         #endif /* (emFile_NUMBER_SD_CARDS >= 2u) */
 350:Generated_Source\PSoC5/emFile_MMC_HW_SPI.c **** 
 351:Generated_Source\PSoC5/emFile_MMC_HW_SPI.c ****         #if (emFile_NUMBER_SD_CARDS >= 3u)
 352:Generated_Source\PSoC5/emFile_MMC_HW_SPI.c **** 
 353:Generated_Source\PSoC5/emFile_MMC_HW_SPI.c ****             case 2u:
 354:Generated_Source\PSoC5/emFile_MMC_HW_SPI.c **** 
 355:Generated_Source\PSoC5/emFile_MMC_HW_SPI.c ****                 /* Set CS to 0 */
 356:Generated_Source\PSoC5/emFile_MMC_HW_SPI.c ****                 emFile_SPI2_CS_Write(0u);
 357:Generated_Source\PSoC5/emFile_MMC_HW_SPI.c **** 
 358:Generated_Source\PSoC5/emFile_MMC_HW_SPI.c ****                 break;
 359:Generated_Source\PSoC5/emFile_MMC_HW_SPI.c **** 
 360:Generated_Source\PSoC5/emFile_MMC_HW_SPI.c ****         #endif /* (emFile_NUMBER_SD_CARDS >= 3u) */
 361:Generated_Source\PSoC5/emFile_MMC_HW_SPI.c **** 
 362:Generated_Source\PSoC5/emFile_MMC_HW_SPI.c ****         #if (emFile_NUMBER_SD_CARDS == 4u)
 363:Generated_Source\PSoC5/emFile_MMC_HW_SPI.c **** 
 364:Generated_Source\PSoC5/emFile_MMC_HW_SPI.c ****             case 3u:
 365:Generated_Source\PSoC5/emFile_MMC_HW_SPI.c **** 
 366:Generated_Source\PSoC5/emFile_MMC_HW_SPI.c ****                 /* Set CS to 0 */
 367:Generated_Source\PSoC5/emFile_MMC_HW_SPI.c ****                 emFile_SPI3_CS_Write(0u);
 368:Generated_Source\PSoC5/emFile_MMC_HW_SPI.c **** 
 369:Generated_Source\PSoC5/emFile_MMC_HW_SPI.c ****                 break;
 370:Generated_Source\PSoC5/emFile_MMC_HW_SPI.c **** 
 371:Generated_Source\PSoC5/emFile_MMC_HW_SPI.c ****         #endif /* (emFile_NUMBER_SD_CARDS == 4u) */
 372:Generated_Source\PSoC5/emFile_MMC_HW_SPI.c **** 
 373:Generated_Source\PSoC5/emFile_MMC_HW_SPI.c ****         default:
 374:Generated_Source\PSoC5/emFile_MMC_HW_SPI.c **** 
 375:Generated_Source\PSoC5/emFile_MMC_HW_SPI.c ****             emFile_SPI0_CS_Write(0u);
 229              		.loc 1 375 0
 230 0018 0020     		movs	r0, #0
 231 001a FFF7FEFF 		bl	emFile_SPI0_CS_Write
 376:Generated_Source\PSoC5/emFile_MMC_HW_SPI.c **** 
 377:Generated_Source\PSoC5/emFile_MMC_HW_SPI.c ****             break;
 232              		.loc 1 377 0
 233 001e 00BF     		nop
 234              	.L23:
 378:Generated_Source\PSoC5/emFile_MMC_HW_SPI.c ****     }
 379:Generated_Source\PSoC5/emFile_MMC_HW_SPI.c **** }
 235              		.loc 1 379 0
 236 0020 00BF     		nop
 237 0022 0837     		adds	r7, r7, #8
 238              		.cfi_def_cfa_offset 8
 239 0024 BD46     		mov	sp, r7
 240              		.cfi_def_cfa_register 13
 241              		@ sp needed
 242 0026 80BD     		pop	{r7, pc}
 243              		.cfi_endproc
 244              	.LFE65:
 245              		.size	FS_MMC_HW_X_EnableCS, .-FS_MMC_HW_X_EnableCS
 246              		.section	.text.FS_MMC_HW_X_DisableCS,"ax",%progbits
 247              		.align	2
ARM GAS  C:\Users\bk\AppData\Local\Temp\ccle169t.s 			page 12


 248              		.global	FS_MMC_HW_X_DisableCS
 249              		.thumb
 250              		.thumb_func
 251              		.type	FS_MMC_HW_X_DisableCS, %function
 252              	FS_MMC_HW_X_DisableCS:
 253              	.LFB66:
 380:Generated_Source\PSoC5/emFile_MMC_HW_SPI.c **** 
 381:Generated_Source\PSoC5/emFile_MMC_HW_SPI.c **** 
 382:Generated_Source\PSoC5/emFile_MMC_HW_SPI.c **** /*******************************************************************************
 383:Generated_Source\PSoC5/emFile_MMC_HW_SPI.c **** * Function Name: FS_MMC_HW_X_DisableCS
 384:Generated_Source\PSoC5/emFile_MMC_HW_SPI.c **** ********************************************************************************
 385:Generated_Source\PSoC5/emFile_MMC_HW_SPI.c **** *
 386:Generated_Source\PSoC5/emFile_MMC_HW_SPI.c **** * Summary:
 387:Generated_Source\PSoC5/emFile_MMC_HW_SPI.c **** *  FS low level function. Clears the card slot inactive using the
 388:Generated_Source\PSoC5/emFile_MMC_HW_SPI.c **** *  chip select (CS) line.
 389:Generated_Source\PSoC5/emFile_MMC_HW_SPI.c **** *
 390:Generated_Source\PSoC5/emFile_MMC_HW_SPI.c **** * Parameters:
 391:Generated_Source\PSoC5/emFile_MMC_HW_SPI.c **** *  Unit      - Device Index.
 392:Generated_Source\PSoC5/emFile_MMC_HW_SPI.c **** *
 393:Generated_Source\PSoC5/emFile_MMC_HW_SPI.c **** * Return:
 394:Generated_Source\PSoC5/emFile_MMC_HW_SPI.c **** *  None
 395:Generated_Source\PSoC5/emFile_MMC_HW_SPI.c **** *
 396:Generated_Source\PSoC5/emFile_MMC_HW_SPI.c **** * Reentrant:
 397:Generated_Source\PSoC5/emFile_MMC_HW_SPI.c **** *  No
 398:Generated_Source\PSoC5/emFile_MMC_HW_SPI.c **** *
 399:Generated_Source\PSoC5/emFile_MMC_HW_SPI.c **** *******************************************************************************/
 400:Generated_Source\PSoC5/emFile_MMC_HW_SPI.c **** void FS_MMC_HW_X_DisableCS(U8 Unit)
 401:Generated_Source\PSoC5/emFile_MMC_HW_SPI.c **** {
 254              		.loc 1 401 0
 255              		.cfi_startproc
 256              		@ args = 0, pretend = 0, frame = 8
 257              		@ frame_needed = 1, uses_anonymous_args = 0
 258 0000 80B5     		push	{r7, lr}
 259              		.cfi_def_cfa_offset 8
 260              		.cfi_offset 7, -8
 261              		.cfi_offset 14, -4
 262 0002 82B0     		sub	sp, sp, #8
 263              		.cfi_def_cfa_offset 16
 264 0004 00AF     		add	r7, sp, #0
 265              		.cfi_def_cfa_register 7
 266 0006 0346     		mov	r3, r0
 267 0008 FB71     		strb	r3, [r7, #7]
 402:Generated_Source\PSoC5/emFile_MMC_HW_SPI.c ****     switch(Unit)
 268              		.loc 1 402 0
 269 000a FB79     		ldrb	r3, [r7, #7]	@ zero_extendqisi2
 270 000c 002B     		cmp	r3, #0
 271 000e 03D1     		bne	.L29
 403:Generated_Source\PSoC5/emFile_MMC_HW_SPI.c ****     {
 404:Generated_Source\PSoC5/emFile_MMC_HW_SPI.c ****     case 0u:
 405:Generated_Source\PSoC5/emFile_MMC_HW_SPI.c **** 
 406:Generated_Source\PSoC5/emFile_MMC_HW_SPI.c ****         emFile_SPI0_CS_Write(1u);
 272              		.loc 1 406 0
 273 0010 0120     		movs	r0, #1
 274 0012 FFF7FEFF 		bl	emFile_SPI0_CS_Write
 407:Generated_Source\PSoC5/emFile_MMC_HW_SPI.c **** 
 408:Generated_Source\PSoC5/emFile_MMC_HW_SPI.c ****         break;
 275              		.loc 1 408 0
ARM GAS  C:\Users\bk\AppData\Local\Temp\ccle169t.s 			page 13


 276 0016 03E0     		b	.L28
 277              	.L29:
 409:Generated_Source\PSoC5/emFile_MMC_HW_SPI.c **** 
 410:Generated_Source\PSoC5/emFile_MMC_HW_SPI.c ****     #if (emFile_NUMBER_SD_CARDS >= 2u)
 411:Generated_Source\PSoC5/emFile_MMC_HW_SPI.c **** 
 412:Generated_Source\PSoC5/emFile_MMC_HW_SPI.c ****         case 1u:
 413:Generated_Source\PSoC5/emFile_MMC_HW_SPI.c **** 
 414:Generated_Source\PSoC5/emFile_MMC_HW_SPI.c ****             emFile_SPI1_CS_Write(1u);
 415:Generated_Source\PSoC5/emFile_MMC_HW_SPI.c **** 
 416:Generated_Source\PSoC5/emFile_MMC_HW_SPI.c ****             break;
 417:Generated_Source\PSoC5/emFile_MMC_HW_SPI.c **** 
 418:Generated_Source\PSoC5/emFile_MMC_HW_SPI.c ****     #endif /* (emFile_NUMBER_SD_CARDS >= 2u) */
 419:Generated_Source\PSoC5/emFile_MMC_HW_SPI.c **** 
 420:Generated_Source\PSoC5/emFile_MMC_HW_SPI.c ****     #if (emFile_NUMBER_SD_CARDS >= 3u)
 421:Generated_Source\PSoC5/emFile_MMC_HW_SPI.c **** 
 422:Generated_Source\PSoC5/emFile_MMC_HW_SPI.c ****         case 2u:
 423:Generated_Source\PSoC5/emFile_MMC_HW_SPI.c **** 
 424:Generated_Source\PSoC5/emFile_MMC_HW_SPI.c ****             emFile_SPI2_CS_Write(1u);
 425:Generated_Source\PSoC5/emFile_MMC_HW_SPI.c **** 
 426:Generated_Source\PSoC5/emFile_MMC_HW_SPI.c ****             break;
 427:Generated_Source\PSoC5/emFile_MMC_HW_SPI.c **** 
 428:Generated_Source\PSoC5/emFile_MMC_HW_SPI.c ****     #endif /* (emFile_NUMBER_SD_CARDS >= 3u) */
 429:Generated_Source\PSoC5/emFile_MMC_HW_SPI.c **** 
 430:Generated_Source\PSoC5/emFile_MMC_HW_SPI.c ****     #if (emFile_NUMBER_SD_CARDS == 4u)
 431:Generated_Source\PSoC5/emFile_MMC_HW_SPI.c **** 
 432:Generated_Source\PSoC5/emFile_MMC_HW_SPI.c ****         case 3u:
 433:Generated_Source\PSoC5/emFile_MMC_HW_SPI.c **** 
 434:Generated_Source\PSoC5/emFile_MMC_HW_SPI.c ****             emFile_SPI3_CS_Write(1u);
 435:Generated_Source\PSoC5/emFile_MMC_HW_SPI.c **** 
 436:Generated_Source\PSoC5/emFile_MMC_HW_SPI.c ****             break;
 437:Generated_Source\PSoC5/emFile_MMC_HW_SPI.c **** 
 438:Generated_Source\PSoC5/emFile_MMC_HW_SPI.c ****     #endif /* (emFile_NUMBER_SD_CARDS == 4u) */
 439:Generated_Source\PSoC5/emFile_MMC_HW_SPI.c **** 
 440:Generated_Source\PSoC5/emFile_MMC_HW_SPI.c ****     default:
 441:Generated_Source\PSoC5/emFile_MMC_HW_SPI.c **** 
 442:Generated_Source\PSoC5/emFile_MMC_HW_SPI.c ****         emFile_SPI0_CS_Write(1u);
 278              		.loc 1 442 0
 279 0018 0120     		movs	r0, #1
 280 001a FFF7FEFF 		bl	emFile_SPI0_CS_Write
 443:Generated_Source\PSoC5/emFile_MMC_HW_SPI.c ****         
 444:Generated_Source\PSoC5/emFile_MMC_HW_SPI.c ****         break;
 281              		.loc 1 444 0
 282 001e 00BF     		nop
 283              	.L28:
 445:Generated_Source\PSoC5/emFile_MMC_HW_SPI.c ****     }
 446:Generated_Source\PSoC5/emFile_MMC_HW_SPI.c **** }
 284              		.loc 1 446 0
 285 0020 00BF     		nop
 286 0022 0837     		adds	r7, r7, #8
 287              		.cfi_def_cfa_offset 8
 288 0024 BD46     		mov	sp, r7
 289              		.cfi_def_cfa_register 13
 290              		@ sp needed
 291 0026 80BD     		pop	{r7, pc}
 292              		.cfi_endproc
 293              	.LFE66:
 294              		.size	FS_MMC_HW_X_DisableCS, .-FS_MMC_HW_X_DisableCS
ARM GAS  C:\Users\bk\AppData\Local\Temp\ccle169t.s 			page 14


 295              		.section	.text.FS_MMC_HW_X_IsWriteProtected,"ax",%progbits
 296              		.align	2
 297              		.global	FS_MMC_HW_X_IsWriteProtected
 298              		.thumb
 299              		.thumb_func
 300              		.type	FS_MMC_HW_X_IsWriteProtected, %function
 301              	FS_MMC_HW_X_IsWriteProtected:
 302              	.LFB67:
 447:Generated_Source\PSoC5/emFile_MMC_HW_SPI.c **** 
 448:Generated_Source\PSoC5/emFile_MMC_HW_SPI.c **** 
 449:Generated_Source\PSoC5/emFile_MMC_HW_SPI.c **** /*******************************************************************************
 450:Generated_Source\PSoC5/emFile_MMC_HW_SPI.c **** * Function Name: FS_MMC_HW_X_IsWriteProtected
 451:Generated_Source\PSoC5/emFile_MMC_HW_SPI.c **** ********************************************************************************
 452:Generated_Source\PSoC5/emFile_MMC_HW_SPI.c **** *
 453:Generated_Source\PSoC5/emFile_MMC_HW_SPI.c **** * Summary:
 454:Generated_Source\PSoC5/emFile_MMC_HW_SPI.c **** *  FS low level function. Returns the state of the physical write
 455:Generated_Source\PSoC5/emFile_MMC_HW_SPI.c **** *  protection of the SD cards.
 456:Generated_Source\PSoC5/emFile_MMC_HW_SPI.c **** *
 457:Generated_Source\PSoC5/emFile_MMC_HW_SPI.c **** * Parameters:
 458:Generated_Source\PSoC5/emFile_MMC_HW_SPI.c **** *  Unit      - Device Index.
 459:Generated_Source\PSoC5/emFile_MMC_HW_SPI.c **** *
 460:Generated_Source\PSoC5/emFile_MMC_HW_SPI.c **** * Return:
 461:Generated_Source\PSoC5/emFile_MMC_HW_SPI.c **** *    1       - the card is write protected;
 462:Generated_Source\PSoC5/emFile_MMC_HW_SPI.c **** *    0       - the card is not write protected.
 463:Generated_Source\PSoC5/emFile_MMC_HW_SPI.c **** *
 464:Generated_Source\PSoC5/emFile_MMC_HW_SPI.c **** * Reentrant:
 465:Generated_Source\PSoC5/emFile_MMC_HW_SPI.c **** *  No
 466:Generated_Source\PSoC5/emFile_MMC_HW_SPI.c **** *
 467:Generated_Source\PSoC5/emFile_MMC_HW_SPI.c **** *******************************************************************************/
 468:Generated_Source\PSoC5/emFile_MMC_HW_SPI.c **** int FS_MMC_HW_X_IsWriteProtected(U8 Unit)
 469:Generated_Source\PSoC5/emFile_MMC_HW_SPI.c **** {
 303              		.loc 1 469 0
 304              		.cfi_startproc
 305              		@ args = 0, pretend = 0, frame = 16
 306              		@ frame_needed = 1, uses_anonymous_args = 0
 307              		@ link register save eliminated.
 308 0000 80B4     		push	{r7}
 309              		.cfi_def_cfa_offset 4
 310              		.cfi_offset 7, -4
 311 0002 85B0     		sub	sp, sp, #20
 312              		.cfi_def_cfa_offset 24
 313 0004 00AF     		add	r7, sp, #0
 314              		.cfi_def_cfa_register 7
 315 0006 0346     		mov	r3, r0
 316 0008 FB71     		strb	r3, [r7, #7]
 470:Generated_Source\PSoC5/emFile_MMC_HW_SPI.c ****    int wpState;
 471:Generated_Source\PSoC5/emFile_MMC_HW_SPI.c **** 
 472:Generated_Source\PSoC5/emFile_MMC_HW_SPI.c ****     switch(Unit)
 317              		.loc 1 472 0
 318 000a FB79     		ldrb	r3, [r7, #7]	@ zero_extendqisi2
 319 000c 002B     		cmp	r3, #0
 320 000e 02D1     		bne	.L35
 473:Generated_Source\PSoC5/emFile_MMC_HW_SPI.c ****     {
 474:Generated_Source\PSoC5/emFile_MMC_HW_SPI.c ****     case 0u:
 475:Generated_Source\PSoC5/emFile_MMC_HW_SPI.c **** 
 476:Generated_Source\PSoC5/emFile_MMC_HW_SPI.c ****         #if (emFile_WP0_EN)
 477:Generated_Source\PSoC5/emFile_MMC_HW_SPI.c **** 
ARM GAS  C:\Users\bk\AppData\Local\Temp\ccle169t.s 			page 15


 478:Generated_Source\PSoC5/emFile_MMC_HW_SPI.c ****             /* Based on physical switch state */
 479:Generated_Source\PSoC5/emFile_MMC_HW_SPI.c ****               wpState = (int)emFile_SPI0_WP_Read();
 480:Generated_Source\PSoC5/emFile_MMC_HW_SPI.c **** 
 481:Generated_Source\PSoC5/emFile_MMC_HW_SPI.c ****         #else
 482:Generated_Source\PSoC5/emFile_MMC_HW_SPI.c **** 
 483:Generated_Source\PSoC5/emFile_MMC_HW_SPI.c ****             wpState = 0;
 321              		.loc 1 483 0
 322 0010 0023     		movs	r3, #0
 323 0012 FB60     		str	r3, [r7, #12]
 484:Generated_Source\PSoC5/emFile_MMC_HW_SPI.c **** 
 485:Generated_Source\PSoC5/emFile_MMC_HW_SPI.c ****         #endif /* (emFile_WP0_EN) */
 486:Generated_Source\PSoC5/emFile_MMC_HW_SPI.c **** 
 487:Generated_Source\PSoC5/emFile_MMC_HW_SPI.c ****         break;
 324              		.loc 1 487 0
 325 0014 02E0     		b	.L33
 326              	.L35:
 488:Generated_Source\PSoC5/emFile_MMC_HW_SPI.c **** 
 489:Generated_Source\PSoC5/emFile_MMC_HW_SPI.c ****     #if (emFile_NUMBER_SD_CARDS >= 2u)
 490:Generated_Source\PSoC5/emFile_MMC_HW_SPI.c **** 
 491:Generated_Source\PSoC5/emFile_MMC_HW_SPI.c ****         case 1u:
 492:Generated_Source\PSoC5/emFile_MMC_HW_SPI.c **** 
 493:Generated_Source\PSoC5/emFile_MMC_HW_SPI.c ****             #if (emFile_WP1_EN)
 494:Generated_Source\PSoC5/emFile_MMC_HW_SPI.c **** 
 495:Generated_Source\PSoC5/emFile_MMC_HW_SPI.c ****                    /* Based on physical switch state */
 496:Generated_Source\PSoC5/emFile_MMC_HW_SPI.c ****                 wpState = (int)emFile_SPI1_WP_Read();
 497:Generated_Source\PSoC5/emFile_MMC_HW_SPI.c **** 
 498:Generated_Source\PSoC5/emFile_MMC_HW_SPI.c ****             #else
 499:Generated_Source\PSoC5/emFile_MMC_HW_SPI.c **** 
 500:Generated_Source\PSoC5/emFile_MMC_HW_SPI.c ****                 wpState = 0;
 501:Generated_Source\PSoC5/emFile_MMC_HW_SPI.c **** 
 502:Generated_Source\PSoC5/emFile_MMC_HW_SPI.c ****             #endif /* (emFile_WP1_EN) */
 503:Generated_Source\PSoC5/emFile_MMC_HW_SPI.c **** 
 504:Generated_Source\PSoC5/emFile_MMC_HW_SPI.c ****             break;
 505:Generated_Source\PSoC5/emFile_MMC_HW_SPI.c **** 
 506:Generated_Source\PSoC5/emFile_MMC_HW_SPI.c ****     #endif /* (emFile_NUMBER_SD_CARDS >= 2u) */
 507:Generated_Source\PSoC5/emFile_MMC_HW_SPI.c **** 
 508:Generated_Source\PSoC5/emFile_MMC_HW_SPI.c ****     #if (emFile_NUMBER_SD_CARDS >= 3u)
 509:Generated_Source\PSoC5/emFile_MMC_HW_SPI.c **** 
 510:Generated_Source\PSoC5/emFile_MMC_HW_SPI.c ****         case 2u:
 511:Generated_Source\PSoC5/emFile_MMC_HW_SPI.c **** 
 512:Generated_Source\PSoC5/emFile_MMC_HW_SPI.c ****             #if (emFile_WP2_EN)
 513:Generated_Source\PSoC5/emFile_MMC_HW_SPI.c **** 
 514:Generated_Source\PSoC5/emFile_MMC_HW_SPI.c ****                   /* Based on physical switch state */
 515:Generated_Source\PSoC5/emFile_MMC_HW_SPI.c ****                 wpState = (int)emFile_SPI2_WP_Read();
 516:Generated_Source\PSoC5/emFile_MMC_HW_SPI.c **** 
 517:Generated_Source\PSoC5/emFile_MMC_HW_SPI.c ****             #else
 518:Generated_Source\PSoC5/emFile_MMC_HW_SPI.c **** 
 519:Generated_Source\PSoC5/emFile_MMC_HW_SPI.c ****                 wpState = 0;
 520:Generated_Source\PSoC5/emFile_MMC_HW_SPI.c **** 
 521:Generated_Source\PSoC5/emFile_MMC_HW_SPI.c ****             #endif /* (emFile_WP2_EN) */
 522:Generated_Source\PSoC5/emFile_MMC_HW_SPI.c **** 
 523:Generated_Source\PSoC5/emFile_MMC_HW_SPI.c ****             break;
 524:Generated_Source\PSoC5/emFile_MMC_HW_SPI.c **** 
 525:Generated_Source\PSoC5/emFile_MMC_HW_SPI.c ****     #endif /* (emFile_NUMBER_SD_CARDS >= 3u) */
 526:Generated_Source\PSoC5/emFile_MMC_HW_SPI.c **** 
 527:Generated_Source\PSoC5/emFile_MMC_HW_SPI.c ****     #if (emFile_NUMBER_SD_CARDS == 4u)
 528:Generated_Source\PSoC5/emFile_MMC_HW_SPI.c **** 
ARM GAS  C:\Users\bk\AppData\Local\Temp\ccle169t.s 			page 16


 529:Generated_Source\PSoC5/emFile_MMC_HW_SPI.c ****         case 3u:
 530:Generated_Source\PSoC5/emFile_MMC_HW_SPI.c **** 
 531:Generated_Source\PSoC5/emFile_MMC_HW_SPI.c ****             #if (emFile_WP3_EN)
 532:Generated_Source\PSoC5/emFile_MMC_HW_SPI.c **** 
 533:Generated_Source\PSoC5/emFile_MMC_HW_SPI.c ****                 /* Based on physical switch state */
 534:Generated_Source\PSoC5/emFile_MMC_HW_SPI.c ****                 wpState = (int)emFile_SPI3_WP_Read();
 535:Generated_Source\PSoC5/emFile_MMC_HW_SPI.c **** 
 536:Generated_Source\PSoC5/emFile_MMC_HW_SPI.c ****             #else
 537:Generated_Source\PSoC5/emFile_MMC_HW_SPI.c **** 
 538:Generated_Source\PSoC5/emFile_MMC_HW_SPI.c ****                 wpState = 0;
 539:Generated_Source\PSoC5/emFile_MMC_HW_SPI.c **** 
 540:Generated_Source\PSoC5/emFile_MMC_HW_SPI.c ****             #endif /* (emFile_WP3_EN) */
 541:Generated_Source\PSoC5/emFile_MMC_HW_SPI.c **** 
 542:Generated_Source\PSoC5/emFile_MMC_HW_SPI.c ****             break;
 543:Generated_Source\PSoC5/emFile_MMC_HW_SPI.c **** 
 544:Generated_Source\PSoC5/emFile_MMC_HW_SPI.c ****     #endif /* (emFile_NUMBER_SD_CARDS == 4u) */
 545:Generated_Source\PSoC5/emFile_MMC_HW_SPI.c **** 
 546:Generated_Source\PSoC5/emFile_MMC_HW_SPI.c ****     default:
 547:Generated_Source\PSoC5/emFile_MMC_HW_SPI.c **** 
 548:Generated_Source\PSoC5/emFile_MMC_HW_SPI.c ****         #if (emFile_WP0_EN)
 549:Generated_Source\PSoC5/emFile_MMC_HW_SPI.c **** 
 550:Generated_Source\PSoC5/emFile_MMC_HW_SPI.c ****               /* Based on physical switch state */
 551:Generated_Source\PSoC5/emFile_MMC_HW_SPI.c ****             wpState = (int)emFile_SPI0_WP_Read();
 552:Generated_Source\PSoC5/emFile_MMC_HW_SPI.c **** 
 553:Generated_Source\PSoC5/emFile_MMC_HW_SPI.c ****         #else
 554:Generated_Source\PSoC5/emFile_MMC_HW_SPI.c **** 
 555:Generated_Source\PSoC5/emFile_MMC_HW_SPI.c ****             wpState = 0;
 327              		.loc 1 555 0
 328 0016 0023     		movs	r3, #0
 329 0018 FB60     		str	r3, [r7, #12]
 556:Generated_Source\PSoC5/emFile_MMC_HW_SPI.c **** 
 557:Generated_Source\PSoC5/emFile_MMC_HW_SPI.c ****         #endif /* (emFile_WP0_EN) */
 558:Generated_Source\PSoC5/emFile_MMC_HW_SPI.c ****         
 559:Generated_Source\PSoC5/emFile_MMC_HW_SPI.c ****         break;
 330              		.loc 1 559 0
 331 001a 00BF     		nop
 332              	.L33:
 560:Generated_Source\PSoC5/emFile_MMC_HW_SPI.c ****     }
 561:Generated_Source\PSoC5/emFile_MMC_HW_SPI.c **** 
 562:Generated_Source\PSoC5/emFile_MMC_HW_SPI.c ****     return(wpState);
 333              		.loc 1 562 0
 334 001c FB68     		ldr	r3, [r7, #12]
 563:Generated_Source\PSoC5/emFile_MMC_HW_SPI.c **** }
 335              		.loc 1 563 0
 336 001e 1846     		mov	r0, r3
 337 0020 1437     		adds	r7, r7, #20
 338              		.cfi_def_cfa_offset 4
 339 0022 BD46     		mov	sp, r7
 340              		.cfi_def_cfa_register 13
 341              		@ sp needed
 342 0024 80BC     		pop	{r7}
 343              		.cfi_restore 7
 344              		.cfi_def_cfa_offset 0
 345 0026 7047     		bx	lr
 346              		.cfi_endproc
 347              	.LFE67:
 348              		.size	FS_MMC_HW_X_IsWriteProtected, .-FS_MMC_HW_X_IsWriteProtected
ARM GAS  C:\Users\bk\AppData\Local\Temp\ccle169t.s 			page 17


 349              		.section	.text.FS_MMC_HW_X_SetMaxSpeed,"ax",%progbits
 350              		.align	2
 351              		.global	FS_MMC_HW_X_SetMaxSpeed
 352              		.thumb
 353              		.thumb_func
 354              		.type	FS_MMC_HW_X_SetMaxSpeed, %function
 355              	FS_MMC_HW_X_SetMaxSpeed:
 356              	.LFB68:
 564:Generated_Source\PSoC5/emFile_MMC_HW_SPI.c **** 
 565:Generated_Source\PSoC5/emFile_MMC_HW_SPI.c **** 
 566:Generated_Source\PSoC5/emFile_MMC_HW_SPI.c **** /*******************************************************************************
 567:Generated_Source\PSoC5/emFile_MMC_HW_SPI.c **** * Function Name: FS_MMC_HW_X_SetMaxSpeed
 568:Generated_Source\PSoC5/emFile_MMC_HW_SPI.c **** ********************************************************************************
 569:Generated_Source\PSoC5/emFile_MMC_HW_SPI.c **** *
 570:Generated_Source\PSoC5/emFile_MMC_HW_SPI.c **** * Summary:
 571:Generated_Source\PSoC5/emFile_MMC_HW_SPI.c **** *  FS low level function. Sets the SPI interface to a maximum frequency.
 572:Generated_Source\PSoC5/emFile_MMC_HW_SPI.c **** *  Make sure that you set the frequency lower or equal but never higher
 573:Generated_Source\PSoC5/emFile_MMC_HW_SPI.c **** *  than the given value. Recommended startup frequency is 100kHz - 400kHz.
 574:Generated_Source\PSoC5/emFile_MMC_HW_SPI.c **** *
 575:Generated_Source\PSoC5/emFile_MMC_HW_SPI.c **** * Parameters:
 576:Generated_Source\PSoC5/emFile_MMC_HW_SPI.c **** *  Unit             - Device Index;
 577:Generated_Source\PSoC5/emFile_MMC_HW_SPI.c **** *  MaxFreq          - SPI clock frequency in kHz.
 578:Generated_Source\PSoC5/emFile_MMC_HW_SPI.c **** *
 579:Generated_Source\PSoC5/emFile_MMC_HW_SPI.c **** * Return:
 580:Generated_Source\PSoC5/emFile_MMC_HW_SPI.c **** *  max. frequency   - the maximum frequency set in kHz;
 581:Generated_Source\PSoC5/emFile_MMC_HW_SPI.c **** *  0                - the frequency could not be set.
 582:Generated_Source\PSoC5/emFile_MMC_HW_SPI.c **** *
 583:Generated_Source\PSoC5/emFile_MMC_HW_SPI.c **** * Reentrant:
 584:Generated_Source\PSoC5/emFile_MMC_HW_SPI.c **** *  No
 585:Generated_Source\PSoC5/emFile_MMC_HW_SPI.c **** *
 586:Generated_Source\PSoC5/emFile_MMC_HW_SPI.c **** *******************************************************************************/
 587:Generated_Source\PSoC5/emFile_MMC_HW_SPI.c **** U16 FS_MMC_HW_X_SetMaxSpeed(U8 Unit, U16 MaxFreq)
 588:Generated_Source\PSoC5/emFile_MMC_HW_SPI.c **** {
 357              		.loc 1 588 0
 358              		.cfi_startproc
 359              		@ args = 0, pretend = 0, frame = 16
 360              		@ frame_needed = 1, uses_anonymous_args = 0
 361 0000 80B5     		push	{r7, lr}
 362              		.cfi_def_cfa_offset 8
 363              		.cfi_offset 7, -8
 364              		.cfi_offset 14, -4
 365 0002 84B0     		sub	sp, sp, #16
 366              		.cfi_def_cfa_offset 24
 367 0004 00AF     		add	r7, sp, #0
 368              		.cfi_def_cfa_register 7
 369 0006 0346     		mov	r3, r0
 370 0008 0A46     		mov	r2, r1
 371 000a FB71     		strb	r3, [r7, #7]
 372 000c 1346     		mov	r3, r2	@ movhi
 373 000e BB80     		strh	r3, [r7, #4]	@ movhi
 589:Generated_Source\PSoC5/emFile_MMC_HW_SPI.c ****     U16 freq;
 590:Generated_Source\PSoC5/emFile_MMC_HW_SPI.c ****     U32 divResult;
 591:Generated_Source\PSoC5/emFile_MMC_HW_SPI.c **** 
 592:Generated_Source\PSoC5/emFile_MMC_HW_SPI.c ****     if(MaxFreq < emFile_STARTUP_FREQ)
 374              		.loc 1 592 0
 375 0010 BB88     		ldrh	r3, [r7, #4]
 376 0012 B3F5C87F 		cmp	r3, #400
ARM GAS  C:\Users\bk\AppData\Local\Temp\ccle169t.s 			page 18


 377 0016 03D2     		bcs	.L37
 593:Generated_Source\PSoC5/emFile_MMC_HW_SPI.c ****     {
 594:Generated_Source\PSoC5/emFile_MMC_HW_SPI.c ****         MaxFreq = emFile_STARTUP_FREQ;
 378              		.loc 1 594 0
 379 0018 4FF4C873 		mov	r3, #400
 380 001c BB80     		strh	r3, [r7, #4]	@ movhi
 381 001e 06E0     		b	.L38
 382              	.L37:
 595:Generated_Source\PSoC5/emFile_MMC_HW_SPI.c ****     }
 596:Generated_Source\PSoC5/emFile_MMC_HW_SPI.c ****     else if(MaxFreq > emFile_MAX_SPI_FREQ)
 383              		.loc 1 596 0
 384 0020 BB88     		ldrh	r3, [r7, #4]
 385 0022 B3F57A6F 		cmp	r3, #4000
 386 0026 02D9     		bls	.L38
 597:Generated_Source\PSoC5/emFile_MMC_HW_SPI.c ****     {
 598:Generated_Source\PSoC5/emFile_MMC_HW_SPI.c ****         MaxFreq = emFile_MAX_SPI_FREQ;
 387              		.loc 1 598 0
 388 0028 4FF47A63 		mov	r3, #4000
 389 002c BB80     		strh	r3, [r7, #4]	@ movhi
 390              	.L38:
 599:Generated_Source\PSoC5/emFile_MMC_HW_SPI.c ****     }
 600:Generated_Source\PSoC5/emFile_MMC_HW_SPI.c ****     else
 601:Generated_Source\PSoC5/emFile_MMC_HW_SPI.c ****     {
 602:Generated_Source\PSoC5/emFile_MMC_HW_SPI.c ****         /* Do nothing */
 603:Generated_Source\PSoC5/emFile_MMC_HW_SPI.c ****     }
 604:Generated_Source\PSoC5/emFile_MMC_HW_SPI.c **** 
 605:Generated_Source\PSoC5/emFile_MMC_HW_SPI.c ****     freq = MaxFreq << 1u;
 391              		.loc 1 605 0
 392 002e BB88     		ldrh	r3, [r7, #4]	@ movhi
 393 0030 5B00     		lsls	r3, r3, #1
 394 0032 FB81     		strh	r3, [r7, #14]	@ movhi
 606:Generated_Source\PSoC5/emFile_MMC_HW_SPI.c **** 
 607:Generated_Source\PSoC5/emFile_MMC_HW_SPI.c ****     divResult = ((U32) BCLK__BUS_CLK__KHZ)/((U32) freq);
 395              		.loc 1 607 0
 396 0034 FB89     		ldrh	r3, [r7, #14]
 397 0036 45F6C052 		movw	r2, #24000
 398 003a B2FBF3F3 		udiv	r3, r2, r3
 399 003e 9BB2     		uxth	r3, r3
 400 0040 BB60     		str	r3, [r7, #8]
 608:Generated_Source\PSoC5/emFile_MMC_HW_SPI.c **** 
 609:Generated_Source\PSoC5/emFile_MMC_HW_SPI.c ****     switch(Unit)
 401              		.loc 1 609 0
 402 0042 FB79     		ldrb	r3, [r7, #7]	@ zero_extendqisi2
 403 0044 002B     		cmp	r3, #0
 404 0046 0CD1     		bne	.L43
 610:Generated_Source\PSoC5/emFile_MMC_HW_SPI.c ****     {
 611:Generated_Source\PSoC5/emFile_MMC_HW_SPI.c ****         case 0u:
 612:Generated_Source\PSoC5/emFile_MMC_HW_SPI.c ****             emFile_Clock_1_Stop();
 405              		.loc 1 612 0
 406 0048 FFF7FEFF 		bl	emFile_Clock_1_Stop
 613:Generated_Source\PSoC5/emFile_MMC_HW_SPI.c ****             emFile_Clock_1_SetDividerValue((U16)divResult);    /* update the frequency */
 407              		.loc 1 613 0
 408 004c BB68     		ldr	r3, [r7, #8]
 409 004e 9BB2     		uxth	r3, r3
 410 0050 013B     		subs	r3, r3, #1
 411 0052 9BB2     		uxth	r3, r3
 412 0054 0121     		movs	r1, #1
ARM GAS  C:\Users\bk\AppData\Local\Temp\ccle169t.s 			page 19


 413 0056 1846     		mov	r0, r3
 414 0058 FFF7FEFF 		bl	emFile_Clock_1_SetDividerRegister
 614:Generated_Source\PSoC5/emFile_MMC_HW_SPI.c ****             emFile_Clock_1_Start();
 415              		.loc 1 614 0
 416 005c FFF7FEFF 		bl	emFile_Clock_1_Start
 615:Generated_Source\PSoC5/emFile_MMC_HW_SPI.c ****             break;
 417              		.loc 1 615 0
 418 0060 0CE0     		b	.L41
 419              	.L43:
 616:Generated_Source\PSoC5/emFile_MMC_HW_SPI.c **** 
 617:Generated_Source\PSoC5/emFile_MMC_HW_SPI.c ****         #if (emFile_NUMBER_SD_CARDS >= 2u)
 618:Generated_Source\PSoC5/emFile_MMC_HW_SPI.c **** 
 619:Generated_Source\PSoC5/emFile_MMC_HW_SPI.c ****         case 1u:
 620:Generated_Source\PSoC5/emFile_MMC_HW_SPI.c **** 
 621:Generated_Source\PSoC5/emFile_MMC_HW_SPI.c ****             emFile_Clock_2_Stop();
 622:Generated_Source\PSoC5/emFile_MMC_HW_SPI.c ****             emFile_Clock_2_SetDividerValue((U16)divResult);    /* update the frequency */
 623:Generated_Source\PSoC5/emFile_MMC_HW_SPI.c ****             emFile_Clock_2_Start();
 624:Generated_Source\PSoC5/emFile_MMC_HW_SPI.c ****             break;
 625:Generated_Source\PSoC5/emFile_MMC_HW_SPI.c **** 
 626:Generated_Source\PSoC5/emFile_MMC_HW_SPI.c ****         #endif /* (emFile_NUMBER_SD_CARDS >= 2u) */
 627:Generated_Source\PSoC5/emFile_MMC_HW_SPI.c **** 
 628:Generated_Source\PSoC5/emFile_MMC_HW_SPI.c ****         #if (emFile_NUMBER_SD_CARDS >= 3u)
 629:Generated_Source\PSoC5/emFile_MMC_HW_SPI.c **** 
 630:Generated_Source\PSoC5/emFile_MMC_HW_SPI.c ****         case 2u:
 631:Generated_Source\PSoC5/emFile_MMC_HW_SPI.c **** 
 632:Generated_Source\PSoC5/emFile_MMC_HW_SPI.c ****             emFile_Clock_3_Stop();
 633:Generated_Source\PSoC5/emFile_MMC_HW_SPI.c ****             emFile_Clock_3_SetDividerValue((U16)divResult);    /* update the frequency */
 634:Generated_Source\PSoC5/emFile_MMC_HW_SPI.c ****             emFile_Clock_3_Start();
 635:Generated_Source\PSoC5/emFile_MMC_HW_SPI.c ****             break;
 636:Generated_Source\PSoC5/emFile_MMC_HW_SPI.c **** 
 637:Generated_Source\PSoC5/emFile_MMC_HW_SPI.c ****         #endif /* (emFile_NUMBER_SD_CARDS >= 3u) */
 638:Generated_Source\PSoC5/emFile_MMC_HW_SPI.c **** 
 639:Generated_Source\PSoC5/emFile_MMC_HW_SPI.c ****         #if (emFile_NUMBER_SD_CARDS == 4u)
 640:Generated_Source\PSoC5/emFile_MMC_HW_SPI.c **** 
 641:Generated_Source\PSoC5/emFile_MMC_HW_SPI.c ****         case 3u:
 642:Generated_Source\PSoC5/emFile_MMC_HW_SPI.c **** 
 643:Generated_Source\PSoC5/emFile_MMC_HW_SPI.c ****             emFile_Clock_4_Stop();
 644:Generated_Source\PSoC5/emFile_MMC_HW_SPI.c ****             emFile_Clock_4_SetDividerValue((U16)divResult);    /* update the frequency */
 645:Generated_Source\PSoC5/emFile_MMC_HW_SPI.c ****             emFile_Clock_4_Start();
 646:Generated_Source\PSoC5/emFile_MMC_HW_SPI.c ****             break;
 647:Generated_Source\PSoC5/emFile_MMC_HW_SPI.c **** 
 648:Generated_Source\PSoC5/emFile_MMC_HW_SPI.c ****         #endif /* (emFile_NUMBER_SD_CARDS == 4u) */
 649:Generated_Source\PSoC5/emFile_MMC_HW_SPI.c **** 
 650:Generated_Source\PSoC5/emFile_MMC_HW_SPI.c ****         default:
 651:Generated_Source\PSoC5/emFile_MMC_HW_SPI.c ****             emFile_Clock_1_Stop();
 420              		.loc 1 651 0
 421 0062 FFF7FEFF 		bl	emFile_Clock_1_Stop
 652:Generated_Source\PSoC5/emFile_MMC_HW_SPI.c ****             emFile_Clock_1_SetDividerValue((U16)divResult);    /* update the frequency */
 422              		.loc 1 652 0
 423 0066 BB68     		ldr	r3, [r7, #8]
 424 0068 9BB2     		uxth	r3, r3
 425 006a 013B     		subs	r3, r3, #1
 426 006c 9BB2     		uxth	r3, r3
 427 006e 0121     		movs	r1, #1
 428 0070 1846     		mov	r0, r3
 429 0072 FFF7FEFF 		bl	emFile_Clock_1_SetDividerRegister
 653:Generated_Source\PSoC5/emFile_MMC_HW_SPI.c ****             emFile_Clock_1_Start();
ARM GAS  C:\Users\bk\AppData\Local\Temp\ccle169t.s 			page 20


 430              		.loc 1 653 0
 431 0076 FFF7FEFF 		bl	emFile_Clock_1_Start
 654:Generated_Source\PSoC5/emFile_MMC_HW_SPI.c ****             break;
 432              		.loc 1 654 0
 433 007a 00BF     		nop
 434              	.L41:
 655:Generated_Source\PSoC5/emFile_MMC_HW_SPI.c ****     }
 656:Generated_Source\PSoC5/emFile_MMC_HW_SPI.c **** 
 657:Generated_Source\PSoC5/emFile_MMC_HW_SPI.c ****     return (MaxFreq);
 435              		.loc 1 657 0
 436 007c BB88     		ldrh	r3, [r7, #4]
 658:Generated_Source\PSoC5/emFile_MMC_HW_SPI.c **** 
 659:Generated_Source\PSoC5/emFile_MMC_HW_SPI.c **** }
 437              		.loc 1 659 0
 438 007e 1846     		mov	r0, r3
 439 0080 1037     		adds	r7, r7, #16
 440              		.cfi_def_cfa_offset 8
 441 0082 BD46     		mov	sp, r7
 442              		.cfi_def_cfa_register 13
 443              		@ sp needed
 444 0084 80BD     		pop	{r7, pc}
 445              		.cfi_endproc
 446              	.LFE68:
 447              		.size	FS_MMC_HW_X_SetMaxSpeed, .-FS_MMC_HW_X_SetMaxSpeed
 448 0086 00BF     		.section	.text.FS_MMC_HW_X_SetVoltage,"ax",%progbits
 449              		.align	2
 450              		.global	FS_MMC_HW_X_SetVoltage
 451              		.thumb
 452              		.thumb_func
 453              		.type	FS_MMC_HW_X_SetVoltage, %function
 454              	FS_MMC_HW_X_SetVoltage:
 455              	.LFB69:
 660:Generated_Source\PSoC5/emFile_MMC_HW_SPI.c **** 
 661:Generated_Source\PSoC5/emFile_MMC_HW_SPI.c **** 
 662:Generated_Source\PSoC5/emFile_MMC_HW_SPI.c **** /*******************************************************************************
 663:Generated_Source\PSoC5/emFile_MMC_HW_SPI.c **** * Function Name: FS_MMC_HW_X_SetVoltage
 664:Generated_Source\PSoC5/emFile_MMC_HW_SPI.c **** ********************************************************************************
 665:Generated_Source\PSoC5/emFile_MMC_HW_SPI.c **** *
 666:Generated_Source\PSoC5/emFile_MMC_HW_SPI.c **** * Summary:
 667:Generated_Source\PSoC5/emFile_MMC_HW_SPI.c **** *  FS low level function. Be sure that your card slot si within the given
 668:Generated_Source\PSoC5/emFile_MMC_HW_SPI.c **** *  voltage range. Return 1 if your slot can support the required voltage,
 669:Generated_Source\PSoC5/emFile_MMC_HW_SPI.c **** *  and if not, return 0.
 670:Generated_Source\PSoC5/emFile_MMC_HW_SPI.c **** *
 671:Generated_Source\PSoC5/emFile_MMC_HW_SPI.c **** * Parameters:
 672:Generated_Source\PSoC5/emFile_MMC_HW_SPI.c **** *  Unit             - Device Index;
 673:Generated_Source\PSoC5/emFile_MMC_HW_SPI.c **** *  Vmin             - Minimum supply voltage in mV;
 674:Generated_Source\PSoC5/emFile_MMC_HW_SPI.c **** *  Vmin             - Maximum supply voltage in mV.
 675:Generated_Source\PSoC5/emFile_MMC_HW_SPI.c **** *
 676:Generated_Source\PSoC5/emFile_MMC_HW_SPI.c **** * Return:
 677:Generated_Source\PSoC5/emFile_MMC_HW_SPI.c **** *  1                - the card slot supports the voltage range;
 678:Generated_Source\PSoC5/emFile_MMC_HW_SPI.c **** *  0                - the card slot does not support the voltage range.
 679:Generated_Source\PSoC5/emFile_MMC_HW_SPI.c **** *
 680:Generated_Source\PSoC5/emFile_MMC_HW_SPI.c **** * Reentrant:
 681:Generated_Source\PSoC5/emFile_MMC_HW_SPI.c **** *  No
 682:Generated_Source\PSoC5/emFile_MMC_HW_SPI.c **** *
 683:Generated_Source\PSoC5/emFile_MMC_HW_SPI.c **** *******************************************************************************/
 684:Generated_Source\PSoC5/emFile_MMC_HW_SPI.c **** int FS_MMC_HW_X_SetVoltage(U8 Unit, U16 Vmin, U16 Vmax)
ARM GAS  C:\Users\bk\AppData\Local\Temp\ccle169t.s 			page 21


 685:Generated_Source\PSoC5/emFile_MMC_HW_SPI.c **** {
 456              		.loc 1 685 0
 457              		.cfi_startproc
 458              		@ args = 0, pretend = 0, frame = 16
 459              		@ frame_needed = 1, uses_anonymous_args = 0
 460              		@ link register save eliminated.
 461 0000 80B4     		push	{r7}
 462              		.cfi_def_cfa_offset 4
 463              		.cfi_offset 7, -4
 464 0002 85B0     		sub	sp, sp, #20
 465              		.cfi_def_cfa_offset 24
 466 0004 00AF     		add	r7, sp, #0
 467              		.cfi_def_cfa_register 7
 468 0006 0346     		mov	r3, r0
 469 0008 FB71     		strb	r3, [r7, #7]
 470 000a 0B46     		mov	r3, r1	@ movhi
 471 000c BB80     		strh	r3, [r7, #4]	@ movhi
 472 000e 1346     		mov	r3, r2	@ movhi
 473 0010 7B80     		strh	r3, [r7, #2]	@ movhi
 686:Generated_Source\PSoC5/emFile_MMC_HW_SPI.c ****     int result;
 687:Generated_Source\PSoC5/emFile_MMC_HW_SPI.c **** 
 688:Generated_Source\PSoC5/emFile_MMC_HW_SPI.c ****     switch(Unit)
 474              		.loc 1 688 0
 475 0012 FB79     		ldrb	r3, [r7, #7]	@ zero_extendqisi2
 476 0014 0033     		adds	r3, r3, #0
 477 0016 032B     		cmp	r3, #3
 478 0018 0FD8     		bhi	.L45
 689:Generated_Source\PSoC5/emFile_MMC_HW_SPI.c ****     {
 690:Generated_Source\PSoC5/emFile_MMC_HW_SPI.c ****     case 0u:
 691:Generated_Source\PSoC5/emFile_MMC_HW_SPI.c **** 
 692:Generated_Source\PSoC5/emFile_MMC_HW_SPI.c ****     case 1u:
 693:Generated_Source\PSoC5/emFile_MMC_HW_SPI.c **** 
 694:Generated_Source\PSoC5/emFile_MMC_HW_SPI.c ****     case 2u:
 695:Generated_Source\PSoC5/emFile_MMC_HW_SPI.c **** 
 696:Generated_Source\PSoC5/emFile_MMC_HW_SPI.c ****     case 3u:
 697:Generated_Source\PSoC5/emFile_MMC_HW_SPI.c **** 
 698:Generated_Source\PSoC5/emFile_MMC_HW_SPI.c ****         if((Vmin <= emFile_MMC_DEFAULT_SUPPLY_VOLTAGE) &&
 479              		.loc 1 698 0
 480 001a BB88     		ldrh	r3, [r7, #4]
 481 001c 40F6E442 		movw	r2, #3300
 482 0020 9342     		cmp	r3, r2
 483 0022 07D8     		bhi	.L47
 484              		.loc 1 698 0 is_stmt 0 discriminator 1
 485 0024 7B88     		ldrh	r3, [r7, #2]
 486 0026 40F6E342 		movw	r2, #3299
 487 002a 9342     		cmp	r3, r2
 488 002c 02D9     		bls	.L47
 699:Generated_Source\PSoC5/emFile_MMC_HW_SPI.c ****             (emFile_MMC_DEFAULT_SUPPLY_VOLTAGE <= Vmax))
 700:Generated_Source\PSoC5/emFile_MMC_HW_SPI.c ****         {
 701:Generated_Source\PSoC5/emFile_MMC_HW_SPI.c ****             result = emFile_RET_SUCCCESS;
 489              		.loc 1 701 0 is_stmt 1
 490 002e 0123     		movs	r3, #1
 491 0030 FB60     		str	r3, [r7, #12]
 702:Generated_Source\PSoC5/emFile_MMC_HW_SPI.c ****         }
 703:Generated_Source\PSoC5/emFile_MMC_HW_SPI.c ****         else
 704:Generated_Source\PSoC5/emFile_MMC_HW_SPI.c ****         {
 705:Generated_Source\PSoC5/emFile_MMC_HW_SPI.c ****             result = emFile_RET_FAIL;
ARM GAS  C:\Users\bk\AppData\Local\Temp\ccle169t.s 			page 22


 706:Generated_Source\PSoC5/emFile_MMC_HW_SPI.c ****         }
 707:Generated_Source\PSoC5/emFile_MMC_HW_SPI.c **** 
 708:Generated_Source\PSoC5/emFile_MMC_HW_SPI.c ****         break;
 492              		.loc 1 708 0
 493 0032 12E0     		b	.L49
 494              	.L47:
 705:Generated_Source\PSoC5/emFile_MMC_HW_SPI.c ****         }
 495              		.loc 1 705 0
 496 0034 0023     		movs	r3, #0
 497 0036 FB60     		str	r3, [r7, #12]
 498              		.loc 1 708 0
 499 0038 0FE0     		b	.L49
 500              	.L45:
 709:Generated_Source\PSoC5/emFile_MMC_HW_SPI.c **** 
 710:Generated_Source\PSoC5/emFile_MMC_HW_SPI.c ****     default:
 711:Generated_Source\PSoC5/emFile_MMC_HW_SPI.c **** 
 712:Generated_Source\PSoC5/emFile_MMC_HW_SPI.c ****         if((Vmin <= emFile_MMC_DEFAULT_SUPPLY_VOLTAGE) &&
 501              		.loc 1 712 0
 502 003a BB88     		ldrh	r3, [r7, #4]
 503 003c 40F6E442 		movw	r2, #3300
 504 0040 9342     		cmp	r3, r2
 505 0042 07D8     		bhi	.L50
 506              		.loc 1 712 0 is_stmt 0 discriminator 1
 507 0044 7B88     		ldrh	r3, [r7, #2]
 508 0046 40F6E342 		movw	r2, #3299
 509 004a 9342     		cmp	r3, r2
 510 004c 02D9     		bls	.L50
 713:Generated_Source\PSoC5/emFile_MMC_HW_SPI.c ****             (emFile_MMC_DEFAULT_SUPPLY_VOLTAGE <= Vmax))
 714:Generated_Source\PSoC5/emFile_MMC_HW_SPI.c ****         {
 715:Generated_Source\PSoC5/emFile_MMC_HW_SPI.c ****             result = emFile_RET_SUCCCESS;
 511              		.loc 1 715 0 is_stmt 1
 512 004e 0123     		movs	r3, #1
 513 0050 FB60     		str	r3, [r7, #12]
 716:Generated_Source\PSoC5/emFile_MMC_HW_SPI.c ****         }
 717:Generated_Source\PSoC5/emFile_MMC_HW_SPI.c ****         else
 718:Generated_Source\PSoC5/emFile_MMC_HW_SPI.c ****         {
 719:Generated_Source\PSoC5/emFile_MMC_HW_SPI.c ****             result = emFile_RET_FAIL;
 720:Generated_Source\PSoC5/emFile_MMC_HW_SPI.c ****         }
 721:Generated_Source\PSoC5/emFile_MMC_HW_SPI.c ****         
 722:Generated_Source\PSoC5/emFile_MMC_HW_SPI.c ****         break;
 514              		.loc 1 722 0
 515 0052 01E0     		b	.L53
 516              	.L50:
 719:Generated_Source\PSoC5/emFile_MMC_HW_SPI.c ****         }
 517              		.loc 1 719 0
 518 0054 0023     		movs	r3, #0
 519 0056 FB60     		str	r3, [r7, #12]
 520              	.L53:
 521              		.loc 1 722 0
 522 0058 00BF     		nop
 523              	.L49:
 723:Generated_Source\PSoC5/emFile_MMC_HW_SPI.c ****     }
 724:Generated_Source\PSoC5/emFile_MMC_HW_SPI.c **** 
 725:Generated_Source\PSoC5/emFile_MMC_HW_SPI.c ****     return(result);
 524              		.loc 1 725 0
 525 005a FB68     		ldr	r3, [r7, #12]
 726:Generated_Source\PSoC5/emFile_MMC_HW_SPI.c **** }
ARM GAS  C:\Users\bk\AppData\Local\Temp\ccle169t.s 			page 23


 526              		.loc 1 726 0
 527 005c 1846     		mov	r0, r3
 528 005e 1437     		adds	r7, r7, #20
 529              		.cfi_def_cfa_offset 4
 530 0060 BD46     		mov	sp, r7
 531              		.cfi_def_cfa_register 13
 532              		@ sp needed
 533 0062 80BC     		pop	{r7}
 534              		.cfi_restore 7
 535              		.cfi_def_cfa_offset 0
 536 0064 7047     		bx	lr
 537              		.cfi_endproc
 538              	.LFE69:
 539              		.size	FS_MMC_HW_X_SetVoltage, .-FS_MMC_HW_X_SetVoltage
 540 0066 00BF     		.section	.text.FS_MMC_HW_X_IsPresent,"ax",%progbits
 541              		.align	2
 542              		.global	FS_MMC_HW_X_IsPresent
 543              		.thumb
 544              		.thumb_func
 545              		.type	FS_MMC_HW_X_IsPresent, %function
 546              	FS_MMC_HW_X_IsPresent:
 547              	.LFB70:
 727:Generated_Source\PSoC5/emFile_MMC_HW_SPI.c **** 
 728:Generated_Source\PSoC5/emFile_MMC_HW_SPI.c **** 
 729:Generated_Source\PSoC5/emFile_MMC_HW_SPI.c **** /*******************************************************************************
 730:Generated_Source\PSoC5/emFile_MMC_HW_SPI.c **** * Function Name: FS_MMC_HW_X_IsPresent
 731:Generated_Source\PSoC5/emFile_MMC_HW_SPI.c **** ********************************************************************************
 732:Generated_Source\PSoC5/emFile_MMC_HW_SPI.c **** *
 733:Generated_Source\PSoC5/emFile_MMC_HW_SPI.c **** * Summary:
 734:Generated_Source\PSoC5/emFile_MMC_HW_SPI.c **** *  Returns the state of the media. If you do not know the state, return
 735:Generated_Source\PSoC5/emFile_MMC_HW_SPI.c **** *  FS_MEDIA_STATE_UNKNOWN and the higher layer will try to figure out if
 736:Generated_Source\PSoC5/emFile_MMC_HW_SPI.c **** *  a media is present.
 737:Generated_Source\PSoC5/emFile_MMC_HW_SPI.c **** *
 738:Generated_Source\PSoC5/emFile_MMC_HW_SPI.c **** * Parameters:
 739:Generated_Source\PSoC5/emFile_MMC_HW_SPI.c **** *  Unit                      - Device Index.
 740:Generated_Source\PSoC5/emFile_MMC_HW_SPI.c **** *
 741:Generated_Source\PSoC5/emFile_MMC_HW_SPI.c **** * Return:
 742:Generated_Source\PSoC5/emFile_MMC_HW_SPI.c **** *  FS_MEDIA_STATE_UNKNOWN    - Media state is unknown;
 743:Generated_Source\PSoC5/emFile_MMC_HW_SPI.c **** *  FS_MEDIA_NOT_PRESENT      - Media is not present;
 744:Generated_Source\PSoC5/emFile_MMC_HW_SPI.c **** *  FS_MEDIA_IS_PRESENT       - Media is present.
 745:Generated_Source\PSoC5/emFile_MMC_HW_SPI.c **** *
 746:Generated_Source\PSoC5/emFile_MMC_HW_SPI.c **** * Reentrant:
 747:Generated_Source\PSoC5/emFile_MMC_HW_SPI.c **** *  No
 748:Generated_Source\PSoC5/emFile_MMC_HW_SPI.c **** *
 749:Generated_Source\PSoC5/emFile_MMC_HW_SPI.c **** *******************************************************************************/
 750:Generated_Source\PSoC5/emFile_MMC_HW_SPI.c **** int FS_MMC_HW_X_IsPresent(U8 Unit)
 751:Generated_Source\PSoC5/emFile_MMC_HW_SPI.c **** {
 548              		.loc 1 751 0
 549              		.cfi_startproc
 550              		@ args = 0, pretend = 0, frame = 16
 551              		@ frame_needed = 1, uses_anonymous_args = 0
 552 0000 80B5     		push	{r7, lr}
 553              		.cfi_def_cfa_offset 8
 554              		.cfi_offset 7, -8
 555              		.cfi_offset 14, -4
 556 0002 84B0     		sub	sp, sp, #16
 557              		.cfi_def_cfa_offset 24
ARM GAS  C:\Users\bk\AppData\Local\Temp\ccle169t.s 			page 24


 558 0004 00AF     		add	r7, sp, #0
 559              		.cfi_def_cfa_register 7
 560 0006 0346     		mov	r3, r0
 561 0008 FB71     		strb	r3, [r7, #7]
 752:Generated_Source\PSoC5/emFile_MMC_HW_SPI.c ****      int result;
 753:Generated_Source\PSoC5/emFile_MMC_HW_SPI.c **** 
 754:Generated_Source\PSoC5/emFile_MMC_HW_SPI.c ****     emFile_Init(Unit);
 562              		.loc 1 754 0
 563 000a FB79     		ldrb	r3, [r7, #7]	@ zero_extendqisi2
 564 000c 1846     		mov	r0, r3
 565 000e FFF7FEFF 		bl	emFile_Init
 755:Generated_Source\PSoC5/emFile_MMC_HW_SPI.c **** 
 756:Generated_Source\PSoC5/emFile_MMC_HW_SPI.c ****     switch(Unit)
 566              		.loc 1 756 0
 567 0012 FB79     		ldrb	r3, [r7, #7]	@ zero_extendqisi2
 568 0014 0033     		adds	r3, r3, #0
 569 0016 032B     		cmp	r3, #3
 570 0018 02D8     		bhi	.L55
 757:Generated_Source\PSoC5/emFile_MMC_HW_SPI.c ****     {
 758:Generated_Source\PSoC5/emFile_MMC_HW_SPI.c ****     case 0u:
 759:Generated_Source\PSoC5/emFile_MMC_HW_SPI.c **** 
 760:Generated_Source\PSoC5/emFile_MMC_HW_SPI.c ****     case 1u:
 761:Generated_Source\PSoC5/emFile_MMC_HW_SPI.c **** 
 762:Generated_Source\PSoC5/emFile_MMC_HW_SPI.c ****     case 2u:
 763:Generated_Source\PSoC5/emFile_MMC_HW_SPI.c **** 
 764:Generated_Source\PSoC5/emFile_MMC_HW_SPI.c ****     case 3u:
 765:Generated_Source\PSoC5/emFile_MMC_HW_SPI.c **** 
 766:Generated_Source\PSoC5/emFile_MMC_HW_SPI.c ****         result = FS_MEDIA_STATE_UNKNOWN;
 571              		.loc 1 766 0
 572 001a 0223     		movs	r3, #2
 573 001c FB60     		str	r3, [r7, #12]
 767:Generated_Source\PSoC5/emFile_MMC_HW_SPI.c ****         break;
 574              		.loc 1 767 0
 575 001e 02E0     		b	.L57
 576              	.L55:
 768:Generated_Source\PSoC5/emFile_MMC_HW_SPI.c **** 
 769:Generated_Source\PSoC5/emFile_MMC_HW_SPI.c ****     default:
 770:Generated_Source\PSoC5/emFile_MMC_HW_SPI.c **** 
 771:Generated_Source\PSoC5/emFile_MMC_HW_SPI.c ****         result = FS_MEDIA_STATE_UNKNOWN;
 577              		.loc 1 771 0
 578 0020 0223     		movs	r3, #2
 579 0022 FB60     		str	r3, [r7, #12]
 772:Generated_Source\PSoC5/emFile_MMC_HW_SPI.c ****         break;
 580              		.loc 1 772 0
 581 0024 00BF     		nop
 582              	.L57:
 773:Generated_Source\PSoC5/emFile_MMC_HW_SPI.c ****     }
 774:Generated_Source\PSoC5/emFile_MMC_HW_SPI.c **** 
 775:Generated_Source\PSoC5/emFile_MMC_HW_SPI.c ****     return(result);
 583              		.loc 1 775 0
 584 0026 FB68     		ldr	r3, [r7, #12]
 776:Generated_Source\PSoC5/emFile_MMC_HW_SPI.c **** }
 585              		.loc 1 776 0
 586 0028 1846     		mov	r0, r3
 587 002a 1037     		adds	r7, r7, #16
 588              		.cfi_def_cfa_offset 8
 589 002c BD46     		mov	sp, r7
ARM GAS  C:\Users\bk\AppData\Local\Temp\ccle169t.s 			page 25


 590              		.cfi_def_cfa_register 13
 591              		@ sp needed
 592 002e 80BD     		pop	{r7, pc}
 593              		.cfi_endproc
 594              	.LFE70:
 595              		.size	FS_MMC_HW_X_IsPresent, .-FS_MMC_HW_X_IsPresent
 596              		.section	.text.FS_MMC_HW_X_Read,"ax",%progbits
 597              		.align	2
 598              		.global	FS_MMC_HW_X_Read
 599              		.thumb
 600              		.thumb_func
 601              		.type	FS_MMC_HW_X_Read, %function
 602              	FS_MMC_HW_X_Read:
 603              	.LFB71:
 777:Generated_Source\PSoC5/emFile_MMC_HW_SPI.c **** 
 778:Generated_Source\PSoC5/emFile_MMC_HW_SPI.c **** 
 779:Generated_Source\PSoC5/emFile_MMC_HW_SPI.c **** /*******************************************************************************
 780:Generated_Source\PSoC5/emFile_MMC_HW_SPI.c **** * Function Name: FS_MMC_HW_X_Read
 781:Generated_Source\PSoC5/emFile_MMC_HW_SPI.c **** ********************************************************************************
 782:Generated_Source\PSoC5/emFile_MMC_HW_SPI.c **** *
 783:Generated_Source\PSoC5/emFile_MMC_HW_SPI.c **** * Summary:
 784:Generated_Source\PSoC5/emFile_MMC_HW_SPI.c **** *  FS low level function. Reads a specified number of bytes from MMC card to 
 785:Generated_Source\PSoC5/emFile_MMC_HW_SPI.c **** *  buffer.
 786:Generated_Source\PSoC5/emFile_MMC_HW_SPI.c **** *
 787:Generated_Source\PSoC5/emFile_MMC_HW_SPI.c **** * Parameters:
 788:Generated_Source\PSoC5/emFile_MMC_HW_SPI.c **** *    Unit             - Device Index;
 789:Generated_Source\PSoC5/emFile_MMC_HW_SPI.c **** *    pData            - Pointer to a data buffer;
 790:Generated_Source\PSoC5/emFile_MMC_HW_SPI.c **** *    NumBytes         - Number of bytes.
 791:Generated_Source\PSoC5/emFile_MMC_HW_SPI.c **** *
 792:Generated_Source\PSoC5/emFile_MMC_HW_SPI.c **** * Return:
 793:Generated_Source\PSoC5/emFile_MMC_HW_SPI.c **** *  None
 794:Generated_Source\PSoC5/emFile_MMC_HW_SPI.c **** *
 795:Generated_Source\PSoC5/emFile_MMC_HW_SPI.c **** * Reentrant:
 796:Generated_Source\PSoC5/emFile_MMC_HW_SPI.c **** *  No
 797:Generated_Source\PSoC5/emFile_MMC_HW_SPI.c **** *
 798:Generated_Source\PSoC5/emFile_MMC_HW_SPI.c **** *******************************************************************************/
 799:Generated_Source\PSoC5/emFile_MMC_HW_SPI.c **** #if (CY_PSOC5)
 800:Generated_Source\PSoC5/emFile_MMC_HW_SPI.c ****     void  FS_MMC_HW_X_Read (U8 Unit, U8 * pData, int NumBytes)
 801:Generated_Source\PSoC5/emFile_MMC_HW_SPI.c ****     {
 604              		.loc 1 801 0
 605              		.cfi_startproc
 606              		@ args = 0, pretend = 0, frame = 16
 607              		@ frame_needed = 1, uses_anonymous_args = 0
 608 0000 90B5     		push	{r4, r7, lr}
 609              		.cfi_def_cfa_offset 12
 610              		.cfi_offset 4, -12
 611              		.cfi_offset 7, -8
 612              		.cfi_offset 14, -4
 613 0002 85B0     		sub	sp, sp, #20
 614              		.cfi_def_cfa_offset 32
 615 0004 00AF     		add	r7, sp, #0
 616              		.cfi_def_cfa_register 7
 617 0006 0346     		mov	r3, r0
 618 0008 B960     		str	r1, [r7, #8]
 619 000a 7A60     		str	r2, [r7, #4]
 620 000c FB73     		strb	r3, [r7, #15]
 621              	.L60:
ARM GAS  C:\Users\bk\AppData\Local\Temp\ccle169t.s 			page 26


 802:Generated_Source\PSoC5/emFile_MMC_HW_SPI.c ****         do
 803:Generated_Source\PSoC5/emFile_MMC_HW_SPI.c ****         {
 804:Generated_Source\PSoC5/emFile_MMC_HW_SPI.c ****             *pData++ = emFile_ReadWriteSPI(Unit, 0xff);
 622              		.loc 1 804 0 discriminator 1
 623 000e BC68     		ldr	r4, [r7, #8]
 624 0010 631C     		adds	r3, r4, #1
 625 0012 BB60     		str	r3, [r7, #8]
 626 0014 FB7B     		ldrb	r3, [r7, #15]	@ zero_extendqisi2
 627 0016 FF21     		movs	r1, #255
 628 0018 1846     		mov	r0, r3
 629 001a FFF7FEFF 		bl	emFile_ReadWriteSPI
 630 001e 0346     		mov	r3, r0
 631 0020 2370     		strb	r3, [r4]
 805:Generated_Source\PSoC5/emFile_MMC_HW_SPI.c ****         } while (--NumBytes);
 632              		.loc 1 805 0 discriminator 1
 633 0022 7B68     		ldr	r3, [r7, #4]
 634 0024 013B     		subs	r3, r3, #1
 635 0026 7B60     		str	r3, [r7, #4]
 636 0028 7B68     		ldr	r3, [r7, #4]
 637 002a 002B     		cmp	r3, #0
 638 002c EFD1     		bne	.L60
 806:Generated_Source\PSoC5/emFile_MMC_HW_SPI.c ****     }
 639              		.loc 1 806 0
 640 002e 00BF     		nop
 641 0030 1437     		adds	r7, r7, #20
 642              		.cfi_def_cfa_offset 12
 643 0032 BD46     		mov	sp, r7
 644              		.cfi_def_cfa_register 13
 645              		@ sp needed
 646 0034 90BD     		pop	{r4, r7, pc}
 647              		.cfi_endproc
 648              	.LFE71:
 649              		.size	FS_MMC_HW_X_Read, .-FS_MMC_HW_X_Read
 650 0036 00BF     		.section	.text.FS_MMC_HW_X_Write,"ax",%progbits
 651              		.align	2
 652              		.global	FS_MMC_HW_X_Write
 653              		.thumb
 654              		.thumb_func
 655              		.type	FS_MMC_HW_X_Write, %function
 656              	FS_MMC_HW_X_Write:
 657              	.LFB72:
 807:Generated_Source\PSoC5/emFile_MMC_HW_SPI.c **** #else
 808:Generated_Source\PSoC5/emFile_MMC_HW_SPI.c ****     void  FS_MMC_HW_X_Read (U8 Unit, U8 xdata * pData, int NumBytes)
 809:Generated_Source\PSoC5/emFile_MMC_HW_SPI.c ****     {
 810:Generated_Source\PSoC5/emFile_MMC_HW_SPI.c ****         do
 811:Generated_Source\PSoC5/emFile_MMC_HW_SPI.c ****         {
 812:Generated_Source\PSoC5/emFile_MMC_HW_SPI.c ****             *pData++ = emFile_ReadWriteSPI(Unit, 0xff);
 813:Generated_Source\PSoC5/emFile_MMC_HW_SPI.c ****         } while (--NumBytes);
 814:Generated_Source\PSoC5/emFile_MMC_HW_SPI.c ****     }
 815:Generated_Source\PSoC5/emFile_MMC_HW_SPI.c **** #endif /* (CY_PSOC5) */
 816:Generated_Source\PSoC5/emFile_MMC_HW_SPI.c **** 
 817:Generated_Source\PSoC5/emFile_MMC_HW_SPI.c **** 
 818:Generated_Source\PSoC5/emFile_MMC_HW_SPI.c **** /*******************************************************************************
 819:Generated_Source\PSoC5/emFile_MMC_HW_SPI.c **** * Function Name: FS_MMC_HW_X_Write
 820:Generated_Source\PSoC5/emFile_MMC_HW_SPI.c **** ********************************************************************************
 821:Generated_Source\PSoC5/emFile_MMC_HW_SPI.c **** *
 822:Generated_Source\PSoC5/emFile_MMC_HW_SPI.c **** * Summary:
ARM GAS  C:\Users\bk\AppData\Local\Temp\ccle169t.s 			page 27


 823:Generated_Source\PSoC5/emFile_MMC_HW_SPI.c **** *  FS low level function. Writes a specified number of bytes from
 824:Generated_Source\PSoC5/emFile_MMC_HW_SPI.c **** *  data buffer to the MMC/SD card.
 825:Generated_Source\PSoC5/emFile_MMC_HW_SPI.c **** *
 826:Generated_Source\PSoC5/emFile_MMC_HW_SPI.c **** * Parameters:
 827:Generated_Source\PSoC5/emFile_MMC_HW_SPI.c **** *    Unit             - Device Index;
 828:Generated_Source\PSoC5/emFile_MMC_HW_SPI.c **** *    pData            - Pointer to a data buffer;
 829:Generated_Source\PSoC5/emFile_MMC_HW_SPI.c **** *    NumBytes         - Number of bytes.
 830:Generated_Source\PSoC5/emFile_MMC_HW_SPI.c **** *
 831:Generated_Source\PSoC5/emFile_MMC_HW_SPI.c **** * Return:
 832:Generated_Source\PSoC5/emFile_MMC_HW_SPI.c **** *  None
 833:Generated_Source\PSoC5/emFile_MMC_HW_SPI.c **** *
 834:Generated_Source\PSoC5/emFile_MMC_HW_SPI.c **** * Reentrant:
 835:Generated_Source\PSoC5/emFile_MMC_HW_SPI.c **** *  No
 836:Generated_Source\PSoC5/emFile_MMC_HW_SPI.c **** *
 837:Generated_Source\PSoC5/emFile_MMC_HW_SPI.c **** *******************************************************************************/
 838:Generated_Source\PSoC5/emFile_MMC_HW_SPI.c **** #if (CY_PSOC5)
 839:Generated_Source\PSoC5/emFile_MMC_HW_SPI.c ****     void  FS_MMC_HW_X_Write(U8 Unit, const U8 * pData, int NumBytes) 
 840:Generated_Source\PSoC5/emFile_MMC_HW_SPI.c ****     {
 658              		.loc 1 840 0
 659              		.cfi_startproc
 660              		@ args = 0, pretend = 0, frame = 16
 661              		@ frame_needed = 1, uses_anonymous_args = 0
 662 0000 80B5     		push	{r7, lr}
 663              		.cfi_def_cfa_offset 8
 664              		.cfi_offset 7, -8
 665              		.cfi_offset 14, -4
 666 0002 84B0     		sub	sp, sp, #16
 667              		.cfi_def_cfa_offset 24
 668 0004 00AF     		add	r7, sp, #0
 669              		.cfi_def_cfa_register 7
 670 0006 0346     		mov	r3, r0
 671 0008 B960     		str	r1, [r7, #8]
 672 000a 7A60     		str	r2, [r7, #4]
 673 000c FB73     		strb	r3, [r7, #15]
 674              	.L62:
 841:Generated_Source\PSoC5/emFile_MMC_HW_SPI.c ****         do
 842:Generated_Source\PSoC5/emFile_MMC_HW_SPI.c ****         {
 843:Generated_Source\PSoC5/emFile_MMC_HW_SPI.c ****             emFile_ReadWriteSPI(Unit, *pData++);
 675              		.loc 1 843 0 discriminator 1
 676 000e BB68     		ldr	r3, [r7, #8]
 677 0010 5A1C     		adds	r2, r3, #1
 678 0012 BA60     		str	r2, [r7, #8]
 679 0014 1A78     		ldrb	r2, [r3]	@ zero_extendqisi2
 680 0016 FB7B     		ldrb	r3, [r7, #15]	@ zero_extendqisi2
 681 0018 1146     		mov	r1, r2
 682 001a 1846     		mov	r0, r3
 683 001c FFF7FEFF 		bl	emFile_ReadWriteSPI
 844:Generated_Source\PSoC5/emFile_MMC_HW_SPI.c ****         } while (--NumBytes);
 684              		.loc 1 844 0 discriminator 1
 685 0020 7B68     		ldr	r3, [r7, #4]
 686 0022 013B     		subs	r3, r3, #1
 687 0024 7B60     		str	r3, [r7, #4]
 688 0026 7B68     		ldr	r3, [r7, #4]
 689 0028 002B     		cmp	r3, #0
 690 002a F0D1     		bne	.L62
 845:Generated_Source\PSoC5/emFile_MMC_HW_SPI.c ****     }
 691              		.loc 1 845 0
ARM GAS  C:\Users\bk\AppData\Local\Temp\ccle169t.s 			page 28


 692 002c 00BF     		nop
 693 002e 1037     		adds	r7, r7, #16
 694              		.cfi_def_cfa_offset 8
 695 0030 BD46     		mov	sp, r7
 696              		.cfi_def_cfa_register 13
 697              		@ sp needed
 698 0032 80BD     		pop	{r7, pc}
 699              		.cfi_endproc
 700              	.LFE72:
 701              		.size	FS_MMC_HW_X_Write, .-FS_MMC_HW_X_Write
 702              		.text
 703              	.Letext0:
 704              		.file 2 "c:\\program files (x86)\\cypress\\psoc creator\\4.3\\psoc creator\\import\\gnu\\arm\\5.4.
 705              		.file 3 "c:\\program files (x86)\\cypress\\psoc creator\\4.3\\psoc creator\\import\\gnu\\arm\\5.4.
 706              		.file 4 "Generated_Source\\PSoC5/cytypes.h"
 707              		.file 5 "Generated_Source\\PSoC5/core_cm3.h"