ARM GAS  C:\Users\bk\AppData\Local\Temp\ccNX7sI7.s 			page 1


   1              		.syntax unified
   2              		.cpu cortex-m3
   3              		.fpu softvfp
   4              		.eabi_attribute 20, 1
   5              		.eabi_attribute 21, 1
   6              		.eabi_attribute 23, 3
   7              		.eabi_attribute 24, 1
   8              		.eabi_attribute 25, 1
   9              		.eabi_attribute 26, 1
  10              		.eabi_attribute 30, 6
  11              		.eabi_attribute 34, 1
  12              		.eabi_attribute 18, 4
  13              		.thumb
  14              		.syntax unified
  15              		.file	"emFile_PM.c"
  16              		.text
  17              	.Ltext0:
  18              		.cfi_sections	.debug_frame
  19              		.section	.text.emFile_SaveConfig,"ax",%progbits
  20              		.align	2
  21              		.global	emFile_SaveConfig
  22              		.thumb
  23              		.thumb_func
  24              		.type	emFile_SaveConfig, %function
  25              	emFile_SaveConfig:
  26              	.LFB63:
  27              		.file 1 "Generated_Source\\PSoC5\\emFile_PM.c"
   1:Generated_Source\PSoC5/emFile_PM.c **** /*******************************************************************************
   2:Generated_Source\PSoC5/emFile_PM.c **** * File Name: emFile_PM.c
   3:Generated_Source\PSoC5/emFile_PM.c **** * Version 1.20
   4:Generated_Source\PSoC5/emFile_PM.c **** *
   5:Generated_Source\PSoC5/emFile_PM.c **** * Description:
   6:Generated_Source\PSoC5/emFile_PM.c **** *  This file provides the API source code for Power Management of the emFile
   7:Generated_Source\PSoC5/emFile_PM.c **** *  component.
   8:Generated_Source\PSoC5/emFile_PM.c **** *
   9:Generated_Source\PSoC5/emFile_PM.c **** * Note:
  10:Generated_Source\PSoC5/emFile_PM.c **** *
  11:Generated_Source\PSoC5/emFile_PM.c **** *******************************************************************************
  12:Generated_Source\PSoC5/emFile_PM.c **** * Copyright 2011-2012, Cypress Semiconductor Corporation.  All rights reserved.
  13:Generated_Source\PSoC5/emFile_PM.c **** * You may use this file only in accordance with the license, terms, conditions,
  14:Generated_Source\PSoC5/emFile_PM.c **** * disclaimers, and limitations in the end user license agreement accompanying
  15:Generated_Source\PSoC5/emFile_PM.c **** * the software package with which this file was provided.
  16:Generated_Source\PSoC5/emFile_PM.c **** *******************************************************************************/
  17:Generated_Source\PSoC5/emFile_PM.c **** 
  18:Generated_Source\PSoC5/emFile_PM.c **** #include <project.h>
  19:Generated_Source\PSoC5/emFile_PM.c **** #include "emFile.h"
  20:Generated_Source\PSoC5/emFile_PM.c **** 
  21:Generated_Source\PSoC5/emFile_PM.c **** 
  22:Generated_Source\PSoC5/emFile_PM.c **** /*******************************************************************************
  23:Generated_Source\PSoC5/emFile_PM.c **** * Function Name: emFile_SaveConfig
  24:Generated_Source\PSoC5/emFile_PM.c **** ********************************************************************************
  25:Generated_Source\PSoC5/emFile_PM.c **** *
  26:Generated_Source\PSoC5/emFile_PM.c **** * Summary:
  27:Generated_Source\PSoC5/emFile_PM.c **** *  Saves SPI Masters configuration.
  28:Generated_Source\PSoC5/emFile_PM.c **** *
  29:Generated_Source\PSoC5/emFile_PM.c **** * Parameters:
  30:Generated_Source\PSoC5/emFile_PM.c **** *  None
ARM GAS  C:\Users\bk\AppData\Local\Temp\ccNX7sI7.s 			page 2


  31:Generated_Source\PSoC5/emFile_PM.c **** *
  32:Generated_Source\PSoC5/emFile_PM.c **** * Return:
  33:Generated_Source\PSoC5/emFile_PM.c **** *  None
  34:Generated_Source\PSoC5/emFile_PM.c **** *
  35:Generated_Source\PSoC5/emFile_PM.c **** * Reentrant:
  36:Generated_Source\PSoC5/emFile_PM.c **** *  No
  37:Generated_Source\PSoC5/emFile_PM.c **** *
  38:Generated_Source\PSoC5/emFile_PM.c **** *******************************************************************************/
  39:Generated_Source\PSoC5/emFile_PM.c **** void emFile_SaveConfig(void) 
  40:Generated_Source\PSoC5/emFile_PM.c **** {
  28              		.loc 1 40 0
  29              		.cfi_startproc
  30              		@ args = 0, pretend = 0, frame = 0
  31              		@ frame_needed = 1, uses_anonymous_args = 0
  32 0000 80B5     		push	{r7, lr}
  33              		.cfi_def_cfa_offset 8
  34              		.cfi_offset 7, -8
  35              		.cfi_offset 14, -4
  36 0002 00AF     		add	r7, sp, #0
  37              		.cfi_def_cfa_register 7
  41:Generated_Source\PSoC5/emFile_PM.c ****     #if(emFile_NUMBER_SD_CARDS == 4u)
  42:Generated_Source\PSoC5/emFile_PM.c ****         emFile_SPI0_SaveConfig();
  43:Generated_Source\PSoC5/emFile_PM.c ****         emFile_SPI1_SaveConfig();
  44:Generated_Source\PSoC5/emFile_PM.c ****         emFile_SPI2_SaveConfig();
  45:Generated_Source\PSoC5/emFile_PM.c ****         emFile_SPI3_SaveConfig();
  46:Generated_Source\PSoC5/emFile_PM.c ****     #elif(emFile_NUMBER_SD_CARDS == 3u)
  47:Generated_Source\PSoC5/emFile_PM.c ****         emFile_SPI0_SaveConfig();
  48:Generated_Source\PSoC5/emFile_PM.c ****         emFile_SPI1_SaveConfig();
  49:Generated_Source\PSoC5/emFile_PM.c ****         emFile_SPI2_SaveConfig();
  50:Generated_Source\PSoC5/emFile_PM.c ****     #elif(emFile_NUMBER_SD_CARDS == 2u)
  51:Generated_Source\PSoC5/emFile_PM.c ****         emFile_SPI0_SaveConfig();
  52:Generated_Source\PSoC5/emFile_PM.c ****         emFile_SPI1_SaveConfig();
  53:Generated_Source\PSoC5/emFile_PM.c ****     #else
  54:Generated_Source\PSoC5/emFile_PM.c ****         emFile_SPI0_SaveConfig();
  38              		.loc 1 54 0
  39 0004 FFF7FEFF 		bl	emFile_SPI0_SaveConfig
  55:Generated_Source\PSoC5/emFile_PM.c ****     #endif /* (emFile_NUMBER_SD_CARDS == 4u) */
  56:Generated_Source\PSoC5/emFile_PM.c **** }
  40              		.loc 1 56 0
  41 0008 00BF     		nop
  42 000a 80BD     		pop	{r7, pc}
  43              		.cfi_endproc
  44              	.LFE63:
  45              		.size	emFile_SaveConfig, .-emFile_SaveConfig
  46              		.section	.text.emFile_RestoreConfig,"ax",%progbits
  47              		.align	2
  48              		.global	emFile_RestoreConfig
  49              		.thumb
  50              		.thumb_func
  51              		.type	emFile_RestoreConfig, %function
  52              	emFile_RestoreConfig:
  53              	.LFB64:
  57:Generated_Source\PSoC5/emFile_PM.c **** 
  58:Generated_Source\PSoC5/emFile_PM.c **** 
  59:Generated_Source\PSoC5/emFile_PM.c **** /*******************************************************************************
  60:Generated_Source\PSoC5/emFile_PM.c **** * Function Name: emFile_RestoreConfig
  61:Generated_Source\PSoC5/emFile_PM.c **** ********************************************************************************
ARM GAS  C:\Users\bk\AppData\Local\Temp\ccNX7sI7.s 			page 3


  62:Generated_Source\PSoC5/emFile_PM.c **** *
  63:Generated_Source\PSoC5/emFile_PM.c **** * Summary:
  64:Generated_Source\PSoC5/emFile_PM.c **** *  Restores SPI Masters configuration.
  65:Generated_Source\PSoC5/emFile_PM.c **** *
  66:Generated_Source\PSoC5/emFile_PM.c **** * Parameters:
  67:Generated_Source\PSoC5/emFile_PM.c **** *  None
  68:Generated_Source\PSoC5/emFile_PM.c **** *
  69:Generated_Source\PSoC5/emFile_PM.c **** * Return:
  70:Generated_Source\PSoC5/emFile_PM.c **** *  None
  71:Generated_Source\PSoC5/emFile_PM.c **** *
  72:Generated_Source\PSoC5/emFile_PM.c **** * Side Effects:
  73:Generated_Source\PSoC5/emFile_PM.c **** *  If this API is called without first calling SaveConfig then in the following
  74:Generated_Source\PSoC5/emFile_PM.c **** *  registers will be default values from Customizer:
  75:Generated_Source\PSoC5/emFile_PM.c **** *
  76:Generated_Source\PSoC5/emFile_PM.c **** *******************************************************************************/
  77:Generated_Source\PSoC5/emFile_PM.c **** void emFile_RestoreConfig(void) 
  78:Generated_Source\PSoC5/emFile_PM.c **** {
  54              		.loc 1 78 0
  55              		.cfi_startproc
  56              		@ args = 0, pretend = 0, frame = 0
  57              		@ frame_needed = 1, uses_anonymous_args = 0
  58 0000 80B5     		push	{r7, lr}
  59              		.cfi_def_cfa_offset 8
  60              		.cfi_offset 7, -8
  61              		.cfi_offset 14, -4
  62 0002 00AF     		add	r7, sp, #0
  63              		.cfi_def_cfa_register 7
  79:Generated_Source\PSoC5/emFile_PM.c ****     #if(emFile_NUMBER_SD_CARDS == 4u)
  80:Generated_Source\PSoC5/emFile_PM.c ****         emFile_SPI0_RestoreConfig();
  81:Generated_Source\PSoC5/emFile_PM.c ****         emFile_SPI1_RestoreConfig();
  82:Generated_Source\PSoC5/emFile_PM.c ****         emFile_SPI2_RestoreConfig();
  83:Generated_Source\PSoC5/emFile_PM.c ****         emFile_SPI3_RestoreConfig();
  84:Generated_Source\PSoC5/emFile_PM.c ****     #elif(emFile_NUMBER_SD_CARDS == 3u)
  85:Generated_Source\PSoC5/emFile_PM.c ****         emFile_SPI0_SaveConfig();
  86:Generated_Source\PSoC5/emFile_PM.c ****         emFile_SPI1_SaveConfig();
  87:Generated_Source\PSoC5/emFile_PM.c ****         emFile_SPI2_SaveConfig();
  88:Generated_Source\PSoC5/emFile_PM.c ****     #elif(emFile_NUMBER_SD_CARDS == 2u)
  89:Generated_Source\PSoC5/emFile_PM.c ****         emFile_SPI0_SaveConfig();
  90:Generated_Source\PSoC5/emFile_PM.c ****         emFile_SPI1_SaveConfig();
  91:Generated_Source\PSoC5/emFile_PM.c ****     #else
  92:Generated_Source\PSoC5/emFile_PM.c ****         emFile_SPI0_SaveConfig();
  64              		.loc 1 92 0
  65 0004 FFF7FEFF 		bl	emFile_SPI0_SaveConfig
  93:Generated_Source\PSoC5/emFile_PM.c ****     #endif /* (emFile_NUMBER_SD_CARDS == 4u) */
  94:Generated_Source\PSoC5/emFile_PM.c **** }
  66              		.loc 1 94 0
  67 0008 00BF     		nop
  68 000a 80BD     		pop	{r7, pc}
  69              		.cfi_endproc
  70              	.LFE64:
  71              		.size	emFile_RestoreConfig, .-emFile_RestoreConfig
  72              		.section	.text.emFile_Sleep,"ax",%progbits
  73              		.align	2
  74              		.global	emFile_Sleep
  75              		.thumb
  76              		.thumb_func
  77              		.type	emFile_Sleep, %function
ARM GAS  C:\Users\bk\AppData\Local\Temp\ccNX7sI7.s 			page 4


  78              	emFile_Sleep:
  79              	.LFB65:
  95:Generated_Source\PSoC5/emFile_PM.c **** 
  96:Generated_Source\PSoC5/emFile_PM.c **** 
  97:Generated_Source\PSoC5/emFile_PM.c **** /*******************************************************************************
  98:Generated_Source\PSoC5/emFile_PM.c **** * Function Name: emFile_Sleep
  99:Generated_Source\PSoC5/emFile_PM.c **** ********************************************************************************
 100:Generated_Source\PSoC5/emFile_PM.c **** *
 101:Generated_Source\PSoC5/emFile_PM.c **** * Summary:
 102:Generated_Source\PSoC5/emFile_PM.c **** *  Prepare emFile to go to sleep.
 103:Generated_Source\PSoC5/emFile_PM.c **** *
 104:Generated_Source\PSoC5/emFile_PM.c **** * Parameters:
 105:Generated_Source\PSoC5/emFile_PM.c **** *  None
 106:Generated_Source\PSoC5/emFile_PM.c **** *
 107:Generated_Source\PSoC5/emFile_PM.c **** * Return:
 108:Generated_Source\PSoC5/emFile_PM.c **** *  None
 109:Generated_Source\PSoC5/emFile_PM.c **** *
 110:Generated_Source\PSoC5/emFile_PM.c **** * Reentrant:
 111:Generated_Source\PSoC5/emFile_PM.c **** *  No
 112:Generated_Source\PSoC5/emFile_PM.c **** *
 113:Generated_Source\PSoC5/emFile_PM.c **** *******************************************************************************/
 114:Generated_Source\PSoC5/emFile_PM.c **** void emFile_Sleep(void) 
 115:Generated_Source\PSoC5/emFile_PM.c **** {
  80              		.loc 1 115 0
  81              		.cfi_startproc
  82              		@ args = 0, pretend = 0, frame = 0
  83              		@ frame_needed = 1, uses_anonymous_args = 0
  84 0000 80B5     		push	{r7, lr}
  85              		.cfi_def_cfa_offset 8
  86              		.cfi_offset 7, -8
  87              		.cfi_offset 14, -4
  88 0002 00AF     		add	r7, sp, #0
  89              		.cfi_def_cfa_register 7
 116:Generated_Source\PSoC5/emFile_PM.c ****     #if(emFile_NUMBER_SD_CARDS == 4u)
 117:Generated_Source\PSoC5/emFile_PM.c ****         emFile_SPI0_Sleep();
 118:Generated_Source\PSoC5/emFile_PM.c ****         emFile_SPI1_Sleep();
 119:Generated_Source\PSoC5/emFile_PM.c ****         emFile_SPI2_Sleep();
 120:Generated_Source\PSoC5/emFile_PM.c ****         emFile_SPI3_Sleep();
 121:Generated_Source\PSoC5/emFile_PM.c ****     #elif(emFile_NUMBER_SD_CARDS == 3u)
 122:Generated_Source\PSoC5/emFile_PM.c ****         emFile_SPI0_Sleep();
 123:Generated_Source\PSoC5/emFile_PM.c ****         emFile_SPI1_Sleep();
 124:Generated_Source\PSoC5/emFile_PM.c ****         emFile_SPI2_Sleep();
 125:Generated_Source\PSoC5/emFile_PM.c ****     #elif(emFile_NUMBER_SD_CARDS == 2u)
 126:Generated_Source\PSoC5/emFile_PM.c ****         emFile_SPI0_Sleep();
 127:Generated_Source\PSoC5/emFile_PM.c ****         emFile_SPI1_Sleep();
 128:Generated_Source\PSoC5/emFile_PM.c ****     #else
 129:Generated_Source\PSoC5/emFile_PM.c ****         emFile_SPI0_Sleep();
  90              		.loc 1 129 0
  91 0004 FFF7FEFF 		bl	emFile_SPI0_Sleep
 130:Generated_Source\PSoC5/emFile_PM.c ****     #endif /* (emFile_NUMBER_SD_CARDS == 4u) */
 131:Generated_Source\PSoC5/emFile_PM.c **** }
  92              		.loc 1 131 0
  93 0008 00BF     		nop
  94 000a 80BD     		pop	{r7, pc}
  95              		.cfi_endproc
  96              	.LFE65:
  97              		.size	emFile_Sleep, .-emFile_Sleep
ARM GAS  C:\Users\bk\AppData\Local\Temp\ccNX7sI7.s 			page 5


  98              		.section	.text.emFile_Wakeup,"ax",%progbits
  99              		.align	2
 100              		.global	emFile_Wakeup
 101              		.thumb
 102              		.thumb_func
 103              		.type	emFile_Wakeup, %function
 104              	emFile_Wakeup:
 105              	.LFB66:
 132:Generated_Source\PSoC5/emFile_PM.c **** 
 133:Generated_Source\PSoC5/emFile_PM.c **** 
 134:Generated_Source\PSoC5/emFile_PM.c **** /*******************************************************************************
 135:Generated_Source\PSoC5/emFile_PM.c **** * Function Name: emFile_Wakeup
 136:Generated_Source\PSoC5/emFile_PM.c **** ********************************************************************************
 137:Generated_Source\PSoC5/emFile_PM.c **** *
 138:Generated_Source\PSoC5/emFile_PM.c **** * Summary:
 139:Generated_Source\PSoC5/emFile_PM.c **** *  Prepare SPIM Components to wake up.
 140:Generated_Source\PSoC5/emFile_PM.c **** *
 141:Generated_Source\PSoC5/emFile_PM.c **** * Parameters:
 142:Generated_Source\PSoC5/emFile_PM.c **** *  None
 143:Generated_Source\PSoC5/emFile_PM.c **** *
 144:Generated_Source\PSoC5/emFile_PM.c **** * Return:
 145:Generated_Source\PSoC5/emFile_PM.c **** *  None
 146:Generated_Source\PSoC5/emFile_PM.c **** *
 147:Generated_Source\PSoC5/emFile_PM.c **** * Reentrant:
 148:Generated_Source\PSoC5/emFile_PM.c **** *  No
 149:Generated_Source\PSoC5/emFile_PM.c **** *
 150:Generated_Source\PSoC5/emFile_PM.c **** *******************************************************************************/
 151:Generated_Source\PSoC5/emFile_PM.c **** void emFile_Wakeup(void) 
 152:Generated_Source\PSoC5/emFile_PM.c **** {
 106              		.loc 1 152 0
 107              		.cfi_startproc
 108              		@ args = 0, pretend = 0, frame = 0
 109              		@ frame_needed = 1, uses_anonymous_args = 0
 110 0000 80B5     		push	{r7, lr}
 111              		.cfi_def_cfa_offset 8
 112              		.cfi_offset 7, -8
 113              		.cfi_offset 14, -4
 114 0002 00AF     		add	r7, sp, #0
 115              		.cfi_def_cfa_register 7
 153:Generated_Source\PSoC5/emFile_PM.c ****     #if(emFile_NUMBER_SD_CARDS == 4u)
 154:Generated_Source\PSoC5/emFile_PM.c ****         emFile_SPI0_Wakeup();
 155:Generated_Source\PSoC5/emFile_PM.c ****         emFile_SPI1_Wakeup();
 156:Generated_Source\PSoC5/emFile_PM.c ****         emFile_SPI2_Wakeup();
 157:Generated_Source\PSoC5/emFile_PM.c ****         emFile_SPI3_Wakeup();
 158:Generated_Source\PSoC5/emFile_PM.c ****     #elif(emFile_NUMBER_SD_CARDS == 3u)
 159:Generated_Source\PSoC5/emFile_PM.c ****         emFile_SPI0_Wakeup();
 160:Generated_Source\PSoC5/emFile_PM.c ****         emFile_SPI1_Wakeup();
 161:Generated_Source\PSoC5/emFile_PM.c ****         emFile_SPI2_Wakeup();
 162:Generated_Source\PSoC5/emFile_PM.c ****     #elif(emFile_NUMBER_SD_CARDS == 2u)
 163:Generated_Source\PSoC5/emFile_PM.c ****         emFile_SPI0_Wakeup();
 164:Generated_Source\PSoC5/emFile_PM.c ****         emFile_SPI1_Wakeup();
 165:Generated_Source\PSoC5/emFile_PM.c ****     #else
 166:Generated_Source\PSoC5/emFile_PM.c ****         emFile_SPI0_Wakeup();
 116              		.loc 1 166 0
 117 0004 FFF7FEFF 		bl	emFile_SPI0_Wakeup
 167:Generated_Source\PSoC5/emFile_PM.c ****     #endif /* (emFile_NUMBER_SD_CARDS == 4u) */
 168:Generated_Source\PSoC5/emFile_PM.c **** }
ARM GAS  C:\Users\bk\AppData\Local\Temp\ccNX7sI7.s 			page 6


 118              		.loc 1 168 0
 119 0008 00BF     		nop
 120 000a 80BD     		pop	{r7, pc}
 121              		.cfi_endproc
 122              	.LFE66:
 123              		.size	emFile_Wakeup, .-emFile_Wakeup
 124              		.text
 125              	.Letext0:
 126              		.file 2 "c:\\program files (x86)\\cypress\\psoc creator\\4.2\\psoc creator\\import\\gnu\\arm\\5.4.
 127              		.file 3 "c:\\program files (x86)\\cypress\\psoc creator\\4.2\\psoc creator\\import\\gnu\\arm\\5.4.
 128              		.file 4 "Generated_Source\\PSoC5/core_cm3.h"