ARM GAS  C:\Users\bk\AppData\Local\Temp\ccyJ01Ja.s 			page 1


   1              		.syntax unified
   2              		.cpu cortex-m3
   3              		.fpu softvfp
   4              		.eabi_attribute 20, 1
   5              		.eabi_attribute 21, 1
   6              		.eabi_attribute 23, 3
   7              		.eabi_attribute 24, 1
   8              		.eabi_attribute 25, 1
   9              		.eabi_attribute 26, 1
  10              		.eabi_attribute 30, 6
  11              		.eabi_attribute 34, 1
  12              		.eabi_attribute 18, 4
  13              		.thumb
  14              		.syntax unified
  15              		.file	"influx.c"
  16              		.text
  17              	.Ltext0:
  18              		.cfi_sections	.debug_frame
  19              		.comm	debug_string,100,4
  20              		.syntax unified
  21              		.global _printf_float
  22              		.thumb
  23              		.syntax unified
  24              		.comm	dataPointsInStack,2,2
  25              		.comm	data,45056,4
  26              		.section	.rodata
  27              		.align	2
  28              	.LC0:
  29 0000 25732573 		.ascii	"%s%s,node_id=%s, value=%s %ld\012\000"
  29      2C6E6F64 
  29      655F6964 
  29      3D25732C 
  29      2076616C 
  30              		.section	.text.generate_influx_write_body,"ax",%progbits
  31              		.align	2
  32              		.global	generate_influx_write_body
  33              		.thumb
  34              		.thumb_func
  35              		.type	generate_influx_write_body, %function
  36              	generate_influx_write_body:
  37              	.LFB64:
  38              		.file 1 "influx.c"
   1:influx.c      **** #include "influx.h"
   2:influx.c      **** 
   3:influx.c      ****                         
   4:influx.c      ****                         
   5:influx.c      **** unsigned int generate_influx_write_body(char* body, char *node_id){
  39              		.loc 1 5 0
  40              		.cfi_startproc
  41              		@ args = 0, pretend = 0, frame = 24
  42              		@ frame_needed = 1, uses_anonymous_args = 0
  43 0000 90B5     		push	{r4, r7, lr}
  44              		.cfi_def_cfa_offset 12
  45              		.cfi_offset 4, -12
  46              		.cfi_offset 7, -8
  47              		.cfi_offset 14, -4
  48 0002 8BB0     		sub	sp, sp, #44
ARM GAS  C:\Users\bk\AppData\Local\Temp\ccyJ01Ja.s 			page 2


  49              		.cfi_def_cfa_offset 56
  50 0004 04AF     		add	r7, sp, #16
  51              		.cfi_def_cfa 7, 40
  52 0006 7860     		str	r0, [r7, #4]
  53 0008 3960     		str	r1, [r7]
   6:influx.c      ****    
   7:influx.c      ****     unsigned int length = 0;
  54              		.loc 1 7 0
  55 000a 0023     		movs	r3, #0
  56 000c 3B61     		str	r3, [r7, #16]
   8:influx.c      ****     body[0] = '\0';
  57              		.loc 1 8 0
  58 000e 7B68     		ldr	r3, [r7, #4]
  59 0010 0022     		movs	r2, #0
  60 0012 1A70     		strb	r2, [r3]
  61              	.LBB2:
   9:influx.c      ****  
  10:influx.c      **** 
  11:influx.c      ****     
  12:influx.c      ****     //construct influx body
  13:influx.c      ****     for(uint16 i = 0;i<sizeOfDataStack();i++){
  62              		.loc 1 13 0
  63 0014 0023     		movs	r3, #0
  64 0016 FB82     		strh	r3, [r7, #22]	@ movhi
  65 0018 22E0     		b	.L2
  66              	.L3:
  14:influx.c      ****         sprintf(body, "%s%s,node_id=%s, value=%s %ld\n", body, data[i].key, node_id, data[i].value,
  67              		.loc 1 14 0 discriminator 3
  68 001a FB8A     		ldrh	r3, [r7, #22]
  69 001c 2C22     		movs	r2, #44
  70 001e 02FB03F3 		mul	r3, r2, r3
  71 0022 194A     		ldr	r2, .L5
  72 0024 9C18     		adds	r4, r3, r2
  73 0026 FB8A     		ldrh	r3, [r7, #22]
  74 0028 2C22     		movs	r2, #44
  75 002a 02FB03F3 		mul	r3, r2, r3
  76 002e 1033     		adds	r3, r3, #16
  77 0030 154A     		ldr	r2, .L5
  78 0032 1344     		add	r3, r3, r2
  79 0034 0433     		adds	r3, r3, #4
  80 0036 FA8A     		ldrh	r2, [r7, #22]
  81 0038 1349     		ldr	r1, .L5
  82 003a 2C20     		movs	r0, #44
  83 003c 00FB02F2 		mul	r2, r0, r2
  84 0040 0A44     		add	r2, r2, r1
  85 0042 2832     		adds	r2, r2, #40
  86 0044 1268     		ldr	r2, [r2]
  87 0046 0292     		str	r2, [sp, #8]
  88 0048 0193     		str	r3, [sp, #4]
  89 004a 3B68     		ldr	r3, [r7]
  90 004c 0093     		str	r3, [sp]
  91 004e 2346     		mov	r3, r4
  92 0050 7A68     		ldr	r2, [r7, #4]
  93 0052 0E49     		ldr	r1, .L5+4
  94 0054 7868     		ldr	r0, [r7, #4]
  95 0056 FFF7FEFF 		bl	sprintf
  13:influx.c      ****         sprintf(body, "%s%s,node_id=%s, value=%s %ld\n", body, data[i].key, node_id, data[i].value,
ARM GAS  C:\Users\bk\AppData\Local\Temp\ccyJ01Ja.s 			page 3


  96              		.loc 1 13 0 discriminator 3
  97 005a FB8A     		ldrh	r3, [r7, #22]
  98 005c 0133     		adds	r3, r3, #1
  99 005e FB82     		strh	r3, [r7, #22]	@ movhi
 100              	.L2:
  13:influx.c      ****         sprintf(body, "%s%s,node_id=%s, value=%s %ld\n", body, data[i].key, node_id, data[i].value,
 101              		.loc 1 13 0 is_stmt 0 discriminator 1
 102 0060 FFF7FEFF 		bl	sizeOfDataStack
 103 0064 0346     		mov	r3, r0
 104 0066 1A46     		mov	r2, r3
 105 0068 FB8A     		ldrh	r3, [r7, #22]
 106 006a 9342     		cmp	r3, r2
 107 006c D5D3     		bcc	.L3
 108              	.LBE2:
  15:influx.c      ****     }
  16:influx.c      ****     
  17:influx.c      ****     unsigned int request_len = strlen(body);
 109              		.loc 1 17 0 is_stmt 1
 110 006e 7868     		ldr	r0, [r7, #4]
 111 0070 FFF7FEFF 		bl	strlen
 112 0074 F860     		str	r0, [r7, #12]
  18:influx.c      ****    
  19:influx.c      ****     length = strlen(body);
 113              		.loc 1 19 0
 114 0076 7868     		ldr	r0, [r7, #4]
 115 0078 FFF7FEFF 		bl	strlen
 116 007c 3861     		str	r0, [r7, #16]
  20:influx.c      ****     return length;
 117              		.loc 1 20 0
 118 007e 3B69     		ldr	r3, [r7, #16]
  21:influx.c      **** }
 119              		.loc 1 21 0
 120 0080 1846     		mov	r0, r3
 121 0082 1C37     		adds	r7, r7, #28
 122              		.cfi_def_cfa_offset 12
 123 0084 BD46     		mov	sp, r7
 124              		.cfi_def_cfa_register 13
 125              		@ sp needed
 126 0086 90BD     		pop	{r4, r7, pc}
 127              	.L6:
 128              		.align	2
 129              	.L5:
 130 0088 00000000 		.word	data
 131 008c 00000000 		.word	.LC0
 132              		.cfi_endproc
 133              	.LFE64:
 134              		.size	generate_influx_write_body, .-generate_influx_write_body
 135              		.section	.rodata
 136 001f 00       		.align	2
 137              	.LC1:
 138 0020 494E464C 		.ascii	"INFLUX\000"
 138      555800
 139 0027 00       		.align	2
 140              	.LC2:
 141 0028 74657374 		.ascii	"test_reading_1,node_id=XYZ10, value=000 12345\012te"
 141      5F726561 
 141      64696E67 
ARM GAS  C:\Users\bk\AppData\Local\Temp\ccyJ01Ja.s 			page 4


 141      5F312C6E 
 141      6F64655F 
 142 0058 73745F72 		.ascii	"st_reading_2,node_id=XYZ10, value=111 67890\012\000"
 142      65616469 
 142      6E675F32 
 142      2C6E6F64 
 142      655F6964 
 143 0085 000000   		.align	2
 144              	.LC3:
 145 0088 30303000 		.ascii	"000\000"
 146              		.align	2
 147              	.LC4:
 148 008c 74657374 		.ascii	"test_reading_1\000"
 148      5F726561 
 148      64696E67 
 148      5F3100
 149 009b 00       		.align	2
 150              	.LC5:
 151 009c 31313100 		.ascii	"111\000"
 152              		.align	2
 153              	.LC6:
 154 00a0 74657374 		.ascii	"test_reading_2\000"
 154      5F726561 
 154      64696E67 
 154      5F3200
 155 00af 00       		.align	2
 156              	.LC7:
 157 00b0 58595A31 		.ascii	"XYZ10\000"
 157      3000
 158 00b6 0000     		.align	2
 159              	.LC8:
 160 00b8 496E666C 		.ascii	"Influx body generated correctly.\000"
 160      75782062 
 160      6F647920 
 160      67656E65 
 160      72617465 
 161 00d9 000000   		.align	2
 162              	.LC9:
 163 00dc 496E666C 		.ascii	"Influx body could not be generated correctly.\000"
 163      75782062 
 163      6F647920 
 163      636F756C 
 163      64206E6F 
 164              		.section	.text.influx_test,"ax",%progbits
 165              		.align	2
 166              		.global	influx_test
 167              		.thumb
 168              		.thumb_func
 169              		.type	influx_test, %function
 170              	influx_test:
 171              	.LFB65:
  22:influx.c      **** 
  23:influx.c      **** test_t influx_test(){
 172              		.loc 1 23 0
 173              		.cfi_startproc
 174              		@ args = 0, pretend = 0, frame = 608
 175              		@ frame_needed = 1, uses_anonymous_args = 0
ARM GAS  C:\Users\bk\AppData\Local\Temp\ccyJ01Ja.s 			page 5


 176 0000 F0B5     		push	{r4, r5, r6, r7, lr}
 177              		.cfi_def_cfa_offset 20
 178              		.cfi_offset 4, -20
 179              		.cfi_offset 5, -16
 180              		.cfi_offset 6, -12
 181              		.cfi_offset 7, -8
 182              		.cfi_offset 14, -4
 183 0002 ADF5197D 		sub	sp, sp, #612
 184              		.cfi_def_cfa_offset 632
 185 0006 00AF     		add	r7, sp, #0
 186              		.cfi_def_cfa_register 7
 187 0008 3B1D     		adds	r3, r7, #4
 188 000a 1860     		str	r0, [r3]
  24:influx.c      ****     test_t test;
  25:influx.c      ****     test.status = 0u;
 189              		.loc 1 25 0
 190 000c 07F1D403 		add	r3, r7, #212
 191 0010 0022     		movs	r2, #0
 192 0012 83F88020 		strb	r2, [r3, #128]
  26:influx.c      ****     sprintf(test.test_name,"INFLUX");
 193              		.loc 1 26 0
 194 0016 07F1D403 		add	r3, r7, #212
 195 001a 3C4A     		ldr	r2, .L13
 196 001c 92E80300 		ldmia	r2, {r0, r1}
 197 0020 1860     		str	r0, [r3]
 198 0022 0433     		adds	r3, r3, #4
 199 0024 1980     		strh	r1, [r3]	@ movhi
 200 0026 0233     		adds	r3, r3, #2
 201 0028 0A0C     		lsrs	r2, r1, #16
 202 002a 1A70     		strb	r2, [r3]
  27:influx.c      ****     
  28:influx.c      ****     //we'll create a few fake test, generate a string and compare it to a known value
  29:influx.c      ****     char *expected_string = "test_reading_1,node_id=XYZ10, value=000 12345\ntest_reading_2,node_id=
 203              		.loc 1 29 0
 204 002c 384B     		ldr	r3, .L13+4
 205 002e C7F85C32 		str	r3, [r7, #604]
  30:influx.c      ****     
  31:influx.c      ****     Clear_Data_Stack();
 206              		.loc 1 31 0
 207 0032 FFF7FEFF 		bl	Clear_Data_Stack
  32:influx.c      ****     pushData("test_reading_1", "000", 12345);
 208              		.loc 1 32 0
 209 0036 43F23902 		movw	r2, #12345
 210 003a 3649     		ldr	r1, .L13+8
 211 003c 3648     		ldr	r0, .L13+12
 212 003e FFF7FEFF 		bl	pushData
  33:influx.c      ****     pushData("test_reading_2", "111", 67890);
 213              		.loc 1 33 0
 214 0042 364A     		ldr	r2, .L13+16
 215 0044 3649     		ldr	r1, .L13+20
 216 0046 3748     		ldr	r0, .L13+24
 217 0048 FFF7FEFF 		bl	pushData
  34:influx.c      ****     char test_write_body[200];
  35:influx.c      ****     generate_influx_write_body(test_write_body, "XYZ10");
 218              		.loc 1 35 0
 219 004c 07F10C03 		add	r3, r7, #12
 220 0050 3549     		ldr	r1, .L13+28
ARM GAS  C:\Users\bk\AppData\Local\Temp\ccyJ01Ja.s 			page 6


 221 0052 1846     		mov	r0, r3
 222 0054 FFF7FEFF 		bl	generate_influx_write_body
  36:influx.c      ****     
  37:influx.c      ****     //will return zero if strings are identical,
  38:influx.c      ****     int compare = strcmp(test_write_body,expected_string);
 223              		.loc 1 38 0
 224 0058 07F10C03 		add	r3, r7, #12
 225 005c D7F85C12 		ldr	r1, [r7, #604]
 226 0060 1846     		mov	r0, r3
 227 0062 FFF7FEFF 		bl	strcmp
 228 0066 C7F85802 		str	r0, [r7, #600]
  39:influx.c      ****     
  40:influx.c      ****     if(compare == 0){
 229              		.loc 1 40 0
 230 006a D7F85832 		ldr	r3, [r7, #600]
 231 006e 002B     		cmp	r3, #0
 232 0070 1DD1     		bne	.L8
  41:influx.c      ****         test.status = 1u;
 233              		.loc 1 41 0
 234 0072 07F1D403 		add	r3, r7, #212
 235 0076 0122     		movs	r2, #1
 236 0078 83F88020 		strb	r2, [r3, #128]
  42:influx.c      ****         sprintf(test.reason,"Influx body generated correctly.");
 237              		.loc 1 42 0
 238 007c 07F1D403 		add	r3, r7, #212
 239 0080 8133     		adds	r3, r3, #129
 240 0082 2A4A     		ldr	r2, .L13+32
 241 0084 1446     		mov	r4, r2
 242 0086 9E46     		mov	lr, r3
 243 0088 04F1200C 		add	ip, r4, #32
 244              	.L9:
 245 008c 7546     		mov	r5, lr
 246 008e 2646     		mov	r6, r4
 247 0090 0FCE     		ldmia	r6!, {r0, r1, r2, r3}
 248 0092 2860     		str	r0, [r5]	@ unaligned
 249 0094 6960     		str	r1, [r5, #4]	@ unaligned
 250 0096 AA60     		str	r2, [r5, #8]	@ unaligned
 251 0098 EB60     		str	r3, [r5, #12]	@ unaligned
 252 009a 1034     		adds	r4, r4, #16
 253 009c 0EF1100E 		add	lr, lr, #16
 254 00a0 6445     		cmp	r4, ip
 255 00a2 F3D1     		bne	.L9
 256 00a4 7346     		mov	r3, lr
 257 00a6 2246     		mov	r2, r4
 258 00a8 1278     		ldrb	r2, [r2]
 259 00aa 1A70     		strb	r2, [r3]
 260 00ac 1BE0     		b	.L10
 261              	.L8:
  43:influx.c      ****     }else{
  44:influx.c      ****         sprintf(test.reason,"Influx body could not be generated correctly.");
 262              		.loc 1 44 0
 263 00ae 07F1D403 		add	r3, r7, #212
 264 00b2 8133     		adds	r3, r3, #129
 265 00b4 1E4A     		ldr	r2, .L13+36
 266 00b6 1446     		mov	r4, r2
 267 00b8 9E46     		mov	lr, r3
 268 00ba 04F1200C 		add	ip, r4, #32
ARM GAS  C:\Users\bk\AppData\Local\Temp\ccyJ01Ja.s 			page 7


 269              	.L11:
 270 00be 7546     		mov	r5, lr
 271 00c0 2646     		mov	r6, r4
 272 00c2 0FCE     		ldmia	r6!, {r0, r1, r2, r3}
 273 00c4 2860     		str	r0, [r5]	@ unaligned
 274 00c6 6960     		str	r1, [r5, #4]	@ unaligned
 275 00c8 AA60     		str	r2, [r5, #8]	@ unaligned
 276 00ca EB60     		str	r3, [r5, #12]	@ unaligned
 277 00cc 1034     		adds	r4, r4, #16
 278 00ce 0EF1100E 		add	lr, lr, #16
 279 00d2 6445     		cmp	r4, ip
 280 00d4 F3D1     		bne	.L11
 281 00d6 7546     		mov	r5, lr
 282 00d8 2346     		mov	r3, r4
 283 00da 07CB     		ldmia	r3!, {r0, r1, r2}
 284 00dc 2860     		str	r0, [r5]	@ unaligned
 285 00de 6960     		str	r1, [r5, #4]	@ unaligned
 286 00e0 AA60     		str	r2, [r5, #8]	@ unaligned
 287 00e2 1B88     		ldrh	r3, [r3]	@ unaligned
 288 00e4 AB81     		strh	r3, [r5, #12]	@ unaligned
 289              	.L10:
  45:influx.c      ****     }
  46:influx.c      ****     
  47:influx.c      ****     Clear_Data_Stack();
 290              		.loc 1 47 0
 291 00e6 FFF7FEFF 		bl	Clear_Data_Stack
  48:influx.c      ****     
  49:influx.c      ****     return test;
 292              		.loc 1 49 0
 293 00ea 3B1D     		adds	r3, r7, #4
 294 00ec 1A68     		ldr	r2, [r3]
 295 00ee 07F1D403 		add	r3, r7, #212
 296 00f2 1046     		mov	r0, r2
 297 00f4 1946     		mov	r1, r3
 298 00f6 40F28113 		movw	r3, #385
 299 00fa 1A46     		mov	r2, r3
 300 00fc FFF7FEFF 		bl	memcpy
  50:influx.c      **** }...
 301              		.loc 1 50 0
 302 0100 3B1D     		adds	r3, r7, #4
 303 0102 1868     		ldr	r0, [r3]
 304 0104 07F51977 		add	r7, r7, #612
 305              		.cfi_def_cfa_offset 20
 306 0108 BD46     		mov	sp, r7
 307              		.cfi_def_cfa_register 13
 308              		@ sp needed
 309 010a F0BD     		pop	{r4, r5, r6, r7, pc}
 310              	.L14:
 311              		.align	2
 312              	.L13:
 313 010c 20000000 		.word	.LC1
 314 0110 28000000 		.word	.LC2
 315 0114 88000000 		.word	.LC3
 316 0118 8C000000 		.word	.LC4
 317 011c 32090100 		.word	67890
 318 0120 9C000000 		.word	.LC5
 319 0124 A0000000 		.word	.LC6
ARM GAS  C:\Users\bk\AppData\Local\Temp\ccyJ01Ja.s 			page 8


 320 0128 B0000000 		.word	.LC7
 321 012c B8000000 		.word	.LC8
 322 0130 DC000000 		.word	.LC9
 323              		.cfi_endproc
 324              	.LFE65:
 325              		.size	influx_test, .-influx_test
 326              		.text
 327              	.Letext0:
 328              		.file 2 "c:\\program files (x86)\\cypress\\psoc creator\\4.3\\psoc creator\\import\\gnu\\arm\\5.4.
 329              		.file 3 "c:\\program files (x86)\\cypress\\psoc creator\\4.3\\psoc creator\\import\\gnu\\arm\\5.4.
 330              		.file 4 "Generated_Source\\PSoC5/cytypes.h"
 331              		.file 5 "testing.h"
 332              		.file 6 "data.h"
 333              		.file 7 "Generated_Source\\PSoC5/core_cm3.h"
 334              		.file 8 "debug.h"