ARM GAS  C:\Users\HYFI_A~1\AppData\Local\Temp\ccnQlG3o.s 			page 1


   1              		.syntax unified
   2              		.cpu cortex-m3
   3              		.fpu softvfp
   4              		.eabi_attribute 20, 1
   5              		.eabi_attribute 21, 1
   6              		.eabi_attribute 23, 3
   7              		.eabi_attribute 24, 1
   8              		.eabi_attribute 25, 1
   9              		.eabi_attribute 26, 1
  10              		.eabi_attribute 30, 6
  11              		.eabi_attribute 34, 1
  12              		.eabi_attribute 18, 4
  13              		.thumb
  14              		.syntax unified
  15              		.file	"level_sensor.c"
  16              		.text
  17              	.Ltext0:
  18              		.cfi_sections	.debug_frame
  19              		.comm	debug_string,100,4
  20              		.syntax unified
  21              		.global _printf_float
  22              		.thumb
  23              		.syntax unified
  24              		.comm	modem_state,1,1
  25              		.comm	modem_start_time_stamp,4,4
  26              		.comm	modem_info,60,4
  27              		.comm	modem_stats,12,4
  28              		.comm	dataPointsInStack,2,2
  29              		.comm	data,440,4
  30              		.bss
  31              		.align	2
  32              	uart_chars:
  33 0000 00000000 		.space	257
  33      00000000 
  33      00000000 
  33      00000000 
  33      00000000 
  34              	num_chars:
  35 0101 00       		.space	1
  36              		.data
  37              		.align	2
  38              		.type	line, %object
  39              		.size	line, 4
  40              	line:
  41 0000 00000000 		.word	uart_chars
  42              		.bss
  43 0102 0000     		.align	2
  44              	match:
  45 0104 00000000 		.space	4
  46              		.align	2
  47              	pattern:
  48 0108 00000000 		.space	4
  49              		.section	.text.uart_string,"ax",%progbits
  50              		.align	2
  51              		.global	uart_string
  52              		.thumb
  53              		.thumb_func
ARM GAS  C:\Users\HYFI_A~1\AppData\Local\Temp\ccnQlG3o.s 			page 2


  54              		.type	uart_string, %function
  55              	uart_string:
  56              	.LFB64:
  57              		.file 1 "level_sensor.c"
   1:level_sensor.c **** #include "level_sensor.h"
   2:level_sensor.c **** #include <assert.h>
   3:level_sensor.c **** #include <stdint.h>
   4:level_sensor.c **** #include <stdbool.h>
   5:level_sensor.c **** #include <math.h>
   6:level_sensor.c **** #include <stdio.h>
   7:level_sensor.c **** #include "level_sensor.h"
   8:level_sensor.c **** #include "notoriOS.h"
   9:level_sensor.c **** #include "project.h"
  10:level_sensor.c **** 
  11:level_sensor.c **** 
  12:level_sensor.c **** /* === Driver Functions === */
  13:level_sensor.c **** 
  14:level_sensor.c **** //sensor realated global calls
  15:level_sensor.c **** 
  16:level_sensor.c **** 
  17:level_sensor.c **** 
  18:level_sensor.c **** 
  19:level_sensor.c **** /* Circular buffer of recently received chars */
  20:level_sensor.c **** static char uart_chars[257] = {0};
  21:level_sensor.c **** static uint8_t num_chars = 0;
  22:level_sensor.c **** 
  23:level_sensor.c **** static const char *line = uart_chars;
  24:level_sensor.c **** static const char *match = NULL;
  25:level_sensor.c **** static const char *pattern = NULL;
  26:level_sensor.c **** 
  27:level_sensor.c **** 
  28:level_sensor.c **** 
  29:level_sensor.c **** const char *uart_string(void) {
  58              		.loc 1 29 0
  59              		.cfi_startproc
  60              		@ args = 0, pretend = 0, frame = 0
  61              		@ frame_needed = 1, uses_anonymous_args = 0
  62              		@ link register save eliminated.
  63 0000 80B4     		push	{r7}
  64              		.cfi_def_cfa_offset 4
  65              		.cfi_offset 7, -4
  66 0002 00AF     		add	r7, sp, #0
  67              		.cfi_def_cfa_register 7
  30:level_sensor.c ****   return (char*)uart_chars;
  68              		.loc 1 30 0
  69 0004 024B     		ldr	r3, .L3
  31:level_sensor.c **** }
  70              		.loc 1 31 0
  71 0006 1846     		mov	r0, r3
  72 0008 BD46     		mov	sp, r7
  73              		.cfi_def_cfa_register 13
  74              		@ sp needed
  75 000a 80BC     		pop	{r7}
  76              		.cfi_restore 7
  77              		.cfi_def_cfa_offset 0
  78 000c 7047     		bx	lr
  79              	.L4:
ARM GAS  C:\Users\HYFI_A~1\AppData\Local\Temp\ccnQlG3o.s 			page 3


  80 000e 00BF     		.align	2
  81              	.L3:
  82 0010 00000000 		.word	uart_chars
  83              		.cfi_endproc
  84              	.LFE64:
  85              		.size	uart_string, .-uart_string
  86              		.section	.text.uart_len,"ax",%progbits
  87              		.align	2
  88              		.global	uart_len
  89              		.thumb
  90              		.thumb_func
  91              		.type	uart_len, %function
  92              	uart_len:
  93              	.LFB65:
  32:level_sensor.c **** 
  33:level_sensor.c **** uint8_t uart_len(void) {
  94              		.loc 1 33 0
  95              		.cfi_startproc
  96              		@ args = 0, pretend = 0, frame = 0
  97              		@ frame_needed = 1, uses_anonymous_args = 0
  98              		@ link register save eliminated.
  99 0000 80B4     		push	{r7}
 100              		.cfi_def_cfa_offset 4
 101              		.cfi_offset 7, -4
 102 0002 00AF     		add	r7, sp, #0
 103              		.cfi_def_cfa_register 7
  34:level_sensor.c ****   return num_chars;
 104              		.loc 1 34 0
 105 0004 024B     		ldr	r3, .L7
 106 0006 1B78     		ldrb	r3, [r3]	@ zero_extendqisi2
  35:level_sensor.c **** }
 107              		.loc 1 35 0
 108 0008 1846     		mov	r0, r3
 109 000a BD46     		mov	sp, r7
 110              		.cfi_def_cfa_register 13
 111              		@ sp needed
 112 000c 80BC     		pop	{r7}
 113              		.cfi_restore 7
 114              		.cfi_def_cfa_offset 0
 115 000e 7047     		bx	lr
 116              	.L8:
 117              		.align	2
 118              	.L7:
 119 0010 01010000 		.word	num_chars
 120              		.cfi_endproc
 121              	.LFE65:
 122              		.size	uart_len, .-uart_len
 123              		.section	.text.uart_clear,"ax",%progbits
 124              		.align	2
 125              		.global	uart_clear
 126              		.thumb
 127              		.thumb_func
 128              		.type	uart_clear, %function
 129              	uart_clear:
 130              	.LFB66:
  36:level_sensor.c **** 
  37:level_sensor.c **** void uart_clear(void) {
ARM GAS  C:\Users\HYFI_A~1\AppData\Local\Temp\ccnQlG3o.s 			page 4


 131              		.loc 1 37 0
 132              		.cfi_startproc
 133              		@ args = 0, pretend = 0, frame = 0
 134              		@ frame_needed = 1, uses_anonymous_args = 0
 135 0000 80B5     		push	{r7, lr}
 136              		.cfi_def_cfa_offset 8
 137              		.cfi_offset 7, -8
 138              		.cfi_offset 14, -4
 139 0002 00AF     		add	r7, sp, #0
 140              		.cfi_def_cfa_register 7
  38:level_sensor.c ****   Level_Sensor_UART_ClearRxBuffer();
 141              		.loc 1 38 0
 142 0004 FFF7FEFF 		bl	Level_Sensor_UART_ClearRxBuffer
  39:level_sensor.c ****   memset((void*)uart_chars, 0, 256);
 143              		.loc 1 39 0
 144 0008 4FF48072 		mov	r2, #256
 145 000c 0021     		movs	r1, #0
 146 000e 0448     		ldr	r0, .L10
 147 0010 FFF7FEFF 		bl	memset
  40:level_sensor.c ****   num_chars = 0;
 148              		.loc 1 40 0
 149 0014 034B     		ldr	r3, .L10+4
 150 0016 0022     		movs	r2, #0
 151 0018 1A70     		strb	r2, [r3]
  41:level_sensor.c **** }
 152              		.loc 1 41 0
 153 001a 00BF     		nop
 154 001c 80BD     		pop	{r7, pc}
 155              	.L11:
 156 001e 00BF     		.align	2
 157              	.L10:
 158 0020 00000000 		.word	uart_chars
 159 0024 01010000 		.word	num_chars
 160              		.cfi_endproc
 161              	.LFE66:
 162              		.size	uart_clear, .-uart_clear
 163              		.section	.text.Level_Sensor_ISR,"ax",%progbits
 164              		.align	2
 165              		.global	Level_Sensor_ISR
 166              		.thumb
 167              		.thumb_func
 168              		.type	Level_Sensor_ISR, %function
 169              	Level_Sensor_ISR:
 170              	.LFB67:
  42:level_sensor.c **** 
  43:level_sensor.c **** CY_ISR(Level_Sensor_ISR) {
 171              		.loc 1 43 0
 172              		.cfi_startproc
 173              		@ args = 0, pretend = 0, frame = 8
 174              		@ frame_needed = 1, uses_anonymous_args = 0
 175 0000 80B5     		push	{r7, lr}
 176              		.cfi_def_cfa_offset 8
 177              		.cfi_offset 7, -8
 178              		.cfi_offset 14, -4
 179 0002 82B0     		sub	sp, sp, #8
 180              		.cfi_def_cfa_offset 16
 181 0004 00AF     		add	r7, sp, #0
ARM GAS  C:\Users\HYFI_A~1\AppData\Local\Temp\ccnQlG3o.s 			page 5


 182              		.cfi_def_cfa_register 7
  44:level_sensor.c ****   /* Store received char in uart_chars */
  45:level_sensor.c ****   char rx_char = Level_Sensor_UART_GetChar();
 183              		.loc 1 45 0
 184 0006 FFF7FEFF 		bl	Level_Sensor_UART_GetChar
 185 000a 0346     		mov	r3, r0
 186 000c FB71     		strb	r3, [r7, #7]
  46:level_sensor.c ****   if (rx_char) uart_chars[num_chars++] = rx_char;
 187              		.loc 1 46 0
 188 000e FB79     		ldrb	r3, [r7, #7]	@ zero_extendqisi2
 189 0010 002B     		cmp	r3, #0
 190 0012 09D0     		beq	.L13
 191              		.loc 1 46 0 is_stmt 0 discriminator 1
 192 0014 114B     		ldr	r3, .L16
 193 0016 1B78     		ldrb	r3, [r3]	@ zero_extendqisi2
 194 0018 5A1C     		adds	r2, r3, #1
 195 001a D1B2     		uxtb	r1, r2
 196 001c 0F4A     		ldr	r2, .L16
 197 001e 1170     		strb	r1, [r2]
 198 0020 1946     		mov	r1, r3
 199 0022 0F4A     		ldr	r2, .L16+4
 200 0024 FB79     		ldrb	r3, [r7, #7]
 201 0026 5354     		strb	r3, [r2, r1]
 202              	.L13:
  47:level_sensor.c **** 
  48:level_sensor.c ****   /* Check pattern at end of line */
  49:level_sensor.c ****   if (rx_char == '\r') {
 203              		.loc 1 49 0 is_stmt 1
 204 0028 FB79     		ldrb	r3, [r7, #7]	@ zero_extendqisi2
 205 002a 0D2B     		cmp	r3, #13
 206 002c 11D1     		bne	.L15
  50:level_sensor.c ****     match = strstr(line, pattern);
 207              		.loc 1 50 0
 208 002e 0D4B     		ldr	r3, .L16+8
 209 0030 1A68     		ldr	r2, [r3]
 210 0032 0D4B     		ldr	r3, .L16+12
 211 0034 1B68     		ldr	r3, [r3]
 212 0036 1946     		mov	r1, r3
 213 0038 1046     		mov	r0, r2
 214 003a FFF7FEFF 		bl	strstr
 215 003e 0246     		mov	r2, r0
 216 0040 0A4B     		ldr	r3, .L16+16
 217 0042 1A60     		str	r2, [r3]
  51:level_sensor.c ****     line = uart_chars + num_chars;
 218              		.loc 1 51 0
 219 0044 054B     		ldr	r3, .L16
 220 0046 1B78     		ldrb	r3, [r3]	@ zero_extendqisi2
 221 0048 1A46     		mov	r2, r3
 222 004a 054B     		ldr	r3, .L16+4
 223 004c 1344     		add	r3, r3, r2
 224 004e 054A     		ldr	r2, .L16+8
 225 0050 1360     		str	r3, [r2]
 226              	.L15:
  52:level_sensor.c ****   }
  53:level_sensor.c **** }
 227              		.loc 1 53 0
 228 0052 00BF     		nop
ARM GAS  C:\Users\HYFI_A~1\AppData\Local\Temp\ccnQlG3o.s 			page 6


 229 0054 0837     		adds	r7, r7, #8
 230              		.cfi_def_cfa_offset 8
 231 0056 BD46     		mov	sp, r7
 232              		.cfi_def_cfa_register 13
 233              		@ sp needed
 234 0058 80BD     		pop	{r7, pc}
 235              	.L17:
 236 005a 00BF     		.align	2
 237              	.L16:
 238 005c 01010000 		.word	num_chars
 239 0060 00000000 		.word	uart_chars
 240 0064 00000000 		.word	line
 241 0068 08010000 		.word	pattern
 242 006c 04010000 		.word	match
 243              		.cfi_endproc
 244              	.LFE67:
 245              		.size	Level_Sensor_ISR, .-Level_Sensor_ISR
 246              		.section	.rodata
 247              		.align	2
 248              	.LC0:
 249 0000 5200     		.ascii	"R\000"
 250              		.section	.text.level_sensor_take_reading,"ax",%progbits
 251              		.align	2
 252              		.global	level_sensor_take_reading
 253              		.thumb
 254              		.thumb_func
 255              		.type	level_sensor_take_reading, %function
 256              	level_sensor_take_reading:
 257              	.LFB68:
  54:level_sensor.c **** 
  55:level_sensor.c **** 
  56:level_sensor.c **** level_sensor_t level_sensor_take_reading(){
 258              		.loc 1 56 0
 259              		.cfi_startproc
 260              		@ args = 0, pretend = 0, frame = 40
 261              		@ frame_needed = 1, uses_anonymous_args = 0
 262 0000 B0B5     		push	{r4, r5, r7, lr}
 263              		.cfi_def_cfa_offset 16
 264              		.cfi_offset 4, -16
 265              		.cfi_offset 5, -12
 266              		.cfi_offset 7, -8
 267              		.cfi_offset 14, -4
 268 0002 8AB0     		sub	sp, sp, #40
 269              		.cfi_def_cfa_offset 56
 270 0004 00AF     		add	r7, sp, #0
 271              		.cfi_def_cfa_register 7
 272 0006 7860     		str	r0, [r7, #4]
  57:level_sensor.c ****     
  58:level_sensor.c ****     
  59:level_sensor.c ****     level_sensor_t level_sensor_output;
  60:level_sensor.c ****     level_sensor_output.num_invalid_readings = 0;
 273              		.loc 1 60 0
 274 0008 0023     		movs	r3, #0
 275 000a 87F82130 		strb	r3, [r7, #33]
  61:level_sensor.c ****     level_sensor_output.num_valid_readings = 0;
 276              		.loc 1 61 0
 277 000e 0023     		movs	r3, #0
ARM GAS  C:\Users\HYFI_A~1\AppData\Local\Temp\ccnQlG3o.s 			page 7


 278 0010 87F82030 		strb	r3, [r7, #32]
  62:level_sensor.c ****     
  63:level_sensor.c ****     uart_clear();
 279              		.loc 1 63 0
 280 0014 FFF7FEFF 		bl	uart_clear
  64:level_sensor.c ****     
  65:level_sensor.c ****     //start sensor power, uart, and isr
  66:level_sensor.c ****     Level_Sensor_Power_Write(ON);
 281              		.loc 1 66 0
 282 0018 0120     		movs	r0, #1
 283 001a FFF7FEFF 		bl	Level_Sensor_Power_Write
  67:level_sensor.c ****     CyDelay(200u);//sensor bootup sequence ~200ms -- senosor will spit out ID info, but we don't ne
 284              		.loc 1 67 0
 285 001e C820     		movs	r0, #200
 286 0020 FFF7FEFF 		bl	CyDelay
  68:level_sensor.c ****     Level_Sensor_RX_SetDriveMode(PIN_DM_DIG_HIZ);
 287              		.loc 1 68 0
 288 0024 0220     		movs	r0, #2
 289 0026 FFF7FEFF 		bl	Level_Sensor_RX_SetDriveMode
  69:level_sensor.c ****     Level_Sensor_UART_Start();
 290              		.loc 1 69 0
 291 002a FFF7FEFF 		bl	Level_Sensor_UART_Start
  70:level_sensor.c ****     Level_Sensor_ISR_StartEx(Level_Sensor_ISR);
 292              		.loc 1 70 0
 293 002e 3848     		ldr	r0, .L27
 294 0030 FFF7FEFF 		bl	Level_Sensor_ISR_StartEx
  71:level_sensor.c ****     
  72:level_sensor.c ****     //wait to take  reading
  73:level_sensor.c ****     //sensor will take ~200ms to send first reading, and 200ms for subsequent readings
  74:level_sensor.c ****     CyDelay(2000u);//take a few seconds to get readings, 2 secs ~10 readings
 295              		.loc 1 74 0
 296 0034 4FF4FA60 		mov	r0, #2000
 297 0038 FFF7FEFF 		bl	CyDelay
  75:level_sensor.c ****     
  76:level_sensor.c ****     //stop all sensor processes
  77:level_sensor.c ****     Level_Sensor_UART_Stop();
 298              		.loc 1 77 0
 299 003c FFF7FEFF 		bl	Level_Sensor_UART_Stop
  78:level_sensor.c ****     Level_Sensor_ISR_Stop();
 300              		.loc 1 78 0
 301 0040 FFF7FEFF 		bl	Level_Sensor_ISR_Stop
  79:level_sensor.c ****     Level_Sensor_Power_Write(OFF);
 302              		.loc 1 79 0
 303 0044 0020     		movs	r0, #0
 304 0046 FFF7FEFF 		bl	Level_Sensor_Power_Write
  80:level_sensor.c ****     Level_Sensor_RX_SetDriveMode(PIN_DM_STRONG);
 305              		.loc 1 80 0
 306 004a 0C20     		movs	r0, #12
 307 004c FFF7FEFF 		bl	Level_Sensor_RX_SetDriveMode
  81:level_sensor.c ****     Level_Sensor_RX_Write(OFF);
 308              		.loc 1 81 0
 309 0050 0020     		movs	r0, #0
 310 0052 FFF7FEFF 		bl	Level_Sensor_RX_Write
  82:level_sensor.c **** 
  83:level_sensor.c ****     /* Return parsed reading */
  84:level_sensor.c ****     //parse string and put all values into array
  85:level_sensor.c ****     //the sensor will power on and do a few things, after which the readigs will follow with the se
ARM GAS  C:\Users\HYFI_A~1\AppData\Local\Temp\ccnQlG3o.s 			page 8


  86:level_sensor.c ****     //readings are stashed between "R" and "\000"
  87:level_sensor.c ****     char *token;
  88:level_sensor.c ****     token = strtok(uart_chars, "R");
 311              		.loc 1 88 0
 312 0056 2F49     		ldr	r1, .L27+4
 313 0058 2F48     		ldr	r0, .L27+8
 314 005a FFF7FEFF 		bl	strtok
 315 005e 7862     		str	r0, [r7, #36]
  89:level_sensor.c ****     /* walk through other tokens */
  90:level_sensor.c ****    while( token != NULL ) 
 316              		.loc 1 90 0
 317 0060 33E0     		b	.L19
 318              	.L24:
  91:level_sensor.c ****    {
  92:level_sensor.c ****       if(strstr(token, "\r") != NULL){//full reading is delimieted by "R" + reading + "\r"
 319              		.loc 1 92 0
 320 0062 0D21     		movs	r1, #13
 321 0064 786A     		ldr	r0, [r7, #36]
 322 0066 FFF7FEFF 		bl	strchr
 323 006a 0346     		mov	r3, r0
 324 006c 002B     		cmp	r3, #0
 325 006e 27D0     		beq	.L20
 326              	.LBB2:
  93:level_sensor.c ****         uint16 reading = atoi(token);
 327              		.loc 1 93 0
 328 0070 786A     		ldr	r0, [r7, #36]
 329 0072 FFF7FEFF 		bl	atoi
 330 0076 0346     		mov	r3, r0
 331 0078 7B84     		strh	r3, [r7, #34]	@ movhi
  94:level_sensor.c ****         if(reading != 0){
 332              		.loc 1 94 0
 333 007a 7B8C     		ldrh	r3, [r7, #34]
 334 007c 002B     		cmp	r3, #0
 335 007e 1FD0     		beq	.L20
  95:level_sensor.c ****             if(reading != READING_INVALID){//invald readings by maxbotix
 336              		.loc 1 95 0
 337 0080 7B8C     		ldrh	r3, [r7, #34]
 338 0082 42F20F72 		movw	r2, #9999
 339 0086 9342     		cmp	r3, r2
 340 0088 14D0     		beq	.L21
  96:level_sensor.c ****                 level_sensor_output.all_level_readings[level_sensor_output.num_valid_readings] = re
 341              		.loc 1 96 0
 342 008a 97F82030 		ldrb	r3, [r7, #32]	@ zero_extendqisi2
 343 008e B7F92220 		ldrsh	r2, [r7, #34]
 344 0092 5B00     		lsls	r3, r3, #1
 345 0094 07F12801 		add	r1, r7, #40
 346 0098 0B44     		add	r3, r3, r1
 347 009a 23F8202C 		strh	r2, [r3, #-32]	@ movhi
  97:level_sensor.c ****                 if(level_sensor_output.num_valid_readings < N_READINGS){
 348              		.loc 1 97 0
 349 009e 97F82030 		ldrb	r3, [r7, #32]	@ zero_extendqisi2
 350 00a2 0A2B     		cmp	r3, #10
 351 00a4 15D8     		bhi	.L26
  98:level_sensor.c ****                     level_sensor_output.num_valid_readings++;
 352              		.loc 1 98 0
 353 00a6 97F82030 		ldrb	r3, [r7, #32]	@ zero_extendqisi2
 354 00aa 0133     		adds	r3, r3, #1
ARM GAS  C:\Users\HYFI_A~1\AppData\Local\Temp\ccnQlG3o.s 			page 9


 355 00ac DBB2     		uxtb	r3, r3
 356 00ae 87F82030 		strb	r3, [r7, #32]
 357 00b2 05E0     		b	.L20
 358              	.L21:
  99:level_sensor.c ****                 }else{
 100:level_sensor.c ****                  break;   
 101:level_sensor.c ****                 }
 102:level_sensor.c ****                 
 103:level_sensor.c ****             }else{
 104:level_sensor.c ****                 level_sensor_output.num_invalid_readings++;
 359              		.loc 1 104 0
 360 00b4 97F82130 		ldrb	r3, [r7, #33]	@ zero_extendqisi2
 361 00b8 0133     		adds	r3, r3, #1
 362 00ba DBB2     		uxtb	r3, r3
 363 00bc 87F82130 		strb	r3, [r7, #33]
 364              	.L20:
 365              	.LBE2:
 105:level_sensor.c ****             }
 106:level_sensor.c ****         }
 107:level_sensor.c ****       }
 108:level_sensor.c ****       token = strtok(NULL, "R");
 366              		.loc 1 108 0
 367 00c0 1449     		ldr	r1, .L27+4
 368 00c2 0020     		movs	r0, #0
 369 00c4 FFF7FEFF 		bl	strtok
 370 00c8 7862     		str	r0, [r7, #36]
 371              	.L19:
  90:level_sensor.c ****    {
 372              		.loc 1 90 0
 373 00ca 7B6A     		ldr	r3, [r7, #36]
 374 00cc 002B     		cmp	r3, #0
 375 00ce C8D1     		bne	.L24
 376 00d0 00E0     		b	.L23
 377              	.L26:
 378              	.LBB3:
 100:level_sensor.c ****                 }
 379              		.loc 1 100 0
 380 00d2 00BF     		nop
 381              	.L23:
 382              	.LBE3:
 109:level_sensor.c ****    }
 110:level_sensor.c ****     //calculate median
 111:level_sensor.c ****     level_sensor_output.level_reading = find_median(level_sensor_output.all_level_readings,level_se
 383              		.loc 1 111 0
 384 00d4 97F82020 		ldrb	r2, [r7, #32]	@ zero_extendqisi2
 385 00d8 07F10803 		add	r3, r7, #8
 386 00dc 1146     		mov	r1, r2
 387 00de 1846     		mov	r0, r3
 388 00e0 FFF7FEFF 		bl	find_median
 389 00e4 0346     		mov	r3, r0
 390 00e6 1BB2     		sxth	r3, r3
 391 00e8 FB83     		strh	r3, [r7, #30]	@ movhi
 112:level_sensor.c ****  
 113:level_sensor.c ****     return level_sensor_output;
 392              		.loc 1 113 0
 393 00ea 7B68     		ldr	r3, [r7, #4]
 394 00ec 1D46     		mov	r5, r3
ARM GAS  C:\Users\HYFI_A~1\AppData\Local\Temp\ccnQlG3o.s 			page 10


 395 00ee 07F10804 		add	r4, r7, #8
 396 00f2 0FCC     		ldmia	r4!, {r0, r1, r2, r3}
 397 00f4 2860     		str	r0, [r5]	@ unaligned
 398 00f6 6960     		str	r1, [r5, #4]	@ unaligned
 399 00f8 AA60     		str	r2, [r5, #8]	@ unaligned
 400 00fa EB60     		str	r3, [r5, #12]	@ unaligned
 401 00fc 03CC     		ldmia	r4!, {r0, r1}
 402 00fe 2861     		str	r0, [r5, #16]	@ unaligned
 403 0100 6961     		str	r1, [r5, #20]	@ unaligned
 404 0102 2388     		ldrh	r3, [r4]	@ unaligned
 405 0104 2B83     		strh	r3, [r5, #24]	@ unaligned
 114:level_sensor.c **** }
 406              		.loc 1 114 0
 407 0106 7868     		ldr	r0, [r7, #4]
 408 0108 2837     		adds	r7, r7, #40
 409              		.cfi_def_cfa_offset 16
 410 010a BD46     		mov	sp, r7
 411              		.cfi_def_cfa_register 13
 412              		@ sp needed
 413 010c B0BD     		pop	{r4, r5, r7, pc}
 414              	.L28:
 415 010e 00BF     		.align	2
 416              	.L27:
 417 0110 00000000 		.word	Level_Sensor_ISR
 418 0114 00000000 		.word	.LC0
 419 0118 00000000 		.word	uart_chars
 420              		.cfi_endproc
 421              	.LFE68:
 422              		.size	level_sensor_take_reading, .-level_sensor_take_reading
 423              		.section	.rodata
 424 0002 0000     		.align	2
 425              	.LC1:
 426 0004 54455354 		.ascii	"TEST_LEVEL_SENSOR\000"
 426      5F4C4556 
 426      454C5F53 
 426      454E534F 
 426      5200
 427 0016 0000     		.align	2
 428              	.LC2:
 429 0018 6E57414E 		.ascii	"nWANTED=%d,nRECEIVED=%d,nVALID=%d,nMEDIAN=%d.\000"
 429      5445443D 
 429      25642C6E 
 429      52454345 
 429      49564544 
 430              		.section	.text.level_sensor_test,"ax",%progbits
 431              		.align	2
 432              		.global	level_sensor_test
 433              		.thumb
 434              		.thumb_func
 435              		.type	level_sensor_test, %function
 436              	level_sensor_test:
 437              	.LFB69:
 115:level_sensor.c **** 
 116:level_sensor.c **** 
 117:level_sensor.c **** test_t level_sensor_test(){
 438              		.loc 1 117 0
 439              		.cfi_startproc
ARM GAS  C:\Users\HYFI_A~1\AppData\Local\Temp\ccnQlG3o.s 			page 11


 440              		@ args = 0, pretend = 0, frame = 424
 441              		@ frame_needed = 1, uses_anonymous_args = 0
 442 0000 B0B5     		push	{r4, r5, r7, lr}
 443              		.cfi_def_cfa_offset 16
 444              		.cfi_offset 4, -16
 445              		.cfi_offset 5, -12
 446              		.cfi_offset 7, -8
 447              		.cfi_offset 14, -4
 448 0002 ECB0     		sub	sp, sp, #432
 449              		.cfi_def_cfa_offset 448
 450 0004 02AF     		add	r7, sp, #8
 451              		.cfi_def_cfa 7, 440
 452 0006 3B1D     		adds	r3, r7, #4
 453 0008 1860     		str	r0, [r3]
 118:level_sensor.c ****     test_t test;
 119:level_sensor.c ****     test.status = 0;
 454              		.loc 1 119 0
 455 000a 07F12403 		add	r3, r7, #36
 456 000e 0022     		movs	r2, #0
 457 0010 83F88020 		strb	r2, [r3, #128]
 120:level_sensor.c ****     sprintf(test.test_name,"TEST_LEVEL_SENSOR");
 458              		.loc 1 120 0
 459 0014 07F12403 		add	r3, r7, #36
 460 0018 294A     		ldr	r2, .L33
 461 001a 1C46     		mov	r4, r3
 462 001c 1546     		mov	r5, r2
 463 001e 0FCD     		ldmia	r5!, {r0, r1, r2, r3}
 464 0020 0FC4     		stmia	r4!, {r0, r1, r2, r3}
 465 0022 2B68     		ldr	r3, [r5]
 466 0024 2380     		strh	r3, [r4]	@ movhi
 121:level_sensor.c **** 
 122:level_sensor.c ****     level_sensor_t sensor = level_sensor_take_reading();
 467              		.loc 1 122 0
 468 0026 07F10803 		add	r3, r7, #8
 469 002a 1846     		mov	r0, r3
 470 002c FFF7FEFF 		bl	level_sensor_take_reading
 123:level_sensor.c ****     
 124:level_sensor.c ****     sprintf(test.reason,"nWANTED=%d,nRECEIVED=%d,nVALID=%d,nMEDIAN=%d.",
 125:level_sensor.c ****         N_READINGS,
 126:level_sensor.c ****         sensor.num_valid_readings+sensor.num_invalid_readings,
 471              		.loc 1 126 0
 472 0030 07F10803 		add	r3, r7, #8
 473 0034 1B7E     		ldrb	r3, [r3, #24]	@ zero_extendqisi2
 124:level_sensor.c ****         N_READINGS,
 474              		.loc 1 124 0
 475 0036 1A46     		mov	r2, r3
 476              		.loc 1 126 0
 477 0038 07F10803 		add	r3, r7, #8
 478 003c 5B7E     		ldrb	r3, [r3, #25]	@ zero_extendqisi2
 124:level_sensor.c ****         N_READINGS,
 479              		.loc 1 124 0
 480 003e 1A44     		add	r2, r2, r3
 127:level_sensor.c ****         sensor.num_valid_readings,
 481              		.loc 1 127 0
 482 0040 07F10803 		add	r3, r7, #8
 483 0044 1B7E     		ldrb	r3, [r3, #24]	@ zero_extendqisi2
 124:level_sensor.c ****         N_READINGS,
ARM GAS  C:\Users\HYFI_A~1\AppData\Local\Temp\ccnQlG3o.s 			page 12


 484              		.loc 1 124 0
 485 0046 1946     		mov	r1, r3
 128:level_sensor.c ****         sensor.level_reading
 486              		.loc 1 128 0
 487 0048 07F10803 		add	r3, r7, #8
 488 004c B3F91630 		ldrsh	r3, [r3, #22]
 124:level_sensor.c ****         N_READINGS,
 489              		.loc 1 124 0
 490 0050 1C46     		mov	r4, r3
 491 0052 07F12403 		add	r3, r7, #36
 492 0056 03F18100 		add	r0, r3, #129
 493 005a 0194     		str	r4, [sp, #4]
 494 005c 0091     		str	r1, [sp]
 495 005e 1346     		mov	r3, r2
 496 0060 0B22     		movs	r2, #11
 497 0062 1849     		ldr	r1, .L33+4
 498 0064 FFF7FEFF 		bl	sprintf
 129:level_sensor.c ****     );
 130:level_sensor.c ****    
 131:level_sensor.c ****     
 132:level_sensor.c ****     if(sensor.num_valid_readings == N_READINGS){//pass
 499              		.loc 1 132 0
 500 0068 07F10803 		add	r3, r7, #8
 501 006c 1B7E     		ldrb	r3, [r3, #24]	@ zero_extendqisi2
 502 006e 0B2B     		cmp	r3, #11
 503 0070 05D1     		bne	.L30
 133:level_sensor.c ****         test.status = 1;
 504              		.loc 1 133 0
 505 0072 07F12403 		add	r3, r7, #36
 506 0076 0122     		movs	r2, #1
 507 0078 83F88020 		strb	r2, [r3, #128]
 508 007c 0EE0     		b	.L31
 509              	.L30:
 134:level_sensor.c ****     }else if((sensor.num_valid_readings > 0) && (sensor.num_valid_readings < N_READINGS)){//pass
 510              		.loc 1 134 0
 511 007e 07F10803 		add	r3, r7, #8
 512 0082 1B7E     		ldrb	r3, [r3, #24]	@ zero_extendqisi2
 513 0084 002B     		cmp	r3, #0
 514 0086 09D0     		beq	.L31
 515              		.loc 1 134 0 is_stmt 0 discriminator 1
 516 0088 07F10803 		add	r3, r7, #8
 517 008c 1B7E     		ldrb	r3, [r3, #24]	@ zero_extendqisi2
 518 008e 0A2B     		cmp	r3, #10
 519 0090 04D8     		bhi	.L31
 135:level_sensor.c ****         test.status = 2;//not bad, since we got some OK readings
 520              		.loc 1 135 0 is_stmt 1
 521 0092 07F12403 		add	r3, r7, #36
 522 0096 0222     		movs	r2, #2
 523 0098 83F88020 		strb	r2, [r3, #128]
 524              	.L31:
 136:level_sensor.c ****     }
 137:level_sensor.c ****         
 138:level_sensor.c ****     return test;
 525              		.loc 1 138 0
 526 009c 3B1D     		adds	r3, r7, #4
 527 009e 1A68     		ldr	r2, [r3]
 528 00a0 07F12403 		add	r3, r7, #36
ARM GAS  C:\Users\HYFI_A~1\AppData\Local\Temp\ccnQlG3o.s 			page 13


 529 00a4 1046     		mov	r0, r2
 530 00a6 1946     		mov	r1, r3
 531 00a8 40F28113 		movw	r3, #385
 532 00ac 1A46     		mov	r2, r3
 533 00ae FFF7FEFF 		bl	memcpy
 139:level_sensor.c **** }
 534              		.loc 1 139 0
 535 00b2 3B1D     		adds	r3, r7, #4
 536 00b4 1868     		ldr	r0, [r3]
 537 00b6 07F5D477 		add	r7, r7, #424
 538              		.cfi_def_cfa_offset 16
 539 00ba BD46     		mov	sp, r7
 540              		.cfi_def_cfa_register 13
 541              		@ sp needed
 542 00bc B0BD     		pop	{r4, r5, r7, pc}
 543              	.L34:
 544 00be 00BF     		.align	2
 545              	.L33:
 546 00c0 04000000 		.word	.LC1
 547 00c4 18000000 		.word	.LC2
 548              		.cfi_endproc
 549              	.LFE69:
 550              		.size	level_sensor_test, .-level_sensor_test
 551              		.global	__aeabi_i2d
 552              		.global	__aeabi_ddiv
 553              		.global	__aeabi_d2iz
 554              		.section	.text.find_median,"ax",%progbits
 555              		.align	2
 556              		.global	find_median
 557              		.thumb
 558              		.thumb_func
 559              		.type	find_median, %function
 560              	find_median:
 561              	.LFB70:
 140:level_sensor.c **** 
 141:level_sensor.c **** 
 142:level_sensor.c **** // function to calculate the median of the array, after array is sorted
 143:level_sensor.c **** uint16 find_median(int16 array[] , uint8 n)
 144:level_sensor.c **** {
 562              		.loc 1 144 0
 563              		.cfi_startproc
 564              		@ args = 0, pretend = 0, frame = 16
 565              		@ frame_needed = 1, uses_anonymous_args = 0
 566 0000 90B5     		push	{r4, r7, lr}
 567              		.cfi_def_cfa_offset 12
 568              		.cfi_offset 4, -12
 569              		.cfi_offset 7, -8
 570              		.cfi_offset 14, -4
 571 0002 85B0     		sub	sp, sp, #20
 572              		.cfi_def_cfa_offset 32
 573 0004 00AF     		add	r7, sp, #0
 574              		.cfi_def_cfa_register 7
 575 0006 7860     		str	r0, [r7, #4]
 576 0008 0B46     		mov	r3, r1
 577 000a FB70     		strb	r3, [r7, #3]
 145:level_sensor.c ****     int16 median=0;
 578              		.loc 1 145 0
ARM GAS  C:\Users\HYFI_A~1\AppData\Local\Temp\ccnQlG3o.s 			page 14


 579 000c 0023     		movs	r3, #0
 580 000e FB81     		strh	r3, [r7, #14]	@ movhi
 146:level_sensor.c ****     sort(array,n);
 581              		.loc 1 146 0
 582 0010 FB78     		ldrb	r3, [r7, #3]	@ zero_extendqisi2
 583 0012 1BB2     		sxth	r3, r3
 584 0014 1946     		mov	r1, r3
 585 0016 7868     		ldr	r0, [r7, #4]
 586 0018 FFF7FEFF 		bl	sort
 147:level_sensor.c ****     
 148:level_sensor.c ****     // if number of elements are even
 149:level_sensor.c ****     if(n%2 == 0)
 587              		.loc 1 149 0
 588 001c FB78     		ldrb	r3, [r7, #3]
 589 001e 03F00103 		and	r3, r3, #1
 590 0022 DBB2     		uxtb	r3, r3
 591 0024 002B     		cmp	r3, #0
 592 0026 25D1     		bne	.L36
 150:level_sensor.c ****         median = (array[(n-1)/2] + array[n/2])/2.0;
 593              		.loc 1 150 0
 594 0028 FB78     		ldrb	r3, [r7, #3]	@ zero_extendqisi2
 595 002a 013B     		subs	r3, r3, #1
 596 002c DA0F     		lsrs	r2, r3, #31
 597 002e 1344     		add	r3, r3, r2
 598 0030 5B10     		asrs	r3, r3, #1
 599 0032 5B00     		lsls	r3, r3, #1
 600 0034 7A68     		ldr	r2, [r7, #4]
 601 0036 1344     		add	r3, r3, r2
 602 0038 B3F90030 		ldrsh	r3, [r3]
 603 003c 1946     		mov	r1, r3
 604 003e FB78     		ldrb	r3, [r7, #3]	@ zero_extendqisi2
 605 0040 5B08     		lsrs	r3, r3, #1
 606 0042 DBB2     		uxtb	r3, r3
 607 0044 5B00     		lsls	r3, r3, #1
 608 0046 7A68     		ldr	r2, [r7, #4]
 609 0048 1344     		add	r3, r3, r2
 610 004a B3F90030 		ldrsh	r3, [r3]
 611 004e 0B44     		add	r3, r3, r1
 612 0050 1846     		mov	r0, r3
 613 0052 FFF7FEFF 		bl	__aeabi_i2d
 614 0056 4FF00002 		mov	r2, #0
 615 005a 4FF08043 		mov	r3, #1073741824
 616 005e FFF7FEFF 		bl	__aeabi_ddiv
 617 0062 0346     		mov	r3, r0
 618 0064 0C46     		mov	r4, r1
 619 0066 1846     		mov	r0, r3
 620 0068 2146     		mov	r1, r4
 621 006a FFF7FEFF 		bl	__aeabi_d2iz
 622 006e 0346     		mov	r3, r0
 623 0070 FB81     		strh	r3, [r7, #14]	@ movhi
 624 0072 07E0     		b	.L37
 625              	.L36:
 151:level_sensor.c ****     // if number of elements are odd
 152:level_sensor.c ****     else
 153:level_sensor.c ****         median = array[n/2];
 626              		.loc 1 153 0
 627 0074 FB78     		ldrb	r3, [r7, #3]	@ zero_extendqisi2
ARM GAS  C:\Users\HYFI_A~1\AppData\Local\Temp\ccnQlG3o.s 			page 15


 628 0076 5B08     		lsrs	r3, r3, #1
 629 0078 DBB2     		uxtb	r3, r3
 630 007a 5B00     		lsls	r3, r3, #1
 631 007c 7A68     		ldr	r2, [r7, #4]
 632 007e 1344     		add	r3, r3, r2
 633 0080 1B88     		ldrh	r3, [r3]	@ movhi
 634 0082 FB81     		strh	r3, [r7, #14]	@ movhi
 635              	.L37:
 154:level_sensor.c ****     
 155:level_sensor.c ****     return median;
 636              		.loc 1 155 0
 637 0084 FB89     		ldrh	r3, [r7, #14]
 156:level_sensor.c **** }
 638              		.loc 1 156 0
 639 0086 1846     		mov	r0, r3
 640 0088 1437     		adds	r7, r7, #20
 641              		.cfi_def_cfa_offset 12
 642 008a BD46     		mov	sp, r7
 643              		.cfi_def_cfa_register 13
 644              		@ sp needed
 645 008c 90BD     		pop	{r4, r7, pc}
 646              		.cfi_endproc
 647              	.LFE70:
 648              		.size	find_median, .-find_median
 649              		.section	.text.sort,"ax",%progbits
 650              		.align	2
 651              		.global	sort
 652              		.thumb
 653              		.thumb_func
 654              		.type	sort, %function
 655              	sort:
 656              	.LFB71:
 157:level_sensor.c **** 
 158:level_sensor.c **** 
 159:level_sensor.c **** void sort(int16 a[],int16 n) { 
 657              		.loc 1 159 0
 658              		.cfi_startproc
 659              		@ args = 0, pretend = 0, frame = 16
 660              		@ frame_needed = 1, uses_anonymous_args = 0
 661 0000 80B5     		push	{r7, lr}
 662              		.cfi_def_cfa_offset 8
 663              		.cfi_offset 7, -8
 664              		.cfi_offset 14, -4
 665 0002 84B0     		sub	sp, sp, #16
 666              		.cfi_def_cfa_offset 24
 667 0004 00AF     		add	r7, sp, #0
 668              		.cfi_def_cfa_register 7
 669 0006 7860     		str	r0, [r7, #4]
 670 0008 0B46     		mov	r3, r1
 671 000a 7B80     		strh	r3, [r7, #2]	@ movhi
 160:level_sensor.c ****    int16 i,j;
 161:level_sensor.c **** 
 162:level_sensor.c ****    for(i = 0;i < n-1;i++) {
 672              		.loc 1 162 0
 673 000c 0023     		movs	r3, #0
 674 000e FB81     		strh	r3, [r7, #14]	@ movhi
 675 0010 37E0     		b	.L40
ARM GAS  C:\Users\HYFI_A~1\AppData\Local\Temp\ccnQlG3o.s 			page 16


 676              	.L44:
 163:level_sensor.c ****       for(j = 0;j < n-i-1;j++) {
 677              		.loc 1 163 0
 678 0012 0023     		movs	r3, #0
 679 0014 BB81     		strh	r3, [r7, #12]	@ movhi
 680 0016 24E0     		b	.L41
 681              	.L43:
 164:level_sensor.c ****          if(a[j] > a[j+1])
 682              		.loc 1 164 0
 683 0018 B7F90C30 		ldrsh	r3, [r7, #12]
 684 001c 5B00     		lsls	r3, r3, #1
 685 001e 7A68     		ldr	r2, [r7, #4]
 686 0020 1344     		add	r3, r3, r2
 687 0022 B3F90020 		ldrsh	r2, [r3]
 688 0026 B7F90C30 		ldrsh	r3, [r7, #12]
 689 002a 0133     		adds	r3, r3, #1
 690 002c 5B00     		lsls	r3, r3, #1
 691 002e 7968     		ldr	r1, [r7, #4]
 692 0030 0B44     		add	r3, r3, r1
 693 0032 B3F90030 		ldrsh	r3, [r3]
 694 0036 9A42     		cmp	r2, r3
 695 0038 0DDD     		ble	.L42
 165:level_sensor.c ****             swap(&a[j],&a[j+1]);
 696              		.loc 1 165 0
 697 003a B7F90C30 		ldrsh	r3, [r7, #12]
 698 003e 5B00     		lsls	r3, r3, #1
 699 0040 7A68     		ldr	r2, [r7, #4]
 700 0042 D018     		adds	r0, r2, r3
 701 0044 B7F90C30 		ldrsh	r3, [r7, #12]
 702 0048 0133     		adds	r3, r3, #1
 703 004a 5B00     		lsls	r3, r3, #1
 704 004c 7A68     		ldr	r2, [r7, #4]
 705 004e 1344     		add	r3, r3, r2
 706 0050 1946     		mov	r1, r3
 707 0052 FFF7FEFF 		bl	swap
 708              	.L42:
 163:level_sensor.c ****       for(j = 0;j < n-i-1;j++) {
 709              		.loc 1 163 0 discriminator 2
 710 0056 B7F90C30 		ldrsh	r3, [r7, #12]
 711 005a 9BB2     		uxth	r3, r3
 712 005c 0133     		adds	r3, r3, #1
 713 005e 9BB2     		uxth	r3, r3
 714 0060 BB81     		strh	r3, [r7, #12]	@ movhi
 715              	.L41:
 163:level_sensor.c ****       for(j = 0;j < n-i-1;j++) {
 716              		.loc 1 163 0 is_stmt 0 discriminator 1
 717 0062 B7F90C20 		ldrsh	r2, [r7, #12]
 718 0066 B7F90210 		ldrsh	r1, [r7, #2]
 719 006a B7F90E30 		ldrsh	r3, [r7, #14]
 720 006e CB1A     		subs	r3, r1, r3
 721 0070 013B     		subs	r3, r3, #1
 722 0072 9A42     		cmp	r2, r3
 723 0074 D0DB     		blt	.L43
 162:level_sensor.c ****       for(j = 0;j < n-i-1;j++) {
 724              		.loc 1 162 0 is_stmt 1 discriminator 2
 725 0076 B7F90E30 		ldrsh	r3, [r7, #14]
 726 007a 9BB2     		uxth	r3, r3
ARM GAS  C:\Users\HYFI_A~1\AppData\Local\Temp\ccnQlG3o.s 			page 17


 727 007c 0133     		adds	r3, r3, #1
 728 007e 9BB2     		uxth	r3, r3
 729 0080 FB81     		strh	r3, [r7, #14]	@ movhi
 730              	.L40:
 162:level_sensor.c ****       for(j = 0;j < n-i-1;j++) {
 731              		.loc 1 162 0 is_stmt 0 discriminator 1
 732 0082 B7F90E20 		ldrsh	r2, [r7, #14]
 733 0086 B7F90230 		ldrsh	r3, [r7, #2]
 734 008a 013B     		subs	r3, r3, #1
 735 008c 9A42     		cmp	r2, r3
 736 008e C0DB     		blt	.L44
 166:level_sensor.c ****       }
 167:level_sensor.c ****    }
 168:level_sensor.c **** }
 737              		.loc 1 168 0 is_stmt 1
 738 0090 00BF     		nop
 739 0092 1037     		adds	r7, r7, #16
 740              		.cfi_def_cfa_offset 8
 741 0094 BD46     		mov	sp, r7
 742              		.cfi_def_cfa_register 13
 743              		@ sp needed
 744 0096 80BD     		pop	{r7, pc}
 745              		.cfi_endproc
 746              	.LFE71:
 747              		.size	sort, .-sort
 748              		.section	.text.swap,"ax",%progbits
 749              		.align	2
 750              		.global	swap
 751              		.thumb
 752              		.thumb_func
 753              		.type	swap, %function
 754              	swap:
 755              	.LFB72:
 169:level_sensor.c **** 
 170:level_sensor.c **** void swap(int16 *p,int16 *q) {
 756              		.loc 1 170 0
 757              		.cfi_startproc
 758              		@ args = 0, pretend = 0, frame = 16
 759              		@ frame_needed = 1, uses_anonymous_args = 0
 760              		@ link register save eliminated.
 761 0000 80B4     		push	{r7}
 762              		.cfi_def_cfa_offset 4
 763              		.cfi_offset 7, -4
 764 0002 85B0     		sub	sp, sp, #20
 765              		.cfi_def_cfa_offset 24
 766 0004 00AF     		add	r7, sp, #0
 767              		.cfi_def_cfa_register 7
 768 0006 7860     		str	r0, [r7, #4]
 769 0008 3960     		str	r1, [r7]
 171:level_sensor.c ****    int16 t;
 172:level_sensor.c ****    
 173:level_sensor.c ****    t=*p; 
 770              		.loc 1 173 0
 771 000a 7B68     		ldr	r3, [r7, #4]
 772 000c 1B88     		ldrh	r3, [r3]	@ movhi
 773 000e FB81     		strh	r3, [r7, #14]	@ movhi
 174:level_sensor.c ****    *p=*q; 
ARM GAS  C:\Users\HYFI_A~1\AppData\Local\Temp\ccnQlG3o.s 			page 18


 774              		.loc 1 174 0
 775 0010 3B68     		ldr	r3, [r7]
 776 0012 B3F90020 		ldrsh	r2, [r3]
 777 0016 7B68     		ldr	r3, [r7, #4]
 778 0018 1A80     		strh	r2, [r3]	@ movhi
 175:level_sensor.c ****    *q=t;
 779              		.loc 1 175 0
 780 001a 3B68     		ldr	r3, [r7]
 781 001c FA89     		ldrh	r2, [r7, #14]	@ movhi
 782 001e 1A80     		strh	r2, [r3]	@ movhi
 176:level_sensor.c **** }
 783              		.loc 1 176 0
 784 0020 00BF     		nop
 785 0022 1437     		adds	r7, r7, #20
 786              		.cfi_def_cfa_offset 4
 787 0024 BD46     		mov	sp, r7
 788              		.cfi_def_cfa_register 13
 789              		@ sp needed
 790 0026 80BC     		pop	{r7}
 791              		.cfi_restore 7
 792              		.cfi_def_cfa_offset 0
 793 0028 7047     		bx	lr
 794              		.cfi_endproc
 795              	.LFE72:
 796              		.size	swap, .-swap
 797 002a 00BF     		.text
 798              	.Letext0:
 799              		.file 2 "c:\\program files (x86)\\cypress\\psoc creator\\4.3\\psoc creator\\import\\gnu\\arm\\5.4.
 800              		.file 3 "c:\\program files (x86)\\cypress\\psoc creator\\4.3\\psoc creator\\import\\gnu\\arm\\5.4.
 801              		.file 4 "Generated_Source\\PSoC5/cytypes.h"
 802              		.file 5 "testing.h"
 803              		.file 6 "level_sensor.h"
 804              		.file 7 "modem.h"
 805              		.file 8 "data.h"
 806              		.file 9 "Generated_Source\\PSoC5/core_cm3.h"
 807              		.file 10 "debug.h"