ARM GAS  C:\Users\bk\AppData\Local\Temp\ccqryncW.s 			page 1


   1              		.syntax unified
   2              		.cpu cortex-m3
   3              		.fpu softvfp
   4              		.eabi_attribute 20, 1
   5              		.eabi_attribute 21, 1
   6              		.eabi_attribute 23, 3
   7              		.eabi_attribute 24, 1
   8              		.eabi_attribute 25, 1
   9              		.eabi_attribute 26, 1
  10              		.eabi_attribute 30, 6
  11              		.eabi_attribute 34, 1
  12              		.eabi_attribute 18, 4
  13              		.thumb
  14              		.syntax unified
  15              		.file	"main.c"
  16              		.text
  17              	.Ltext0:
  18              		.cfi_sections	.debug_frame
  19              		.comm	debug_string,100,4
  20              		.syntax unified
  21              		.global _printf_float
  22              		.thumb
  23              		.syntax unified
  24              		.comm	modem_state,1,1
  25              		.comm	modem_time_stamp,4,4
  26              		.comm	modem_info,60,4
  27              		.comm	modem_stats,12,4
  28              		.comm	alarmMeasure,6,4
  29              		.comm	timeToMeasure,1,1
  30              		.comm	alarmMeasure2,6,4
  31              		.comm	timeToMeasure2,1,1
  32              		.section	.text.Wakeup_ISR,"ax",%progbits
  33              		.align	2
  34              		.global	Wakeup_ISR
  35              		.thumb
  36              		.thumb_func
  37              		.type	Wakeup_ISR, %function
  38              	Wakeup_ISR:
  39              	.LFB64:
  40              		.file 1 "main.c"
   1:main.c        **** /* ========================================
   2:main.c        ****  *
   3:main.c        ****  * OPEN-STORM.ORG
   4:main.c        ****  * notoriOS
   5:main.c        ****  * A non-premptive operating system for node.
   6:main.c        ****  *
   7:main.c        ****  * "To all the teachers that told me I'd never amount to nothin"
   8:main.c        ****  *      -Notorious BIG (1994)
   9:main.c        ****  *
  10:main.c        ****  * ========================================
  11:main.c        **** */
  12:main.c        **** #include "project.h"
  13:main.c        **** #include "notoriOS.h"
  14:main.c        **** #include "level_sensor.h"
  15:main.c        **** #include "sd_card.h"
  16:main.c        **** #include "voltages.h"
  17:main.c        **** #include "debug.h"
ARM GAS  C:\Users\bk\AppData\Local\Temp\ccqryncW.s 			page 2


  18:main.c        **** #include "modem.h"
  19:main.c        **** 
  20:main.c        **** 
  21:main.c        **** 
  22:main.c        **** 
  23:main.c        **** 
  24:main.c        **** 
  25:main.c        **** //global variables
  26:main.c        **** alarm alarmMeasure;
  27:main.c        **** uint8 timeToMeasure;
  28:main.c        **** alarm alarmMeasure2;
  29:main.c        **** uint8 timeToMeasure2;
  30:main.c        **** 
  31:main.c        **** 
  32:main.c        **** // This function must always be called (when the Sleep Timer's interrupt
  33:main.c        **** // is disabled or enabled) after wake up to clear the ctw_int status bit.
  34:main.c        **** // It is required to call SleepTimer_GetStatus() within 1 ms (1 clock cycle
  35:main.c        **** // of the ILO) after CTW event occurred.
  36:main.c        **** CY_ISR(Wakeup_ISR) {
  41              		.loc 1 36 0
  42              		.cfi_startproc
  43              		@ args = 0, pretend = 0, frame = 0
  44              		@ frame_needed = 1, uses_anonymous_args = 0
  45 0000 80B5     		push	{r7, lr}
  46              		.cfi_def_cfa_offset 8
  47              		.cfi_offset 7, -8
  48              		.cfi_offset 14, -4
  49 0002 00AF     		add	r7, sp, #0
  50              		.cfi_def_cfa_register 7
  37:main.c        ****     SleepTimer_GetStatus();
  51              		.loc 1 37 0
  52 0004 FFF7FEFF 		bl	SleepTimer_GetStatus
  38:main.c        **** }
  53              		.loc 1 38 0
  54 0008 00BF     		nop
  55 000a 80BD     		pop	{r7, pc}
  56              		.cfi_endproc
  57              	.LFE64:
  58              		.size	Wakeup_ISR, .-Wakeup_ISR
  59              		.section	.text.ReadyOrNot,"ax",%progbits
  60              		.align	2
  61              		.global	ReadyOrNot
  62              		.thumb
  63              		.thumb_func
  64              		.type	ReadyOrNot, %function
  65              	ReadyOrNot:
  66              	.LFB65:
  39:main.c        **** 
  40:main.c        **** 
  41:main.c        **** // ==============================================
  42:main.c        **** // Ready or not, here I come, you can't hide
  43:main.c        **** // Gonna find you and take it slowly
  44:main.c        **** //      - The Fugees (1996)
  45:main.c        **** //
  46:main.c        **** // Initialize and critical hardware or routines 
  47:main.c        **** // ==============================================
  48:main.c        **** void ReadyOrNot()
ARM GAS  C:\Users\bk\AppData\Local\Temp\ccqryncW.s 			page 3


  49:main.c        **** {
  67              		.loc 1 49 0
  68              		.cfi_startproc
  69              		@ args = 0, pretend = 0, frame = 8
  70              		@ frame_needed = 1, uses_anonymous_args = 0
  71 0000 90B5     		push	{r4, r7, lr}
  72              		.cfi_def_cfa_offset 12
  73              		.cfi_offset 4, -12
  74              		.cfi_offset 7, -8
  75              		.cfi_offset 14, -4
  76 0002 83B0     		sub	sp, sp, #12
  77              		.cfi_def_cfa_offset 24
  78 0004 00AF     		add	r7, sp, #0
  79              		.cfi_def_cfa_register 7
  50:main.c        ****     
  51:main.c        ****     isr_SleepTimer_StartEx(Wakeup_ISR);// Start Sleep ISR
  80              		.loc 1 51 0
  81 0006 1148     		ldr	r0, .L3
  82 0008 FFF7FEFF 		bl	isr_SleepTimer_StartEx
  52:main.c        ****     SleepTimer_Start();             // Start SleepTimer Component
  83              		.loc 1 52 0
  84 000c FFF7FEFF 		bl	SleepTimer_Start
  53:main.c        ****     
  54:main.c        ****     RTC_WriteIntervalMask(0b11111111);
  85              		.loc 1 54 0
  86 0010 FF20     		movs	r0, #255
  87 0012 FFF7FEFF 		bl	RTC_WriteIntervalMask
  55:main.c        ****     RTC_Start();
  88              		.loc 1 55 0
  89 0016 FFF7FEFF 		bl	RTC_Start
  56:main.c        ****     debug_start();
  90              		.loc 1 56 0
  91 001a FFF7FEFF 		bl	debug_start
  57:main.c        ****     
  58:main.c        ****     modem_intilize();
  92              		.loc 1 58 0
  93 001e FFF7FEFF 		bl	modem_intilize
  59:main.c        ****     
  60:main.c        **** 
  61:main.c        ****     
  62:main.c        ****     alarmMeasure = CreateAlarm(2,ALARM_TYPE_SECOND,ALARM_TYPE_CONTINUOUS);
  94              		.loc 1 62 0
  95 0022 0B4C     		ldr	r4, .L3+4
  96 0024 3846     		mov	r0, r7
  97 0026 0723     		movs	r3, #7
  98 0028 0022     		movs	r2, #0
  99 002a 0221     		movs	r1, #2
 100 002c FFF7FEFF 		bl	CreateAlarm
 101 0030 2246     		mov	r2, r4
 102 0032 3B46     		mov	r3, r7
 103 0034 1968     		ldr	r1, [r3]	@ unaligned
 104 0036 1160     		str	r1, [r2]	@ unaligned
 105 0038 9B88     		ldrh	r3, [r3, #4]	@ unaligned
 106 003a 9380     		strh	r3, [r2, #4]	@ unaligned
  63:main.c        ****     timeToMeasure = 0;
 107              		.loc 1 63 0
 108 003c 054B     		ldr	r3, .L3+8
ARM GAS  C:\Users\bk\AppData\Local\Temp\ccqryncW.s 			page 4


 109 003e 0022     		movs	r2, #0
 110 0040 1A70     		strb	r2, [r3]
  64:main.c        ****     //alarmMeasure2 = CreateAlarm(10,ALARM_TYPE_SECOND,ALARM_TYPE_CONTINUOUS);
  65:main.c        ****     //timeToMeasure = 0;
  66:main.c        ****     
  67:main.c        ****     
  68:main.c        **** }
 111              		.loc 1 68 0
 112 0042 00BF     		nop
 113 0044 0C37     		adds	r7, r7, #12
 114              		.cfi_def_cfa_offset 12
 115 0046 BD46     		mov	sp, r7
 116              		.cfi_def_cfa_register 13
 117              		@ sp needed
 118 0048 90BD     		pop	{r4, r7, pc}
 119              	.L4:
 120 004a 00BF     		.align	2
 121              	.L3:
 122 004c 00000000 		.word	Wakeup_ISR
 123 0050 00000000 		.word	alarmMeasure
 124 0054 00000000 		.word	timeToMeasure
 125              		.cfi_endproc
 126              	.LFE65:
 127              		.size	ReadyOrNot, .-ReadyOrNot
 128              		.section	.text.WorkWorkWorkWorkWorkWork,"ax",%progbits
 129              		.align	2
 130              		.global	WorkWorkWorkWorkWorkWork
 131              		.thumb
 132              		.thumb_func
 133              		.type	WorkWorkWorkWorkWorkWork, %function
 134              	WorkWorkWorkWorkWorkWork:
 135              	.LFB66:
  69:main.c        **** 
  70:main.c        **** // ==============================================
  71:main.c        **** // You see me I be work, work, work, work, work, work 
  72:main.c        **** //      - Rhiana, feat Drake (2016)
  73:main.c        **** //
  74:main.c        **** // Prorcesses core tasks
  75:main.c        **** // ==============================================
  76:main.c        **** int WorkWorkWorkWorkWorkWork()
  77:main.c        **** {
 136              		.loc 1 77 0
 137              		.cfi_startproc
 138              		@ args = 0, pretend = 0, frame = 392
 139              		@ frame_needed = 1, uses_anonymous_args = 0
 140 0000 90B5     		push	{r4, r7, lr}
 141              		.cfi_def_cfa_offset 12
 142              		.cfi_offset 4, -12
 143              		.cfi_offset 7, -8
 144              		.cfi_offset 14, -4
 145 0002 ADF5417D 		sub	sp, sp, #772
 146              		.cfi_def_cfa_offset 784
 147 0006 5EAF     		add	r7, sp, #376
 148              		.cfi_def_cfa 7, 408
  78:main.c        ****     
  79:main.c        ****     if(timeToMeasure){
 149              		.loc 1 79 0
ARM GAS  C:\Users\bk\AppData\Local\Temp\ccqryncW.s 			page 5


 150 0008 134B     		ldr	r3, .L8
 151 000a 1B78     		ldrb	r3, [r3]	@ zero_extendqisi2
 152 000c 002B     		cmp	r3, #0
 153 000e 1CD0     		beq	.L6
 154              	.LBB2:
  80:main.c        ****        
  81:main.c        **** 
  82:main.c        ****        //printNotif("Light ON");
  83:main.c        ****        
  84:main.c        ****        LED_Write(1u);
 155              		.loc 1 84 0
 156 0010 0120     		movs	r0, #1
 157 0012 FFF7FEFF 		bl	LED_Write
  85:main.c        ****        CyDelay(100u);
 158              		.loc 1 85 0
 159 0016 6420     		movs	r0, #100
 160 0018 FFF7FEFF 		bl	CyDelay
  86:main.c        ****        LED_Write(0u);
 161              		.loc 1 86 0
 162 001c 0020     		movs	r0, #0
 163 001e FFF7FEFF 		bl	LED_Write
  87:main.c        ****        timeToMeasure = 0u;
 164              		.loc 1 87 0
 165 0022 0D4B     		ldr	r3, .L8
 166 0024 0022     		movs	r2, #0
 167 0026 1A70     		strb	r2, [r3]
  88:main.c        ****     
  89:main.c        ****        test_t t_voltages = voltages_test();
 168              		.loc 1 89 0
 169 0028 3B1D     		adds	r3, r7, #4
 170 002a 1846     		mov	r0, r3
 171 002c FFF7FEFF 		bl	voltages_test
  90:main.c        ****        printTestStatus(t_voltages);
 172              		.loc 1 90 0
 173 0030 3C1D     		adds	r4, r7, #4
 174 0032 6846     		mov	r0, sp
 175 0034 04F11003 		add	r3, r4, #16
 176 0038 40F27112 		movw	r2, #369
 177 003c 1946     		mov	r1, r3
 178 003e FFF7FEFF 		bl	memcpy
 179 0042 94E80F00 		ldmia	r4, {r0, r1, r2, r3}
 180 0046 FFF7FEFF 		bl	printTestStatus
 181              	.L6:
 182              	.LBE2:
  91:main.c        ****     
  92:main.c        ****        //printNotif("Light Off");
  93:main.c        ****        
  94:main.c        ****        
  95:main.c        ****     }
  96:main.c        ****     //if(timeToMeasure2){
  97:main.c        ****         //dosomething
  98:main.c        ****     //}
  99:main.c        ****     
 100:main.c        ****     return 0;   
 183              		.loc 1 100 0
 184 004a 0023     		movs	r3, #0
 101:main.c        **** }
ARM GAS  C:\Users\bk\AppData\Local\Temp\ccqryncW.s 			page 6


 185              		.loc 1 101 0
 186 004c 1846     		mov	r0, r3
 187 004e 07F5C677 		add	r7, r7, #396
 188              		.cfi_def_cfa_offset 12
 189 0052 BD46     		mov	sp, r7
 190              		.cfi_def_cfa_register 13
 191              		@ sp needed
 192 0054 90BD     		pop	{r4, r7, pc}
 193              	.L9:
 194 0056 00BF     		.align	2
 195              	.L8:
 196 0058 00000000 		.word	timeToMeasure
 197              		.cfi_endproc
 198              	.LFE66:
 199              		.size	WorkWorkWorkWorkWorkWork, .-WorkWorkWorkWorkWorkWork
 200              		.section	.text.LayBack,"ax",%progbits
 201              		.align	2
 202              		.global	LayBack
 203              		.thumb
 204              		.thumb_func
 205              		.type	LayBack, %function
 206              	LayBack:
 207              	.LFB67:
 102:main.c        **** 
 103:main.c        **** 
 104:main.c        **** 
 105:main.c        **** 
 106:main.c        **** // ==============================================
 107:main.c        **** // sippin on gin and juice, Laid back (with my mind on my money and my money on my mind)
 108:main.c        **** //      - Snoop Dogg (1993)
 109:main.c        **** //
 110:main.c        **** // Put all hardware to sleep and go into low power mode to conserve Amps
 111:main.c        **** // ==============================================
 112:main.c        **** void LayBack()
 113:main.c        **** {
 208              		.loc 1 113 0
 209              		.cfi_startproc
 210              		@ args = 0, pretend = 0, frame = 0
 211              		@ frame_needed = 1, uses_anonymous_args = 0
 212 0000 80B5     		push	{r7, lr}
 213              		.cfi_def_cfa_offset 8
 214              		.cfi_offset 7, -8
 215              		.cfi_offset 14, -4
 216 0002 00AF     		add	r7, sp, #0
 217              		.cfi_def_cfa_register 7
 114:main.c        ****     
 115:main.c        ****     debug_sleep();
 218              		.loc 1 115 0
 219 0004 FFF7FEFF 		bl	debug_sleep
 116:main.c        ****     // Prepares system clocks for the Sleep mode
 117:main.c        ****     CyPmSaveClocks();
 220              		.loc 1 117 0
 221 0008 FFF7FEFF 		bl	CyPmSaveClocks
 118:main.c        ****     
 119:main.c        ****     // Switch to the Sleep Mode for the other devices:
 120:main.c        ****     //  - PM_SLEEP_TIME_NONE: wakeup time is defined by Sleep Timer
 121:main.c        ****     //  - PM_SLEEP_SRC_CTW :  wakeup on CTW sources is allowed
ARM GAS  C:\Users\bk\AppData\Local\Temp\ccqryncW.s 			page 7


 122:main.c        ****      //  - If real-time clock is used, it will also wake the device
 123:main.c        ****     //CyPmHibernate();
 124:main.c        ****     CyPmSleep(PM_SLEEP_TIME_NONE, PM_SLEEP_SRC_CTW);
 222              		.loc 1 124 0
 223 000c 4FF40061 		mov	r1, #2048
 224 0010 0020     		movs	r0, #0
 225 0012 FFF7FEFF 		bl	CyPmSleep
 125:main.c        ****   
 126:main.c        ****     // Restore clock configuration
 127:main.c        ****     CyPmRestoreClocks();
 226              		.loc 1 127 0
 227 0016 FFF7FEFF 		bl	CyPmRestoreClocks
 128:main.c        ****     debug_wakeup();
 228              		.loc 1 128 0
 229 001a FFF7FEFF 		bl	debug_wakeup
 129:main.c        ****     
 130:main.c        **** }
 230              		.loc 1 130 0
 231 001e 00BF     		nop
 232 0020 80BD     		pop	{r7, pc}
 233              		.cfi_endproc
 234              	.LFE67:
 235              		.size	LayBack, .-LayBack
 236 0022 00BF     		.section	.text.AyoItsTime,"ax",%progbits
 237              		.align	2
 238              		.global	AyoItsTime
 239              		.thumb
 240              		.thumb_func
 241              		.type	AyoItsTime, %function
 242              	AyoItsTime:
 243              	.LFB68:
 131:main.c        **** 
 132:main.c        **** 
 133:main.c        **** // ==============================================
 134:main.c        **** // I never sleep, 'cause sleep is the cousin of death
 135:main.c        **** //      - NAS (1994)
 136:main.c        **** //
 137:main.c        **** // This is the scheduler. It's called from various interrupts and timers,
 138:main.c        **** // ...in particular from fuctions with in the real-tiem clock interrupts (RTC_INT.c)
 139:main.c        **** // It will add tasks to the work queue,
 140:main.c        **** // which will be executed eventually by WorkWorkWorkWorkWorkWork()
 141:main.c        **** // ==============================================
 142:main.c        **** void AyoItsTime(uint8 alarmType)
 143:main.c        **** {
 244              		.loc 1 143 0
 245              		.cfi_startproc
 246              		@ args = 0, pretend = 0, frame = 8
 247              		@ frame_needed = 1, uses_anonymous_args = 0
 248 0000 80B5     		push	{r7, lr}
 249              		.cfi_def_cfa_offset 8
 250              		.cfi_offset 7, -8
 251              		.cfi_offset 14, -4
 252 0002 82B0     		sub	sp, sp, #8
 253              		.cfi_def_cfa_offset 16
 254 0004 00AF     		add	r7, sp, #0
 255              		.cfi_def_cfa_register 7
 256 0006 0346     		mov	r3, r0
ARM GAS  C:\Users\bk\AppData\Local\Temp\ccqryncW.s 			page 8


 257 0008 FB71     		strb	r3, [r7, #7]
 144:main.c        **** 
 145:main.c        ****     if(AlarmReady(&alarmMeasure,alarmType))
 258              		.loc 1 145 0
 259 000a FB79     		ldrb	r3, [r7, #7]	@ zero_extendqisi2
 260 000c 1946     		mov	r1, r3
 261 000e 0C48     		ldr	r0, .L15
 262 0010 FFF7FEFF 		bl	AlarmReady
 263 0014 0346     		mov	r3, r0
 264 0016 002B     		cmp	r3, #0
 265 0018 02D0     		beq	.L12
 146:main.c        ****     {
 147:main.c        ****          //create new task and pass off to workworkworkworkwork()
 148:main.c        ****         //pass off to work work
 149:main.c        ****         timeToMeasure = 1u;
 266              		.loc 1 149 0
 267 001a 0A4B     		ldr	r3, .L15+4
 268 001c 0122     		movs	r2, #1
 269 001e 1A70     		strb	r2, [r3]
 270              	.L12:
 150:main.c        ****     }
 151:main.c        ****     if(AlarmReady(&alarmMeasure2,alarmType))
 271              		.loc 1 151 0
 272 0020 FB79     		ldrb	r3, [r7, #7]	@ zero_extendqisi2
 273 0022 1946     		mov	r1, r3
 274 0024 0848     		ldr	r0, .L15+8
 275 0026 FFF7FEFF 		bl	AlarmReady
 276 002a 0346     		mov	r3, r0
 277 002c 002B     		cmp	r3, #0
 278 002e 02D0     		beq	.L14
 152:main.c        ****     {
 153:main.c        ****          //create new task and pass off to workworkworkworkwork()
 154:main.c        ****         //pass off to work work
 155:main.c        ****         timeToMeasure2 = 1u;
 279              		.loc 1 155 0
 280 0030 064B     		ldr	r3, .L15+12
 281 0032 0122     		movs	r2, #1
 282 0034 1A70     		strb	r2, [r3]
 283              	.L14:
 156:main.c        ****     }
 157:main.c        ****     
 158:main.c        **** }
 284              		.loc 1 158 0
 285 0036 00BF     		nop
 286 0038 0837     		adds	r7, r7, #8
 287              		.cfi_def_cfa_offset 8
 288 003a BD46     		mov	sp, r7
 289              		.cfi_def_cfa_register 13
 290              		@ sp needed
 291 003c 80BD     		pop	{r7, pc}
 292              	.L16:
 293 003e 00BF     		.align	2
 294              	.L15:
 295 0040 00000000 		.word	alarmMeasure
 296 0044 00000000 		.word	timeToMeasure
 297 0048 00000000 		.word	alarmMeasure2
 298 004c 00000000 		.word	timeToMeasure2
ARM GAS  C:\Users\bk\AppData\Local\Temp\ccqryncW.s 			page 9


 299              		.cfi_endproc
 300              	.LFE68:
 301              		.size	AyoItsTime, .-AyoItsTime
 302              		.section	.text.AlarmReady,"ax",%progbits
 303              		.align	2
 304              		.global	AlarmReady
 305              		.thumb
 306              		.thumb_func
 307              		.type	AlarmReady, %function
 308              	AlarmReady:
 309              	.LFB69:
 159:main.c        ****         
 160:main.c        **** uint8 AlarmReady(alarm * alarmToBeUpdated, uint8 alarmType)
 161:main.c        **** {
 310              		.loc 1 161 0
 311              		.cfi_startproc
 312              		@ args = 0, pretend = 0, frame = 8
 313              		@ frame_needed = 1, uses_anonymous_args = 0
 314 0000 80B5     		push	{r7, lr}
 315              		.cfi_def_cfa_offset 8
 316              		.cfi_offset 7, -8
 317              		.cfi_offset 14, -4
 318 0002 82B0     		sub	sp, sp, #8
 319              		.cfi_def_cfa_offset 16
 320 0004 00AF     		add	r7, sp, #0
 321              		.cfi_def_cfa_register 7
 322 0006 7860     		str	r0, [r7, #4]
 323 0008 0B46     		mov	r3, r1
 324 000a FB70     		strb	r3, [r7, #3]
 162:main.c        ****     alarmToBeUpdated->currentCountDownValue--;
 325              		.loc 1 162 0
 326 000c 7B68     		ldr	r3, [r7, #4]
 327 000e 5B88     		ldrh	r3, [r3, #2]	@ movhi
 328 0010 9BB2     		uxth	r3, r3
 329 0012 013B     		subs	r3, r3, #1
 330 0014 9AB2     		uxth	r2, r3
 331 0016 7B68     		ldr	r3, [r7, #4]
 332 0018 5A80     		strh	r2, [r3, #2]	@ movhi
 163:main.c        ****     if(alarmToBeUpdated->currentCountDownValue == 0){
 333              		.loc 1 163 0
 334 001a 7B68     		ldr	r3, [r7, #4]
 335 001c 5B88     		ldrh	r3, [r3, #2]	@ movhi
 336 001e 9BB2     		uxth	r3, r3
 337 0020 002B     		cmp	r3, #0
 338 0022 04D1     		bne	.L18
 164:main.c        ****         ResetAlarm(alarmToBeUpdated);
 339              		.loc 1 164 0
 340 0024 7868     		ldr	r0, [r7, #4]
 341 0026 FFF7FEFF 		bl	ResetAlarm
 165:main.c        ****         return 1u;
 342              		.loc 1 165 0
 343 002a 0123     		movs	r3, #1
 344 002c 09E0     		b	.L19
 345              	.L18:
 166:main.c        ****     } 
 167:main.c        ****     else if(alarmToBeUpdated->countDownResetCondition == alarmType){
 346              		.loc 1 167 0
ARM GAS  C:\Users\bk\AppData\Local\Temp\ccqryncW.s 			page 10


 347 002e 7B68     		ldr	r3, [r7, #4]
 348 0030 5B79     		ldrb	r3, [r3, #5]
 349 0032 DBB2     		uxtb	r3, r3
 350 0034 FA78     		ldrb	r2, [r7, #3]	@ zero_extendqisi2
 351 0036 9A42     		cmp	r2, r3
 352 0038 02D1     		bne	.L20
 168:main.c        ****         ResetAlarm(alarmToBeUpdated);
 353              		.loc 1 168 0
 354 003a 7868     		ldr	r0, [r7, #4]
 355 003c FFF7FEFF 		bl	ResetAlarm
 356              	.L20:
 169:main.c        ****     }
 170:main.c        ****     
 171:main.c        ****     return 0u;
 357              		.loc 1 171 0
 358 0040 0023     		movs	r3, #0
 359              	.L19:
 172:main.c        **** }
 360              		.loc 1 172 0
 361 0042 1846     		mov	r0, r3
 362 0044 0837     		adds	r7, r7, #8
 363              		.cfi_def_cfa_offset 8
 364 0046 BD46     		mov	sp, r7
 365              		.cfi_def_cfa_register 13
 366              		@ sp needed
 367 0048 80BD     		pop	{r7, pc}
 368              		.cfi_endproc
 369              	.LFE69:
 370              		.size	AlarmReady, .-AlarmReady
 371 004a 00BF     		.section	.text.ResetAlarm,"ax",%progbits
 372              		.align	2
 373              		.global	ResetAlarm
 374              		.thumb
 375              		.thumb_func
 376              		.type	ResetAlarm, %function
 377              	ResetAlarm:
 378              	.LFB70:
 173:main.c        **** 
 174:main.c        **** void ResetAlarm(alarm * alarmToBeReset)
 175:main.c        **** {
 379              		.loc 1 175 0
 380              		.cfi_startproc
 381              		@ args = 0, pretend = 0, frame = 8
 382              		@ frame_needed = 1, uses_anonymous_args = 0
 383              		@ link register save eliminated.
 384 0000 80B4     		push	{r7}
 385              		.cfi_def_cfa_offset 4
 386              		.cfi_offset 7, -4
 387 0002 83B0     		sub	sp, sp, #12
 388              		.cfi_def_cfa_offset 16
 389 0004 00AF     		add	r7, sp, #0
 390              		.cfi_def_cfa_register 7
 391 0006 7860     		str	r0, [r7, #4]
 176:main.c        ****     alarmToBeReset->currentCountDownValue = alarmToBeReset->countDownValue;
 392              		.loc 1 176 0
 393 0008 7B68     		ldr	r3, [r7, #4]
 394 000a 1B88     		ldrh	r3, [r3]	@ movhi
ARM GAS  C:\Users\bk\AppData\Local\Temp\ccqryncW.s 			page 11


 395 000c 9AB2     		uxth	r2, r3
 396 000e 7B68     		ldr	r3, [r7, #4]
 397 0010 5A80     		strh	r2, [r3, #2]	@ movhi
 177:main.c        **** }
 398              		.loc 1 177 0
 399 0012 00BF     		nop
 400 0014 0C37     		adds	r7, r7, #12
 401              		.cfi_def_cfa_offset 4
 402 0016 BD46     		mov	sp, r7
 403              		.cfi_def_cfa_register 13
 404              		@ sp needed
 405 0018 80BC     		pop	{r7}
 406              		.cfi_restore 7
 407              		.cfi_def_cfa_offset 0
 408 001a 7047     		bx	lr
 409              		.cfi_endproc
 410              	.LFE70:
 411              		.size	ResetAlarm, .-ResetAlarm
 412              		.section	.text.CreateAlarm,"ax",%progbits
 413              		.align	2
 414              		.global	CreateAlarm
 415              		.thumb
 416              		.thumb_func
 417              		.type	CreateAlarm, %function
 418              	CreateAlarm:
 419              	.LFB71:
 178:main.c        **** 
 179:main.c        **** // ==============================================
 180:main.c        **** // Creates a new alarm, which will be handeled by another cutions
 181:main.c        **** // ==============================================
 182:main.c        **** 
 183:main.c        **** alarm CreateAlarm(uint16 countDownValue, uint8 countDownType,uint8 countDownResetCondition)
 184:main.c        **** {
 420              		.loc 1 184 0
 421              		.cfi_startproc
 422              		@ args = 0, pretend = 0, frame = 16
 423              		@ frame_needed = 1, uses_anonymous_args = 0
 424              		@ link register save eliminated.
 425 0000 80B4     		push	{r7}
 426              		.cfi_def_cfa_offset 4
 427              		.cfi_offset 7, -4
 428 0002 85B0     		sub	sp, sp, #20
 429              		.cfi_def_cfa_offset 24
 430 0004 00AF     		add	r7, sp, #0
 431              		.cfi_def_cfa_register 7
 432 0006 7860     		str	r0, [r7, #4]
 433 0008 0846     		mov	r0, r1
 434 000a 1146     		mov	r1, r2
 435 000c 1A46     		mov	r2, r3
 436 000e 0346     		mov	r3, r0	@ movhi
 437 0010 7B80     		strh	r3, [r7, #2]	@ movhi
 438 0012 0B46     		mov	r3, r1
 439 0014 7B70     		strb	r3, [r7, #1]
 440 0016 1346     		mov	r3, r2
 441 0018 3B70     		strb	r3, [r7]
 185:main.c        ****     alarm newAlarm;
 186:main.c        ****     
ARM GAS  C:\Users\bk\AppData\Local\Temp\ccqryncW.s 			page 12


 187:main.c        ****     newAlarm.countDownValue = countDownValue;
 442              		.loc 1 187 0
 443 001a 7B88     		ldrh	r3, [r7, #2]	@ movhi
 444 001c 3B81     		strh	r3, [r7, #8]	@ movhi
 188:main.c        ****     newAlarm.countDownType = countDownType;
 445              		.loc 1 188 0
 446 001e 7B78     		ldrb	r3, [r7, #1]
 447 0020 3B73     		strb	r3, [r7, #12]
 189:main.c        ****     newAlarm.countDownResetCondition = countDownResetCondition;
 448              		.loc 1 189 0
 449 0022 3B78     		ldrb	r3, [r7]
 450 0024 7B73     		strb	r3, [r7, #13]
 190:main.c        ****     
 191:main.c        ****     //if you want a reccuring alarm (e.g. resets freshly each hour), then add
 192:main.c        ****     //account for already exprired time using the RTC. Otherwise, set to the countDownValue
 193:main.c        ****     newAlarm.currentCountDownValue = countDownValue;
 451              		.loc 1 193 0
 452 0026 7B88     		ldrh	r3, [r7, #2]	@ movhi
 453 0028 7B81     		strh	r3, [r7, #10]	@ movhi
 194:main.c        ****     
 195:main.c        ****     return newAlarm;
 454              		.loc 1 195 0
 455 002a 7B68     		ldr	r3, [r7, #4]
 456 002c 1A46     		mov	r2, r3
 457 002e 07F10803 		add	r3, r7, #8
 458 0032 1868     		ldr	r0, [r3]	@ unaligned
 459 0034 1060     		str	r0, [r2]	@ unaligned
 460 0036 9B88     		ldrh	r3, [r3, #4]	@ unaligned
 461 0038 9380     		strh	r3, [r2, #4]	@ unaligned
 196:main.c        ****     
 197:main.c        **** }
 462              		.loc 1 197 0
 463 003a 7868     		ldr	r0, [r7, #4]
 464 003c 1437     		adds	r7, r7, #20
 465              		.cfi_def_cfa_offset 4
 466 003e BD46     		mov	sp, r7
 467              		.cfi_def_cfa_register 13
 468              		@ sp needed
 469 0040 80BC     		pop	{r7}
 470              		.cfi_restore 7
 471              		.cfi_def_cfa_offset 0
 472 0042 7047     		bx	lr
 473              		.cfi_endproc
 474              	.LFE71:
 475              		.size	CreateAlarm, .-CreateAlarm
 476              		.section	.text.ChickityCheckYourselfBeforeYouWreckYourself,"ax",%progbits
 477              		.align	2
 478              		.global	ChickityCheckYourselfBeforeYouWreckYourself
 479              		.thumb
 480              		.thumb_func
 481              		.type	ChickityCheckYourselfBeforeYouWreckYourself, %function
 482              	ChickityCheckYourselfBeforeYouWreckYourself:
 483              	.LFB72:
 198:main.c        **** 
 199:main.c        **** // ==============================================
 200:main.c        **** // Dropping bombs on your moms
 201:main.c        **** //      - Ice Cube (1992)
ARM GAS  C:\Users\bk\AppData\Local\Temp\ccqryncW.s 			page 13


 202:main.c        **** //
 203:main.c        **** // This is the global testing function, which runs all relevant tests
 204:main.c        **** // If you make a new components, it could be good to call its tester function here 
 205:main.c        **** // ==============================================
 206:main.c        **** void ChickityCheckYourselfBeforeYouWreckYourself(){
 484              		.loc 1 206 0
 485              		.cfi_startproc
 486              		@ args = 0, pretend = 0, frame = 1168
 487              		@ frame_needed = 1, uses_anonymous_args = 0
 488 0000 90B5     		push	{r4, r7, lr}
 489              		.cfi_def_cfa_offset 12
 490              		.cfi_offset 4, -12
 491              		.cfi_offset 7, -8
 492              		.cfi_offset 14, -4
 493 0002 ADF20C6D 		subw	sp, sp, #1548
 494              		.cfi_def_cfa_offset 1560
 495 0006 5EAF     		add	r7, sp, #376
 496              		.cfi_def_cfa 7, 1184
 207:main.c        **** 
 208:main.c        ****    // test_t t_modem = modem_test();
 209:main.c        ****     
 210:main.c        ****     test_t t_level_sensor = level_sensor_test();//test level sensor  
 497              		.loc 1 210 0
 498 0008 07F54273 		add	r3, r7, #776
 499 000c 1846     		mov	r0, r3
 500 000e FFF7FEFF 		bl	level_sensor_test
 211:main.c        ****     printTestStatus(t_level_sensor);
 501              		.loc 1 211 0
 502 0012 07F54274 		add	r4, r7, #776
 503 0016 6846     		mov	r0, sp
 504 0018 04F11003 		add	r3, r4, #16
 505 001c 40F27112 		movw	r2, #369
 506 0020 1946     		mov	r1, r3
 507 0022 FFF7FEFF 		bl	memcpy
 508 0026 94E80F00 		ldmia	r4, {r0, r1, r2, r3}
 509 002a FFF7FEFF 		bl	printTestStatus
 212:main.c        ****     test_t t_sd_card = SD_card_test();
 510              		.loc 1 212 0
 511 002e 07F5C273 		add	r3, r7, #388
 512 0032 1846     		mov	r0, r3
 513 0034 FFF7FEFF 		bl	SD_card_test
 213:main.c        ****     printTestStatus(t_sd_card);
 514              		.loc 1 213 0
 515 0038 07F5C274 		add	r4, r7, #388
 516 003c 6846     		mov	r0, sp
 517 003e 04F11003 		add	r3, r4, #16
 518 0042 40F27112 		movw	r2, #369
 519 0046 1946     		mov	r1, r3
 520 0048 FFF7FEFF 		bl	memcpy
 521 004c 94E80F00 		ldmia	r4, {r0, r1, r2, r3}
 522 0050 FFF7FEFF 		bl	printTestStatus
 214:main.c        ****     test_t t_voltages = voltages_test();
 523              		.loc 1 214 0
 524 0054 3B46     		mov	r3, r7
 525 0056 1846     		mov	r0, r3
 526 0058 FFF7FEFF 		bl	voltages_test
 215:main.c        ****     printTestStatus(t_voltages);
ARM GAS  C:\Users\bk\AppData\Local\Temp\ccqryncW.s 			page 14


 527              		.loc 1 215 0
 528 005c 3C46     		mov	r4, r7
 529 005e 6846     		mov	r0, sp
 530 0060 04F11003 		add	r3, r4, #16
 531 0064 40F27112 		movw	r2, #369
 532 0068 1946     		mov	r1, r3
 533 006a FFF7FEFF 		bl	memcpy
 534 006e 94E80F00 		ldmia	r4, {r0, r1, r2, r3}
 535 0072 FFF7FEFF 		bl	printTestStatus
 216:main.c        ****   
 217:main.c        ****     int c = 0;
 536              		.loc 1 217 0
 537 0076 0023     		movs	r3, #0
 538 0078 C7F88C34 		str	r3, [r7, #1164]
 218:main.c        ****     c++;
 539              		.loc 1 218 0
 540 007c D7F88C34 		ldr	r3, [r7, #1164]
 541 0080 0133     		adds	r3, r3, #1
 542 0082 C7F88C34 		str	r3, [r7, #1164]
 219:main.c        ****     //test modem
 220:main.c        ****     //test SD card
 221:main.c        ****     //analog: test battery voltage, solar voltage, and solar current
 222:main.c        ****       
 223:main.c        ****   
 224:main.c        **** }
 543              		.loc 1 224 0
 544 0086 00BF     		nop
 545 0088 07F29447 		addw	r7, r7, #1172
 546              		.cfi_def_cfa_offset 12
 547 008c BD46     		mov	sp, r7
 548              		.cfi_def_cfa_register 13
 549              		@ sp needed
 550 008e 90BD     		pop	{r4, r7, pc}
 551              		.cfi_endproc
 552              	.LFE72:
 553              		.size	ChickityCheckYourselfBeforeYouWreckYourself, .-ChickityCheckYourselfBeforeYouWreckYourself
 554              		.section	.text.main,"ax",%progbits
 555              		.align	2
 556              		.global	main
 557              		.thumb
 558              		.thumb_func
 559              		.type	main, %function
 560              	main:
 561              	.LFB73:
 225:main.c        **** 
 226:main.c        **** 
 227:main.c        **** int main(void)
 228:main.c        **** {
 562              		.loc 1 228 0
 563              		.cfi_startproc
 564              		@ args = 0, pretend = 0, frame = 0
 565              		@ frame_needed = 1, uses_anonymous_args = 0
 566 0000 80B5     		push	{r7, lr}
 567              		.cfi_def_cfa_offset 8
 568              		.cfi_offset 7, -8
 569              		.cfi_offset 14, -4
 570 0002 00AF     		add	r7, sp, #0
ARM GAS  C:\Users\bk\AppData\Local\Temp\ccqryncW.s 			page 15


 571              		.cfi_def_cfa_register 7
 229:main.c        ****     CyGlobalIntEnable; /* Enable global interrupts. */
 572              		.loc 1 229 0
 573              		.syntax unified
 574              	@ 229 "main.c" 1
 575 0004 62B6     		CPSIE   i
 576              	@ 0 "" 2
 230:main.c        **** 
 231:main.c        ****     ReadyOrNot();
 577              		.loc 1 231 0
 578              		.thumb
 579              		.syntax unified
 580 0006 FFF7FEFF 		bl	ReadyOrNot
 232:main.c        ****     
 233:main.c        ****     //run tests for all components on bootup
 234:main.c        ****     ChickityCheckYourselfBeforeYouWreckYourself();
 581              		.loc 1 234 0
 582 000a FFF7FEFF 		bl	ChickityCheckYourselfBeforeYouWreckYourself
 583              	.L27:
 235:main.c        ****    
 236:main.c        ****     for(;;)
 237:main.c        ****     {
 238:main.c        ****        if( ! WorkWorkWorkWorkWorkWork() )
 584              		.loc 1 238 0
 585 000e FFF7FEFF 		bl	WorkWorkWorkWorkWorkWork
 586 0012 0346     		mov	r3, r0
 587 0014 002B     		cmp	r3, #0
 588 0016 FAD1     		bne	.L27
 239:main.c        ****        {
 240:main.c        ****             LayBack();
 589              		.loc 1 240 0
 590 0018 FFF7FEFF 		bl	LayBack
 241:main.c        ****        }
 242:main.c        ****     }
 591              		.loc 1 242 0
 592 001c F7E7     		b	.L27
 593              		.cfi_endproc
 594              	.LFE73:
 595              		.size	main, .-main
 596 001e 00BF     		.text
 597              	.Letext0:
 598              		.file 2 "c:\\program files (x86)\\cypress\\psoc creator\\4.3\\psoc creator\\import\\gnu\\arm\\5.4.
 599              		.file 3 "c:\\program files (x86)\\cypress\\psoc creator\\4.3\\psoc creator\\import\\gnu\\arm\\5.4.
 600              		.file 4 "Generated_Source\\PSoC5/cytypes.h"
 601              		.file 5 "notoriOS.h"
 602              		.file 6 "testing.h"
 603              		.file 7 "modem.h"
 604              		.file 8 "Generated_Source\\PSoC5/core_cm3.h"
 605              		.file 9 "debug.h"