ARM GAS  C:\Users\HYFI_A~1\AppData\Local\Temp\ccS9C0dA.s 			page 1


   1              		.syntax unified
   2              		.cpu cortex-m3
   3              		.fpu softvfp
   4              		.eabi_attribute 20, 1
   5              		.eabi_attribute 21, 1
   6              		.eabi_attribute 23, 3
   7              		.eabi_attribute 24, 1
   8              		.eabi_attribute 25, 1
   9              		.eabi_attribute 26, 1
  10              		.eabi_attribute 30, 6
  11              		.eabi_attribute 34, 1
  12              		.eabi_attribute 18, 4
  13              		.thumb
  14              		.syntax unified
  15              		.file	"modem.c"
  16              		.text
  17              	.Ltext0:
  18              		.cfi_sections	.debug_frame
  19              		.comm	modem_state,1,1
  20              		.comm	modem_start_time_stamp,4,4
  21              		.comm	modem_info,60,4
  22              		.comm	modem_stats,12,4
  23              		.comm	debug_string,100,4
  24              		.syntax unified
  25              		.global _printf_float
  26              		.thumb
  27              		.syntax unified
  28              		.comm	dataPointsInStack,2,2
  29              		.comm	data,440,4
  30              		.comm	uart_received_string,1024,4
  31              		.global	uart_string_index
  32              		.bss
  33              		.type	uart_string_index, %object
  34              		.size	uart_string_index, 1
  35              	uart_string_index:
  36 0000 00       		.space	1
  37              		.section	.text.isr_telit_rx,"ax",%progbits
  38              		.align	2
  39              		.global	isr_telit_rx
  40              		.thumb
  41              		.thumb_func
  42              		.type	isr_telit_rx, %function
  43              	isr_telit_rx:
  44              	.LFB64:
  45              		.file 1 "modem.c"
   1:modem.c       **** //Methods for Telit modem 
   2:modem.c       **** #include "modem.h"
   3:modem.c       **** #include "notoriOS.h"
   4:modem.c       **** #include "debug.h"
   5:modem.c       **** 
   6:modem.c       **** char uart_received_string[1024];
   7:modem.c       **** uint8_t uart_string_index=0;
   8:modem.c       **** 
   9:modem.c       **** #define DEFAULT_AT_TIMEOUT 2000u
  10:modem.c       **** #define NO_AT_TIMEOUT 0u
  11:modem.c       **** 
  12:modem.c       **** #define TIMEOUT_NETWORK_CONNECT 200 //seconds
ARM GAS  C:\Users\HYFI_A~1\AppData\Local\Temp\ccS9C0dA.s 			page 2


  13:modem.c       **** #define TIMEOUT_IP_ACQUIRE 230 //seconds (cummulatinve) add to TIMEOUT_NETWORK_CONNECT
  14:modem.c       **** 
  15:modem.c       **** CY_ISR_PROTO(isr_telit_rx);
  16:modem.c       **** 
  17:modem.c       **** CY_ISR(isr_telit_rx){      
  46              		.loc 1 17 0
  47              		.cfi_startproc
  48              		@ args = 0, pretend = 0, frame = 0
  49              		@ frame_needed = 1, uses_anonymous_args = 0
  50 0000 98B5     		push	{r3, r4, r7, lr}
  51              		.cfi_def_cfa_offset 16
  52              		.cfi_offset 3, -16
  53              		.cfi_offset 4, -12
  54              		.cfi_offset 7, -8
  55              		.cfi_offset 14, -4
  56 0002 00AF     		add	r7, sp, #0
  57              		.cfi_def_cfa_register 7
  18:modem.c       ****     while(UART_Telit_GetRxBufferSize()==1){
  58              		.loc 1 18 0
  59 0004 0EE0     		b	.L2
  60              	.L3:
  19:modem.c       ****         uart_received_string[uart_string_index]=UART_Telit_GetChar();
  61              		.loc 1 19 0
  62 0006 0B4B     		ldr	r3, .L4
  63 0008 1B78     		ldrb	r3, [r3]	@ zero_extendqisi2
  64 000a 1C46     		mov	r4, r3
  65 000c FFF7FEFF 		bl	UART_Telit_GetChar
  66 0010 0346     		mov	r3, r0
  67 0012 1A46     		mov	r2, r3
  68 0014 084B     		ldr	r3, .L4+4
  69 0016 1A55     		strb	r2, [r3, r4]
  20:modem.c       ****         uart_string_index++;
  70              		.loc 1 20 0
  71 0018 064B     		ldr	r3, .L4
  72 001a 1B78     		ldrb	r3, [r3]	@ zero_extendqisi2
  73 001c 0133     		adds	r3, r3, #1
  74 001e DAB2     		uxtb	r2, r3
  75 0020 044B     		ldr	r3, .L4
  76 0022 1A70     		strb	r2, [r3]
  77              	.L2:
  18:modem.c       ****     while(UART_Telit_GetRxBufferSize()==1){
  78              		.loc 1 18 0
  79 0024 FFF7FEFF 		bl	UART_Telit_GetRxBufferSize
  80 0028 0346     		mov	r3, r0
  81 002a 012B     		cmp	r3, #1
  82 002c EBD0     		beq	.L3
  21:modem.c       ****     }
  22:modem.c       **** 
  23:modem.c       **** }
  83              		.loc 1 23 0
  84 002e 00BF     		nop
  85 0030 98BD     		pop	{r3, r4, r7, pc}
  86              	.L5:
  87 0032 00BF     		.align	2
  88              	.L4:
  89 0034 00000000 		.word	uart_string_index
  90 0038 00000000 		.word	uart_received_string
ARM GAS  C:\Users\HYFI_A~1\AppData\Local\Temp\ccS9C0dA.s 			page 3


  91              		.cfi_endproc
  92              	.LFE64:
  93              		.size	isr_telit_rx, .-isr_telit_rx
  94              		.section	.text.modem_intilize,"ax",%progbits
  95              		.align	2
  96              		.global	modem_intilize
  97              		.thumb
  98              		.thumb_func
  99              		.type	modem_intilize, %function
 100              	modem_intilize:
 101              	.LFB65:
  24:modem.c       **** 
  25:modem.c       **** 
  26:modem.c       **** void modem_intilize(){
 102              		.loc 1 26 0
 103              		.cfi_startproc
 104              		@ args = 0, pretend = 0, frame = 0
 105              		@ frame_needed = 1, uses_anonymous_args = 0
 106 0000 80B5     		push	{r7, lr}
 107              		.cfi_def_cfa_offset 8
 108              		.cfi_offset 7, -8
 109              		.cfi_offset 14, -4
 110 0002 00AF     		add	r7, sp, #0
 111              		.cfi_def_cfa_register 7
  27:modem.c       ****     //don't do much except make sure that all the modem pins are pulled low
  28:modem.c       ****     //also make sure that the TX PIN is fully disabled
  29:modem.c       ****     pins_configure_inactive();
 112              		.loc 1 29 0
 113 0004 FFF7FEFF 		bl	pins_configure_inactive
  30:modem.c       ****     modem_state = 0;
 114              		.loc 1 30 0
 115 0008 0F4B     		ldr	r3, .L7
 116 000a 0022     		movs	r2, #0
 117 000c 1A70     		strb	r2, [r3]
  31:modem.c       ****     //initilize states
  32:modem.c       ****     modem_info.imei[0] = '\0';
 118              		.loc 1 32 0
 119 000e 0F4B     		ldr	r3, .L7+4
 120 0010 0022     		movs	r2, #0
 121 0012 83F82820 		strb	r2, [r3, #40]
  33:modem.c       ****     modem_info.model_id[0] = '\0';
 122              		.loc 1 33 0
 123 0016 0D4B     		ldr	r3, .L7+4
 124 0018 0022     		movs	r2, #0
 125 001a 1A75     		strb	r2, [r3, #20]
  34:modem.c       ****     modem_info.sim_id[0] = '\0';
 126              		.loc 1 34 0
 127 001c 0B4B     		ldr	r3, .L7+4
 128 001e 0022     		movs	r2, #0
 129 0020 1A70     		strb	r2, [r3]
  35:modem.c       ****     modem_stats.sq = 0;
 130              		.loc 1 35 0
 131 0022 0B4B     		ldr	r3, .L7+8
 132 0024 0022     		movs	r2, #0
 133 0026 5A70     		strb	r2, [r3, #1]
  36:modem.c       ****     modem_stats.rssi = 0;
 134              		.loc 1 36 0
ARM GAS  C:\Users\HYFI_A~1\AppData\Local\Temp\ccS9C0dA.s 			page 4


 135 0028 094B     		ldr	r3, .L7+8
 136 002a 0022     		movs	r2, #0
 137 002c 1A70     		strb	r2, [r3]
  37:modem.c       ****     modem_stats.time_to_acquire_ip = 0;
 138              		.loc 1 37 0
 139 002e 084B     		ldr	r3, .L7+8
 140 0030 0022     		movs	r2, #0
 141 0032 9A60     		str	r2, [r3, #8]
  38:modem.c       ****     modem_stats.time_to_network_connect = 0;
 142              		.loc 1 38 0
 143 0034 064B     		ldr	r3, .L7+8
 144 0036 0022     		movs	r2, #0
 145 0038 5A60     		str	r2, [r3, #4]
  39:modem.c       ****     //disable the RX Pin interrupt, and only enable it during long timeouts
  40:modem.c       ****     Rx_Telit_SetInterruptMode(Rx_Telit_0_INTR,Rx_Telit_INTR_NONE);
 146              		.loc 1 40 0
 147 003a 0021     		movs	r1, #0
 148 003c 4020     		movs	r0, #64
 149 003e FFF7FEFF 		bl	Rx_Telit_SetInterruptMode
  41:modem.c       ****     
  42:modem.c       **** }
 150              		.loc 1 42 0
 151 0042 00BF     		nop
 152 0044 80BD     		pop	{r7, pc}
 153              	.L8:
 154 0046 00BF     		.align	2
 155              	.L7:
 156 0048 00000000 		.word	modem_state
 157 004c 00000000 		.word	modem_info
 158 0050 00000000 		.word	modem_stats
 159              		.cfi_endproc
 160              	.LFE65:
 161              		.size	modem_intilize, .-modem_intilize
 162              		.section	.text.pins_configure_inactive,"ax",%progbits
 163              		.align	2
 164              		.global	pins_configure_inactive
 165              		.thumb
 166              		.thumb_func
 167              		.type	pins_configure_inactive, %function
 168              	pins_configure_inactive:
 169              	.LFB66:
  43:modem.c       **** 
  44:modem.c       **** 
  45:modem.c       **** //to be used when the modem power is to be "killed" conpletely to conserve power
  46:modem.c       **** void pins_configure_inactive(){
 170              		.loc 1 46 0
 171              		.cfi_startproc
 172              		@ args = 0, pretend = 0, frame = 0
 173              		@ frame_needed = 1, uses_anonymous_args = 0
 174 0000 80B5     		push	{r7, lr}
 175              		.cfi_def_cfa_offset 8
 176              		.cfi_offset 7, -8
 177              		.cfi_offset 14, -4
 178 0002 00AF     		add	r7, sp, #0
 179              		.cfi_def_cfa_register 7
  47:modem.c       ****    
  48:modem.c       ****     //physically disconect UART pin
ARM GAS  C:\Users\HYFI_A~1\AppData\Local\Temp\ccS9C0dA.s 			page 5


  49:modem.c       ****    Telit_ControlReg_Write(0u);
 180              		.loc 1 49 0
 181 0004 0020     		movs	r0, #0
 182 0006 FFF7FEFF 		bl	Telit_ControlReg_Write
  50:modem.c       ****    //set drive mode
  51:modem.c       ****    Rx_Telit_SetDriveMode(PIN_DM_STRONG);
 183              		.loc 1 51 0
 184 000a 0C20     		movs	r0, #12
 185 000c FFF7FEFF 		bl	Rx_Telit_SetDriveMode
  52:modem.c       **** 
  53:modem.c       ****    //kill power to modem
  54:modem.c       ****    Pin_Telit_pwr_Write(OFF);
 186              		.loc 1 54 0
 187 0010 0020     		movs	r0, #0
 188 0012 FFF7FEFF 		bl	Pin_Telit_pwr_Write
  55:modem.c       **** 
  56:modem.c       ****    //pull down all of these, just in case
  57:modem.c       ****    Rx_Telit_Write(OFF); 
 189              		.loc 1 57 0
 190 0016 0020     		movs	r0, #0
 191 0018 FFF7FEFF 		bl	Rx_Telit_Write
  58:modem.c       ****    Tx_Telit_Write(OFF);
 192              		.loc 1 58 0
 193 001c 0020     		movs	r0, #0
 194 001e FFF7FEFF 		bl	Tx_Telit_Write
  59:modem.c       ****    Pin_Telit_ONOFF_Write(OFF);
 195              		.loc 1 59 0
 196 0022 0020     		movs	r0, #0
 197 0024 FFF7FEFF 		bl	Pin_Telit_ONOFF_Write
  60:modem.c       ****    Pin_Telit_SWRDY_Write(OFF);
 198              		.loc 1 60 0
 199 0028 0020     		movs	r0, #0
 200 002a FFF7FEFF 		bl	Pin_Telit_SWRDY_Write
  61:modem.c       ****     
  62:modem.c       **** }
 201              		.loc 1 62 0
 202 002e 00BF     		nop
 203 0030 80BD     		pop	{r7, pc}
 204              		.cfi_endproc
 205              	.LFE66:
 206              		.size	pins_configure_inactive, .-pins_configure_inactive
 207 0032 00BF     		.section	.text.pins_configure_active,"ax",%progbits
 208              		.align	2
 209              		.global	pins_configure_active
 210              		.thumb
 211              		.thumb_func
 212              		.type	pins_configure_active, %function
 213              	pins_configure_active:
 214              	.LFB67:
  63:modem.c       **** 
  64:modem.c       **** void pins_configure_active(){
 215              		.loc 1 64 0
 216              		.cfi_startproc
 217              		@ args = 0, pretend = 0, frame = 0
 218              		@ frame_needed = 1, uses_anonymous_args = 0
 219 0000 80B5     		push	{r7, lr}
 220              		.cfi_def_cfa_offset 8
ARM GAS  C:\Users\HYFI_A~1\AppData\Local\Temp\ccS9C0dA.s 			page 6


 221              		.cfi_offset 7, -8
 222              		.cfi_offset 14, -4
 223 0002 00AF     		add	r7, sp, #0
 224              		.cfi_def_cfa_register 7
  65:modem.c       ****     //powerup
  66:modem.c       ****     Rx_Telit_SetDriveMode(PIN_DM_DIG_HIZ);
 225              		.loc 1 66 0
 226 0004 0220     		movs	r0, #2
 227 0006 FFF7FEFF 		bl	Rx_Telit_SetDriveMode
  67:modem.c       ****     Telit_ControlReg_Write(1u);
 228              		.loc 1 67 0
 229 000a 0120     		movs	r0, #1
 230 000c FFF7FEFF 		bl	Telit_ControlReg_Write
  68:modem.c       ****     Pin_Telit_pwr_Write(ON);
 231              		.loc 1 68 0
 232 0010 0120     		movs	r0, #1
 233 0012 FFF7FEFF 		bl	Pin_Telit_pwr_Write
  69:modem.c       ****     CyDelay(100u);//give the MOSFET a few ms to stalbilise power 
 234              		.loc 1 69 0
 235 0016 6420     		movs	r0, #100
 236 0018 FFF7FEFF 		bl	CyDelay
  70:modem.c       **** }
 237              		.loc 1 70 0
 238 001c 00BF     		nop
 239 001e 80BD     		pop	{r7, pc}
 240              		.cfi_endproc
 241              	.LFE67:
 242              		.size	pins_configure_active, .-pins_configure_active
 243              		.section	.rodata
 244              		.align	2
 245              	.LC0:
 246 0000 4F4B00   		.ascii	"OK\000"
 247 0003 00       		.align	2
 248              	.LC1:
 249 0004 41542353 		.ascii	"AT#SHDN\015\000"
 249      48444E0D 
 249      00
 250              		.section	.text.modem_power_down,"ax",%progbits
 251              		.align	2
 252              		.global	modem_power_down
 253              		.thumb
 254              		.thumb_func
 255              		.type	modem_power_down, %function
 256              	modem_power_down:
 257              	.LFB68:
  71:modem.c       **** 
  72:modem.c       **** void modem_power_down(){
 258              		.loc 1 72 0
 259              		.cfi_startproc
 260              		@ args = 0, pretend = 0, frame = 0
 261              		@ frame_needed = 1, uses_anonymous_args = 0
 262 0000 80B5     		push	{r7, lr}
 263              		.cfi_def_cfa_offset 8
 264              		.cfi_offset 7, -8
 265              		.cfi_offset 14, -4
 266 0002 00AF     		add	r7, sp, #0
 267              		.cfi_def_cfa_register 7
ARM GAS  C:\Users\HYFI_A~1\AppData\Local\Temp\ccS9C0dA.s 			page 7


  73:modem.c       ****     
  74:modem.c       ****    at_write_command("AT#SHDN\r","OK",5000u); 
 268              		.loc 1 74 0
 269 0004 41F28832 		movw	r2, #5000
 270 0008 0A49     		ldr	r1, .L12
 271 000a 0B48     		ldr	r0, .L12+4
 272 000c FFF7FEFF 		bl	at_write_command
  75:modem.c       ****     
  76:modem.c       ****    modem_soft_power_cycle();
 273              		.loc 1 76 0
 274 0010 FFF7FEFF 		bl	modem_soft_power_cycle
  77:modem.c       ****    CyDelay(1000u);
 275              		.loc 1 77 0
 276 0014 4FF47A70 		mov	r0, #1000
 277 0018 FFF7FEFF 		bl	CyDelay
  78:modem.c       ****     
  79:modem.c       ****    UART_Telit_Stop();
 278              		.loc 1 79 0
 279 001c FFF7FEFF 		bl	UART_Telit_Stop
  80:modem.c       ****    isr_telit_rx_Stop();
 280              		.loc 1 80 0
 281 0020 FFF7FEFF 		bl	isr_telit_rx_Stop
  81:modem.c       ****    pins_configure_inactive();
 282              		.loc 1 81 0
 283 0024 FFF7FEFF 		bl	pins_configure_inactive
  82:modem.c       ****    modem_state = MODEM_STATE_OFF;
 284              		.loc 1 82 0
 285 0028 044B     		ldr	r3, .L12+8
 286 002a 0022     		movs	r2, #0
 287 002c 1A70     		strb	r2, [r3]
  83:modem.c       ****     
  84:modem.c       **** }
 288              		.loc 1 84 0
 289 002e 00BF     		nop
 290 0030 80BD     		pop	{r7, pc}
 291              	.L13:
 292 0032 00BF     		.align	2
 293              	.L12:
 294 0034 00000000 		.word	.LC0
 295 0038 04000000 		.word	.LC1
 296 003c 00000000 		.word	modem_state
 297              		.cfi_endproc
 298              	.LFE68:
 299              		.size	modem_power_down, .-modem_power_down
 300              		.section	.rodata
 301 000d 000000   		.align	2
 302              	.LC2:
 303 0010 41544530 		.ascii	"ATE0\015\000"
 303      0D00
 304 0016 0000     		.align	2
 305              	.LC3:
 306 0018 4D6F6465 		.ascii	"Modem ready for AT commands after %d attempt(s).\000"
 306      6D207265 
 306      61647920 
 306      666F7220 
 306      41542063 
 307 0049 000000   		.align	2
ARM GAS  C:\Users\HYFI_A~1\AppData\Local\Temp\ccS9C0dA.s 			page 8


 308              	.LC4:
 309 004c 4E6F2072 		.ascii	"No response from modem.\000"
 309      6573706F 
 309      6E736520 
 309      66726F6D 
 309      206D6F64 
 310              		.section	.text.modem_power_up,"ax",%progbits
 311              		.align	2
 312              		.global	modem_power_up
 313              		.thumb
 314              		.thumb_func
 315              		.type	modem_power_up, %function
 316              	modem_power_up:
 317              	.LFB69:
  85:modem.c       **** 
  86:modem.c       **** //this puts all the modem pints into a state that won't leak power
  87:modem.c       **** //pleasde call restore_pins() to bring them abck to function when they are needed for UART
  88:modem.c       **** uint8 modem_power_up(){
 318              		.loc 1 88 0
 319              		.cfi_startproc
 320              		@ args = 0, pretend = 0, frame = 8
 321              		@ frame_needed = 1, uses_anonymous_args = 0
 322 0000 80B5     		push	{r7, lr}
 323              		.cfi_def_cfa_offset 8
 324              		.cfi_offset 7, -8
 325              		.cfi_offset 14, -4
 326 0002 82B0     		sub	sp, sp, #8
 327              		.cfi_def_cfa_offset 16
 328 0004 00AF     		add	r7, sp, #0
 329              		.cfi_def_cfa_register 7
  89:modem.c       **** 
  90:modem.c       ****     pins_configure_active();//turns on power and configures all UART pin modes
 330              		.loc 1 90 0
 331 0006 FFF7FEFF 		bl	pins_configure_active
  91:modem.c       ****     UART_Telit_Start();
 332              		.loc 1 91 0
 333 000a FFF7FEFF 		bl	UART_Telit_Start
  92:modem.c       ****     isr_telit_rx_StartEx(isr_telit_rx);
 334              		.loc 1 92 0
 335 000e 1E48     		ldr	r0, .L22
 336 0010 FFF7FEFF 		bl	isr_telit_rx_StartEx
  93:modem.c       **** 
  94:modem.c       ****     modem_soft_power_cycle();
 337              		.loc 1 94 0
 338 0014 FFF7FEFF 		bl	modem_soft_power_cycle
  95:modem.c       ****     
  96:modem.c       ****     //turn off ECHO command
  97:modem.c       ****     uint8 at_ready = 0;
 339              		.loc 1 97 0
 340 0018 0023     		movs	r3, #0
 341 001a FB71     		strb	r3, [r7, #7]
  98:modem.c       ****     uint8 attemps = 0;
 342              		.loc 1 98 0
 343 001c 0023     		movs	r3, #0
 344 001e 7B71     		strb	r3, [r7, #5]
 345              	.LBB2:
  99:modem.c       ****     
ARM GAS  C:\Users\HYFI_A~1\AppData\Local\Temp\ccS9C0dA.s 			page 9


 100:modem.c       ****     for(uint8 attemps = 0; attemps<3; attemps++){
 346              		.loc 1 100 0
 347 0020 0023     		movs	r3, #0
 348 0022 BB71     		strb	r3, [r7, #6]
 349 0024 10E0     		b	.L15
 350              	.L18:
 101:modem.c       ****         if(at_write_command("ATE0\r","OK",DEFAULT_AT_TIMEOUT)){
 351              		.loc 1 101 0
 352 0026 4FF4FA62 		mov	r2, #2000
 353 002a 1849     		ldr	r1, .L22+4
 354 002c 1848     		ldr	r0, .L22+8
 355 002e FFF7FEFF 		bl	at_write_command
 356 0032 0346     		mov	r3, r0
 357 0034 002B     		cmp	r3, #0
 358 0036 02D0     		beq	.L16
 102:modem.c       ****             at_ready = 1;
 359              		.loc 1 102 0
 360 0038 0123     		movs	r3, #1
 361 003a FB71     		strb	r3, [r7, #7]
 103:modem.c       ****             break;
 362              		.loc 1 103 0
 363 003c 07E0     		b	.L17
 364              	.L16:
 104:modem.c       ****         }else{
 105:modem.c       ****             modem_soft_power_cycle();
 365              		.loc 1 105 0 discriminator 2
 366 003e FFF7FEFF 		bl	modem_soft_power_cycle
 100:modem.c       ****         if(at_write_command("ATE0\r","OK",DEFAULT_AT_TIMEOUT)){
 367              		.loc 1 100 0 discriminator 2
 368 0042 BB79     		ldrb	r3, [r7, #6]	@ zero_extendqisi2
 369 0044 0133     		adds	r3, r3, #1
 370 0046 BB71     		strb	r3, [r7, #6]
 371              	.L15:
 100:modem.c       ****         if(at_write_command("ATE0\r","OK",DEFAULT_AT_TIMEOUT)){
 372              		.loc 1 100 0 is_stmt 0 discriminator 1
 373 0048 BB79     		ldrb	r3, [r7, #6]	@ zero_extendqisi2
 374 004a 022B     		cmp	r3, #2
 375 004c EBD9     		bls	.L18
 376              	.L17:
 377              	.LBE2:
 106:modem.c       ****         }
 107:modem.c       ****     }
 108:modem.c       ****     
 109:modem.c       ****     if(at_ready == 1){
 378              		.loc 1 109 0 is_stmt 1
 379 004e FB79     		ldrb	r3, [r7, #7]	@ zero_extendqisi2
 380 0050 012B     		cmp	r3, #1
 381 0052 0AD1     		bne	.L19
 110:modem.c       ****         printNotif(NOTIF_TYPE_EVENT,"Modem ready for AT commands after %d attempt(s).",attemps);
 382              		.loc 1 110 0
 383 0054 7B79     		ldrb	r3, [r7, #5]	@ zero_extendqisi2
 384 0056 1A46     		mov	r2, r3
 385 0058 0E49     		ldr	r1, .L22+12
 386 005a 0020     		movs	r0, #0
 387 005c FFF7FEFF 		bl	printNotif
 111:modem.c       ****         modem_state = MODEM_STATE_STARTUP;
 388              		.loc 1 111 0
ARM GAS  C:\Users\HYFI_A~1\AppData\Local\Temp\ccS9C0dA.s 			page 10


 389 0060 0D4B     		ldr	r3, .L22+16
 390 0062 0122     		movs	r2, #1
 391 0064 1A70     		strb	r2, [r3]
 112:modem.c       ****     }else{
 113:modem.c       ****         printNotif(NOTIF_TYPE_ERROR,"No response from modem.");
 114:modem.c       ****         modem_state = MODEM_STATE_OFF;
 115:modem.c       ****         modem_power_down();
 116:modem.c       ****         return 0u;
 117:modem.c       ****     }
 118:modem.c       ****     return 1u;
 392              		.loc 1 118 0
 393 0066 0123     		movs	r3, #1
 394 0068 09E0     		b	.L21
 395              	.L19:
 113:modem.c       ****         modem_state = MODEM_STATE_OFF;
 396              		.loc 1 113 0
 397 006a 0C49     		ldr	r1, .L22+20
 398 006c 0220     		movs	r0, #2
 399 006e FFF7FEFF 		bl	printNotif
 114:modem.c       ****         modem_power_down();
 400              		.loc 1 114 0
 401 0072 094B     		ldr	r3, .L22+16
 402 0074 0022     		movs	r2, #0
 403 0076 1A70     		strb	r2, [r3]
 115:modem.c       ****         return 0u;
 404              		.loc 1 115 0
 405 0078 FFF7FEFF 		bl	modem_power_down
 116:modem.c       ****     }
 406              		.loc 1 116 0
 407 007c 0023     		movs	r3, #0
 408              	.L21:
 119:modem.c       **** }
 409              		.loc 1 119 0
 410 007e 1846     		mov	r0, r3
 411 0080 0837     		adds	r7, r7, #8
 412              		.cfi_def_cfa_offset 8
 413 0082 BD46     		mov	sp, r7
 414              		.cfi_def_cfa_register 13
 415              		@ sp needed
 416 0084 80BD     		pop	{r7, pc}
 417              	.L23:
 418 0086 00BF     		.align	2
 419              	.L22:
 420 0088 00000000 		.word	isr_telit_rx
 421 008c 00000000 		.word	.LC0
 422 0090 10000000 		.word	.LC2
 423 0094 18000000 		.word	.LC3
 424 0098 00000000 		.word	modem_state
 425 009c 4C000000 		.word	.LC4
 426              		.cfi_endproc
 427              	.LFE69:
 428              		.size	modem_power_up, .-modem_power_up
 429              		.section	.text.modem_soft_power_cycle,"ax",%progbits
 430              		.align	2
 431              		.global	modem_soft_power_cycle
 432              		.thumb
 433              		.thumb_func
ARM GAS  C:\Users\HYFI_A~1\AppData\Local\Temp\ccS9C0dA.s 			page 11


 434              		.type	modem_soft_power_cycle, %function
 435              	modem_soft_power_cycle:
 436              	.LFB70:
 120:modem.c       **** 
 121:modem.c       **** void modem_soft_power_cycle(){
 437              		.loc 1 121 0
 438              		.cfi_startproc
 439              		@ args = 0, pretend = 0, frame = 0
 440              		@ frame_needed = 1, uses_anonymous_args = 0
 441 0000 80B5     		push	{r7, lr}
 442              		.cfi_def_cfa_offset 8
 443              		.cfi_offset 7, -8
 444              		.cfi_offset 14, -4
 445 0002 00AF     		add	r7, sp, #0
 446              		.cfi_def_cfa_register 7
 122:modem.c       ****     Pin_Telit_ONOFF_Write(1u);
 447              		.loc 1 122 0
 448 0004 0120     		movs	r0, #1
 449 0006 FFF7FEFF 		bl	Pin_Telit_ONOFF_Write
 123:modem.c       ****     CyDelay(2000u);//give modem a sec to boot
 450              		.loc 1 123 0
 451 000a 4FF4FA60 		mov	r0, #2000
 452 000e FFF7FEFF 		bl	CyDelay
 124:modem.c       ****     Pin_Telit_ONOFF_Write(0u);
 453              		.loc 1 124 0
 454 0012 0020     		movs	r0, #0
 455 0014 FFF7FEFF 		bl	Pin_Telit_ONOFF_Write
 125:modem.c       ****     
 126:modem.c       **** }
 456              		.loc 1 126 0
 457 0018 00BF     		nop
 458 001a 80BD     		pop	{r7, pc}
 459              		.cfi_endproc
 460              	.LFE70:
 461              		.size	modem_soft_power_cycle, .-modem_soft_power_cycle
 462              		.section	.text.uart_string_reset,"ax",%progbits
 463              		.align	2
 464              		.global	uart_string_reset
 465              		.thumb
 466              		.thumb_func
 467              		.type	uart_string_reset, %function
 468              	uart_string_reset:
 469              	.LFB71:
 127:modem.c       **** 
 128:modem.c       **** 
 129:modem.c       **** void uart_string_reset(){
 470              		.loc 1 129 0
 471              		.cfi_startproc
 472              		@ args = 0, pretend = 0, frame = 0
 473              		@ frame_needed = 1, uses_anonymous_args = 0
 474 0000 80B5     		push	{r7, lr}
 475              		.cfi_def_cfa_offset 8
 476              		.cfi_offset 7, -8
 477              		.cfi_offset 14, -4
 478 0002 00AF     		add	r7, sp, #0
 479              		.cfi_def_cfa_register 7
 130:modem.c       ****     uart_string_index=0;
ARM GAS  C:\Users\HYFI_A~1\AppData\Local\Temp\ccS9C0dA.s 			page 12


 480              		.loc 1 130 0
 481 0004 064B     		ldr	r3, .L26
 482 0006 0022     		movs	r2, #0
 483 0008 1A70     		strb	r2, [r3]
 131:modem.c       ****     memset(uart_received_string,'\0',sizeof(uart_received_string));
 484              		.loc 1 131 0
 485 000a 4FF48062 		mov	r2, #1024
 486 000e 0021     		movs	r1, #0
 487 0010 0448     		ldr	r0, .L26+4
 488 0012 FFF7FEFF 		bl	memset
 132:modem.c       ****     UART_Telit_ClearRxBuffer();
 489              		.loc 1 132 0
 490 0016 FFF7FEFF 		bl	UART_Telit_ClearRxBuffer
 133:modem.c       **** }
 491              		.loc 1 133 0
 492 001a 00BF     		nop
 493 001c 80BD     		pop	{r7, pc}
 494              	.L27:
 495 001e 00BF     		.align	2
 496              	.L26:
 497 0020 00000000 		.word	uart_string_index
 498 0024 00000000 		.word	uart_received_string
 499              		.cfi_endproc
 500              	.LFE71:
 501              		.size	uart_string_reset, .-uart_string_reset
 502              		.section	.rodata
 503              		.align	2
 504              	.LC5:
 505 0064 4D6F6465 		.ascii	"Modem sent AT command without timeout: %s\015\012\000"
 505      6D207365 
 505      6E742041 
 505      5420636F 
 505      6D6D616E 
 506              		.align	2
 507              	.LC6:
 508 0090 4D6F6465 		.ascii	"Modem Received expected AT Response on first Try: %"
 508      6D205265 
 508      63656976 
 508      65642065 
 508      78706563 
 509 00c3 730D0A00 		.ascii	"s\015\012\000"
 510 00c7 00       		.align	2
 511              	.LC7:
 512 00c8 4D6F6465 		.ascii	"Modem required %d tries to receive AT Response: %s\015"
 512      6D207265 
 512      71756972 
 512      65642025 
 512      64207472 
 513 00fb 0A00     		.ascii	"\012\000"
 514              		.section	.text.at_write_command,"ax",%progbits
 515              		.align	2
 516              		.global	at_write_command
 517              		.thumb
 518              		.thumb_func
 519              		.type	at_write_command, %function
 520              	at_write_command:
 521              	.LFB72:
ARM GAS  C:\Users\HYFI_A~1\AppData\Local\Temp\ccS9C0dA.s 			page 13


 134:modem.c       **** 
 135:modem.c       **** uint8_t at_write_command(char* commands, char* expected_response,uint32_t timeout){
 522              		.loc 1 135 0
 523              		.cfi_startproc
 524              		@ args = 0, pretend = 0, frame = 40
 525              		@ frame_needed = 1, uses_anonymous_args = 0
 526 0000 80B5     		push	{r7, lr}
 527              		.cfi_def_cfa_offset 8
 528              		.cfi_offset 7, -8
 529              		.cfi_offset 14, -4
 530 0002 8AB0     		sub	sp, sp, #40
 531              		.cfi_def_cfa_offset 48
 532 0004 00AF     		add	r7, sp, #0
 533              		.cfi_def_cfa_register 7
 534 0006 F860     		str	r0, [r7, #12]
 535 0008 B960     		str	r1, [r7, #8]
 536 000a 7A60     		str	r2, [r7, #4]
 136:modem.c       **** 
 137:modem.c       ****     uint32 at_attempt = 0;
 537              		.loc 1 137 0
 538 000c 0023     		movs	r3, #0
 539 000e 7B62     		str	r3, [r7, #36]
 138:modem.c       ****     
 139:modem.c       ****     for(at_attempt = 0; at_attempt < 3; at_attempt++) {
 540              		.loc 1 139 0
 541 0010 0023     		movs	r3, #0
 542 0012 7B62     		str	r3, [r7, #36]
 543 0014 3FE0     		b	.L29
 544              	.L37:
 545              	.LBB3:
 140:modem.c       ****         
 141:modem.c       ****         char* compare_location;
 142:modem.c       ****         uint32_t delay=10;
 546              		.loc 1 142 0
 547 0016 0A23     		movs	r3, #10
 548 0018 FB61     		str	r3, [r7, #28]
 143:modem.c       ****         uint32_t i, interval=timeout/delay;        
 549              		.loc 1 143 0
 550 001a 7A68     		ldr	r2, [r7, #4]
 551 001c FB69     		ldr	r3, [r7, #28]
 552 001e B2FBF3F3 		udiv	r3, r2, r3
 553 0022 BB61     		str	r3, [r7, #24]
 144:modem.c       ****         
 145:modem.c       ****         uart_string_reset();
 554              		.loc 1 145 0
 555 0024 FFF7FEFF 		bl	uart_string_reset
 146:modem.c       ****         UART_Telit_PutString(commands);
 556              		.loc 1 146 0
 557 0028 F868     		ldr	r0, [r7, #12]
 558 002a FFF7FEFF 		bl	UART_Telit_PutString
 147:modem.c       ****         
 148:modem.c       ****         //if no timeout, no need to wait for response
 149:modem.c       ****         if(timeout == NO_AT_TIMEOUT){
 559              		.loc 1 149 0
 560 002e 7B68     		ldr	r3, [r7, #4]
 561 0030 002B     		cmp	r3, #0
 562 0032 06D1     		bne	.L30
ARM GAS  C:\Users\HYFI_A~1\AppData\Local\Temp\ccS9C0dA.s 			page 14


 150:modem.c       ****             printNotif(NOTIF_TYPE_EVENT,"Modem sent AT command without timeout: %s\r\n", commands);
 563              		.loc 1 150 0
 564 0034 FA68     		ldr	r2, [r7, #12]
 565 0036 1C49     		ldr	r1, .L38
 566 0038 0020     		movs	r0, #0
 567 003a FFF7FEFF 		bl	printNotif
 151:modem.c       ****             return 1u;
 568              		.loc 1 151 0
 569 003e 0123     		movs	r3, #1
 570 0040 2DE0     		b	.L31
 571              	.L30:
 152:modem.c       ****         }
 153:modem.c       ****       
 154:modem.c       ****      
 155:modem.c       ****         for(i=0;i<interval;i++){ 
 572              		.loc 1 155 0
 573 0042 0023     		movs	r3, #0
 574 0044 3B62     		str	r3, [r7, #32]
 575 0046 1FE0     		b	.L32
 576              	.L36:
 156:modem.c       ****             CyDelay((uint32) delay);
 577              		.loc 1 156 0
 578 0048 F869     		ldr	r0, [r7, #28]
 579 004a FFF7FEFF 		bl	CyDelay
 157:modem.c       ****             compare_location=strstr(uart_received_string,expected_response);        
 580              		.loc 1 157 0
 581 004e B968     		ldr	r1, [r7, #8]
 582 0050 1648     		ldr	r0, .L38+4
 583 0052 FFF7FEFF 		bl	strstr
 584 0056 7861     		str	r0, [r7, #20]
 158:modem.c       ****             if(compare_location!=NULL) {
 585              		.loc 1 158 0
 586 0058 7B69     		ldr	r3, [r7, #20]
 587 005a 002B     		cmp	r3, #0
 588 005c 11D0     		beq	.L33
 159:modem.c       ****                 if (at_attempt == 0){
 589              		.loc 1 159 0
 590 005e 7B6A     		ldr	r3, [r7, #36]
 591 0060 002B     		cmp	r3, #0
 592 0062 05D1     		bne	.L34
 160:modem.c       ****                    printNotif(NOTIF_TYPE_EVENT,"Modem Received expected AT Response on first Try: %
 593              		.loc 1 160 0
 594 0064 114A     		ldr	r2, .L38+4
 595 0066 1249     		ldr	r1, .L38+8
 596 0068 0020     		movs	r0, #0
 597 006a FFF7FEFF 		bl	printNotif
 598 006e 06E0     		b	.L35
 599              	.L34:
 161:modem.c       ****                 }else{
 162:modem.c       ****                    printNotif(NOTIF_TYPE_WARNING,"Modem required %d tries to receive AT Response: %
 600              		.loc 1 162 0
 601 0070 7B6A     		ldr	r3, [r7, #36]
 602 0072 5A1C     		adds	r2, r3, #1
 603 0074 0D4B     		ldr	r3, .L38+4
 604 0076 0F49     		ldr	r1, .L38+12
 605 0078 0120     		movs	r0, #1
 606 007a FFF7FEFF 		bl	printNotif
ARM GAS  C:\Users\HYFI_A~1\AppData\Local\Temp\ccS9C0dA.s 			page 15


 607              	.L35:
 163:modem.c       ****                  
 164:modem.c       ****                 }
 165:modem.c       ****                  return(1);
 608              		.loc 1 165 0
 609 007e 0123     		movs	r3, #1
 610 0080 0DE0     		b	.L31
 611              	.L33:
 155:modem.c       ****             CyDelay((uint32) delay);
 612              		.loc 1 155 0 discriminator 2
 613 0082 3B6A     		ldr	r3, [r7, #32]
 614 0084 0133     		adds	r3, r3, #1
 615 0086 3B62     		str	r3, [r7, #32]
 616              	.L32:
 155:modem.c       ****             CyDelay((uint32) delay);
 617              		.loc 1 155 0 is_stmt 0 discriminator 1
 618 0088 3A6A     		ldr	r2, [r7, #32]
 619 008a BB69     		ldr	r3, [r7, #24]
 620 008c 9A42     		cmp	r2, r3
 621 008e DBD3     		bcc	.L36
 622              	.LBE3:
 139:modem.c       ****         
 623              		.loc 1 139 0 is_stmt 1 discriminator 2
 624 0090 7B6A     		ldr	r3, [r7, #36]
 625 0092 0133     		adds	r3, r3, #1
 626 0094 7B62     		str	r3, [r7, #36]
 627              	.L29:
 139:modem.c       ****         
 628              		.loc 1 139 0 is_stmt 0 discriminator 1
 629 0096 7B6A     		ldr	r3, [r7, #36]
 630 0098 022B     		cmp	r3, #2
 631 009a BCD9     		bls	.L37
 166:modem.c       ****             }
 167:modem.c       ****             
 168:modem.c       ****         }   
 169:modem.c       ****       
 170:modem.c       ****     }
 171:modem.c       ****    // printNotif(NOTIF_TYPE_ERROR,"Modem AT response timeout: %s\r\n", commands);
 172:modem.c       ****           
 173:modem.c       ****     return(0);    
 632              		.loc 1 173 0 is_stmt 1
 633 009c 0023     		movs	r3, #0
 634              	.L31:
 174:modem.c       **** }
 635              		.loc 1 174 0
 636 009e 1846     		mov	r0, r3
 637 00a0 2837     		adds	r7, r7, #40
 638              		.cfi_def_cfa_offset 8
 639 00a2 BD46     		mov	sp, r7
 640              		.cfi_def_cfa_register 13
 641              		@ sp needed
 642 00a4 80BD     		pop	{r7, pc}
 643              	.L39:
 644 00a6 00BF     		.align	2
 645              	.L38:
 646 00a8 64000000 		.word	.LC5
 647 00ac 00000000 		.word	uart_received_string
ARM GAS  C:\Users\HYFI_A~1\AppData\Local\Temp\ccS9C0dA.s 			page 16


 648 00b0 90000000 		.word	.LC6
 649 00b4 C8000000 		.word	.LC7
 650              		.cfi_endproc
 651              	.LFE72:
 652              		.size	at_write_command, .-at_write_command
 653              		.section	.text.modem_test,"ax",%progbits
 654              		.align	2
 655              		.global	modem_test
 656              		.thumb
 657              		.thumb_func
 658              		.type	modem_test, %function
 659              	modem_test:
 660              	.LFB73:
 175:modem.c       **** 
 176:modem.c       **** test_t modem_test(){
 661              		.loc 1 176 0
 662              		.cfi_startproc
 663              		@ args = 0, pretend = 0, frame = 400
 664              		@ frame_needed = 1, uses_anonymous_args = 0
 665 0000 80B5     		push	{r7, lr}
 666              		.cfi_def_cfa_offset 8
 667              		.cfi_offset 7, -8
 668              		.cfi_offset 14, -4
 669 0002 E4B0     		sub	sp, sp, #400
 670              		.cfi_def_cfa_offset 408
 671 0004 00AF     		add	r7, sp, #0
 672              		.cfi_def_cfa_register 7
 673 0006 3B1D     		adds	r3, r7, #4
 674 0008 1860     		str	r0, [r3]
 177:modem.c       ****     
 178:modem.c       ****     test_t test;
 179:modem.c       ****     modem_power_up();
 675              		.loc 1 179 0
 676 000a FFF7FEFF 		bl	modem_power_up
 180:modem.c       ****     //tbd 
 181:modem.c       ****     modem_power_down();
 677              		.loc 1 181 0
 678 000e FFF7FEFF 		bl	modem_power_down
 182:modem.c       ****     
 183:modem.c       ****     
 184:modem.c       ****     return test;
 679              		.loc 1 184 0
 680 0012 3B1D     		adds	r3, r7, #4
 681 0014 1A68     		ldr	r2, [r3]
 682 0016 07F10C03 		add	r3, r7, #12
 683 001a 1046     		mov	r0, r2
 684 001c 1946     		mov	r1, r3
 685 001e 40F28113 		movw	r3, #385
 686 0022 1A46     		mov	r2, r3
 687 0024 FFF7FEFF 		bl	memcpy
 185:modem.c       **** }
 688              		.loc 1 185 0
 689 0028 3B1D     		adds	r3, r7, #4
 690 002a 1868     		ldr	r0, [r3]
 691 002c 07F5C877 		add	r7, r7, #400
 692              		.cfi_def_cfa_offset 8
 693 0030 BD46     		mov	sp, r7
ARM GAS  C:\Users\HYFI_A~1\AppData\Local\Temp\ccS9C0dA.s 			page 17


 694              		.cfi_def_cfa_register 13
 695              		@ sp needed
 696 0032 80BD     		pop	{r7, pc}
 697              		.cfi_endproc
 698              	.LFE73:
 699              		.size	modem_test, .-modem_test
 700              		.section	.text.extract_string,"ax",%progbits
 701              		.align	2
 702              		.global	extract_string
 703              		.thumb
 704              		.thumb_func
 705              		.type	extract_string, %function
 706              	extract_string:
 707              	.LFB74:
 186:modem.c       **** 
 187:modem.c       **** 
 188:modem.c       **** uint8 extract_string(char* from, const char* beginMarker, const char* endMarker,  char* target){
 708              		.loc 1 188 0
 709              		.cfi_startproc
 710              		@ args = 0, pretend = 0, frame = 24
 711              		@ frame_needed = 1, uses_anonymous_args = 0
 712 0000 80B5     		push	{r7, lr}
 713              		.cfi_def_cfa_offset 8
 714              		.cfi_offset 7, -8
 715              		.cfi_offset 14, -4
 716 0002 86B0     		sub	sp, sp, #24
 717              		.cfi_def_cfa_offset 32
 718 0004 00AF     		add	r7, sp, #0
 719              		.cfi_def_cfa_register 7
 720 0006 F860     		str	r0, [r7, #12]
 721 0008 B960     		str	r1, [r7, #8]
 722 000a 7A60     		str	r2, [r7, #4]
 723 000c 3B60     		str	r3, [r7]
 189:modem.c       ****     
 190:modem.c       ****         char *a, *b;
 191:modem.c       ****   
 192:modem.c       ****         // Expect the UART to contain something like "+CSQ: 17,99\r\n\r\nOK"
 193:modem.c       ****         // - Search for "+CSQ: ".  Place the starting pointer, a, at the resulting index
 194:modem.c       ****         a = strstr(from,beginMarker);
 724              		.loc 1 194 0
 725 000e B968     		ldr	r1, [r7, #8]
 726 0010 F868     		ldr	r0, [r7, #12]
 727 0012 FFF7FEFF 		bl	strstr
 728 0016 7861     		str	r0, [r7, #20]
 195:modem.c       ****         if (a == NULL) {
 729              		.loc 1 195 0
 730 0018 7B69     		ldr	r3, [r7, #20]
 731 001a 002B     		cmp	r3, #0
 732 001c 01D1     		bne	.L43
 196:modem.c       ****             //puts("+CSQ: not found in uart_received_string");
 197:modem.c       ****             a = from;
 733              		.loc 1 197 0
 734 001e FB68     		ldr	r3, [r7, #12]
 735 0020 7B61     		str	r3, [r7, #20]
 736              	.L43:
 198:modem.c       ****         }
 199:modem.c       ****         
ARM GAS  C:\Users\HYFI_A~1\AppData\Local\Temp\ccS9C0dA.s 			page 18


 200:modem.c       ****         a += strlen(beginMarker);
 737              		.loc 1 200 0
 738 0022 B868     		ldr	r0, [r7, #8]
 739 0024 FFF7FEFF 		bl	strlen
 740 0028 0246     		mov	r2, r0
 741 002a 7B69     		ldr	r3, [r7, #20]
 742 002c 1344     		add	r3, r3, r2
 743 002e 7B61     		str	r3, [r7, #20]
 201:modem.c       ****         
 202:modem.c       ****         // - Find the end marking and offset by 1
 203:modem.c       ****         b = strstr(a,endMarker);
 744              		.loc 1 203 0
 745 0030 7968     		ldr	r1, [r7, #4]
 746 0032 7869     		ldr	r0, [r7, #20]
 747 0034 FFF7FEFF 		bl	strstr
 748 0038 3861     		str	r0, [r7, #16]
 204:modem.c       ****         if (b == NULL) {
 749              		.loc 1 204 0
 750 003a 3B69     		ldr	r3, [r7, #16]
 751 003c 002B     		cmp	r3, #0
 752 003e 06D1     		bne	.L44
 205:modem.c       ****             //puts("Comma not found in uart_received_string");
 206:modem.c       ****             b=from+strlen(from);
 753              		.loc 1 206 0
 754 0040 F868     		ldr	r0, [r7, #12]
 755 0042 FFF7FEFF 		bl	strlen
 756 0046 0246     		mov	r2, r0
 757 0048 FB68     		ldr	r3, [r7, #12]
 758 004a 1344     		add	r3, r3, r2
 759 004c 3B61     		str	r3, [r7, #16]
 760              	.L44:
 207:modem.c       ****         }        
 208:modem.c       ****         
 209:modem.c       ****         // Parse the strings and store the respective rssi and fer values
 210:modem.c       ****         strncpy(target,a,b-a);
 761              		.loc 1 210 0
 762 004e 3A69     		ldr	r2, [r7, #16]
 763 0050 7B69     		ldr	r3, [r7, #20]
 764 0052 D31A     		subs	r3, r2, r3
 765 0054 1A46     		mov	r2, r3
 766 0056 7969     		ldr	r1, [r7, #20]
 767 0058 3868     		ldr	r0, [r7]
 768 005a FFF7FEFF 		bl	strncpy
 211:modem.c       ****         target[b-a] = '\0';
 769              		.loc 1 211 0
 770 005e 3A69     		ldr	r2, [r7, #16]
 771 0060 7B69     		ldr	r3, [r7, #20]
 772 0062 D31A     		subs	r3, r2, r3
 773 0064 1A46     		mov	r2, r3
 774 0066 3B68     		ldr	r3, [r7]
 775 0068 1344     		add	r3, r3, r2
 776 006a 0022     		movs	r2, #0
 777 006c 1A70     		strb	r2, [r3]
 212:modem.c       ****         return 1u;
 778              		.loc 1 212 0
 779 006e 0123     		movs	r3, #1
 213:modem.c       ****         
ARM GAS  C:\Users\HYFI_A~1\AppData\Local\Temp\ccS9C0dA.s 			page 19


 214:modem.c       **** }
 780              		.loc 1 214 0
 781 0070 1846     		mov	r0, r3
 782 0072 1837     		adds	r7, r7, #24
 783              		.cfi_def_cfa_offset 8
 784 0074 BD46     		mov	sp, r7
 785              		.cfi_def_cfa_register 13
 786              		@ sp needed
 787 0076 80BD     		pop	{r7, pc}
 788              		.cfi_endproc
 789              	.LFE74:
 790              		.size	extract_string, .-extract_string
 791              		.section	.rodata
 792 00fd 000000   		.align	2
 793              	.LC8:
 794 0100 54696D65 		.ascii	"Time to connecto to network: %d seconds\000"
 794      20746F20 
 794      636F6E6E 
 794      6563746F 
 794      20746F20 
 795              		.align	2
 796              	.LC9:
 797 0128 4D6F6465 		.ascii	"Modem timed out on network connect\000"
 797      6D207469 
 797      6D656420 
 797      6F757420 
 797      6F6E206E 
 798 014b 00       		.align	2
 799              	.LC10:
 800 014c 41637175 		.ascii	"Acquired IP address: %d seconds\000"
 800      69726564 
 800      20495020 
 800      61646472 
 800      6573733A 
 801              		.align	2
 802              	.LC11:
 803 016c 4D6F6465 		.ascii	"Modem timed out on IP address acquire.\000"
 803      6D207469 
 803      6D656420 
 803      6F757420 
 803      6F6E2049 
 804              		.section	.text.modem_process_tasks,"ax",%progbits
 805              		.align	2
 806              		.global	modem_process_tasks
 807              		.thumb
 808              		.thumb_func
 809              		.type	modem_process_tasks, %function
 810              	modem_process_tasks:
 811              	.LFB75:
 215:modem.c       **** 
 216:modem.c       **** 
 217:modem.c       **** uint8 modem_process_tasks(){
 812              		.loc 1 217 0
 813              		.cfi_startproc
 814              		@ args = 0, pretend = 0, frame = 0
 815              		@ frame_needed = 1, uses_anonymous_args = 0
 816 0000 80B5     		push	{r7, lr}
ARM GAS  C:\Users\HYFI_A~1\AppData\Local\Temp\ccS9C0dA.s 			page 20


 817              		.cfi_def_cfa_offset 8
 818              		.cfi_offset 7, -8
 819              		.cfi_offset 14, -4
 820 0002 00AF     		add	r7, sp, #0
 821              		.cfi_def_cfa_register 7
 218:modem.c       ****     
 219:modem.c       ****     if(modem_state == MODEM_STATE_STARTUP){
 822              		.loc 1 219 0
 823 0004 394B     		ldr	r3, .L55
 824 0006 1B78     		ldrb	r3, [r3]	@ zero_extendqisi2
 825 0008 012B     		cmp	r3, #1
 826 000a 0BD1     		bne	.L47
 220:modem.c       ****         
 221:modem.c       ****         modem_start_time_stamp = getTimeStamp();
 827              		.loc 1 221 0
 828 000c FFF7FEFF 		bl	getTimeStamp
 829 0010 0246     		mov	r2, r0
 830 0012 374B     		ldr	r3, .L55+4
 831 0014 1A60     		str	r2, [r3]
 222:modem.c       ****         modem_configure_settings();
 832              		.loc 1 222 0
 833 0016 FFF7FEFF 		bl	modem_configure_settings
 223:modem.c       ****         modem_state = MODEM_STATE_WAITING_FOR_NETWORK;
 834              		.loc 1 223 0
 835 001a 344B     		ldr	r3, .L55
 836 001c 0222     		movs	r2, #2
 837 001e 1A70     		strb	r2, [r3]
 224:modem.c       ****         return 1u;//keep going, don't hand off to sleep yet
 838              		.loc 1 224 0
 839 0020 0123     		movs	r3, #1
 840 0022 60E0     		b	.L48
 841              	.L47:
 225:modem.c       ****         
 226:modem.c       ****     }
 227:modem.c       ****     else if(modem_state == MODEM_STATE_WAITING_FOR_NETWORK){
 842              		.loc 1 227 0
 843 0024 314B     		ldr	r3, .L55
 844 0026 1B78     		ldrb	r3, [r3]	@ zero_extendqisi2
 845 0028 022B     		cmp	r3, #2
 846 002a 2DD1     		bne	.L49
 228:modem.c       ****         
 229:modem.c       ****         if(is_connected_to_cell_network()){
 847              		.loc 1 229 0
 848 002c FFF7FEFF 		bl	is_connected_to_cell_network
 849 0030 0346     		mov	r3, r0
 850 0032 002B     		cmp	r3, #0
 851 0034 15D0     		beq	.L50
 230:modem.c       ****              modem_stats.time_to_network_connect = (int)(getTimeStamp() - (int32)modem_start_time_s
 852              		.loc 1 230 0
 853 0036 FFF7FEFF 		bl	getTimeStamp
 854 003a 0246     		mov	r2, r0
 855 003c 2C4B     		ldr	r3, .L55+4
 856 003e 1B68     		ldr	r3, [r3]
 857 0040 D31A     		subs	r3, r2, r3
 858 0042 2C4A     		ldr	r2, .L55+8
 859 0044 5360     		str	r3, [r2, #4]
 231:modem.c       ****              printNotif(NOTIF_TYPE_EVENT,"Time to connecto to network: %d seconds",
ARM GAS  C:\Users\HYFI_A~1\AppData\Local\Temp\ccS9C0dA.s 			page 21


 860              		.loc 1 231 0
 861 0046 2B4B     		ldr	r3, .L55+8
 862 0048 5B68     		ldr	r3, [r3, #4]
 863 004a 1A46     		mov	r2, r3
 864 004c 2A49     		ldr	r1, .L55+12
 865 004e 0020     		movs	r0, #0
 866 0050 FFF7FEFF 		bl	printNotif
 232:modem.c       ****                                             modem_stats.time_to_network_connect);
 233:modem.c       ****             get_cell_network_stats();
 867              		.loc 1 233 0
 868 0054 FFF7FEFF 		bl	get_cell_network_stats
 234:modem.c       ****             set_up_internet_connection();
 869              		.loc 1 234 0
 870 0058 FFF7FEFF 		bl	set_up_internet_connection
 235:modem.c       ****             modem_state = MODEM_STATE_WAITING_FOR_IP;
 871              		.loc 1 235 0
 872 005c 234B     		ldr	r3, .L55
 873 005e 0322     		movs	r2, #3
 874 0060 1A70     		strb	r2, [r3]
 875              	.L50:
 236:modem.c       ****         }
 237:modem.c       ****         //power off if we times out shold only take ~30 secs to connect to network
 238:modem.c       ****         if((int)(getTimeStamp()-(int32)modem_start_time_stamp) > TIMEOUT_NETWORK_CONNECT){
 876              		.loc 1 238 0
 877 0062 FFF7FEFF 		bl	getTimeStamp
 878 0066 0246     		mov	r2, r0
 879 0068 214B     		ldr	r3, .L55+4
 880 006a 1B68     		ldr	r3, [r3]
 881 006c D31A     		subs	r3, r2, r3
 882 006e C82B     		cmp	r3, #200
 883 0070 08DD     		ble	.L51
 239:modem.c       ****             modem_state = MODEM_STATE_OFF;
 884              		.loc 1 239 0
 885 0072 1E4B     		ldr	r3, .L55
 886 0074 0022     		movs	r2, #0
 887 0076 1A70     		strb	r2, [r3]
 240:modem.c       ****             modem_power_down();
 888              		.loc 1 240 0
 889 0078 FFF7FEFF 		bl	modem_power_down
 241:modem.c       ****             printNotif(NOTIF_TYPE_ERROR,"Modem timed out on network connect");
 890              		.loc 1 241 0
 891 007c 1F49     		ldr	r1, .L55+16
 892 007e 0220     		movs	r0, #2
 893 0080 FFF7FEFF 		bl	printNotif
 894              	.L51:
 242:modem.c       ****             
 243:modem.c       ****         }
 244:modem.c       ****         
 245:modem.c       ****         return 0u;//ok to hand off to sleep
 895              		.loc 1 245 0
 896 0084 0023     		movs	r3, #0
 897 0086 2EE0     		b	.L48
 898              	.L49:
 246:modem.c       **** 
 247:modem.c       ****     }else if(modem_state == MODEM_STATE_WAITING_FOR_IP){
 899              		.loc 1 247 0
 900 0088 184B     		ldr	r3, .L55
ARM GAS  C:\Users\HYFI_A~1\AppData\Local\Temp\ccS9C0dA.s 			page 22


 901 008a 1B78     		ldrb	r3, [r3]	@ zero_extendqisi2
 902 008c 032B     		cmp	r3, #3
 903 008e 29D1     		bne	.L52
 248:modem.c       ****         if(is_connected_to_internet()){
 904              		.loc 1 248 0
 905 0090 FFF7FEFF 		bl	is_connected_to_internet
 906 0094 0346     		mov	r3, r0
 907 0096 002B     		cmp	r3, #0
 908 0098 11D0     		beq	.L53
 249:modem.c       ****             modem_state = MODEM_STATE_READY;
 909              		.loc 1 249 0
 910 009a 144B     		ldr	r3, .L55
 911 009c 0422     		movs	r2, #4
 912 009e 1A70     		strb	r2, [r3]
 250:modem.c       ****             modem_stats.time_to_acquire_ip = (int)(getTimeStamp() - (int32)modem_start_time_stamp);
 913              		.loc 1 250 0
 914 00a0 FFF7FEFF 		bl	getTimeStamp
 915 00a4 0246     		mov	r2, r0
 916 00a6 124B     		ldr	r3, .L55+4
 917 00a8 1B68     		ldr	r3, [r3]
 918 00aa D31A     		subs	r3, r2, r3
 919 00ac 114A     		ldr	r2, .L55+8
 920 00ae 9360     		str	r3, [r2, #8]
 251:modem.c       ****              printNotif(NOTIF_TYPE_EVENT,"Acquired IP address: %d seconds",
 921              		.loc 1 251 0
 922 00b0 104B     		ldr	r3, .L55+8
 923 00b2 9B68     		ldr	r3, [r3, #8]
 924 00b4 1A46     		mov	r2, r3
 925 00b6 1249     		ldr	r1, .L55+20
 926 00b8 0020     		movs	r0, #0
 927 00ba FFF7FEFF 		bl	printNotif
 928              	.L53:
 252:modem.c       ****                                             modem_stats.time_to_acquire_ip);
 253:modem.c       ****         }
 254:modem.c       ****         
 255:modem.c       ****         //power off if we times out shold only take ~30 secs to connect to network
 256:modem.c       ****         if((int)(getTimeStamp()-(int32)modem_start_time_stamp) > TIMEOUT_IP_ACQUIRE){
 929              		.loc 1 256 0
 930 00be FFF7FEFF 		bl	getTimeStamp
 931 00c2 0246     		mov	r2, r0
 932 00c4 0A4B     		ldr	r3, .L55+4
 933 00c6 1B68     		ldr	r3, [r3]
 934 00c8 D31A     		subs	r3, r2, r3
 935 00ca E62B     		cmp	r3, #230
 936 00cc 08DD     		ble	.L54
 257:modem.c       ****             modem_state = MODEM_STATE_OFF;
 937              		.loc 1 257 0
 938 00ce 074B     		ldr	r3, .L55
 939 00d0 0022     		movs	r2, #0
 940 00d2 1A70     		strb	r2, [r3]
 258:modem.c       ****             modem_power_down();
 941              		.loc 1 258 0
 942 00d4 FFF7FEFF 		bl	modem_power_down
 259:modem.c       ****             printNotif(NOTIF_TYPE_ERROR,"Modem timed out on IP address acquire.");
 943              		.loc 1 259 0
 944 00d8 0A49     		ldr	r1, .L55+24
 945 00da 0220     		movs	r0, #2
ARM GAS  C:\Users\HYFI_A~1\AppData\Local\Temp\ccS9C0dA.s 			page 23


 946 00dc FFF7FEFF 		bl	printNotif
 947              	.L54:
 260:modem.c       ****       
 261:modem.c       ****         }
 262:modem.c       ****         return 0u;//ok to hand off to sleep
 948              		.loc 1 262 0
 949 00e0 0023     		movs	r3, #0
 950 00e2 00E0     		b	.L48
 951              	.L52:
 263:modem.c       ****     }
 264:modem.c       ****     
 265:modem.c       ****     return 0u;
 952              		.loc 1 265 0
 953 00e4 0023     		movs	r3, #0
 954              	.L48:
 266:modem.c       ****     
 267:modem.c       **** }
 955              		.loc 1 267 0
 956 00e6 1846     		mov	r0, r3
 957 00e8 80BD     		pop	{r7, pc}
 958              	.L56:
 959 00ea 00BF     		.align	2
 960              	.L55:
 961 00ec 00000000 		.word	modem_state
 962 00f0 00000000 		.word	modem_start_time_stamp
 963 00f4 00000000 		.word	modem_stats
 964 00f8 00010000 		.word	.LC8
 965 00fc 28010000 		.word	.LC9
 966 0100 4C010000 		.word	.LC10
 967 0104 6C010000 		.word	.LC11
 968              		.cfi_endproc
 969              	.LFE75:
 970              		.size	modem_process_tasks, .-modem_process_tasks
 971              		.section	.rodata
 972 0193 00       		.align	2
 973              	.LC12:
 974 0194 41542B43 		.ascii	"AT+CREG?\015\000"
 974      5245473F 
 974      0D00
 975 019e 0000     		.align	2
 976              	.LC13:
 977 01a0 0D00     		.ascii	"\015\000"
 978 01a2 0000     		.align	2
 979              	.LC14:
 980 01a4 3A2000   		.ascii	": \000"
 981 01a7 00       		.align	2
 982              	.LC15:
 983 01a8 52656769 		.ascii	"Registered to network, CREG: %s\000"
 983      73746572 
 983      65642074 
 983      6F206E65 
 983      74776F72 
 984              		.align	2
 985              	.LC16:
 986 01c8 302C3100 		.ascii	"0,1\000"
 987              		.section	.text.is_connected_to_cell_network,"ax",%progbits
 988              		.align	2
ARM GAS  C:\Users\HYFI_A~1\AppData\Local\Temp\ccS9C0dA.s 			page 24


 989              		.global	is_connected_to_cell_network
 990              		.thumb
 991              		.thumb_func
 992              		.type	is_connected_to_cell_network, %function
 993              	is_connected_to_cell_network:
 994              	.LFB76:
 268:modem.c       **** 
 269:modem.c       **** uint8 is_connected_to_cell_network(){
 995              		.loc 1 269 0
 996              		.cfi_startproc
 997              		@ args = 0, pretend = 0, frame = 16
 998              		@ frame_needed = 1, uses_anonymous_args = 0
 999 0000 80B5     		push	{r7, lr}
 1000              		.cfi_def_cfa_offset 8
 1001              		.cfi_offset 7, -8
 1002              		.cfi_offset 14, -4
 1003 0002 84B0     		sub	sp, sp, #16
 1004              		.cfi_def_cfa_offset 24
 1005 0004 00AF     		add	r7, sp, #0
 1006              		.cfi_def_cfa_register 7
 270:modem.c       ****     //check network status -- need '0,0' response to continue
 271:modem.c       ****     at_write_command("AT+CREG?\r", "OK",DEFAULT_AT_TIMEOUT);
 1007              		.loc 1 271 0
 1008 0006 4FF4FA62 		mov	r2, #2000
 1009 000a 0F49     		ldr	r1, .L61
 1010 000c 0F48     		ldr	r0, .L61+4
 1011 000e FFF7FEFF 		bl	at_write_command
 272:modem.c       ****     
 273:modem.c       ****     char creg[10];
 274:modem.c       ****     extract_string(uart_received_string,": ","\r",creg);
 1012              		.loc 1 274 0
 1013 0012 3B1D     		adds	r3, r7, #4
 1014 0014 0E4A     		ldr	r2, .L61+8
 1015 0016 0F49     		ldr	r1, .L61+12
 1016 0018 0F48     		ldr	r0, .L61+16
 1017 001a FFF7FEFF 		bl	extract_string
 275:modem.c       ****     printNotif(NOTIF_TYPE_EVENT,"Registered to network, CREG: %s",creg);
 1018              		.loc 1 275 0
 1019 001e 3B1D     		adds	r3, r7, #4
 1020 0020 1A46     		mov	r2, r3
 1021 0022 0E49     		ldr	r1, .L61+20
 1022 0024 0020     		movs	r0, #0
 1023 0026 FFF7FEFF 		bl	printNotif
 276:modem.c       ****    
 277:modem.c       ****     if(strstr(creg,"0,1")!=NULL){
 1024              		.loc 1 277 0
 1025 002a 3B1D     		adds	r3, r7, #4
 1026 002c 0C49     		ldr	r1, .L61+24
 1027 002e 1846     		mov	r0, r3
 1028 0030 FFF7FEFF 		bl	strstr
 1029 0034 0346     		mov	r3, r0
 1030 0036 002B     		cmp	r3, #0
 1031 0038 01D0     		beq	.L58
 278:modem.c       ****         //time_network_connect = getTimeStamp();
 279:modem.c       ****         return 1u;
 1032              		.loc 1 279 0
 1033 003a 0123     		movs	r3, #1
ARM GAS  C:\Users\HYFI_A~1\AppData\Local\Temp\ccS9C0dA.s 			page 25


 1034 003c 00E0     		b	.L60
 1035              	.L58:
 280:modem.c       ****     }
 281:modem.c       ****     
 282:modem.c       ****     return 0u;
 1036              		.loc 1 282 0
 1037 003e 0023     		movs	r3, #0
 1038              	.L60:
 283:modem.c       ****         
 284:modem.c       **** }
 1039              		.loc 1 284 0 discriminator 1
 1040 0040 1846     		mov	r0, r3
 1041 0042 1037     		adds	r7, r7, #16
 1042              		.cfi_def_cfa_offset 8
 1043 0044 BD46     		mov	sp, r7
 1044              		.cfi_def_cfa_register 13
 1045              		@ sp needed
 1046 0046 80BD     		pop	{r7, pc}
 1047              	.L62:
 1048              		.align	2
 1049              	.L61:
 1050 0048 00000000 		.word	.LC0
 1051 004c 94010000 		.word	.LC12
 1052 0050 A0010000 		.word	.LC13
 1053 0054 A4010000 		.word	.LC14
 1054 0058 00000000 		.word	uart_received_string
 1055 005c A8010000 		.word	.LC15
 1056 0060 C8010000 		.word	.LC16
 1057              		.cfi_endproc
 1058              	.LFE76:
 1059              		.size	is_connected_to_cell_network, .-is_connected_to_cell_network
 1060              		.section	.rodata
 1061              		.align	2
 1062              	.LC17:
 1063 01cc 41542353 		.ascii	"AT#SGACT=1,1\015\012\000"
 1063      47414354 
 1063      3D312C31 
 1063      0D0A00
 1064              		.section	.text.set_up_internet_connection,"ax",%progbits
 1065              		.align	2
 1066              		.global	set_up_internet_connection
 1067              		.thumb
 1068              		.thumb_func
 1069              		.type	set_up_internet_connection, %function
 1070              	set_up_internet_connection:
 1071              	.LFB77:
 285:modem.c       **** 
 286:modem.c       **** void set_up_internet_connection(){
 1072              		.loc 1 286 0
 1073              		.cfi_startproc
 1074              		@ args = 0, pretend = 0, frame = 0
 1075              		@ frame_needed = 1, uses_anonymous_args = 0
 1076 0000 80B5     		push	{r7, lr}
 1077              		.cfi_def_cfa_offset 8
 1078              		.cfi_offset 7, -8
 1079              		.cfi_offset 14, -4
 1080 0002 00AF     		add	r7, sp, #0
ARM GAS  C:\Users\HYFI_A~1\AppData\Local\Temp\ccS9C0dA.s 			page 26


 1081              		.cfi_def_cfa_register 7
 287:modem.c       ****     
 288:modem.c       ****     //port 3
 289:modem.c       ****    //<connId>,<srMode>,<dataMode>, 
 290:modem.c       ****     //at_write_command("AT#SCFGEXT=1,1,0,0,0,0\r", "OK",DEFAULT_AT_TIMEOUT);////LTE modem relevant
 291:modem.c       ****     
 292:modem.c       ****     //<connId>,<cid>,<pktSz>,<maxTo>,<connTo>,<txTo>
 293:modem.c       ****     //at_write_command("AT#SCFG=1,3,300,90,600,50\r", "OK",DEFAULT_AT_TIMEOUT); //LTE modem relevan
 294:modem.c       ****     // <cid>,<stat>
 295:modem.c       ****    
 296:modem.c       ****     at_write_command("AT#SGACT=1,1\r\n", "OK",NO_AT_TIMEOUT);
 1082              		.loc 1 296 0
 1083 0004 0022     		movs	r2, #0
 1084 0006 0349     		ldr	r1, .L64
 1085 0008 0348     		ldr	r0, .L64+4
 1086 000a FFF7FEFF 		bl	at_write_command
 297:modem.c       **** 
 298:modem.c       ****     
 299:modem.c       **** 
 300:modem.c       ****     
 301:modem.c       **** }
 1087              		.loc 1 301 0
 1088 000e 00BF     		nop
 1089 0010 80BD     		pop	{r7, pc}
 1090              	.L65:
 1091 0012 00BF     		.align	2
 1092              	.L64:
 1093 0014 00000000 		.word	.LC0
 1094 0018 CC010000 		.word	.LC17
 1095              		.cfi_endproc
 1096              	.LFE77:
 1097              		.size	set_up_internet_connection, .-set_up_internet_connection
 1098              		.section	.rodata
 1099 01db 00       		.align	2
 1100              	.LC18:
 1101 01dc 312C3100 		.ascii	"1,1\000"
 1102              		.align	2
 1103              	.LC19:
 1104 01e0 41542353 		.ascii	"AT#SGACT?\015\000"
 1104      47414354 
 1104      3F0D00
 1105              		.section	.text.is_connected_to_internet,"ax",%progbits
 1106              		.align	2
 1107              		.global	is_connected_to_internet
 1108              		.thumb
 1109              		.thumb_func
 1110              		.type	is_connected_to_internet, %function
 1111              	is_connected_to_internet:
 1112              	.LFB78:
 302:modem.c       **** 
 303:modem.c       **** uint8 is_connected_to_internet(){
 1113              		.loc 1 303 0
 1114              		.cfi_startproc
 1115              		@ args = 0, pretend = 0, frame = 0
 1116              		@ frame_needed = 1, uses_anonymous_args = 0
 1117 0000 80B5     		push	{r7, lr}
 1118              		.cfi_def_cfa_offset 8
ARM GAS  C:\Users\HYFI_A~1\AppData\Local\Temp\ccS9C0dA.s 			page 27


 1119              		.cfi_offset 7, -8
 1120              		.cfi_offset 14, -4
 1121 0002 00AF     		add	r7, sp, #0
 1122              		.cfi_def_cfa_register 7
 304:modem.c       ****     
 305:modem.c       ****     //check for 3,1 if verizon
 306:modem.c       ****     if(at_write_command("AT#SGACT?\r", "1,1",DEFAULT_AT_TIMEOUT)){
 1123              		.loc 1 306 0
 1124 0004 4FF4FA62 		mov	r2, #2000
 1125 0008 0549     		ldr	r1, .L69
 1126 000a 0648     		ldr	r0, .L69+4
 1127 000c FFF7FEFF 		bl	at_write_command
 1128 0010 0346     		mov	r3, r0
 1129 0012 002B     		cmp	r3, #0
 1130 0014 01D0     		beq	.L67
 307:modem.c       ****         return 1u;
 1131              		.loc 1 307 0
 1132 0016 0123     		movs	r3, #1
 1133 0018 00E0     		b	.L68
 1134              	.L67:
 308:modem.c       ****     }
 309:modem.c       ****  
 310:modem.c       ****     return 0u;
 1135              		.loc 1 310 0
 1136 001a 0023     		movs	r3, #0
 1137              	.L68:
 311:modem.c       ****     
 312:modem.c       **** }
 1138              		.loc 1 312 0
 1139 001c 1846     		mov	r0, r3
 1140 001e 80BD     		pop	{r7, pc}
 1141              	.L70:
 1142              		.align	2
 1143              	.L69:
 1144 0020 DC010000 		.word	.LC18
 1145 0024 E0010000 		.word	.LC19
 1146              		.cfi_endproc
 1147              	.LFE78:
 1148              		.size	is_connected_to_internet, .-is_connected_to_internet
 1149              		.section	.rodata
 1150 01eb 00       		.align	2
 1151              	.LC20:
 1152 01ec 41542B43 		.ascii	"AT+CSQ\015\000"
 1152      53510D00 
 1153              		.align	2
 1154              	.LC21:
 1155 01f4 4E657477 		.ascii	"Network STts: %s\000"
 1155      6F726B20 
 1155      53547473 
 1155      3A202573 
 1155      00
 1156 0205 000000   		.align	2
 1157              	.LC22:
 1158 0208 2C00     		.ascii	",\000"
 1159              		.section	.text.get_cell_network_stats,"ax",%progbits
 1160              		.align	2
 1161              		.global	get_cell_network_stats
ARM GAS  C:\Users\HYFI_A~1\AppData\Local\Temp\ccS9C0dA.s 			page 28


 1162              		.thumb
 1163              		.thumb_func
 1164              		.type	get_cell_network_stats, %function
 1165              	get_cell_network_stats:
 1166              	.LFB79:
 313:modem.c       **** 
 314:modem.c       **** void get_cell_network_stats(){
 1167              		.loc 1 314 0
 1168              		.cfi_startproc
 1169              		@ args = 0, pretend = 0, frame = 24
 1170              		@ frame_needed = 1, uses_anonymous_args = 0
 1171 0000 80B5     		push	{r7, lr}
 1172              		.cfi_def_cfa_offset 8
 1173              		.cfi_offset 7, -8
 1174              		.cfi_offset 14, -4
 1175 0002 86B0     		sub	sp, sp, #24
 1176              		.cfi_def_cfa_offset 32
 1177 0004 00AF     		add	r7, sp, #0
 1178              		.cfi_def_cfa_register 7
 1179              	.LBB4:
 315:modem.c       ****     //gets RSSI and FER values
 316:modem.c       ****     for(uint8 attempts =0; attempts <10; attempts++){
 1180              		.loc 1 316 0
 1181 0006 0023     		movs	r3, #0
 1182 0008 FB75     		strb	r3, [r7, #23]
 1183 000a 3BE0     		b	.L72
 1184              	.L77:
 1185              	.LBB5:
 317:modem.c       ****         at_write_command("AT+CSQ\r", "OK",DEFAULT_AT_TIMEOUT);
 1186              		.loc 1 317 0
 1187 000c 4FF4FA62 		mov	r2, #2000
 1188 0010 2049     		ldr	r1, .L79
 1189 0012 2148     		ldr	r0, .L79+4
 1190 0014 FFF7FEFF 		bl	at_write_command
 318:modem.c       ****         
 319:modem.c       ****         char csq[10];
 320:modem.c       ****         extract_string(uart_received_string,": ","\r",csq);
 1191              		.loc 1 320 0
 1192 0018 3B1D     		adds	r3, r7, #4
 1193 001a 204A     		ldr	r2, .L79+8
 1194 001c 2049     		ldr	r1, .L79+12
 1195 001e 2148     		ldr	r0, .L79+16
 1196 0020 FFF7FEFF 		bl	extract_string
 321:modem.c       ****         printNotif(NOTIF_TYPE_EVENT,"Network STts: %s",csq);
 1197              		.loc 1 321 0
 1198 0024 3B1D     		adds	r3, r7, #4
 1199 0026 1A46     		mov	r2, r3
 1200 0028 1F49     		ldr	r1, .L79+20
 1201 002a 0020     		movs	r0, #0
 1202 002c FFF7FEFF 		bl	printNotif
 322:modem.c       ****         
 323:modem.c       ****         char *token;
 324:modem.c       ****         token = strtok(csq,",");
 1203              		.loc 1 324 0
 1204 0030 3B1D     		adds	r3, r7, #4
 1205 0032 1E49     		ldr	r1, .L79+24
 1206 0034 1846     		mov	r0, r3
ARM GAS  C:\Users\HYFI_A~1\AppData\Local\Temp\ccS9C0dA.s 			page 29


 1207 0036 FFF7FEFF 		bl	strtok
 1208 003a 3861     		str	r0, [r7, #16]
 325:modem.c       ****         if(token != NULL){
 1209              		.loc 1 325 0
 1210 003c 3B69     		ldr	r3, [r7, #16]
 1211 003e 002B     		cmp	r3, #0
 1212 0040 06D0     		beq	.L73
 326:modem.c       ****             modem_stats.rssi = atoi(token);
 1213              		.loc 1 326 0
 1214 0042 3869     		ldr	r0, [r7, #16]
 1215 0044 FFF7FEFF 		bl	atoi
 1216 0048 0346     		mov	r3, r0
 1217 004a DAB2     		uxtb	r2, r3
 1218 004c 184B     		ldr	r3, .L79+28
 1219 004e 1A70     		strb	r2, [r3]
 1220              	.L73:
 327:modem.c       ****         }
 328:modem.c       ****         token = strtok(NULL,",");
 1221              		.loc 1 328 0
 1222 0050 1649     		ldr	r1, .L79+24
 1223 0052 0020     		movs	r0, #0
 1224 0054 FFF7FEFF 		bl	strtok
 1225 0058 3861     		str	r0, [r7, #16]
 329:modem.c       ****         if(token != NULL){
 1226              		.loc 1 329 0
 1227 005a 3B69     		ldr	r3, [r7, #16]
 1228 005c 002B     		cmp	r3, #0
 1229 005e 06D0     		beq	.L74
 330:modem.c       ****             modem_stats.sq = atoi(token);
 1230              		.loc 1 330 0
 1231 0060 3869     		ldr	r0, [r7, #16]
 1232 0062 FFF7FEFF 		bl	atoi
 1233 0066 0346     		mov	r3, r0
 1234 0068 DAB2     		uxtb	r2, r3
 1235 006a 114B     		ldr	r3, .L79+28
 1236 006c 5A70     		strb	r2, [r3, #1]
 1237              	.L74:
 331:modem.c       ****         }
 332:modem.c       ****         if(modem_stats.rssi != 99 || modem_stats.rssi !=0){
 1238              		.loc 1 332 0
 1239 006e 104B     		ldr	r3, .L79+28
 1240 0070 1B78     		ldrb	r3, [r3]	@ zero_extendqisi2
 1241 0072 632B     		cmp	r3, #99
 1242 0074 09D1     		bne	.L78
 1243              		.loc 1 332 0 is_stmt 0 discriminator 1
 1244 0076 0E4B     		ldr	r3, .L79+28
 1245 0078 1B78     		ldrb	r3, [r3]	@ zero_extendqisi2
 1246 007a 002B     		cmp	r3, #0
 1247 007c 05D1     		bne	.L78
 1248              	.LBE5:
 316:modem.c       ****         at_write_command("AT+CSQ\r", "OK",DEFAULT_AT_TIMEOUT);
 1249              		.loc 1 316 0 is_stmt 1
 1250 007e FB7D     		ldrb	r3, [r7, #23]	@ zero_extendqisi2
 1251 0080 0133     		adds	r3, r3, #1
 1252 0082 FB75     		strb	r3, [r7, #23]
 1253              	.L72:
 316:modem.c       ****         at_write_command("AT+CSQ\r", "OK",DEFAULT_AT_TIMEOUT);
ARM GAS  C:\Users\HYFI_A~1\AppData\Local\Temp\ccS9C0dA.s 			page 30


 1254              		.loc 1 316 0 is_stmt 0 discriminator 1
 1255 0084 FB7D     		ldrb	r3, [r7, #23]	@ zero_extendqisi2
 1256 0086 092B     		cmp	r3, #9
 1257 0088 C0D9     		bls	.L77
 1258              	.L78:
 1259              	.LBE4:
 333:modem.c       ****             break;
 334:modem.c       ****         }
 335:modem.c       ****     }
 336:modem.c       **** }
 1260              		.loc 1 336 0 is_stmt 1
 1261 008a 00BF     		nop
 1262 008c 1837     		adds	r7, r7, #24
 1263              		.cfi_def_cfa_offset 8
 1264 008e BD46     		mov	sp, r7
 1265              		.cfi_def_cfa_register 13
 1266              		@ sp needed
 1267 0090 80BD     		pop	{r7, pc}
 1268              	.L80:
 1269 0092 00BF     		.align	2
 1270              	.L79:
 1271 0094 00000000 		.word	.LC0
 1272 0098 EC010000 		.word	.LC20
 1273 009c A0010000 		.word	.LC13
 1274 00a0 A4010000 		.word	.LC14
 1275 00a4 00000000 		.word	uart_received_string
 1276 00a8 F4010000 		.word	.LC21
 1277 00ac 08020000 		.word	.LC22
 1278 00b0 00000000 		.word	modem_stats
 1279              		.cfi_endproc
 1280              	.LFE79:
 1281              		.size	get_cell_network_stats, .-get_cell_network_stats
 1282              		.section	.rodata
 1283 020a 0000     		.align	2
 1284              	.LC23:
 1285 020c 41542343 		.ascii	"AT#CGMM\015\000"
 1285      474D4D0D 
 1285      00
 1286 0215 000000   		.align	2
 1287              	.LC24:
 1288 0218 4D6F6465 		.ascii	"Modem Model: %s\000"
 1288      6D204D6F 
 1288      64656C3A 
 1288      20257300 
 1289              		.align	2
 1290              	.LC25:
 1291 0228 41542343 		.ascii	"AT#CCID\015\000"
 1291      4349440D 
 1291      00
 1292 0231 000000   		.align	2
 1293              	.LC26:
 1294 0234 53494D20 		.ascii	"SIM ID: %s\000"
 1294      49443A20 
 1294      257300
 1295 023f 00       		.align	2
 1296              	.LC27:
 1297 0240 41542B43 		.ascii	"AT+CGSN\015\000"
ARM GAS  C:\Users\HYFI_A~1\AppData\Local\Temp\ccS9C0dA.s 			page 31


 1297      47534E0D 
 1297      00
 1298 0249 000000   		.align	2
 1299              	.LC28:
 1300 024c 494D4549 		.ascii	"IMEI: %s\000"
 1300      3A202573 
 1300      00
 1301 0255 000000   		.align	2
 1302              	.LC29:
 1303 0258 41542B43 		.ascii	"AT+CGDCONT=1,\"IP\",\"wireless.twilio.com\"\015\012"
 1303      4744434F 
 1303      4E543D31 
 1303      2C224950 
 1303      222C2277 
 1304 0281 00       		.ascii	"\000"
 1305 0282 0000     		.align	2
 1306              	.LC30:
 1307 0284 41542B43 		.ascii	"AT+CFUN?\015\000"
 1307      46554E3F 
 1307      0D00
 1308 028e 0000     		.align	2
 1309              	.LC31:
 1310 0290 4346554E 		.ascii	"CFUN: %s\000"
 1310      3A202573 
 1310      00
 1311 0299 000000   		.align	2
 1312              	.LC32:
 1313 029c 41542B43 		.ascii	"AT+CFUN=1\015\000"
 1313      46554E3D 
 1313      310D00
 1314              		.section	.text.modem_configure_settings,"ax",%progbits
 1315              		.align	2
 1316              		.global	modem_configure_settings
 1317              		.thumb
 1318              		.thumb_func
 1319              		.type	modem_configure_settings, %function
 1320              	modem_configure_settings:
 1321              	.LFB80:
 337:modem.c       ****     
 338:modem.c       ****     
 339:modem.c       **** 
 340:modem.c       **** void modem_configure_settings(){
 1322              		.loc 1 340 0
 1323              		.cfi_startproc
 1324              		@ args = 0, pretend = 0, frame = 16
 1325              		@ frame_needed = 1, uses_anonymous_args = 0
 1326 0000 80B5     		push	{r7, lr}
 1327              		.cfi_def_cfa_offset 8
 1328              		.cfi_offset 7, -8
 1329              		.cfi_offset 14, -4
 1330 0002 84B0     		sub	sp, sp, #16
 1331              		.cfi_def_cfa_offset 24
 1332 0004 00AF     		add	r7, sp, #0
 1333              		.cfi_def_cfa_register 7
 341:modem.c       ****     
 342:modem.c       ****     //get modem model number
 343:modem.c       ****     if(modem_info.model_id[0] == '\0'){
ARM GAS  C:\Users\HYFI_A~1\AppData\Local\Temp\ccS9C0dA.s 			page 32


 1334              		.loc 1 343 0
 1335 0006 3B4B     		ldr	r3, .L88
 1336 0008 1B7D     		ldrb	r3, [r3, #20]	@ zero_extendqisi2
 1337 000a 002B     		cmp	r3, #0
 1338 000c 13D1     		bne	.L82
 344:modem.c       ****         if(at_write_command("AT#CGMM\r","OK",DEFAULT_AT_TIMEOUT)){
 1339              		.loc 1 344 0
 1340 000e 4FF4FA62 		mov	r2, #2000
 1341 0012 3949     		ldr	r1, .L88+4
 1342 0014 3948     		ldr	r0, .L88+8
 1343 0016 FFF7FEFF 		bl	at_write_command
 1344 001a 0346     		mov	r3, r0
 1345 001c 002B     		cmp	r3, #0
 1346 001e 0AD0     		beq	.L82
 345:modem.c       ****             extract_string(uart_received_string,": ","\r",modem_info.model_id);
 1347              		.loc 1 345 0
 1348 0020 374B     		ldr	r3, .L88+12
 1349 0022 384A     		ldr	r2, .L88+16
 1350 0024 3849     		ldr	r1, .L88+20
 1351 0026 3948     		ldr	r0, .L88+24
 1352 0028 FFF7FEFF 		bl	extract_string
 346:modem.c       ****             printNotif(NOTIF_TYPE_EVENT,"Modem Model: %s",modem_info.model_id);
 1353              		.loc 1 346 0
 1354 002c 344A     		ldr	r2, .L88+12
 1355 002e 3849     		ldr	r1, .L88+28
 1356 0030 0020     		movs	r0, #0
 1357 0032 FFF7FEFF 		bl	printNotif
 1358              	.L82:
 347:modem.c       ****         }
 348:modem.c       ****     }
 349:modem.c       ****     
 350:modem.c       ****    //get SIM-card ID
 351:modem.c       ****    if(modem_info.sim_id[0] == '\0'){
 1359              		.loc 1 351 0
 1360 0036 2F4B     		ldr	r3, .L88
 1361 0038 1B78     		ldrb	r3, [r3]	@ zero_extendqisi2
 1362 003a 002B     		cmp	r3, #0
 1363 003c 13D1     		bne	.L83
 352:modem.c       ****         if(at_write_command("AT#CCID\r", "OK", DEFAULT_AT_TIMEOUT)){
 1364              		.loc 1 352 0
 1365 003e 4FF4FA62 		mov	r2, #2000
 1366 0042 2D49     		ldr	r1, .L88+4
 1367 0044 3348     		ldr	r0, .L88+32
 1368 0046 FFF7FEFF 		bl	at_write_command
 1369 004a 0346     		mov	r3, r0
 1370 004c 002B     		cmp	r3, #0
 1371 004e 0AD0     		beq	.L83
 353:modem.c       ****             extract_string(uart_received_string,": ","\r",modem_info.sim_id);
 1372              		.loc 1 353 0
 1373 0050 284B     		ldr	r3, .L88
 1374 0052 2C4A     		ldr	r2, .L88+16
 1375 0054 2C49     		ldr	r1, .L88+20
 1376 0056 2D48     		ldr	r0, .L88+24
 1377 0058 FFF7FEFF 		bl	extract_string
 354:modem.c       ****             printNotif(NOTIF_TYPE_EVENT,"SIM ID: %s",modem_info.sim_id);
 1378              		.loc 1 354 0
 1379 005c 254A     		ldr	r2, .L88
ARM GAS  C:\Users\HYFI_A~1\AppData\Local\Temp\ccS9C0dA.s 			page 33


 1380 005e 2E49     		ldr	r1, .L88+36
 1381 0060 0020     		movs	r0, #0
 1382 0062 FFF7FEFF 		bl	printNotif
 1383              	.L83:
 355:modem.c       ****         }
 356:modem.c       ****    }
 357:modem.c       **** 
 358:modem.c       ****     //getm modem IMEI
 359:modem.c       ****     if(modem_info.imei[0] == '\0'){
 1384              		.loc 1 359 0
 1385 0066 234B     		ldr	r3, .L88
 1386 0068 93F82830 		ldrb	r3, [r3, #40]	@ zero_extendqisi2
 1387 006c 002B     		cmp	r3, #0
 1388 006e 13D1     		bne	.L84
 360:modem.c       ****         if(at_write_command("AT+CGSN\r","OK",DEFAULT_AT_TIMEOUT)){
 1389              		.loc 1 360 0
 1390 0070 4FF4FA62 		mov	r2, #2000
 1391 0074 2049     		ldr	r1, .L88+4
 1392 0076 2948     		ldr	r0, .L88+40
 1393 0078 FFF7FEFF 		bl	at_write_command
 1394 007c 0346     		mov	r3, r0
 1395 007e 002B     		cmp	r3, #0
 1396 0080 0AD0     		beq	.L84
 361:modem.c       ****             extract_string(uart_received_string,": ","\r",modem_info.imei);
 1397              		.loc 1 361 0
 1398 0082 274B     		ldr	r3, .L88+44
 1399 0084 1F4A     		ldr	r2, .L88+16
 1400 0086 2049     		ldr	r1, .L88+20
 1401 0088 2048     		ldr	r0, .L88+24
 1402 008a FFF7FEFF 		bl	extract_string
 362:modem.c       ****             printNotif(NOTIF_TYPE_EVENT,"IMEI: %s",modem_info.imei);
 1403              		.loc 1 362 0
 1404 008e 244A     		ldr	r2, .L88+44
 1405 0090 2449     		ldr	r1, .L88+48
 1406 0092 0020     		movs	r0, #0
 1407 0094 FFF7FEFF 		bl	printNotif
 1408              	.L84:
 363:modem.c       ****         } 
 364:modem.c       ****     }
 365:modem.c       ****     
 366:modem.c       ****     //configfure protocol and cellular end point
 367:modem.c       ****     at_write_command("AT+CGDCONT=1,\"IP\",\"wireless.twilio.com\"\r\n", "OK", DEFAULT_AT_TIMEOUT);
 1409              		.loc 1 367 0
 1410 0098 4FF4FA62 		mov	r2, #2000
 1411 009c 1649     		ldr	r1, .L88+4
 1412 009e 2248     		ldr	r0, .L88+52
 1413 00a0 FFF7FEFF 		bl	at_write_command
 368:modem.c       ****     
 369:modem.c       ****     //Check if modem power savings is enabled. If so, disable it so we can send data.
 370:modem.c       ****     if(at_write_command("AT+CFUN?\r", "OK",DEFAULT_AT_TIMEOUT)){
 1414              		.loc 1 370 0
 1415 00a4 4FF4FA62 		mov	r2, #2000
 1416 00a8 1349     		ldr	r1, .L88+4
 1417 00aa 2048     		ldr	r0, .L88+56
 1418 00ac FFF7FEFF 		bl	at_write_command
 1419 00b0 0346     		mov	r3, r0
 1420 00b2 002B     		cmp	r3, #0
ARM GAS  C:\Users\HYFI_A~1\AppData\Local\Temp\ccS9C0dA.s 			page 34


 1421 00b4 19D0     		beq	.L87
 1422              	.LBB6:
 371:modem.c       ****         char CFUN[10];
 372:modem.c       ****         extract_string(uart_received_string,": ","\r",CFUN);
 1423              		.loc 1 372 0
 1424 00b6 3B1D     		adds	r3, r7, #4
 1425 00b8 124A     		ldr	r2, .L88+16
 1426 00ba 1349     		ldr	r1, .L88+20
 1427 00bc 1348     		ldr	r0, .L88+24
 1428 00be FFF7FEFF 		bl	extract_string
 373:modem.c       ****         printNotif(NOTIF_TYPE_EVENT,"CFUN: %s",CFUN);
 1429              		.loc 1 373 0
 1430 00c2 3B1D     		adds	r3, r7, #4
 1431 00c4 1A46     		mov	r2, r3
 1432 00c6 1A49     		ldr	r1, .L88+60
 1433 00c8 0020     		movs	r0, #0
 1434 00ca FFF7FEFF 		bl	printNotif
 374:modem.c       ****         if(strstr(CFUN,"1") == NULL){
 1435              		.loc 1 374 0
 1436 00ce 3B1D     		adds	r3, r7, #4
 1437 00d0 3121     		movs	r1, #49
 1438 00d2 1846     		mov	r0, r3
 1439 00d4 FFF7FEFF 		bl	strchr
 1440 00d8 0346     		mov	r3, r0
 1441 00da 002B     		cmp	r3, #0
 1442 00dc 05D1     		bne	.L87
 375:modem.c       ****             at_write_command("AT+CFUN=1\r", "OK",DEFAULT_AT_TIMEOUT);
 1443              		.loc 1 375 0
 1444 00de 4FF4FA62 		mov	r2, #2000
 1445 00e2 0549     		ldr	r1, .L88+4
 1446 00e4 1348     		ldr	r0, .L88+64
 1447 00e6 FFF7FEFF 		bl	at_write_command
 1448              	.L87:
 1449              	.LBE6:
 376:modem.c       ****         }
 377:modem.c       ****     }
 378:modem.c       **** 
 379:modem.c       ****     
 380:modem.c       **** }
 1450              		.loc 1 380 0
 1451 00ea 00BF     		nop
 1452 00ec 1037     		adds	r7, r7, #16
 1453              		.cfi_def_cfa_offset 8
 1454 00ee BD46     		mov	sp, r7
 1455              		.cfi_def_cfa_register 13
 1456              		@ sp needed
 1457 00f0 80BD     		pop	{r7, pc}
 1458              	.L89:
 1459 00f2 00BF     		.align	2
 1460              	.L88:
 1461 00f4 00000000 		.word	modem_info
 1462 00f8 00000000 		.word	.LC0
 1463 00fc 0C020000 		.word	.LC23
 1464 0100 14000000 		.word	modem_info+20
 1465 0104 A0010000 		.word	.LC13
 1466 0108 A4010000 		.word	.LC14
 1467 010c 00000000 		.word	uart_received_string
ARM GAS  C:\Users\HYFI_A~1\AppData\Local\Temp\ccS9C0dA.s 			page 35


 1468 0110 18020000 		.word	.LC24
 1469 0114 28020000 		.word	.LC25
 1470 0118 34020000 		.word	.LC26
 1471 011c 40020000 		.word	.LC27
 1472 0120 28000000 		.word	modem_info+40
 1473 0124 4C020000 		.word	.LC28
 1474 0128 58020000 		.word	.LC29
 1475 012c 84020000 		.word	.LC30
 1476 0130 90020000 		.word	.LC31
 1477 0134 9C020000 		.word	.LC32
 1478              		.cfi_endproc
 1479              	.LFE80:
 1480              		.size	modem_configure_settings, .-modem_configure_settings
 1481              		.section	.text.modem_get_state,"ax",%progbits
 1482              		.align	2
 1483              		.global	modem_get_state
 1484              		.thumb
 1485              		.thumb_func
 1486              		.type	modem_get_state, %function
 1487              	modem_get_state:
 1488              	.LFB81:
 381:modem.c       **** 
 382:modem.c       **** 
 383:modem.c       **** 
 384:modem.c       **** uint8 modem_get_state(){
 1489              		.loc 1 384 0
 1490              		.cfi_startproc
 1491              		@ args = 0, pretend = 0, frame = 0
 1492              		@ frame_needed = 1, uses_anonymous_args = 0
 1493              		@ link register save eliminated.
 1494 0000 80B4     		push	{r7}
 1495              		.cfi_def_cfa_offset 4
 1496              		.cfi_offset 7, -4
 1497 0002 00AF     		add	r7, sp, #0
 1498              		.cfi_def_cfa_register 7
 385:modem.c       ****     return modem_state;
 1499              		.loc 1 385 0
 1500 0004 024B     		ldr	r3, .L92
 1501 0006 1B78     		ldrb	r3, [r3]	@ zero_extendqisi2
 386:modem.c       **** }
 1502              		.loc 1 386 0
 1503 0008 1846     		mov	r0, r3
 1504 000a BD46     		mov	sp, r7
 1505              		.cfi_def_cfa_register 13
 1506              		@ sp needed
 1507 000c 80BC     		pop	{r7}
 1508              		.cfi_restore 7
 1509              		.cfi_def_cfa_offset 0
 1510 000e 7047     		bx	lr
 1511              	.L93:
 1512              		.align	2
 1513              	.L92:
 1514 0010 00000000 		.word	modem_state
 1515              		.cfi_endproc
 1516              	.LFE81:
 1517              		.size	modem_get_state, .-modem_get_state
 1518              		.section	.text.modem_sleep,"ax",%progbits
ARM GAS  C:\Users\HYFI_A~1\AppData\Local\Temp\ccS9C0dA.s 			page 36


 1519              		.align	2
 1520              		.global	modem_sleep
 1521              		.thumb
 1522              		.thumb_func
 1523              		.type	modem_sleep, %function
 1524              	modem_sleep:
 1525              	.LFB82:
 387:modem.c       **** 
 388:modem.c       **** void modem_sleep(){
 1526              		.loc 1 388 0
 1527              		.cfi_startproc
 1528              		@ args = 0, pretend = 0, frame = 0
 1529              		@ frame_needed = 1, uses_anonymous_args = 0
 1530 0000 80B5     		push	{r7, lr}
 1531              		.cfi_def_cfa_offset 8
 1532              		.cfi_offset 7, -8
 1533              		.cfi_offset 14, -4
 1534 0002 00AF     		add	r7, sp, #0
 1535              		.cfi_def_cfa_register 7
 389:modem.c       ****     if(modem_get_state() != MODEM_STATE_OFF){
 1536              		.loc 1 389 0
 1537 0004 FFF7FEFF 		bl	modem_get_state
 1538 0008 0346     		mov	r3, r0
 1539 000a 002B     		cmp	r3, #0
 1540 000c 01D0     		beq	.L96
 390:modem.c       ****         UART_Telit_Sleep();
 1541              		.loc 1 390 0
 1542 000e FFF7FEFF 		bl	UART_Telit_Sleep
 1543              	.L96:
 391:modem.c       ****         //set interrupt on RX pin to wakeup chip from sleep if UART comm starts
 392:modem.c       ****        // Rx_Telit_SetInterruptMode(Rx_Telit_0_INTR,Rx_Telit_INTR_FALLING);
 393:modem.c       ****      }
 394:modem.c       **** }
 1544              		.loc 1 394 0
 1545 0012 00BF     		nop
 1546 0014 80BD     		pop	{r7, pc}
 1547              		.cfi_endproc
 1548              	.LFE82:
 1549              		.size	modem_sleep, .-modem_sleep
 1550 0016 00BF     		.section	.text.modem_wakeup,"ax",%progbits
 1551              		.align	2
 1552              		.global	modem_wakeup
 1553              		.thumb
 1554              		.thumb_func
 1555              		.type	modem_wakeup, %function
 1556              	modem_wakeup:
 1557              	.LFB83:
 395:modem.c       **** 
 396:modem.c       **** void modem_wakeup(){
 1558              		.loc 1 396 0
 1559              		.cfi_startproc
 1560              		@ args = 0, pretend = 0, frame = 8
 1561              		@ frame_needed = 1, uses_anonymous_args = 0
 1562 0000 80B5     		push	{r7, lr}
 1563              		.cfi_def_cfa_offset 8
 1564              		.cfi_offset 7, -8
 1565              		.cfi_offset 14, -4
ARM GAS  C:\Users\HYFI_A~1\AppData\Local\Temp\ccS9C0dA.s 			page 37


 1566 0002 82B0     		sub	sp, sp, #8
 1567              		.cfi_def_cfa_offset 16
 1568 0004 00AF     		add	r7, sp, #0
 1569              		.cfi_def_cfa_register 7
 397:modem.c       ****     
 398:modem.c       ****      if(modem_get_state() != MODEM_STATE_OFF){
 1570              		.loc 1 398 0
 1571 0006 FFF7FEFF 		bl	modem_get_state
 1572 000a 0346     		mov	r3, r0
 1573 000c 002B     		cmp	r3, #0
 1574 000e 0CD0     		beq	.L99
 399:modem.c       ****         UART_Telit_Wakeup();
 1575              		.loc 1 399 0
 1576 0010 FFF7FEFF 		bl	UART_Telit_Wakeup
 400:modem.c       ****         //remove the need for this pin itterupt
 401:modem.c       ****         //Rx_Telit_SetInterruptMode(Rx_Telit_0_INTR,Rx_Telit_INTR_NONE);
 402:modem.c       ****         //if woken up from pin, go ahead and delay for 100ms to allow modem UART to deliver the mes
 403:modem.c       ****         if(modem_get_state() == MODEM_STATE_WAITING_FOR_IP){
 1577              		.loc 1 403 0
 1578 0014 FFF7FEFF 		bl	modem_get_state
 1579 0018 0346     		mov	r3, r0
 1580 001a 032B     		cmp	r3, #3
 1581 001c 05D1     		bne	.L99
 1582              	.LBB7:
 404:modem.c       ****             CyDelay(100u);
 1583              		.loc 1 404 0
 1584 001e 6420     		movs	r0, #100
 1585 0020 FFF7FEFF 		bl	CyDelay
 405:modem.c       ****             uint8 i; 
 406:modem.c       ****             i++;
 1586              		.loc 1 406 0
 1587 0024 FB79     		ldrb	r3, [r7, #7]	@ zero_extendqisi2
 1588 0026 0133     		adds	r3, r3, #1
 1589 0028 FB71     		strb	r3, [r7, #7]
 1590              	.L99:
 1591              	.LBE7:
 407:modem.c       ****         }
 408:modem.c       ****         
 409:modem.c       ****      }
 410:modem.c       ****     
 411:modem.c       **** }
 1592              		.loc 1 411 0
 1593 002a 00BF     		nop
 1594 002c 0837     		adds	r7, r7, #8
 1595              		.cfi_def_cfa_offset 8
 1596 002e BD46     		mov	sp, r7
 1597              		.cfi_def_cfa_register 13
 1598              		@ sp needed
 1599 0030 80BD     		pop	{r7, pc}
 1600              		.cfi_endproc
 1601              	.LFE83:
 1602              		.size	modem_wakeup, .-modem_wakeup
 1603 0032 00BF     		.text
 1604              	.Letext0:
 1605              		.file 2 "c:\\program files (x86)\\cypress\\psoc creator\\4.3\\psoc creator\\import\\gnu\\arm\\5.4.
 1606              		.file 3 "c:\\program files (x86)\\cypress\\psoc creator\\4.3\\psoc creator\\import\\gnu\\arm\\5.4.
 1607              		.file 4 "Generated_Source\\PSoC5/cytypes.h"
ARM GAS  C:\Users\HYFI_A~1\AppData\Local\Temp\ccS9C0dA.s 			page 38


 1608              		.file 5 "testing.h"
 1609              		.file 6 "modem.h"
 1610              		.file 7 "data.h"
 1611              		.file 8 "Generated_Source\\PSoC5/core_cm3.h"
 1612              		.file 9 "debug.h"
 1613              		.section	.debug_info,"",%progbits
 1614              	.Ldebug_info0:
 1615 0000 44060000 		.4byte	0x644
 1616 0004 0400     		.2byte	0x4
 1617 0006 00000000 		.4byte	.Ldebug_abbrev0
 1618 000a 04       		.byte	0x4
 1619 000b 01       		.uleb128 0x1
 1620 000c C6000000 		.4byte	.LASF87
 1621 0010 0C       		.byte	0xc
 1622 0011 65010000 		.4byte	.LASF88
 1623 0015 C2040000 		.4byte	.LASF89
 1624 0019 00000000 		.4byte	.Ldebug_ranges0+0
 1625 001d 00000000 		.4byte	0
 1626 0021 00000000 		.4byte	.Ldebug_line0
 1627 0025 02       		.uleb128 0x2
 1628 0026 01       		.byte	0x1
 1629 0027 06       		.byte	0x6
 1630 0028 C9020000 		.4byte	.LASF0
 1631 002c 03       		.uleb128 0x3
 1632 002d 2D020000 		.4byte	.LASF4
 1633 0031 02       		.byte	0x2
 1634 0032 1D       		.byte	0x1d
 1635 0033 37000000 		.4byte	0x37
 1636 0037 02       		.uleb128 0x2
 1637 0038 01       		.byte	0x1
 1638 0039 08       		.byte	0x8
 1639 003a 93020000 		.4byte	.LASF1
 1640 003e 02       		.uleb128 0x2
 1641 003f 02       		.byte	0x2
 1642 0040 05       		.byte	0x5
 1643 0041 80000000 		.4byte	.LASF2
 1644 0045 02       		.uleb128 0x2
 1645 0046 02       		.byte	0x2
 1646 0047 07       		.byte	0x7
 1647 0048 27030000 		.4byte	.LASF3
 1648 004c 03       		.uleb128 0x3
 1649 004d 1F040000 		.4byte	.LASF5
 1650 0051 02       		.byte	0x2
 1651 0052 3F       		.byte	0x3f
 1652 0053 57000000 		.4byte	0x57
 1653 0057 02       		.uleb128 0x2
 1654 0058 04       		.byte	0x4
 1655 0059 05       		.byte	0x5
 1656 005a FF010000 		.4byte	.LASF6
 1657 005e 03       		.uleb128 0x3
 1658 005f 54010000 		.4byte	.LASF7
 1659 0063 02       		.byte	0x2
 1660 0064 41       		.byte	0x41
 1661 0065 69000000 		.4byte	0x69
 1662 0069 02       		.uleb128 0x2
 1663 006a 04       		.byte	0x4
 1664 006b 07       		.byte	0x7
ARM GAS  C:\Users\HYFI_A~1\AppData\Local\Temp\ccS9C0dA.s 			page 39


 1665 006c DD030000 		.4byte	.LASF8
 1666 0070 02       		.uleb128 0x2
 1667 0071 08       		.byte	0x8
 1668 0072 05       		.byte	0x5
 1669 0073 D8010000 		.4byte	.LASF9
 1670 0077 02       		.uleb128 0x2
 1671 0078 08       		.byte	0x8
 1672 0079 07       		.byte	0x7
 1673 007a D5020000 		.4byte	.LASF10
 1674 007e 04       		.uleb128 0x4
 1675 007f 04       		.byte	0x4
 1676 0080 05       		.byte	0x5
 1677 0081 696E7400 		.ascii	"int\000"
 1678 0085 02       		.uleb128 0x2
 1679 0086 04       		.byte	0x4
 1680 0087 07       		.byte	0x7
 1681 0088 F5020000 		.4byte	.LASF11
 1682 008c 03       		.uleb128 0x3
 1683 008d 89010000 		.4byte	.LASF12
 1684 0091 03       		.byte	0x3
 1685 0092 18       		.byte	0x18
 1686 0093 2C000000 		.4byte	0x2c
 1687 0097 03       		.uleb128 0x3
 1688 0098 78030000 		.4byte	.LASF13
 1689 009c 03       		.byte	0x3
 1690 009d 2C       		.byte	0x2c
 1691 009e 4C000000 		.4byte	0x4c
 1692 00a2 03       		.uleb128 0x3
 1693 00a3 EC020000 		.4byte	.LASF14
 1694 00a7 03       		.byte	0x3
 1695 00a8 30       		.byte	0x30
 1696 00a9 5E000000 		.4byte	0x5e
 1697 00ad 05       		.uleb128 0x5
 1698 00ae AC030000 		.4byte	.LASF15
 1699 00b2 04       		.byte	0x4
 1700 00b3 E401     		.2byte	0x1e4
 1701 00b5 37000000 		.4byte	0x37
 1702 00b9 05       		.uleb128 0x5
 1703 00ba 73010000 		.4byte	.LASF16
 1704 00be 04       		.byte	0x4
 1705 00bf E501     		.2byte	0x1e5
 1706 00c1 45000000 		.4byte	0x45
 1707 00c5 05       		.uleb128 0x5
 1708 00c6 D6030000 		.4byte	.LASF17
 1709 00ca 04       		.byte	0x4
 1710 00cb E601     		.2byte	0x1e6
 1711 00cd 69000000 		.4byte	0x69
 1712 00d1 05       		.uleb128 0x5
 1713 00d2 D2010000 		.4byte	.LASF18
 1714 00d6 04       		.byte	0x4
 1715 00d7 E901     		.2byte	0x1e9
 1716 00d9 57000000 		.4byte	0x57
 1717 00dd 02       		.uleb128 0x2
 1718 00de 04       		.byte	0x4
 1719 00df 04       		.byte	0x4
 1720 00e0 CC010000 		.4byte	.LASF19
 1721 00e4 02       		.uleb128 0x2
ARM GAS  C:\Users\HYFI_A~1\AppData\Local\Temp\ccS9C0dA.s 			page 40


 1722 00e5 08       		.byte	0x8
 1723 00e6 04       		.byte	0x4
 1724 00e7 FA030000 		.4byte	.LASF20
 1725 00eb 02       		.uleb128 0x2
 1726 00ec 01       		.byte	0x1
 1727 00ed 08       		.byte	0x8
 1728 00ee E6010000 		.4byte	.LASF21
 1729 00f2 02       		.uleb128 0x2
 1730 00f3 08       		.byte	0x8
 1731 00f4 04       		.byte	0x4
 1732 00f5 87020000 		.4byte	.LASF22
 1733 00f9 02       		.uleb128 0x2
 1734 00fa 04       		.byte	0x4
 1735 00fb 07       		.byte	0x7
 1736 00fc 94000000 		.4byte	.LASF23
 1737 0100 06       		.uleb128 0x6
 1738 0101 04       		.byte	0x4
 1739 0102 EB000000 		.4byte	0xeb
 1740 0106 06       		.uleb128 0x6
 1741 0107 04       		.byte	0x4
 1742 0108 0C010000 		.4byte	0x10c
 1743 010c 07       		.uleb128 0x7
 1744 010d EB000000 		.4byte	0xeb
 1745 0111 08       		.uleb128 0x8
 1746 0112 8101     		.2byte	0x181
 1747 0114 05       		.byte	0x5
 1748 0115 0A       		.byte	0xa
 1749 0116 3F010000 		.4byte	0x13f
 1750 011a 09       		.uleb128 0x9
 1751 011b B2030000 		.4byte	.LASF24
 1752 011f 05       		.byte	0x5
 1753 0120 0B       		.byte	0xb
 1754 0121 3F010000 		.4byte	0x13f
 1755 0125 00       		.byte	0
 1756 0126 09       		.uleb128 0x9
 1757 0127 52030000 		.4byte	.LASF25
 1758 012b 05       		.byte	0x5
 1759 012c 0C       		.byte	0xc
 1760 012d AD000000 		.4byte	0xad
 1761 0131 80       		.byte	0x80
 1762 0132 09       		.uleb128 0x9
 1763 0133 F8010000 		.4byte	.LASF26
 1764 0137 05       		.byte	0x5
 1765 0138 0D       		.byte	0xd
 1766 0139 4F010000 		.4byte	0x14f
 1767 013d 81       		.byte	0x81
 1768 013e 00       		.byte	0
 1769 013f 0A       		.uleb128 0xa
 1770 0140 EB000000 		.4byte	0xeb
 1771 0144 4F010000 		.4byte	0x14f
 1772 0148 0B       		.uleb128 0xb
 1773 0149 F9000000 		.4byte	0xf9
 1774 014d 7F       		.byte	0x7f
 1775 014e 00       		.byte	0
 1776 014f 0A       		.uleb128 0xa
 1777 0150 EB000000 		.4byte	0xeb
 1778 0154 5F010000 		.4byte	0x15f
ARM GAS  C:\Users\HYFI_A~1\AppData\Local\Temp\ccS9C0dA.s 			page 41


 1779 0158 0B       		.uleb128 0xb
 1780 0159 F9000000 		.4byte	0xf9
 1781 015d FF       		.byte	0xff
 1782 015e 00       		.byte	0
 1783 015f 03       		.uleb128 0x3
 1784 0160 6C030000 		.4byte	.LASF27
 1785 0164 05       		.byte	0x5
 1786 0165 0E       		.byte	0xe
 1787 0166 11010000 		.4byte	0x111
 1788 016a 0C       		.uleb128 0xc
 1789 016b 3C       		.byte	0x3c
 1790 016c 06       		.byte	0x6
 1791 016d 24       		.byte	0x24
 1792 016e 97010000 		.4byte	0x197
 1793 0172 09       		.uleb128 0x9
 1794 0173 22000000 		.4byte	.LASF28
 1795 0177 06       		.byte	0x6
 1796 0178 25       		.byte	0x25
 1797 0179 97010000 		.4byte	0x197
 1798 017d 00       		.byte	0
 1799 017e 09       		.uleb128 0x9
 1800 017f 0D000000 		.4byte	.LASF29
 1801 0183 06       		.byte	0x6
 1802 0184 26       		.byte	0x26
 1803 0185 97010000 		.4byte	0x197
 1804 0189 14       		.byte	0x14
 1805 018a 09       		.uleb128 0x9
 1806 018b 73030000 		.4byte	.LASF30
 1807 018f 06       		.byte	0x6
 1808 0190 27       		.byte	0x27
 1809 0191 97010000 		.4byte	0x197
 1810 0195 28       		.byte	0x28
 1811 0196 00       		.byte	0
 1812 0197 0A       		.uleb128 0xa
 1813 0198 EB000000 		.4byte	0xeb
 1814 019c A7010000 		.4byte	0x1a7
 1815 01a0 0B       		.uleb128 0xb
 1816 01a1 F9000000 		.4byte	0xf9
 1817 01a5 13       		.byte	0x13
 1818 01a6 00       		.byte	0
 1819 01a7 03       		.uleb128 0x3
 1820 01a8 EB010000 		.4byte	.LASF31
 1821 01ac 06       		.byte	0x6
 1822 01ad 28       		.byte	0x28
 1823 01ae 6A010000 		.4byte	0x16a
 1824 01b2 0C       		.uleb128 0xc
 1825 01b3 0C       		.byte	0xc
 1826 01b4 06       		.byte	0x6
 1827 01b5 2A       		.byte	0x2a
 1828 01b6 EA010000 		.4byte	0x1ea
 1829 01ba 09       		.uleb128 0x9
 1830 01bb 5D020000 		.4byte	.LASF32
 1831 01bf 06       		.byte	0x6
 1832 01c0 2B       		.byte	0x2b
 1833 01c1 AD000000 		.4byte	0xad
 1834 01c5 00       		.byte	0
 1835 01c6 0D       		.uleb128 0xd
ARM GAS  C:\Users\HYFI_A~1\AppData\Local\Temp\ccS9C0dA.s 			page 42


 1836 01c7 737100   		.ascii	"sq\000"
 1837 01ca 06       		.byte	0x6
 1838 01cb 2C       		.byte	0x2c
 1839 01cc AD000000 		.4byte	0xad
 1840 01d0 01       		.byte	0x1
 1841 01d1 09       		.uleb128 0x9
 1842 01d2 3A030000 		.4byte	.LASF33
 1843 01d6 06       		.byte	0x6
 1844 01d7 2D       		.byte	0x2d
 1845 01d8 7E000000 		.4byte	0x7e
 1846 01dc 04       		.byte	0x4
 1847 01dd 09       		.uleb128 0x9
 1848 01de 59030000 		.4byte	.LASF34
 1849 01e2 06       		.byte	0x6
 1850 01e3 2E       		.byte	0x2e
 1851 01e4 7E000000 		.4byte	0x7e
 1852 01e8 08       		.byte	0x8
 1853 01e9 00       		.byte	0
 1854 01ea 03       		.uleb128 0x3
 1855 01eb 9E030000 		.4byte	.LASF35
 1856 01ef 06       		.byte	0x6
 1857 01f0 2F       		.byte	0x2f
 1858 01f1 B2010000 		.4byte	0x1b2
 1859 01f5 0C       		.uleb128 0xc
 1860 01f6 2C       		.byte	0x2c
 1861 01f7 07       		.byte	0x7
 1862 01f8 0B       		.byte	0xb
 1863 01f9 22020000 		.4byte	0x222
 1864 01fd 0D       		.uleb128 0xd
 1865 01fe 6B657900 		.ascii	"key\000"
 1866 0202 07       		.byte	0x7
 1867 0203 0C       		.byte	0xc
 1868 0204 97010000 		.4byte	0x197
 1869 0208 00       		.byte	0
 1870 0209 09       		.uleb128 0x9
 1871 020a 6D010000 		.4byte	.LASF36
 1872 020e 07       		.byte	0x7
 1873 020f 0D       		.byte	0xd
 1874 0210 97010000 		.4byte	0x197
 1875 0214 14       		.byte	0x14
 1876 0215 09       		.uleb128 0x9
 1877 0216 8A000000 		.4byte	.LASF37
 1878 021a 07       		.byte	0x7
 1879 021b 0E       		.byte	0xe
 1880 021c D1000000 		.4byte	0xd1
 1881 0220 28       		.byte	0x28
 1882 0221 00       		.byte	0
 1883 0222 03       		.uleb128 0x3
 1884 0223 02030000 		.4byte	.LASF38
 1885 0227 07       		.byte	0x7
 1886 0228 0F       		.byte	0xf
 1887 0229 F5010000 		.4byte	0x1f5
 1888 022d 0E       		.uleb128 0xe
 1889 022e BC030000 		.4byte	.LASF63
 1890 0232 01       		.byte	0x1
 1891 0233 11       		.byte	0x11
 1892 0234 00000000 		.4byte	.LFB64
ARM GAS  C:\Users\HYFI_A~1\AppData\Local\Temp\ccS9C0dA.s 			page 43


 1893 0238 3C000000 		.4byte	.LFE64-.LFB64
 1894 023c 01       		.uleb128 0x1
 1895 023d 9C       		.byte	0x9c
 1896 023e 0F       		.uleb128 0xf
 1897 023f BD010000 		.4byte	.LASF39
 1898 0243 01       		.byte	0x1
 1899 0244 1A       		.byte	0x1a
 1900 0245 00000000 		.4byte	.LFB65
 1901 0249 54000000 		.4byte	.LFE65-.LFB65
 1902 024d 01       		.uleb128 0x1
 1903 024e 9C       		.byte	0x9c
 1904 024f 0F       		.uleb128 0xf
 1905 0250 AA040000 		.4byte	.LASF40
 1906 0254 01       		.byte	0x1
 1907 0255 2E       		.byte	0x2e
 1908 0256 00000000 		.4byte	.LFB66
 1909 025a 32000000 		.4byte	.LFE66-.LFB66
 1910 025e 01       		.uleb128 0x1
 1911 025f 9C       		.byte	0x9c
 1912 0260 0F       		.uleb128 0xf
 1913 0261 6A000000 		.4byte	.LASF41
 1914 0265 01       		.byte	0x1
 1915 0266 40       		.byte	0x40
 1916 0267 00000000 		.4byte	.LFB67
 1917 026b 20000000 		.4byte	.LFE67-.LFB67
 1918 026f 01       		.uleb128 0x1
 1919 0270 9C       		.byte	0x9c
 1920 0271 0F       		.uleb128 0xf
 1921 0272 29000000 		.4byte	.LASF42
 1922 0276 01       		.byte	0x1
 1923 0277 48       		.byte	0x48
 1924 0278 00000000 		.4byte	.LFB68
 1925 027c 40000000 		.4byte	.LFE68-.LFB68
 1926 0280 01       		.uleb128 0x1
 1927 0281 9C       		.byte	0x9c
 1928 0282 10       		.uleb128 0x10
 1929 0283 7A010000 		.4byte	.LASF54
 1930 0287 01       		.byte	0x1
 1931 0288 58       		.byte	0x58
 1932 0289 AD000000 		.4byte	0xad
 1933 028d 00000000 		.4byte	.LFB69
 1934 0291 A0000000 		.4byte	.LFE69-.LFB69
 1935 0295 01       		.uleb128 0x1
 1936 0296 9C       		.byte	0x9c
 1937 0297 D0020000 		.4byte	0x2d0
 1938 029b 11       		.uleb128 0x11
 1939 029c 50040000 		.4byte	.LASF43
 1940 02a0 01       		.byte	0x1
 1941 02a1 61       		.byte	0x61
 1942 02a2 AD000000 		.4byte	0xad
 1943 02a6 02       		.uleb128 0x2
 1944 02a7 91       		.byte	0x91
 1945 02a8 77       		.sleb128 -9
 1946 02a9 11       		.uleb128 0x11
 1947 02aa 62020000 		.4byte	.LASF44
 1948 02ae 01       		.byte	0x1
 1949 02af 62       		.byte	0x62
ARM GAS  C:\Users\HYFI_A~1\AppData\Local\Temp\ccS9C0dA.s 			page 44


 1950 02b0 AD000000 		.4byte	0xad
 1951 02b4 02       		.uleb128 0x2
 1952 02b5 91       		.byte	0x91
 1953 02b6 75       		.sleb128 -11
 1954 02b7 12       		.uleb128 0x12
 1955 02b8 20000000 		.4byte	.LBB2
 1956 02bc 2E000000 		.4byte	.LBE2-.LBB2
 1957 02c0 11       		.uleb128 0x11
 1958 02c1 62020000 		.4byte	.LASF44
 1959 02c5 01       		.byte	0x1
 1960 02c6 64       		.byte	0x64
 1961 02c7 AD000000 		.4byte	0xad
 1962 02cb 02       		.uleb128 0x2
 1963 02cc 91       		.byte	0x91
 1964 02cd 76       		.sleb128 -10
 1965 02ce 00       		.byte	0
 1966 02cf 00       		.byte	0
 1967 02d0 0F       		.uleb128 0xf
 1968 02d1 9D000000 		.4byte	.LASF45
 1969 02d5 01       		.byte	0x1
 1970 02d6 79       		.byte	0x79
 1971 02d7 00000000 		.4byte	.LFB70
 1972 02db 1C000000 		.4byte	.LFE70-.LFB70
 1973 02df 01       		.uleb128 0x1
 1974 02e0 9C       		.byte	0x9c
 1975 02e1 0F       		.uleb128 0xf
 1976 02e2 B4000000 		.4byte	.LASF46
 1977 02e6 01       		.byte	0x1
 1978 02e7 81       		.byte	0x81
 1979 02e8 00000000 		.4byte	.LFB71
 1980 02ec 28000000 		.4byte	.LFE71-.LFB71
 1981 02f0 01       		.uleb128 0x1
 1982 02f1 9C       		.byte	0x9c
 1983 02f2 13       		.uleb128 0x13
 1984 02f3 37020000 		.4byte	.LASF57
 1985 02f7 01       		.byte	0x1
 1986 02f8 87       		.byte	0x87
 1987 02f9 8C000000 		.4byte	0x8c
 1988 02fd 00000000 		.4byte	.LFB72
 1989 0301 B8000000 		.4byte	.LFE72-.LFB72
 1990 0305 01       		.uleb128 0x1
 1991 0306 9C       		.byte	0x9c
 1992 0307 84030000 		.4byte	0x384
 1993 030b 14       		.uleb128 0x14
 1994 030c A3010000 		.4byte	.LASF47
 1995 0310 01       		.byte	0x1
 1996 0311 87       		.byte	0x87
 1997 0312 00010000 		.4byte	0x100
 1998 0316 02       		.uleb128 0x2
 1999 0317 91       		.byte	0x91
 2000 0318 5C       		.sleb128 -36
 2001 0319 14       		.uleb128 0x14
 2002 031a 3E040000 		.4byte	.LASF48
 2003 031e 01       		.byte	0x1
 2004 031f 87       		.byte	0x87
 2005 0320 00010000 		.4byte	0x100
 2006 0324 02       		.uleb128 0x2
ARM GAS  C:\Users\HYFI_A~1\AppData\Local\Temp\ccS9C0dA.s 			page 45


 2007 0325 91       		.byte	0x91
 2008 0326 58       		.sleb128 -40
 2009 0327 14       		.uleb128 0x14
 2010 0328 CE030000 		.4byte	.LASF49
 2011 032c 01       		.byte	0x1
 2012 032d 87       		.byte	0x87
 2013 032e A2000000 		.4byte	0xa2
 2014 0332 02       		.uleb128 0x2
 2015 0333 91       		.byte	0x91
 2016 0334 54       		.sleb128 -44
 2017 0335 11       		.uleb128 0x11
 2018 0336 84040000 		.4byte	.LASF50
 2019 033a 01       		.byte	0x1
 2020 033b 89       		.byte	0x89
 2021 033c C5000000 		.4byte	0xc5
 2022 0340 02       		.uleb128 0x2
 2023 0341 91       		.byte	0x91
 2024 0342 74       		.sleb128 -12
 2025 0343 12       		.uleb128 0x12
 2026 0344 16000000 		.4byte	.LBB3
 2027 0348 7A000000 		.4byte	.LBE3-.LBB3
 2028 034c 11       		.uleb128 0x11
 2029 034d AC010000 		.4byte	.LASF51
 2030 0351 01       		.byte	0x1
 2031 0352 8D       		.byte	0x8d
 2032 0353 00010000 		.4byte	0x100
 2033 0357 02       		.uleb128 0x2
 2034 0358 91       		.byte	0x91
 2035 0359 64       		.sleb128 -28
 2036 035a 11       		.uleb128 0x11
 2037 035b 5F010000 		.4byte	.LASF52
 2038 035f 01       		.byte	0x1
 2039 0360 8E       		.byte	0x8e
 2040 0361 A2000000 		.4byte	0xa2
 2041 0365 02       		.uleb128 0x2
 2042 0366 91       		.byte	0x91
 2043 0367 6C       		.sleb128 -20
 2044 0368 15       		.uleb128 0x15
 2045 0369 6900     		.ascii	"i\000"
 2046 036b 01       		.byte	0x1
 2047 036c 8F       		.byte	0x8f
 2048 036d A2000000 		.4byte	0xa2
 2049 0371 02       		.uleb128 0x2
 2050 0372 91       		.byte	0x91
 2051 0373 70       		.sleb128 -16
 2052 0374 11       		.uleb128 0x11
 2053 0375 0D040000 		.4byte	.LASF53
 2054 0379 01       		.byte	0x1
 2055 037a 8F       		.byte	0x8f
 2056 037b A2000000 		.4byte	0xa2
 2057 037f 02       		.uleb128 0x2
 2058 0380 91       		.byte	0x91
 2059 0381 68       		.sleb128 -24
 2060 0382 00       		.byte	0
 2061 0383 00       		.byte	0
 2062 0384 10       		.uleb128 0x10
 2063 0385 EF030000 		.4byte	.LASF55
ARM GAS  C:\Users\HYFI_A~1\AppData\Local\Temp\ccS9C0dA.s 			page 46


 2064 0389 01       		.byte	0x1
 2065 038a B0       		.byte	0xb0
 2066 038b 5F010000 		.4byte	0x15f
 2067 038f 00000000 		.4byte	.LFB73
 2068 0393 34000000 		.4byte	.LFE73-.LFB73
 2069 0397 01       		.uleb128 0x1
 2070 0398 9C       		.byte	0x9c
 2071 0399 AD030000 		.4byte	0x3ad
 2072 039d 11       		.uleb128 0x11
 2073 039e C9030000 		.4byte	.LASF56
 2074 03a2 01       		.byte	0x1
 2075 03a3 B2       		.byte	0xb2
 2076 03a4 5F010000 		.4byte	0x15f
 2077 03a8 03       		.uleb128 0x3
 2078 03a9 91       		.byte	0x91
 2079 03aa F47C     		.sleb128 -396
 2080 03ac 00       		.byte	0
 2081 03ad 13       		.uleb128 0x13
 2082 03ae 29040000 		.4byte	.LASF58
 2083 03b2 01       		.byte	0x1
 2084 03b3 BC       		.byte	0xbc
 2085 03b4 AD000000 		.4byte	0xad
 2086 03b8 00000000 		.4byte	.LFB74
 2087 03bc 78000000 		.4byte	.LFE74-.LFB74
 2088 03c0 01       		.uleb128 0x1
 2089 03c1 9C       		.byte	0x9c
 2090 03c2 17040000 		.4byte	0x417
 2091 03c6 14       		.uleb128 0x14
 2092 03c7 08050000 		.4byte	.LASF59
 2093 03cb 01       		.byte	0x1
 2094 03cc BC       		.byte	0xbc
 2095 03cd 00010000 		.4byte	0x100
 2096 03d1 02       		.uleb128 0x2
 2097 03d2 91       		.byte	0x91
 2098 03d3 6C       		.sleb128 -20
 2099 03d4 14       		.uleb128 0x14
 2100 03d5 01040000 		.4byte	.LASF60
 2101 03d9 01       		.byte	0x1
 2102 03da BC       		.byte	0xbc
 2103 03db 06010000 		.4byte	0x106
 2104 03df 02       		.uleb128 0x2
 2105 03e0 91       		.byte	0x91
 2106 03e1 68       		.sleb128 -24
 2107 03e2 14       		.uleb128 0x14
 2108 03e3 08020000 		.4byte	.LASF61
 2109 03e7 01       		.byte	0x1
 2110 03e8 BC       		.byte	0xbc
 2111 03e9 06010000 		.4byte	0x106
 2112 03ed 02       		.uleb128 0x2
 2113 03ee 91       		.byte	0x91
 2114 03ef 64       		.sleb128 -28
 2115 03f0 14       		.uleb128 0x14
 2116 03f1 80030000 		.4byte	.LASF62
 2117 03f5 01       		.byte	0x1
 2118 03f6 BC       		.byte	0xbc
 2119 03f7 00010000 		.4byte	0x100
 2120 03fb 02       		.uleb128 0x2
ARM GAS  C:\Users\HYFI_A~1\AppData\Local\Temp\ccS9C0dA.s 			page 47


 2121 03fc 91       		.byte	0x91
 2122 03fd 60       		.sleb128 -32
 2123 03fe 15       		.uleb128 0x15
 2124 03ff 6100     		.ascii	"a\000"
 2125 0401 01       		.byte	0x1
 2126 0402 BE       		.byte	0xbe
 2127 0403 00010000 		.4byte	0x100
 2128 0407 02       		.uleb128 0x2
 2129 0408 91       		.byte	0x91
 2130 0409 74       		.sleb128 -12
 2131 040a 15       		.uleb128 0x15
 2132 040b 6200     		.ascii	"b\000"
 2133 040d 01       		.byte	0x1
 2134 040e BE       		.byte	0xbe
 2135 040f 00010000 		.4byte	0x100
 2136 0413 02       		.uleb128 0x2
 2137 0414 91       		.byte	0x91
 2138 0415 70       		.sleb128 -16
 2139 0416 00       		.byte	0
 2140 0417 16       		.uleb128 0x16
 2141 0418 0D050000 		.4byte	.LASF64
 2142 041c 01       		.byte	0x1
 2143 041d D9       		.byte	0xd9
 2144 041e AD000000 		.4byte	0xad
 2145 0422 00000000 		.4byte	.LFB75
 2146 0426 08010000 		.4byte	.LFE75-.LFB75
 2147 042a 01       		.uleb128 0x1
 2148 042b 9C       		.byte	0x9c
 2149 042c 17       		.uleb128 0x17
 2150 042d 6A020000 		.4byte	.LASF65
 2151 0431 01       		.byte	0x1
 2152 0432 0D01     		.2byte	0x10d
 2153 0434 AD000000 		.4byte	0xad
 2154 0438 00000000 		.4byte	.LFB76
 2155 043c 64000000 		.4byte	.LFE76-.LFB76
 2156 0440 01       		.uleb128 0x1
 2157 0441 9C       		.byte	0x9c
 2158 0442 56040000 		.4byte	0x456
 2159 0446 18       		.uleb128 0x18
 2160 0447 B8020000 		.4byte	.LASF66
 2161 044b 01       		.byte	0x1
 2162 044c 1101     		.2byte	0x111
 2163 044e 56040000 		.4byte	0x456
 2164 0452 02       		.uleb128 0x2
 2165 0453 91       		.byte	0x91
 2166 0454 6C       		.sleb128 -20
 2167 0455 00       		.byte	0
 2168 0456 0A       		.uleb128 0xa
 2169 0457 EB000000 		.4byte	0xeb
 2170 045b 66040000 		.4byte	0x466
 2171 045f 0B       		.uleb128 0xb
 2172 0460 F9000000 		.4byte	0xf9
 2173 0464 09       		.byte	0x9
 2174 0465 00       		.byte	0
 2175 0466 19       		.uleb128 0x19
 2176 0467 8F040000 		.4byte	.LASF67
 2177 046b 01       		.byte	0x1
ARM GAS  C:\Users\HYFI_A~1\AppData\Local\Temp\ccS9C0dA.s 			page 48


 2178 046c 1E01     		.2byte	0x11e
 2179 046e 00000000 		.4byte	.LFB77
 2180 0472 1C000000 		.4byte	.LFE77-.LFB77
 2181 0476 01       		.uleb128 0x1
 2182 0477 9C       		.byte	0x9c
 2183 0478 1A       		.uleb128 0x1a
 2184 0479 51000000 		.4byte	.LASF68
 2185 047d 01       		.byte	0x1
 2186 047e 2F01     		.2byte	0x12f
 2187 0480 AD000000 		.4byte	0xad
 2188 0484 00000000 		.4byte	.LFB78
 2189 0488 28000000 		.4byte	.LFE78-.LFB78
 2190 048c 01       		.uleb128 0x1
 2191 048d 9C       		.byte	0x9c
 2192 048e 1B       		.uleb128 0x1b
 2193 048f A1020000 		.4byte	.LASF71
 2194 0493 01       		.byte	0x1
 2195 0494 3A01     		.2byte	0x13a
 2196 0496 00000000 		.4byte	.LFB79
 2197 049a B4000000 		.4byte	.LFE79-.LFB79
 2198 049e 01       		.uleb128 0x1
 2199 049f 9C       		.byte	0x9c
 2200 04a0 E6040000 		.4byte	0x4e6
 2201 04a4 12       		.uleb128 0x12
 2202 04a5 06000000 		.4byte	.LBB4
 2203 04a9 84000000 		.4byte	.LBE4-.LBB4
 2204 04ad 18       		.uleb128 0x18
 2205 04ae 16040000 		.4byte	.LASF69
 2206 04b2 01       		.byte	0x1
 2207 04b3 3C01     		.2byte	0x13c
 2208 04b5 AD000000 		.4byte	0xad
 2209 04b9 02       		.uleb128 0x2
 2210 04ba 91       		.byte	0x91
 2211 04bb 77       		.sleb128 -9
 2212 04bc 12       		.uleb128 0x12
 2213 04bd 0C000000 		.4byte	.LBB5
 2214 04c1 72000000 		.4byte	.LBE5-.LBB5
 2215 04c5 1C       		.uleb128 0x1c
 2216 04c6 63737100 		.ascii	"csq\000"
 2217 04ca 01       		.byte	0x1
 2218 04cb 3F01     		.2byte	0x13f
 2219 04cd 56040000 		.4byte	0x456
 2220 04d1 02       		.uleb128 0x2
 2221 04d2 91       		.byte	0x91
 2222 04d3 64       		.sleb128 -28
 2223 04d4 18       		.uleb128 0x18
 2224 04d5 38040000 		.4byte	.LASF70
 2225 04d9 01       		.byte	0x1
 2226 04da 4301     		.2byte	0x143
 2227 04dc 00010000 		.4byte	0x100
 2228 04e0 02       		.uleb128 0x2
 2229 04e1 91       		.byte	0x91
 2230 04e2 70       		.sleb128 -16
 2231 04e3 00       		.byte	0
 2232 04e4 00       		.byte	0
 2233 04e5 00       		.byte	0
 2234 04e6 1B       		.uleb128 0x1b
ARM GAS  C:\Users\HYFI_A~1\AppData\Local\Temp\ccS9C0dA.s 			page 49


 2235 04e7 59040000 		.4byte	.LASF72
 2236 04eb 01       		.byte	0x1
 2237 04ec 5401     		.2byte	0x154
 2238 04ee 00000000 		.4byte	.LFB80
 2239 04f2 38010000 		.4byte	.LFE80-.LFB80
 2240 04f6 01       		.uleb128 0x1
 2241 04f7 9C       		.byte	0x9c
 2242 04f8 16050000 		.4byte	0x516
 2243 04fc 12       		.uleb128 0x12
 2244 04fd B6000000 		.4byte	.LBB6
 2245 0501 34000000 		.4byte	.LBE6-.LBB6
 2246 0505 18       		.uleb128 0x18
 2247 0506 7F040000 		.4byte	.LASF73
 2248 050a 01       		.byte	0x1
 2249 050b 7301     		.2byte	0x173
 2250 050d 56040000 		.4byte	0x456
 2251 0511 02       		.uleb128 0x2
 2252 0512 91       		.byte	0x91
 2253 0513 6C       		.sleb128 -20
 2254 0514 00       		.byte	0
 2255 0515 00       		.byte	0
 2256 0516 1D       		.uleb128 0x1d
 2257 0517 1D020000 		.4byte	.LASF74
 2258 051b 01       		.byte	0x1
 2259 051c 8001     		.2byte	0x180
 2260 051e AD000000 		.4byte	0xad
 2261 0522 00000000 		.4byte	.LFB81
 2262 0526 14000000 		.4byte	.LFE81-.LFB81
 2263 052a 01       		.uleb128 0x1
 2264 052b 9C       		.byte	0x9c
 2265 052c 19       		.uleb128 0x19
 2266 052d 16000000 		.4byte	.LASF75
 2267 0531 01       		.byte	0x1
 2268 0532 8401     		.2byte	0x184
 2269 0534 00000000 		.4byte	.LFB82
 2270 0538 16000000 		.4byte	.LFE82-.LFB82
 2271 053c 01       		.uleb128 0x1
 2272 053d 9C       		.byte	0x9c
 2273 053e 1B       		.uleb128 0x1b
 2274 053f 00000000 		.4byte	.LASF76
 2275 0543 01       		.byte	0x1
 2276 0544 8C01     		.2byte	0x18c
 2277 0546 00000000 		.4byte	.LFB83
 2278 054a 32000000 		.4byte	.LFE83-.LFB83
 2279 054e 01       		.uleb128 0x1
 2280 054f 9C       		.byte	0x9c
 2281 0550 6C050000 		.4byte	0x56c
 2282 0554 12       		.uleb128 0x12
 2283 0555 1E000000 		.4byte	.LBB7
 2284 0559 0C000000 		.4byte	.LBE7-.LBB7
 2285 055d 1C       		.uleb128 0x1c
 2286 055e 6900     		.ascii	"i\000"
 2287 0560 01       		.byte	0x1
 2288 0561 9501     		.2byte	0x195
 2289 0563 AD000000 		.4byte	0xad
 2290 0567 02       		.uleb128 0x2
 2291 0568 91       		.byte	0x91
ARM GAS  C:\Users\HYFI_A~1\AppData\Local\Temp\ccS9C0dA.s 			page 50


 2292 0569 77       		.sleb128 -9
 2293 056a 00       		.byte	0
 2294 056b 00       		.byte	0
 2295 056c 1E       		.uleb128 0x1e
 2296 056d 72040000 		.4byte	.LASF77
 2297 0571 08       		.byte	0x8
 2298 0572 1207     		.2byte	0x712
 2299 0574 78050000 		.4byte	0x578
 2300 0578 1F       		.uleb128 0x1f
 2301 0579 97000000 		.4byte	0x97
 2302 057d 20       		.uleb128 0x20
 2303 057e BD020000 		.4byte	.LASF78
 2304 0582 06       		.byte	0x6
 2305 0583 0E       		.byte	0xe
 2306 0584 AD000000 		.4byte	0xad
 2307 0588 05       		.uleb128 0x5
 2308 0589 03       		.byte	0x3
 2309 058a 00000000 		.4byte	modem_state
 2310 058e 20       		.uleb128 0x20
 2311 058f 87030000 		.4byte	.LASF79
 2312 0593 06       		.byte	0x6
 2313 0594 31       		.byte	0x31
 2314 0595 D1000000 		.4byte	0xd1
 2315 0599 05       		.uleb128 0x5
 2316 059a 03       		.byte	0x3
 2317 059b 00000000 		.4byte	modem_start_time_stamp
 2318 059f 20       		.uleb128 0x20
 2319 05a0 12020000 		.4byte	.LASF80
 2320 05a4 06       		.byte	0x6
 2321 05a5 32       		.byte	0x32
 2322 05a6 A7010000 		.4byte	0x1a7
 2323 05aa 05       		.uleb128 0x5
 2324 05ab 03       		.byte	0x3
 2325 05ac 00000000 		.4byte	modem_info
 2326 05b0 20       		.uleb128 0x20
 2327 05b1 1B030000 		.4byte	.LASF81
 2328 05b5 06       		.byte	0x6
 2329 05b6 33       		.byte	0x33
 2330 05b7 EA010000 		.4byte	0x1ea
 2331 05bb 05       		.uleb128 0x5
 2332 05bc 03       		.byte	0x3
 2333 05bd 00000000 		.4byte	modem_stats
 2334 05c1 0A       		.uleb128 0xa
 2335 05c2 EB000000 		.4byte	0xeb
 2336 05c6 D1050000 		.4byte	0x5d1
 2337 05ca 0B       		.uleb128 0xb
 2338 05cb F9000000 		.4byte	0xf9
 2339 05cf 63       		.byte	0x63
 2340 05d0 00       		.byte	0
 2341 05d1 20       		.uleb128 0x20
 2342 05d2 0E030000 		.4byte	.LASF82
 2343 05d6 09       		.byte	0x9
 2344 05d7 17       		.byte	0x17
 2345 05d8 C1050000 		.4byte	0x5c1
 2346 05dc 05       		.uleb128 0x5
 2347 05dd 03       		.byte	0x3
 2348 05de 00000000 		.4byte	debug_string
ARM GAS  C:\Users\HYFI_A~1\AppData\Local\Temp\ccS9C0dA.s 			page 51


 2349 05e2 20       		.uleb128 0x20
 2350 05e3 91010000 		.4byte	.LASF83
 2351 05e7 07       		.byte	0x7
 2352 05e8 19       		.byte	0x19
 2353 05e9 B9000000 		.4byte	0xb9
 2354 05ed 05       		.uleb128 0x5
 2355 05ee 03       		.byte	0x3
 2356 05ef 00000000 		.4byte	dataPointsInStack
 2357 05f3 0A       		.uleb128 0xa
 2358 05f4 22020000 		.4byte	0x222
 2359 05f8 03060000 		.4byte	0x603
 2360 05fc 0B       		.uleb128 0xb
 2361 05fd F9000000 		.4byte	0xf9
 2362 0601 09       		.byte	0x9
 2363 0602 00       		.byte	0
 2364 0603 20       		.uleb128 0x20
 2365 0604 4C000000 		.4byte	.LASF84
 2366 0608 07       		.byte	0x7
 2367 0609 1A       		.byte	0x1a
 2368 060a F3050000 		.4byte	0x5f3
 2369 060e 05       		.uleb128 0x5
 2370 060f 03       		.byte	0x3
 2371 0610 00000000 		.4byte	data
 2372 0614 0A       		.uleb128 0xa
 2373 0615 EB000000 		.4byte	0xeb
 2374 0619 25060000 		.4byte	0x625
 2375 061d 21       		.uleb128 0x21
 2376 061e F9000000 		.4byte	0xf9
 2377 0622 FF03     		.2byte	0x3ff
 2378 0624 00       		.byte	0
 2379 0625 20       		.uleb128 0x20
 2380 0626 48020000 		.4byte	.LASF85
 2381 062a 01       		.byte	0x1
 2382 062b 06       		.byte	0x6
 2383 062c 14060000 		.4byte	0x614
 2384 0630 05       		.uleb128 0x5
 2385 0631 03       		.byte	0x3
 2386 0632 00000000 		.4byte	uart_received_string
 2387 0636 20       		.uleb128 0x20
 2388 0637 3A000000 		.4byte	.LASF86
 2389 063b 01       		.byte	0x1
 2390 063c 07       		.byte	0x7
 2391 063d 8C000000 		.4byte	0x8c
 2392 0641 05       		.uleb128 0x5
 2393 0642 03       		.byte	0x3
 2394 0643 00000000 		.4byte	uart_string_index
 2395 0647 00       		.byte	0
 2396              		.section	.debug_abbrev,"",%progbits
 2397              	.Ldebug_abbrev0:
 2398 0000 01       		.uleb128 0x1
 2399 0001 11       		.uleb128 0x11
 2400 0002 01       		.byte	0x1
 2401 0003 25       		.uleb128 0x25
 2402 0004 0E       		.uleb128 0xe
 2403 0005 13       		.uleb128 0x13
 2404 0006 0B       		.uleb128 0xb
 2405 0007 03       		.uleb128 0x3
ARM GAS  C:\Users\HYFI_A~1\AppData\Local\Temp\ccS9C0dA.s 			page 52


 2406 0008 0E       		.uleb128 0xe
 2407 0009 1B       		.uleb128 0x1b
 2408 000a 0E       		.uleb128 0xe
 2409 000b 55       		.uleb128 0x55
 2410 000c 17       		.uleb128 0x17
 2411 000d 11       		.uleb128 0x11
 2412 000e 01       		.uleb128 0x1
 2413 000f 10       		.uleb128 0x10
 2414 0010 17       		.uleb128 0x17
 2415 0011 00       		.byte	0
 2416 0012 00       		.byte	0
 2417 0013 02       		.uleb128 0x2
 2418 0014 24       		.uleb128 0x24
 2419 0015 00       		.byte	0
 2420 0016 0B       		.uleb128 0xb
 2421 0017 0B       		.uleb128 0xb
 2422 0018 3E       		.uleb128 0x3e
 2423 0019 0B       		.uleb128 0xb
 2424 001a 03       		.uleb128 0x3
 2425 001b 0E       		.uleb128 0xe
 2426 001c 00       		.byte	0
 2427 001d 00       		.byte	0
 2428 001e 03       		.uleb128 0x3
 2429 001f 16       		.uleb128 0x16
 2430 0020 00       		.byte	0
 2431 0021 03       		.uleb128 0x3
 2432 0022 0E       		.uleb128 0xe
 2433 0023 3A       		.uleb128 0x3a
 2434 0024 0B       		.uleb128 0xb
 2435 0025 3B       		.uleb128 0x3b
 2436 0026 0B       		.uleb128 0xb
 2437 0027 49       		.uleb128 0x49
 2438 0028 13       		.uleb128 0x13
 2439 0029 00       		.byte	0
 2440 002a 00       		.byte	0
 2441 002b 04       		.uleb128 0x4
 2442 002c 24       		.uleb128 0x24
 2443 002d 00       		.byte	0
 2444 002e 0B       		.uleb128 0xb
 2445 002f 0B       		.uleb128 0xb
 2446 0030 3E       		.uleb128 0x3e
 2447 0031 0B       		.uleb128 0xb
 2448 0032 03       		.uleb128 0x3
 2449 0033 08       		.uleb128 0x8
 2450 0034 00       		.byte	0
 2451 0035 00       		.byte	0
 2452 0036 05       		.uleb128 0x5
 2453 0037 16       		.uleb128 0x16
 2454 0038 00       		.byte	0
 2455 0039 03       		.uleb128 0x3
 2456 003a 0E       		.uleb128 0xe
 2457 003b 3A       		.uleb128 0x3a
 2458 003c 0B       		.uleb128 0xb
 2459 003d 3B       		.uleb128 0x3b
 2460 003e 05       		.uleb128 0x5
 2461 003f 49       		.uleb128 0x49
 2462 0040 13       		.uleb128 0x13
ARM GAS  C:\Users\HYFI_A~1\AppData\Local\Temp\ccS9C0dA.s 			page 53


 2463 0041 00       		.byte	0
 2464 0042 00       		.byte	0
 2465 0043 06       		.uleb128 0x6
 2466 0044 0F       		.uleb128 0xf
 2467 0045 00       		.byte	0
 2468 0046 0B       		.uleb128 0xb
 2469 0047 0B       		.uleb128 0xb
 2470 0048 49       		.uleb128 0x49
 2471 0049 13       		.uleb128 0x13
 2472 004a 00       		.byte	0
 2473 004b 00       		.byte	0
 2474 004c 07       		.uleb128 0x7
 2475 004d 26       		.uleb128 0x26
 2476 004e 00       		.byte	0
 2477 004f 49       		.uleb128 0x49
 2478 0050 13       		.uleb128 0x13
 2479 0051 00       		.byte	0
 2480 0052 00       		.byte	0
 2481 0053 08       		.uleb128 0x8
 2482 0054 13       		.uleb128 0x13
 2483 0055 01       		.byte	0x1
 2484 0056 0B       		.uleb128 0xb
 2485 0057 05       		.uleb128 0x5
 2486 0058 3A       		.uleb128 0x3a
 2487 0059 0B       		.uleb128 0xb
 2488 005a 3B       		.uleb128 0x3b
 2489 005b 0B       		.uleb128 0xb
 2490 005c 01       		.uleb128 0x1
 2491 005d 13       		.uleb128 0x13
 2492 005e 00       		.byte	0
 2493 005f 00       		.byte	0
 2494 0060 09       		.uleb128 0x9
 2495 0061 0D       		.uleb128 0xd
 2496 0062 00       		.byte	0
 2497 0063 03       		.uleb128 0x3
 2498 0064 0E       		.uleb128 0xe
 2499 0065 3A       		.uleb128 0x3a
 2500 0066 0B       		.uleb128 0xb
 2501 0067 3B       		.uleb128 0x3b
 2502 0068 0B       		.uleb128 0xb
 2503 0069 49       		.uleb128 0x49
 2504 006a 13       		.uleb128 0x13
 2505 006b 38       		.uleb128 0x38
 2506 006c 0B       		.uleb128 0xb
 2507 006d 00       		.byte	0
 2508 006e 00       		.byte	0
 2509 006f 0A       		.uleb128 0xa
 2510 0070 01       		.uleb128 0x1
 2511 0071 01       		.byte	0x1
 2512 0072 49       		.uleb128 0x49
 2513 0073 13       		.uleb128 0x13
 2514 0074 01       		.uleb128 0x1
 2515 0075 13       		.uleb128 0x13
 2516 0076 00       		.byte	0
 2517 0077 00       		.byte	0
 2518 0078 0B       		.uleb128 0xb
 2519 0079 21       		.uleb128 0x21
ARM GAS  C:\Users\HYFI_A~1\AppData\Local\Temp\ccS9C0dA.s 			page 54


 2520 007a 00       		.byte	0
 2521 007b 49       		.uleb128 0x49
 2522 007c 13       		.uleb128 0x13
 2523 007d 2F       		.uleb128 0x2f
 2524 007e 0B       		.uleb128 0xb
 2525 007f 00       		.byte	0
 2526 0080 00       		.byte	0
 2527 0081 0C       		.uleb128 0xc
 2528 0082 13       		.uleb128 0x13
 2529 0083 01       		.byte	0x1
 2530 0084 0B       		.uleb128 0xb
 2531 0085 0B       		.uleb128 0xb
 2532 0086 3A       		.uleb128 0x3a
 2533 0087 0B       		.uleb128 0xb
 2534 0088 3B       		.uleb128 0x3b
 2535 0089 0B       		.uleb128 0xb
 2536 008a 01       		.uleb128 0x1
 2537 008b 13       		.uleb128 0x13
 2538 008c 00       		.byte	0
 2539 008d 00       		.byte	0
 2540 008e 0D       		.uleb128 0xd
 2541 008f 0D       		.uleb128 0xd
 2542 0090 00       		.byte	0
 2543 0091 03       		.uleb128 0x3
 2544 0092 08       		.uleb128 0x8
 2545 0093 3A       		.uleb128 0x3a
 2546 0094 0B       		.uleb128 0xb
 2547 0095 3B       		.uleb128 0x3b
 2548 0096 0B       		.uleb128 0xb
 2549 0097 49       		.uleb128 0x49
 2550 0098 13       		.uleb128 0x13
 2551 0099 38       		.uleb128 0x38
 2552 009a 0B       		.uleb128 0xb
 2553 009b 00       		.byte	0
 2554 009c 00       		.byte	0
 2555 009d 0E       		.uleb128 0xe
 2556 009e 2E       		.uleb128 0x2e
 2557 009f 00       		.byte	0
 2558 00a0 3F       		.uleb128 0x3f
 2559 00a1 19       		.uleb128 0x19
 2560 00a2 03       		.uleb128 0x3
 2561 00a3 0E       		.uleb128 0xe
 2562 00a4 3A       		.uleb128 0x3a
 2563 00a5 0B       		.uleb128 0xb
 2564 00a6 3B       		.uleb128 0x3b
 2565 00a7 0B       		.uleb128 0xb
 2566 00a8 27       		.uleb128 0x27
 2567 00a9 19       		.uleb128 0x19
 2568 00aa 11       		.uleb128 0x11
 2569 00ab 01       		.uleb128 0x1
 2570 00ac 12       		.uleb128 0x12
 2571 00ad 06       		.uleb128 0x6
 2572 00ae 40       		.uleb128 0x40
 2573 00af 18       		.uleb128 0x18
 2574 00b0 9642     		.uleb128 0x2116
 2575 00b2 19       		.uleb128 0x19
 2576 00b3 00       		.byte	0
ARM GAS  C:\Users\HYFI_A~1\AppData\Local\Temp\ccS9C0dA.s 			page 55


 2577 00b4 00       		.byte	0
 2578 00b5 0F       		.uleb128 0xf
 2579 00b6 2E       		.uleb128 0x2e
 2580 00b7 00       		.byte	0
 2581 00b8 3F       		.uleb128 0x3f
 2582 00b9 19       		.uleb128 0x19
 2583 00ba 03       		.uleb128 0x3
 2584 00bb 0E       		.uleb128 0xe
 2585 00bc 3A       		.uleb128 0x3a
 2586 00bd 0B       		.uleb128 0xb
 2587 00be 3B       		.uleb128 0x3b
 2588 00bf 0B       		.uleb128 0xb
 2589 00c0 11       		.uleb128 0x11
 2590 00c1 01       		.uleb128 0x1
 2591 00c2 12       		.uleb128 0x12
 2592 00c3 06       		.uleb128 0x6
 2593 00c4 40       		.uleb128 0x40
 2594 00c5 18       		.uleb128 0x18
 2595 00c6 9642     		.uleb128 0x2116
 2596 00c8 19       		.uleb128 0x19
 2597 00c9 00       		.byte	0
 2598 00ca 00       		.byte	0
 2599 00cb 10       		.uleb128 0x10
 2600 00cc 2E       		.uleb128 0x2e
 2601 00cd 01       		.byte	0x1
 2602 00ce 3F       		.uleb128 0x3f
 2603 00cf 19       		.uleb128 0x19
 2604 00d0 03       		.uleb128 0x3
 2605 00d1 0E       		.uleb128 0xe
 2606 00d2 3A       		.uleb128 0x3a
 2607 00d3 0B       		.uleb128 0xb
 2608 00d4 3B       		.uleb128 0x3b
 2609 00d5 0B       		.uleb128 0xb
 2610 00d6 49       		.uleb128 0x49
 2611 00d7 13       		.uleb128 0x13
 2612 00d8 11       		.uleb128 0x11
 2613 00d9 01       		.uleb128 0x1
 2614 00da 12       		.uleb128 0x12
 2615 00db 06       		.uleb128 0x6
 2616 00dc 40       		.uleb128 0x40
 2617 00dd 18       		.uleb128 0x18
 2618 00de 9642     		.uleb128 0x2116
 2619 00e0 19       		.uleb128 0x19
 2620 00e1 01       		.uleb128 0x1
 2621 00e2 13       		.uleb128 0x13
 2622 00e3 00       		.byte	0
 2623 00e4 00       		.byte	0
 2624 00e5 11       		.uleb128 0x11
 2625 00e6 34       		.uleb128 0x34
 2626 00e7 00       		.byte	0
 2627 00e8 03       		.uleb128 0x3
 2628 00e9 0E       		.uleb128 0xe
 2629 00ea 3A       		.uleb128 0x3a
 2630 00eb 0B       		.uleb128 0xb
 2631 00ec 3B       		.uleb128 0x3b
 2632 00ed 0B       		.uleb128 0xb
 2633 00ee 49       		.uleb128 0x49
ARM GAS  C:\Users\HYFI_A~1\AppData\Local\Temp\ccS9C0dA.s 			page 56


 2634 00ef 13       		.uleb128 0x13
 2635 00f0 02       		.uleb128 0x2
 2636 00f1 18       		.uleb128 0x18
 2637 00f2 00       		.byte	0
 2638 00f3 00       		.byte	0
 2639 00f4 12       		.uleb128 0x12
 2640 00f5 0B       		.uleb128 0xb
 2641 00f6 01       		.byte	0x1
 2642 00f7 11       		.uleb128 0x11
 2643 00f8 01       		.uleb128 0x1
 2644 00f9 12       		.uleb128 0x12
 2645 00fa 06       		.uleb128 0x6
 2646 00fb 00       		.byte	0
 2647 00fc 00       		.byte	0
 2648 00fd 13       		.uleb128 0x13
 2649 00fe 2E       		.uleb128 0x2e
 2650 00ff 01       		.byte	0x1
 2651 0100 3F       		.uleb128 0x3f
 2652 0101 19       		.uleb128 0x19
 2653 0102 03       		.uleb128 0x3
 2654 0103 0E       		.uleb128 0xe
 2655 0104 3A       		.uleb128 0x3a
 2656 0105 0B       		.uleb128 0xb
 2657 0106 3B       		.uleb128 0x3b
 2658 0107 0B       		.uleb128 0xb
 2659 0108 27       		.uleb128 0x27
 2660 0109 19       		.uleb128 0x19
 2661 010a 49       		.uleb128 0x49
 2662 010b 13       		.uleb128 0x13
 2663 010c 11       		.uleb128 0x11
 2664 010d 01       		.uleb128 0x1
 2665 010e 12       		.uleb128 0x12
 2666 010f 06       		.uleb128 0x6
 2667 0110 40       		.uleb128 0x40
 2668 0111 18       		.uleb128 0x18
 2669 0112 9642     		.uleb128 0x2116
 2670 0114 19       		.uleb128 0x19
 2671 0115 01       		.uleb128 0x1
 2672 0116 13       		.uleb128 0x13
 2673 0117 00       		.byte	0
 2674 0118 00       		.byte	0
 2675 0119 14       		.uleb128 0x14
 2676 011a 05       		.uleb128 0x5
 2677 011b 00       		.byte	0
 2678 011c 03       		.uleb128 0x3
 2679 011d 0E       		.uleb128 0xe
 2680 011e 3A       		.uleb128 0x3a
 2681 011f 0B       		.uleb128 0xb
 2682 0120 3B       		.uleb128 0x3b
 2683 0121 0B       		.uleb128 0xb
 2684 0122 49       		.uleb128 0x49
 2685 0123 13       		.uleb128 0x13
 2686 0124 02       		.uleb128 0x2
 2687 0125 18       		.uleb128 0x18
 2688 0126 00       		.byte	0
 2689 0127 00       		.byte	0
 2690 0128 15       		.uleb128 0x15
ARM GAS  C:\Users\HYFI_A~1\AppData\Local\Temp\ccS9C0dA.s 			page 57


 2691 0129 34       		.uleb128 0x34
 2692 012a 00       		.byte	0
 2693 012b 03       		.uleb128 0x3
 2694 012c 08       		.uleb128 0x8
 2695 012d 3A       		.uleb128 0x3a
 2696 012e 0B       		.uleb128 0xb
 2697 012f 3B       		.uleb128 0x3b
 2698 0130 0B       		.uleb128 0xb
 2699 0131 49       		.uleb128 0x49
 2700 0132 13       		.uleb128 0x13
 2701 0133 02       		.uleb128 0x2
 2702 0134 18       		.uleb128 0x18
 2703 0135 00       		.byte	0
 2704 0136 00       		.byte	0
 2705 0137 16       		.uleb128 0x16
 2706 0138 2E       		.uleb128 0x2e
 2707 0139 00       		.byte	0
 2708 013a 3F       		.uleb128 0x3f
 2709 013b 19       		.uleb128 0x19
 2710 013c 03       		.uleb128 0x3
 2711 013d 0E       		.uleb128 0xe
 2712 013e 3A       		.uleb128 0x3a
 2713 013f 0B       		.uleb128 0xb
 2714 0140 3B       		.uleb128 0x3b
 2715 0141 0B       		.uleb128 0xb
 2716 0142 49       		.uleb128 0x49
 2717 0143 13       		.uleb128 0x13
 2718 0144 11       		.uleb128 0x11
 2719 0145 01       		.uleb128 0x1
 2720 0146 12       		.uleb128 0x12
 2721 0147 06       		.uleb128 0x6
 2722 0148 40       		.uleb128 0x40
 2723 0149 18       		.uleb128 0x18
 2724 014a 9642     		.uleb128 0x2116
 2725 014c 19       		.uleb128 0x19
 2726 014d 00       		.byte	0
 2727 014e 00       		.byte	0
 2728 014f 17       		.uleb128 0x17
 2729 0150 2E       		.uleb128 0x2e
 2730 0151 01       		.byte	0x1
 2731 0152 3F       		.uleb128 0x3f
 2732 0153 19       		.uleb128 0x19
 2733 0154 03       		.uleb128 0x3
 2734 0155 0E       		.uleb128 0xe
 2735 0156 3A       		.uleb128 0x3a
 2736 0157 0B       		.uleb128 0xb
 2737 0158 3B       		.uleb128 0x3b
 2738 0159 05       		.uleb128 0x5
 2739 015a 49       		.uleb128 0x49
 2740 015b 13       		.uleb128 0x13
 2741 015c 11       		.uleb128 0x11
 2742 015d 01       		.uleb128 0x1
 2743 015e 12       		.uleb128 0x12
 2744 015f 06       		.uleb128 0x6
 2745 0160 40       		.uleb128 0x40
 2746 0161 18       		.uleb128 0x18
 2747 0162 9642     		.uleb128 0x2116
ARM GAS  C:\Users\HYFI_A~1\AppData\Local\Temp\ccS9C0dA.s 			page 58


 2748 0164 19       		.uleb128 0x19
 2749 0165 01       		.uleb128 0x1
 2750 0166 13       		.uleb128 0x13
 2751 0167 00       		.byte	0
 2752 0168 00       		.byte	0
 2753 0169 18       		.uleb128 0x18
 2754 016a 34       		.uleb128 0x34
 2755 016b 00       		.byte	0
 2756 016c 03       		.uleb128 0x3
 2757 016d 0E       		.uleb128 0xe
 2758 016e 3A       		.uleb128 0x3a
 2759 016f 0B       		.uleb128 0xb
 2760 0170 3B       		.uleb128 0x3b
 2761 0171 05       		.uleb128 0x5
 2762 0172 49       		.uleb128 0x49
 2763 0173 13       		.uleb128 0x13
 2764 0174 02       		.uleb128 0x2
 2765 0175 18       		.uleb128 0x18
 2766 0176 00       		.byte	0
 2767 0177 00       		.byte	0
 2768 0178 19       		.uleb128 0x19
 2769 0179 2E       		.uleb128 0x2e
 2770 017a 00       		.byte	0
 2771 017b 3F       		.uleb128 0x3f
 2772 017c 19       		.uleb128 0x19
 2773 017d 03       		.uleb128 0x3
 2774 017e 0E       		.uleb128 0xe
 2775 017f 3A       		.uleb128 0x3a
 2776 0180 0B       		.uleb128 0xb
 2777 0181 3B       		.uleb128 0x3b
 2778 0182 05       		.uleb128 0x5
 2779 0183 11       		.uleb128 0x11
 2780 0184 01       		.uleb128 0x1
 2781 0185 12       		.uleb128 0x12
 2782 0186 06       		.uleb128 0x6
 2783 0187 40       		.uleb128 0x40
 2784 0188 18       		.uleb128 0x18
 2785 0189 9642     		.uleb128 0x2116
 2786 018b 19       		.uleb128 0x19
 2787 018c 00       		.byte	0
 2788 018d 00       		.byte	0
 2789 018e 1A       		.uleb128 0x1a
 2790 018f 2E       		.uleb128 0x2e
 2791 0190 00       		.byte	0
 2792 0191 3F       		.uleb128 0x3f
 2793 0192 19       		.uleb128 0x19
 2794 0193 03       		.uleb128 0x3
 2795 0194 0E       		.uleb128 0xe
 2796 0195 3A       		.uleb128 0x3a
 2797 0196 0B       		.uleb128 0xb
 2798 0197 3B       		.uleb128 0x3b
 2799 0198 05       		.uleb128 0x5
 2800 0199 49       		.uleb128 0x49
 2801 019a 13       		.uleb128 0x13
 2802 019b 11       		.uleb128 0x11
 2803 019c 01       		.uleb128 0x1
 2804 019d 12       		.uleb128 0x12
ARM GAS  C:\Users\HYFI_A~1\AppData\Local\Temp\ccS9C0dA.s 			page 59


 2805 019e 06       		.uleb128 0x6
 2806 019f 40       		.uleb128 0x40
 2807 01a0 18       		.uleb128 0x18
 2808 01a1 9642     		.uleb128 0x2116
 2809 01a3 19       		.uleb128 0x19
 2810 01a4 00       		.byte	0
 2811 01a5 00       		.byte	0
 2812 01a6 1B       		.uleb128 0x1b
 2813 01a7 2E       		.uleb128 0x2e
 2814 01a8 01       		.byte	0x1
 2815 01a9 3F       		.uleb128 0x3f
 2816 01aa 19       		.uleb128 0x19
 2817 01ab 03       		.uleb128 0x3
 2818 01ac 0E       		.uleb128 0xe
 2819 01ad 3A       		.uleb128 0x3a
 2820 01ae 0B       		.uleb128 0xb
 2821 01af 3B       		.uleb128 0x3b
 2822 01b0 05       		.uleb128 0x5
 2823 01b1 11       		.uleb128 0x11
 2824 01b2 01       		.uleb128 0x1
 2825 01b3 12       		.uleb128 0x12
 2826 01b4 06       		.uleb128 0x6
 2827 01b5 40       		.uleb128 0x40
 2828 01b6 18       		.uleb128 0x18
 2829 01b7 9642     		.uleb128 0x2116
 2830 01b9 19       		.uleb128 0x19
 2831 01ba 01       		.uleb128 0x1
 2832 01bb 13       		.uleb128 0x13
 2833 01bc 00       		.byte	0
 2834 01bd 00       		.byte	0
 2835 01be 1C       		.uleb128 0x1c
 2836 01bf 34       		.uleb128 0x34
 2837 01c0 00       		.byte	0
 2838 01c1 03       		.uleb128 0x3
 2839 01c2 08       		.uleb128 0x8
 2840 01c3 3A       		.uleb128 0x3a
 2841 01c4 0B       		.uleb128 0xb
 2842 01c5 3B       		.uleb128 0x3b
 2843 01c6 05       		.uleb128 0x5
 2844 01c7 49       		.uleb128 0x49
 2845 01c8 13       		.uleb128 0x13
 2846 01c9 02       		.uleb128 0x2
 2847 01ca 18       		.uleb128 0x18
 2848 01cb 00       		.byte	0
 2849 01cc 00       		.byte	0
 2850 01cd 1D       		.uleb128 0x1d
 2851 01ce 2E       		.uleb128 0x2e
 2852 01cf 00       		.byte	0
 2853 01d0 3F       		.uleb128 0x3f
 2854 01d1 19       		.uleb128 0x19
 2855 01d2 03       		.uleb128 0x3
 2856 01d3 0E       		.uleb128 0xe
 2857 01d4 3A       		.uleb128 0x3a
 2858 01d5 0B       		.uleb128 0xb
 2859 01d6 3B       		.uleb128 0x3b
 2860 01d7 05       		.uleb128 0x5
 2861 01d8 49       		.uleb128 0x49
ARM GAS  C:\Users\HYFI_A~1\AppData\Local\Temp\ccS9C0dA.s 			page 60


 2862 01d9 13       		.uleb128 0x13
 2863 01da 11       		.uleb128 0x11
 2864 01db 01       		.uleb128 0x1
 2865 01dc 12       		.uleb128 0x12
 2866 01dd 06       		.uleb128 0x6
 2867 01de 40       		.uleb128 0x40
 2868 01df 18       		.uleb128 0x18
 2869 01e0 9742     		.uleb128 0x2117
 2870 01e2 19       		.uleb128 0x19
 2871 01e3 00       		.byte	0
 2872 01e4 00       		.byte	0
 2873 01e5 1E       		.uleb128 0x1e
 2874 01e6 34       		.uleb128 0x34
 2875 01e7 00       		.byte	0
 2876 01e8 03       		.uleb128 0x3
 2877 01e9 0E       		.uleb128 0xe
 2878 01ea 3A       		.uleb128 0x3a
 2879 01eb 0B       		.uleb128 0xb
 2880 01ec 3B       		.uleb128 0x3b
 2881 01ed 05       		.uleb128 0x5
 2882 01ee 49       		.uleb128 0x49
 2883 01ef 13       		.uleb128 0x13
 2884 01f0 3F       		.uleb128 0x3f
 2885 01f1 19       		.uleb128 0x19
 2886 01f2 3C       		.uleb128 0x3c
 2887 01f3 19       		.uleb128 0x19
 2888 01f4 00       		.byte	0
 2889 01f5 00       		.byte	0
 2890 01f6 1F       		.uleb128 0x1f
 2891 01f7 35       		.uleb128 0x35
 2892 01f8 00       		.byte	0
 2893 01f9 49       		.uleb128 0x49
 2894 01fa 13       		.uleb128 0x13
 2895 01fb 00       		.byte	0
 2896 01fc 00       		.byte	0
 2897 01fd 20       		.uleb128 0x20
 2898 01fe 34       		.uleb128 0x34
 2899 01ff 00       		.byte	0
 2900 0200 03       		.uleb128 0x3
 2901 0201 0E       		.uleb128 0xe
 2902 0202 3A       		.uleb128 0x3a
 2903 0203 0B       		.uleb128 0xb
 2904 0204 3B       		.uleb128 0x3b
 2905 0205 0B       		.uleb128 0xb
 2906 0206 49       		.uleb128 0x49
 2907 0207 13       		.uleb128 0x13
 2908 0208 3F       		.uleb128 0x3f
 2909 0209 19       		.uleb128 0x19
 2910 020a 02       		.uleb128 0x2
 2911 020b 18       		.uleb128 0x18
 2912 020c 00       		.byte	0
 2913 020d 00       		.byte	0
 2914 020e 21       		.uleb128 0x21
 2915 020f 21       		.uleb128 0x21
 2916 0210 00       		.byte	0
 2917 0211 49       		.uleb128 0x49
 2918 0212 13       		.uleb128 0x13
ARM GAS  C:\Users\HYFI_A~1\AppData\Local\Temp\ccS9C0dA.s 			page 61


 2919 0213 2F       		.uleb128 0x2f
 2920 0214 05       		.uleb128 0x5
 2921 0215 00       		.byte	0
 2922 0216 00       		.byte	0
 2923 0217 00       		.byte	0
 2924              		.section	.debug_aranges,"",%progbits
 2925 0000 B4000000 		.4byte	0xb4
 2926 0004 0200     		.2byte	0x2
 2927 0006 00000000 		.4byte	.Ldebug_info0
 2928 000a 04       		.byte	0x4
 2929 000b 00       		.byte	0
 2930 000c 0000     		.2byte	0
 2931 000e 0000     		.2byte	0
 2932 0010 00000000 		.4byte	.LFB64
 2933 0014 3C000000 		.4byte	.LFE64-.LFB64
 2934 0018 00000000 		.4byte	.LFB65
 2935 001c 54000000 		.4byte	.LFE65-.LFB65
 2936 0020 00000000 		.4byte	.LFB66
 2937 0024 32000000 		.4byte	.LFE66-.LFB66
 2938 0028 00000000 		.4byte	.LFB67
 2939 002c 20000000 		.4byte	.LFE67-.LFB67
 2940 0030 00000000 		.4byte	.LFB68
 2941 0034 40000000 		.4byte	.LFE68-.LFB68
 2942 0038 00000000 		.4byte	.LFB69
 2943 003c A0000000 		.4byte	.LFE69-.LFB69
 2944 0040 00000000 		.4byte	.LFB70
 2945 0044 1C000000 		.4byte	.LFE70-.LFB70
 2946 0048 00000000 		.4byte	.LFB71
 2947 004c 28000000 		.4byte	.LFE71-.LFB71
 2948 0050 00000000 		.4byte	.LFB72
 2949 0054 B8000000 		.4byte	.LFE72-.LFB72
 2950 0058 00000000 		.4byte	.LFB73
 2951 005c 34000000 		.4byte	.LFE73-.LFB73
 2952 0060 00000000 		.4byte	.LFB74
 2953 0064 78000000 		.4byte	.LFE74-.LFB74
 2954 0068 00000000 		.4byte	.LFB75
 2955 006c 08010000 		.4byte	.LFE75-.LFB75
 2956 0070 00000000 		.4byte	.LFB76
 2957 0074 64000000 		.4byte	.LFE76-.LFB76
 2958 0078 00000000 		.4byte	.LFB77
 2959 007c 1C000000 		.4byte	.LFE77-.LFB77
 2960 0080 00000000 		.4byte	.LFB78
 2961 0084 28000000 		.4byte	.LFE78-.LFB78
 2962 0088 00000000 		.4byte	.LFB79
 2963 008c B4000000 		.4byte	.LFE79-.LFB79
 2964 0090 00000000 		.4byte	.LFB80
 2965 0094 38010000 		.4byte	.LFE80-.LFB80
 2966 0098 00000000 		.4byte	.LFB81
 2967 009c 14000000 		.4byte	.LFE81-.LFB81
 2968 00a0 00000000 		.4byte	.LFB82
 2969 00a4 16000000 		.4byte	.LFE82-.LFB82
 2970 00a8 00000000 		.4byte	.LFB83
 2971 00ac 32000000 		.4byte	.LFE83-.LFB83
 2972 00b0 00000000 		.4byte	0
 2973 00b4 00000000 		.4byte	0
 2974              		.section	.debug_ranges,"",%progbits
 2975              	.Ldebug_ranges0:
ARM GAS  C:\Users\HYFI_A~1\AppData\Local\Temp\ccS9C0dA.s 			page 62


 2976 0000 00000000 		.4byte	.LFB64
 2977 0004 3C000000 		.4byte	.LFE64
 2978 0008 00000000 		.4byte	.LFB65
 2979 000c 54000000 		.4byte	.LFE65
 2980 0010 00000000 		.4byte	.LFB66
 2981 0014 32000000 		.4byte	.LFE66
 2982 0018 00000000 		.4byte	.LFB67
 2983 001c 20000000 		.4byte	.LFE67
 2984 0020 00000000 		.4byte	.LFB68
 2985 0024 40000000 		.4byte	.LFE68
 2986 0028 00000000 		.4byte	.LFB69
 2987 002c A0000000 		.4byte	.LFE69
 2988 0030 00000000 		.4byte	.LFB70
 2989 0034 1C000000 		.4byte	.LFE70
 2990 0038 00000000 		.4byte	.LFB71
 2991 003c 28000000 		.4byte	.LFE71
 2992 0040 00000000 		.4byte	.LFB72
 2993 0044 B8000000 		.4byte	.LFE72
 2994 0048 00000000 		.4byte	.LFB73
 2995 004c 34000000 		.4byte	.LFE73
 2996 0050 00000000 		.4byte	.LFB74
 2997 0054 78000000 		.4byte	.LFE74
 2998 0058 00000000 		.4byte	.LFB75
 2999 005c 08010000 		.4byte	.LFE75
 3000 0060 00000000 		.4byte	.LFB76
 3001 0064 64000000 		.4byte	.LFE76
 3002 0068 00000000 		.4byte	.LFB77
 3003 006c 1C000000 		.4byte	.LFE77
 3004 0070 00000000 		.4byte	.LFB78
 3005 0074 28000000 		.4byte	.LFE78
 3006 0078 00000000 		.4byte	.LFB79
 3007 007c B4000000 		.4byte	.LFE79
 3008 0080 00000000 		.4byte	.LFB80
 3009 0084 38010000 		.4byte	.LFE80
 3010 0088 00000000 		.4byte	.LFB81
 3011 008c 14000000 		.4byte	.LFE81
 3012 0090 00000000 		.4byte	.LFB82
 3013 0094 16000000 		.4byte	.LFE82
 3014 0098 00000000 		.4byte	.LFB83
 3015 009c 32000000 		.4byte	.LFE83
 3016 00a0 00000000 		.4byte	0
 3017 00a4 00000000 		.4byte	0
 3018              		.section	.debug_line,"",%progbits
 3019              	.Ldebug_line0:
 3020 0000 BA030000 		.section	.debug_str,"MS",%progbits,1
 3020      02007A01 
 3020      00000201 
 3020      FB0E0D00 
 3020      01010101 
 3021              	.LASF76:
 3022 0000 6D6F6465 		.ascii	"modem_wakeup\000"
 3022      6D5F7761 
 3022      6B657570 
 3022      00
 3023              	.LASF29:
 3024 000d 6D6F6465 		.ascii	"model_id\000"
 3024      6C5F6964 
ARM GAS  C:\Users\HYFI_A~1\AppData\Local\Temp\ccS9C0dA.s 			page 63


 3024      00
 3025              	.LASF75:
 3026 0016 6D6F6465 		.ascii	"modem_sleep\000"
 3026      6D5F736C 
 3026      65657000 
 3027              	.LASF28:
 3028 0022 73696D5F 		.ascii	"sim_id\000"
 3028      696400
 3029              	.LASF42:
 3030 0029 6D6F6465 		.ascii	"modem_power_down\000"
 3030      6D5F706F 
 3030      7765725F 
 3030      646F776E 
 3030      00
 3031              	.LASF86:
 3032 003a 75617274 		.ascii	"uart_string_index\000"
 3032      5F737472 
 3032      696E675F 
 3032      696E6465 
 3032      7800
 3033              	.LASF84:
 3034 004c 64617461 		.ascii	"data\000"
 3034      00
 3035              	.LASF68:
 3036 0051 69735F63 		.ascii	"is_connected_to_internet\000"
 3036      6F6E6E65 
 3036      63746564 
 3036      5F746F5F 
 3036      696E7465 
 3037              	.LASF41:
 3038 006a 70696E73 		.ascii	"pins_configure_active\000"
 3038      5F636F6E 
 3038      66696775 
 3038      72655F61 
 3038      63746976 
 3039              	.LASF2:
 3040 0080 73686F72 		.ascii	"short int\000"
 3040      7420696E 
 3040      7400
 3041              	.LASF37:
 3042 008a 74696D65 		.ascii	"timeStamp\000"
 3042      5374616D 
 3042      7000
 3043              	.LASF23:
 3044 0094 73697A65 		.ascii	"sizetype\000"
 3044      74797065 
 3044      00
 3045              	.LASF45:
 3046 009d 6D6F6465 		.ascii	"modem_soft_power_cycle\000"
 3046      6D5F736F 
 3046      66745F70 
 3046      6F776572 
 3046      5F637963 
 3047              	.LASF46:
 3048 00b4 75617274 		.ascii	"uart_string_reset\000"
 3048      5F737472 
 3048      696E675F 
ARM GAS  C:\Users\HYFI_A~1\AppData\Local\Temp\ccS9C0dA.s 			page 64


 3048      72657365 
 3048      7400
 3049              	.LASF87:
 3050 00c6 474E5520 		.ascii	"GNU C11 5.4.1 20160609 (release) [ARM/embedded-5-br"
 3050      43313120 
 3050      352E342E 
 3050      31203230 
 3050      31363036 
 3051 00f9 616E6368 		.ascii	"anch revision 237715] -mcpu=cortex-m3 -mthumb -g -O"
 3051      20726576 
 3051      6973696F 
 3051      6E203233 
 3051      37373135 
 3052 012c 30202D66 		.ascii	"0 -ffunction-sections -ffat-lto-objects\000"
 3052      66756E63 
 3052      74696F6E 
 3052      2D736563 
 3052      74696F6E 
 3053              	.LASF7:
 3054 0154 5F5F7569 		.ascii	"__uint32_t\000"
 3054      6E743332 
 3054      5F7400
 3055              	.LASF52:
 3056 015f 64656C61 		.ascii	"delay\000"
 3056      7900
 3057              	.LASF88:
 3058 0165 6D6F6465 		.ascii	"modem.c\000"
 3058      6D2E6300 
 3059              	.LASF36:
 3060 016d 76616C75 		.ascii	"value\000"
 3060      6500
 3061              	.LASF16:
 3062 0173 75696E74 		.ascii	"uint16\000"
 3062      313600
 3063              	.LASF54:
 3064 017a 6D6F6465 		.ascii	"modem_power_up\000"
 3064      6D5F706F 
 3064      7765725F 
 3064      757000
 3065              	.LASF12:
 3066 0189 75696E74 		.ascii	"uint8_t\000"
 3066      385F7400 
 3067              	.LASF83:
 3068 0191 64617461 		.ascii	"dataPointsInStack\000"
 3068      506F696E 
 3068      7473496E 
 3068      53746163 
 3068      6B00
 3069              	.LASF47:
 3070 01a3 636F6D6D 		.ascii	"commands\000"
 3070      616E6473 
 3070      00
 3071              	.LASF51:
 3072 01ac 636F6D70 		.ascii	"compare_location\000"
 3072      6172655F 
 3072      6C6F6361 
 3072      74696F6E 
ARM GAS  C:\Users\HYFI_A~1\AppData\Local\Temp\ccS9C0dA.s 			page 65


 3072      00
 3073              	.LASF39:
 3074 01bd 6D6F6465 		.ascii	"modem_intilize\000"
 3074      6D5F696E 
 3074      74696C69 
 3074      7A6500
 3075              	.LASF19:
 3076 01cc 666C6F61 		.ascii	"float\000"
 3076      7400
 3077              	.LASF18:
 3078 01d2 696E7433 		.ascii	"int32\000"
 3078      3200
 3079              	.LASF9:
 3080 01d8 6C6F6E67 		.ascii	"long long int\000"
 3080      206C6F6E 
 3080      6720696E 
 3080      7400
 3081              	.LASF21:
 3082 01e6 63686172 		.ascii	"char\000"
 3082      00
 3083              	.LASF31:
 3084 01eb 6D6F6465 		.ascii	"modem_info_t\000"
 3084      6D5F696E 
 3084      666F5F74 
 3084      00
 3085              	.LASF26:
 3086 01f8 72656173 		.ascii	"reason\000"
 3086      6F6E00
 3087              	.LASF6:
 3088 01ff 6C6F6E67 		.ascii	"long int\000"
 3088      20696E74 
 3088      00
 3089              	.LASF61:
 3090 0208 656E644D 		.ascii	"endMarker\000"
 3090      61726B65 
 3090      7200
 3091              	.LASF80:
 3092 0212 6D6F6465 		.ascii	"modem_info\000"
 3092      6D5F696E 
 3092      666F00
 3093              	.LASF74:
 3094 021d 6D6F6465 		.ascii	"modem_get_state\000"
 3094      6D5F6765 
 3094      745F7374 
 3094      61746500 
 3095              	.LASF4:
 3096 022d 5F5F7569 		.ascii	"__uint8_t\000"
 3096      6E74385F 
 3096      7400
 3097              	.LASF57:
 3098 0237 61745F77 		.ascii	"at_write_command\000"
 3098      72697465 
 3098      5F636F6D 
 3098      6D616E64 
 3098      00
 3099              	.LASF85:
 3100 0248 75617274 		.ascii	"uart_received_string\000"
ARM GAS  C:\Users\HYFI_A~1\AppData\Local\Temp\ccS9C0dA.s 			page 66


 3100      5F726563 
 3100      65697665 
 3100      645F7374 
 3100      72696E67 
 3101              	.LASF32:
 3102 025d 72737369 		.ascii	"rssi\000"
 3102      00
 3103              	.LASF44:
 3104 0262 61747465 		.ascii	"attemps\000"
 3104      6D707300 
 3105              	.LASF65:
 3106 026a 69735F63 		.ascii	"is_connected_to_cell_network\000"
 3106      6F6E6E65 
 3106      63746564 
 3106      5F746F5F 
 3106      63656C6C 
 3107              	.LASF22:
 3108 0287 6C6F6E67 		.ascii	"long double\000"
 3108      20646F75 
 3108      626C6500 
 3109              	.LASF1:
 3110 0293 756E7369 		.ascii	"unsigned char\000"
 3110      676E6564 
 3110      20636861 
 3110      7200
 3111              	.LASF71:
 3112 02a1 6765745F 		.ascii	"get_cell_network_stats\000"
 3112      63656C6C 
 3112      5F6E6574 
 3112      776F726B 
 3112      5F737461 
 3113              	.LASF66:
 3114 02b8 63726567 		.ascii	"creg\000"
 3114      00
 3115              	.LASF78:
 3116 02bd 6D6F6465 		.ascii	"modem_state\000"
 3116      6D5F7374 
 3116      61746500 
 3117              	.LASF0:
 3118 02c9 7369676E 		.ascii	"signed char\000"
 3118      65642063 
 3118      68617200 
 3119              	.LASF10:
 3120 02d5 6C6F6E67 		.ascii	"long long unsigned int\000"
 3120      206C6F6E 
 3120      6720756E 
 3120      7369676E 
 3120      65642069 
 3121              	.LASF14:
 3122 02ec 75696E74 		.ascii	"uint32_t\000"
 3122      33325F74 
 3122      00
 3123              	.LASF11:
 3124 02f5 756E7369 		.ascii	"unsigned int\000"
 3124      676E6564 
 3124      20696E74 
 3124      00
ARM GAS  C:\Users\HYFI_A~1\AppData\Local\Temp\ccS9C0dA.s 			page 67


 3125              	.LASF38:
 3126 0302 6B65795F 		.ascii	"key_value_t\000"
 3126      76616C75 
 3126      655F7400 
 3127              	.LASF82:
 3128 030e 64656275 		.ascii	"debug_string\000"
 3128      675F7374 
 3128      72696E67 
 3128      00
 3129              	.LASF81:
 3130 031b 6D6F6465 		.ascii	"modem_stats\000"
 3130      6D5F7374 
 3130      61747300 
 3131              	.LASF3:
 3132 0327 73686F72 		.ascii	"short unsigned int\000"
 3132      7420756E 
 3132      7369676E 
 3132      65642069 
 3132      6E7400
 3133              	.LASF33:
 3134 033a 74696D65 		.ascii	"time_to_network_connect\000"
 3134      5F746F5F 
 3134      6E657477 
 3134      6F726B5F 
 3134      636F6E6E 
 3135              	.LASF25:
 3136 0352 73746174 		.ascii	"status\000"
 3136      757300
 3137              	.LASF34:
 3138 0359 74696D65 		.ascii	"time_to_acquire_ip\000"
 3138      5F746F5F 
 3138      61637175 
 3138      6972655F 
 3138      697000
 3139              	.LASF27:
 3140 036c 74657374 		.ascii	"test_t\000"
 3140      5F7400
 3141              	.LASF30:
 3142 0373 696D6569 		.ascii	"imei\000"
 3142      00
 3143              	.LASF13:
 3144 0378 696E7433 		.ascii	"int32_t\000"
 3144      325F7400 
 3145              	.LASF62:
 3146 0380 74617267 		.ascii	"target\000"
 3146      657400
 3147              	.LASF79:
 3148 0387 6D6F6465 		.ascii	"modem_start_time_stamp\000"
 3148      6D5F7374 
 3148      6172745F 
 3148      74696D65 
 3148      5F737461 
 3149              	.LASF35:
 3150 039e 6D6F6465 		.ascii	"modem_stats_t\000"
 3150      6D5F7374 
 3150      6174735F 
 3150      7400
ARM GAS  C:\Users\HYFI_A~1\AppData\Local\Temp\ccS9C0dA.s 			page 68


 3151              	.LASF15:
 3152 03ac 75696E74 		.ascii	"uint8\000"
 3152      3800
 3153              	.LASF24:
 3154 03b2 74657374 		.ascii	"test_name\000"
 3154      5F6E616D 
 3154      6500
 3155              	.LASF63:
 3156 03bc 6973725F 		.ascii	"isr_telit_rx\000"
 3156      74656C69 
 3156      745F7278 
 3156      00
 3157              	.LASF56:
 3158 03c9 74657374 		.ascii	"test\000"
 3158      00
 3159              	.LASF49:
 3160 03ce 74696D65 		.ascii	"timeout\000"
 3160      6F757400 
 3161              	.LASF17:
 3162 03d6 75696E74 		.ascii	"uint32\000"
 3162      333200
 3163              	.LASF8:
 3164 03dd 6C6F6E67 		.ascii	"long unsigned int\000"
 3164      20756E73 
 3164      69676E65 
 3164      6420696E 
 3164      7400
 3165              	.LASF55:
 3166 03ef 6D6F6465 		.ascii	"modem_test\000"
 3166      6D5F7465 
 3166      737400
 3167              	.LASF20:
 3168 03fa 646F7562 		.ascii	"double\000"
 3168      6C6500
 3169              	.LASF60:
 3170 0401 62656769 		.ascii	"beginMarker\000"
 3170      6E4D6172 
 3170      6B657200 
 3171              	.LASF53:
 3172 040d 696E7465 		.ascii	"interval\000"
 3172      7276616C 
 3172      00
 3173              	.LASF69:
 3174 0416 61747465 		.ascii	"attempts\000"
 3174      6D707473 
 3174      00
 3175              	.LASF5:
 3176 041f 5F5F696E 		.ascii	"__int32_t\000"
 3176      7433325F 
 3176      7400
 3177              	.LASF58:
 3178 0429 65787472 		.ascii	"extract_string\000"
 3178      6163745F 
 3178      73747269 
 3178      6E6700
 3179              	.LASF70:
 3180 0438 746F6B65 		.ascii	"token\000"
ARM GAS  C:\Users\HYFI_A~1\AppData\Local\Temp\ccS9C0dA.s 			page 69


 3180      6E00
 3181              	.LASF48:
 3182 043e 65787065 		.ascii	"expected_response\000"
 3182      63746564 
 3182      5F726573 
 3182      706F6E73 
 3182      6500
 3183              	.LASF43:
 3184 0450 61745F72 		.ascii	"at_ready\000"
 3184      65616479 
 3184      00
 3185              	.LASF72:
 3186 0459 6D6F6465 		.ascii	"modem_configure_settings\000"
 3186      6D5F636F 
 3186      6E666967 
 3186      7572655F 
 3186      73657474 
 3187              	.LASF77:
 3188 0472 49544D5F 		.ascii	"ITM_RxBuffer\000"
 3188      52784275 
 3188      66666572 
 3188      00
 3189              	.LASF73:
 3190 047f 4346554E 		.ascii	"CFUN\000"
 3190      00
 3191              	.LASF50:
 3192 0484 61745F61 		.ascii	"at_attempt\000"
 3192      7474656D 
 3192      707400
 3193              	.LASF67:
 3194 048f 7365745F 		.ascii	"set_up_internet_connection\000"
 3194      75705F69 
 3194      6E746572 
 3194      6E65745F 
 3194      636F6E6E 
 3195              	.LASF40:
 3196 04aa 70696E73 		.ascii	"pins_configure_inactive\000"
 3196      5F636F6E 
 3196      66696775 
 3196      72655F69 
 3196      6E616374 
 3197              	.LASF89:
 3198 04c2 433A5C55 		.ascii	"C:\\Users\\hyfi_admin\\Documents\\GitHub\\notoriOS\\"
 3198      73657273 
 3198      5C687966 
 3198      695F6164 
 3198      6D696E5C 
 3199 04f0 6E6F746F 		.ascii	"notoriOS\\notoriOS.cydsn\000"
 3199      72694F53 
 3199      5C6E6F74 
 3199      6F72694F 
 3199      532E6379 
 3200              	.LASF59:
 3201 0508 66726F6D 		.ascii	"from\000"
 3201      00
 3202              	.LASF64:
 3203 050d 6D6F6465 		.ascii	"modem_process_tasks\000"
ARM GAS  C:\Users\HYFI_A~1\AppData\Local\Temp\ccS9C0dA.s 			page 70


 3203      6D5F7072 
 3203      6F636573 
 3203      735F7461 
 3203      736B7300 
 3204              		.ident	"GCC: (GNU Tools for ARM Embedded Processors) 5.4.1 20160609 (release) [ARM/embedded-5-bran
