ARM GAS  C:\Users\bk\AppData\Local\Temp\ccw7zFaL.s 			page 1


   1              		.syntax unified
   2              		.cpu cortex-m3
   3              		.fpu softvfp
   4              		.eabi_attribute 20, 1
   5              		.eabi_attribute 21, 1
   6              		.eabi_attribute 23, 3
   7              		.eabi_attribute 24, 1
   8              		.eabi_attribute 25, 1
   9              		.eabi_attribute 26, 1
  10              		.eabi_attribute 30, 6
  11              		.eabi_attribute 34, 1
  12              		.eabi_attribute 18, 4
  13              		.thumb
  14              		.syntax unified
  15              		.file	"modem.c"
  16              		.text
  17              	.Ltext0:
  18              		.cfi_sections	.debug_frame
  19              		.comm	modem_state,1,1
  20              		.comm	modem_time_stamp,4,4
  21              		.comm	modem_info,60,4
  22              		.comm	modem_stats,12,4
  23              		.comm	debug_string,100,4
  24              		.syntax unified
  25              		.global _printf_float
  26              		.thumb
  27              		.syntax unified
  28              		.comm	uart_received_string,1024,4
  29              		.global	uart_string_index
  30              		.bss
  31              		.type	uart_string_index, %object
  32              		.size	uart_string_index, 1
  33              	uart_string_index:
  34 0000 00       		.space	1
  35              		.section	.text.isr_telit_rx,"ax",%progbits
  36              		.align	2
  37              		.global	isr_telit_rx
  38              		.thumb
  39              		.thumb_func
  40              		.type	isr_telit_rx, %function
  41              	isr_telit_rx:
  42              	.LFB64:
  43              		.file 1 "modem.c"
   1:modem.c       **** //Methods for Telit modem 
   2:modem.c       **** #include "modem.h"
   3:modem.c       **** #include "notoriOS.h"
   4:modem.c       **** #include "debug.h"
   5:modem.c       **** 
   6:modem.c       **** char uart_received_string[1024];
   7:modem.c       **** uint8_t uart_string_index=0;
   8:modem.c       **** 
   9:modem.c       **** #define DEFAULT_AT_TIMEOUT 2000u
  10:modem.c       **** #define NO_AT_TIMEOUT 0u
  11:modem.c       **** 
  12:modem.c       **** CY_ISR_PROTO(isr_telit_rx);
  13:modem.c       **** 
  14:modem.c       **** CY_ISR(isr_telit_rx){      
ARM GAS  C:\Users\bk\AppData\Local\Temp\ccw7zFaL.s 			page 2


  44              		.loc 1 14 0
  45              		.cfi_startproc
  46              		@ args = 0, pretend = 0, frame = 0
  47              		@ frame_needed = 1, uses_anonymous_args = 0
  48 0000 98B5     		push	{r3, r4, r7, lr}
  49              		.cfi_def_cfa_offset 16
  50              		.cfi_offset 3, -16
  51              		.cfi_offset 4, -12
  52              		.cfi_offset 7, -8
  53              		.cfi_offset 14, -4
  54 0002 00AF     		add	r7, sp, #0
  55              		.cfi_def_cfa_register 7
  15:modem.c       ****     while(UART_Telit_GetRxBufferSize()==1){
  56              		.loc 1 15 0
  57 0004 0EE0     		b	.L2
  58              	.L3:
  16:modem.c       ****         uart_received_string[uart_string_index]=UART_Telit_GetChar();
  59              		.loc 1 16 0
  60 0006 0B4B     		ldr	r3, .L4
  61 0008 1B78     		ldrb	r3, [r3]	@ zero_extendqisi2
  62 000a 1C46     		mov	r4, r3
  63 000c FFF7FEFF 		bl	UART_Telit_GetChar
  64 0010 0346     		mov	r3, r0
  65 0012 1A46     		mov	r2, r3
  66 0014 084B     		ldr	r3, .L4+4
  67 0016 1A55     		strb	r2, [r3, r4]
  17:modem.c       ****         uart_string_index++;
  68              		.loc 1 17 0
  69 0018 064B     		ldr	r3, .L4
  70 001a 1B78     		ldrb	r3, [r3]	@ zero_extendqisi2
  71 001c 0133     		adds	r3, r3, #1
  72 001e DAB2     		uxtb	r2, r3
  73 0020 044B     		ldr	r3, .L4
  74 0022 1A70     		strb	r2, [r3]
  75              	.L2:
  15:modem.c       ****     while(UART_Telit_GetRxBufferSize()==1){
  76              		.loc 1 15 0
  77 0024 FFF7FEFF 		bl	UART_Telit_GetRxBufferSize
  78 0028 0346     		mov	r3, r0
  79 002a 012B     		cmp	r3, #1
  80 002c EBD0     		beq	.L3
  18:modem.c       ****     }
  19:modem.c       **** 
  20:modem.c       **** }
  81              		.loc 1 20 0
  82 002e 00BF     		nop
  83 0030 98BD     		pop	{r3, r4, r7, pc}
  84              	.L5:
  85 0032 00BF     		.align	2
  86              	.L4:
  87 0034 00000000 		.word	uart_string_index
  88 0038 00000000 		.word	uart_received_string
  89              		.cfi_endproc
  90              	.LFE64:
  91              		.size	isr_telit_rx, .-isr_telit_rx
  92              		.section	.text.modem_intilize,"ax",%progbits
  93              		.align	2
ARM GAS  C:\Users\bk\AppData\Local\Temp\ccw7zFaL.s 			page 3


  94              		.global	modem_intilize
  95              		.thumb
  96              		.thumb_func
  97              		.type	modem_intilize, %function
  98              	modem_intilize:
  99              	.LFB65:
  21:modem.c       **** 
  22:modem.c       **** 
  23:modem.c       **** void modem_intilize(){
 100              		.loc 1 23 0
 101              		.cfi_startproc
 102              		@ args = 0, pretend = 0, frame = 0
 103              		@ frame_needed = 1, uses_anonymous_args = 0
 104 0000 80B5     		push	{r7, lr}
 105              		.cfi_def_cfa_offset 8
 106              		.cfi_offset 7, -8
 107              		.cfi_offset 14, -4
 108 0002 00AF     		add	r7, sp, #0
 109              		.cfi_def_cfa_register 7
  24:modem.c       ****     //don't do much except make sure that all the modem pins are pulled low
  25:modem.c       ****     //also make sure that the TX PIN is fully disabled
  26:modem.c       ****     pins_configure_inactive();
 110              		.loc 1 26 0
 111 0004 FFF7FEFF 		bl	pins_configure_inactive
  27:modem.c       ****     modem_state = 0;
 112              		.loc 1 27 0
 113 0008 0D4B     		ldr	r3, .L7
 114 000a 0022     		movs	r2, #0
 115 000c 1A70     		strb	r2, [r3]
  28:modem.c       ****     //initilize states
  29:modem.c       ****     modem_info.imei[0] = '\0';
 116              		.loc 1 29 0
 117 000e 0D4B     		ldr	r3, .L7+4
 118 0010 0022     		movs	r2, #0
 119 0012 83F82820 		strb	r2, [r3, #40]
  30:modem.c       ****     modem_info.model_id[0] = '\0';
 120              		.loc 1 30 0
 121 0016 0B4B     		ldr	r3, .L7+4
 122 0018 0022     		movs	r2, #0
 123 001a 1A75     		strb	r2, [r3, #20]
  31:modem.c       ****     modem_info.sim_id[0] = '\0';
 124              		.loc 1 31 0
 125 001c 094B     		ldr	r3, .L7+4
 126 001e 0022     		movs	r2, #0
 127 0020 1A70     		strb	r2, [r3]
  32:modem.c       ****     modem_stats.sq = 0;
 128              		.loc 1 32 0
 129 0022 094B     		ldr	r3, .L7+8
 130 0024 0022     		movs	r2, #0
 131 0026 5A70     		strb	r2, [r3, #1]
  33:modem.c       ****     modem_stats.rssi = 0;
 132              		.loc 1 33 0
 133 0028 074B     		ldr	r3, .L7+8
 134 002a 0022     		movs	r2, #0
 135 002c 1A70     		strb	r2, [r3]
  34:modem.c       ****     modem_stats.time_to_acquire_ip = 0;
 136              		.loc 1 34 0
ARM GAS  C:\Users\bk\AppData\Local\Temp\ccw7zFaL.s 			page 4


 137 002e 064B     		ldr	r3, .L7+8
 138 0030 0022     		movs	r2, #0
 139 0032 9A60     		str	r2, [r3, #8]
  35:modem.c       ****     modem_stats.time_to_network_connect = 0;
 140              		.loc 1 35 0
 141 0034 044B     		ldr	r3, .L7+8
 142 0036 0022     		movs	r2, #0
 143 0038 5A60     		str	r2, [r3, #4]
  36:modem.c       ****     
  37:modem.c       **** }
 144              		.loc 1 37 0
 145 003a 00BF     		nop
 146 003c 80BD     		pop	{r7, pc}
 147              	.L8:
 148 003e 00BF     		.align	2
 149              	.L7:
 150 0040 00000000 		.word	modem_state
 151 0044 00000000 		.word	modem_info
 152 0048 00000000 		.word	modem_stats
 153              		.cfi_endproc
 154              	.LFE65:
 155              		.size	modem_intilize, .-modem_intilize
 156              		.section	.text.pins_configure_inactive,"ax",%progbits
 157              		.align	2
 158              		.global	pins_configure_inactive
 159              		.thumb
 160              		.thumb_func
 161              		.type	pins_configure_inactive, %function
 162              	pins_configure_inactive:
 163              	.LFB66:
  38:modem.c       **** 
  39:modem.c       **** 
  40:modem.c       **** //to be used when the modem power is to be "killed" conpletely to conserve power
  41:modem.c       **** void pins_configure_inactive(){
 164              		.loc 1 41 0
 165              		.cfi_startproc
 166              		@ args = 0, pretend = 0, frame = 0
 167              		@ frame_needed = 1, uses_anonymous_args = 0
 168 0000 80B5     		push	{r7, lr}
 169              		.cfi_def_cfa_offset 8
 170              		.cfi_offset 7, -8
 171              		.cfi_offset 14, -4
 172 0002 00AF     		add	r7, sp, #0
 173              		.cfi_def_cfa_register 7
  42:modem.c       ****    
  43:modem.c       ****     //physically disconect UART pin
  44:modem.c       ****    Telit_ControlReg_Write(0u);
 174              		.loc 1 44 0
 175 0004 0020     		movs	r0, #0
 176 0006 FFF7FEFF 		bl	Telit_ControlReg_Write
  45:modem.c       ****    //set drive mode
  46:modem.c       ****    Rx_Telit_SetDriveMode(PIN_DM_STRONG);
 177              		.loc 1 46 0
 178 000a 0C20     		movs	r0, #12
 179 000c FFF7FEFF 		bl	Rx_Telit_SetDriveMode
  47:modem.c       **** 
  48:modem.c       ****    //kill power to modem
ARM GAS  C:\Users\bk\AppData\Local\Temp\ccw7zFaL.s 			page 5


  49:modem.c       ****    Pin_Telit_pwr_Write(OFF);
 180              		.loc 1 49 0
 181 0010 0020     		movs	r0, #0
 182 0012 FFF7FEFF 		bl	Pin_Telit_pwr_Write
  50:modem.c       **** 
  51:modem.c       ****    //pull down all of these, just in case
  52:modem.c       ****    Rx_Telit_Write(OFF); 
 183              		.loc 1 52 0
 184 0016 0020     		movs	r0, #0
 185 0018 FFF7FEFF 		bl	Rx_Telit_Write
  53:modem.c       ****    Tx_Telit_Write(OFF);
 186              		.loc 1 53 0
 187 001c 0020     		movs	r0, #0
 188 001e FFF7FEFF 		bl	Tx_Telit_Write
  54:modem.c       ****    Pin_Telit_ONOFF_Write(OFF);
 189              		.loc 1 54 0
 190 0022 0020     		movs	r0, #0
 191 0024 FFF7FEFF 		bl	Pin_Telit_ONOFF_Write
  55:modem.c       ****    Pin_Telit_SWRDY_Write(OFF);
 192              		.loc 1 55 0
 193 0028 0020     		movs	r0, #0
 194 002a FFF7FEFF 		bl	Pin_Telit_SWRDY_Write
  56:modem.c       ****     
  57:modem.c       **** }
 195              		.loc 1 57 0
 196 002e 00BF     		nop
 197 0030 80BD     		pop	{r7, pc}
 198              		.cfi_endproc
 199              	.LFE66:
 200              		.size	pins_configure_inactive, .-pins_configure_inactive
 201 0032 00BF     		.section	.text.pins_configure_active,"ax",%progbits
 202              		.align	2
 203              		.global	pins_configure_active
 204              		.thumb
 205              		.thumb_func
 206              		.type	pins_configure_active, %function
 207              	pins_configure_active:
 208              	.LFB67:
  58:modem.c       **** 
  59:modem.c       **** void pins_configure_active(){
 209              		.loc 1 59 0
 210              		.cfi_startproc
 211              		@ args = 0, pretend = 0, frame = 0
 212              		@ frame_needed = 1, uses_anonymous_args = 0
 213 0000 80B5     		push	{r7, lr}
 214              		.cfi_def_cfa_offset 8
 215              		.cfi_offset 7, -8
 216              		.cfi_offset 14, -4
 217 0002 00AF     		add	r7, sp, #0
 218              		.cfi_def_cfa_register 7
  60:modem.c       ****     //powerup
  61:modem.c       ****     Rx_Telit_SetDriveMode(PIN_DM_DIG_HIZ);
 219              		.loc 1 61 0
 220 0004 0220     		movs	r0, #2
 221 0006 FFF7FEFF 		bl	Rx_Telit_SetDriveMode
  62:modem.c       ****     Telit_ControlReg_Write(1u);
 222              		.loc 1 62 0
ARM GAS  C:\Users\bk\AppData\Local\Temp\ccw7zFaL.s 			page 6


 223 000a 0120     		movs	r0, #1
 224 000c FFF7FEFF 		bl	Telit_ControlReg_Write
  63:modem.c       ****     Pin_Telit_pwr_Write(ON);
 225              		.loc 1 63 0
 226 0010 0120     		movs	r0, #1
 227 0012 FFF7FEFF 		bl	Pin_Telit_pwr_Write
  64:modem.c       ****     CyDelay(100u);//give the MOSFET a few ms to stalbilise power 
 228              		.loc 1 64 0
 229 0016 6420     		movs	r0, #100
 230 0018 FFF7FEFF 		bl	CyDelay
  65:modem.c       **** }
 231              		.loc 1 65 0
 232 001c 00BF     		nop
 233 001e 80BD     		pop	{r7, pc}
 234              		.cfi_endproc
 235              	.LFE67:
 236              		.size	pins_configure_active, .-pins_configure_active
 237              		.section	.rodata
 238              		.align	2
 239              	.LC0:
 240 0000 4F4B00   		.ascii	"OK\000"
 241 0003 00       		.align	2
 242              	.LC1:
 243 0004 41542353 		.ascii	"AT#SHDN\015\000"
 243      48444E0D 
 243      00
 244              		.section	.text.modem_power_down,"ax",%progbits
 245              		.align	2
 246              		.global	modem_power_down
 247              		.thumb
 248              		.thumb_func
 249              		.type	modem_power_down, %function
 250              	modem_power_down:
 251              	.LFB68:
  66:modem.c       **** 
  67:modem.c       **** void modem_power_down(){
 252              		.loc 1 67 0
 253              		.cfi_startproc
 254              		@ args = 0, pretend = 0, frame = 0
 255              		@ frame_needed = 1, uses_anonymous_args = 0
 256 0000 80B5     		push	{r7, lr}
 257              		.cfi_def_cfa_offset 8
 258              		.cfi_offset 7, -8
 259              		.cfi_offset 14, -4
 260 0002 00AF     		add	r7, sp, #0
 261              		.cfi_def_cfa_register 7
  68:modem.c       ****     
  69:modem.c       ****    at_write_command("AT#SHDN\r","OK",5000u); 
 262              		.loc 1 69 0
 263 0004 41F28832 		movw	r2, #5000
 264 0008 0A49     		ldr	r1, .L12
 265 000a 0B48     		ldr	r0, .L12+4
 266 000c FFF7FEFF 		bl	at_write_command
  70:modem.c       ****     
  71:modem.c       ****    modem_soft_power_cycle();
 267              		.loc 1 71 0
 268 0010 FFF7FEFF 		bl	modem_soft_power_cycle
ARM GAS  C:\Users\bk\AppData\Local\Temp\ccw7zFaL.s 			page 7


  72:modem.c       ****    CyDelay(5000u);
 269              		.loc 1 72 0
 270 0014 41F28830 		movw	r0, #5000
 271 0018 FFF7FEFF 		bl	CyDelay
  73:modem.c       ****     
  74:modem.c       ****    UART_Telit_Stop();
 272              		.loc 1 74 0
 273 001c FFF7FEFF 		bl	UART_Telit_Stop
  75:modem.c       ****    isr_telit_rx_Stop();
 274              		.loc 1 75 0
 275 0020 FFF7FEFF 		bl	isr_telit_rx_Stop
  76:modem.c       ****    pins_configure_inactive();
 276              		.loc 1 76 0
 277 0024 FFF7FEFF 		bl	pins_configure_inactive
  77:modem.c       ****    modem_state = MODEM_STATE_OFF;
 278              		.loc 1 77 0
 279 0028 044B     		ldr	r3, .L12+8
 280 002a 0022     		movs	r2, #0
 281 002c 1A70     		strb	r2, [r3]
  78:modem.c       ****     
  79:modem.c       **** }
 282              		.loc 1 79 0
 283 002e 00BF     		nop
 284 0030 80BD     		pop	{r7, pc}
 285              	.L13:
 286 0032 00BF     		.align	2
 287              	.L12:
 288 0034 00000000 		.word	.LC0
 289 0038 04000000 		.word	.LC1
 290 003c 00000000 		.word	modem_state
 291              		.cfi_endproc
 292              	.LFE68:
 293              		.size	modem_power_down, .-modem_power_down
 294              		.section	.rodata
 295 000d 000000   		.align	2
 296              	.LC2:
 297 0010 41544530 		.ascii	"ATE0\015\000"
 297      0D00
 298 0016 0000     		.align	2
 299              	.LC3:
 300 0018 4D6F6465 		.ascii	"Modem ready for AT commands after %d attempt(s).\000"
 300      6D207265 
 300      61647920 
 300      666F7220 
 300      41542063 
 301 0049 000000   		.align	2
 302              	.LC4:
 303 004c 4E6F2072 		.ascii	"No response from modem.\000"
 303      6573706F 
 303      6E736520 
 303      66726F6D 
 303      206D6F64 
 304              		.section	.text.modem_power_up,"ax",%progbits
 305              		.align	2
 306              		.global	modem_power_up
 307              		.thumb
 308              		.thumb_func
ARM GAS  C:\Users\bk\AppData\Local\Temp\ccw7zFaL.s 			page 8


 309              		.type	modem_power_up, %function
 310              	modem_power_up:
 311              	.LFB69:
  80:modem.c       **** 
  81:modem.c       **** //this puts all the modem pints into a state that won't leak power
  82:modem.c       **** //pleasde call restore_pins() to bring them abck to function when they are needed for UART
  83:modem.c       **** uint8 modem_power_up(){
 312              		.loc 1 83 0
 313              		.cfi_startproc
 314              		@ args = 0, pretend = 0, frame = 8
 315              		@ frame_needed = 1, uses_anonymous_args = 0
 316 0000 80B5     		push	{r7, lr}
 317              		.cfi_def_cfa_offset 8
 318              		.cfi_offset 7, -8
 319              		.cfi_offset 14, -4
 320 0002 82B0     		sub	sp, sp, #8
 321              		.cfi_def_cfa_offset 16
 322 0004 00AF     		add	r7, sp, #0
 323              		.cfi_def_cfa_register 7
  84:modem.c       **** 
  85:modem.c       ****     pins_configure_active();//turns on power and configures all UART pin modes
 324              		.loc 1 85 0
 325 0006 FFF7FEFF 		bl	pins_configure_active
  86:modem.c       ****     UART_Telit_Start();
 326              		.loc 1 86 0
 327 000a FFF7FEFF 		bl	UART_Telit_Start
  87:modem.c       ****     isr_telit_rx_StartEx(isr_telit_rx);
 328              		.loc 1 87 0
 329 000e 1E48     		ldr	r0, .L22
 330 0010 FFF7FEFF 		bl	isr_telit_rx_StartEx
  88:modem.c       **** 
  89:modem.c       ****     modem_soft_power_cycle();
 331              		.loc 1 89 0
 332 0014 FFF7FEFF 		bl	modem_soft_power_cycle
  90:modem.c       ****     
  91:modem.c       ****     //turn off ECHO command
  92:modem.c       ****     uint8 at_ready = 0;
 333              		.loc 1 92 0
 334 0018 0023     		movs	r3, #0
 335 001a FB71     		strb	r3, [r7, #7]
  93:modem.c       ****     uint8 attemps = 0;
 336              		.loc 1 93 0
 337 001c 0023     		movs	r3, #0
 338 001e 7B71     		strb	r3, [r7, #5]
 339              	.LBB2:
  94:modem.c       ****     
  95:modem.c       ****     for(uint8 attemps = 0; attemps<3; attemps++){
 340              		.loc 1 95 0
 341 0020 0023     		movs	r3, #0
 342 0022 BB71     		strb	r3, [r7, #6]
 343 0024 10E0     		b	.L15
 344              	.L18:
  96:modem.c       ****         if(at_write_command("ATE0\r","OK",DEFAULT_AT_TIMEOUT)){
 345              		.loc 1 96 0
 346 0026 4FF4FA62 		mov	r2, #2000
 347 002a 1849     		ldr	r1, .L22+4
 348 002c 1848     		ldr	r0, .L22+8
ARM GAS  C:\Users\bk\AppData\Local\Temp\ccw7zFaL.s 			page 9


 349 002e FFF7FEFF 		bl	at_write_command
 350 0032 0346     		mov	r3, r0
 351 0034 002B     		cmp	r3, #0
 352 0036 02D0     		beq	.L16
  97:modem.c       ****             at_ready = 1;
 353              		.loc 1 97 0
 354 0038 0123     		movs	r3, #1
 355 003a FB71     		strb	r3, [r7, #7]
  98:modem.c       ****             break;
 356              		.loc 1 98 0
 357 003c 07E0     		b	.L17
 358              	.L16:
  99:modem.c       ****         }else{
 100:modem.c       ****             modem_soft_power_cycle();
 359              		.loc 1 100 0 discriminator 2
 360 003e FFF7FEFF 		bl	modem_soft_power_cycle
  95:modem.c       ****         if(at_write_command("ATE0\r","OK",DEFAULT_AT_TIMEOUT)){
 361              		.loc 1 95 0 discriminator 2
 362 0042 BB79     		ldrb	r3, [r7, #6]	@ zero_extendqisi2
 363 0044 0133     		adds	r3, r3, #1
 364 0046 BB71     		strb	r3, [r7, #6]
 365              	.L15:
  95:modem.c       ****         if(at_write_command("ATE0\r","OK",DEFAULT_AT_TIMEOUT)){
 366              		.loc 1 95 0 is_stmt 0 discriminator 1
 367 0048 BB79     		ldrb	r3, [r7, #6]	@ zero_extendqisi2
 368 004a 022B     		cmp	r3, #2
 369 004c EBD9     		bls	.L18
 370              	.L17:
 371              	.LBE2:
 101:modem.c       ****         }
 102:modem.c       ****     }
 103:modem.c       ****     
 104:modem.c       ****     if(at_ready == 1){
 372              		.loc 1 104 0 is_stmt 1
 373 004e FB79     		ldrb	r3, [r7, #7]	@ zero_extendqisi2
 374 0050 012B     		cmp	r3, #1
 375 0052 0AD1     		bne	.L19
 105:modem.c       ****         printNotif(NOTIF_TYPE_EVENT,"Modem ready for AT commands after %d attempt(s).",attemps);
 376              		.loc 1 105 0
 377 0054 7B79     		ldrb	r3, [r7, #5]	@ zero_extendqisi2
 378 0056 1A46     		mov	r2, r3
 379 0058 0E49     		ldr	r1, .L22+12
 380 005a 0020     		movs	r0, #0
 381 005c FFF7FEFF 		bl	printNotif
 106:modem.c       ****         modem_state = MODEM_STATE_WAITING_FOR_NETWORK;
 382              		.loc 1 106 0
 383 0060 0D4B     		ldr	r3, .L22+16
 384 0062 0222     		movs	r2, #2
 385 0064 1A70     		strb	r2, [r3]
 107:modem.c       ****     }else{
 108:modem.c       ****         printNotif(NOTIF_TYPE_ERROR,"No response from modem.");
 109:modem.c       ****         modem_state = MODEM_STATE_OFF;
 110:modem.c       ****         modem_power_down();
 111:modem.c       ****         return 0u;
 112:modem.c       ****     }
 113:modem.c       ****     return 1u;
 386              		.loc 1 113 0
ARM GAS  C:\Users\bk\AppData\Local\Temp\ccw7zFaL.s 			page 10


 387 0066 0123     		movs	r3, #1
 388 0068 09E0     		b	.L21
 389              	.L19:
 108:modem.c       ****         modem_state = MODEM_STATE_OFF;
 390              		.loc 1 108 0
 391 006a 0C49     		ldr	r1, .L22+20
 392 006c 0220     		movs	r0, #2
 393 006e FFF7FEFF 		bl	printNotif
 109:modem.c       ****         modem_power_down();
 394              		.loc 1 109 0
 395 0072 094B     		ldr	r3, .L22+16
 396 0074 0022     		movs	r2, #0
 397 0076 1A70     		strb	r2, [r3]
 110:modem.c       ****         return 0u;
 398              		.loc 1 110 0
 399 0078 FFF7FEFF 		bl	modem_power_down
 111:modem.c       ****     }
 400              		.loc 1 111 0
 401 007c 0023     		movs	r3, #0
 402              	.L21:
 114:modem.c       **** }
 403              		.loc 1 114 0
 404 007e 1846     		mov	r0, r3
 405 0080 0837     		adds	r7, r7, #8
 406              		.cfi_def_cfa_offset 8
 407 0082 BD46     		mov	sp, r7
 408              		.cfi_def_cfa_register 13
 409              		@ sp needed
 410 0084 80BD     		pop	{r7, pc}
 411              	.L23:
 412 0086 00BF     		.align	2
 413              	.L22:
 414 0088 00000000 		.word	isr_telit_rx
 415 008c 00000000 		.word	.LC0
 416 0090 10000000 		.word	.LC2
 417 0094 18000000 		.word	.LC3
 418 0098 00000000 		.word	modem_state
 419 009c 4C000000 		.word	.LC4
 420              		.cfi_endproc
 421              	.LFE69:
 422              		.size	modem_power_up, .-modem_power_up
 423              		.section	.text.modem_soft_power_cycle,"ax",%progbits
 424              		.align	2
 425              		.global	modem_soft_power_cycle
 426              		.thumb
 427              		.thumb_func
 428              		.type	modem_soft_power_cycle, %function
 429              	modem_soft_power_cycle:
 430              	.LFB70:
 115:modem.c       **** 
 116:modem.c       **** void modem_soft_power_cycle(){
 431              		.loc 1 116 0
 432              		.cfi_startproc
 433              		@ args = 0, pretend = 0, frame = 0
 434              		@ frame_needed = 1, uses_anonymous_args = 0
 435 0000 80B5     		push	{r7, lr}
 436              		.cfi_def_cfa_offset 8
ARM GAS  C:\Users\bk\AppData\Local\Temp\ccw7zFaL.s 			page 11


 437              		.cfi_offset 7, -8
 438              		.cfi_offset 14, -4
 439 0002 00AF     		add	r7, sp, #0
 440              		.cfi_def_cfa_register 7
 117:modem.c       ****     Pin_Telit_ONOFF_Write(1u);
 441              		.loc 1 117 0
 442 0004 0120     		movs	r0, #1
 443 0006 FFF7FEFF 		bl	Pin_Telit_ONOFF_Write
 118:modem.c       ****     CyDelay(2000u);//give modem a sec to boot
 444              		.loc 1 118 0
 445 000a 4FF4FA60 		mov	r0, #2000
 446 000e FFF7FEFF 		bl	CyDelay
 119:modem.c       ****     Pin_Telit_ONOFF_Write(0u);
 447              		.loc 1 119 0
 448 0012 0020     		movs	r0, #0
 449 0014 FFF7FEFF 		bl	Pin_Telit_ONOFF_Write
 120:modem.c       ****     
 121:modem.c       **** }
 450              		.loc 1 121 0
 451 0018 00BF     		nop
 452 001a 80BD     		pop	{r7, pc}
 453              		.cfi_endproc
 454              	.LFE70:
 455              		.size	modem_soft_power_cycle, .-modem_soft_power_cycle
 456              		.section	.text.uart_string_reset,"ax",%progbits
 457              		.align	2
 458              		.global	uart_string_reset
 459              		.thumb
 460              		.thumb_func
 461              		.type	uart_string_reset, %function
 462              	uart_string_reset:
 463              	.LFB71:
 122:modem.c       **** 
 123:modem.c       **** 
 124:modem.c       **** void uart_string_reset(){
 464              		.loc 1 124 0
 465              		.cfi_startproc
 466              		@ args = 0, pretend = 0, frame = 0
 467              		@ frame_needed = 1, uses_anonymous_args = 0
 468 0000 80B5     		push	{r7, lr}
 469              		.cfi_def_cfa_offset 8
 470              		.cfi_offset 7, -8
 471              		.cfi_offset 14, -4
 472 0002 00AF     		add	r7, sp, #0
 473              		.cfi_def_cfa_register 7
 125:modem.c       ****     uart_string_index=0;
 474              		.loc 1 125 0
 475 0004 064B     		ldr	r3, .L26
 476 0006 0022     		movs	r2, #0
 477 0008 1A70     		strb	r2, [r3]
 126:modem.c       ****     memset(uart_received_string,'\0',sizeof(uart_received_string));
 478              		.loc 1 126 0
 479 000a 4FF48062 		mov	r2, #1024
 480 000e 0021     		movs	r1, #0
 481 0010 0448     		ldr	r0, .L26+4
 482 0012 FFF7FEFF 		bl	memset
 127:modem.c       ****     UART_Telit_ClearRxBuffer();
ARM GAS  C:\Users\bk\AppData\Local\Temp\ccw7zFaL.s 			page 12


 483              		.loc 1 127 0
 484 0016 FFF7FEFF 		bl	UART_Telit_ClearRxBuffer
 128:modem.c       **** }
 485              		.loc 1 128 0
 486 001a 00BF     		nop
 487 001c 80BD     		pop	{r7, pc}
 488              	.L27:
 489 001e 00BF     		.align	2
 490              	.L26:
 491 0020 00000000 		.word	uart_string_index
 492 0024 00000000 		.word	uart_received_string
 493              		.cfi_endproc
 494              	.LFE71:
 495              		.size	uart_string_reset, .-uart_string_reset
 496              		.section	.rodata
 497              		.align	2
 498              	.LC5:
 499 0064 4D6F6465 		.ascii	"Modem sent AT command without timeout: %s\015\012\000"
 499      6D207365 
 499      6E742041 
 499      5420636F 
 499      6D6D616E 
 500              		.align	2
 501              	.LC6:
 502 0090 4D6F6465 		.ascii	"Modem Received expected AT Response on first Try: %"
 502      6D205265 
 502      63656976 
 502      65642065 
 502      78706563 
 503 00c3 730D0A00 		.ascii	"s\015\012\000"
 504 00c7 00       		.align	2
 505              	.LC7:
 506 00c8 4D6F6465 		.ascii	"Modem required %d tries to receive AT Response: %s\015"
 506      6D207265 
 506      71756972 
 506      65642025 
 506      64207472 
 507 00fb 0A00     		.ascii	"\012\000"
 508 00fd 000000   		.align	2
 509              	.LC8:
 510 0100 4D6F6465 		.ascii	"Modem AT response timeout: %s\015\012\000"
 510      6D204154 
 510      20726573 
 510      706F6E73 
 510      65207469 
 511              		.section	.text.at_write_command,"ax",%progbits
 512              		.align	2
 513              		.global	at_write_command
 514              		.thumb
 515              		.thumb_func
 516              		.type	at_write_command, %function
 517              	at_write_command:
 518              	.LFB72:
 129:modem.c       **** 
 130:modem.c       **** uint8_t at_write_command(char* commands, char* expected_response,uint32_t timeout){
 519              		.loc 1 130 0
 520              		.cfi_startproc
ARM GAS  C:\Users\bk\AppData\Local\Temp\ccw7zFaL.s 			page 13


 521              		@ args = 0, pretend = 0, frame = 40
 522              		@ frame_needed = 1, uses_anonymous_args = 0
 523 0000 80B5     		push	{r7, lr}
 524              		.cfi_def_cfa_offset 8
 525              		.cfi_offset 7, -8
 526              		.cfi_offset 14, -4
 527 0002 8AB0     		sub	sp, sp, #40
 528              		.cfi_def_cfa_offset 48
 529 0004 00AF     		add	r7, sp, #0
 530              		.cfi_def_cfa_register 7
 531 0006 F860     		str	r0, [r7, #12]
 532 0008 B960     		str	r1, [r7, #8]
 533 000a 7A60     		str	r2, [r7, #4]
 131:modem.c       **** 
 132:modem.c       ****     uint32 at_attempt = 0;
 534              		.loc 1 132 0
 535 000c 0023     		movs	r3, #0
 536 000e 7B62     		str	r3, [r7, #36]
 133:modem.c       ****     
 134:modem.c       ****     for(at_attempt = 0; at_attempt < 3; at_attempt++) {
 537              		.loc 1 134 0
 538 0010 0023     		movs	r3, #0
 539 0012 7B62     		str	r3, [r7, #36]
 540 0014 42E0     		b	.L29
 541              	.L37:
 542              	.LBB3:
 135:modem.c       ****         
 136:modem.c       ****         char* compare_location;
 137:modem.c       ****         uint32_t delay=10;
 543              		.loc 1 137 0
 544 0016 0A23     		movs	r3, #10
 545 0018 FB61     		str	r3, [r7, #28]
 138:modem.c       ****         uint32_t i, interval=timeout/delay;        
 546              		.loc 1 138 0
 547 001a 7A68     		ldr	r2, [r7, #4]
 548 001c FB69     		ldr	r3, [r7, #28]
 549 001e B2FBF3F3 		udiv	r3, r2, r3
 550 0022 BB61     		str	r3, [r7, #24]
 139:modem.c       ****         
 140:modem.c       ****         uart_string_reset();
 551              		.loc 1 140 0
 552 0024 FFF7FEFF 		bl	uart_string_reset
 141:modem.c       ****         UART_Telit_PutString(commands);
 553              		.loc 1 141 0
 554 0028 F868     		ldr	r0, [r7, #12]
 555 002a FFF7FEFF 		bl	UART_Telit_PutString
 142:modem.c       ****         
 143:modem.c       ****         //if no timeout, no need to wait for response
 144:modem.c       ****         if(timeout == NO_AT_TIMEOUT){
 556              		.loc 1 144 0
 557 002e 7B68     		ldr	r3, [r7, #4]
 558 0030 002B     		cmp	r3, #0
 559 0032 06D1     		bne	.L30
 145:modem.c       ****             printNotif(NOTIF_TYPE_EVENT,"Modem sent AT command without timeout: %s\r\n", commands);
 560              		.loc 1 145 0
 561 0034 FA68     		ldr	r2, [r7, #12]
 562 0036 2049     		ldr	r1, .L38
ARM GAS  C:\Users\bk\AppData\Local\Temp\ccw7zFaL.s 			page 14


 563 0038 0020     		movs	r0, #0
 564 003a FFF7FEFF 		bl	printNotif
 146:modem.c       ****             return 1u;
 565              		.loc 1 146 0
 566 003e 0123     		movs	r3, #1
 567 0040 35E0     		b	.L31
 568              	.L30:
 147:modem.c       ****         }
 148:modem.c       ****       
 149:modem.c       ****        
 150:modem.c       ****         for(i=0;i<interval;i++){        
 569              		.loc 1 150 0
 570 0042 0023     		movs	r3, #0
 571 0044 3B62     		str	r3, [r7, #32]
 572 0046 1FE0     		b	.L32
 573              	.L36:
 151:modem.c       ****             compare_location=strstr(uart_received_string,expected_response);        
 574              		.loc 1 151 0
 575 0048 B968     		ldr	r1, [r7, #8]
 576 004a 1C48     		ldr	r0, .L38+4
 577 004c FFF7FEFF 		bl	strstr
 578 0050 7861     		str	r0, [r7, #20]
 152:modem.c       ****             if(compare_location!=NULL) {
 579              		.loc 1 152 0
 580 0052 7B69     		ldr	r3, [r7, #20]
 581 0054 002B     		cmp	r3, #0
 582 0056 11D0     		beq	.L33
 153:modem.c       ****                 if (at_attempt == 0){
 583              		.loc 1 153 0
 584 0058 7B6A     		ldr	r3, [r7, #36]
 585 005a 002B     		cmp	r3, #0
 586 005c 05D1     		bne	.L34
 154:modem.c       ****                     printNotif(NOTIF_TYPE_EVENT,"Modem Received expected AT Response on first Try: 
 587              		.loc 1 154 0
 588 005e 174A     		ldr	r2, .L38+4
 589 0060 1749     		ldr	r1, .L38+8
 590 0062 0020     		movs	r0, #0
 591 0064 FFF7FEFF 		bl	printNotif
 592 0068 06E0     		b	.L35
 593              	.L34:
 155:modem.c       ****                 }else{
 156:modem.c       ****                    printNotif(NOTIF_TYPE_WARNING,"Modem required %d tries to receive AT Response: %
 594              		.loc 1 156 0
 595 006a 7B6A     		ldr	r3, [r7, #36]
 596 006c 5A1C     		adds	r2, r3, #1
 597 006e 134B     		ldr	r3, .L38+4
 598 0070 1449     		ldr	r1, .L38+12
 599 0072 0120     		movs	r0, #1
 600 0074 FFF7FEFF 		bl	printNotif
 601              	.L35:
 157:modem.c       ****                  
 158:modem.c       ****                 }
 159:modem.c       ****                  return(1);
 602              		.loc 1 159 0
 603 0078 0123     		movs	r3, #1
 604 007a 18E0     		b	.L31
 605              	.L33:
ARM GAS  C:\Users\bk\AppData\Local\Temp\ccw7zFaL.s 			page 15


 160:modem.c       ****             }
 161:modem.c       ****             CyDelay((uint32) delay);
 606              		.loc 1 161 0 discriminator 2
 607 007c F869     		ldr	r0, [r7, #28]
 608 007e FFF7FEFF 		bl	CyDelay
 150:modem.c       ****             compare_location=strstr(uart_received_string,expected_response);        
 609              		.loc 1 150 0 discriminator 2
 610 0082 3B6A     		ldr	r3, [r7, #32]
 611 0084 0133     		adds	r3, r3, #1
 612 0086 3B62     		str	r3, [r7, #32]
 613              	.L32:
 150:modem.c       ****             compare_location=strstr(uart_received_string,expected_response);        
 614              		.loc 1 150 0 is_stmt 0 discriminator 1
 615 0088 3A6A     		ldr	r2, [r7, #32]
 616 008a BB69     		ldr	r3, [r7, #24]
 617 008c 9A42     		cmp	r2, r3
 618 008e DBD3     		bcc	.L36
 162:modem.c       ****         }   
 163:modem.c       ****         CyDelay((uint32) delay);
 619              		.loc 1 163 0 is_stmt 1 discriminator 2
 620 0090 F869     		ldr	r0, [r7, #28]
 621 0092 FFF7FEFF 		bl	CyDelay
 622              	.LBE3:
 134:modem.c       ****         
 623              		.loc 1 134 0 discriminator 2
 624 0096 7B6A     		ldr	r3, [r7, #36]
 625 0098 0133     		adds	r3, r3, #1
 626 009a 7B62     		str	r3, [r7, #36]
 627              	.L29:
 134:modem.c       ****         
 628              		.loc 1 134 0 is_stmt 0 discriminator 1
 629 009c 7B6A     		ldr	r3, [r7, #36]
 630 009e 022B     		cmp	r3, #2
 631 00a0 B9D9     		bls	.L37
 164:modem.c       ****     }
 165:modem.c       ****     printNotif(NOTIF_TYPE_ERROR,"Modem AT response timeout: %s\r\n", commands);
 632              		.loc 1 165 0 is_stmt 1
 633 00a2 FA68     		ldr	r2, [r7, #12]
 634 00a4 0849     		ldr	r1, .L38+16
 635 00a6 0220     		movs	r0, #2
 636 00a8 FFF7FEFF 		bl	printNotif
 166:modem.c       ****           
 167:modem.c       ****     return(0);    
 637              		.loc 1 167 0
 638 00ac 0023     		movs	r3, #0
 639              	.L31:
 168:modem.c       **** }
 640              		.loc 1 168 0
 641 00ae 1846     		mov	r0, r3
 642 00b0 2837     		adds	r7, r7, #40
 643              		.cfi_def_cfa_offset 8
 644 00b2 BD46     		mov	sp, r7
 645              		.cfi_def_cfa_register 13
 646              		@ sp needed
 647 00b4 80BD     		pop	{r7, pc}
 648              	.L39:
 649 00b6 00BF     		.align	2
ARM GAS  C:\Users\bk\AppData\Local\Temp\ccw7zFaL.s 			page 16


 650              	.L38:
 651 00b8 64000000 		.word	.LC5
 652 00bc 00000000 		.word	uart_received_string
 653 00c0 90000000 		.word	.LC6
 654 00c4 C8000000 		.word	.LC7
 655 00c8 00010000 		.word	.LC8
 656              		.cfi_endproc
 657              	.LFE72:
 658              		.size	at_write_command, .-at_write_command
 659              		.section	.rodata
 660              		.align	2
 661              	.LC9:
 662 0120 54696D65 		.ascii	"Time to connecto to network: %d seconds\000"
 662      20746F20 
 662      636F6E6E 
 662      6563746F 
 662      20746F20 
 663              		.align	2
 664              	.LC10:
 665 0148 54696D65 		.ascii	"Time to connecto to get IP: %d seconds\000"
 665      20746F20 
 665      636F6E6E 
 665      6563746F 
 665      20746F20 
 666              		.section	.text.modem_test,"ax",%progbits
 667              		.align	2
 668              		.global	modem_test
 669              		.thumb
 670              		.thumb_func
 671              		.type	modem_test, %function
 672              	modem_test:
 673              	.LFB73:
 169:modem.c       **** 
 170:modem.c       **** test_t modem_test(){
 674              		.loc 1 170 0
 675              		.cfi_startproc
 676              		@ args = 0, pretend = 0, frame = 416
 677              		@ frame_needed = 1, uses_anonymous_args = 0
 678 0000 80B5     		push	{r7, lr}
 679              		.cfi_def_cfa_offset 8
 680              		.cfi_offset 7, -8
 681              		.cfi_offset 14, -4
 682 0002 E8B0     		sub	sp, sp, #416
 683              		.cfi_def_cfa_offset 424
 684 0004 00AF     		add	r7, sp, #0
 685              		.cfi_def_cfa_register 7
 686 0006 3B1D     		adds	r3, r7, #4
 687 0008 1860     		str	r0, [r3]
 171:modem.c       ****     
 172:modem.c       ****     test_t test;
 173:modem.c       ****     modem_power_up();
 688              		.loc 1 173 0
 689 000a FFF7FEFF 		bl	modem_power_up
 174:modem.c       ****     
 175:modem.c       ****     //timestamping
 176:modem.c       ****     uint32 time_Start, time_network_connect, time_obrtain_ip = 0;
 690              		.loc 1 176 0
ARM GAS  C:\Users\bk\AppData\Local\Temp\ccw7zFaL.s 			page 17


 691 000e 0023     		movs	r3, #0
 692 0010 C7F89C31 		str	r3, [r7, #412]
 177:modem.c       ****     
 178:modem.c       ****     //modem globakl IDs
 179:modem.c       ****     char *model;
 180:modem.c       ****     char *SIM;
 181:modem.c       ****     char *IMEI;
 182:modem.c       ****     
 183:modem.c       ****     //modem settings
 184:modem.c       ****     char *CFUN;
 185:modem.c       ****     
 186:modem.c       ****     time_Start = getTimeStamp();
 693              		.loc 1 186 0
 694 0014 FFF7FEFF 		bl	getTimeStamp
 695 0018 0346     		mov	r3, r0
 696 001a C7F89831 		str	r3, [r7, #408]
 187:modem.c       ****     
 188:modem.c       ****     
 189:modem.c       ****     
 190:modem.c       ****     uint32 connection_time = time_network_connect - time_Start;
 697              		.loc 1 190 0
 698 001e D7F89421 		ldr	r2, [r7, #404]
 699 0022 D7F89831 		ldr	r3, [r7, #408]
 700 0026 D31A     		subs	r3, r2, r3
 701 0028 C7F89031 		str	r3, [r7, #400]
 191:modem.c       ****     
 192:modem.c       ****     printNotif(NOTIF_TYPE_EVENT,"Time to connecto to network: %d seconds",connection_time);
 702              		.loc 1 192 0
 703 002c D7F89021 		ldr	r2, [r7, #400]
 704 0030 1449     		ldr	r1, .L42
 705 0032 0020     		movs	r0, #0
 706 0034 FFF7FEFF 		bl	printNotif
 193:modem.c       ****     
 194:modem.c       **** 
 195:modem.c       ****         
 196:modem.c       ****         time_obrtain_ip = getTimeStamp();
 707              		.loc 1 196 0
 708 0038 FFF7FEFF 		bl	getTimeStamp
 709 003c 0346     		mov	r3, r0
 710 003e C7F89C31 		str	r3, [r7, #412]
 197:modem.c       ****          connection_time = time_obrtain_ip- time_Start;
 711              		.loc 1 197 0
 712 0042 D7F89C21 		ldr	r2, [r7, #412]
 713 0046 D7F89831 		ldr	r3, [r7, #408]
 714 004a D31A     		subs	r3, r2, r3
 715 004c C7F89031 		str	r3, [r7, #400]
 198:modem.c       ****         
 199:modem.c       ****          printNotif(NOTIF_TYPE_EVENT,"Time to connecto to get IP: %d seconds",connection_time);
 716              		.loc 1 199 0
 717 0050 D7F89021 		ldr	r2, [r7, #400]
 718 0054 0C49     		ldr	r1, .L42+4
 719 0056 0020     		movs	r0, #0
 720 0058 FFF7FEFF 		bl	printNotif
 200:modem.c       ****         
 201:modem.c       ****     
 202:modem.c       ****     
 203:modem.c       ****     modem_power_down();
ARM GAS  C:\Users\bk\AppData\Local\Temp\ccw7zFaL.s 			page 18


 721              		.loc 1 203 0
 722 005c FFF7FEFF 		bl	modem_power_down
 204:modem.c       ****     
 205:modem.c       ****     
 206:modem.c       ****     return test;
 723              		.loc 1 206 0
 724 0060 3B1D     		adds	r3, r7, #4
 725 0062 1A68     		ldr	r2, [r3]
 726 0064 07F10C03 		add	r3, r7, #12
 727 0068 1046     		mov	r0, r2
 728 006a 1946     		mov	r1, r3
 729 006c 40F28113 		movw	r3, #385
 730 0070 1A46     		mov	r2, r3
 731 0072 FFF7FEFF 		bl	memcpy
 207:modem.c       **** }
 732              		.loc 1 207 0
 733 0076 3B1D     		adds	r3, r7, #4
 734 0078 1868     		ldr	r0, [r3]
 735 007a 07F5D077 		add	r7, r7, #416
 736              		.cfi_def_cfa_offset 8
 737 007e BD46     		mov	sp, r7
 738              		.cfi_def_cfa_register 13
 739              		@ sp needed
 740 0080 80BD     		pop	{r7, pc}
 741              	.L43:
 742 0082 00BF     		.align	2
 743              	.L42:
 744 0084 20010000 		.word	.LC9
 745 0088 48010000 		.word	.LC10
 746              		.cfi_endproc
 747              	.LFE73:
 748              		.size	modem_test, .-modem_test
 749              		.section	.text.extract_string,"ax",%progbits
 750              		.align	2
 751              		.global	extract_string
 752              		.thumb
 753              		.thumb_func
 754              		.type	extract_string, %function
 755              	extract_string:
 756              	.LFB74:
 208:modem.c       **** 
 209:modem.c       **** 
 210:modem.c       **** uint8 extract_string(char* from, const char* beginMarker, const char* endMarker,  char* target){
 757              		.loc 1 210 0
 758              		.cfi_startproc
 759              		@ args = 0, pretend = 0, frame = 24
 760              		@ frame_needed = 1, uses_anonymous_args = 0
 761 0000 80B5     		push	{r7, lr}
 762              		.cfi_def_cfa_offset 8
 763              		.cfi_offset 7, -8
 764              		.cfi_offset 14, -4
 765 0002 86B0     		sub	sp, sp, #24
 766              		.cfi_def_cfa_offset 32
 767 0004 00AF     		add	r7, sp, #0
 768              		.cfi_def_cfa_register 7
 769 0006 F860     		str	r0, [r7, #12]
 770 0008 B960     		str	r1, [r7, #8]
ARM GAS  C:\Users\bk\AppData\Local\Temp\ccw7zFaL.s 			page 19


 771 000a 7A60     		str	r2, [r7, #4]
 772 000c 3B60     		str	r3, [r7]
 211:modem.c       ****     
 212:modem.c       ****         char *a, *b;
 213:modem.c       ****   
 214:modem.c       ****         // Expect the UART to contain something like "+CSQ: 17,99\r\n\r\nOK"
 215:modem.c       ****         // - Search for "+CSQ: ".  Place the starting pointer, a, at the resulting index
 216:modem.c       ****         a = strstr(from,beginMarker);
 773              		.loc 1 216 0
 774 000e B968     		ldr	r1, [r7, #8]
 775 0010 F868     		ldr	r0, [r7, #12]
 776 0012 FFF7FEFF 		bl	strstr
 777 0016 7861     		str	r0, [r7, #20]
 217:modem.c       ****         if (a == NULL) {
 778              		.loc 1 217 0
 779 0018 7B69     		ldr	r3, [r7, #20]
 780 001a 002B     		cmp	r3, #0
 781 001c 01D1     		bne	.L45
 218:modem.c       ****             //puts("+CSQ: not found in uart_received_string");
 219:modem.c       ****             a = from;
 782              		.loc 1 219 0
 783 001e FB68     		ldr	r3, [r7, #12]
 784 0020 7B61     		str	r3, [r7, #20]
 785              	.L45:
 220:modem.c       ****         }
 221:modem.c       ****         
 222:modem.c       ****         a += strlen(beginMarker);
 786              		.loc 1 222 0
 787 0022 B868     		ldr	r0, [r7, #8]
 788 0024 FFF7FEFF 		bl	strlen
 789 0028 0246     		mov	r2, r0
 790 002a 7B69     		ldr	r3, [r7, #20]
 791 002c 1344     		add	r3, r3, r2
 792 002e 7B61     		str	r3, [r7, #20]
 223:modem.c       ****         
 224:modem.c       ****         // - Find the end marking and offset by 1
 225:modem.c       ****         b = strstr(a,endMarker);
 793              		.loc 1 225 0
 794 0030 7968     		ldr	r1, [r7, #4]
 795 0032 7869     		ldr	r0, [r7, #20]
 796 0034 FFF7FEFF 		bl	strstr
 797 0038 3861     		str	r0, [r7, #16]
 226:modem.c       ****         if (b == NULL) {
 798              		.loc 1 226 0
 799 003a 3B69     		ldr	r3, [r7, #16]
 800 003c 002B     		cmp	r3, #0
 801 003e 06D1     		bne	.L46
 227:modem.c       ****             //puts("Comma not found in uart_received_string");
 228:modem.c       ****             b=from+strlen(from);
 802              		.loc 1 228 0
 803 0040 F868     		ldr	r0, [r7, #12]
 804 0042 FFF7FEFF 		bl	strlen
 805 0046 0246     		mov	r2, r0
 806 0048 FB68     		ldr	r3, [r7, #12]
 807 004a 1344     		add	r3, r3, r2
 808 004c 3B61     		str	r3, [r7, #16]
 809              	.L46:
ARM GAS  C:\Users\bk\AppData\Local\Temp\ccw7zFaL.s 			page 20


 229:modem.c       ****         }        
 230:modem.c       ****         
 231:modem.c       ****         // Parse the strings and store the respective rssi and fer values
 232:modem.c       ****         strncpy(target,a,b-a);
 810              		.loc 1 232 0
 811 004e 3A69     		ldr	r2, [r7, #16]
 812 0050 7B69     		ldr	r3, [r7, #20]
 813 0052 D31A     		subs	r3, r2, r3
 814 0054 1A46     		mov	r2, r3
 815 0056 7969     		ldr	r1, [r7, #20]
 816 0058 3868     		ldr	r0, [r7]
 817 005a FFF7FEFF 		bl	strncpy
 233:modem.c       ****         target[b-a] = '\0';
 818              		.loc 1 233 0
 819 005e 3A69     		ldr	r2, [r7, #16]
 820 0060 7B69     		ldr	r3, [r7, #20]
 821 0062 D31A     		subs	r3, r2, r3
 822 0064 1A46     		mov	r2, r3
 823 0066 3B68     		ldr	r3, [r7]
 824 0068 1344     		add	r3, r3, r2
 825 006a 0022     		movs	r2, #0
 826 006c 1A70     		strb	r2, [r3]
 234:modem.c       ****         return 1u;
 827              		.loc 1 234 0
 828 006e 0123     		movs	r3, #1
 235:modem.c       ****         
 236:modem.c       **** }
 829              		.loc 1 236 0
 830 0070 1846     		mov	r0, r3
 831 0072 1837     		adds	r7, r7, #24
 832              		.cfi_def_cfa_offset 8
 833 0074 BD46     		mov	sp, r7
 834              		.cfi_def_cfa_register 13
 835              		@ sp needed
 836 0076 80BD     		pop	{r7, pc}
 837              		.cfi_endproc
 838              	.LFE74:
 839              		.size	extract_string, .-extract_string
 840              		.section	.rodata
 841 016f 00       		.align	2
 842              	.LC11:
 843 0170 41637175 		.ascii	"Acquired IP address: %d seconds\000"
 843      69726564 
 843      20495020 
 843      61646472 
 843      6573733A 
 844              		.section	.text.modem_process_tasks,"ax",%progbits
 845              		.align	2
 846              		.global	modem_process_tasks
 847              		.thumb
 848              		.thumb_func
 849              		.type	modem_process_tasks, %function
 850              	modem_process_tasks:
 851              	.LFB75:
 237:modem.c       **** 
 238:modem.c       **** 
 239:modem.c       **** void modem_process_tasks(){
ARM GAS  C:\Users\bk\AppData\Local\Temp\ccw7zFaL.s 			page 21


 852              		.loc 1 239 0
 853              		.cfi_startproc
 854              		@ args = 0, pretend = 0, frame = 0
 855              		@ frame_needed = 1, uses_anonymous_args = 0
 856 0000 80B5     		push	{r7, lr}
 857              		.cfi_def_cfa_offset 8
 858              		.cfi_offset 7, -8
 859              		.cfi_offset 14, -4
 860 0002 00AF     		add	r7, sp, #0
 861              		.cfi_def_cfa_register 7
 240:modem.c       ****     
 241:modem.c       ****     if(modem_state == MODEM_STATE_STARTUP){
 862              		.loc 1 241 0
 863 0004 254B     		ldr	r3, .L54
 864 0006 1B78     		ldrb	r3, [r3]	@ zero_extendqisi2
 865 0008 012B     		cmp	r3, #1
 866 000a 0AD1     		bne	.L49
 242:modem.c       ****         
 243:modem.c       ****         modem_time_stamp = getTimeStamp();
 867              		.loc 1 243 0
 868 000c FFF7FEFF 		bl	getTimeStamp
 869 0010 0246     		mov	r2, r0
 870 0012 234B     		ldr	r3, .L54+4
 871 0014 1A60     		str	r2, [r3]
 244:modem.c       ****         modem_configure_settings();
 872              		.loc 1 244 0
 873 0016 FFF7FEFF 		bl	modem_configure_settings
 245:modem.c       ****         modem_state = MODEM_STATE_WAITING_FOR_NETWORK;
 874              		.loc 1 245 0
 875 001a 204B     		ldr	r3, .L54
 876 001c 0222     		movs	r2, #2
 877 001e 1A70     		strb	r2, [r3]
 246:modem.c       ****         
 247:modem.c       ****     }
 248:modem.c       ****     else if(modem_state == MODEM_STATE_WAITING_FOR_NETWORK){
 249:modem.c       ****         
 250:modem.c       ****         if(is_connected_to_network()){
 251:modem.c       ****              modem_stats.time_to_network_connect = (int)(getTimeStamp() - (int32)modem_time_stamp);
 252:modem.c       ****              printNotif(NOTIF_TYPE_EVENT,"Time to connecto to network: %d seconds",
 253:modem.c       ****                                             modem_stats.time_to_network_connect);
 254:modem.c       ****             get_cell_network_stats();
 255:modem.c       ****             set_up_internet_connection();
 256:modem.c       ****             modem_state = MODEM_STATE_WAITING_FOR_IP;
 257:modem.c       ****         }
 258:modem.c       **** 
 259:modem.c       ****     }else if(modem_state == MODEM_STATE_WAITING_FOR_IP){
 260:modem.c       ****         if(is_connected_to_internet()){
 261:modem.c       ****             modem_state = MODEM_STATE_READY;
 262:modem.c       ****             modem_stats.time_to_acquire_ip = (int)(getTimeStamp() - (int32)modem_time_stamp);
 263:modem.c       ****              printNotif(NOTIF_TYPE_EVENT,"Acquired IP address: %d seconds",
 264:modem.c       ****                                             modem_stats.time_to_acquire_ip);
 265:modem.c       ****         }
 266:modem.c       ****     }
 267:modem.c       ****     
 268:modem.c       ****     
 269:modem.c       **** }
 878              		.loc 1 269 0
ARM GAS  C:\Users\bk\AppData\Local\Temp\ccw7zFaL.s 			page 22


 879 0020 3AE0     		b	.L53
 880              	.L49:
 248:modem.c       ****         
 881              		.loc 1 248 0
 882 0022 1E4B     		ldr	r3, .L54
 883 0024 1B78     		ldrb	r3, [r3]	@ zero_extendqisi2
 884 0026 022B     		cmp	r3, #2
 885 0028 1BD1     		bne	.L51
 250:modem.c       ****              modem_stats.time_to_network_connect = (int)(getTimeStamp() - (int32)modem_time_stamp);
 886              		.loc 1 250 0
 887 002a FFF7FEFF 		bl	is_connected_to_network
 888 002e 0346     		mov	r3, r0
 889 0030 002B     		cmp	r3, #0
 890 0032 31D0     		beq	.L53
 251:modem.c       ****              printNotif(NOTIF_TYPE_EVENT,"Time to connecto to network: %d seconds",
 891              		.loc 1 251 0
 892 0034 FFF7FEFF 		bl	getTimeStamp
 893 0038 0246     		mov	r2, r0
 894 003a 194B     		ldr	r3, .L54+4
 895 003c 1B68     		ldr	r3, [r3]
 896 003e D31A     		subs	r3, r2, r3
 897 0040 184A     		ldr	r2, .L54+8
 898 0042 5360     		str	r3, [r2, #4]
 252:modem.c       ****                                             modem_stats.time_to_network_connect);
 899              		.loc 1 252 0
 900 0044 174B     		ldr	r3, .L54+8
 901 0046 5B68     		ldr	r3, [r3, #4]
 902 0048 1A46     		mov	r2, r3
 903 004a 1749     		ldr	r1, .L54+12
 904 004c 0020     		movs	r0, #0
 905 004e FFF7FEFF 		bl	printNotif
 254:modem.c       ****             set_up_internet_connection();
 906              		.loc 1 254 0
 907 0052 FFF7FEFF 		bl	get_cell_network_stats
 255:modem.c       ****             modem_state = MODEM_STATE_WAITING_FOR_IP;
 908              		.loc 1 255 0
 909 0056 FFF7FEFF 		bl	set_up_internet_connection
 256:modem.c       ****         }
 910              		.loc 1 256 0
 911 005a 104B     		ldr	r3, .L54
 912 005c 0322     		movs	r2, #3
 913 005e 1A70     		strb	r2, [r3]
 914              		.loc 1 269 0
 915 0060 1AE0     		b	.L53
 916              	.L51:
 259:modem.c       ****         if(is_connected_to_internet()){
 917              		.loc 1 259 0
 918 0062 0E4B     		ldr	r3, .L54
 919 0064 1B78     		ldrb	r3, [r3]	@ zero_extendqisi2
 920 0066 032B     		cmp	r3, #3
 921 0068 16D1     		bne	.L53
 260:modem.c       ****             modem_state = MODEM_STATE_READY;
 922              		.loc 1 260 0
 923 006a FFF7FEFF 		bl	is_connected_to_internet
 924 006e 0346     		mov	r3, r0
 925 0070 002B     		cmp	r3, #0
 926 0072 11D0     		beq	.L53
ARM GAS  C:\Users\bk\AppData\Local\Temp\ccw7zFaL.s 			page 23


 261:modem.c       ****             modem_stats.time_to_acquire_ip = (int)(getTimeStamp() - (int32)modem_time_stamp);
 927              		.loc 1 261 0
 928 0074 094B     		ldr	r3, .L54
 929 0076 0422     		movs	r2, #4
 930 0078 1A70     		strb	r2, [r3]
 262:modem.c       ****              printNotif(NOTIF_TYPE_EVENT,"Acquired IP address: %d seconds",
 931              		.loc 1 262 0
 932 007a FFF7FEFF 		bl	getTimeStamp
 933 007e 0246     		mov	r2, r0
 934 0080 074B     		ldr	r3, .L54+4
 935 0082 1B68     		ldr	r3, [r3]
 936 0084 D31A     		subs	r3, r2, r3
 937 0086 074A     		ldr	r2, .L54+8
 938 0088 9360     		str	r3, [r2, #8]
 263:modem.c       ****                                             modem_stats.time_to_acquire_ip);
 939              		.loc 1 263 0
 940 008a 064B     		ldr	r3, .L54+8
 941 008c 9B68     		ldr	r3, [r3, #8]
 942 008e 1A46     		mov	r2, r3
 943 0090 0649     		ldr	r1, .L54+16
 944 0092 0020     		movs	r0, #0
 945 0094 FFF7FEFF 		bl	printNotif
 946              	.L53:
 947              		.loc 1 269 0
 948 0098 00BF     		nop
 949 009a 80BD     		pop	{r7, pc}
 950              	.L55:
 951              		.align	2
 952              	.L54:
 953 009c 00000000 		.word	modem_state
 954 00a0 00000000 		.word	modem_time_stamp
 955 00a4 00000000 		.word	modem_stats
 956 00a8 20010000 		.word	.LC9
 957 00ac 70010000 		.word	.LC11
 958              		.cfi_endproc
 959              	.LFE75:
 960              		.size	modem_process_tasks, .-modem_process_tasks
 961              		.section	.rodata
 962              		.align	2
 963              	.LC12:
 964 0190 41542B43 		.ascii	"AT+CREG?\015\000"
 964      5245473F 
 964      0D00
 965 019a 0000     		.align	2
 966              	.LC13:
 967 019c 0D00     		.ascii	"\015\000"
 968 019e 0000     		.align	2
 969              	.LC14:
 970 01a0 3A2000   		.ascii	": \000"
 971 01a3 00       		.align	2
 972              	.LC15:
 973 01a4 52656769 		.ascii	"Registered to network, CREG: %s\000"
 973      73746572 
 973      65642074 
 973      6F206E65 
 973      74776F72 
 974              		.align	2
ARM GAS  C:\Users\bk\AppData\Local\Temp\ccw7zFaL.s 			page 24


 975              	.LC16:
 976 01c4 302C3100 		.ascii	"0,1\000"
 977              		.section	.text.is_connected_to_network,"ax",%progbits
 978              		.align	2
 979              		.global	is_connected_to_network
 980              		.thumb
 981              		.thumb_func
 982              		.type	is_connected_to_network, %function
 983              	is_connected_to_network:
 984              	.LFB76:
 270:modem.c       **** 
 271:modem.c       **** uint8 is_connected_to_network(){
 985              		.loc 1 271 0
 986              		.cfi_startproc
 987              		@ args = 0, pretend = 0, frame = 16
 988              		@ frame_needed = 1, uses_anonymous_args = 0
 989 0000 80B5     		push	{r7, lr}
 990              		.cfi_def_cfa_offset 8
 991              		.cfi_offset 7, -8
 992              		.cfi_offset 14, -4
 993 0002 84B0     		sub	sp, sp, #16
 994              		.cfi_def_cfa_offset 24
 995 0004 00AF     		add	r7, sp, #0
 996              		.cfi_def_cfa_register 7
 272:modem.c       ****     //check network status -- need '0,0' response to continue
 273:modem.c       ****     at_write_command("AT+CREG?\r", "OK",DEFAULT_AT_TIMEOUT);
 997              		.loc 1 273 0
 998 0006 4FF4FA62 		mov	r2, #2000
 999 000a 0F49     		ldr	r1, .L60
 1000 000c 0F48     		ldr	r0, .L60+4
 1001 000e FFF7FEFF 		bl	at_write_command
 274:modem.c       ****     
 275:modem.c       ****     char creg[10];
 276:modem.c       ****     extract_string(uart_received_string,": ","\r",creg);
 1002              		.loc 1 276 0
 1003 0012 3B1D     		adds	r3, r7, #4
 1004 0014 0E4A     		ldr	r2, .L60+8
 1005 0016 0F49     		ldr	r1, .L60+12
 1006 0018 0F48     		ldr	r0, .L60+16
 1007 001a FFF7FEFF 		bl	extract_string
 277:modem.c       ****     printNotif(NOTIF_TYPE_EVENT,"Registered to network, CREG: %s",creg);
 1008              		.loc 1 277 0
 1009 001e 3B1D     		adds	r3, r7, #4
 1010 0020 1A46     		mov	r2, r3
 1011 0022 0E49     		ldr	r1, .L60+20
 1012 0024 0020     		movs	r0, #0
 1013 0026 FFF7FEFF 		bl	printNotif
 278:modem.c       ****    
 279:modem.c       ****     if(strstr(creg,"0,1")!=NULL){
 1014              		.loc 1 279 0
 1015 002a 3B1D     		adds	r3, r7, #4
 1016 002c 0C49     		ldr	r1, .L60+24
 1017 002e 1846     		mov	r0, r3
 1018 0030 FFF7FEFF 		bl	strstr
 1019 0034 0346     		mov	r3, r0
 1020 0036 002B     		cmp	r3, #0
 1021 0038 01D0     		beq	.L57
ARM GAS  C:\Users\bk\AppData\Local\Temp\ccw7zFaL.s 			page 25


 280:modem.c       ****         //time_network_connect = getTimeStamp();
 281:modem.c       ****         return 1u;
 1022              		.loc 1 281 0
 1023 003a 0123     		movs	r3, #1
 1024 003c 00E0     		b	.L59
 1025              	.L57:
 282:modem.c       ****     }
 283:modem.c       ****     
 284:modem.c       ****     return 0u;
 1026              		.loc 1 284 0
 1027 003e 0023     		movs	r3, #0
 1028              	.L59:
 285:modem.c       ****         
 286:modem.c       **** }
 1029              		.loc 1 286 0 discriminator 1
 1030 0040 1846     		mov	r0, r3
 1031 0042 1037     		adds	r7, r7, #16
 1032              		.cfi_def_cfa_offset 8
 1033 0044 BD46     		mov	sp, r7
 1034              		.cfi_def_cfa_register 13
 1035              		@ sp needed
 1036 0046 80BD     		pop	{r7, pc}
 1037              	.L61:
 1038              		.align	2
 1039              	.L60:
 1040 0048 00000000 		.word	.LC0
 1041 004c 90010000 		.word	.LC12
 1042 0050 9C010000 		.word	.LC13
 1043 0054 A0010000 		.word	.LC14
 1044 0058 00000000 		.word	uart_received_string
 1045 005c A4010000 		.word	.LC15
 1046 0060 C4010000 		.word	.LC16
 1047              		.cfi_endproc
 1048              	.LFE76:
 1049              		.size	is_connected_to_network, .-is_connected_to_network
 1050              		.section	.rodata
 1051              		.align	2
 1052              	.LC17:
 1053 01c8 41542353 		.ascii	"AT#SCFGEXT=3,1,0,0,0,0\015\000"
 1053      43464745 
 1053      58543D33 
 1053      2C312C30 
 1053      2C302C30 
 1054              		.align	2
 1055              	.LC18:
 1056 01e0 41542353 		.ascii	"AT#SCFG=1,3,300,90,600,50\015\000"
 1056      4346473D 
 1056      312C332C 
 1056      3330302C 
 1056      39302C36 
 1057 01fb 00       		.align	2
 1058              	.LC19:
 1059 01fc 41542353 		.ascii	"AT#SGACT=1,1\015\000"
 1059      47414354 
 1059      3D312C31 
 1059      0D00
 1060              		.section	.text.set_up_internet_connection,"ax",%progbits
ARM GAS  C:\Users\bk\AppData\Local\Temp\ccw7zFaL.s 			page 26


 1061              		.align	2
 1062              		.global	set_up_internet_connection
 1063              		.thumb
 1064              		.thumb_func
 1065              		.type	set_up_internet_connection, %function
 1066              	set_up_internet_connection:
 1067              	.LFB77:
 287:modem.c       **** 
 288:modem.c       **** void set_up_internet_connection(){
 1068              		.loc 1 288 0
 1069              		.cfi_startproc
 1070              		@ args = 0, pretend = 0, frame = 0
 1071              		@ frame_needed = 1, uses_anonymous_args = 0
 1072 0000 80B5     		push	{r7, lr}
 1073              		.cfi_def_cfa_offset 8
 1074              		.cfi_offset 7, -8
 1075              		.cfi_offset 14, -4
 1076 0002 00AF     		add	r7, sp, #0
 1077              		.cfi_def_cfa_register 7
 289:modem.c       ****     
 290:modem.c       ****     //port 3
 291:modem.c       ****     at_write_command("AT#SCFGEXT=3,1,0,0,0,0\r", "OK",DEFAULT_AT_TIMEOUT);
 1078              		.loc 1 291 0
 1079 0004 4FF4FA62 		mov	r2, #2000
 1080 0008 0849     		ldr	r1, .L63
 1081 000a 0948     		ldr	r0, .L63+4
 1082 000c FFF7FEFF 		bl	at_write_command
 292:modem.c       ****     
 293:modem.c       ****     //<connId>,<cid>,<pktSz>,<maxTo>,<connTo>,<txTo>
 294:modem.c       ****     at_write_command("AT#SCFG=1,3,300,90,600,50\r", "OK",DEFAULT_AT_TIMEOUT);
 1083              		.loc 1 294 0
 1084 0010 4FF4FA62 		mov	r2, #2000
 1085 0014 0549     		ldr	r1, .L63
 1086 0016 0748     		ldr	r0, .L63+8
 1087 0018 FFF7FEFF 		bl	at_write_command
 295:modem.c       ****     at_write_command("AT#SGACT=1,1\r", "OK",NO_AT_TIMEOUT);
 1088              		.loc 1 295 0
 1089 001c 0022     		movs	r2, #0
 1090 001e 0349     		ldr	r1, .L63
 1091 0020 0548     		ldr	r0, .L63+12
 1092 0022 FFF7FEFF 		bl	at_write_command
 296:modem.c       ****     
 297:modem.c       **** }
 1093              		.loc 1 297 0
 1094 0026 00BF     		nop
 1095 0028 80BD     		pop	{r7, pc}
 1096              	.L64:
 1097 002a 00BF     		.align	2
 1098              	.L63:
 1099 002c 00000000 		.word	.LC0
 1100 0030 C8010000 		.word	.LC17
 1101 0034 E0010000 		.word	.LC18
 1102 0038 FC010000 		.word	.LC19
 1103              		.cfi_endproc
 1104              	.LFE77:
 1105              		.size	set_up_internet_connection, .-set_up_internet_connection
 1106              		.section	.rodata
ARM GAS  C:\Users\bk\AppData\Local\Temp\ccw7zFaL.s 			page 27


 1107 020a 0000     		.align	2
 1108              	.LC20:
 1109 020c 332C3100 		.ascii	"3,1\000"
 1110              		.align	2
 1111              	.LC21:
 1112 0210 41542353 		.ascii	"AT#SGACT?\015\000"
 1112      47414354 
 1112      3F0D00
 1113              		.section	.text.is_connected_to_internet,"ax",%progbits
 1114              		.align	2
 1115              		.global	is_connected_to_internet
 1116              		.thumb
 1117              		.thumb_func
 1118              		.type	is_connected_to_internet, %function
 1119              	is_connected_to_internet:
 1120              	.LFB78:
 298:modem.c       **** 
 299:modem.c       **** uint8 is_connected_to_internet(){
 1121              		.loc 1 299 0
 1122              		.cfi_startproc
 1123              		@ args = 0, pretend = 0, frame = 0
 1124              		@ frame_needed = 1, uses_anonymous_args = 0
 1125 0000 80B5     		push	{r7, lr}
 1126              		.cfi_def_cfa_offset 8
 1127              		.cfi_offset 7, -8
 1128              		.cfi_offset 14, -4
 1129 0002 00AF     		add	r7, sp, #0
 1130              		.cfi_def_cfa_register 7
 300:modem.c       ****     
 301:modem.c       ****     if(at_write_command("AT#SGACT?\r", "3,1",NO_AT_TIMEOUT)){
 1131              		.loc 1 301 0
 1132 0004 0022     		movs	r2, #0
 1133 0006 0649     		ldr	r1, .L68
 1134 0008 0648     		ldr	r0, .L68+4
 1135 000a FFF7FEFF 		bl	at_write_command
 1136 000e 0346     		mov	r3, r0
 1137 0010 002B     		cmp	r3, #0
 1138 0012 01D0     		beq	.L66
 302:modem.c       ****         return 1u;
 1139              		.loc 1 302 0
 1140 0014 0123     		movs	r3, #1
 1141 0016 00E0     		b	.L67
 1142              	.L66:
 303:modem.c       ****     }
 304:modem.c       ****  
 305:modem.c       ****     return 0u;
 1143              		.loc 1 305 0
 1144 0018 0023     		movs	r3, #0
 1145              	.L67:
 306:modem.c       ****     
 307:modem.c       **** }
 1146              		.loc 1 307 0
 1147 001a 1846     		mov	r0, r3
 1148 001c 80BD     		pop	{r7, pc}
 1149              	.L69:
 1150 001e 00BF     		.align	2
 1151              	.L68:
ARM GAS  C:\Users\bk\AppData\Local\Temp\ccw7zFaL.s 			page 28


 1152 0020 0C020000 		.word	.LC20
 1153 0024 10020000 		.word	.LC21
 1154              		.cfi_endproc
 1155              	.LFE78:
 1156              		.size	is_connected_to_internet, .-is_connected_to_internet
 1157              		.section	.rodata
 1158 021b 00       		.align	2
 1159              	.LC22:
 1160 021c 41542B43 		.ascii	"AT+CSQ\015\000"
 1160      53510D00 
 1161              		.align	2
 1162              	.LC23:
 1163 0224 4E657477 		.ascii	"Network STts: %s\000"
 1163      6F726B20 
 1163      53547473 
 1163      3A202573 
 1163      00
 1164 0235 000000   		.align	2
 1165              	.LC24:
 1166 0238 2C00     		.ascii	",\000"
 1167              		.section	.text.get_cell_network_stats,"ax",%progbits
 1168              		.align	2
 1169              		.global	get_cell_network_stats
 1170              		.thumb
 1171              		.thumb_func
 1172              		.type	get_cell_network_stats, %function
 1173              	get_cell_network_stats:
 1174              	.LFB79:
 308:modem.c       **** 
 309:modem.c       **** void get_cell_network_stats(){
 1175              		.loc 1 309 0
 1176              		.cfi_startproc
 1177              		@ args = 0, pretend = 0, frame = 16
 1178              		@ frame_needed = 1, uses_anonymous_args = 0
 1179 0000 80B5     		push	{r7, lr}
 1180              		.cfi_def_cfa_offset 8
 1181              		.cfi_offset 7, -8
 1182              		.cfi_offset 14, -4
 1183 0002 84B0     		sub	sp, sp, #16
 1184              		.cfi_def_cfa_offset 24
 1185 0004 00AF     		add	r7, sp, #0
 1186              		.cfi_def_cfa_register 7
 310:modem.c       ****     //gets RSSI and FER values
 311:modem.c       ****     at_write_command("AT+CSQ\r", "OK",DEFAULT_AT_TIMEOUT);
 1187              		.loc 1 311 0
 1188 0006 4FF4FA62 		mov	r2, #2000
 1189 000a 1949     		ldr	r1, .L74
 1190 000c 1948     		ldr	r0, .L74+4
 1191 000e FFF7FEFF 		bl	at_write_command
 312:modem.c       ****     char csq[10];
 313:modem.c       ****     extract_string(uart_received_string,": ","\r",csq);
 1192              		.loc 1 313 0
 1193 0012 3B46     		mov	r3, r7
 1194 0014 184A     		ldr	r2, .L74+8
 1195 0016 1949     		ldr	r1, .L74+12
 1196 0018 1948     		ldr	r0, .L74+16
 1197 001a FFF7FEFF 		bl	extract_string
ARM GAS  C:\Users\bk\AppData\Local\Temp\ccw7zFaL.s 			page 29


 314:modem.c       ****     printNotif(NOTIF_TYPE_EVENT,"Network STts: %s",csq);
 1198              		.loc 1 314 0
 1199 001e 3B46     		mov	r3, r7
 1200 0020 1A46     		mov	r2, r3
 1201 0022 1849     		ldr	r1, .L74+20
 1202 0024 0020     		movs	r0, #0
 1203 0026 FFF7FEFF 		bl	printNotif
 315:modem.c       ****     
 316:modem.c       ****     char *token;
 317:modem.c       ****     token = strtok(csq,",");
 1204              		.loc 1 317 0
 1205 002a 3B46     		mov	r3, r7
 1206 002c 1649     		ldr	r1, .L74+24
 1207 002e 1846     		mov	r0, r3
 1208 0030 FFF7FEFF 		bl	strtok
 1209 0034 F860     		str	r0, [r7, #12]
 318:modem.c       ****     if(token != NULL){
 1210              		.loc 1 318 0
 1211 0036 FB68     		ldr	r3, [r7, #12]
 1212 0038 002B     		cmp	r3, #0
 1213 003a 06D0     		beq	.L71
 319:modem.c       ****         modem_stats.rssi = atoi(token);
 1214              		.loc 1 319 0
 1215 003c F868     		ldr	r0, [r7, #12]
 1216 003e FFF7FEFF 		bl	atoi
 1217 0042 0346     		mov	r3, r0
 1218 0044 DAB2     		uxtb	r2, r3
 1219 0046 114B     		ldr	r3, .L74+28
 1220 0048 1A70     		strb	r2, [r3]
 1221              	.L71:
 320:modem.c       ****     }
 321:modem.c       ****     token = strtok(NULL,",");
 1222              		.loc 1 321 0
 1223 004a 0F49     		ldr	r1, .L74+24
 1224 004c 0020     		movs	r0, #0
 1225 004e FFF7FEFF 		bl	strtok
 1226 0052 F860     		str	r0, [r7, #12]
 322:modem.c       ****     if(token != NULL){
 1227              		.loc 1 322 0
 1228 0054 FB68     		ldr	r3, [r7, #12]
 1229 0056 002B     		cmp	r3, #0
 1230 0058 06D0     		beq	.L73
 323:modem.c       ****         modem_stats.sq = atoi(token);
 1231              		.loc 1 323 0
 1232 005a F868     		ldr	r0, [r7, #12]
 1233 005c FFF7FEFF 		bl	atoi
 1234 0060 0346     		mov	r3, r0
 1235 0062 DAB2     		uxtb	r2, r3
 1236 0064 094B     		ldr	r3, .L74+28
 1237 0066 5A70     		strb	r2, [r3, #1]
 1238              	.L73:
 324:modem.c       ****     }
 325:modem.c       **** }
 1239              		.loc 1 325 0
 1240 0068 00BF     		nop
 1241 006a 1037     		adds	r7, r7, #16
 1242              		.cfi_def_cfa_offset 8
ARM GAS  C:\Users\bk\AppData\Local\Temp\ccw7zFaL.s 			page 30


 1243 006c BD46     		mov	sp, r7
 1244              		.cfi_def_cfa_register 13
 1245              		@ sp needed
 1246 006e 80BD     		pop	{r7, pc}
 1247              	.L75:
 1248              		.align	2
 1249              	.L74:
 1250 0070 00000000 		.word	.LC0
 1251 0074 1C020000 		.word	.LC22
 1252 0078 9C010000 		.word	.LC13
 1253 007c A0010000 		.word	.LC14
 1254 0080 00000000 		.word	uart_received_string
 1255 0084 24020000 		.word	.LC23
 1256 0088 38020000 		.word	.LC24
 1257 008c 00000000 		.word	modem_stats
 1258              		.cfi_endproc
 1259              	.LFE79:
 1260              		.size	get_cell_network_stats, .-get_cell_network_stats
 1261              		.section	.text.is_connected_to_cell_network,"ax",%progbits
 1262              		.align	2
 1263              		.global	is_connected_to_cell_network
 1264              		.thumb
 1265              		.thumb_func
 1266              		.type	is_connected_to_cell_network, %function
 1267              	is_connected_to_cell_network:
 1268              	.LFB80:
 326:modem.c       **** 
 327:modem.c       **** uint8 is_connected_to_cell_network(){
 1269              		.loc 1 327 0
 1270              		.cfi_startproc
 1271              		@ args = 0, pretend = 0, frame = 16
 1272              		@ frame_needed = 1, uses_anonymous_args = 0
 1273 0000 80B5     		push	{r7, lr}
 1274              		.cfi_def_cfa_offset 8
 1275              		.cfi_offset 7, -8
 1276              		.cfi_offset 14, -4
 1277 0002 84B0     		sub	sp, sp, #16
 1278              		.cfi_def_cfa_offset 24
 1279 0004 00AF     		add	r7, sp, #0
 1280              		.cfi_def_cfa_register 7
 328:modem.c       ****     //check network status -- need '0,0' response to continue
 329:modem.c       ****     at_write_command("AT+CREG?\r", "OK",DEFAULT_AT_TIMEOUT);
 1281              		.loc 1 329 0
 1282 0006 4FF4FA62 		mov	r2, #2000
 1283 000a 0F49     		ldr	r1, .L80
 1284 000c 0F48     		ldr	r0, .L80+4
 1285 000e FFF7FEFF 		bl	at_write_command
 330:modem.c       ****     
 331:modem.c       ****     char creg[10];
 332:modem.c       ****     extract_string(uart_received_string,": ","\r",creg);
 1286              		.loc 1 332 0
 1287 0012 3B1D     		adds	r3, r7, #4
 1288 0014 0E4A     		ldr	r2, .L80+8
 1289 0016 0F49     		ldr	r1, .L80+12
 1290 0018 0F48     		ldr	r0, .L80+16
 1291 001a FFF7FEFF 		bl	extract_string
 333:modem.c       ****     printNotif(NOTIF_TYPE_EVENT,"Registered to network, CREG: %s",creg);
ARM GAS  C:\Users\bk\AppData\Local\Temp\ccw7zFaL.s 			page 31


 1292              		.loc 1 333 0
 1293 001e 3B1D     		adds	r3, r7, #4
 1294 0020 1A46     		mov	r2, r3
 1295 0022 0E49     		ldr	r1, .L80+20
 1296 0024 0020     		movs	r0, #0
 1297 0026 FFF7FEFF 		bl	printNotif
 334:modem.c       ****    
 335:modem.c       ****     if(strstr(creg,"0,1")!=NULL){
 1298              		.loc 1 335 0
 1299 002a 3B1D     		adds	r3, r7, #4
 1300 002c 0C49     		ldr	r1, .L80+24
 1301 002e 1846     		mov	r0, r3
 1302 0030 FFF7FEFF 		bl	strstr
 1303 0034 0346     		mov	r3, r0
 1304 0036 002B     		cmp	r3, #0
 1305 0038 01D0     		beq	.L77
 336:modem.c       ****         //time_network_connect = getTimeStamp();
 337:modem.c       ****         return 1u;
 1306              		.loc 1 337 0
 1307 003a 0123     		movs	r3, #1
 1308 003c 00E0     		b	.L79
 1309              	.L77:
 338:modem.c       ****     }
 339:modem.c       ****     
 340:modem.c       ****     return 0u;
 1310              		.loc 1 340 0
 1311 003e 0023     		movs	r3, #0
 1312              	.L79:
 341:modem.c       ****         
 342:modem.c       **** }
 1313              		.loc 1 342 0 discriminator 1
 1314 0040 1846     		mov	r0, r3
 1315 0042 1037     		adds	r7, r7, #16
 1316              		.cfi_def_cfa_offset 8
 1317 0044 BD46     		mov	sp, r7
 1318              		.cfi_def_cfa_register 13
 1319              		@ sp needed
 1320 0046 80BD     		pop	{r7, pc}
 1321              	.L81:
 1322              		.align	2
 1323              	.L80:
 1324 0048 00000000 		.word	.LC0
 1325 004c 90010000 		.word	.LC12
 1326 0050 9C010000 		.word	.LC13
 1327 0054 A0010000 		.word	.LC14
 1328 0058 00000000 		.word	uart_received_string
 1329 005c A4010000 		.word	.LC15
 1330 0060 C4010000 		.word	.LC16
 1331              		.cfi_endproc
 1332              	.LFE80:
 1333              		.size	is_connected_to_cell_network, .-is_connected_to_cell_network
 1334              		.section	.rodata
 1335 023a 0000     		.align	2
 1336              	.LC25:
 1337 023c 41542343 		.ascii	"AT#CGMM\015\000"
 1337      474D4D0D 
 1337      00
ARM GAS  C:\Users\bk\AppData\Local\Temp\ccw7zFaL.s 			page 32


 1338 0245 000000   		.align	2
 1339              	.LC26:
 1340 0248 4D6F6465 		.ascii	"Modem Model: %s\000"
 1340      6D204D6F 
 1340      64656C3A 
 1340      20257300 
 1341              		.align	2
 1342              	.LC27:
 1343 0258 41542343 		.ascii	"AT#CCID\015\000"
 1343      4349440D 
 1343      00
 1344 0261 000000   		.align	2
 1345              	.LC28:
 1346 0264 53494D20 		.ascii	"SIM ID: %s\000"
 1346      49443A20 
 1346      257300
 1347 026f 00       		.align	2
 1348              	.LC29:
 1349 0270 41542B43 		.ascii	"AT+CGSN\015\000"
 1349      47534E0D 
 1349      00
 1350 0279 000000   		.align	2
 1351              	.LC30:
 1352 027c 494D4549 		.ascii	"IMEI: %s\000"
 1352      3A202573 
 1352      00
 1353 0285 000000   		.align	2
 1354              	.LC31:
 1355 0288 41542B43 		.ascii	"AT+CGDCONT=1,\"IP\",\"wireless.twilio.com\"\015\012"
 1355      4744434F 
 1355      4E543D31 
 1355      2C224950 
 1355      222C2277 
 1356 02b1 00       		.ascii	"\000"
 1357 02b2 0000     		.align	2
 1358              	.LC32:
 1359 02b4 41542B43 		.ascii	"AT+CFUN?\015\000"
 1359      46554E3F 
 1359      0D00
 1360 02be 0000     		.align	2
 1361              	.LC33:
 1362 02c0 4346554E 		.ascii	"CFUN: %s\000"
 1362      3A202573 
 1362      00
 1363 02c9 000000   		.align	2
 1364              	.LC34:
 1365 02cc 41542B43 		.ascii	"AT+CFUN=1\015\000"
 1365      46554E3D 
 1365      310D00
 1366              		.section	.text.modem_configure_settings,"ax",%progbits
 1367              		.align	2
 1368              		.global	modem_configure_settings
 1369              		.thumb
 1370              		.thumb_func
 1371              		.type	modem_configure_settings, %function
 1372              	modem_configure_settings:
 1373              	.LFB81:
ARM GAS  C:\Users\bk\AppData\Local\Temp\ccw7zFaL.s 			page 33


 343:modem.c       **** 
 344:modem.c       **** 
 345:modem.c       **** void modem_configure_settings(){
 1374              		.loc 1 345 0
 1375              		.cfi_startproc
 1376              		@ args = 0, pretend = 0, frame = 16
 1377              		@ frame_needed = 1, uses_anonymous_args = 0
 1378 0000 80B5     		push	{r7, lr}
 1379              		.cfi_def_cfa_offset 8
 1380              		.cfi_offset 7, -8
 1381              		.cfi_offset 14, -4
 1382 0002 84B0     		sub	sp, sp, #16
 1383              		.cfi_def_cfa_offset 24
 1384 0004 00AF     		add	r7, sp, #0
 1385              		.cfi_def_cfa_register 7
 346:modem.c       ****     
 347:modem.c       ****     //get modem model number
 348:modem.c       ****     if(modem_info.model_id[0] == '\0'){
 1386              		.loc 1 348 0
 1387 0006 3B4B     		ldr	r3, .L89
 1388 0008 1B7D     		ldrb	r3, [r3, #20]	@ zero_extendqisi2
 1389 000a 002B     		cmp	r3, #0
 1390 000c 13D1     		bne	.L83
 349:modem.c       ****         if(at_write_command("AT#CGMM\r","OK",DEFAULT_AT_TIMEOUT)){
 1391              		.loc 1 349 0
 1392 000e 4FF4FA62 		mov	r2, #2000
 1393 0012 3949     		ldr	r1, .L89+4
 1394 0014 3948     		ldr	r0, .L89+8
 1395 0016 FFF7FEFF 		bl	at_write_command
 1396 001a 0346     		mov	r3, r0
 1397 001c 002B     		cmp	r3, #0
 1398 001e 0AD0     		beq	.L83
 350:modem.c       ****             extract_string(uart_received_string,": ","\r",modem_info.model_id);
 1399              		.loc 1 350 0
 1400 0020 374B     		ldr	r3, .L89+12
 1401 0022 384A     		ldr	r2, .L89+16
 1402 0024 3849     		ldr	r1, .L89+20
 1403 0026 3948     		ldr	r0, .L89+24
 1404 0028 FFF7FEFF 		bl	extract_string
 351:modem.c       ****             printNotif(NOTIF_TYPE_EVENT,"Modem Model: %s",modem_info.model_id);
 1405              		.loc 1 351 0
 1406 002c 344A     		ldr	r2, .L89+12
 1407 002e 3849     		ldr	r1, .L89+28
 1408 0030 0020     		movs	r0, #0
 1409 0032 FFF7FEFF 		bl	printNotif
 1410              	.L83:
 352:modem.c       ****         }
 353:modem.c       ****     }
 354:modem.c       ****     
 355:modem.c       ****    //get SIM-card ID
 356:modem.c       ****    if(modem_info.sim_id[0] == '\0'){
 1411              		.loc 1 356 0
 1412 0036 2F4B     		ldr	r3, .L89
 1413 0038 1B78     		ldrb	r3, [r3]	@ zero_extendqisi2
 1414 003a 002B     		cmp	r3, #0
 1415 003c 13D1     		bne	.L84
 357:modem.c       ****         if(at_write_command("AT#CCID\r", "OK", DEFAULT_AT_TIMEOUT)){
ARM GAS  C:\Users\bk\AppData\Local\Temp\ccw7zFaL.s 			page 34


 1416              		.loc 1 357 0
 1417 003e 4FF4FA62 		mov	r2, #2000
 1418 0042 2D49     		ldr	r1, .L89+4
 1419 0044 3348     		ldr	r0, .L89+32
 1420 0046 FFF7FEFF 		bl	at_write_command
 1421 004a 0346     		mov	r3, r0
 1422 004c 002B     		cmp	r3, #0
 1423 004e 0AD0     		beq	.L84
 358:modem.c       ****             extract_string(uart_received_string,": ","\r",modem_info.sim_id);
 1424              		.loc 1 358 0
 1425 0050 284B     		ldr	r3, .L89
 1426 0052 2C4A     		ldr	r2, .L89+16
 1427 0054 2C49     		ldr	r1, .L89+20
 1428 0056 2D48     		ldr	r0, .L89+24
 1429 0058 FFF7FEFF 		bl	extract_string
 359:modem.c       ****             printNotif(NOTIF_TYPE_EVENT,"SIM ID: %s",modem_info.sim_id);
 1430              		.loc 1 359 0
 1431 005c 254A     		ldr	r2, .L89
 1432 005e 2E49     		ldr	r1, .L89+36
 1433 0060 0020     		movs	r0, #0
 1434 0062 FFF7FEFF 		bl	printNotif
 1435              	.L84:
 360:modem.c       ****         }
 361:modem.c       ****    }
 362:modem.c       **** 
 363:modem.c       ****     //getm modem IMEI
 364:modem.c       ****     if(modem_info.imei[0] == '\0'){
 1436              		.loc 1 364 0
 1437 0066 234B     		ldr	r3, .L89
 1438 0068 93F82830 		ldrb	r3, [r3, #40]	@ zero_extendqisi2
 1439 006c 002B     		cmp	r3, #0
 1440 006e 13D1     		bne	.L85
 365:modem.c       ****         if(at_write_command("AT+CGSN\r","OK",DEFAULT_AT_TIMEOUT)){
 1441              		.loc 1 365 0
 1442 0070 4FF4FA62 		mov	r2, #2000
 1443 0074 2049     		ldr	r1, .L89+4
 1444 0076 2948     		ldr	r0, .L89+40
 1445 0078 FFF7FEFF 		bl	at_write_command
 1446 007c 0346     		mov	r3, r0
 1447 007e 002B     		cmp	r3, #0
 1448 0080 0AD0     		beq	.L85
 366:modem.c       ****             extract_string(uart_received_string,": ","\r",modem_info.imei);
 1449              		.loc 1 366 0
 1450 0082 274B     		ldr	r3, .L89+44
 1451 0084 1F4A     		ldr	r2, .L89+16
 1452 0086 2049     		ldr	r1, .L89+20
 1453 0088 2048     		ldr	r0, .L89+24
 1454 008a FFF7FEFF 		bl	extract_string
 367:modem.c       ****             printNotif(NOTIF_TYPE_EVENT,"IMEI: %s",modem_info.imei);
 1455              		.loc 1 367 0
 1456 008e 244A     		ldr	r2, .L89+44
 1457 0090 2449     		ldr	r1, .L89+48
 1458 0092 0020     		movs	r0, #0
 1459 0094 FFF7FEFF 		bl	printNotif
 1460              	.L85:
 368:modem.c       ****         } 
 369:modem.c       ****     }
ARM GAS  C:\Users\bk\AppData\Local\Temp\ccw7zFaL.s 			page 35


 370:modem.c       ****     
 371:modem.c       ****     //configfure protocol and cellular end point
 372:modem.c       ****     at_write_command("AT+CGDCONT=1,\"IP\",\"wireless.twilio.com\"\r\n", "OK", DEFAULT_AT_TIMEOUT);
 1461              		.loc 1 372 0
 1462 0098 4FF4FA62 		mov	r2, #2000
 1463 009c 1649     		ldr	r1, .L89+4
 1464 009e 2248     		ldr	r0, .L89+52
 1465 00a0 FFF7FEFF 		bl	at_write_command
 373:modem.c       ****     
 374:modem.c       ****     //Check if modem power savings is enabled. If so, disable it so we can send data.
 375:modem.c       ****     if(at_write_command("AT+CFUN?\r", "OK",DEFAULT_AT_TIMEOUT)){
 1466              		.loc 1 375 0
 1467 00a4 4FF4FA62 		mov	r2, #2000
 1468 00a8 1349     		ldr	r1, .L89+4
 1469 00aa 2048     		ldr	r0, .L89+56
 1470 00ac FFF7FEFF 		bl	at_write_command
 1471 00b0 0346     		mov	r3, r0
 1472 00b2 002B     		cmp	r3, #0
 1473 00b4 19D0     		beq	.L88
 1474              	.LBB4:
 376:modem.c       ****         char CFUN[10];
 377:modem.c       ****         extract_string(uart_received_string,": ","\r",CFUN);
 1475              		.loc 1 377 0
 1476 00b6 3B1D     		adds	r3, r7, #4
 1477 00b8 124A     		ldr	r2, .L89+16
 1478 00ba 1349     		ldr	r1, .L89+20
 1479 00bc 1348     		ldr	r0, .L89+24
 1480 00be FFF7FEFF 		bl	extract_string
 378:modem.c       ****         printNotif(NOTIF_TYPE_EVENT,"CFUN: %s",CFUN);
 1481              		.loc 1 378 0
 1482 00c2 3B1D     		adds	r3, r7, #4
 1483 00c4 1A46     		mov	r2, r3
 1484 00c6 1A49     		ldr	r1, .L89+60
 1485 00c8 0020     		movs	r0, #0
 1486 00ca FFF7FEFF 		bl	printNotif
 379:modem.c       ****         if(strstr(CFUN,"1") == NULL){
 1487              		.loc 1 379 0
 1488 00ce 3B1D     		adds	r3, r7, #4
 1489 00d0 3121     		movs	r1, #49
 1490 00d2 1846     		mov	r0, r3
 1491 00d4 FFF7FEFF 		bl	strchr
 1492 00d8 0346     		mov	r3, r0
 1493 00da 002B     		cmp	r3, #0
 1494 00dc 05D1     		bne	.L88
 380:modem.c       ****             at_write_command("AT+CFUN=1\r", "OK",DEFAULT_AT_TIMEOUT);
 1495              		.loc 1 380 0
 1496 00de 4FF4FA62 		mov	r2, #2000
 1497 00e2 0549     		ldr	r1, .L89+4
 1498 00e4 1348     		ldr	r0, .L89+64
 1499 00e6 FFF7FEFF 		bl	at_write_command
 1500              	.L88:
 1501              	.LBE4:
 381:modem.c       ****         }
 382:modem.c       ****     }
 383:modem.c       **** 
 384:modem.c       ****     
 385:modem.c       **** }
ARM GAS  C:\Users\bk\AppData\Local\Temp\ccw7zFaL.s 			page 36


 1502              		.loc 1 385 0
 1503 00ea 00BF     		nop
 1504 00ec 1037     		adds	r7, r7, #16
 1505              		.cfi_def_cfa_offset 8
 1506 00ee BD46     		mov	sp, r7
 1507              		.cfi_def_cfa_register 13
 1508              		@ sp needed
 1509 00f0 80BD     		pop	{r7, pc}
 1510              	.L90:
 1511 00f2 00BF     		.align	2
 1512              	.L89:
 1513 00f4 00000000 		.word	modem_info
 1514 00f8 00000000 		.word	.LC0
 1515 00fc 3C020000 		.word	.LC25
 1516 0100 14000000 		.word	modem_info+20
 1517 0104 9C010000 		.word	.LC13
 1518 0108 A0010000 		.word	.LC14
 1519 010c 00000000 		.word	uart_received_string
 1520 0110 48020000 		.word	.LC26
 1521 0114 58020000 		.word	.LC27
 1522 0118 64020000 		.word	.LC28
 1523 011c 70020000 		.word	.LC29
 1524 0120 28000000 		.word	modem_info+40
 1525 0124 7C020000 		.word	.LC30
 1526 0128 88020000 		.word	.LC31
 1527 012c B4020000 		.word	.LC32
 1528 0130 C0020000 		.word	.LC33
 1529 0134 CC020000 		.word	.LC34
 1530              		.cfi_endproc
 1531              	.LFE81:
 1532              		.size	modem_configure_settings, .-modem_configure_settings
 1533              		.text
 1534              	.Letext0:
 1535              		.file 2 "c:\\program files (x86)\\cypress\\psoc creator\\4.3\\psoc creator\\import\\gnu\\arm\\5.4.
 1536              		.file 3 "c:\\program files (x86)\\cypress\\psoc creator\\4.3\\psoc creator\\import\\gnu\\arm\\5.4.
 1537              		.file 4 "Generated_Source\\PSoC5/cytypes.h"
 1538              		.file 5 "testing.h"
 1539              		.file 6 "modem.h"
 1540              		.file 7 "Generated_Source\\PSoC5/core_cm3.h"
 1541              		.file 8 "debug.h"
 1542              		.section	.debug_info,"",%progbits
 1543              	.Ldebug_info0:
 1544 0000 DF050000 		.4byte	0x5df
 1545 0004 0400     		.2byte	0x4
 1546 0006 00000000 		.4byte	.Ldebug_abbrev0
 1547 000a 04       		.byte	0x4
 1548 000b 01       		.uleb128 0x1
 1549 000c A1000000 		.4byte	.LASF84
 1550 0010 0C       		.byte	0xc
 1551 0011 40010000 		.4byte	.LASF85
 1552 0015 70040000 		.4byte	.LASF86
 1553 0019 00000000 		.4byte	.Ldebug_ranges0+0
 1554 001d 00000000 		.4byte	0
 1555 0021 00000000 		.4byte	.Ldebug_line0
 1556 0025 02       		.uleb128 0x2
 1557 0026 01       		.byte	0x1
 1558 0027 06       		.byte	0x6
ARM GAS  C:\Users\bk\AppData\Local\Temp\ccw7zFaL.s 			page 37


 1559 0028 C4020000 		.4byte	.LASF0
 1560 002c 03       		.uleb128 0x3
 1561 002d FF010000 		.4byte	.LASF4
 1562 0031 02       		.byte	0x2
 1563 0032 1D       		.byte	0x1d
 1564 0033 37000000 		.4byte	0x37
 1565 0037 02       		.uleb128 0x2
 1566 0038 01       		.byte	0x1
 1567 0039 08       		.byte	0x8
 1568 003a 8E020000 		.4byte	.LASF1
 1569 003e 02       		.uleb128 0x2
 1570 003f 02       		.byte	0x2
 1571 0040 05       		.byte	0x5
 1572 0041 65000000 		.4byte	.LASF2
 1573 0045 02       		.uleb128 0x2
 1574 0046 02       		.byte	0x2
 1575 0047 07       		.byte	0x7
 1576 0048 16030000 		.4byte	.LASF3
 1577 004c 03       		.uleb128 0x3
 1578 004d F4030000 		.4byte	.LASF5
 1579 0051 02       		.byte	0x2
 1580 0052 3F       		.byte	0x3f
 1581 0053 57000000 		.4byte	0x57
 1582 0057 02       		.uleb128 0x2
 1583 0058 04       		.byte	0x4
 1584 0059 05       		.byte	0x5
 1585 005a C6010000 		.4byte	.LASF6
 1586 005e 03       		.uleb128 0x3
 1587 005f 2F010000 		.4byte	.LASF7
 1588 0063 02       		.byte	0x2
 1589 0064 41       		.byte	0x41
 1590 0065 69000000 		.4byte	0x69
 1591 0069 02       		.uleb128 0x2
 1592 006a 04       		.byte	0x4
 1593 006b 07       		.byte	0x7
 1594 006c AE030000 		.4byte	.LASF8
 1595 0070 02       		.uleb128 0x2
 1596 0071 08       		.byte	0x8
 1597 0072 05       		.byte	0x5
 1598 0073 9F010000 		.4byte	.LASF9
 1599 0077 02       		.uleb128 0x2
 1600 0078 08       		.byte	0x8
 1601 0079 07       		.byte	0x7
 1602 007a D0020000 		.4byte	.LASF10
 1603 007e 04       		.uleb128 0x4
 1604 007f 04       		.byte	0x4
 1605 0080 05       		.byte	0x5
 1606 0081 696E7400 		.ascii	"int\000"
 1607 0085 02       		.uleb128 0x2
 1608 0086 04       		.byte	0x4
 1609 0087 07       		.byte	0x7
 1610 0088 F0020000 		.4byte	.LASF11
 1611 008c 03       		.uleb128 0x3
 1612 008d 57010000 		.4byte	.LASF12
 1613 0091 03       		.byte	0x3
 1614 0092 18       		.byte	0x18
 1615 0093 2C000000 		.4byte	0x2c
ARM GAS  C:\Users\bk\AppData\Local\Temp\ccw7zFaL.s 			page 38


 1616 0097 03       		.uleb128 0x3
 1617 0098 67030000 		.4byte	.LASF13
 1618 009c 03       		.byte	0x3
 1619 009d 2C       		.byte	0x2c
 1620 009e 4C000000 		.4byte	0x4c
 1621 00a2 03       		.uleb128 0x3
 1622 00a3 E7020000 		.4byte	.LASF14
 1623 00a7 03       		.byte	0x3
 1624 00a8 30       		.byte	0x30
 1625 00a9 5E000000 		.4byte	0x5e
 1626 00ad 05       		.uleb128 0x5
 1627 00ae 7D030000 		.4byte	.LASF15
 1628 00b2 04       		.byte	0x4
 1629 00b3 E401     		.2byte	0x1e4
 1630 00b5 37000000 		.4byte	0x37
 1631 00b9 05       		.uleb128 0x5
 1632 00ba A7030000 		.4byte	.LASF16
 1633 00be 04       		.byte	0x4
 1634 00bf E601     		.2byte	0x1e6
 1635 00c1 69000000 		.4byte	0x69
 1636 00c5 05       		.uleb128 0x5
 1637 00c6 38040000 		.4byte	.LASF17
 1638 00ca 04       		.byte	0x4
 1639 00cb E901     		.2byte	0x1e9
 1640 00cd 57000000 		.4byte	0x57
 1641 00d1 02       		.uleb128 0x2
 1642 00d2 04       		.byte	0x4
 1643 00d3 04       		.byte	0x4
 1644 00d4 88010000 		.4byte	.LASF18
 1645 00d8 02       		.uleb128 0x2
 1646 00d9 08       		.byte	0x8
 1647 00da 04       		.byte	0x4
 1648 00db CB030000 		.4byte	.LASF19
 1649 00df 02       		.uleb128 0x2
 1650 00e0 01       		.byte	0x1
 1651 00e1 08       		.byte	0x8
 1652 00e2 AD010000 		.4byte	.LASF20
 1653 00e6 02       		.uleb128 0x2
 1654 00e7 08       		.byte	0x8
 1655 00e8 04       		.byte	0x4
 1656 00e9 6A020000 		.4byte	.LASF21
 1657 00ed 02       		.uleb128 0x2
 1658 00ee 04       		.byte	0x4
 1659 00ef 07       		.byte	0x7
 1660 00f0 6F000000 		.4byte	.LASF22
 1661 00f4 06       		.uleb128 0x6
 1662 00f5 04       		.byte	0x4
 1663 00f6 DF000000 		.4byte	0xdf
 1664 00fa 06       		.uleb128 0x6
 1665 00fb 04       		.byte	0x4
 1666 00fc 00010000 		.4byte	0x100
 1667 0100 07       		.uleb128 0x7
 1668 0101 DF000000 		.4byte	0xdf
 1669 0105 08       		.uleb128 0x8
 1670 0106 8101     		.2byte	0x181
 1671 0108 05       		.byte	0x5
 1672 0109 0A       		.byte	0xa
ARM GAS  C:\Users\bk\AppData\Local\Temp\ccw7zFaL.s 			page 39


 1673 010a 33010000 		.4byte	0x133
 1674 010e 09       		.uleb128 0x9
 1675 010f 83030000 		.4byte	.LASF23
 1676 0113 05       		.byte	0x5
 1677 0114 0B       		.byte	0xb
 1678 0115 33010000 		.4byte	0x133
 1679 0119 00       		.byte	0
 1680 011a 09       		.uleb128 0x9
 1681 011b 41030000 		.4byte	.LASF24
 1682 011f 05       		.byte	0x5
 1683 0120 0C       		.byte	0xc
 1684 0121 AD000000 		.4byte	0xad
 1685 0125 80       		.byte	0x80
 1686 0126 09       		.uleb128 0x9
 1687 0127 BF010000 		.4byte	.LASF25
 1688 012b 05       		.byte	0x5
 1689 012c 0D       		.byte	0xd
 1690 012d 43010000 		.4byte	0x143
 1691 0131 81       		.byte	0x81
 1692 0132 00       		.byte	0
 1693 0133 0A       		.uleb128 0xa
 1694 0134 DF000000 		.4byte	0xdf
 1695 0138 43010000 		.4byte	0x143
 1696 013c 0B       		.uleb128 0xb
 1697 013d ED000000 		.4byte	0xed
 1698 0141 7F       		.byte	0x7f
 1699 0142 00       		.byte	0
 1700 0143 0A       		.uleb128 0xa
 1701 0144 DF000000 		.4byte	0xdf
 1702 0148 53010000 		.4byte	0x153
 1703 014c 0B       		.uleb128 0xb
 1704 014d ED000000 		.4byte	0xed
 1705 0151 FF       		.byte	0xff
 1706 0152 00       		.byte	0
 1707 0153 03       		.uleb128 0x3
 1708 0154 5B030000 		.4byte	.LASF26
 1709 0158 05       		.byte	0x5
 1710 0159 0E       		.byte	0xe
 1711 015a 05010000 		.4byte	0x105
 1712 015e 0C       		.uleb128 0xc
 1713 015f 3C       		.byte	0x3c
 1714 0160 06       		.byte	0x6
 1715 0161 20       		.byte	0x20
 1716 0162 8B010000 		.4byte	0x18b
 1717 0166 09       		.uleb128 0x9
 1718 0167 0F000000 		.4byte	.LASF27
 1719 016b 06       		.byte	0x6
 1720 016c 21       		.byte	0x21
 1721 016d 8B010000 		.4byte	0x18b
 1722 0171 00       		.byte	0
 1723 0172 09       		.uleb128 0x9
 1724 0173 06000000 		.4byte	.LASF28
 1725 0177 06       		.byte	0x6
 1726 0178 22       		.byte	0x22
 1727 0179 8B010000 		.4byte	0x18b
 1728 017d 14       		.byte	0x14
 1729 017e 09       		.uleb128 0x9
ARM GAS  C:\Users\bk\AppData\Local\Temp\ccw7zFaL.s 			page 40


 1730 017f 62030000 		.4byte	.LASF29
 1731 0183 06       		.byte	0x6
 1732 0184 23       		.byte	0x23
 1733 0185 8B010000 		.4byte	0x18b
 1734 0189 28       		.byte	0x28
 1735 018a 00       		.byte	0
 1736 018b 0A       		.uleb128 0xa
 1737 018c DF000000 		.4byte	0xdf
 1738 0190 9B010000 		.4byte	0x19b
 1739 0194 0B       		.uleb128 0xb
 1740 0195 ED000000 		.4byte	0xed
 1741 0199 13       		.byte	0x13
 1742 019a 00       		.byte	0
 1743 019b 03       		.uleb128 0x3
 1744 019c B2010000 		.4byte	.LASF30
 1745 01a0 06       		.byte	0x6
 1746 01a1 24       		.byte	0x24
 1747 01a2 5E010000 		.4byte	0x15e
 1748 01a6 0C       		.uleb128 0xc
 1749 01a7 0C       		.byte	0xc
 1750 01a8 06       		.byte	0x6
 1751 01a9 26       		.byte	0x26
 1752 01aa DE010000 		.4byte	0x1de
 1753 01ae 09       		.uleb128 0x9
 1754 01af 2F020000 		.4byte	.LASF31
 1755 01b3 06       		.byte	0x6
 1756 01b4 27       		.byte	0x27
 1757 01b5 AD000000 		.4byte	0xad
 1758 01b9 00       		.byte	0
 1759 01ba 0D       		.uleb128 0xd
 1760 01bb 737100   		.ascii	"sq\000"
 1761 01be 06       		.byte	0x6
 1762 01bf 28       		.byte	0x28
 1763 01c0 AD000000 		.4byte	0xad
 1764 01c4 01       		.byte	0x1
 1765 01c5 09       		.uleb128 0x9
 1766 01c6 29030000 		.4byte	.LASF32
 1767 01ca 06       		.byte	0x6
 1768 01cb 29       		.byte	0x29
 1769 01cc 7E000000 		.4byte	0x7e
 1770 01d0 04       		.byte	0x4
 1771 01d1 09       		.uleb128 0x9
 1772 01d2 48030000 		.4byte	.LASF33
 1773 01d6 06       		.byte	0x6
 1774 01d7 2A       		.byte	0x2a
 1775 01d8 7E000000 		.4byte	0x7e
 1776 01dc 08       		.byte	0x8
 1777 01dd 00       		.byte	0
 1778 01de 03       		.uleb128 0x3
 1779 01df 6F030000 		.4byte	.LASF34
 1780 01e3 06       		.byte	0x6
 1781 01e4 2B       		.byte	0x2b
 1782 01e5 A6010000 		.4byte	0x1a6
 1783 01e9 0E       		.uleb128 0xe
 1784 01ea 8D030000 		.4byte	.LASF70
 1785 01ee 01       		.byte	0x1
 1786 01ef 0E       		.byte	0xe
ARM GAS  C:\Users\bk\AppData\Local\Temp\ccw7zFaL.s 			page 41


 1787 01f0 00000000 		.4byte	.LFB64
 1788 01f4 3C000000 		.4byte	.LFE64-.LFB64
 1789 01f8 01       		.uleb128 0x1
 1790 01f9 9C       		.byte	0x9c
 1791 01fa 0F       		.uleb128 0xf
 1792 01fb 79010000 		.4byte	.LASF35
 1793 01ff 01       		.byte	0x1
 1794 0200 17       		.byte	0x17
 1795 0201 00000000 		.4byte	.LFB65
 1796 0205 4C000000 		.4byte	.LFE65-.LFB65
 1797 0209 01       		.uleb128 0x1
 1798 020a 9C       		.byte	0x9c
 1799 020b 0F       		.uleb128 0xf
 1800 020c E4040000 		.4byte	.LASF36
 1801 0210 01       		.byte	0x1
 1802 0211 29       		.byte	0x29
 1803 0212 00000000 		.4byte	.LFB66
 1804 0216 32000000 		.4byte	.LFE66-.LFB66
 1805 021a 01       		.uleb128 0x1
 1806 021b 9C       		.byte	0x9c
 1807 021c 0F       		.uleb128 0xf
 1808 021d E9010000 		.4byte	.LASF37
 1809 0221 01       		.byte	0x1
 1810 0222 3B       		.byte	0x3b
 1811 0223 00000000 		.4byte	.LFB67
 1812 0227 20000000 		.4byte	.LFE67-.LFB67
 1813 022b 01       		.uleb128 0x1
 1814 022c 9C       		.byte	0x9c
 1815 022d 0F       		.uleb128 0xf
 1816 022e 34020000 		.4byte	.LASF38
 1817 0232 01       		.byte	0x1
 1818 0233 43       		.byte	0x43
 1819 0234 00000000 		.4byte	.LFB68
 1820 0238 40000000 		.4byte	.LFE68-.LFB68
 1821 023c 01       		.uleb128 0x1
 1822 023d 9C       		.byte	0x9c
 1823 023e 10       		.uleb128 0x10
 1824 023f 48010000 		.4byte	.LASF50
 1825 0243 01       		.byte	0x1
 1826 0244 53       		.byte	0x53
 1827 0245 AD000000 		.4byte	0xad
 1828 0249 00000000 		.4byte	.LFB69
 1829 024d A0000000 		.4byte	.LFE69-.LFB69
 1830 0251 01       		.uleb128 0x1
 1831 0252 9C       		.byte	0x9c
 1832 0253 8C020000 		.4byte	0x28c
 1833 0257 11       		.uleb128 0x11
 1834 0258 3E040000 		.4byte	.LASF39
 1835 025c 01       		.byte	0x1
 1836 025d 5C       		.byte	0x5c
 1837 025e AD000000 		.4byte	0xad
 1838 0262 02       		.uleb128 0x2
 1839 0263 91       		.byte	0x91
 1840 0264 77       		.sleb128 -9
 1841 0265 11       		.uleb128 0x11
 1842 0266 45020000 		.4byte	.LASF40
 1843 026a 01       		.byte	0x1
ARM GAS  C:\Users\bk\AppData\Local\Temp\ccw7zFaL.s 			page 42


 1844 026b 5D       		.byte	0x5d
 1845 026c AD000000 		.4byte	0xad
 1846 0270 02       		.uleb128 0x2
 1847 0271 91       		.byte	0x91
 1848 0272 75       		.sleb128 -11
 1849 0273 12       		.uleb128 0x12
 1850 0274 20000000 		.4byte	.LBB2
 1851 0278 2E000000 		.4byte	.LBE2-.LBB2
 1852 027c 11       		.uleb128 0x11
 1853 027d 45020000 		.4byte	.LASF40
 1854 0281 01       		.byte	0x1
 1855 0282 5F       		.byte	0x5f
 1856 0283 AD000000 		.4byte	0xad
 1857 0287 02       		.uleb128 0x2
 1858 0288 91       		.byte	0x91
 1859 0289 76       		.sleb128 -10
 1860 028a 00       		.byte	0
 1861 028b 00       		.byte	0
 1862 028c 0F       		.uleb128 0xf
 1863 028d 78000000 		.4byte	.LASF41
 1864 0291 01       		.byte	0x1
 1865 0292 74       		.byte	0x74
 1866 0293 00000000 		.4byte	.LFB70
 1867 0297 1C000000 		.4byte	.LFE70-.LFB70
 1868 029b 01       		.uleb128 0x1
 1869 029c 9C       		.byte	0x9c
 1870 029d 0F       		.uleb128 0xf
 1871 029e 8F000000 		.4byte	.LASF42
 1872 02a2 01       		.byte	0x1
 1873 02a3 7C       		.byte	0x7c
 1874 02a4 00000000 		.4byte	.LFB71
 1875 02a8 28000000 		.4byte	.LFE71-.LFB71
 1876 02ac 01       		.uleb128 0x1
 1877 02ad 9C       		.byte	0x9c
 1878 02ae 13       		.uleb128 0x13
 1879 02af 09020000 		.4byte	.LASF60
 1880 02b3 01       		.byte	0x1
 1881 02b4 82       		.byte	0x82
 1882 02b5 8C000000 		.4byte	0x8c
 1883 02b9 00000000 		.4byte	.LFB72
 1884 02bd CC000000 		.4byte	.LFE72-.LFB72
 1885 02c1 01       		.uleb128 0x1
 1886 02c2 9C       		.byte	0x9c
 1887 02c3 40030000 		.4byte	0x340
 1888 02c7 14       		.uleb128 0x14
 1889 02c8 5F010000 		.4byte	.LASF43
 1890 02cc 01       		.byte	0x1
 1891 02cd 82       		.byte	0x82
 1892 02ce F4000000 		.4byte	0xf4
 1893 02d2 02       		.uleb128 0x2
 1894 02d3 91       		.byte	0x91
 1895 02d4 5C       		.sleb128 -36
 1896 02d5 14       		.uleb128 0x14
 1897 02d6 16000000 		.4byte	.LASF44
 1898 02da 01       		.byte	0x1
 1899 02db 82       		.byte	0x82
 1900 02dc F4000000 		.4byte	0xf4
ARM GAS  C:\Users\bk\AppData\Local\Temp\ccw7zFaL.s 			page 43


 1901 02e0 02       		.uleb128 0x2
 1902 02e1 91       		.byte	0x91
 1903 02e2 58       		.sleb128 -40
 1904 02e3 14       		.uleb128 0x14
 1905 02e4 9F030000 		.4byte	.LASF45
 1906 02e8 01       		.byte	0x1
 1907 02e9 82       		.byte	0x82
 1908 02ea A2000000 		.4byte	0xa2
 1909 02ee 02       		.uleb128 0x2
 1910 02ef 91       		.byte	0x91
 1911 02f0 54       		.sleb128 -44
 1912 02f1 11       		.uleb128 0x11
 1913 02f2 BE040000 		.4byte	.LASF46
 1914 02f6 01       		.byte	0x1
 1915 02f7 84       		.byte	0x84
 1916 02f8 B9000000 		.4byte	0xb9
 1917 02fc 02       		.uleb128 0x2
 1918 02fd 91       		.byte	0x91
 1919 02fe 74       		.sleb128 -12
 1920 02ff 12       		.uleb128 0x12
 1921 0300 16000000 		.4byte	.LBB3
 1922 0304 80000000 		.4byte	.LBE3-.LBB3
 1923 0308 11       		.uleb128 0x11
 1924 0309 68010000 		.4byte	.LASF47
 1925 030d 01       		.byte	0x1
 1926 030e 88       		.byte	0x88
 1927 030f F4000000 		.4byte	0xf4
 1928 0313 02       		.uleb128 0x2
 1929 0314 91       		.byte	0x91
 1930 0315 64       		.sleb128 -28
 1931 0316 11       		.uleb128 0x11
 1932 0317 3A010000 		.4byte	.LASF48
 1933 031b 01       		.byte	0x1
 1934 031c 89       		.byte	0x89
 1935 031d A2000000 		.4byte	0xa2
 1936 0321 02       		.uleb128 0x2
 1937 0322 91       		.byte	0x91
 1938 0323 6C       		.sleb128 -20
 1939 0324 15       		.uleb128 0x15
 1940 0325 6900     		.ascii	"i\000"
 1941 0327 01       		.byte	0x1
 1942 0328 8A       		.byte	0x8a
 1943 0329 A2000000 		.4byte	0xa2
 1944 032d 02       		.uleb128 0x2
 1945 032e 91       		.byte	0x91
 1946 032f 70       		.sleb128 -16
 1947 0330 11       		.uleb128 0x11
 1948 0331 DE030000 		.4byte	.LASF49
 1949 0335 01       		.byte	0x1
 1950 0336 8A       		.byte	0x8a
 1951 0337 A2000000 		.4byte	0xa2
 1952 033b 02       		.uleb128 0x2
 1953 033c 91       		.byte	0x91
 1954 033d 68       		.sleb128 -24
 1955 033e 00       		.byte	0
 1956 033f 00       		.byte	0
 1957 0340 10       		.uleb128 0x10
ARM GAS  C:\Users\bk\AppData\Local\Temp\ccw7zFaL.s 			page 44


 1958 0341 C0030000 		.4byte	.LASF51
 1959 0345 01       		.byte	0x1
 1960 0346 AA       		.byte	0xaa
 1961 0347 53010000 		.4byte	0x153
 1962 034b 00000000 		.4byte	.LFB73
 1963 034f 8C000000 		.4byte	.LFE73-.LFB73
 1964 0353 01       		.uleb128 0x1
 1965 0354 9C       		.byte	0x9c
 1966 0355 CD030000 		.4byte	0x3cd
 1967 0359 11       		.uleb128 0x11
 1968 035a 9A030000 		.4byte	.LASF52
 1969 035e 01       		.byte	0x1
 1970 035f AC       		.byte	0xac
 1971 0360 53010000 		.4byte	0x153
 1972 0364 03       		.uleb128 0x3
 1973 0365 91       		.byte	0x91
 1974 0366 E47C     		.sleb128 -412
 1975 0368 11       		.uleb128 0x11
 1976 0369 28000000 		.4byte	.LASF53
 1977 036d 01       		.byte	0x1
 1978 036e B0       		.byte	0xb0
 1979 036f B9000000 		.4byte	0xb9
 1980 0373 02       		.uleb128 0x2
 1981 0374 91       		.byte	0x91
 1982 0375 70       		.sleb128 -16
 1983 0376 11       		.uleb128 0x11
 1984 0377 13040000 		.4byte	.LASF54
 1985 037b 01       		.byte	0x1
 1986 037c B0       		.byte	0xb0
 1987 037d B9000000 		.4byte	0xb9
 1988 0381 02       		.uleb128 0x2
 1989 0382 91       		.byte	0x91
 1990 0383 6C       		.sleb128 -20
 1991 0384 11       		.uleb128 0x11
 1992 0385 28040000 		.4byte	.LASF55
 1993 0389 01       		.byte	0x1
 1994 038a B0       		.byte	0xb0
 1995 038b B9000000 		.4byte	0xb9
 1996 038f 02       		.uleb128 0x2
 1997 0390 91       		.byte	0x91
 1998 0391 74       		.sleb128 -12
 1999 0392 16       		.uleb128 0x16
 2000 0393 0D040000 		.4byte	.LASF56
 2001 0397 01       		.byte	0x1
 2002 0398 B3       		.byte	0xb3
 2003 0399 F4000000 		.4byte	0xf4
 2004 039d 17       		.uleb128 0x17
 2005 039e 53494D00 		.ascii	"SIM\000"
 2006 03a2 01       		.byte	0x1
 2007 03a3 B4       		.byte	0xb4
 2008 03a4 F4000000 		.4byte	0xf4
 2009 03a8 16       		.uleb128 0x16
 2010 03a9 E4010000 		.4byte	.LASF57
 2011 03ad 01       		.byte	0x1
 2012 03ae B5       		.byte	0xb5
 2013 03af F4000000 		.4byte	0xf4
 2014 03b3 16       		.uleb128 0x16
ARM GAS  C:\Users\bk\AppData\Local\Temp\ccw7zFaL.s 			page 45


 2015 03b4 B9040000 		.4byte	.LASF58
 2016 03b8 01       		.byte	0x1
 2017 03b9 B8       		.byte	0xb8
 2018 03ba F4000000 		.4byte	0xf4
 2019 03be 11       		.uleb128 0x11
 2020 03bf 60040000 		.4byte	.LASF59
 2021 03c3 01       		.byte	0x1
 2022 03c4 BE       		.byte	0xbe
 2023 03c5 B9000000 		.4byte	0xb9
 2024 03c9 02       		.uleb128 0x2
 2025 03ca 91       		.byte	0x91
 2026 03cb 68       		.sleb128 -24
 2027 03cc 00       		.byte	0
 2028 03cd 13       		.uleb128 0x13
 2029 03ce FE030000 		.4byte	.LASF61
 2030 03d2 01       		.byte	0x1
 2031 03d3 D2       		.byte	0xd2
 2032 03d4 AD000000 		.4byte	0xad
 2033 03d8 00000000 		.4byte	.LFB74
 2034 03dc 78000000 		.4byte	.LFE74-.LFB74
 2035 03e0 01       		.uleb128 0x1
 2036 03e1 9C       		.byte	0x9c
 2037 03e2 37040000 		.4byte	0x437
 2038 03e6 14       		.uleb128 0x14
 2039 03e7 FC040000 		.4byte	.LASF62
 2040 03eb 01       		.byte	0x1
 2041 03ec D2       		.byte	0xd2
 2042 03ed F4000000 		.4byte	0xf4
 2043 03f1 02       		.uleb128 0x2
 2044 03f2 91       		.byte	0x91
 2045 03f3 6C       		.sleb128 -20
 2046 03f4 14       		.uleb128 0x14
 2047 03f5 D2030000 		.4byte	.LASF63
 2048 03f9 01       		.byte	0x1
 2049 03fa D2       		.byte	0xd2
 2050 03fb FA000000 		.4byte	0xfa
 2051 03ff 02       		.uleb128 0x2
 2052 0400 91       		.byte	0x91
 2053 0401 68       		.sleb128 -24
 2054 0402 14       		.uleb128 0x14
 2055 0403 CF010000 		.4byte	.LASF64
 2056 0407 01       		.byte	0x1
 2057 0408 D2       		.byte	0xd2
 2058 0409 FA000000 		.4byte	0xfa
 2059 040d 02       		.uleb128 0x2
 2060 040e 91       		.byte	0x91
 2061 040f 64       		.sleb128 -28
 2062 0410 14       		.uleb128 0x14
 2063 0411 5E000000 		.4byte	.LASF65
 2064 0415 01       		.byte	0x1
 2065 0416 D2       		.byte	0xd2
 2066 0417 F4000000 		.4byte	0xf4
 2067 041b 02       		.uleb128 0x2
 2068 041c 91       		.byte	0x91
 2069 041d 60       		.sleb128 -32
 2070 041e 15       		.uleb128 0x15
 2071 041f 6100     		.ascii	"a\000"
ARM GAS  C:\Users\bk\AppData\Local\Temp\ccw7zFaL.s 			page 46


 2072 0421 01       		.byte	0x1
 2073 0422 D4       		.byte	0xd4
 2074 0423 F4000000 		.4byte	0xf4
 2075 0427 02       		.uleb128 0x2
 2076 0428 91       		.byte	0x91
 2077 0429 74       		.sleb128 -12
 2078 042a 15       		.uleb128 0x15
 2079 042b 6200     		.ascii	"b\000"
 2080 042d 01       		.byte	0x1
 2081 042e D4       		.byte	0xd4
 2082 042f F4000000 		.4byte	0xf4
 2083 0433 02       		.uleb128 0x2
 2084 0434 91       		.byte	0x91
 2085 0435 70       		.sleb128 -16
 2086 0436 00       		.byte	0
 2087 0437 0F       		.uleb128 0xf
 2088 0438 01050000 		.4byte	.LASF66
 2089 043c 01       		.byte	0x1
 2090 043d EF       		.byte	0xef
 2091 043e 00000000 		.4byte	.LFB75
 2092 0442 B0000000 		.4byte	.LFE75-.LFB75
 2093 0446 01       		.uleb128 0x1
 2094 0447 9C       		.byte	0x9c
 2095 0448 18       		.uleb128 0x18
 2096 0449 76020000 		.4byte	.LASF67
 2097 044d 01       		.byte	0x1
 2098 044e 0F01     		.2byte	0x10f
 2099 0450 AD000000 		.4byte	0xad
 2100 0454 00000000 		.4byte	.LFB76
 2101 0458 64000000 		.4byte	.LFE76-.LFB76
 2102 045c 01       		.uleb128 0x1
 2103 045d 9C       		.byte	0x9c
 2104 045e 72040000 		.4byte	0x472
 2105 0462 19       		.uleb128 0x19
 2106 0463 B3020000 		.4byte	.LASF68
 2107 0467 01       		.byte	0x1
 2108 0468 1301     		.2byte	0x113
 2109 046a 72040000 		.4byte	0x472
 2110 046e 02       		.uleb128 0x2
 2111 046f 91       		.byte	0x91
 2112 0470 6C       		.sleb128 -20
 2113 0471 00       		.byte	0
 2114 0472 0A       		.uleb128 0xa
 2115 0473 DF000000 		.4byte	0xdf
 2116 0477 82040000 		.4byte	0x482
 2117 047b 0B       		.uleb128 0xb
 2118 047c ED000000 		.4byte	0xed
 2119 0480 09       		.byte	0x9
 2120 0481 00       		.byte	0
 2121 0482 1A       		.uleb128 0x1a
 2122 0483 C9040000 		.4byte	.LASF69
 2123 0487 01       		.byte	0x1
 2124 0488 2001     		.2byte	0x120
 2125 048a 00000000 		.4byte	.LFB77
 2126 048e 3C000000 		.4byte	.LFE77-.LFB77
 2127 0492 01       		.uleb128 0x1
 2128 0493 9C       		.byte	0x9c
ARM GAS  C:\Users\bk\AppData\Local\Temp\ccw7zFaL.s 			page 47


 2129 0494 1B       		.uleb128 0x1b
 2130 0495 45000000 		.4byte	.LASF71
 2131 0499 01       		.byte	0x1
 2132 049a 2B01     		.2byte	0x12b
 2133 049c AD000000 		.4byte	0xad
 2134 04a0 00000000 		.4byte	.LFB78
 2135 04a4 28000000 		.4byte	.LFE78-.LFB78
 2136 04a8 01       		.uleb128 0x1
 2137 04a9 9C       		.byte	0x9c
 2138 04aa 1C       		.uleb128 0x1c
 2139 04ab 9C020000 		.4byte	.LASF74
 2140 04af 01       		.byte	0x1
 2141 04b0 3501     		.2byte	0x135
 2142 04b2 00000000 		.4byte	.LFB79
 2143 04b6 90000000 		.4byte	.LFE79-.LFB79
 2144 04ba 01       		.uleb128 0x1
 2145 04bb 9C       		.byte	0x9c
 2146 04bc DF040000 		.4byte	0x4df
 2147 04c0 1D       		.uleb128 0x1d
 2148 04c1 63737100 		.ascii	"csq\000"
 2149 04c5 01       		.byte	0x1
 2150 04c6 3801     		.2byte	0x138
 2151 04c8 72040000 		.4byte	0x472
 2152 04cc 02       		.uleb128 0x2
 2153 04cd 91       		.byte	0x91
 2154 04ce 68       		.sleb128 -24
 2155 04cf 19       		.uleb128 0x19
 2156 04d0 00000000 		.4byte	.LASF72
 2157 04d4 01       		.byte	0x1
 2158 04d5 3C01     		.2byte	0x13c
 2159 04d7 F4000000 		.4byte	0xf4
 2160 04db 02       		.uleb128 0x2
 2161 04dc 91       		.byte	0x91
 2162 04dd 74       		.sleb128 -12
 2163 04de 00       		.byte	0
 2164 04df 18       		.uleb128 0x18
 2165 04e0 4D020000 		.4byte	.LASF73
 2166 04e4 01       		.byte	0x1
 2167 04e5 4701     		.2byte	0x147
 2168 04e7 AD000000 		.4byte	0xad
 2169 04eb 00000000 		.4byte	.LFB80
 2170 04ef 64000000 		.4byte	.LFE80-.LFB80
 2171 04f3 01       		.uleb128 0x1
 2172 04f4 9C       		.byte	0x9c
 2173 04f5 09050000 		.4byte	0x509
 2174 04f9 19       		.uleb128 0x19
 2175 04fa B3020000 		.4byte	.LASF68
 2176 04fe 01       		.byte	0x1
 2177 04ff 4B01     		.2byte	0x14b
 2178 0501 72040000 		.4byte	0x472
 2179 0505 02       		.uleb128 0x2
 2180 0506 91       		.byte	0x91
 2181 0507 6C       		.sleb128 -20
 2182 0508 00       		.byte	0
 2183 0509 1C       		.uleb128 0x1c
 2184 050a 47040000 		.4byte	.LASF75
 2185 050e 01       		.byte	0x1
ARM GAS  C:\Users\bk\AppData\Local\Temp\ccw7zFaL.s 			page 48


 2186 050f 5901     		.2byte	0x159
 2187 0511 00000000 		.4byte	.LFB81
 2188 0515 38010000 		.4byte	.LFE81-.LFB81
 2189 0519 01       		.uleb128 0x1
 2190 051a 9C       		.byte	0x9c
 2191 051b 39050000 		.4byte	0x539
 2192 051f 12       		.uleb128 0x12
 2193 0520 B6000000 		.4byte	.LBB4
 2194 0524 34000000 		.4byte	.LBE4-.LBB4
 2195 0528 19       		.uleb128 0x19
 2196 0529 B9040000 		.4byte	.LASF58
 2197 052d 01       		.byte	0x1
 2198 052e 7801     		.2byte	0x178
 2199 0530 72040000 		.4byte	0x472
 2200 0534 02       		.uleb128 0x2
 2201 0535 91       		.byte	0x91
 2202 0536 6C       		.sleb128 -20
 2203 0537 00       		.byte	0
 2204 0538 00       		.byte	0
 2205 0539 1E       		.uleb128 0x1e
 2206 053a E7030000 		.4byte	.LASF76
 2207 053e 07       		.byte	0x7
 2208 053f 1207     		.2byte	0x712
 2209 0541 45050000 		.4byte	0x545
 2210 0545 1F       		.uleb128 0x1f
 2211 0546 97000000 		.4byte	0x97
 2212 054a 20       		.uleb128 0x20
 2213 054b B8020000 		.4byte	.LASF77
 2214 054f 06       		.byte	0x6
 2215 0550 0E       		.byte	0xe
 2216 0551 AD000000 		.4byte	0xad
 2217 0555 05       		.uleb128 0x5
 2218 0556 03       		.byte	0x3
 2219 0557 00000000 		.4byte	modem_state
 2220 055b 20       		.uleb128 0x20
 2221 055c 8E010000 		.4byte	.LASF78
 2222 0560 06       		.byte	0x6
 2223 0561 2D       		.byte	0x2d
 2224 0562 C5000000 		.4byte	0xc5
 2225 0566 05       		.uleb128 0x5
 2226 0567 03       		.byte	0x3
 2227 0568 00000000 		.4byte	modem_time_stamp
 2228 056c 20       		.uleb128 0x20
 2229 056d D9010000 		.4byte	.LASF79
 2230 0571 06       		.byte	0x6
 2231 0572 2E       		.byte	0x2e
 2232 0573 9B010000 		.4byte	0x19b
 2233 0577 05       		.uleb128 0x5
 2234 0578 03       		.byte	0x3
 2235 0579 00000000 		.4byte	modem_info
 2236 057d 20       		.uleb128 0x20
 2237 057e 0A030000 		.4byte	.LASF80
 2238 0582 06       		.byte	0x6
 2239 0583 2F       		.byte	0x2f
 2240 0584 DE010000 		.4byte	0x1de
 2241 0588 05       		.uleb128 0x5
 2242 0589 03       		.byte	0x3
ARM GAS  C:\Users\bk\AppData\Local\Temp\ccw7zFaL.s 			page 49


 2243 058a 00000000 		.4byte	modem_stats
 2244 058e 0A       		.uleb128 0xa
 2245 058f DF000000 		.4byte	0xdf
 2246 0593 9E050000 		.4byte	0x59e
 2247 0597 0B       		.uleb128 0xb
 2248 0598 ED000000 		.4byte	0xed
 2249 059c 63       		.byte	0x63
 2250 059d 00       		.byte	0
 2251 059e 20       		.uleb128 0x20
 2252 059f FD020000 		.4byte	.LASF81
 2253 05a3 08       		.byte	0x8
 2254 05a4 17       		.byte	0x17
 2255 05a5 8E050000 		.4byte	0x58e
 2256 05a9 05       		.uleb128 0x5
 2257 05aa 03       		.byte	0x3
 2258 05ab 00000000 		.4byte	debug_string
 2259 05af 0A       		.uleb128 0xa
 2260 05b0 DF000000 		.4byte	0xdf
 2261 05b4 C0050000 		.4byte	0x5c0
 2262 05b8 21       		.uleb128 0x21
 2263 05b9 ED000000 		.4byte	0xed
 2264 05bd FF03     		.2byte	0x3ff
 2265 05bf 00       		.byte	0
 2266 05c0 20       		.uleb128 0x20
 2267 05c1 1A020000 		.4byte	.LASF82
 2268 05c5 01       		.byte	0x1
 2269 05c6 06       		.byte	0x6
 2270 05c7 AF050000 		.4byte	0x5af
 2271 05cb 05       		.uleb128 0x5
 2272 05cc 03       		.byte	0x3
 2273 05cd 00000000 		.4byte	uart_received_string
 2274 05d1 20       		.uleb128 0x20
 2275 05d2 33000000 		.4byte	.LASF83
 2276 05d6 01       		.byte	0x1
 2277 05d7 07       		.byte	0x7
 2278 05d8 8C000000 		.4byte	0x8c
 2279 05dc 05       		.uleb128 0x5
 2280 05dd 03       		.byte	0x3
 2281 05de 00000000 		.4byte	uart_string_index
 2282 05e2 00       		.byte	0
 2283              		.section	.debug_abbrev,"",%progbits
 2284              	.Ldebug_abbrev0:
 2285 0000 01       		.uleb128 0x1
 2286 0001 11       		.uleb128 0x11
 2287 0002 01       		.byte	0x1
 2288 0003 25       		.uleb128 0x25
 2289 0004 0E       		.uleb128 0xe
 2290 0005 13       		.uleb128 0x13
 2291 0006 0B       		.uleb128 0xb
 2292 0007 03       		.uleb128 0x3
 2293 0008 0E       		.uleb128 0xe
 2294 0009 1B       		.uleb128 0x1b
 2295 000a 0E       		.uleb128 0xe
 2296 000b 55       		.uleb128 0x55
 2297 000c 17       		.uleb128 0x17
 2298 000d 11       		.uleb128 0x11
 2299 000e 01       		.uleb128 0x1
ARM GAS  C:\Users\bk\AppData\Local\Temp\ccw7zFaL.s 			page 50


 2300 000f 10       		.uleb128 0x10
 2301 0010 17       		.uleb128 0x17
 2302 0011 00       		.byte	0
 2303 0012 00       		.byte	0
 2304 0013 02       		.uleb128 0x2
 2305 0014 24       		.uleb128 0x24
 2306 0015 00       		.byte	0
 2307 0016 0B       		.uleb128 0xb
 2308 0017 0B       		.uleb128 0xb
 2309 0018 3E       		.uleb128 0x3e
 2310 0019 0B       		.uleb128 0xb
 2311 001a 03       		.uleb128 0x3
 2312 001b 0E       		.uleb128 0xe
 2313 001c 00       		.byte	0
 2314 001d 00       		.byte	0
 2315 001e 03       		.uleb128 0x3
 2316 001f 16       		.uleb128 0x16
 2317 0020 00       		.byte	0
 2318 0021 03       		.uleb128 0x3
 2319 0022 0E       		.uleb128 0xe
 2320 0023 3A       		.uleb128 0x3a
 2321 0024 0B       		.uleb128 0xb
 2322 0025 3B       		.uleb128 0x3b
 2323 0026 0B       		.uleb128 0xb
 2324 0027 49       		.uleb128 0x49
 2325 0028 13       		.uleb128 0x13
 2326 0029 00       		.byte	0
 2327 002a 00       		.byte	0
 2328 002b 04       		.uleb128 0x4
 2329 002c 24       		.uleb128 0x24
 2330 002d 00       		.byte	0
 2331 002e 0B       		.uleb128 0xb
 2332 002f 0B       		.uleb128 0xb
 2333 0030 3E       		.uleb128 0x3e
 2334 0031 0B       		.uleb128 0xb
 2335 0032 03       		.uleb128 0x3
 2336 0033 08       		.uleb128 0x8
 2337 0034 00       		.byte	0
 2338 0035 00       		.byte	0
 2339 0036 05       		.uleb128 0x5
 2340 0037 16       		.uleb128 0x16
 2341 0038 00       		.byte	0
 2342 0039 03       		.uleb128 0x3
 2343 003a 0E       		.uleb128 0xe
 2344 003b 3A       		.uleb128 0x3a
 2345 003c 0B       		.uleb128 0xb
 2346 003d 3B       		.uleb128 0x3b
 2347 003e 05       		.uleb128 0x5
 2348 003f 49       		.uleb128 0x49
 2349 0040 13       		.uleb128 0x13
 2350 0041 00       		.byte	0
 2351 0042 00       		.byte	0
 2352 0043 06       		.uleb128 0x6
 2353 0044 0F       		.uleb128 0xf
 2354 0045 00       		.byte	0
 2355 0046 0B       		.uleb128 0xb
 2356 0047 0B       		.uleb128 0xb
ARM GAS  C:\Users\bk\AppData\Local\Temp\ccw7zFaL.s 			page 51


 2357 0048 49       		.uleb128 0x49
 2358 0049 13       		.uleb128 0x13
 2359 004a 00       		.byte	0
 2360 004b 00       		.byte	0
 2361 004c 07       		.uleb128 0x7
 2362 004d 26       		.uleb128 0x26
 2363 004e 00       		.byte	0
 2364 004f 49       		.uleb128 0x49
 2365 0050 13       		.uleb128 0x13
 2366 0051 00       		.byte	0
 2367 0052 00       		.byte	0
 2368 0053 08       		.uleb128 0x8
 2369 0054 13       		.uleb128 0x13
 2370 0055 01       		.byte	0x1
 2371 0056 0B       		.uleb128 0xb
 2372 0057 05       		.uleb128 0x5
 2373 0058 3A       		.uleb128 0x3a
 2374 0059 0B       		.uleb128 0xb
 2375 005a 3B       		.uleb128 0x3b
 2376 005b 0B       		.uleb128 0xb
 2377 005c 01       		.uleb128 0x1
 2378 005d 13       		.uleb128 0x13
 2379 005e 00       		.byte	0
 2380 005f 00       		.byte	0
 2381 0060 09       		.uleb128 0x9
 2382 0061 0D       		.uleb128 0xd
 2383 0062 00       		.byte	0
 2384 0063 03       		.uleb128 0x3
 2385 0064 0E       		.uleb128 0xe
 2386 0065 3A       		.uleb128 0x3a
 2387 0066 0B       		.uleb128 0xb
 2388 0067 3B       		.uleb128 0x3b
 2389 0068 0B       		.uleb128 0xb
 2390 0069 49       		.uleb128 0x49
 2391 006a 13       		.uleb128 0x13
 2392 006b 38       		.uleb128 0x38
 2393 006c 0B       		.uleb128 0xb
 2394 006d 00       		.byte	0
 2395 006e 00       		.byte	0
 2396 006f 0A       		.uleb128 0xa
 2397 0070 01       		.uleb128 0x1
 2398 0071 01       		.byte	0x1
 2399 0072 49       		.uleb128 0x49
 2400 0073 13       		.uleb128 0x13
 2401 0074 01       		.uleb128 0x1
 2402 0075 13       		.uleb128 0x13
 2403 0076 00       		.byte	0
 2404 0077 00       		.byte	0
 2405 0078 0B       		.uleb128 0xb
 2406 0079 21       		.uleb128 0x21
 2407 007a 00       		.byte	0
 2408 007b 49       		.uleb128 0x49
 2409 007c 13       		.uleb128 0x13
 2410 007d 2F       		.uleb128 0x2f
 2411 007e 0B       		.uleb128 0xb
 2412 007f 00       		.byte	0
 2413 0080 00       		.byte	0
ARM GAS  C:\Users\bk\AppData\Local\Temp\ccw7zFaL.s 			page 52


 2414 0081 0C       		.uleb128 0xc
 2415 0082 13       		.uleb128 0x13
 2416 0083 01       		.byte	0x1
 2417 0084 0B       		.uleb128 0xb
 2418 0085 0B       		.uleb128 0xb
 2419 0086 3A       		.uleb128 0x3a
 2420 0087 0B       		.uleb128 0xb
 2421 0088 3B       		.uleb128 0x3b
 2422 0089 0B       		.uleb128 0xb
 2423 008a 01       		.uleb128 0x1
 2424 008b 13       		.uleb128 0x13
 2425 008c 00       		.byte	0
 2426 008d 00       		.byte	0
 2427 008e 0D       		.uleb128 0xd
 2428 008f 0D       		.uleb128 0xd
 2429 0090 00       		.byte	0
 2430 0091 03       		.uleb128 0x3
 2431 0092 08       		.uleb128 0x8
 2432 0093 3A       		.uleb128 0x3a
 2433 0094 0B       		.uleb128 0xb
 2434 0095 3B       		.uleb128 0x3b
 2435 0096 0B       		.uleb128 0xb
 2436 0097 49       		.uleb128 0x49
 2437 0098 13       		.uleb128 0x13
 2438 0099 38       		.uleb128 0x38
 2439 009a 0B       		.uleb128 0xb
 2440 009b 00       		.byte	0
 2441 009c 00       		.byte	0
 2442 009d 0E       		.uleb128 0xe
 2443 009e 2E       		.uleb128 0x2e
 2444 009f 00       		.byte	0
 2445 00a0 3F       		.uleb128 0x3f
 2446 00a1 19       		.uleb128 0x19
 2447 00a2 03       		.uleb128 0x3
 2448 00a3 0E       		.uleb128 0xe
 2449 00a4 3A       		.uleb128 0x3a
 2450 00a5 0B       		.uleb128 0xb
 2451 00a6 3B       		.uleb128 0x3b
 2452 00a7 0B       		.uleb128 0xb
 2453 00a8 27       		.uleb128 0x27
 2454 00a9 19       		.uleb128 0x19
 2455 00aa 11       		.uleb128 0x11
 2456 00ab 01       		.uleb128 0x1
 2457 00ac 12       		.uleb128 0x12
 2458 00ad 06       		.uleb128 0x6
 2459 00ae 40       		.uleb128 0x40
 2460 00af 18       		.uleb128 0x18
 2461 00b0 9642     		.uleb128 0x2116
 2462 00b2 19       		.uleb128 0x19
 2463 00b3 00       		.byte	0
 2464 00b4 00       		.byte	0
 2465 00b5 0F       		.uleb128 0xf
 2466 00b6 2E       		.uleb128 0x2e
 2467 00b7 00       		.byte	0
 2468 00b8 3F       		.uleb128 0x3f
 2469 00b9 19       		.uleb128 0x19
 2470 00ba 03       		.uleb128 0x3
ARM GAS  C:\Users\bk\AppData\Local\Temp\ccw7zFaL.s 			page 53


 2471 00bb 0E       		.uleb128 0xe
 2472 00bc 3A       		.uleb128 0x3a
 2473 00bd 0B       		.uleb128 0xb
 2474 00be 3B       		.uleb128 0x3b
 2475 00bf 0B       		.uleb128 0xb
 2476 00c0 11       		.uleb128 0x11
 2477 00c1 01       		.uleb128 0x1
 2478 00c2 12       		.uleb128 0x12
 2479 00c3 06       		.uleb128 0x6
 2480 00c4 40       		.uleb128 0x40
 2481 00c5 18       		.uleb128 0x18
 2482 00c6 9642     		.uleb128 0x2116
 2483 00c8 19       		.uleb128 0x19
 2484 00c9 00       		.byte	0
 2485 00ca 00       		.byte	0
 2486 00cb 10       		.uleb128 0x10
 2487 00cc 2E       		.uleb128 0x2e
 2488 00cd 01       		.byte	0x1
 2489 00ce 3F       		.uleb128 0x3f
 2490 00cf 19       		.uleb128 0x19
 2491 00d0 03       		.uleb128 0x3
 2492 00d1 0E       		.uleb128 0xe
 2493 00d2 3A       		.uleb128 0x3a
 2494 00d3 0B       		.uleb128 0xb
 2495 00d4 3B       		.uleb128 0x3b
 2496 00d5 0B       		.uleb128 0xb
 2497 00d6 49       		.uleb128 0x49
 2498 00d7 13       		.uleb128 0x13
 2499 00d8 11       		.uleb128 0x11
 2500 00d9 01       		.uleb128 0x1
 2501 00da 12       		.uleb128 0x12
 2502 00db 06       		.uleb128 0x6
 2503 00dc 40       		.uleb128 0x40
 2504 00dd 18       		.uleb128 0x18
 2505 00de 9642     		.uleb128 0x2116
 2506 00e0 19       		.uleb128 0x19
 2507 00e1 01       		.uleb128 0x1
 2508 00e2 13       		.uleb128 0x13
 2509 00e3 00       		.byte	0
 2510 00e4 00       		.byte	0
 2511 00e5 11       		.uleb128 0x11
 2512 00e6 34       		.uleb128 0x34
 2513 00e7 00       		.byte	0
 2514 00e8 03       		.uleb128 0x3
 2515 00e9 0E       		.uleb128 0xe
 2516 00ea 3A       		.uleb128 0x3a
 2517 00eb 0B       		.uleb128 0xb
 2518 00ec 3B       		.uleb128 0x3b
 2519 00ed 0B       		.uleb128 0xb
 2520 00ee 49       		.uleb128 0x49
 2521 00ef 13       		.uleb128 0x13
 2522 00f0 02       		.uleb128 0x2
 2523 00f1 18       		.uleb128 0x18
 2524 00f2 00       		.byte	0
 2525 00f3 00       		.byte	0
 2526 00f4 12       		.uleb128 0x12
 2527 00f5 0B       		.uleb128 0xb
ARM GAS  C:\Users\bk\AppData\Local\Temp\ccw7zFaL.s 			page 54


 2528 00f6 01       		.byte	0x1
 2529 00f7 11       		.uleb128 0x11
 2530 00f8 01       		.uleb128 0x1
 2531 00f9 12       		.uleb128 0x12
 2532 00fa 06       		.uleb128 0x6
 2533 00fb 00       		.byte	0
 2534 00fc 00       		.byte	0
 2535 00fd 13       		.uleb128 0x13
 2536 00fe 2E       		.uleb128 0x2e
 2537 00ff 01       		.byte	0x1
 2538 0100 3F       		.uleb128 0x3f
 2539 0101 19       		.uleb128 0x19
 2540 0102 03       		.uleb128 0x3
 2541 0103 0E       		.uleb128 0xe
 2542 0104 3A       		.uleb128 0x3a
 2543 0105 0B       		.uleb128 0xb
 2544 0106 3B       		.uleb128 0x3b
 2545 0107 0B       		.uleb128 0xb
 2546 0108 27       		.uleb128 0x27
 2547 0109 19       		.uleb128 0x19
 2548 010a 49       		.uleb128 0x49
 2549 010b 13       		.uleb128 0x13
 2550 010c 11       		.uleb128 0x11
 2551 010d 01       		.uleb128 0x1
 2552 010e 12       		.uleb128 0x12
 2553 010f 06       		.uleb128 0x6
 2554 0110 40       		.uleb128 0x40
 2555 0111 18       		.uleb128 0x18
 2556 0112 9642     		.uleb128 0x2116
 2557 0114 19       		.uleb128 0x19
 2558 0115 01       		.uleb128 0x1
 2559 0116 13       		.uleb128 0x13
 2560 0117 00       		.byte	0
 2561 0118 00       		.byte	0
 2562 0119 14       		.uleb128 0x14
 2563 011a 05       		.uleb128 0x5
 2564 011b 00       		.byte	0
 2565 011c 03       		.uleb128 0x3
 2566 011d 0E       		.uleb128 0xe
 2567 011e 3A       		.uleb128 0x3a
 2568 011f 0B       		.uleb128 0xb
 2569 0120 3B       		.uleb128 0x3b
 2570 0121 0B       		.uleb128 0xb
 2571 0122 49       		.uleb128 0x49
 2572 0123 13       		.uleb128 0x13
 2573 0124 02       		.uleb128 0x2
 2574 0125 18       		.uleb128 0x18
 2575 0126 00       		.byte	0
 2576 0127 00       		.byte	0
 2577 0128 15       		.uleb128 0x15
 2578 0129 34       		.uleb128 0x34
 2579 012a 00       		.byte	0
 2580 012b 03       		.uleb128 0x3
 2581 012c 08       		.uleb128 0x8
 2582 012d 3A       		.uleb128 0x3a
 2583 012e 0B       		.uleb128 0xb
 2584 012f 3B       		.uleb128 0x3b
ARM GAS  C:\Users\bk\AppData\Local\Temp\ccw7zFaL.s 			page 55


 2585 0130 0B       		.uleb128 0xb
 2586 0131 49       		.uleb128 0x49
 2587 0132 13       		.uleb128 0x13
 2588 0133 02       		.uleb128 0x2
 2589 0134 18       		.uleb128 0x18
 2590 0135 00       		.byte	0
 2591 0136 00       		.byte	0
 2592 0137 16       		.uleb128 0x16
 2593 0138 34       		.uleb128 0x34
 2594 0139 00       		.byte	0
 2595 013a 03       		.uleb128 0x3
 2596 013b 0E       		.uleb128 0xe
 2597 013c 3A       		.uleb128 0x3a
 2598 013d 0B       		.uleb128 0xb
 2599 013e 3B       		.uleb128 0x3b
 2600 013f 0B       		.uleb128 0xb
 2601 0140 49       		.uleb128 0x49
 2602 0141 13       		.uleb128 0x13
 2603 0142 00       		.byte	0
 2604 0143 00       		.byte	0
 2605 0144 17       		.uleb128 0x17
 2606 0145 34       		.uleb128 0x34
 2607 0146 00       		.byte	0
 2608 0147 03       		.uleb128 0x3
 2609 0148 08       		.uleb128 0x8
 2610 0149 3A       		.uleb128 0x3a
 2611 014a 0B       		.uleb128 0xb
 2612 014b 3B       		.uleb128 0x3b
 2613 014c 0B       		.uleb128 0xb
 2614 014d 49       		.uleb128 0x49
 2615 014e 13       		.uleb128 0x13
 2616 014f 00       		.byte	0
 2617 0150 00       		.byte	0
 2618 0151 18       		.uleb128 0x18
 2619 0152 2E       		.uleb128 0x2e
 2620 0153 01       		.byte	0x1
 2621 0154 3F       		.uleb128 0x3f
 2622 0155 19       		.uleb128 0x19
 2623 0156 03       		.uleb128 0x3
 2624 0157 0E       		.uleb128 0xe
 2625 0158 3A       		.uleb128 0x3a
 2626 0159 0B       		.uleb128 0xb
 2627 015a 3B       		.uleb128 0x3b
 2628 015b 05       		.uleb128 0x5
 2629 015c 49       		.uleb128 0x49
 2630 015d 13       		.uleb128 0x13
 2631 015e 11       		.uleb128 0x11
 2632 015f 01       		.uleb128 0x1
 2633 0160 12       		.uleb128 0x12
 2634 0161 06       		.uleb128 0x6
 2635 0162 40       		.uleb128 0x40
 2636 0163 18       		.uleb128 0x18
 2637 0164 9642     		.uleb128 0x2116
 2638 0166 19       		.uleb128 0x19
 2639 0167 01       		.uleb128 0x1
 2640 0168 13       		.uleb128 0x13
 2641 0169 00       		.byte	0
ARM GAS  C:\Users\bk\AppData\Local\Temp\ccw7zFaL.s 			page 56


 2642 016a 00       		.byte	0
 2643 016b 19       		.uleb128 0x19
 2644 016c 34       		.uleb128 0x34
 2645 016d 00       		.byte	0
 2646 016e 03       		.uleb128 0x3
 2647 016f 0E       		.uleb128 0xe
 2648 0170 3A       		.uleb128 0x3a
 2649 0171 0B       		.uleb128 0xb
 2650 0172 3B       		.uleb128 0x3b
 2651 0173 05       		.uleb128 0x5
 2652 0174 49       		.uleb128 0x49
 2653 0175 13       		.uleb128 0x13
 2654 0176 02       		.uleb128 0x2
 2655 0177 18       		.uleb128 0x18
 2656 0178 00       		.byte	0
 2657 0179 00       		.byte	0
 2658 017a 1A       		.uleb128 0x1a
 2659 017b 2E       		.uleb128 0x2e
 2660 017c 00       		.byte	0
 2661 017d 3F       		.uleb128 0x3f
 2662 017e 19       		.uleb128 0x19
 2663 017f 03       		.uleb128 0x3
 2664 0180 0E       		.uleb128 0xe
 2665 0181 3A       		.uleb128 0x3a
 2666 0182 0B       		.uleb128 0xb
 2667 0183 3B       		.uleb128 0x3b
 2668 0184 05       		.uleb128 0x5
 2669 0185 11       		.uleb128 0x11
 2670 0186 01       		.uleb128 0x1
 2671 0187 12       		.uleb128 0x12
 2672 0188 06       		.uleb128 0x6
 2673 0189 40       		.uleb128 0x40
 2674 018a 18       		.uleb128 0x18
 2675 018b 9642     		.uleb128 0x2116
 2676 018d 19       		.uleb128 0x19
 2677 018e 00       		.byte	0
 2678 018f 00       		.byte	0
 2679 0190 1B       		.uleb128 0x1b
 2680 0191 2E       		.uleb128 0x2e
 2681 0192 00       		.byte	0
 2682 0193 3F       		.uleb128 0x3f
 2683 0194 19       		.uleb128 0x19
 2684 0195 03       		.uleb128 0x3
 2685 0196 0E       		.uleb128 0xe
 2686 0197 3A       		.uleb128 0x3a
 2687 0198 0B       		.uleb128 0xb
 2688 0199 3B       		.uleb128 0x3b
 2689 019a 05       		.uleb128 0x5
 2690 019b 49       		.uleb128 0x49
 2691 019c 13       		.uleb128 0x13
 2692 019d 11       		.uleb128 0x11
 2693 019e 01       		.uleb128 0x1
 2694 019f 12       		.uleb128 0x12
 2695 01a0 06       		.uleb128 0x6
 2696 01a1 40       		.uleb128 0x40
 2697 01a2 18       		.uleb128 0x18
 2698 01a3 9642     		.uleb128 0x2116
ARM GAS  C:\Users\bk\AppData\Local\Temp\ccw7zFaL.s 			page 57


 2699 01a5 19       		.uleb128 0x19
 2700 01a6 00       		.byte	0
 2701 01a7 00       		.byte	0
 2702 01a8 1C       		.uleb128 0x1c
 2703 01a9 2E       		.uleb128 0x2e
 2704 01aa 01       		.byte	0x1
 2705 01ab 3F       		.uleb128 0x3f
 2706 01ac 19       		.uleb128 0x19
 2707 01ad 03       		.uleb128 0x3
 2708 01ae 0E       		.uleb128 0xe
 2709 01af 3A       		.uleb128 0x3a
 2710 01b0 0B       		.uleb128 0xb
 2711 01b1 3B       		.uleb128 0x3b
 2712 01b2 05       		.uleb128 0x5
 2713 01b3 11       		.uleb128 0x11
 2714 01b4 01       		.uleb128 0x1
 2715 01b5 12       		.uleb128 0x12
 2716 01b6 06       		.uleb128 0x6
 2717 01b7 40       		.uleb128 0x40
 2718 01b8 18       		.uleb128 0x18
 2719 01b9 9642     		.uleb128 0x2116
 2720 01bb 19       		.uleb128 0x19
 2721 01bc 01       		.uleb128 0x1
 2722 01bd 13       		.uleb128 0x13
 2723 01be 00       		.byte	0
 2724 01bf 00       		.byte	0
 2725 01c0 1D       		.uleb128 0x1d
 2726 01c1 34       		.uleb128 0x34
 2727 01c2 00       		.byte	0
 2728 01c3 03       		.uleb128 0x3
 2729 01c4 08       		.uleb128 0x8
 2730 01c5 3A       		.uleb128 0x3a
 2731 01c6 0B       		.uleb128 0xb
 2732 01c7 3B       		.uleb128 0x3b
 2733 01c8 05       		.uleb128 0x5
 2734 01c9 49       		.uleb128 0x49
 2735 01ca 13       		.uleb128 0x13
 2736 01cb 02       		.uleb128 0x2
 2737 01cc 18       		.uleb128 0x18
 2738 01cd 00       		.byte	0
 2739 01ce 00       		.byte	0
 2740 01cf 1E       		.uleb128 0x1e
 2741 01d0 34       		.uleb128 0x34
 2742 01d1 00       		.byte	0
 2743 01d2 03       		.uleb128 0x3
 2744 01d3 0E       		.uleb128 0xe
 2745 01d4 3A       		.uleb128 0x3a
 2746 01d5 0B       		.uleb128 0xb
 2747 01d6 3B       		.uleb128 0x3b
 2748 01d7 05       		.uleb128 0x5
 2749 01d8 49       		.uleb128 0x49
 2750 01d9 13       		.uleb128 0x13
 2751 01da 3F       		.uleb128 0x3f
 2752 01db 19       		.uleb128 0x19
 2753 01dc 3C       		.uleb128 0x3c
 2754 01dd 19       		.uleb128 0x19
 2755 01de 00       		.byte	0
ARM GAS  C:\Users\bk\AppData\Local\Temp\ccw7zFaL.s 			page 58


 2756 01df 00       		.byte	0
 2757 01e0 1F       		.uleb128 0x1f
 2758 01e1 35       		.uleb128 0x35
 2759 01e2 00       		.byte	0
 2760 01e3 49       		.uleb128 0x49
 2761 01e4 13       		.uleb128 0x13
 2762 01e5 00       		.byte	0
 2763 01e6 00       		.byte	0
 2764 01e7 20       		.uleb128 0x20
 2765 01e8 34       		.uleb128 0x34
 2766 01e9 00       		.byte	0
 2767 01ea 03       		.uleb128 0x3
 2768 01eb 0E       		.uleb128 0xe
 2769 01ec 3A       		.uleb128 0x3a
 2770 01ed 0B       		.uleb128 0xb
 2771 01ee 3B       		.uleb128 0x3b
 2772 01ef 0B       		.uleb128 0xb
 2773 01f0 49       		.uleb128 0x49
 2774 01f1 13       		.uleb128 0x13
 2775 01f2 3F       		.uleb128 0x3f
 2776 01f3 19       		.uleb128 0x19
 2777 01f4 02       		.uleb128 0x2
 2778 01f5 18       		.uleb128 0x18
 2779 01f6 00       		.byte	0
 2780 01f7 00       		.byte	0
 2781 01f8 21       		.uleb128 0x21
 2782 01f9 21       		.uleb128 0x21
 2783 01fa 00       		.byte	0
 2784 01fb 49       		.uleb128 0x49
 2785 01fc 13       		.uleb128 0x13
 2786 01fd 2F       		.uleb128 0x2f
 2787 01fe 05       		.uleb128 0x5
 2788 01ff 00       		.byte	0
 2789 0200 00       		.byte	0
 2790 0201 00       		.byte	0
 2791              		.section	.debug_aranges,"",%progbits
 2792 0000 A4000000 		.4byte	0xa4
 2793 0004 0200     		.2byte	0x2
 2794 0006 00000000 		.4byte	.Ldebug_info0
 2795 000a 04       		.byte	0x4
 2796 000b 00       		.byte	0
 2797 000c 0000     		.2byte	0
 2798 000e 0000     		.2byte	0
 2799 0010 00000000 		.4byte	.LFB64
 2800 0014 3C000000 		.4byte	.LFE64-.LFB64
 2801 0018 00000000 		.4byte	.LFB65
 2802 001c 4C000000 		.4byte	.LFE65-.LFB65
 2803 0020 00000000 		.4byte	.LFB66
 2804 0024 32000000 		.4byte	.LFE66-.LFB66
 2805 0028 00000000 		.4byte	.LFB67
 2806 002c 20000000 		.4byte	.LFE67-.LFB67
 2807 0030 00000000 		.4byte	.LFB68
 2808 0034 40000000 		.4byte	.LFE68-.LFB68
 2809 0038 00000000 		.4byte	.LFB69
 2810 003c A0000000 		.4byte	.LFE69-.LFB69
 2811 0040 00000000 		.4byte	.LFB70
 2812 0044 1C000000 		.4byte	.LFE70-.LFB70
ARM GAS  C:\Users\bk\AppData\Local\Temp\ccw7zFaL.s 			page 59


 2813 0048 00000000 		.4byte	.LFB71
 2814 004c 28000000 		.4byte	.LFE71-.LFB71
 2815 0050 00000000 		.4byte	.LFB72
 2816 0054 CC000000 		.4byte	.LFE72-.LFB72
 2817 0058 00000000 		.4byte	.LFB73
 2818 005c 8C000000 		.4byte	.LFE73-.LFB73
 2819 0060 00000000 		.4byte	.LFB74
 2820 0064 78000000 		.4byte	.LFE74-.LFB74
 2821 0068 00000000 		.4byte	.LFB75
 2822 006c B0000000 		.4byte	.LFE75-.LFB75
 2823 0070 00000000 		.4byte	.LFB76
 2824 0074 64000000 		.4byte	.LFE76-.LFB76
 2825 0078 00000000 		.4byte	.LFB77
 2826 007c 3C000000 		.4byte	.LFE77-.LFB77
 2827 0080 00000000 		.4byte	.LFB78
 2828 0084 28000000 		.4byte	.LFE78-.LFB78
 2829 0088 00000000 		.4byte	.LFB79
 2830 008c 90000000 		.4byte	.LFE79-.LFB79
 2831 0090 00000000 		.4byte	.LFB80
 2832 0094 64000000 		.4byte	.LFE80-.LFB80
 2833 0098 00000000 		.4byte	.LFB81
 2834 009c 38010000 		.4byte	.LFE81-.LFB81
 2835 00a0 00000000 		.4byte	0
 2836 00a4 00000000 		.4byte	0
 2837              		.section	.debug_ranges,"",%progbits
 2838              	.Ldebug_ranges0:
 2839 0000 00000000 		.4byte	.LFB64
 2840 0004 3C000000 		.4byte	.LFE64
 2841 0008 00000000 		.4byte	.LFB65
 2842 000c 4C000000 		.4byte	.LFE65
 2843 0010 00000000 		.4byte	.LFB66
 2844 0014 32000000 		.4byte	.LFE66
 2845 0018 00000000 		.4byte	.LFB67
 2846 001c 20000000 		.4byte	.LFE67
 2847 0020 00000000 		.4byte	.LFB68
 2848 0024 40000000 		.4byte	.LFE68
 2849 0028 00000000 		.4byte	.LFB69
 2850 002c A0000000 		.4byte	.LFE69
 2851 0030 00000000 		.4byte	.LFB70
 2852 0034 1C000000 		.4byte	.LFE70
 2853 0038 00000000 		.4byte	.LFB71
 2854 003c 28000000 		.4byte	.LFE71
 2855 0040 00000000 		.4byte	.LFB72
 2856 0044 CC000000 		.4byte	.LFE72
 2857 0048 00000000 		.4byte	.LFB73
 2858 004c 8C000000 		.4byte	.LFE73
 2859 0050 00000000 		.4byte	.LFB74
 2860 0054 78000000 		.4byte	.LFE74
 2861 0058 00000000 		.4byte	.LFB75
 2862 005c B0000000 		.4byte	.LFE75
 2863 0060 00000000 		.4byte	.LFB76
 2864 0064 64000000 		.4byte	.LFE76
 2865 0068 00000000 		.4byte	.LFB77
 2866 006c 3C000000 		.4byte	.LFE77
 2867 0070 00000000 		.4byte	.LFB78
 2868 0074 28000000 		.4byte	.LFE78
 2869 0078 00000000 		.4byte	.LFB79
ARM GAS  C:\Users\bk\AppData\Local\Temp\ccw7zFaL.s 			page 60


 2870 007c 90000000 		.4byte	.LFE79
 2871 0080 00000000 		.4byte	.LFB80
 2872 0084 64000000 		.4byte	.LFE80
 2873 0088 00000000 		.4byte	.LFB81
 2874 008c 38010000 		.4byte	.LFE81
 2875 0090 00000000 		.4byte	0
 2876 0094 00000000 		.4byte	0
 2877              		.section	.debug_line,"",%progbits
 2878              	.Ldebug_line0:
 2879 0000 8E030000 		.section	.debug_str,"MS",%progbits,1
 2879      02007001 
 2879      00000201 
 2879      FB0E0D00 
 2879      01010101 
 2880              	.LASF72:
 2881 0000 746F6B65 		.ascii	"token\000"
 2881      6E00
 2882              	.LASF28:
 2883 0006 6D6F6465 		.ascii	"model_id\000"
 2883      6C5F6964 
 2883      00
 2884              	.LASF27:
 2885 000f 73696D5F 		.ascii	"sim_id\000"
 2885      696400
 2886              	.LASF44:
 2887 0016 65787065 		.ascii	"expected_response\000"
 2887      63746564 
 2887      5F726573 
 2887      706F6E73 
 2887      6500
 2888              	.LASF53:
 2889 0028 74696D65 		.ascii	"time_Start\000"
 2889      5F537461 
 2889      727400
 2890              	.LASF83:
 2891 0033 75617274 		.ascii	"uart_string_index\000"
 2891      5F737472 
 2891      696E675F 
 2891      696E6465 
 2891      7800
 2892              	.LASF71:
 2893 0045 69735F63 		.ascii	"is_connected_to_internet\000"
 2893      6F6E6E65 
 2893      63746564 
 2893      5F746F5F 
 2893      696E7465 
 2894              	.LASF65:
 2895 005e 74617267 		.ascii	"target\000"
 2895      657400
 2896              	.LASF2:
 2897 0065 73686F72 		.ascii	"short int\000"
 2897      7420696E 
 2897      7400
 2898              	.LASF22:
 2899 006f 73697A65 		.ascii	"sizetype\000"
 2899      74797065 
 2899      00
ARM GAS  C:\Users\bk\AppData\Local\Temp\ccw7zFaL.s 			page 61


 2900              	.LASF41:
 2901 0078 6D6F6465 		.ascii	"modem_soft_power_cycle\000"
 2901      6D5F736F 
 2901      66745F70 
 2901      6F776572 
 2901      5F637963 
 2902              	.LASF42:
 2903 008f 75617274 		.ascii	"uart_string_reset\000"
 2903      5F737472 
 2903      696E675F 
 2903      72657365 
 2903      7400
 2904              	.LASF84:
 2905 00a1 474E5520 		.ascii	"GNU C11 5.4.1 20160609 (release) [ARM/embedded-5-br"
 2905      43313120 
 2905      352E342E 
 2905      31203230 
 2905      31363036 
 2906 00d4 616E6368 		.ascii	"anch revision 237715] -mcpu=cortex-m3 -mthumb -g -O"
 2906      20726576 
 2906      6973696F 
 2906      6E203233 
 2906      37373135 
 2907 0107 30202D66 		.ascii	"0 -ffunction-sections -ffat-lto-objects\000"
 2907      66756E63 
 2907      74696F6E 
 2907      2D736563 
 2907      74696F6E 
 2908              	.LASF7:
 2909 012f 5F5F7569 		.ascii	"__uint32_t\000"
 2909      6E743332 
 2909      5F7400
 2910              	.LASF48:
 2911 013a 64656C61 		.ascii	"delay\000"
 2911      7900
 2912              	.LASF85:
 2913 0140 6D6F6465 		.ascii	"modem.c\000"
 2913      6D2E6300 
 2914              	.LASF50:
 2915 0148 6D6F6465 		.ascii	"modem_power_up\000"
 2915      6D5F706F 
 2915      7765725F 
 2915      757000
 2916              	.LASF12:
 2917 0157 75696E74 		.ascii	"uint8_t\000"
 2917      385F7400 
 2918              	.LASF43:
 2919 015f 636F6D6D 		.ascii	"commands\000"
 2919      616E6473 
 2919      00
 2920              	.LASF47:
 2921 0168 636F6D70 		.ascii	"compare_location\000"
 2921      6172655F 
 2921      6C6F6361 
 2921      74696F6E 
 2921      00
 2922              	.LASF35:
ARM GAS  C:\Users\bk\AppData\Local\Temp\ccw7zFaL.s 			page 62


 2923 0179 6D6F6465 		.ascii	"modem_intilize\000"
 2923      6D5F696E 
 2923      74696C69 
 2923      7A6500
 2924              	.LASF18:
 2925 0188 666C6F61 		.ascii	"float\000"
 2925      7400
 2926              	.LASF78:
 2927 018e 6D6F6465 		.ascii	"modem_time_stamp\000"
 2927      6D5F7469 
 2927      6D655F73 
 2927      74616D70 
 2927      00
 2928              	.LASF9:
 2929 019f 6C6F6E67 		.ascii	"long long int\000"
 2929      206C6F6E 
 2929      6720696E 
 2929      7400
 2930              	.LASF20:
 2931 01ad 63686172 		.ascii	"char\000"
 2931      00
 2932              	.LASF30:
 2933 01b2 6D6F6465 		.ascii	"modem_info_t\000"
 2933      6D5F696E 
 2933      666F5F74 
 2933      00
 2934              	.LASF25:
 2935 01bf 72656173 		.ascii	"reason\000"
 2935      6F6E00
 2936              	.LASF6:
 2937 01c6 6C6F6E67 		.ascii	"long int\000"
 2937      20696E74 
 2937      00
 2938              	.LASF64:
 2939 01cf 656E644D 		.ascii	"endMarker\000"
 2939      61726B65 
 2939      7200
 2940              	.LASF79:
 2941 01d9 6D6F6465 		.ascii	"modem_info\000"
 2941      6D5F696E 
 2941      666F00
 2942              	.LASF57:
 2943 01e4 494D4549 		.ascii	"IMEI\000"
 2943      00
 2944              	.LASF37:
 2945 01e9 70696E73 		.ascii	"pins_configure_active\000"
 2945      5F636F6E 
 2945      66696775 
 2945      72655F61 
 2945      63746976 
 2946              	.LASF4:
 2947 01ff 5F5F7569 		.ascii	"__uint8_t\000"
 2947      6E74385F 
 2947      7400
 2948              	.LASF60:
 2949 0209 61745F77 		.ascii	"at_write_command\000"
 2949      72697465 
ARM GAS  C:\Users\bk\AppData\Local\Temp\ccw7zFaL.s 			page 63


 2949      5F636F6D 
 2949      6D616E64 
 2949      00
 2950              	.LASF82:
 2951 021a 75617274 		.ascii	"uart_received_string\000"
 2951      5F726563 
 2951      65697665 
 2951      645F7374 
 2951      72696E67 
 2952              	.LASF31:
 2953 022f 72737369 		.ascii	"rssi\000"
 2953      00
 2954              	.LASF38:
 2955 0234 6D6F6465 		.ascii	"modem_power_down\000"
 2955      6D5F706F 
 2955      7765725F 
 2955      646F776E 
 2955      00
 2956              	.LASF40:
 2957 0245 61747465 		.ascii	"attemps\000"
 2957      6D707300 
 2958              	.LASF73:
 2959 024d 69735F63 		.ascii	"is_connected_to_cell_network\000"
 2959      6F6E6E65 
 2959      63746564 
 2959      5F746F5F 
 2959      63656C6C 
 2960              	.LASF21:
 2961 026a 6C6F6E67 		.ascii	"long double\000"
 2961      20646F75 
 2961      626C6500 
 2962              	.LASF67:
 2963 0276 69735F63 		.ascii	"is_connected_to_network\000"
 2963      6F6E6E65 
 2963      63746564 
 2963      5F746F5F 
 2963      6E657477 
 2964              	.LASF1:
 2965 028e 756E7369 		.ascii	"unsigned char\000"
 2965      676E6564 
 2965      20636861 
 2965      7200
 2966              	.LASF74:
 2967 029c 6765745F 		.ascii	"get_cell_network_stats\000"
 2967      63656C6C 
 2967      5F6E6574 
 2967      776F726B 
 2967      5F737461 
 2968              	.LASF68:
 2969 02b3 63726567 		.ascii	"creg\000"
 2969      00
 2970              	.LASF77:
 2971 02b8 6D6F6465 		.ascii	"modem_state\000"
 2971      6D5F7374 
 2971      61746500 
 2972              	.LASF0:
 2973 02c4 7369676E 		.ascii	"signed char\000"
ARM GAS  C:\Users\bk\AppData\Local\Temp\ccw7zFaL.s 			page 64


 2973      65642063 
 2973      68617200 
 2974              	.LASF10:
 2975 02d0 6C6F6E67 		.ascii	"long long unsigned int\000"
 2975      206C6F6E 
 2975      6720756E 
 2975      7369676E 
 2975      65642069 
 2976              	.LASF14:
 2977 02e7 75696E74 		.ascii	"uint32_t\000"
 2977      33325F74 
 2977      00
 2978              	.LASF11:
 2979 02f0 756E7369 		.ascii	"unsigned int\000"
 2979      676E6564 
 2979      20696E74 
 2979      00
 2980              	.LASF81:
 2981 02fd 64656275 		.ascii	"debug_string\000"
 2981      675F7374 
 2981      72696E67 
 2981      00
 2982              	.LASF80:
 2983 030a 6D6F6465 		.ascii	"modem_stats\000"
 2983      6D5F7374 
 2983      61747300 
 2984              	.LASF3:
 2985 0316 73686F72 		.ascii	"short unsigned int\000"
 2985      7420756E 
 2985      7369676E 
 2985      65642069 
 2985      6E7400
 2986              	.LASF32:
 2987 0329 74696D65 		.ascii	"time_to_network_connect\000"
 2987      5F746F5F 
 2987      6E657477 
 2987      6F726B5F 
 2987      636F6E6E 
 2988              	.LASF24:
 2989 0341 73746174 		.ascii	"status\000"
 2989      757300
 2990              	.LASF33:
 2991 0348 74696D65 		.ascii	"time_to_acquire_ip\000"
 2991      5F746F5F 
 2991      61637175 
 2991      6972655F 
 2991      697000
 2992              	.LASF26:
 2993 035b 74657374 		.ascii	"test_t\000"
 2993      5F7400
 2994              	.LASF29:
 2995 0362 696D6569 		.ascii	"imei\000"
 2995      00
 2996              	.LASF13:
 2997 0367 696E7433 		.ascii	"int32_t\000"
 2997      325F7400 
 2998              	.LASF34:
ARM GAS  C:\Users\bk\AppData\Local\Temp\ccw7zFaL.s 			page 65


 2999 036f 6D6F6465 		.ascii	"modem_stats_t\000"
 2999      6D5F7374 
 2999      6174735F 
 2999      7400
 3000              	.LASF15:
 3001 037d 75696E74 		.ascii	"uint8\000"
 3001      3800
 3002              	.LASF23:
 3003 0383 74657374 		.ascii	"test_name\000"
 3003      5F6E616D 
 3003      6500
 3004              	.LASF70:
 3005 038d 6973725F 		.ascii	"isr_telit_rx\000"
 3005      74656C69 
 3005      745F7278 
 3005      00
 3006              	.LASF52:
 3007 039a 74657374 		.ascii	"test\000"
 3007      00
 3008              	.LASF45:
 3009 039f 74696D65 		.ascii	"timeout\000"
 3009      6F757400 
 3010              	.LASF16:
 3011 03a7 75696E74 		.ascii	"uint32\000"
 3011      333200
 3012              	.LASF8:
 3013 03ae 6C6F6E67 		.ascii	"long unsigned int\000"
 3013      20756E73 
 3013      69676E65 
 3013      6420696E 
 3013      7400
 3014              	.LASF51:
 3015 03c0 6D6F6465 		.ascii	"modem_test\000"
 3015      6D5F7465 
 3015      737400
 3016              	.LASF19:
 3017 03cb 646F7562 		.ascii	"double\000"
 3017      6C6500
 3018              	.LASF63:
 3019 03d2 62656769 		.ascii	"beginMarker\000"
 3019      6E4D6172 
 3019      6B657200 
 3020              	.LASF49:
 3021 03de 696E7465 		.ascii	"interval\000"
 3021      7276616C 
 3021      00
 3022              	.LASF76:
 3023 03e7 49544D5F 		.ascii	"ITM_RxBuffer\000"
 3023      52784275 
 3023      66666572 
 3023      00
 3024              	.LASF5:
 3025 03f4 5F5F696E 		.ascii	"__int32_t\000"
 3025      7433325F 
 3025      7400
 3026              	.LASF61:
 3027 03fe 65787472 		.ascii	"extract_string\000"
ARM GAS  C:\Users\bk\AppData\Local\Temp\ccw7zFaL.s 			page 66


 3027      6163745F 
 3027      73747269 
 3027      6E6700
 3028              	.LASF56:
 3029 040d 6D6F6465 		.ascii	"model\000"
 3029      6C00
 3030              	.LASF54:
 3031 0413 74696D65 		.ascii	"time_network_connect\000"
 3031      5F6E6574 
 3031      776F726B 
 3031      5F636F6E 
 3031      6E656374 
 3032              	.LASF55:
 3033 0428 74696D65 		.ascii	"time_obrtain_ip\000"
 3033      5F6F6272 
 3033      7461696E 
 3033      5F697000 
 3034              	.LASF17:
 3035 0438 696E7433 		.ascii	"int32\000"
 3035      3200
 3036              	.LASF39:
 3037 043e 61745F72 		.ascii	"at_ready\000"
 3037      65616479 
 3037      00
 3038              	.LASF75:
 3039 0447 6D6F6465 		.ascii	"modem_configure_settings\000"
 3039      6D5F636F 
 3039      6E666967 
 3039      7572655F 
 3039      73657474 
 3040              	.LASF59:
 3041 0460 636F6E6E 		.ascii	"connection_time\000"
 3041      65637469 
 3041      6F6E5F74 
 3041      696D6500 
 3042              	.LASF86:
 3043 0470 433A5C55 		.ascii	"C:\\Users\\bk\\Documents\\GitHub\\Open Storm\\notor"
 3043      73657273 
 3043      5C626B5C 
 3043      446F6375 
 3043      6D656E74 
 3044 049d 694F535C 		.ascii	"iOS\\notoriOS\\notoriOS.cydsn\000"
 3044      6E6F746F 
 3044      72694F53 
 3044      5C6E6F74 
 3044      6F72694F 
 3045              	.LASF58:
 3046 04b9 4346554E 		.ascii	"CFUN\000"
 3046      00
 3047              	.LASF46:
 3048 04be 61745F61 		.ascii	"at_attempt\000"
 3048      7474656D 
 3048      707400
 3049              	.LASF69:
 3050 04c9 7365745F 		.ascii	"set_up_internet_connection\000"
 3050      75705F69 
 3050      6E746572 
ARM GAS  C:\Users\bk\AppData\Local\Temp\ccw7zFaL.s 			page 67


 3050      6E65745F 
 3050      636F6E6E 
 3051              	.LASF36:
 3052 04e4 70696E73 		.ascii	"pins_configure_inactive\000"
 3052      5F636F6E 
 3052      66696775 
 3052      72655F69 
 3052      6E616374 
 3053              	.LASF62:
 3054 04fc 66726F6D 		.ascii	"from\000"
 3054      00
 3055              	.LASF66:
 3056 0501 6D6F6465 		.ascii	"modem_process_tasks\000"
 3056      6D5F7072 
 3056      6F636573 
 3056      735F7461 
 3056      736B7300 
 3057              		.ident	"GCC: (GNU Tools for ARM Embedded Processors) 5.4.1 20160609 (release) [ARM/embedded-5-bran
