ARM GAS  C:\Users\hail\AppData\Local\Temp\ccotwkx9.s 			page 1


   1              		.syntax unified
   2              		.cpu cortex-m3
   3              		.fpu softvfp
   4              		.eabi_attribute 20, 1
   5              		.eabi_attribute 21, 1
   6              		.eabi_attribute 23, 3
   7              		.eabi_attribute 24, 1
   8              		.eabi_attribute 25, 1
   9              		.eabi_attribute 26, 1
  10              		.eabi_attribute 30, 6
  11              		.eabi_attribute 34, 1
  12              		.eabi_attribute 18, 4
  13              		.thumb
  14              		.syntax unified
  15              		.file	"modem.c"
  16              		.text
  17              	.Ltext0:
  18              		.cfi_sections	.debug_frame
  19              		.comm	modem_state,1,1
  20              		.comm	modem_start_time_stamp,4,4
  21              		.comm	modem_info,60,4
  22              		.comm	modem_stats,12,4
  23              		.syntax unified
  24              		.global _printf_float
  25              		.thumb
  26              		.syntax unified
  27              		.comm	dataPointsInStack,2,2
  28              		.comm	data,2200,4
  29              		.comm	http_request,4000,4
  30              		.comm	http_body,4000,4
  31              		.comm	http_route,200,4
  32              		.comm	system_info,28,4
  33              		.comm	system_settings,324,4
  34              		.comm	uart_received_string,1024,4
  35              		.global	uart_string_index
  36              		.bss
  37              		.type	uart_string_index, %object
  38              		.size	uart_string_index, 1
  39              	uart_string_index:
  40 0000 00       		.space	1
  41              		.section	.text.isr_telit_rx,"ax",%progbits
  42              		.align	2
  43              		.global	isr_telit_rx
  44              		.thumb
  45              		.thumb_func
  46              		.type	isr_telit_rx, %function
  47              	isr_telit_rx:
  48              	.LFB64:
  49              		.file 1 "modem.c"
   1:modem.c       **** //Methods for Telit modem 
   2:modem.c       **** #include "modem.h"
   3:modem.c       **** #include "notoriOS.h"
   4:modem.c       **** #include "debug.h"
   5:modem.c       **** #include <math.h>
   6:modem.c       **** #include <stdio.h>
   7:modem.c       **** 
   8:modem.c       **** char uart_received_string[1024];
ARM GAS  C:\Users\hail\AppData\Local\Temp\ccotwkx9.s 			page 2


   9:modem.c       **** uint8_t uart_string_index=0;
  10:modem.c       **** 
  11:modem.c       **** #define DEFAULT_AT_TIMEOUT 2000u // Send command and wait 2000 ms
  12:modem.c       **** #define NO_AT_TIMEOUT 0u // Send command, no timeout/ don't wait 
  13:modem.c       **** 
  14:modem.c       **** #define TIMEOUT_NETWORK_CONNECT 200 //seconds
  15:modem.c       **** #define TIMEOUT_IP_ACQUIRE 230 //seconds (cummulatinve) add to TIMEOUT_NETWORK_CONNECT
  16:modem.c       **** 
  17:modem.c       **** CY_ISR_PROTO(isr_telit_rx); // Declares a custom ISR function "isr_telit_rx" using the CY_ISR_PROTO
  18:modem.c       **** 
  19:modem.c       **** // Define the custom ISR function "isr_telit_rx" using the CY_ISR macro
  20:modem.c       **** // Get each character from Telit and saves it to uart_received_string
  21:modem.c       **** CY_ISR(isr_telit_rx){      
  50              		.loc 1 21 0
  51              		.cfi_startproc
  52              		@ args = 0, pretend = 0, frame = 0
  53              		@ frame_needed = 1, uses_anonymous_args = 0
  54 0000 98B5     		push	{r3, r4, r7, lr}
  55              		.cfi_def_cfa_offset 16
  56              		.cfi_offset 3, -16
  57              		.cfi_offset 4, -12
  58              		.cfi_offset 7, -8
  59              		.cfi_offset 14, -4
  60 0002 00AF     		add	r7, sp, #0
  61              		.cfi_def_cfa_register 7
  22:modem.c       ****     // UART_Telit_GetRxBufferSize() returns the number of received bytes available in the RX buffer
  23:modem.c       ****     while(UART_Telit_GetRxBufferSize()==1){
  62              		.loc 1 23 0
  63 0004 0EE0     		b	.L2
  64              	.L3:
  24:modem.c       ****         uart_received_string[uart_string_index]=UART_Telit_GetChar();
  65              		.loc 1 24 0
  66 0006 0B4B     		ldr	r3, .L4
  67 0008 1B78     		ldrb	r3, [r3]	@ zero_extendqisi2
  68 000a 1C46     		mov	r4, r3
  69 000c FFF7FEFF 		bl	UART_Telit_GetChar
  70 0010 0346     		mov	r3, r0
  71 0012 1A46     		mov	r2, r3
  72 0014 084B     		ldr	r3, .L4+4
  73 0016 1A55     		strb	r2, [r3, r4]
  25:modem.c       ****         uart_string_index++;
  74              		.loc 1 25 0
  75 0018 064B     		ldr	r3, .L4
  76 001a 1B78     		ldrb	r3, [r3]	@ zero_extendqisi2
  77 001c 0133     		adds	r3, r3, #1
  78 001e DAB2     		uxtb	r2, r3
  79 0020 044B     		ldr	r3, .L4
  80 0022 1A70     		strb	r2, [r3]
  81              	.L2:
  23:modem.c       ****         uart_received_string[uart_string_index]=UART_Telit_GetChar();
  82              		.loc 1 23 0
  83 0024 FFF7FEFF 		bl	UART_Telit_GetRxBufferSize
  84 0028 0346     		mov	r3, r0
  85 002a 012B     		cmp	r3, #1
  86 002c EBD0     		beq	.L3
  26:modem.c       ****     }
  27:modem.c       **** 
ARM GAS  C:\Users\hail\AppData\Local\Temp\ccotwkx9.s 			page 3


  28:modem.c       **** }
  87              		.loc 1 28 0
  88 002e 00BF     		nop
  89 0030 98BD     		pop	{r3, r4, r7, pc}
  90              	.L5:
  91 0032 00BF     		.align	2
  92              	.L4:
  93 0034 00000000 		.word	uart_string_index
  94 0038 00000000 		.word	uart_received_string
  95              		.cfi_endproc
  96              	.LFE64:
  97              		.size	isr_telit_rx, .-isr_telit_rx
  98              		.section	.text.modem_intilize,"ax",%progbits
  99              		.align	2
 100              		.global	modem_intilize
 101              		.thumb
 102              		.thumb_func
 103              		.type	modem_intilize, %function
 104              	modem_intilize:
 105              	.LFB65:
  29:modem.c       **** 
  30:modem.c       **** // Initialize the modem
  31:modem.c       **** void modem_intilize(){
 106              		.loc 1 31 0
 107              		.cfi_startproc
 108              		@ args = 0, pretend = 0, frame = 0
 109              		@ frame_needed = 1, uses_anonymous_args = 0
 110 0000 80B5     		push	{r7, lr}
 111              		.cfi_def_cfa_offset 8
 112              		.cfi_offset 7, -8
 113              		.cfi_offset 14, -4
 114 0002 00AF     		add	r7, sp, #0
 115              		.cfi_def_cfa_register 7
  32:modem.c       ****     // Don't do much except make sure that all the modem pins are pulled low
  33:modem.c       ****     // Also make sure that the TX PIN is fully disabled
  34:modem.c       ****     pins_configure_inactive();
 116              		.loc 1 34 0
 117 0004 FFF7FEFF 		bl	pins_configure_inactive
  35:modem.c       ****     modem_state = 0;
 118              		.loc 1 35 0
 119 0008 0F4B     		ldr	r3, .L7
 120 000a 0022     		movs	r2, #0
 121 000c 1A70     		strb	r2, [r3]
  36:modem.c       ****     //initilize states
  37:modem.c       ****     modem_info.imei[0] = '\0';
 122              		.loc 1 37 0
 123 000e 0F4B     		ldr	r3, .L7+4
 124 0010 0022     		movs	r2, #0
 125 0012 83F82820 		strb	r2, [r3, #40]
  38:modem.c       ****     modem_info.model_id[0] = '\0';
 126              		.loc 1 38 0
 127 0016 0D4B     		ldr	r3, .L7+4
 128 0018 0022     		movs	r2, #0
 129 001a 1A75     		strb	r2, [r3, #20]
  39:modem.c       ****     modem_info.sim_id[0] = '\0';
 130              		.loc 1 39 0
 131 001c 0B4B     		ldr	r3, .L7+4
ARM GAS  C:\Users\hail\AppData\Local\Temp\ccotwkx9.s 			page 4


 132 001e 0022     		movs	r2, #0
 133 0020 1A70     		strb	r2, [r3]
  40:modem.c       ****     modem_stats.sq = 0;
 134              		.loc 1 40 0
 135 0022 0B4B     		ldr	r3, .L7+8
 136 0024 0022     		movs	r2, #0
 137 0026 5A70     		strb	r2, [r3, #1]
  41:modem.c       ****     modem_stats.rssi = 0;
 138              		.loc 1 41 0
 139 0028 094B     		ldr	r3, .L7+8
 140 002a 0022     		movs	r2, #0
 141 002c 1A70     		strb	r2, [r3]
  42:modem.c       ****     modem_stats.time_to_acquire_ip = 0;
 142              		.loc 1 42 0
 143 002e 084B     		ldr	r3, .L7+8
 144 0030 0022     		movs	r2, #0
 145 0032 9A60     		str	r2, [r3, #8]
  43:modem.c       ****     modem_stats.time_to_network_connect = 0;
 146              		.loc 1 43 0
 147 0034 064B     		ldr	r3, .L7+8
 148 0036 0022     		movs	r2, #0
 149 0038 5A60     		str	r2, [r3, #4]
  44:modem.c       ****     // Disable the RX Pin interrupt, and only enable it during long timeouts
  45:modem.c       ****     // Rx_Telit_SetInterruptMode(): Configures the interrupt mode for each of the Pins component's 
  46:modem.c       ****     // Rx_Telit_0_INTR selects the first pin in the list, and Rx_Telit_INTR_NONE disables the Rx pi
  47:modem.c       ****     Rx_Telit_SetInterruptMode(Rx_Telit_0_INTR,Rx_Telit_INTR_NONE);
 150              		.loc 1 47 0
 151 003a 0021     		movs	r1, #0
 152 003c 4020     		movs	r0, #64
 153 003e FFF7FEFF 		bl	Rx_Telit_SetInterruptMode
  48:modem.c       ****     
  49:modem.c       **** }
 154              		.loc 1 49 0
 155 0042 00BF     		nop
 156 0044 80BD     		pop	{r7, pc}
 157              	.L8:
 158 0046 00BF     		.align	2
 159              	.L7:
 160 0048 00000000 		.word	modem_state
 161 004c 00000000 		.word	modem_info
 162 0050 00000000 		.word	modem_stats
 163              		.cfi_endproc
 164              	.LFE65:
 165              		.size	modem_intilize, .-modem_intilize
 166              		.section	.text.pins_configure_inactive,"ax",%progbits
 167              		.align	2
 168              		.global	pins_configure_inactive
 169              		.thumb
 170              		.thumb_func
 171              		.type	pins_configure_inactive, %function
 172              	pins_configure_inactive:
 173              	.LFB66:
  50:modem.c       **** 
  51:modem.c       **** 
  52:modem.c       **** // To be used when the modem power is to be "killed" conpletely to conserve power
  53:modem.c       **** void pins_configure_inactive(){
 174              		.loc 1 53 0
ARM GAS  C:\Users\hail\AppData\Local\Temp\ccotwkx9.s 			page 5


 175              		.cfi_startproc
 176              		@ args = 0, pretend = 0, frame = 0
 177              		@ frame_needed = 1, uses_anonymous_args = 0
 178 0000 80B5     		push	{r7, lr}
 179              		.cfi_def_cfa_offset 8
 180              		.cfi_offset 7, -8
 181              		.cfi_offset 14, -4
 182 0002 00AF     		add	r7, sp, #0
 183              		.cfi_def_cfa_register 7
  54:modem.c       ****    
  55:modem.c       ****    Telit_ControlReg_Write(0u); // Physically disconect UART pin
 184              		.loc 1 55 0
 185 0004 0020     		movs	r0, #0
 186 0006 FFF7FEFF 		bl	Telit_ControlReg_Write
  56:modem.c       ****    Rx_Telit_SetDriveMode(PIN_DM_STRONG); // Set drive mode
 187              		.loc 1 56 0
 188 000a 0C20     		movs	r0, #12
 189 000c FFF7FEFF 		bl	Rx_Telit_SetDriveMode
  57:modem.c       **** 
  58:modem.c       ****    Pin_Telit_pwr_Write(OFF); // Kill power to modem (pulls pin low).
 190              		.loc 1 58 0
 191 0010 0020     		movs	r0, #0
 192 0012 FFF7FEFF 		bl	Pin_Telit_pwr_Write
  59:modem.c       **** 
  60:modem.c       ****    // Pull down all of these, just in case (turns the off).
  61:modem.c       ****    Rx_Telit_Write(OFF); 
 193              		.loc 1 61 0
 194 0016 0020     		movs	r0, #0
 195 0018 FFF7FEFF 		bl	Rx_Telit_Write
  62:modem.c       ****    Tx_Telit_Write(OFF);
 196              		.loc 1 62 0
 197 001c 0020     		movs	r0, #0
 198 001e FFF7FEFF 		bl	Tx_Telit_Write
  63:modem.c       ****    Pin_Telit_ONOFF_Write(OFF);
 199              		.loc 1 63 0
 200 0022 0020     		movs	r0, #0
 201 0024 FFF7FEFF 		bl	Pin_Telit_ONOFF_Write
  64:modem.c       ****    Pin_Telit_SWRDY_Write(OFF);
 202              		.loc 1 64 0
 203 0028 0020     		movs	r0, #0
 204 002a FFF7FEFF 		bl	Pin_Telit_SWRDY_Write
  65:modem.c       ****     
  66:modem.c       **** }
 205              		.loc 1 66 0
 206 002e 00BF     		nop
 207 0030 80BD     		pop	{r7, pc}
 208              		.cfi_endproc
 209              	.LFE66:
 210              		.size	pins_configure_inactive, .-pins_configure_inactive
 211 0032 00BF     		.section	.text.pins_configure_active,"ax",%progbits
 212              		.align	2
 213              		.global	pins_configure_active
 214              		.thumb
 215              		.thumb_func
 216              		.type	pins_configure_active, %function
 217              	pins_configure_active:
 218              	.LFB67:
ARM GAS  C:\Users\hail\AppData\Local\Temp\ccotwkx9.s 			page 6


  67:modem.c       **** 
  68:modem.c       **** // Turns on power and configures all UART pin modes
  69:modem.c       **** void pins_configure_active(){
 219              		.loc 1 69 0
 220              		.cfi_startproc
 221              		@ args = 0, pretend = 0, frame = 0
 222              		@ frame_needed = 1, uses_anonymous_args = 0
 223 0000 80B5     		push	{r7, lr}
 224              		.cfi_def_cfa_offset 8
 225              		.cfi_offset 7, -8
 226              		.cfi_offset 14, -4
 227 0002 00AF     		add	r7, sp, #0
 228              		.cfi_def_cfa_register 7
  70:modem.c       ****     
  71:modem.c       ****     Rx_Telit_SetDriveMode(PIN_DM_DIG_HIZ); // Power up. Set RX pin to High Impedance Digital mode.
 229              		.loc 1 71 0
 230 0004 0220     		movs	r0, #2
 231 0006 FFF7FEFF 		bl	Rx_Telit_SetDriveMode
  72:modem.c       ****     Telit_ControlReg_Write(1u); // Pull Telit_ControlReg pin high (turns it on).
 232              		.loc 1 72 0
 233 000a 0120     		movs	r0, #1
 234 000c FFF7FEFF 		bl	Telit_ControlReg_Write
  73:modem.c       ****     Pin_Telit_pwr_Write(ON); // Pulls Telit_pwr pin high (turns it on).
 235              		.loc 1 73 0
 236 0010 0120     		movs	r0, #1
 237 0012 FFF7FEFF 		bl	Pin_Telit_pwr_Write
  74:modem.c       ****     CyDelay(100u); // Give the MOSFET a few ms to stalbilise power 
 238              		.loc 1 74 0
 239 0016 6420     		movs	r0, #100
 240 0018 FFF7FEFF 		bl	CyDelay
  75:modem.c       **** }
 241              		.loc 1 75 0
 242 001c 00BF     		nop
 243 001e 80BD     		pop	{r7, pc}
 244              		.cfi_endproc
 245              	.LFE67:
 246              		.size	pins_configure_active, .-pins_configure_active
 247              		.section	.rodata
 248              		.align	2
 249              	.LC0:
 250 0000 4F4B00   		.ascii	"OK\000"
 251 0003 00       		.align	2
 252              	.LC1:
 253 0004 41542353 		.ascii	"AT#SHDN\015\000"
 253      48444E0D 
 253      00
 254              		.section	.text.modem_power_down,"ax",%progbits
 255              		.align	2
 256              		.global	modem_power_down
 257              		.thumb
 258              		.thumb_func
 259              		.type	modem_power_down, %function
 260              	modem_power_down:
 261              	.LFB68:
  76:modem.c       **** 
  77:modem.c       **** // Power down the modem -- completely "kill" modem to conserve power.
  78:modem.c       **** void modem_power_down(){
ARM GAS  C:\Users\hail\AppData\Local\Temp\ccotwkx9.s 			page 7


 262              		.loc 1 78 0
 263              		.cfi_startproc
 264              		@ args = 0, pretend = 0, frame = 0
 265              		@ frame_needed = 1, uses_anonymous_args = 0
 266 0000 80B5     		push	{r7, lr}
 267              		.cfi_def_cfa_offset 8
 268              		.cfi_offset 7, -8
 269              		.cfi_offset 14, -4
 270 0002 00AF     		add	r7, sp, #0
 271              		.cfi_def_cfa_register 7
  79:modem.c       ****     // AT Command to modem for Software Shut Down - #SHDN
  80:modem.c       ****     // \r is carriage return, it is necessary for the modem to know it got a command
  81:modem.c       ****     at_write_command("AT#SHDN\r","OK",5000u); 
 272              		.loc 1 81 0
 273 0004 41F28832 		movw	r2, #5000
 274 0008 0A49     		ldr	r1, .L12
 275 000a 0B48     		ldr	r0, .L12+4
 276 000c FFF7FEFF 		bl	at_write_command
  82:modem.c       ****    
  83:modem.c       ****     // Soft power cycle makes sure that the modem is all the way on (like holding on button on for 
  84:modem.c       ****     modem_soft_power_cycle();
 277              		.loc 1 84 0
 278 0010 FFF7FEFF 		bl	modem_soft_power_cycle
  85:modem.c       ****     CyDelay(1000u);
 279              		.loc 1 85 0
 280 0014 4FF47A70 		mov	r0, #1000
 281 0018 FFF7FEFF 		bl	CyDelay
  86:modem.c       ****     
  87:modem.c       ****     UART_Telit_Stop(); // Disables the UART operation.
 282              		.loc 1 87 0
 283 001c FFF7FEFF 		bl	UART_Telit_Stop
  88:modem.c       ****     isr_telit_rx_Stop(); // Disables and removes the interrupt.
 284              		.loc 1 88 0
 285 0020 FFF7FEFF 		bl	isr_telit_rx_Stop
  89:modem.c       ****     pins_configure_inactive(); // We want the modem power to be "killed" completely to conserve pow
 286              		.loc 1 89 0
 287 0024 FFF7FEFF 		bl	pins_configure_inactive
  90:modem.c       ****     modem_state = MODEM_STATE_OFF;
 288              		.loc 1 90 0
 289 0028 044B     		ldr	r3, .L12+8
 290 002a 0022     		movs	r2, #0
 291 002c 1A70     		strb	r2, [r3]
  91:modem.c       ****     
  92:modem.c       **** }
 292              		.loc 1 92 0
 293 002e 00BF     		nop
 294 0030 80BD     		pop	{r7, pc}
 295              	.L13:
 296 0032 00BF     		.align	2
 297              	.L12:
 298 0034 00000000 		.word	.LC0
 299 0038 04000000 		.word	.LC1
 300 003c 00000000 		.word	modem_state
 301              		.cfi_endproc
 302              	.LFE68:
 303              		.size	modem_power_down, .-modem_power_down
 304              		.section	.rodata
ARM GAS  C:\Users\hail\AppData\Local\Temp\ccotwkx9.s 			page 8


 305 000d 000000   		.align	2
 306              	.LC2:
 307 0010 41544530 		.ascii	"ATE0\015\000"
 307      0D00
 308 0016 0000     		.align	2
 309              	.LC3:
 310 0018 4D6F6465 		.ascii	"Modem booot time: %d\000"
 310      6D20626F 
 310      6F6F7420 
 310      74696D65 
 310      3A202564 
 311 002d 000000   		.align	2
 312              	.LC4:
 313 0030 4D6F6465 		.ascii	"Modem ready for AT commands after %d attempt(s).\000"
 313      6D207265 
 313      61647920 
 313      666F7220 
 313      41542063 
 314 0061 000000   		.align	2
 315              	.LC5:
 316 0064 4E6F2072 		.ascii	"No response from modem.\000"
 316      6573706F 
 316      6E736520 
 316      66726F6D 
 316      206D6F64 
 317              		.section	.text.modem_power_up,"ax",%progbits
 318              		.align	2
 319              		.global	modem_power_up
 320              		.thumb
 321              		.thumb_func
 322              		.type	modem_power_up, %function
 323              	modem_power_up:
 324              	.LFB69:
  93:modem.c       **** 
  94:modem.c       **** // This puts all the modem pints into a state that won't leak power
  95:modem.c       **** // Please call restore_pins() to bring them abck to function when they are needed for UART
  96:modem.c       **** uint8 modem_power_up(){
 325              		.loc 1 96 0
 326              		.cfi_startproc
 327              		@ args = 0, pretend = 0, frame = 8
 328              		@ frame_needed = 1, uses_anonymous_args = 0
 329 0000 80B5     		push	{r7, lr}
 330              		.cfi_def_cfa_offset 8
 331              		.cfi_offset 7, -8
 332              		.cfi_offset 14, -4
 333 0002 82B0     		sub	sp, sp, #8
 334              		.cfi_def_cfa_offset 16
 335 0004 00AF     		add	r7, sp, #0
 336              		.cfi_def_cfa_register 7
  97:modem.c       **** 
  98:modem.c       ****     pins_configure_active(); // Turns on power and configures all UART pin modes
 337              		.loc 1 98 0
 338 0006 FFF7FEFF 		bl	pins_configure_active
  99:modem.c       ****     UART_Telit_Start(); // Sets the initVar variable, calls the UART_Telit_Init() function, and the
 339              		.loc 1 99 0
 340 000a FFF7FEFF 		bl	UART_Telit_Start
 100:modem.c       ****     isr_telit_rx_StartEx(isr_telit_rx); // Sets up the interrupt and enables it. 
ARM GAS  C:\Users\hail\AppData\Local\Temp\ccotwkx9.s 			page 9


 341              		.loc 1 100 0
 342 000e 2C48     		ldr	r0, .L27
 343 0010 FFF7FEFF 		bl	isr_telit_rx_StartEx
 101:modem.c       **** 
 102:modem.c       ****     modem_soft_power_cycle(); // Soft power cycle makes sure that the modem is all the way on (like
 344              		.loc 1 102 0
 345 0014 FFF7FEFF 		bl	modem_soft_power_cycle
 103:modem.c       ****     
 104:modem.c       ****     // Turn off ECHO command (doesn't repeat your command back to you).
 105:modem.c       ****     uint8 at_ready = 0;
 346              		.loc 1 105 0
 347 0018 0023     		movs	r3, #0
 348 001a FB71     		strb	r3, [r7, #7]
 106:modem.c       ****     uint8 attemps = 0;
 349              		.loc 1 106 0
 350 001c 0023     		movs	r3, #0
 351 001e 3B71     		strb	r3, [r7, #4]
 107:modem.c       ****     // Create variable boot_time of the current time stamp.
 108:modem.c       ****     long boot_time = getTimeStamp();
 352              		.loc 1 108 0
 353 0020 FFF7FEFF 		bl	getTimeStamp
 354 0024 3860     		str	r0, [r7]
 355              	.LBB2:
 109:modem.c       ****     
 110:modem.c       ****     //it takes the 4G modem 10+secs (max 20) to boot up, so keep hitting it with AT commands until 
 111:modem.c       ****     for(uint8 attempts = 0; attempts<3; attempts++){
 356              		.loc 1 111 0
 357 0026 0023     		movs	r3, #0
 358 0028 BB71     		strb	r3, [r7, #6]
 359 002a 1CE0     		b	.L15
 360              	.L22:
 361              	.LBB3:
 112:modem.c       ****         
 113:modem.c       ****         for(uint8 pwr_check = 0; pwr_check<20; pwr_check++){
 362              		.loc 1 113 0
 363 002c 0023     		movs	r3, #0
 364 002e 7B71     		strb	r3, [r7, #5]
 365 0030 0EE0     		b	.L16
 366              	.L19:
 114:modem.c       ****             // AT command ATE0 disables the command echo (doesn't repeat your command back to you).
 115:modem.c       ****             if(at_write_command("ATE0\r","OK",1000u)){
 367              		.loc 1 115 0
 368 0032 4FF47A72 		mov	r2, #1000
 369 0036 2349     		ldr	r1, .L27+4
 370 0038 2348     		ldr	r0, .L27+8
 371 003a FFF7FEFF 		bl	at_write_command
 372 003e 0346     		mov	r3, r0
 373 0040 002B     		cmp	r3, #0
 374 0042 02D0     		beq	.L17
 116:modem.c       ****                 at_ready = 1;
 375              		.loc 1 116 0
 376 0044 0123     		movs	r3, #1
 377 0046 FB71     		strb	r3, [r7, #7]
 117:modem.c       ****                 break;
 378              		.loc 1 117 0
 379 0048 05E0     		b	.L18
 380              	.L17:
ARM GAS  C:\Users\hail\AppData\Local\Temp\ccotwkx9.s 			page 10


 113:modem.c       ****             // AT command ATE0 disables the command echo (doesn't repeat your command back to you).
 381              		.loc 1 113 0 discriminator 2
 382 004a 7B79     		ldrb	r3, [r7, #5]	@ zero_extendqisi2
 383 004c 0133     		adds	r3, r3, #1
 384 004e 7B71     		strb	r3, [r7, #5]
 385              	.L16:
 113:modem.c       ****             // AT command ATE0 disables the command echo (doesn't repeat your command back to you).
 386              		.loc 1 113 0 is_stmt 0 discriminator 1
 387 0050 7B79     		ldrb	r3, [r7, #5]	@ zero_extendqisi2
 388 0052 132B     		cmp	r3, #19
 389 0054 EDD9     		bls	.L19
 390              	.L18:
 391              	.LBE3:
 118:modem.c       ****             }
 119:modem.c       ****         }
 120:modem.c       ****             
 121:modem.c       ****         if(at_ready == 1){
 392              		.loc 1 121 0 is_stmt 1
 393 0056 FB79     		ldrb	r3, [r7, #7]	@ zero_extendqisi2
 394 0058 012B     		cmp	r3, #1
 395 005a 08D0     		beq	.L26
 122:modem.c       ****             break;
 123:modem.c       ****         }else{
 124:modem.c       ****             // Soft power cycle makes sure that the modem is all the way on (like holding on button
 125:modem.c       ****             modem_soft_power_cycle();
 396              		.loc 1 125 0 discriminator 2
 397 005c FFF7FEFF 		bl	modem_soft_power_cycle
 111:modem.c       ****         
 398              		.loc 1 111 0 discriminator 2
 399 0060 BB79     		ldrb	r3, [r7, #6]	@ zero_extendqisi2
 400 0062 0133     		adds	r3, r3, #1
 401 0064 BB71     		strb	r3, [r7, #6]
 402              	.L15:
 111:modem.c       ****         
 403              		.loc 1 111 0 is_stmt 0 discriminator 1
 404 0066 BB79     		ldrb	r3, [r7, #6]	@ zero_extendqisi2
 405 0068 022B     		cmp	r3, #2
 406 006a DFD9     		bls	.L22
 407 006c 00E0     		b	.L21
 408              	.L26:
 122:modem.c       ****             break;
 409              		.loc 1 122 0 is_stmt 1
 410 006e 00BF     		nop
 411              	.L21:
 412              	.LBE2:
 126:modem.c       ****         }
 127:modem.c       ****     }
 128:modem.c       ****     // Calculate boot up time and save to variable boot_time.
 129:modem.c       ****     boot_time = getTimeStamp() - boot_time;
 413              		.loc 1 129 0
 414 0070 FFF7FEFF 		bl	getTimeStamp
 415 0074 0246     		mov	r2, r0
 416 0076 3B68     		ldr	r3, [r7]
 417 0078 D31A     		subs	r3, r2, r3
 418 007a 3B60     		str	r3, [r7]
 130:modem.c       ****     printNotif(NOTIF_TYPE_EVENT,"Modem booot time: %d",boot_time);
 419              		.loc 1 130 0
ARM GAS  C:\Users\hail\AppData\Local\Temp\ccotwkx9.s 			page 11


 420 007c 3A68     		ldr	r2, [r7]
 421 007e 1349     		ldr	r1, .L27+12
 422 0080 0020     		movs	r0, #0
 423 0082 FFF7FEFF 		bl	printNotif
 131:modem.c       ****     
 132:modem.c       ****     if(at_ready == 1){
 424              		.loc 1 132 0
 425 0086 FB79     		ldrb	r3, [r7, #7]	@ zero_extendqisi2
 426 0088 012B     		cmp	r3, #1
 427 008a 0AD1     		bne	.L23
 133:modem.c       ****         printNotif(NOTIF_TYPE_EVENT,"Modem ready for AT commands after %d attempt(s).",attemps);
 428              		.loc 1 133 0
 429 008c 3B79     		ldrb	r3, [r7, #4]	@ zero_extendqisi2
 430 008e 1A46     		mov	r2, r3
 431 0090 0F49     		ldr	r1, .L27+16
 432 0092 0020     		movs	r0, #0
 433 0094 FFF7FEFF 		bl	printNotif
 134:modem.c       ****         modem_state = MODEM_STATE_STARTUP;
 434              		.loc 1 134 0
 435 0098 0E4B     		ldr	r3, .L27+20
 436 009a 0122     		movs	r2, #1
 437 009c 1A70     		strb	r2, [r3]
 135:modem.c       ****     }else{
 136:modem.c       ****         printNotif(NOTIF_TYPE_ERROR,"No response from modem.");
 137:modem.c       ****         modem_state = MODEM_STATE_OFF;
 138:modem.c       ****         // Power down the modem -- completely "kill" modem to conserve power.
 139:modem.c       ****         modem_power_down();
 140:modem.c       ****         return 0u;
 141:modem.c       ****     }
 142:modem.c       ****     return 1u;
 438              		.loc 1 142 0
 439 009e 0123     		movs	r3, #1
 440 00a0 09E0     		b	.L25
 441              	.L23:
 136:modem.c       ****         modem_state = MODEM_STATE_OFF;
 442              		.loc 1 136 0
 443 00a2 0D49     		ldr	r1, .L27+24
 444 00a4 0220     		movs	r0, #2
 445 00a6 FFF7FEFF 		bl	printNotif
 137:modem.c       ****         // Power down the modem -- completely "kill" modem to conserve power.
 446              		.loc 1 137 0
 447 00aa 0A4B     		ldr	r3, .L27+20
 448 00ac 0022     		movs	r2, #0
 449 00ae 1A70     		strb	r2, [r3]
 139:modem.c       ****         return 0u;
 450              		.loc 1 139 0
 451 00b0 FFF7FEFF 		bl	modem_power_down
 140:modem.c       ****     }
 452              		.loc 1 140 0
 453 00b4 0023     		movs	r3, #0
 454              	.L25:
 143:modem.c       **** }
 455              		.loc 1 143 0
 456 00b6 1846     		mov	r0, r3
 457 00b8 0837     		adds	r7, r7, #8
 458              		.cfi_def_cfa_offset 8
 459 00ba BD46     		mov	sp, r7
ARM GAS  C:\Users\hail\AppData\Local\Temp\ccotwkx9.s 			page 12


 460              		.cfi_def_cfa_register 13
 461              		@ sp needed
 462 00bc 80BD     		pop	{r7, pc}
 463              	.L28:
 464 00be 00BF     		.align	2
 465              	.L27:
 466 00c0 00000000 		.word	isr_telit_rx
 467 00c4 00000000 		.word	.LC0
 468 00c8 10000000 		.word	.LC2
 469 00cc 18000000 		.word	.LC3
 470 00d0 30000000 		.word	.LC4
 471 00d4 00000000 		.word	modem_state
 472 00d8 64000000 		.word	.LC5
 473              		.cfi_endproc
 474              	.LFE69:
 475              		.size	modem_power_up, .-modem_power_up
 476              		.section	.text.modem_soft_power_cycle,"ax",%progbits
 477              		.align	2
 478              		.global	modem_soft_power_cycle
 479              		.thumb
 480              		.thumb_func
 481              		.type	modem_soft_power_cycle, %function
 482              	modem_soft_power_cycle:
 483              	.LFB70:
 144:modem.c       **** 
 145:modem.c       **** // Puts modem in soft power cycle -- modem has power but isn't all the way on, so soft power cycle 
 146:modem.c       **** void modem_soft_power_cycle(){
 484              		.loc 1 146 0
 485              		.cfi_startproc
 486              		@ args = 0, pretend = 0, frame = 0
 487              		@ frame_needed = 1, uses_anonymous_args = 0
 488 0000 80B5     		push	{r7, lr}
 489              		.cfi_def_cfa_offset 8
 490              		.cfi_offset 7, -8
 491              		.cfi_offset 14, -4
 492 0002 00AF     		add	r7, sp, #0
 493              		.cfi_def_cfa_register 7
 147:modem.c       ****     Pin_Telit_ONOFF_Write(1u); // Pulls Telit_ONOFF pin high
 494              		.loc 1 147 0
 495 0004 0120     		movs	r0, #1
 496 0006 FFF7FEFF 		bl	Pin_Telit_ONOFF_Write
 148:modem.c       ****     CyDelay(2000u); // Give modem a sec to boot
 497              		.loc 1 148 0
 498 000a 4FF4FA60 		mov	r0, #2000
 499 000e FFF7FEFF 		bl	CyDelay
 149:modem.c       ****     Pin_Telit_ONOFF_Write(0u); // Pulls Telit_ONOFF pin low
 500              		.loc 1 149 0
 501 0012 0020     		movs	r0, #0
 502 0014 FFF7FEFF 		bl	Pin_Telit_ONOFF_Write
 150:modem.c       ****     
 151:modem.c       **** }
 503              		.loc 1 151 0
 504 0018 00BF     		nop
 505 001a 80BD     		pop	{r7, pc}
 506              		.cfi_endproc
 507              	.LFE70:
 508              		.size	modem_soft_power_cycle, .-modem_soft_power_cycle
ARM GAS  C:\Users\hail\AppData\Local\Temp\ccotwkx9.s 			page 13


 509              		.section	.text.uart_string_reset,"ax",%progbits
 510              		.align	2
 511              		.global	uart_string_reset
 512              		.thumb
 513              		.thumb_func
 514              		.type	uart_string_reset, %function
 515              	uart_string_reset:
 516              	.LFB71:
 152:modem.c       **** 
 153:modem.c       **** // Clear and reset the uart_received_string variable and uart_string_index for the next transmissio
 154:modem.c       **** void uart_string_reset(){
 517              		.loc 1 154 0
 518              		.cfi_startproc
 519              		@ args = 0, pretend = 0, frame = 0
 520              		@ frame_needed = 1, uses_anonymous_args = 0
 521 0000 80B5     		push	{r7, lr}
 522              		.cfi_def_cfa_offset 8
 523              		.cfi_offset 7, -8
 524              		.cfi_offset 14, -4
 525 0002 00AF     		add	r7, sp, #0
 526              		.cfi_def_cfa_register 7
 155:modem.c       ****     uart_string_index=0;
 527              		.loc 1 155 0
 528 0004 064B     		ldr	r3, .L31
 529 0006 0022     		movs	r2, #0
 530 0008 1A70     		strb	r2, [r3]
 156:modem.c       ****     // memset(void *str, int c, size_t n) copies the character c (an unsigned char) to the first n 
 157:modem.c       ****     memset(uart_received_string,'\0',sizeof(uart_received_string));
 531              		.loc 1 157 0
 532 000a 4FF48062 		mov	r2, #1024
 533 000e 0021     		movs	r1, #0
 534 0010 0448     		ldr	r0, .L31+4
 535 0012 FFF7FEFF 		bl	memset
 158:modem.c       ****     // Clears the receiver memory buffer and hardware RX FIFO of all received data.
 159:modem.c       ****     UART_Telit_ClearRxBuffer();
 536              		.loc 1 159 0
 537 0016 FFF7FEFF 		bl	UART_Telit_ClearRxBuffer
 160:modem.c       **** }
 538              		.loc 1 160 0
 539 001a 00BF     		nop
 540 001c 80BD     		pop	{r7, pc}
 541              	.L32:
 542 001e 00BF     		.align	2
 543              	.L31:
 544 0020 00000000 		.word	uart_string_index
 545 0024 00000000 		.word	uart_received_string
 546              		.cfi_endproc
 547              	.LFE71:
 548              		.size	uart_string_reset, .-uart_string_reset
 549              		.section	.rodata
 550              		.align	2
 551              	.LC6:
 552 007c 4D6F6465 		.ascii	"Modem sent AT command without timeout: %s\015\012\000"
 552      6D207365 
 552      6E742041 
 552      5420636F 
 552      6D6D616E 
ARM GAS  C:\Users\hail\AppData\Local\Temp\ccotwkx9.s 			page 14


 553              		.align	2
 554              	.LC7:
 555 00a8 4D6F6465 		.ascii	"Modem Received expected AT Response on first Try:\012"
 555      6D205265 
 555      63656976 
 555      65642065 
 555      78706563 
 556 00da 436F6D6D 		.ascii	"Command: %s\012Received: %s\015\012\000"
 556      616E643A 
 556      2025730A 
 556      52656365 
 556      69766564 
 557 00f5 000000   		.align	2
 558              	.LC8:
 559 00f8 4D6F6465 		.ascii	"Modem required %d tries to receive AT Response: %s\015"
 559      6D207265 
 559      71756972 
 559      65642025 
 559      64207472 
 560 012b 0A00     		.ascii	"\012\000"
 561 012d 000000   		.align	2
 562              	.LC9:
 563 0130 436F756C 		.ascii	"Could not write AT command: %s\012 Received: %s\012"
 563      64206E6F 
 563      74207772 
 563      69746520 
 563      41542063 
 564 015d 00       		.ascii	"\000"
 565              		.section	.text.at_write_command,"ax",%progbits
 566              		.align	2
 567              		.global	at_write_command
 568              		.thumb
 569              		.thumb_func
 570              		.type	at_write_command, %function
 571              	at_write_command:
 572              	.LFB72:
 161:modem.c       **** 
 162:modem.c       **** // Modem controlled  via  the  serial  interface  using  the  standard  AT commands.
 163:modem.c       **** // AT is an ATTENTION command and is used as a prefix to other parameters in a string. 
 164:modem.c       **** // Sends commands to the modem
 165:modem.c       **** uint8_t at_write_command(char* commands, char* expected_response,uint32_t timeout){
 573              		.loc 1 165 0
 574              		.cfi_startproc
 575              		@ args = 0, pretend = 0, frame = 40
 576              		@ frame_needed = 1, uses_anonymous_args = 0
 577 0000 80B5     		push	{r7, lr}
 578              		.cfi_def_cfa_offset 8
 579              		.cfi_offset 7, -8
 580              		.cfi_offset 14, -4
 581 0002 8AB0     		sub	sp, sp, #40
 582              		.cfi_def_cfa_offset 48
 583 0004 00AF     		add	r7, sp, #0
 584              		.cfi_def_cfa_register 7
 585 0006 F860     		str	r0, [r7, #12]
 586 0008 B960     		str	r1, [r7, #8]
 587 000a 7A60     		str	r2, [r7, #4]
 166:modem.c       **** 
ARM GAS  C:\Users\hail\AppData\Local\Temp\ccotwkx9.s 			page 15


 167:modem.c       ****     uint32 at_attempt = 0;
 588              		.loc 1 167 0
 589 000c 0023     		movs	r3, #0
 590 000e 7B62     		str	r3, [r7, #36]
 168:modem.c       ****     
 169:modem.c       ****     for(at_attempt = 0; at_attempt < 3; at_attempt++) {
 591              		.loc 1 169 0
 592 0010 0023     		movs	r3, #0
 593 0012 7B62     		str	r3, [r7, #36]
 594 0014 46E0     		b	.L34
 595              	.L42:
 596              	.LBB4:
 170:modem.c       ****         
 171:modem.c       ****         char* compare_location;
 172:modem.c       ****         uint32_t delay=10;
 597              		.loc 1 172 0
 598 0016 0A23     		movs	r3, #10
 599 0018 FB61     		str	r3, [r7, #28]
 173:modem.c       ****         uint32_t i, interval=timeout/delay;        
 600              		.loc 1 173 0
 601 001a 7A68     		ldr	r2, [r7, #4]
 602 001c FB69     		ldr	r3, [r7, #28]
 603 001e B2FBF3F3 		udiv	r3, r2, r3
 604 0022 BB61     		str	r3, [r7, #24]
 174:modem.c       ****         
 175:modem.c       ****         // Clear and reset the uart_received_string variable and uart_string_index for the next tra
 176:modem.c       ****         uart_string_reset();
 605              		.loc 1 176 0
 606 0024 FFF7FEFF 		bl	uart_string_reset
 177:modem.c       ****         
 178:modem.c       ****         // Sends a NULL terminated string to the TX buffer for transmission.
 179:modem.c       ****         UART_Telit_PutString(commands);
 607              		.loc 1 179 0
 608 0028 F868     		ldr	r0, [r7, #12]
 609 002a FFF7FEFF 		bl	UART_Telit_PutString
 180:modem.c       ****         
 181:modem.c       ****         
 182:modem.c       ****         // If no timeout, no need to wait for response
 183:modem.c       ****         if(timeout == NO_AT_TIMEOUT){
 610              		.loc 1 183 0
 611 002e 7B68     		ldr	r3, [r7, #4]
 612 0030 002B     		cmp	r3, #0
 613 0032 06D1     		bne	.L35
 184:modem.c       ****             printNotif(NOTIF_TYPE_EVENT,"Modem sent AT command without timeout: %s\r\n", commands);
 614              		.loc 1 184 0
 615 0034 FA68     		ldr	r2, [r7, #12]
 616 0036 1F49     		ldr	r1, .L43
 617 0038 0020     		movs	r0, #0
 618 003a FFF7FEFF 		bl	printNotif
 185:modem.c       ****             return 1u;
 619              		.loc 1 185 0
 620 003e 0123     		movs	r3, #1
 621 0040 34E0     		b	.L36
 622              	.L35:
 186:modem.c       ****         }
 187:modem.c       ****       
 188:modem.c       ****      
ARM GAS  C:\Users\hail\AppData\Local\Temp\ccotwkx9.s 			page 16


 189:modem.c       ****         for(i=0;i<interval;i++){ 
 623              		.loc 1 189 0
 624 0042 0023     		movs	r3, #0
 625 0044 3B62     		str	r3, [r7, #32]
 626 0046 20E0     		b	.L37
 627              	.L41:
 190:modem.c       ****             CyDelay((uint32) delay);
 628              		.loc 1 190 0
 629 0048 F869     		ldr	r0, [r7, #28]
 630 004a FFF7FEFF 		bl	CyDelay
 191:modem.c       ****             // strstr(const char *haystack, const char *needle) function finds the first occurrence
 192:modem.c       ****             // Returns a pointer to the first occurrence in haystack of any of the entire sequence 
 193:modem.c       ****             compare_location=strstr(uart_received_string,expected_response);        
 631              		.loc 1 193 0
 632 004e B968     		ldr	r1, [r7, #8]
 633 0050 1948     		ldr	r0, .L43+4
 634 0052 FFF7FEFF 		bl	strstr
 635 0056 7861     		str	r0, [r7, #20]
 194:modem.c       ****             if(compare_location!=NULL) {
 636              		.loc 1 194 0
 637 0058 7B69     		ldr	r3, [r7, #20]
 638 005a 002B     		cmp	r3, #0
 639 005c 12D0     		beq	.L38
 195:modem.c       ****                 if (at_attempt == 0){
 640              		.loc 1 195 0
 641 005e 7B6A     		ldr	r3, [r7, #36]
 642 0060 002B     		cmp	r3, #0
 643 0062 06D1     		bne	.L39
 196:modem.c       ****                     // we add \n for new line to make it easier to decipher
 197:modem.c       ****                     printNotif(NOTIF_TYPE_EVENT,"Modem Received expected AT Response on first Try:\
 644              		.loc 1 197 0
 645 0064 144B     		ldr	r3, .L43+4
 646 0066 FA68     		ldr	r2, [r7, #12]
 647 0068 1449     		ldr	r1, .L43+8
 648 006a 0020     		movs	r0, #0
 649 006c FFF7FEFF 		bl	printNotif
 650 0070 06E0     		b	.L40
 651              	.L39:
 198:modem.c       ****                 }else{
 199:modem.c       ****                     printNotif(NOTIF_TYPE_WARNING,"Modem required %d tries to receive AT Response: 
 652              		.loc 1 199 0
 653 0072 7B6A     		ldr	r3, [r7, #36]
 654 0074 5A1C     		adds	r2, r3, #1
 655 0076 104B     		ldr	r3, .L43+4
 656 0078 1149     		ldr	r1, .L43+12
 657 007a 0120     		movs	r0, #1
 658 007c FFF7FEFF 		bl	printNotif
 659              	.L40:
 200:modem.c       ****                  
 201:modem.c       ****                 }
 202:modem.c       ****                 return(1);
 660              		.loc 1 202 0
 661 0080 0123     		movs	r3, #1
 662 0082 13E0     		b	.L36
 663              	.L38:
 189:modem.c       ****             CyDelay((uint32) delay);
 664              		.loc 1 189 0 discriminator 2
ARM GAS  C:\Users\hail\AppData\Local\Temp\ccotwkx9.s 			page 17


 665 0084 3B6A     		ldr	r3, [r7, #32]
 666 0086 0133     		adds	r3, r3, #1
 667 0088 3B62     		str	r3, [r7, #32]
 668              	.L37:
 189:modem.c       ****             CyDelay((uint32) delay);
 669              		.loc 1 189 0 is_stmt 0 discriminator 1
 670 008a 3A6A     		ldr	r2, [r7, #32]
 671 008c BB69     		ldr	r3, [r7, #24]
 672 008e 9A42     		cmp	r2, r3
 673 0090 DAD3     		bcc	.L41
 203:modem.c       ****             }
 204:modem.c       ****             
 205:modem.c       ****         }  
 206:modem.c       ****         
 207:modem.c       ****         // Something went wrong, restart UART
 208:modem.c       ****         printNotif(NOTIF_TYPE_ERROR,"Could not write AT command: %s\n Received: %s\n", commands,uar
 674              		.loc 1 208 0 is_stmt 1 discriminator 2
 675 0092 094B     		ldr	r3, .L43+4
 676 0094 FA68     		ldr	r2, [r7, #12]
 677 0096 0B49     		ldr	r1, .L43+16
 678 0098 0220     		movs	r0, #2
 679 009a FFF7FEFF 		bl	printNotif
 680              	.LBE4:
 169:modem.c       ****         
 681              		.loc 1 169 0 discriminator 2
 682 009e 7B6A     		ldr	r3, [r7, #36]
 683 00a0 0133     		adds	r3, r3, #1
 684 00a2 7B62     		str	r3, [r7, #36]
 685              	.L34:
 169:modem.c       ****         
 686              		.loc 1 169 0 is_stmt 0 discriminator 1
 687 00a4 7B6A     		ldr	r3, [r7, #36]
 688 00a6 022B     		cmp	r3, #2
 689 00a8 B5D9     		bls	.L42
 209:modem.c       ****       
 210:modem.c       ****     }
 211:modem.c       ****    // printNotif(NOTIF_TYPE_ERROR,"Modem AT response timeout: %s\r\n", commands);
 212:modem.c       ****           
 213:modem.c       ****     return(0);    
 690              		.loc 1 213 0 is_stmt 1
 691 00aa 0023     		movs	r3, #0
 692              	.L36:
 214:modem.c       **** }
 693              		.loc 1 214 0
 694 00ac 1846     		mov	r0, r3
 695 00ae 2837     		adds	r7, r7, #40
 696              		.cfi_def_cfa_offset 8
 697 00b0 BD46     		mov	sp, r7
 698              		.cfi_def_cfa_register 13
 699              		@ sp needed
 700 00b2 80BD     		pop	{r7, pc}
 701              	.L44:
 702              		.align	2
 703              	.L43:
 704 00b4 7C000000 		.word	.LC6
 705 00b8 00000000 		.word	uart_received_string
 706 00bc A8000000 		.word	.LC7
ARM GAS  C:\Users\hail\AppData\Local\Temp\ccotwkx9.s 			page 18


 707 00c0 F8000000 		.word	.LC8
 708 00c4 30010000 		.word	.LC9
 709              		.cfi_endproc
 710              	.LFE72:
 711              		.size	at_write_command, .-at_write_command
 712              		.section	.rodata
 713 015e 0000     		.align	2
 714              	.LC10:
 715 0160 54455354 		.ascii	"TEST_MODEM\000"
 715      5F4D4F44 
 715      454D00
 716 016b 00       		.align	2
 717              	.LC11:
 718 016c 4E6F2072 		.ascii	"No reponse from modem.\000"
 718      65706F6E 
 718      73652066 
 718      726F6D20 
 718      6D6F6465 
 719 0183 00       		.align	2
 720              	.LC12:
 721 0184 4D6F6465 		.ascii	"Modem connected to network.\000"
 721      6D20636F 
 721      6E6E6563 
 721      74656420 
 721      746F206E 
 722              		.section	.text.modem_test,"ax",%progbits
 723              		.align	2
 724              		.global	modem_test
 725              		.thumb
 726              		.thumb_func
 727              		.type	modem_test, %function
 728              	modem_test:
 729              	.LFB73:
 215:modem.c       **** 
 216:modem.c       **** // Test modem -- needs fleshed out
 217:modem.c       **** test_t modem_test(){
 730              		.loc 1 217 0
 731              		.cfi_startproc
 732              		@ args = 0, pretend = 0, frame = 408
 733              		@ frame_needed = 1, uses_anonymous_args = 0
 734 0000 B0B5     		push	{r4, r5, r7, lr}
 735              		.cfi_def_cfa_offset 16
 736              		.cfi_offset 4, -16
 737              		.cfi_offset 5, -12
 738              		.cfi_offset 7, -8
 739              		.cfi_offset 14, -4
 740 0002 E6B0     		sub	sp, sp, #408
 741              		.cfi_def_cfa_offset 424
 742 0004 00AF     		add	r7, sp, #0
 743              		.cfi_def_cfa_register 7
 744 0006 3B1D     		adds	r3, r7, #4
 745 0008 1860     		str	r0, [r3]
 218:modem.c       ****     
 219:modem.c       ****     test_t test; // test_t is a new data type we defined in test.h. We then use that data type to d
 220:modem.c       ****     test.status = 0;
 746              		.loc 1 220 0
 747 000a 07F10C03 		add	r3, r7, #12
ARM GAS  C:\Users\hail\AppData\Local\Temp\ccotwkx9.s 			page 19


 748 000e 0022     		movs	r2, #0
 749 0010 83F88020 		strb	r2, [r3, #128]
 221:modem.c       ****     // Print test name and test reason
 222:modem.c       ****     snprintf(test.test_name,sizeof(test.test_name),"TEST_MODEM");
 750              		.loc 1 222 0
 751 0014 07F10C03 		add	r3, r7, #12
 752 0018 354A     		ldr	r2, .L53
 753 001a 07CA     		ldmia	r2, {r0, r1, r2}
 754 001c 03C3     		stmia	r3!, {r0, r1}
 755 001e 1A80     		strh	r2, [r3]	@ movhi
 756 0020 0233     		adds	r3, r3, #2
 757 0022 120C     		lsrs	r2, r2, #16
 758 0024 1A70     		strb	r2, [r3]
 223:modem.c       ****     snprintf(test.reason,sizeof(test.reason),"No reponse from modem.");
 759              		.loc 1 223 0
 760 0026 07F10C03 		add	r3, r7, #12
 761 002a 8133     		adds	r3, r3, #129
 762 002c 314A     		ldr	r2, .L53+4
 763 002e 1C46     		mov	r4, r3
 764 0030 1546     		mov	r5, r2
 765 0032 0FCD     		ldmia	r5!, {r0, r1, r2, r3}
 766 0034 2060     		str	r0, [r4]	@ unaligned
 767 0036 6160     		str	r1, [r4, #4]	@ unaligned
 768 0038 A260     		str	r2, [r4, #8]	@ unaligned
 769 003a E360     		str	r3, [r4, #12]	@ unaligned
 770 003c 2868     		ldr	r0, [r5]	@ unaligned
 771 003e 2061     		str	r0, [r4, #16]	@ unaligned
 772 0040 AB88     		ldrh	r3, [r5, #4]	@ unaligned
 773 0042 AA79     		ldrb	r2, [r5, #6]
 774 0044 A382     		strh	r3, [r4, #20]	@ unaligned
 775 0046 1346     		mov	r3, r2
 776 0048 A375     		strb	r3, [r4, #22]
 777              	.LBB5:
 224:modem.c       ****    
 225:modem.c       ****     //try the modem 60*100 (60 secs)
 226:modem.c       ****     for(int i = 0; i< 60; i++){
 778              		.loc 1 226 0
 779 004a 0023     		movs	r3, #0
 780 004c C7F89431 		str	r3, [r7, #404]
 781 0050 39E0     		b	.L46
 782              	.L51:
 227:modem.c       ****         // Function to startup the modem, connect to the network, and then hand it off to sleep.
 228:modem.c       ****         modem_process_tasks();
 783              		.loc 1 228 0
 784 0052 FFF7FEFF 		bl	modem_process_tasks
 229:modem.c       ****          
 230:modem.c       ****         if(modem_get_state() == MODEM_STATE_OFF){
 785              		.loc 1 230 0
 786 0056 FFF7FEFF 		bl	modem_get_state
 787 005a 0346     		mov	r3, r0
 788 005c 002B     		cmp	r3, #0
 789 005e 02D1     		bne	.L47
 231:modem.c       ****             // This puts all the modem points into a state that won't leak power
 232:modem.c       ****             modem_power_up();
 790              		.loc 1 232 0
 791 0060 FFF7FEFF 		bl	modem_power_up
 792 0064 27E0     		b	.L48
ARM GAS  C:\Users\hail\AppData\Local\Temp\ccotwkx9.s 			page 20


 793              	.L47:
 233:modem.c       ****             // Should put this on a max_try counter, so we don't just keep trying to connect over a
 234:modem.c       ****             
 235:modem.c       ****         }else if(modem_get_state() == MODEM_STATE_READY){
 794              		.loc 1 235 0
 795 0066 FFF7FEFF 		bl	modem_get_state
 796 006a 0346     		mov	r3, r0
 797 006c 042B     		cmp	r3, #4
 798 006e 22D1     		bne	.L48
 799              	.LBB6:
 236:modem.c       ****         
 237:modem.c       ****         
 238:modem.c       ****         // Get time, and if it looks good, set the RTC with it
 239:modem.c       ****         long network_time = modem_get_network_time();
 800              		.loc 1 239 0
 801 0070 FFF7FEFF 		bl	modem_get_network_time
 802 0074 C7F89001 		str	r0, [r7, #400]
 240:modem.c       ****         if(network_time != 0){
 803              		.loc 1 240 0
 804 0078 D7F89031 		ldr	r3, [r7, #400]
 805 007c 002B     		cmp	r3, #0
 806 007e 03D0     		beq	.L49
 241:modem.c       ****             setTime(network_time); // Set the system time 
 807              		.loc 1 241 0
 808 0080 D7F89001 		ldr	r0, [r7, #400]
 809 0084 FFF7FEFF 		bl	setTime
 810              	.L49:
 242:modem.c       ****         }
 243:modem.c       ****             
 244:modem.c       ****         snprintf(test.reason,sizeof(test.reason),"Modem connected to network.");
 811              		.loc 1 244 0
 812 0088 07F10C03 		add	r3, r7, #12
 813 008c 8133     		adds	r3, r3, #129
 814 008e 1A4A     		ldr	r2, .L53+8
 815 0090 1D46     		mov	r5, r3
 816 0092 1446     		mov	r4, r2
 817 0094 0FCC     		ldmia	r4!, {r0, r1, r2, r3}
 818 0096 2860     		str	r0, [r5]	@ unaligned
 819 0098 6960     		str	r1, [r5, #4]	@ unaligned
 820 009a AA60     		str	r2, [r5, #8]	@ unaligned
 821 009c EB60     		str	r3, [r5, #12]	@ unaligned
 822 009e 07CC     		ldmia	r4!, {r0, r1, r2}
 823 00a0 2861     		str	r0, [r5, #16]	@ unaligned
 824 00a2 6961     		str	r1, [r5, #20]	@ unaligned
 825 00a4 AA61     		str	r2, [r5, #24]	@ unaligned
 245:modem.c       ****         test.status = 1;
 826              		.loc 1 245 0
 827 00a6 07F10C03 		add	r3, r7, #12
 828 00aa 0122     		movs	r2, #1
 829 00ac 83F88020 		strb	r2, [r3, #128]
 246:modem.c       ****         // Power down the modem -- completely "kill" modem to conserve power.
 247:modem.c       ****         modem_power_down();
 830              		.loc 1 247 0
 831 00b0 FFF7FEFF 		bl	modem_power_down
 248:modem.c       ****         break;
 832              		.loc 1 248 0
 833 00b4 0BE0     		b	.L50
ARM GAS  C:\Users\hail\AppData\Local\Temp\ccotwkx9.s 			page 21


 834              	.L48:
 835              	.LBE6:
 249:modem.c       ****         
 250:modem.c       ****       }
 251:modem.c       ****         CyDelay(100u);
 836              		.loc 1 251 0 discriminator 2
 837 00b6 6420     		movs	r0, #100
 838 00b8 FFF7FEFF 		bl	CyDelay
 226:modem.c       ****         // Function to startup the modem, connect to the network, and then hand it off to sleep.
 839              		.loc 1 226 0 discriminator 2
 840 00bc D7F89431 		ldr	r3, [r7, #404]
 841 00c0 0133     		adds	r3, r3, #1
 842 00c2 C7F89431 		str	r3, [r7, #404]
 843              	.L46:
 226:modem.c       ****         // Function to startup the modem, connect to the network, and then hand it off to sleep.
 844              		.loc 1 226 0 is_stmt 0 discriminator 1
 845 00c6 D7F89431 		ldr	r3, [r7, #404]
 846 00ca 3B2B     		cmp	r3, #59
 847 00cc C1DD     		ble	.L51
 848              	.L50:
 849              	.LBE5:
 252:modem.c       ****         
 253:modem.c       ****     }
 254:modem.c       ****     
 255:modem.c       ****     return test;
 850              		.loc 1 255 0 is_stmt 1
 851 00ce 3B1D     		adds	r3, r7, #4
 852 00d0 1A68     		ldr	r2, [r3]
 853 00d2 07F10C03 		add	r3, r7, #12
 854 00d6 1046     		mov	r0, r2
 855 00d8 1946     		mov	r1, r3
 856 00da 40F28113 		movw	r3, #385
 857 00de 1A46     		mov	r2, r3
 858 00e0 FFF7FEFF 		bl	memcpy
 256:modem.c       **** }
 859              		.loc 1 256 0
 860 00e4 3B1D     		adds	r3, r7, #4
 861 00e6 1868     		ldr	r0, [r3]
 862 00e8 07F5CC77 		add	r7, r7, #408
 863              		.cfi_def_cfa_offset 16
 864 00ec BD46     		mov	sp, r7
 865              		.cfi_def_cfa_register 13
 866              		@ sp needed
 867 00ee B0BD     		pop	{r4, r5, r7, pc}
 868              	.L54:
 869              		.align	2
 870              	.L53:
 871 00f0 60010000 		.word	.LC10
 872 00f4 6C010000 		.word	.LC11
 873 00f8 84010000 		.word	.LC12
 874              		.cfi_endproc
 875              	.LFE73:
 876              		.size	modem_test, .-modem_test
 877              		.section	.text.extract_string,"ax",%progbits
 878              		.align	2
 879              		.global	extract_string
 880              		.thumb
ARM GAS  C:\Users\hail\AppData\Local\Temp\ccotwkx9.s 			page 22


 881              		.thumb_func
 882              		.type	extract_string, %function
 883              	extract_string:
 884              	.LFB74:
 257:modem.c       **** 
 258:modem.c       **** // Extract string from the UART
 259:modem.c       **** uint8 extract_string(char* from, const char* beginMarker, const char* endMarker,  char* target){
 885              		.loc 1 259 0
 886              		.cfi_startproc
 887              		@ args = 0, pretend = 0, frame = 24
 888              		@ frame_needed = 1, uses_anonymous_args = 0
 889 0000 80B5     		push	{r7, lr}
 890              		.cfi_def_cfa_offset 8
 891              		.cfi_offset 7, -8
 892              		.cfi_offset 14, -4
 893 0002 86B0     		sub	sp, sp, #24
 894              		.cfi_def_cfa_offset 32
 895 0004 00AF     		add	r7, sp, #0
 896              		.cfi_def_cfa_register 7
 897 0006 F860     		str	r0, [r7, #12]
 898 0008 B960     		str	r1, [r7, #8]
 899 000a 7A60     		str	r2, [r7, #4]
 900 000c 3B60     		str	r3, [r7]
 260:modem.c       ****     
 261:modem.c       ****         char *a, *b;
 262:modem.c       ****   
 263:modem.c       ****         // Expect the UART to contain something like "+CSQ: 17,99\r\n\r\nOK"
 264:modem.c       ****         // - Search for "+CSQ: ".  Place the starting pointer, a, at the resulting index
 265:modem.c       ****         a = strstr(from,beginMarker);
 901              		.loc 1 265 0
 902 000e B968     		ldr	r1, [r7, #8]
 903 0010 F868     		ldr	r0, [r7, #12]
 904 0012 FFF7FEFF 		bl	strstr
 905 0016 7861     		str	r0, [r7, #20]
 266:modem.c       ****         if (a == NULL) {
 906              		.loc 1 266 0
 907 0018 7B69     		ldr	r3, [r7, #20]
 908 001a 002B     		cmp	r3, #0
 909 001c 01D1     		bne	.L56
 267:modem.c       ****             //puts("+CSQ: not found in uart_received_string");
 268:modem.c       ****             a = from;
 910              		.loc 1 268 0
 911 001e FB68     		ldr	r3, [r7, #12]
 912 0020 7B61     		str	r3, [r7, #20]
 913              	.L56:
 269:modem.c       ****         }
 270:modem.c       ****         // The strlen() function calculates the length of a given string.
 271:modem.c       ****         a += strlen(beginMarker);
 914              		.loc 1 271 0
 915 0022 B868     		ldr	r0, [r7, #8]
 916 0024 FFF7FEFF 		bl	strlen
 917 0028 0246     		mov	r2, r0
 918 002a 7B69     		ldr	r3, [r7, #20]
 919 002c 1344     		add	r3, r3, r2
 920 002e 7B61     		str	r3, [r7, #20]
 272:modem.c       ****         
 273:modem.c       ****         // - Find the end marking and offset by 1
ARM GAS  C:\Users\hail\AppData\Local\Temp\ccotwkx9.s 			page 23


 274:modem.c       ****         // strstr(const char *haystack, const char *needle) function finds the first occurrence of 
 275:modem.c       ****         // Returns a pointer to the first occurrence in haystack of any of the entire sequence of c
 276:modem.c       ****         b = strstr(a,endMarker);
 921              		.loc 1 276 0
 922 0030 7968     		ldr	r1, [r7, #4]
 923 0032 7869     		ldr	r0, [r7, #20]
 924 0034 FFF7FEFF 		bl	strstr
 925 0038 3861     		str	r0, [r7, #16]
 277:modem.c       ****         if (b == NULL) {
 926              		.loc 1 277 0
 927 003a 3B69     		ldr	r3, [r7, #16]
 928 003c 002B     		cmp	r3, #0
 929 003e 06D1     		bne	.L57
 278:modem.c       ****             // Puts("Comma not found in uart_received_string");
 279:modem.c       ****             b=from+strlen(from);
 930              		.loc 1 279 0
 931 0040 F868     		ldr	r0, [r7, #12]
 932 0042 FFF7FEFF 		bl	strlen
 933 0046 0246     		mov	r2, r0
 934 0048 FB68     		ldr	r3, [r7, #12]
 935 004a 1344     		add	r3, r3, r2
 936 004c 3B61     		str	r3, [r7, #16]
 937              	.L57:
 280:modem.c       ****         }        
 281:modem.c       ****         
 282:modem.c       ****         // Parse the strings and store the respective rssi and fer values
 283:modem.c       ****         strncpy(target,a,b-a);
 938              		.loc 1 283 0
 939 004e 3A69     		ldr	r2, [r7, #16]
 940 0050 7B69     		ldr	r3, [r7, #20]
 941 0052 D31A     		subs	r3, r2, r3
 942 0054 1A46     		mov	r2, r3
 943 0056 7969     		ldr	r1, [r7, #20]
 944 0058 3868     		ldr	r0, [r7]
 945 005a FFF7FEFF 		bl	strncpy
 284:modem.c       ****         target[b-a] = '\0';
 946              		.loc 1 284 0
 947 005e 3A69     		ldr	r2, [r7, #16]
 948 0060 7B69     		ldr	r3, [r7, #20]
 949 0062 D31A     		subs	r3, r2, r3
 950 0064 1A46     		mov	r2, r3
 951 0066 3B68     		ldr	r3, [r7]
 952 0068 1344     		add	r3, r3, r2
 953 006a 0022     		movs	r2, #0
 954 006c 1A70     		strb	r2, [r3]
 285:modem.c       ****         return 1u;
 955              		.loc 1 285 0
 956 006e 0123     		movs	r3, #1
 286:modem.c       ****         
 287:modem.c       **** }
 957              		.loc 1 287 0
 958 0070 1846     		mov	r0, r3
 959 0072 1837     		adds	r7, r7, #24
 960              		.cfi_def_cfa_offset 8
 961 0074 BD46     		mov	sp, r7
 962              		.cfi_def_cfa_register 13
 963              		@ sp needed
ARM GAS  C:\Users\hail\AppData\Local\Temp\ccotwkx9.s 			page 24


 964 0076 80BD     		pop	{r7, pc}
 965              		.cfi_endproc
 966              	.LFE74:
 967              		.size	extract_string, .-extract_string
 968              		.section	.rodata
 969              		.align	2
 970              	.LC13:
 971 01a0 54696D65 		.ascii	"Time to connecto to network: %d seconds\000"
 971      20746F20 
 971      636F6E6E 
 971      6563746F 
 971      20746F20 
 972              		.align	2
 973              	.LC14:
 974 01c8 4D6F6465 		.ascii	"Modem timed out on network connect\000"
 974      6D207469 
 974      6D656420 
 974      6F757420 
 974      6F6E206E 
 975 01eb 00       		.align	2
 976              	.LC15:
 977 01ec 41637175 		.ascii	"Acquired IP address: %d seconds\000"
 977      69726564 
 977      20495020 
 977      61646472 
 977      6573733A 
 978              		.align	2
 979              	.LC16:
 980 020c 4D6F6465 		.ascii	"Modem timed out on IP address acquire.\000"
 980      6D207469 
 980      6D656420 
 980      6F757420 
 980      6F6E2049 
 981              		.section	.text.modem_process_tasks,"ax",%progbits
 982              		.align	2
 983              		.global	modem_process_tasks
 984              		.thumb
 985              		.thumb_func
 986              		.type	modem_process_tasks, %function
 987              	modem_process_tasks:
 988              	.LFB75:
 288:modem.c       **** 
 289:modem.c       **** // Function to startup the modem, connect to the network, and then hand it off to sleep
 290:modem.c       **** uint8 modem_process_tasks(){
 989              		.loc 1 290 0
 990              		.cfi_startproc
 991              		@ args = 0, pretend = 0, frame = 0
 992              		@ frame_needed = 1, uses_anonymous_args = 0
 993 0000 80B5     		push	{r7, lr}
 994              		.cfi_def_cfa_offset 8
 995              		.cfi_offset 7, -8
 996              		.cfi_offset 14, -4
 997 0002 00AF     		add	r7, sp, #0
 998              		.cfi_def_cfa_register 7
 291:modem.c       ****     // If modem state is "startup" then get the modem start time, configure modem settings, and cha
 292:modem.c       ****     if(modem_state == MODEM_STATE_STARTUP){
 999              		.loc 1 292 0
ARM GAS  C:\Users\hail\AppData\Local\Temp\ccotwkx9.s 			page 25


 1000 0004 394B     		ldr	r3, .L68
 1001 0006 1B78     		ldrb	r3, [r3]	@ zero_extendqisi2
 1002 0008 012B     		cmp	r3, #1
 1003 000a 0BD1     		bne	.L60
 293:modem.c       ****         
 294:modem.c       ****         modem_start_time_stamp = getTimeStamp(); // Get timestamp for modem start time
 1004              		.loc 1 294 0
 1005 000c FFF7FEFF 		bl	getTimeStamp
 1006 0010 0246     		mov	r2, r0
 1007 0012 374B     		ldr	r3, .L68+4
 1008 0014 1A60     		str	r2, [r3]
 295:modem.c       ****         modem_configure_settings(); // Configure modem settings
 1009              		.loc 1 295 0
 1010 0016 FFF7FEFF 		bl	modem_configure_settings
 296:modem.c       ****         modem_state = MODEM_STATE_WAITING_FOR_NETWORK; // Change modem state 
 1011              		.loc 1 296 0
 1012 001a 344B     		ldr	r3, .L68
 1013 001c 0222     		movs	r2, #2
 1014 001e 1A70     		strb	r2, [r3]
 297:modem.c       ****         return 1u; // Keep going, don't hand off to sleep yet
 1015              		.loc 1 297 0
 1016 0020 0123     		movs	r3, #1
 1017 0022 60E0     		b	.L61
 1018              	.L60:
 298:modem.c       ****         
 299:modem.c       ****     }
 300:modem.c       ****     // Else if modem state is "waiting for network" 
 301:modem.c       ****     else if(modem_state == MODEM_STATE_WAITING_FOR_NETWORK){
 1019              		.loc 1 301 0
 1020 0024 314B     		ldr	r3, .L68
 1021 0026 1B78     		ldrb	r3, [r3]	@ zero_extendqisi2
 1022 0028 022B     		cmp	r3, #2
 1023 002a 2DD1     		bne	.L62
 302:modem.c       ****         // If modem connected to the cell network, save/print the time to connect to the network
 303:modem.c       ****         if(is_connected_to_cell_network()){
 1024              		.loc 1 303 0
 1025 002c FFF7FEFF 		bl	is_connected_to_cell_network
 1026 0030 0346     		mov	r3, r0
 1027 0032 002B     		cmp	r3, #0
 1028 0034 15D0     		beq	.L63
 304:modem.c       ****       
 305:modem.c       ****              modem_stats.time_to_network_connect = (int)(getTimeStamp() - (int32)modem_start_time_s
 1029              		.loc 1 305 0
 1030 0036 FFF7FEFF 		bl	getTimeStamp
 1031 003a 0246     		mov	r2, r0
 1032 003c 2C4B     		ldr	r3, .L68+4
 1033 003e 1B68     		ldr	r3, [r3]
 1034 0040 D31A     		subs	r3, r2, r3
 1035 0042 2C4A     		ldr	r2, .L68+8
 1036 0044 5360     		str	r3, [r2, #4]
 306:modem.c       ****              printNotif(NOTIF_TYPE_EVENT,"Time to connecto to network: %d seconds",
 1037              		.loc 1 306 0
 1038 0046 2B4B     		ldr	r3, .L68+8
 1039 0048 5B68     		ldr	r3, [r3, #4]
 1040 004a 1A46     		mov	r2, r3
 1041 004c 2A49     		ldr	r1, .L68+12
 1042 004e 0020     		movs	r0, #0
ARM GAS  C:\Users\hail\AppData\Local\Temp\ccotwkx9.s 			page 26


 1043 0050 FFF7FEFF 		bl	printNotif
 307:modem.c       ****                                             modem_stats.time_to_network_connect);
 308:modem.c       ****             get_cell_network_stats(); // Get cell network stats
 1044              		.loc 1 308 0
 1045 0054 FFF7FEFF 		bl	get_cell_network_stats
 309:modem.c       ****             set_up_internet_connection(); // Setup the internet connection
 1046              		.loc 1 309 0
 1047 0058 FFF7FEFF 		bl	set_up_internet_connection
 310:modem.c       ****             modem_state = MODEM_STATE_WAITING_FOR_IP; // Change modem state 
 1048              		.loc 1 310 0
 1049 005c 234B     		ldr	r3, .L68
 1050 005e 0322     		movs	r2, #3
 1051 0060 1A70     		strb	r2, [r3]
 1052              	.L63:
 311:modem.c       ****         }
 312:modem.c       **** 
 313:modem.c       ****         //power off if we times out shold only take ~30 secs to connect to network
 314:modem.c       ****         if((int)(getTimeStamp()-(int32)modem_start_time_stamp) > TIMEOUT_NETWORK_CONNECT){
 1053              		.loc 1 314 0
 1054 0062 FFF7FEFF 		bl	getTimeStamp
 1055 0066 0246     		mov	r2, r0
 1056 0068 214B     		ldr	r3, .L68+4
 1057 006a 1B68     		ldr	r3, [r3]
 1058 006c D31A     		subs	r3, r2, r3
 1059 006e C82B     		cmp	r3, #200
 1060 0070 08DD     		ble	.L64
 315:modem.c       ****             modem_state = MODEM_STATE_OFF; // Change modem state
 1061              		.loc 1 315 0
 1062 0072 1E4B     		ldr	r3, .L68
 1063 0074 0022     		movs	r2, #0
 1064 0076 1A70     		strb	r2, [r3]
 316:modem.c       ****             modem_power_down(); // Power down the modem -- completely "kill" modem to conserve powe
 1065              		.loc 1 316 0
 1066 0078 FFF7FEFF 		bl	modem_power_down
 317:modem.c       ****             printNotif(NOTIF_TYPE_ERROR,"Modem timed out on network connect");
 1067              		.loc 1 317 0
 1068 007c 1F49     		ldr	r1, .L68+16
 1069 007e 0220     		movs	r0, #2
 1070 0080 FFF7FEFF 		bl	printNotif
 1071              	.L64:
 318:modem.c       ****             
 319:modem.c       ****         }
 320:modem.c       ****         
 321:modem.c       ****         return 0u;//ok to hand off to sleep
 1072              		.loc 1 321 0
 1073 0084 0023     		movs	r3, #0
 1074 0086 2EE0     		b	.L61
 1075              	.L62:
 322:modem.c       ****         
 323:modem.c       ****     // Else if modem state is "waiting for IP"
 324:modem.c       ****     }else if(modem_state == MODEM_STATE_WAITING_FOR_IP){
 1076              		.loc 1 324 0
 1077 0088 184B     		ldr	r3, .L68
 1078 008a 1B78     		ldrb	r3, [r3]	@ zero_extendqisi2
 1079 008c 032B     		cmp	r3, #3
 1080 008e 29D1     		bne	.L65
 325:modem.c       ****         // If the modem is connected to the internet, change modem state to "ready", save/print tim
ARM GAS  C:\Users\hail\AppData\Local\Temp\ccotwkx9.s 			page 27


 326:modem.c       ****         if(is_connected_to_internet()){
 1081              		.loc 1 326 0
 1082 0090 FFF7FEFF 		bl	is_connected_to_internet
 1083 0094 0346     		mov	r3, r0
 1084 0096 002B     		cmp	r3, #0
 1085 0098 11D0     		beq	.L66
 327:modem.c       ****             modem_state = MODEM_STATE_READY; // Change modem state
 1086              		.loc 1 327 0
 1087 009a 144B     		ldr	r3, .L68
 1088 009c 0422     		movs	r2, #4
 1089 009e 1A70     		strb	r2, [r3]
 328:modem.c       ****             // Save/print time to acquire IP address
 329:modem.c       ****             modem_stats.time_to_acquire_ip = (int)(getTimeStamp() - (int32)modem_start_time_stamp);
 1090              		.loc 1 329 0
 1091 00a0 FFF7FEFF 		bl	getTimeStamp
 1092 00a4 0246     		mov	r2, r0
 1093 00a6 124B     		ldr	r3, .L68+4
 1094 00a8 1B68     		ldr	r3, [r3]
 1095 00aa D31A     		subs	r3, r2, r3
 1096 00ac 114A     		ldr	r2, .L68+8
 1097 00ae 9360     		str	r3, [r2, #8]
 330:modem.c       ****              printNotif(NOTIF_TYPE_EVENT,"Acquired IP address: %d seconds",
 1098              		.loc 1 330 0
 1099 00b0 104B     		ldr	r3, .L68+8
 1100 00b2 9B68     		ldr	r3, [r3, #8]
 1101 00b4 1A46     		mov	r2, r3
 1102 00b6 1249     		ldr	r1, .L68+20
 1103 00b8 0020     		movs	r0, #0
 1104 00ba FFF7FEFF 		bl	printNotif
 1105              	.L66:
 331:modem.c       ****                                             modem_stats.time_to_acquire_ip);
 332:modem.c       ****         }
 333:modem.c       ****         
 334:modem.c       ****         // Power off if we times out shold only take ~30 secs to connect to network
 335:modem.c       ****         if((int)(getTimeStamp()-(int32)modem_start_time_stamp) > TIMEOUT_IP_ACQUIRE){
 1106              		.loc 1 335 0
 1107 00be FFF7FEFF 		bl	getTimeStamp
 1108 00c2 0246     		mov	r2, r0
 1109 00c4 0A4B     		ldr	r3, .L68+4
 1110 00c6 1B68     		ldr	r3, [r3]
 1111 00c8 D31A     		subs	r3, r2, r3
 1112 00ca E62B     		cmp	r3, #230
 1113 00cc 08DD     		ble	.L67
 336:modem.c       ****             modem_state = MODEM_STATE_OFF;
 1114              		.loc 1 336 0
 1115 00ce 074B     		ldr	r3, .L68
 1116 00d0 0022     		movs	r2, #0
 1117 00d2 1A70     		strb	r2, [r3]
 337:modem.c       ****             modem_power_down(); // Power down the modem -- completely "kill" modem to conserve powe
 1118              		.loc 1 337 0
 1119 00d4 FFF7FEFF 		bl	modem_power_down
 338:modem.c       ****             printNotif(NOTIF_TYPE_ERROR,"Modem timed out on IP address acquire.");
 1120              		.loc 1 338 0
 1121 00d8 0A49     		ldr	r1, .L68+24
 1122 00da 0220     		movs	r0, #2
 1123 00dc FFF7FEFF 		bl	printNotif
 1124              	.L67:
ARM GAS  C:\Users\hail\AppData\Local\Temp\ccotwkx9.s 			page 28


 339:modem.c       ****       
 340:modem.c       ****         }
 341:modem.c       ****         return 0u;//ok to hand off to sleep
 1125              		.loc 1 341 0
 1126 00e0 0023     		movs	r3, #0
 1127 00e2 00E0     		b	.L61
 1128              	.L65:
 342:modem.c       ****     }
 343:modem.c       ****     
 344:modem.c       ****     return 0u;
 1129              		.loc 1 344 0
 1130 00e4 0023     		movs	r3, #0
 1131              	.L61:
 345:modem.c       ****     
 346:modem.c       **** }
 1132              		.loc 1 346 0
 1133 00e6 1846     		mov	r0, r3
 1134 00e8 80BD     		pop	{r7, pc}
 1135              	.L69:
 1136 00ea 00BF     		.align	2
 1137              	.L68:
 1138 00ec 00000000 		.word	modem_state
 1139 00f0 00000000 		.word	modem_start_time_stamp
 1140 00f4 00000000 		.word	modem_stats
 1141 00f8 A0010000 		.word	.LC13
 1142 00fc C8010000 		.word	.LC14
 1143 0100 EC010000 		.word	.LC15
 1144 0104 0C020000 		.word	.LC16
 1145              		.cfi_endproc
 1146              	.LFE75:
 1147              		.size	modem_process_tasks, .-modem_process_tasks
 1148              		.section	.rodata
 1149 0233 00       		.align	2
 1150              	.LC17:
 1151 0234 43686563 		.ascii	"Checking AT+CREG?\000"
 1151      6B696E67 
 1151      2041542B 
 1151      43524547 
 1151      3F00
 1152 0246 0000     		.align	2
 1153              	.LC18:
 1154 0248 41542B43 		.ascii	"AT+CREG?\015\000"
 1154      5245473F 
 1154      0D00
 1155 0252 0000     		.align	2
 1156              	.LC19:
 1157 0254 45787472 		.ascii	"Extracting string AT+CREG?\000"
 1157      61637469 
 1157      6E672073 
 1157      7472696E 
 1157      67204154 
 1158 026f 00       		.align	2
 1159              	.LC20:
 1160 0270 75617274 		.ascii	"uart_received_string: %s\000"
 1160      5F726563 
 1160      65697665 
 1160      645F7374 
ARM GAS  C:\Users\hail\AppData\Local\Temp\ccotwkx9.s 			page 29


 1160      72696E67 
 1161 0289 000000   		.align	2
 1162              	.LC21:
 1163 028c 0D00     		.ascii	"\015\000"
 1164 028e 0000     		.align	2
 1165              	.LC22:
 1166 0290 3A2000   		.ascii	": \000"
 1167 0293 00       		.align	2
 1168              	.LC23:
 1169 0294 52656769 		.ascii	"Registered to network, CREG: %s\000"
 1169      73746572 
 1169      65642074 
 1169      6F206E65 
 1169      74776F72 
 1170              		.align	2
 1171              	.LC24:
 1172 02b4 446F6E65 		.ascii	"Done extracing string AT+CREG?\000"
 1172      20657874 
 1172      72616369 
 1172      6E672073 
 1172      7472696E 
 1173 02d3 00       		.align	2
 1174              	.LC25:
 1175 02d4 302C3100 		.ascii	"0,1\000"
 1176              		.section	.text.is_connected_to_cell_network,"ax",%progbits
 1177              		.align	2
 1178              		.global	is_connected_to_cell_network
 1179              		.thumb
 1180              		.thumb_func
 1181              		.type	is_connected_to_cell_network, %function
 1182              	is_connected_to_cell_network:
 1183              	.LFB76:
 347:modem.c       **** 
 348:modem.c       **** // Checks network status, writes commands to the modem, then extracts string from UART
 349:modem.c       **** uint8 is_connected_to_cell_network(){
 1184              		.loc 1 349 0
 1185              		.cfi_startproc
 1186              		@ args = 0, pretend = 0, frame = 16
 1187              		@ frame_needed = 1, uses_anonymous_args = 0
 1188 0000 80B5     		push	{r7, lr}
 1189              		.cfi_def_cfa_offset 8
 1190              		.cfi_offset 7, -8
 1191              		.cfi_offset 14, -4
 1192 0002 84B0     		sub	sp, sp, #16
 1193              		.cfi_def_cfa_offset 24
 1194 0004 00AF     		add	r7, sp, #0
 1195              		.cfi_def_cfa_register 7
 350:modem.c       ****     // AT command AT+CREG? is the Network Registration Report to check network status -- need '0,0'
 351:modem.c       ****     printNotif(NOTIF_TYPE_EVENT,"Checking AT+CREG?");
 1196              		.loc 1 351 0
 1197 0006 1B49     		ldr	r1, .L74
 1198 0008 0020     		movs	r0, #0
 1199 000a FFF7FEFF 		bl	printNotif
 352:modem.c       ****     // create new uint8 variable stust and set to equal the output of the function at_write_command
 353:modem.c       ****     uint8 status = at_write_command("AT+CREG?\r", "OK",DEFAULT_AT_TIMEOUT);
 1200              		.loc 1 353 0
 1201 000e 4FF4FA62 		mov	r2, #2000
ARM GAS  C:\Users\hail\AppData\Local\Temp\ccotwkx9.s 			page 30


 1202 0012 1949     		ldr	r1, .L74+4
 1203 0014 1948     		ldr	r0, .L74+8
 1204 0016 FFF7FEFF 		bl	at_write_command
 1205 001a 0346     		mov	r3, r0
 1206 001c FB73     		strb	r3, [r7, #15]
 354:modem.c       ****     
 355:modem.c       ****     printNotif(NOTIF_TYPE_EVENT,"Extracting string AT+CREG?");
 1207              		.loc 1 355 0
 1208 001e 1849     		ldr	r1, .L74+12
 1209 0020 0020     		movs	r0, #0
 1210 0022 FFF7FEFF 		bl	printNotif
 356:modem.c       ****     printNotif(NOTIF_TYPE_EVENT,"uart_received_string: %s",uart_received_string);
 1211              		.loc 1 356 0
 1212 0026 174A     		ldr	r2, .L74+16
 1213 0028 1749     		ldr	r1, .L74+20
 1214 002a 0020     		movs	r0, #0
 1215 002c FFF7FEFF 		bl	printNotif
 357:modem.c       ****     
 358:modem.c       ****     // If the modem has a status
 359:modem.c       ****     if(status){
 1216              		.loc 1 359 0
 1217 0030 FB7B     		ldrb	r3, [r7, #15]	@ zero_extendqisi2
 1218 0032 002B     		cmp	r3, #0
 1219 0034 19D0     		beq	.L71
 1220              	.LBB7:
 360:modem.c       ****         // Create a character array of length 10 called creg
 361:modem.c       ****         char creg[10];
 362:modem.c       ****         // Extract string from the UART
 363:modem.c       ****         extract_string(uart_received_string,": ","\r",creg);
 1221              		.loc 1 363 0
 1222 0036 3B1D     		adds	r3, r7, #4
 1223 0038 144A     		ldr	r2, .L74+24
 1224 003a 1549     		ldr	r1, .L74+28
 1225 003c 1148     		ldr	r0, .L74+16
 1226 003e FFF7FEFF 		bl	extract_string
 364:modem.c       ****         printNotif(NOTIF_TYPE_EVENT,"Registered to network, CREG: %s",creg);
 1227              		.loc 1 364 0
 1228 0042 3B1D     		adds	r3, r7, #4
 1229 0044 1A46     		mov	r2, r3
 1230 0046 1349     		ldr	r1, .L74+32
 1231 0048 0020     		movs	r0, #0
 1232 004a FFF7FEFF 		bl	printNotif
 365:modem.c       ****         printNotif(NOTIF_TYPE_EVENT,"Done extracing string AT+CREG?");
 1233              		.loc 1 365 0
 1234 004e 1249     		ldr	r1, .L74+36
 1235 0050 0020     		movs	r0, #0
 1236 0052 FFF7FEFF 		bl	printNotif
 366:modem.c       ****     
 367:modem.c       ****         // Search creg for "0,1", if "0,1" exists, it will return 1u otherwise it will return NULL
 368:modem.c       ****         // If it returns 1u and not NULL, then return 1u
 369:modem.c       ****         if(strstr(creg,"0,1")!=NULL){
 1237              		.loc 1 369 0
 1238 0056 3B1D     		adds	r3, r7, #4
 1239 0058 1049     		ldr	r1, .L74+40
 1240 005a 1846     		mov	r0, r3
 1241 005c FFF7FEFF 		bl	strstr
 1242 0060 0346     		mov	r3, r0
ARM GAS  C:\Users\hail\AppData\Local\Temp\ccotwkx9.s 			page 31


 1243 0062 002B     		cmp	r3, #0
 1244 0064 01D0     		beq	.L71
 370:modem.c       ****             //time_network_connect = getTimeStamp();
 371:modem.c       ****             return 1u;
 1245              		.loc 1 371 0
 1246 0066 0123     		movs	r3, #1
 1247 0068 00E0     		b	.L73
 1248              	.L71:
 1249              	.LBE7:
 372:modem.c       ****         }
 373:modem.c       ****     }
 374:modem.c       ****     // If the modem doesn't have a status, return 0u
 375:modem.c       ****     return 0u;
 1250              		.loc 1 375 0
 1251 006a 0023     		movs	r3, #0
 1252              	.L73:
 376:modem.c       ****         
 377:modem.c       **** }
 1253              		.loc 1 377 0
 1254 006c 1846     		mov	r0, r3
 1255 006e 1037     		adds	r7, r7, #16
 1256              		.cfi_def_cfa_offset 8
 1257 0070 BD46     		mov	sp, r7
 1258              		.cfi_def_cfa_register 13
 1259              		@ sp needed
 1260 0072 80BD     		pop	{r7, pc}
 1261              	.L75:
 1262              		.align	2
 1263              	.L74:
 1264 0074 34020000 		.word	.LC17
 1265 0078 00000000 		.word	.LC0
 1266 007c 48020000 		.word	.LC18
 1267 0080 54020000 		.word	.LC19
 1268 0084 00000000 		.word	uart_received_string
 1269 0088 70020000 		.word	.LC20
 1270 008c 8C020000 		.word	.LC21
 1271 0090 90020000 		.word	.LC22
 1272 0094 94020000 		.word	.LC23
 1273 0098 B4020000 		.word	.LC24
 1274 009c D4020000 		.word	.LC25
 1275              		.cfi_endproc
 1276              	.LFE76:
 1277              		.size	is_connected_to_cell_network, .-is_connected_to_cell_network
 1278              		.section	.rodata
 1279              		.align	2
 1280              	.LC26:
 1281 02d8 41542353 		.ascii	"AT#SGACT=1,1\015\012\000"
 1281      47414354 
 1281      3D312C31 
 1281      0D0A00
 1282              		.section	.text.set_up_internet_connection,"ax",%progbits
 1283              		.align	2
 1284              		.global	set_up_internet_connection
 1285              		.thumb
 1286              		.thumb_func
 1287              		.type	set_up_internet_connection, %function
 1288              	set_up_internet_connection:
ARM GAS  C:\Users\hail\AppData\Local\Temp\ccotwkx9.s 			page 32


 1289              	.LFB77:
 378:modem.c       **** 
 379:modem.c       **** // Connect the modem to the internet
 380:modem.c       **** void set_up_internet_connection(){
 1290              		.loc 1 380 0
 1291              		.cfi_startproc
 1292              		@ args = 0, pretend = 0, frame = 0
 1293              		@ frame_needed = 1, uses_anonymous_args = 0
 1294 0000 80B5     		push	{r7, lr}
 1295              		.cfi_def_cfa_offset 8
 1296              		.cfi_offset 7, -8
 1297              		.cfi_offset 14, -4
 1298 0002 00AF     		add	r7, sp, #0
 1299              		.cfi_def_cfa_register 7
 381:modem.c       ****     
 382:modem.c       ****     //port 3
 383:modem.c       ****    //<connId>,<srMode>,<dataMode>, 
 384:modem.c       ****     //at_write_command("AT#SCFGEXT=1,1,0,0,0,0\r", "OK",DEFAULT_AT_TIMEOUT);////LTE modem relevant
 385:modem.c       ****     
 386:modem.c       ****     //<connId>,<cid>,<pktSz>,<maxTo>,<connTo>,<txTo>
 387:modem.c       ****     //at_write_command("AT#SCFG=1,3,300,90,600,50\r", "OK",DEFAULT_AT_TIMEOUT); //LTE modem relevan
 388:modem.c       ****     // <cid>,<stat>
 389:modem.c       ****    
 390:modem.c       ****     // AT command SGACT is Context Activation command is used to activate the specified PDP context
 391:modem.c       ****     at_write_command("AT#SGACT=1,1\r\n", "OK",1000u);
 1300              		.loc 1 391 0
 1301 0004 4FF47A72 		mov	r2, #1000
 1302 0008 0249     		ldr	r1, .L77
 1303 000a 0348     		ldr	r0, .L77+4
 1304 000c FFF7FEFF 		bl	at_write_command
 392:modem.c       ****     
 393:modem.c       **** }
 1305              		.loc 1 393 0
 1306 0010 00BF     		nop
 1307 0012 80BD     		pop	{r7, pc}
 1308              	.L78:
 1309              		.align	2
 1310              	.L77:
 1311 0014 00000000 		.word	.LC0
 1312 0018 D8020000 		.word	.LC26
 1313              		.cfi_endproc
 1314              	.LFE77:
 1315              		.size	set_up_internet_connection, .-set_up_internet_connection
 1316              		.section	.rodata
 1317 02e7 00       		.align	2
 1318              	.LC27:
 1319 02e8 312C3100 		.ascii	"1,1\000"
 1320              		.align	2
 1321              	.LC28:
 1322 02ec 41542353 		.ascii	"AT#SGACT?\015\000"
 1322      47414354 
 1322      3F0D00
 1323              		.section	.text.is_connected_to_internet,"ax",%progbits
 1324              		.align	2
 1325              		.global	is_connected_to_internet
 1326              		.thumb
 1327              		.thumb_func
ARM GAS  C:\Users\hail\AppData\Local\Temp\ccotwkx9.s 			page 33


 1328              		.type	is_connected_to_internet, %function
 1329              	is_connected_to_internet:
 1330              	.LFB78:
 394:modem.c       **** 
 395:modem.c       **** // Checks if the modem is connected to the internet
 396:modem.c       **** uint8 is_connected_to_internet(){
 1331              		.loc 1 396 0
 1332              		.cfi_startproc
 1333              		@ args = 0, pretend = 0, frame = 0
 1334              		@ frame_needed = 1, uses_anonymous_args = 0
 1335 0000 80B5     		push	{r7, lr}
 1336              		.cfi_def_cfa_offset 8
 1337              		.cfi_offset 7, -8
 1338              		.cfi_offset 14, -4
 1339 0002 00AF     		add	r7, sp, #0
 1340              		.cfi_def_cfa_register 7
 397:modem.c       ****     // AT command SGACT? reports the range for the parameters <cid> and <stat>
 398:modem.c       ****     // cid: is the Packet Data Protocol (PDP) Context Identifier which specifies the particular PDP
 399:modem.c       ****     // stat: gives the context staus (0 deactivated and 1 activated)
 400:modem.c       ****     // Check for 3,1 if Verizon 
 401:modem.c       ****     if(at_write_command("AT#SGACT?\r", "1,1",DEFAULT_AT_TIMEOUT)){
 1341              		.loc 1 401 0
 1342 0004 4FF4FA62 		mov	r2, #2000
 1343 0008 0549     		ldr	r1, .L82
 1344 000a 0648     		ldr	r0, .L82+4
 1345 000c FFF7FEFF 		bl	at_write_command
 1346 0010 0346     		mov	r3, r0
 1347 0012 002B     		cmp	r3, #0
 1348 0014 01D0     		beq	.L80
 402:modem.c       ****         return 1u;
 1349              		.loc 1 402 0
 1350 0016 0123     		movs	r3, #1
 1351 0018 00E0     		b	.L81
 1352              	.L80:
 403:modem.c       ****     }
 404:modem.c       ****     return 0u;  
 1353              		.loc 1 404 0
 1354 001a 0023     		movs	r3, #0
 1355              	.L81:
 405:modem.c       **** }
 1356              		.loc 1 405 0
 1357 001c 1846     		mov	r0, r3
 1358 001e 80BD     		pop	{r7, pc}
 1359              	.L83:
 1360              		.align	2
 1361              	.L82:
 1362 0020 E8020000 		.word	.LC27
 1363 0024 EC020000 		.word	.LC28
 1364              		.cfi_endproc
 1365              	.LFE78:
 1366              		.size	is_connected_to_internet, .-is_connected_to_internet
 1367              		.section	.rodata
 1368 02f7 00       		.align	2
 1369              	.LC29:
 1370 02f8 41542B43 		.ascii	"AT+CSQ\015\000"
 1370      53510D00 
 1371              		.align	2
ARM GAS  C:\Users\hail\AppData\Local\Temp\ccotwkx9.s 			page 34


 1372              	.LC30:
 1373 0300 4E657477 		.ascii	"Network STts: %s\000"
 1373      6F726B20 
 1373      53547473 
 1373      3A202573 
 1373      00
 1374 0311 000000   		.align	2
 1375              	.LC31:
 1376 0314 2C00     		.ascii	",\000"
 1377              		.section	.text.get_cell_network_stats,"ax",%progbits
 1378              		.align	2
 1379              		.global	get_cell_network_stats
 1380              		.thumb
 1381              		.thumb_func
 1382              		.type	get_cell_network_stats, %function
 1383              	get_cell_network_stats:
 1384              	.LFB79:
 406:modem.c       **** 
 407:modem.c       **** // Get cellular network stats 
 408:modem.c       **** void get_cell_network_stats(){
 1385              		.loc 1 408 0
 1386              		.cfi_startproc
 1387              		@ args = 0, pretend = 0, frame = 24
 1388              		@ frame_needed = 1, uses_anonymous_args = 0
 1389 0000 80B5     		push	{r7, lr}
 1390              		.cfi_def_cfa_offset 8
 1391              		.cfi_offset 7, -8
 1392              		.cfi_offset 14, -4
 1393 0002 86B0     		sub	sp, sp, #24
 1394              		.cfi_def_cfa_offset 32
 1395 0004 00AF     		add	r7, sp, #0
 1396              		.cfi_def_cfa_register 7
 1397              	.LBB8:
 409:modem.c       ****     // Gets RSSI and FER values
 410:modem.c       ****     // RSSI (Received Signal Strength Indicator) is a measurement of how well your device can hear 
 411:modem.c       ****     // FER (Frame Error Rate) is the ratio of data received with errors to total data received. Use
 412:modem.c       ****     for(uint8 attempts =0; attempts <10; attempts++){
 1398              		.loc 1 412 0
 1399 0006 0023     		movs	r3, #0
 1400 0008 FB75     		strb	r3, [r7, #23]
 1401 000a 3BE0     		b	.L85
 1402              	.L90:
 1403              	.LBB9:
 413:modem.c       ****         // AT command CSQ checks Signal Quality
 414:modem.c       ****         at_write_command("AT+CSQ\r", "OK",DEFAULT_AT_TIMEOUT);
 1404              		.loc 1 414 0
 1405 000c 4FF4FA62 		mov	r2, #2000
 1406 0010 2049     		ldr	r1, .L92
 1407 0012 2148     		ldr	r0, .L92+4
 1408 0014 FFF7FEFF 		bl	at_write_command
 415:modem.c       ****         
 416:modem.c       ****         char csq[10]; // Create a character array of length 10 called csq 
 417:modem.c       ****         // Extract string from the UART
 418:modem.c       ****         extract_string(uart_received_string,": ","\r",csq);
 1409              		.loc 1 418 0
 1410 0018 3B1D     		adds	r3, r7, #4
 1411 001a 204A     		ldr	r2, .L92+8
ARM GAS  C:\Users\hail\AppData\Local\Temp\ccotwkx9.s 			page 35


 1412 001c 2049     		ldr	r1, .L92+12
 1413 001e 2148     		ldr	r0, .L92+16
 1414 0020 FFF7FEFF 		bl	extract_string
 419:modem.c       ****         printNotif(NOTIF_TYPE_EVENT,"Network STts: %s",csq);
 1415              		.loc 1 419 0
 1416 0024 3B1D     		adds	r3, r7, #4
 1417 0026 1A46     		mov	r2, r3
 1418 0028 1F49     		ldr	r1, .L92+20
 1419 002a 0020     		movs	r0, #0
 1420 002c FFF7FEFF 		bl	printNotif
 420:modem.c       ****         
 421:modem.c       ****         char *token; // Create a character variable pointer
 422:modem.c       ****         // strtok(): breaks "csq" into smaller string when sees ","
 423:modem.c       ****         token = strtok(csq,",");
 1421              		.loc 1 423 0
 1422 0030 3B1D     		adds	r3, r7, #4
 1423 0032 1E49     		ldr	r1, .L92+24
 1424 0034 1846     		mov	r0, r3
 1425 0036 FFF7FEFF 		bl	strtok
 1426 003a 3861     		str	r0, [r7, #16]
 424:modem.c       ****         // If token is not NULL then set modem_stats.rssi equal to the integer "token"
 425:modem.c       ****         // int atoi(const char *str) converts the string argument str to an integer (type int).
 426:modem.c       ****         if(token != NULL){
 1427              		.loc 1 426 0
 1428 003c 3B69     		ldr	r3, [r7, #16]
 1429 003e 002B     		cmp	r3, #0
 1430 0040 06D0     		beq	.L86
 427:modem.c       ****             modem_stats.rssi = atoi(token);
 1431              		.loc 1 427 0
 1432 0042 3869     		ldr	r0, [r7, #16]
 1433 0044 FFF7FEFF 		bl	atoi
 1434 0048 0346     		mov	r3, r0
 1435 004a DAB2     		uxtb	r2, r3
 1436 004c 184B     		ldr	r3, .L92+28
 1437 004e 1A70     		strb	r2, [r3]
 1438              	.L86:
 428:modem.c       ****         }
 429:modem.c       ****         // This "NULL" says to continue where you left off last time.
 430:modem.c       ****         token = strtok(NULL,",");
 1439              		.loc 1 430 0
 1440 0050 1649     		ldr	r1, .L92+24
 1441 0052 0020     		movs	r0, #0
 1442 0054 FFF7FEFF 		bl	strtok
 1443 0058 3861     		str	r0, [r7, #16]
 431:modem.c       ****         if(token != NULL){
 1444              		.loc 1 431 0
 1445 005a 3B69     		ldr	r3, [r7, #16]
 1446 005c 002B     		cmp	r3, #0
 1447 005e 06D0     		beq	.L87
 432:modem.c       ****             modem_stats.sq = atoi(token);
 1448              		.loc 1 432 0
 1449 0060 3869     		ldr	r0, [r7, #16]
 1450 0062 FFF7FEFF 		bl	atoi
 1451 0066 0346     		mov	r3, r0
 1452 0068 DAB2     		uxtb	r2, r3
 1453 006a 114B     		ldr	r3, .L92+28
 1454 006c 5A70     		strb	r2, [r3, #1]
ARM GAS  C:\Users\hail\AppData\Local\Temp\ccotwkx9.s 			page 36


 1455              	.L87:
 433:modem.c       ****         }
 434:modem.c       ****         // If rssi is not equal to 99 OR rssi is not equal to 0, then break.
 435:modem.c       ****         if(modem_stats.rssi != 99 || modem_stats.rssi !=0){
 1456              		.loc 1 435 0
 1457 006e 104B     		ldr	r3, .L92+28
 1458 0070 1B78     		ldrb	r3, [r3]	@ zero_extendqisi2
 1459 0072 632B     		cmp	r3, #99
 1460 0074 09D1     		bne	.L91
 1461              		.loc 1 435 0 is_stmt 0 discriminator 1
 1462 0076 0E4B     		ldr	r3, .L92+28
 1463 0078 1B78     		ldrb	r3, [r3]	@ zero_extendqisi2
 1464 007a 002B     		cmp	r3, #0
 1465 007c 05D1     		bne	.L91
 1466              	.LBE9:
 412:modem.c       ****         // AT command CSQ checks Signal Quality
 1467              		.loc 1 412 0 is_stmt 1
 1468 007e FB7D     		ldrb	r3, [r7, #23]	@ zero_extendqisi2
 1469 0080 0133     		adds	r3, r3, #1
 1470 0082 FB75     		strb	r3, [r7, #23]
 1471              	.L85:
 412:modem.c       ****         // AT command CSQ checks Signal Quality
 1472              		.loc 1 412 0 is_stmt 0 discriminator 1
 1473 0084 FB7D     		ldrb	r3, [r7, #23]	@ zero_extendqisi2
 1474 0086 092B     		cmp	r3, #9
 1475 0088 C0D9     		bls	.L90
 1476              	.L91:
 1477              	.LBE8:
 436:modem.c       ****             break;
 437:modem.c       ****         }
 438:modem.c       ****     }
 439:modem.c       **** }
 1478              		.loc 1 439 0 is_stmt 1
 1479 008a 00BF     		nop
 1480 008c 1837     		adds	r7, r7, #24
 1481              		.cfi_def_cfa_offset 8
 1482 008e BD46     		mov	sp, r7
 1483              		.cfi_def_cfa_register 13
 1484              		@ sp needed
 1485 0090 80BD     		pop	{r7, pc}
 1486              	.L93:
 1487 0092 00BF     		.align	2
 1488              	.L92:
 1489 0094 00000000 		.word	.LC0
 1490 0098 F8020000 		.word	.LC29
 1491 009c 8C020000 		.word	.LC21
 1492 00a0 90020000 		.word	.LC22
 1493 00a4 00000000 		.word	uart_received_string
 1494 00a8 00030000 		.word	.LC30
 1495 00ac 14030000 		.word	.LC31
 1496 00b0 00000000 		.word	modem_stats
 1497              		.cfi_endproc
 1498              	.LFE79:
 1499              		.size	get_cell_network_stats, .-get_cell_network_stats
 1500              		.section	.rodata
 1501 0316 0000     		.align	2
 1502              	.LC32:
ARM GAS  C:\Users\hail\AppData\Local\Temp\ccotwkx9.s 			page 37


 1503 0318 41542343 		.ascii	"AT#CGMM\015\000"
 1503      474D4D0D 
 1503      00
 1504 0321 000000   		.align	2
 1505              	.LC33:
 1506 0324 4D6F6465 		.ascii	"Modem Model: %s\000"
 1506      6D204D6F 
 1506      64656C3A 
 1506      20257300 
 1507              		.align	2
 1508              	.LC34:
 1509 0334 41542343 		.ascii	"AT#CCID\015\000"
 1509      4349440D 
 1509      00
 1510 033d 000000   		.align	2
 1511              	.LC35:
 1512 0340 53494D20 		.ascii	"SIM ID: %s\000"
 1512      49443A20 
 1512      257300
 1513 034b 00       		.align	2
 1514              	.LC36:
 1515 034c 41542B43 		.ascii	"AT+CGSN\015\000"
 1515      47534E0D 
 1515      00
 1516 0355 000000   		.align	2
 1517              	.LC37:
 1518 0358 494D4549 		.ascii	"IMEI: %s\000"
 1518      3A202573 
 1518      00
 1519 0361 000000   		.align	2
 1520              	.LC38:
 1521 0364 41542B43 		.ascii	"AT+CGDCONT=1,\"IP\",\"wireless.twilio.com\"\015\012"
 1521      4744434F 
 1521      4E543D31 
 1521      2C224950 
 1521      222C2277 
 1522 038d 00       		.ascii	"\000"
 1523 038e 0000     		.align	2
 1524              	.LC39:
 1525 0390 41542B43 		.ascii	"AT+CFUN?\015\000"
 1525      46554E3F 
 1525      0D00
 1526 039a 0000     		.align	2
 1527              	.LC40:
 1528 039c 4346554E 		.ascii	"CFUN: %s\000"
 1528      3A202573 
 1528      00
 1529 03a5 000000   		.align	2
 1530              	.LC41:
 1531 03a8 41542B43 		.ascii	"AT+CFUN=1\015\000"
 1531      46554E3D 
 1531      310D00
 1532              		.section	.text.modem_configure_settings,"ax",%progbits
 1533              		.align	2
 1534              		.global	modem_configure_settings
 1535              		.thumb
 1536              		.thumb_func
ARM GAS  C:\Users\hail\AppData\Local\Temp\ccotwkx9.s 			page 38


 1537              		.type	modem_configure_settings, %function
 1538              	modem_configure_settings:
 1539              	.LFB80:
 440:modem.c       ****     
 441:modem.c       ****     
 442:modem.c       **** // Configure the modem settings
 443:modem.c       **** void modem_configure_settings(){
 1540              		.loc 1 443 0
 1541              		.cfi_startproc
 1542              		@ args = 0, pretend = 0, frame = 16
 1543              		@ frame_needed = 1, uses_anonymous_args = 0
 1544 0000 80B5     		push	{r7, lr}
 1545              		.cfi_def_cfa_offset 8
 1546              		.cfi_offset 7, -8
 1547              		.cfi_offset 14, -4
 1548 0002 84B0     		sub	sp, sp, #16
 1549              		.cfi_def_cfa_offset 24
 1550 0004 00AF     		add	r7, sp, #0
 1551              		.cfi_def_cfa_register 7
 444:modem.c       ****     
 445:modem.c       ****     // Save/print modem model ID number
 446:modem.c       ****     if(modem_info.model_id[0] == '\0'){
 1552              		.loc 1 446 0
 1553 0006 3B4B     		ldr	r3, .L101
 1554 0008 1B7D     		ldrb	r3, [r3, #20]	@ zero_extendqisi2
 1555 000a 002B     		cmp	r3, #0
 1556 000c 13D1     		bne	.L95
 447:modem.c       ****         // AT command #CGMM returns the "device model identification" code with the command echo.
 448:modem.c       ****         if(at_write_command("AT#CGMM\r","OK",DEFAULT_AT_TIMEOUT)){
 1557              		.loc 1 448 0
 1558 000e 4FF4FA62 		mov	r2, #2000
 1559 0012 3949     		ldr	r1, .L101+4
 1560 0014 3948     		ldr	r0, .L101+8
 1561 0016 FFF7FEFF 		bl	at_write_command
 1562 001a 0346     		mov	r3, r0
 1563 001c 002B     		cmp	r3, #0
 1564 001e 0AD0     		beq	.L95
 449:modem.c       ****             // Extract modem model ID number string from the UART
 450:modem.c       ****             extract_string(uart_received_string,": ","\r",modem_info.model_id);
 1565              		.loc 1 450 0
 1566 0020 374B     		ldr	r3, .L101+12
 1567 0022 384A     		ldr	r2, .L101+16
 1568 0024 3849     		ldr	r1, .L101+20
 1569 0026 3948     		ldr	r0, .L101+24
 1570 0028 FFF7FEFF 		bl	extract_string
 451:modem.c       ****             // Print modem model ID number
 452:modem.c       ****             printNotif(NOTIF_TYPE_EVENT,"Modem Model: %s",modem_info.model_id);
 1571              		.loc 1 452 0
 1572 002c 344A     		ldr	r2, .L101+12
 1573 002e 3849     		ldr	r1, .L101+28
 1574 0030 0020     		movs	r0, #0
 1575 0032 FFF7FEFF 		bl	printNotif
 1576              	.L95:
 453:modem.c       ****         }
 454:modem.c       ****     }
 455:modem.c       ****     
 456:modem.c       ****    // Save/print SIM-card ID
ARM GAS  C:\Users\hail\AppData\Local\Temp\ccotwkx9.s 			page 39


 457:modem.c       ****    if(modem_info.sim_id[0] == '\0'){
 1577              		.loc 1 457 0
 1578 0036 2F4B     		ldr	r3, .L101
 1579 0038 1B78     		ldrb	r3, [r3]	@ zero_extendqisi2
 1580 003a 002B     		cmp	r3, #0
 1581 003c 13D1     		bne	.L96
 458:modem.c       ****         // AT command #CCID is an execution command that reads the SIM number 
 459:modem.c       ****         if(at_write_command("AT#CCID\r", "OK", DEFAULT_AT_TIMEOUT)){
 1582              		.loc 1 459 0
 1583 003e 4FF4FA62 		mov	r2, #2000
 1584 0042 2D49     		ldr	r1, .L101+4
 1585 0044 3348     		ldr	r0, .L101+32
 1586 0046 FFF7FEFF 		bl	at_write_command
 1587 004a 0346     		mov	r3, r0
 1588 004c 002B     		cmp	r3, #0
 1589 004e 0AD0     		beq	.L96
 460:modem.c       ****             // Extract SIM-card ID string from the UART
 461:modem.c       ****             extract_string(uart_received_string,": ","\r",modem_info.sim_id);
 1590              		.loc 1 461 0
 1591 0050 284B     		ldr	r3, .L101
 1592 0052 2C4A     		ldr	r2, .L101+16
 1593 0054 2C49     		ldr	r1, .L101+20
 1594 0056 2D48     		ldr	r0, .L101+24
 1595 0058 FFF7FEFF 		bl	extract_string
 462:modem.c       ****             printNotif(NOTIF_TYPE_EVENT,"SIM ID: %s",modem_info.sim_id);
 1596              		.loc 1 462 0
 1597 005c 254A     		ldr	r2, .L101
 1598 005e 2E49     		ldr	r1, .L101+36
 1599 0060 0020     		movs	r0, #0
 1600 0062 FFF7FEFF 		bl	printNotif
 1601              	.L96:
 463:modem.c       ****         }
 464:modem.c       ****    }
 465:modem.c       **** 
 466:modem.c       ****     // Save/print modem IMEI
 467:modem.c       ****     if(modem_info.imei[0] == '\0'){
 1602              		.loc 1 467 0
 1603 0066 234B     		ldr	r3, .L101
 1604 0068 93F82830 		ldrb	r3, [r3, #40]	@ zero_extendqisi2
 1605 006c 002B     		cmp	r3, #0
 1606 006e 13D1     		bne	.L97
 468:modem.c       ****         // AT command #CGSN returns the product serial number, identified as the IMEI of the mobile
 469:modem.c       ****         if(at_write_command("AT+CGSN\r","OK",DEFAULT_AT_TIMEOUT)){
 1607              		.loc 1 469 0
 1608 0070 4FF4FA62 		mov	r2, #2000
 1609 0074 2049     		ldr	r1, .L101+4
 1610 0076 2948     		ldr	r0, .L101+40
 1611 0078 FFF7FEFF 		bl	at_write_command
 1612 007c 0346     		mov	r3, r0
 1613 007e 002B     		cmp	r3, #0
 1614 0080 0AD0     		beq	.L97
 470:modem.c       ****             // Extract modem IMEI number string from the UART
 471:modem.c       ****             extract_string(uart_received_string,": ","\r",modem_info.imei);
 1615              		.loc 1 471 0
 1616 0082 274B     		ldr	r3, .L101+44
 1617 0084 1F4A     		ldr	r2, .L101+16
 1618 0086 2049     		ldr	r1, .L101+20
ARM GAS  C:\Users\hail\AppData\Local\Temp\ccotwkx9.s 			page 40


 1619 0088 2048     		ldr	r0, .L101+24
 1620 008a FFF7FEFF 		bl	extract_string
 472:modem.c       ****             // Print modem IMEI number
 473:modem.c       ****             printNotif(NOTIF_TYPE_EVENT,"IMEI: %s",modem_info.imei);
 1621              		.loc 1 473 0
 1622 008e 244A     		ldr	r2, .L101+44
 1623 0090 2449     		ldr	r1, .L101+48
 1624 0092 0020     		movs	r0, #0
 1625 0094 FFF7FEFF 		bl	printNotif
 1626              	.L97:
 474:modem.c       ****         } 
 475:modem.c       ****     }
 476:modem.c       ****     
 477:modem.c       ****     // Configure protocol and cellular end point
 478:modem.c       ****     // AT command +CGDCONT defines the PDP context parameter values for a PDP context identified by
 479:modem.c       ****     at_write_command("AT+CGDCONT=1,\"IP\",\"wireless.twilio.com\"\r\n", "OK", DEFAULT_AT_TIMEOUT);
 1627              		.loc 1 479 0
 1628 0098 4FF4FA62 		mov	r2, #2000
 1629 009c 1649     		ldr	r1, .L101+4
 1630 009e 2248     		ldr	r0, .L101+52
 1631 00a0 FFF7FEFF 		bl	at_write_command
 480:modem.c       ****     
 481:modem.c       ****     // Check if modem power savings is enabled. If so, disable it so we can send data.
 482:modem.c       ****     // AT command +CFUN? is a read command that reports the current setting of <fun> which is the p
 483:modem.c       ****     if(at_write_command("AT+CFUN?\r", "OK",DEFAULT_AT_TIMEOUT)){
 1632              		.loc 1 483 0
 1633 00a4 4FF4FA62 		mov	r2, #2000
 1634 00a8 1349     		ldr	r1, .L101+4
 1635 00aa 2048     		ldr	r0, .L101+56
 1636 00ac FFF7FEFF 		bl	at_write_command
 1637 00b0 0346     		mov	r3, r0
 1638 00b2 002B     		cmp	r3, #0
 1639 00b4 19D0     		beq	.L100
 1640              	.LBB10:
 484:modem.c       ****         char CFUN[10]; // Create a character array of length 10 called CFUN 
 485:modem.c       ****         // Extract UART string recieved from the modem
 486:modem.c       ****         extract_string(uart_received_string,": ","\r",CFUN);
 1641              		.loc 1 486 0
 1642 00b6 3B1D     		adds	r3, r7, #4
 1643 00b8 124A     		ldr	r2, .L101+16
 1644 00ba 1349     		ldr	r1, .L101+20
 1645 00bc 1348     		ldr	r0, .L101+24
 1646 00be FFF7FEFF 		bl	extract_string
 487:modem.c       ****         // Print UART string recieved from the modem
 488:modem.c       ****         printNotif(NOTIF_TYPE_EVENT,"CFUN: %s",CFUN);
 1647              		.loc 1 488 0
 1648 00c2 3B1D     		adds	r3, r7, #4
 1649 00c4 1A46     		mov	r2, r3
 1650 00c6 1A49     		ldr	r1, .L101+60
 1651 00c8 0020     		movs	r0, #0
 1652 00ca FFF7FEFF 		bl	printNotif
 489:modem.c       ****         // Search CRUN for "1", if "1" exists, it will return 1u otherwise it will return NULL
 490:modem.c       ****         // If it returns NULL, then write another command to the modem
 491:modem.c       ****         if(strstr(CFUN,"1") == NULL){
 1653              		.loc 1 491 0
 1654 00ce 3B1D     		adds	r3, r7, #4
 1655 00d0 3121     		movs	r1, #49
ARM GAS  C:\Users\hail\AppData\Local\Temp\ccotwkx9.s 			page 41


 1656 00d2 1846     		mov	r0, r3
 1657 00d4 FFF7FEFF 		bl	strchr
 1658 00d8 0346     		mov	r3, r0
 1659 00da 002B     		cmp	r3, #0
 1660 00dc 05D1     		bne	.L100
 492:modem.c       ****             // AT command +CFUN= is a set command which selects the level of functionality in the m
 493:modem.c       ****             // = 1 means mobile full functionality with power saving disabled 
 494:modem.c       ****             at_write_command("AT+CFUN=1\r", "OK",DEFAULT_AT_TIMEOUT);
 1661              		.loc 1 494 0
 1662 00de 4FF4FA62 		mov	r2, #2000
 1663 00e2 0549     		ldr	r1, .L101+4
 1664 00e4 1348     		ldr	r0, .L101+64
 1665 00e6 FFF7FEFF 		bl	at_write_command
 1666              	.L100:
 1667              	.LBE10:
 495:modem.c       ****         }
 496:modem.c       ****     }
 497:modem.c       **** 
 498:modem.c       ****     
 499:modem.c       **** }
 1668              		.loc 1 499 0
 1669 00ea 00BF     		nop
 1670 00ec 1037     		adds	r7, r7, #16
 1671              		.cfi_def_cfa_offset 8
 1672 00ee BD46     		mov	sp, r7
 1673              		.cfi_def_cfa_register 13
 1674              		@ sp needed
 1675 00f0 80BD     		pop	{r7, pc}
 1676              	.L102:
 1677 00f2 00BF     		.align	2
 1678              	.L101:
 1679 00f4 00000000 		.word	modem_info
 1680 00f8 00000000 		.word	.LC0
 1681 00fc 18030000 		.word	.LC32
 1682 0100 14000000 		.word	modem_info+20
 1683 0104 8C020000 		.word	.LC21
 1684 0108 90020000 		.word	.LC22
 1685 010c 00000000 		.word	uart_received_string
 1686 0110 24030000 		.word	.LC33
 1687 0114 34030000 		.word	.LC34
 1688 0118 40030000 		.word	.LC35
 1689 011c 4C030000 		.word	.LC36
 1690 0120 28000000 		.word	modem_info+40
 1691 0124 58030000 		.word	.LC37
 1692 0128 64030000 		.word	.LC38
 1693 012c 90030000 		.word	.LC39
 1694 0130 9C030000 		.word	.LC40
 1695 0134 A8030000 		.word	.LC41
 1696              		.cfi_endproc
 1697              	.LFE80:
 1698              		.size	modem_configure_settings, .-modem_configure_settings
 1699              		.section	.rodata
 1700 03b3 00       		.align	2
 1701              	.LC42:
 1702 03b4 4D6F6465 		.ascii	"Modem not ready to get time. Not conncted to networ"
 1702      6D206E6F 
 1702      74207265 
ARM GAS  C:\Users\hail\AppData\Local\Temp\ccotwkx9.s 			page 42


 1702      61647920 
 1702      746F2067 
 1703 03e7 6B2E00   		.ascii	"k.\000"
 1704 03ea 0000     		.align	2
 1705              	.LC43:
 1706 03ec 41542B43 		.ascii	"AT+CCLK?\015\000"
 1706      434C4B3F 
 1706      0D00
 1707 03f6 0000     		.align	2
 1708              	.LC44:
 1709 03f8 220D00   		.ascii	"\"\015\000"
 1710 03fb 00       		.align	2
 1711              	.LC45:
 1712 03fc 3A202200 		.ascii	": \"\000"
 1713              		.align	2
 1714              	.LC46:
 1715 0400 25642F25 		.ascii	"%d/%d/%d,%d:%d:%d-%d\000"
 1715      642F2564 
 1715      2C25643A 
 1715      25643A25 
 1715      642D2564 
 1716 0415 000000   		.align	2
 1717              	.LC47:
 1718 0418 25642F25 		.ascii	"%d/%d/%d,%d:%d:%d+%d\000"
 1718      642F2564 
 1718      2C25643A 
 1718      25643A25 
 1718      642B2564 
 1719 042d 000000   		.align	2
 1720              	.LC48:
 1721 0430 436F756C 		.ascii	"Could not parse modem time: %s.\000"
 1721      64206E6F 
 1721      74207061 
 1721      72736520 
 1721      6D6F6465 
 1722              		.section	.text.modem_get_network_time,"ax",%progbits
 1723              		.align	2
 1724              		.global	modem_get_network_time
 1725              		.thumb
 1726              		.thumb_func
 1727              		.type	modem_get_network_time, %function
 1728              	modem_get_network_time:
 1729              	.LFB81:
 500:modem.c       **** 
 501:modem.c       **** //returns 0 if modem can't get time
 502:modem.c       **** long modem_get_network_time(){
 1730              		.loc 1 502 0
 1731              		.cfi_startproc
 1732              		@ args = 0, pretend = 0, frame = 104
 1733              		@ frame_needed = 1, uses_anonymous_args = 0
 1734 0000 80B5     		push	{r7, lr}
 1735              		.cfi_def_cfa_offset 8
 1736              		.cfi_offset 7, -8
 1737              		.cfi_offset 14, -4
 1738 0002 A0B0     		sub	sp, sp, #128
 1739              		.cfi_def_cfa_offset 136
 1740 0004 06AF     		add	r7, sp, #24
ARM GAS  C:\Users\hail\AppData\Local\Temp\ccotwkx9.s 			page 43


 1741              		.cfi_def_cfa 7, 112
 503:modem.c       ****     
 504:modem.c       ****     //modem reposen format (careful to include the quotes "")
 505:modem.c       ****     //+CCLK: "20/05/01,10:48:33-16" the "-16" is the number of quarter hourts (15 mins) from GMT ti
 506:modem.c       ****     //ex: 14:48 GMT
 507:modem.c       **** 
 508:modem.c       ****     // If modem_state is not "ready", then print error and return 0
 509:modem.c       ****     if(modem_state != MODEM_STATE_READY){
 1742              		.loc 1 509 0
 1743 0006 444B     		ldr	r3, .L110
 1744 0008 1B78     		ldrb	r3, [r3]	@ zero_extendqisi2
 1745 000a 042B     		cmp	r3, #4
 1746 000c 05D0     		beq	.L104
 510:modem.c       ****         printNotif(NOTIF_TYPE_ERROR,"Modem not ready to get time. Not conncted to network.");
 1747              		.loc 1 510 0
 1748 000e 4349     		ldr	r1, .L110+4
 1749 0010 0220     		movs	r0, #2
 1750 0012 FFF7FEFF 		bl	printNotif
 511:modem.c       ****         return 0;   
 1751              		.loc 1 511 0
 1752 0016 0023     		movs	r3, #0
 1753 0018 7AE0     		b	.L105
 1754              	.L104:
 512:modem.c       ****     }
 513:modem.c       ****     long epoch_time = 0; // Create variable of long time and set equal to 0
 1755              		.loc 1 513 0
 1756 001a 0023     		movs	r3, #0
 1757 001c 7B66     		str	r3, [r7, #100]
 514:modem.c       ****     
 515:modem.c       ****     // AT command +CCLK? is a read command that returns the current setting of the real-time clock 
 516:modem.c       ****     if(at_write_command("AT+CCLK?\r","OK",DEFAULT_AT_TIMEOUT)){
 1758              		.loc 1 516 0
 1759 001e 4FF4FA62 		mov	r2, #2000
 1760 0022 3F49     		ldr	r1, .L110+8
 1761 0024 3F48     		ldr	r0, .L110+12
 1762 0026 FFF7FEFF 		bl	at_write_command
 1763 002a 0346     		mov	r3, r0
 1764 002c 002B     		cmp	r3, #0
 1765 002e 6ED0     		beq	.L106
 1766              	.LBB11:
 517:modem.c       ****         char network_time[30]; // Create a character array of length 30 called network_time 
 518:modem.c       ****         // Extract UART string recieved from the modem and save to variable network_time
 519:modem.c       ****         extract_string(uart_received_string,": \"","\"\r",network_time);
 1767              		.loc 1 519 0
 1768 0030 07F14403 		add	r3, r7, #68
 1769 0034 3C4A     		ldr	r2, .L110+16
 1770 0036 3D49     		ldr	r1, .L110+20
 1771 0038 3D48     		ldr	r0, .L110+24
 1772 003a FFF7FEFF 		bl	extract_string
 520:modem.c       ****         
 521:modem.c       ****         ///////////////////  
 522:modem.c       ****         struct tm t; // Creates variable t of struct tm
 523:modem.c       ****         
 524:modem.c       ****         // Creates a bunch of variables of type int and sets them to 0
 525:modem.c       ****         int year, month, day, hour, minute, second, gmt_offset = 0;
 1773              		.loc 1 525 0
 1774 003e 0023     		movs	r3, #0
ARM GAS  C:\Users\hail\AppData\Local\Temp\ccotwkx9.s 			page 44


 1775 0040 BB62     		str	r3, [r7, #40]
 526:modem.c       ****       
 527:modem.c       ****         // Determines the GMT offset 
 528:modem.c       ****         // int sscanf(const char *str, const char *format, ...) reads formatted input from a string
 529:modem.c       ****         // On success, the function returns the number of variables filled. In the case of an input
 530:modem.c       ****         if(sscanf(network_time,"%d/%d/%d,%d:%d:%d-%d",&year,&month,&day,&hour,&minute,&second,&gmt_
 1776              		.loc 1 530 0
 1777 0042 07F13C01 		add	r1, r7, #60
 1778 0046 07F14002 		add	r2, r7, #64
 1779 004a 07F14400 		add	r0, r7, #68
 1780 004e 07F12803 		add	r3, r7, #40
 1781 0052 0493     		str	r3, [sp, #16]
 1782 0054 07F12C03 		add	r3, r7, #44
 1783 0058 0393     		str	r3, [sp, #12]
 1784 005a 07F13003 		add	r3, r7, #48
 1785 005e 0293     		str	r3, [sp, #8]
 1786 0060 07F13403 		add	r3, r7, #52
 1787 0064 0193     		str	r3, [sp, #4]
 1788 0066 07F13803 		add	r3, r7, #56
 1789 006a 0093     		str	r3, [sp]
 1790 006c 0B46     		mov	r3, r1
 1791 006e 3149     		ldr	r1, .L110+28
 1792 0070 FFF7FEFF 		bl	sscanf
 1793 0074 0346     		mov	r3, r0
 1794 0076 072B     		cmp	r3, #7
 1795 0078 06D1     		bne	.L107
 531:modem.c       ****             gmt_offset = gmt_offset*(900);
 1796              		.loc 1 531 0
 1797 007a BB6A     		ldr	r3, [r7, #40]
 1798 007c 4FF46172 		mov	r2, #900
 1799 0080 02FB03F3 		mul	r3, r2, r3
 1800 0084 BB62     		str	r3, [r7, #40]
 1801 0086 2AE0     		b	.L108
 1802              	.L107:
 532:modem.c       ****         }else if(sscanf(network_time,"%d/%d/%d,%d:%d:%d+%d",&year,&month,&day,&hour,&minute,&second
 1803              		.loc 1 532 0
 1804 0088 07F13C01 		add	r1, r7, #60
 1805 008c 07F14002 		add	r2, r7, #64
 1806 0090 07F14400 		add	r0, r7, #68
 1807 0094 07F12803 		add	r3, r7, #40
 1808 0098 0493     		str	r3, [sp, #16]
 1809 009a 07F12C03 		add	r3, r7, #44
 1810 009e 0393     		str	r3, [sp, #12]
 1811 00a0 07F13003 		add	r3, r7, #48
 1812 00a4 0293     		str	r3, [sp, #8]
 1813 00a6 07F13403 		add	r3, r7, #52
 1814 00aa 0193     		str	r3, [sp, #4]
 1815 00ac 07F13803 		add	r3, r7, #56
 1816 00b0 0093     		str	r3, [sp]
 1817 00b2 0B46     		mov	r3, r1
 1818 00b4 2049     		ldr	r1, .L110+32
 1819 00b6 FFF7FEFF 		bl	sscanf
 1820 00ba 0346     		mov	r3, r0
 1821 00bc 072B     		cmp	r3, #7
 1822 00be 05D1     		bne	.L109
 533:modem.c       ****             gmt_offset = gmt_offset*(-900);
 1823              		.loc 1 533 0
ARM GAS  C:\Users\hail\AppData\Local\Temp\ccotwkx9.s 			page 45


 1824 00c0 BB6A     		ldr	r3, [r7, #40]
 1825 00c2 1E4A     		ldr	r2, .L110+36
 1826 00c4 02FB03F3 		mul	r3, r2, r3
 1827 00c8 BB62     		str	r3, [r7, #40]
 1828 00ca 08E0     		b	.L108
 1829              	.L109:
 534:modem.c       ****         }else{
 535:modem.c       ****             printNotif(NOTIF_TYPE_ERROR,"Could not parse modem time: %s.",network_time);
 1830              		.loc 1 535 0
 1831 00cc 07F14403 		add	r3, r7, #68
 1832 00d0 1A46     		mov	r2, r3
 1833 00d2 1B49     		ldr	r1, .L110+40
 1834 00d4 0220     		movs	r0, #2
 1835 00d6 FFF7FEFF 		bl	printNotif
 536:modem.c       ****             return 0;  // Return 0 if cannot get time 
 1836              		.loc 1 536 0
 1837 00da 0023     		movs	r3, #0
 1838 00dc 18E0     		b	.L105
 1839              	.L108:
 537:modem.c       ****         }
 538:modem.c       ****         
 539:modem.c       ****         // Sets each variable to the correct time 
 540:modem.c       ****         t.tm_sec = second;
 1840              		.loc 1 540 0
 1841 00de FB6A     		ldr	r3, [r7, #44]
 1842 00e0 7B60     		str	r3, [r7, #4]
 541:modem.c       ****         t.tm_min = minute;
 1843              		.loc 1 541 0
 1844 00e2 3B6B     		ldr	r3, [r7, #48]
 1845 00e4 BB60     		str	r3, [r7, #8]
 542:modem.c       ****         t.tm_hour = hour;
 1846              		.loc 1 542 0
 1847 00e6 7B6B     		ldr	r3, [r7, #52]
 1848 00e8 FB60     		str	r3, [r7, #12]
 543:modem.c       ****         t.tm_year = year + 100;    // Year since 1900
 1849              		.loc 1 543 0
 1850 00ea 3B6C     		ldr	r3, [r7, #64]
 1851 00ec 6433     		adds	r3, r3, #100
 1852 00ee BB61     		str	r3, [r7, #24]
 544:modem.c       ****         t.tm_mon = month-1;        // Month, where 0 = jan
 1853              		.loc 1 544 0
 1854 00f0 FB6B     		ldr	r3, [r7, #60]
 1855 00f2 013B     		subs	r3, r3, #1
 1856 00f4 7B61     		str	r3, [r7, #20]
 545:modem.c       ****         t.tm_mday = day;           // Day of the month
 1857              		.loc 1 545 0
 1858 00f6 BB6B     		ldr	r3, [r7, #56]
 1859 00f8 3B61     		str	r3, [r7, #16]
 546:modem.c       ****         t.tm_isdst = 0;            // Is Daylight Savings on? 1 = yes, 0 = no, -1 = unknown
 1860              		.loc 1 546 0
 1861 00fa 0023     		movs	r3, #0
 1862 00fc 7B62     		str	r3, [r7, #36]
 547:modem.c       ****     
 548:modem.c       ****         // Set variable epoch-time to be equal to the local time plus the GMT offset
 549:modem.c       ****         // the mktime function converts a broken-down local time (pointed to by timeptr) and return
 550:modem.c       ****         epoch_time = mktime(&t) + gmt_offset;
 1863              		.loc 1 550 0
ARM GAS  C:\Users\hail\AppData\Local\Temp\ccotwkx9.s 			page 46


 1864 00fe 3B1D     		adds	r3, r7, #4
 1865 0100 1846     		mov	r0, r3
 1866 0102 FFF7FEFF 		bl	mktime
 1867 0106 0246     		mov	r2, r0
 1868 0108 BB6A     		ldr	r3, [r7, #40]
 1869 010a 1344     		add	r3, r3, r2
 1870 010c 7B66     		str	r3, [r7, #100]
 1871              	.L106:
 1872              	.LBE11:
 551:modem.c       ****     }
 552:modem.c       ****     
 553:modem.c       ****     return epoch_time;
 1873              		.loc 1 553 0
 1874 010e 7B6E     		ldr	r3, [r7, #100]
 1875              	.L105:
 554:modem.c       **** }
 1876              		.loc 1 554 0
 1877 0110 1846     		mov	r0, r3
 1878 0112 6837     		adds	r7, r7, #104
 1879              		.cfi_def_cfa_offset 8
 1880 0114 BD46     		mov	sp, r7
 1881              		.cfi_def_cfa_register 13
 1882              		@ sp needed
 1883 0116 80BD     		pop	{r7, pc}
 1884              	.L111:
 1885              		.align	2
 1886              	.L110:
 1887 0118 00000000 		.word	modem_state
 1888 011c B4030000 		.word	.LC42
 1889 0120 00000000 		.word	.LC0
 1890 0124 EC030000 		.word	.LC43
 1891 0128 F8030000 		.word	.LC44
 1892 012c FC030000 		.word	.LC45
 1893 0130 00000000 		.word	uart_received_string
 1894 0134 00040000 		.word	.LC46
 1895 0138 18040000 		.word	.LC47
 1896 013c 7CFCFFFF 		.word	-900
 1897 0140 30040000 		.word	.LC48
 1898              		.cfi_endproc
 1899              	.LFE81:
 1900              		.size	modem_get_network_time, .-modem_get_network_time
 1901              		.section	.text.modem_get_state,"ax",%progbits
 1902              		.align	2
 1903              		.global	modem_get_state
 1904              		.thumb
 1905              		.thumb_func
 1906              		.type	modem_get_state, %function
 1907              	modem_get_state:
 1908              	.LFB82:
 555:modem.c       **** 
 556:modem.c       **** // Get the modem state
 557:modem.c       **** uint8 modem_get_state(){
 1909              		.loc 1 557 0
 1910              		.cfi_startproc
 1911              		@ args = 0, pretend = 0, frame = 0
 1912              		@ frame_needed = 1, uses_anonymous_args = 0
 1913              		@ link register save eliminated.
ARM GAS  C:\Users\hail\AppData\Local\Temp\ccotwkx9.s 			page 47


 1914 0000 80B4     		push	{r7}
 1915              		.cfi_def_cfa_offset 4
 1916              		.cfi_offset 7, -4
 1917 0002 00AF     		add	r7, sp, #0
 1918              		.cfi_def_cfa_register 7
 558:modem.c       ****     return modem_state;
 1919              		.loc 1 558 0
 1920 0004 024B     		ldr	r3, .L114
 1921 0006 1B78     		ldrb	r3, [r3]	@ zero_extendqisi2
 559:modem.c       **** }
 1922              		.loc 1 559 0
 1923 0008 1846     		mov	r0, r3
 1924 000a BD46     		mov	sp, r7
 1925              		.cfi_def_cfa_register 13
 1926              		@ sp needed
 1927 000c 80BC     		pop	{r7}
 1928              		.cfi_restore 7
 1929              		.cfi_def_cfa_offset 0
 1930 000e 7047     		bx	lr
 1931              	.L115:
 1932              		.align	2
 1933              	.L114:
 1934 0010 00000000 		.word	modem_state
 1935              		.cfi_endproc
 1936              	.LFE82:
 1937              		.size	modem_get_state, .-modem_get_state
 1938              		.section	.text.modem_sleep,"ax",%progbits
 1939              		.align	2
 1940              		.global	modem_sleep
 1941              		.thumb
 1942              		.thumb_func
 1943              		.type	modem_sleep, %function
 1944              	modem_sleep:
 1945              	.LFB83:
 560:modem.c       **** 
 561:modem.c       **** // Set modem to sleep
 562:modem.c       **** void modem_sleep(){
 1946              		.loc 1 562 0
 1947              		.cfi_startproc
 1948              		@ args = 0, pretend = 0, frame = 0
 1949              		@ frame_needed = 1, uses_anonymous_args = 0
 1950 0000 80B5     		push	{r7, lr}
 1951              		.cfi_def_cfa_offset 8
 1952              		.cfi_offset 7, -8
 1953              		.cfi_offset 14, -4
 1954 0002 00AF     		add	r7, sp, #0
 1955              		.cfi_def_cfa_register 7
 563:modem.c       ****     // If the modem_state is not "off" then put it to sleep
 564:modem.c       ****     if(modem_get_state() != MODEM_STATE_OFF){
 1956              		.loc 1 564 0
 1957 0004 FFF7FEFF 		bl	modem_get_state
 1958 0008 0346     		mov	r3, r0
 1959 000a 002B     		cmp	r3, #0
 1960 000c 03D0     		beq	.L118
 565:modem.c       **** 
 566:modem.c       ****         Telit_ControlReg_Sleep(); // Prepares the modem for entering the low power mode.
 1961              		.loc 1 566 0
ARM GAS  C:\Users\hail\AppData\Local\Temp\ccotwkx9.s 			page 48


 1962 000e FFF7FEFF 		bl	Telit_ControlReg_Sleep
 567:modem.c       ****         UART_Telit_Sleep(); // Saves the current component state, calls the UART_Telit_Stop() funct
 1963              		.loc 1 567 0
 1964 0012 FFF7FEFF 		bl	UART_Telit_Sleep
 1965              	.L118:
 568:modem.c       ****         
 569:modem.c       ****         // Set interrupt on RX pin to wakeup chip from sleep if UART comm starts
 570:modem.c       ****        // Rx_Telit_SetInterruptMode(Rx_Telit_0_INTR,Rx_Telit_INTR_FALLING);
 571:modem.c       ****      }
 572:modem.c       **** }
 1966              		.loc 1 572 0
 1967 0016 00BF     		nop
 1968 0018 80BD     		pop	{r7, pc}
 1969              		.cfi_endproc
 1970              	.LFE83:
 1971              		.size	modem_sleep, .-modem_sleep
 1972 001a 00BF     		.section	.text.modem_wakeup,"ax",%progbits
 1973              		.align	2
 1974              		.global	modem_wakeup
 1975              		.thumb
 1976              		.thumb_func
 1977              		.type	modem_wakeup, %function
 1978              	modem_wakeup:
 1979              	.LFB84:
 573:modem.c       **** 
 574:modem.c       **** // Wakeup the modem
 575:modem.c       **** void modem_wakeup(){
 1980              		.loc 1 575 0
 1981              		.cfi_startproc
 1982              		@ args = 0, pretend = 0, frame = 0
 1983              		@ frame_needed = 1, uses_anonymous_args = 0
 1984 0000 80B5     		push	{r7, lr}
 1985              		.cfi_def_cfa_offset 8
 1986              		.cfi_offset 7, -8
 1987              		.cfi_offset 14, -4
 1988 0002 00AF     		add	r7, sp, #0
 1989              		.cfi_def_cfa_register 7
 576:modem.c       ****     // If modem state is not off then wake it up
 577:modem.c       ****     if(modem_get_state() != MODEM_STATE_OFF){
 1990              		.loc 1 577 0
 1991 0004 FFF7FEFF 		bl	modem_get_state
 1992 0008 0346     		mov	r3, r0
 1993 000a 002B     		cmp	r3, #0
 1994 000c 0BD0     		beq	.L121
 578:modem.c       ****         Telit_ControlReg_Wakeup(); // Restores the modem after waking up from the low power mode.
 1995              		.loc 1 578 0
 1996 000e FFF7FEFF 		bl	Telit_ControlReg_Wakeup
 579:modem.c       ****         // Calls the UART_Telit_RestoreConfig() function to restore the configuration.
 580:modem.c       ****         // If the modem was enabled before the UART_Telit_Sleep() function was called, the UART_Tel
 581:modem.c       ****         UART_Telit_Wakeup();
 1997              		.loc 1 581 0
 1998 0012 FFF7FEFF 		bl	UART_Telit_Wakeup
 582:modem.c       ****         // Remove the need for this pin itterupt
 583:modem.c       ****         //Rx_Telit_SetInterruptMode(Rx_Telit_0_INTR,Rx_Telit_INTR_NONE);
 584:modem.c       ****         
 585:modem.c       ****         // If woken up from pin, go ahead and delay for 100ms to allow modem UART to deliver the me
 586:modem.c       ****         if(modem_get_state() == MODEM_STATE_WAITING_FOR_IP){
ARM GAS  C:\Users\hail\AppData\Local\Temp\ccotwkx9.s 			page 49


 1999              		.loc 1 586 0
 2000 0016 FFF7FEFF 		bl	modem_get_state
 2001 001a 0346     		mov	r3, r0
 2002 001c 032B     		cmp	r3, #3
 2003 001e 02D1     		bne	.L121
 587:modem.c       ****             CyDelay(100u);
 2004              		.loc 1 587 0
 2005 0020 6420     		movs	r0, #100
 2006 0022 FFF7FEFF 		bl	CyDelay
 2007              	.L121:
 588:modem.c       ****         }
 589:modem.c       ****         
 590:modem.c       ****      }
 591:modem.c       ****     
 592:modem.c       **** }
 2008              		.loc 1 592 0
 2009 0026 00BF     		nop
 2010 0028 80BD     		pop	{r7, pc}
 2011              		.cfi_endproc
 2012              	.LFE84:
 2013              		.size	modem_wakeup, .-modem_wakeup
 2014 002a 00BF     		.section	.rodata
 2015              		.align	2
 2016              	.LC49:
 2017 0450 41542347 		.ascii	"AT#GPIO=5,1,1,0\015\000"
 2017      50494F3D 
 2017      352C312C 
 2017      312C300D 
 2017      00
 2018 0461 000000   		.align	2
 2019              	.LC50:
 2020 0464 41542453 		.ascii	"AT$SUPLSEC=1\015\000"
 2020      55504C53 
 2020      45433D31 
 2020      0D00
 2021 0472 0000     		.align	2
 2022              	.LC51:
 2023 0474 41542453 		.ascii	"AT$SUPLV=2\015\000"
 2023      55504C56 
 2023      3D320D00 
 2024              		.align	2
 2025              	.LC52:
 2026 0480 41542441 		.ascii	"AT$AGPSEN=1\015\000"
 2026      47505345 
 2026      4E3D310D 
 2026      00
 2027 048d 000000   		.align	2
 2028              	.LC53:
 2029 0490 41542453 		.ascii	"AT$SLP=1,\"supl.google.com:7275\"\015\000"
 2029      4C503D31 
 2029      2C227375 
 2029      706C2E67 
 2029      6F6F676C 
 2030 04b1 000000   		.align	2
 2031              	.LC54:
 2032 04b4 41542353 		.ascii	"AT#SGACT=1,0\015\012\000"
 2032      47414354 
ARM GAS  C:\Users\hail\AppData\Local\Temp\ccotwkx9.s 			page 50


 2032      3D312C30 
 2032      0D0A00
 2033 04c3 00       		.align	2
 2034              	.LC55:
 2035 04c4 4154244C 		.ascii	"AT$LCSLK=1,1\015\000"
 2035      43534C4B 
 2035      3D312C31 
 2035      0D00
 2036 04d2 0000     		.align	2
 2037              	.LC56:
 2038 04d4 41542447 		.ascii	"AT$GPSSLSR=1,1,,,,,2\015\000"
 2038      5053534C 
 2038      53523D31 
 2038      2C312C2C 
 2038      2C2C2C32 
 2039 04ea 0000     		.align	2
 2040              	.LC57:
 2041 04ec 4E00     		.ascii	"N\000"
 2042 04ee 0000     		.align	2
 2043              	.LC58:
 2044 04f0 41542447 		.ascii	"AT$GPSACP\015\000"
 2044      50534143 
 2044      500D00
 2045 04fb 00       		.align	2
 2046              	.LC59:
 2047 04fc 24475053 		.ascii	"$GPSACP: \000"
 2047      4143503A 
 2047      2000
 2048 0506 0000     		.align	2
 2049              	.LC60:
 2050 0508 24475053 		.ascii	"$GPSACP: %*f,%fN,%fW,%*f,%f,%*s\000"
 2050      4143503A 
 2050      20252A66 
 2050      2C25664E 
 2050      2C256657 
 2051              		.global	__aeabi_fdiv
 2052              		.global	__aeabi_f2d
 2053              		.global	__aeabi_ddiv
 2054              		.global	__aeabi_dadd
 2055              		.global	__aeabi_d2f
 2056              		.align	2
 2057              	.LC61:
 2058 0528 41542347 		.ascii	"AT#GPIO=5,0,1,0\015\000"
 2058      50494F3D 
 2058      352C302C 
 2058      312C300D 
 2058      00
 2059 0539 000000   		.align	2
 2060              	.LC62:
 2061 053c 41542447 		.ascii	"AT$GPSR=0\015\000"
 2061      5053523D 
 2061      300D00
 2062 0547 00       		.align	2
 2063              	.LC63:
 2064 0548 54696D65 		.ascii	"Time to lock GPS: %d\000"
 2064      20746F20 
 2064      6C6F636B 
ARM GAS  C:\Users\hail\AppData\Local\Temp\ccotwkx9.s 			page 51


 2064      20475053 
 2064      3A202564 
 2065              		.section	.text.modem_get_gps_coordinates,"ax",%progbits
 2066              		.align	2
 2067              		.global	modem_get_gps_coordinates
 2068              		.thumb
 2069              		.thumb_func
 2070              		.type	modem_get_gps_coordinates, %function
 2071              	modem_get_gps_coordinates:
 2072              	.LFB85:
 593:modem.c       **** 
 594:modem.c       **** 
 595:modem.c       ****     
 596:modem.c       **** // Returns lat,lom,alt data from Assited GPS (AGPS) system
 597:modem.c       **** gps_t modem_get_gps_coordinates(){
 2073              		.loc 1 597 0
 2074              		.cfi_startproc
 2075              		@ args = 0, pretend = 0, frame = 56
 2076              		@ frame_needed = 1, uses_anonymous_args = 0
 2077 0000 B0B5     		push	{r4, r5, r7, lr}
 2078              		.cfi_def_cfa_offset 16
 2079              		.cfi_offset 4, -16
 2080              		.cfi_offset 5, -12
 2081              		.cfi_offset 7, -8
 2082              		.cfi_offset 14, -4
 2083 0002 90B0     		sub	sp, sp, #64
 2084              		.cfi_def_cfa_offset 80
 2085 0004 02AF     		add	r7, sp, #8
 2086              		.cfi_def_cfa 7, 72
 2087 0006 7860     		str	r0, [r7, #4]
 598:modem.c       ****     gps_t gps;
 599:modem.c       ****     gps.altitude = 0;
 2088              		.loc 1 599 0
 2089 0008 4FF00003 		mov	r3, #0
 2090 000c FB61     		str	r3, [r7, #28]	@ float
 600:modem.c       ****     gps.longitude = 0;
 2091              		.loc 1 600 0
 2092 000e 4FF00003 		mov	r3, #0
 2093 0012 BB61     		str	r3, [r7, #24]	@ float
 601:modem.c       ****     gps.latitude = 0;
 2094              		.loc 1 601 0
 2095 0014 4FF00003 		mov	r3, #0
 2096 0018 7B61     		str	r3, [r7, #20]	@ float
 602:modem.c       ****     gps.time_to_lock =0;
 2097              		.loc 1 602 0
 2098 001a 0023     		movs	r3, #0
 2099 001c 3B84     		strh	r3, [r7, #32]	@ movhi
 603:modem.c       ****     gps.valid = 0;
 2100              		.loc 1 603 0
 2101 001e 0023     		movs	r3, #0
 2102 0020 87F82230 		strb	r3, [r7, #34]
 604:modem.c       ****     
 605:modem.c       ****     //AGPS will only work if we're connected to network, so don't call this fuction otherwise
 606:modem.c       ****     if(modem_state != MODEM_STATE_READY){
 2103              		.loc 1 606 0
 2104 0024 7F4B     		ldr	r3, .L132
 2105 0026 1B78     		ldrb	r3, [r3]	@ zero_extendqisi2
ARM GAS  C:\Users\hail\AppData\Local\Temp\ccotwkx9.s 			page 52


 2106 0028 042B     		cmp	r3, #4
 2107 002a 07D0     		beq	.L123
 607:modem.c       ****         return gps;//where valid = 0
 2108              		.loc 1 607 0
 2109 002c 7B68     		ldr	r3, [r7, #4]
 2110 002e 1C46     		mov	r4, r3
 2111 0030 07F11403 		add	r3, r7, #20
 2112 0034 0FCB     		ldmia	r3, {r0, r1, r2, r3}
 2113 0036 84E80F00 		stmia	r4, {r0, r1, r2, r3}
 2114 003a EFE0     		b	.L122
 2115              	.L123:
 608:modem.c       ****     }
 609:modem.c       ****     
 610:modem.c       ****     long lock_time = getTimeStamp();
 2116              		.loc 1 610 0
 2117 003c FFF7FEFF 		bl	getTimeStamp
 2118 0040 3863     		str	r0, [r7, #48]
 611:modem.c       ****     
 612:modem.c       ****     // Enable this for thr LTER module
 613:modem.c       ****     // Enable GPS Low-Dropout Regulator
 614:modem.c       ****     at_write_command("AT#GPIO=5,1,1,0\r","OK",DEFAULT_AT_TIMEOUT);
 2119              		.loc 1 614 0
 2120 0042 4FF4FA62 		mov	r2, #2000
 2121 0046 7849     		ldr	r1, .L132+4
 2122 0048 7848     		ldr	r0, .L132+8
 2123 004a FFF7FEFF 		bl	at_write_command
 615:modem.c       ****     
 616:modem.c       ****     // Configure SUPL connection params
 617:modem.c       ****     at_write_command("AT$SUPLSEC=1\r","OK",DEFAULT_AT_TIMEOUT);
 2124              		.loc 1 617 0
 2125 004e 4FF4FA62 		mov	r2, #2000
 2126 0052 7549     		ldr	r1, .L132+4
 2127 0054 7648     		ldr	r0, .L132+12
 2128 0056 FFF7FEFF 		bl	at_write_command
 618:modem.c       ****     
 619:modem.c       ****     // Use SUPL2.0
 620:modem.c       ****     at_write_command("AT$SUPLV=2\r","OK",DEFAULT_AT_TIMEOUT);
 2129              		.loc 1 620 0
 2130 005a 4FF4FA62 		mov	r2, #2000
 2131 005e 7249     		ldr	r1, .L132+4
 2132 0060 7448     		ldr	r0, .L132+16
 2133 0062 FFF7FEFF 		bl	at_write_command
 621:modem.c       ****     
 622:modem.c       ****     // Enable AGPS service
 623:modem.c       ****     at_write_command("AT$AGPSEN=1\r","OK",DEFAULT_AT_TIMEOUT);
 2134              		.loc 1 623 0
 2135 0066 4FF4FA62 		mov	r2, #2000
 2136 006a 6F49     		ldr	r1, .L132+4
 2137 006c 7248     		ldr	r0, .L132+20
 2138 006e FFF7FEFF 		bl	at_write_command
 624:modem.c       ****     
 625:modem.c       ****     // Chose SUPL server, use google publiuc service
 626:modem.c       ****     at_write_command("AT$SLP=1,\"supl.google.com:7275\"\r","OK",DEFAULT_AT_TIMEOUT);
 2139              		.loc 1 626 0
 2140 0072 4FF4FA62 		mov	r2, #2000
 2141 0076 6C49     		ldr	r1, .L132+4
 2142 0078 7048     		ldr	r0, .L132+24
ARM GAS  C:\Users\hail\AppData\Local\Temp\ccotwkx9.s 			page 53


 2143 007a FFF7FEFF 		bl	at_write_command
 627:modem.c       ****     
 628:modem.c       ****     //pdp context has to be lockeed to carrier for this to work
 629:modem.c       ****     
 630:modem.c       ****     // Unlock context since it needs to be used by modem
 631:modem.c       ****     at_write_command("AT#SGACT=1,0\r\n", "OK",DEFAULT_AT_TIMEOUT);
 2144              		.loc 1 631 0
 2145 007e 4FF4FA62 		mov	r2, #2000
 2146 0082 6949     		ldr	r1, .L132+4
 2147 0084 6E48     		ldr	r0, .L132+28
 2148 0086 FFF7FEFF 		bl	at_write_command
 632:modem.c       ****     
 633:modem.c       ****     at_write_command("AT$LCSLK=1,1\r","OK",DEFAULT_AT_TIMEOUT);//ATT
 2149              		.loc 1 633 0
 2150 008a 4FF4FA62 		mov	r2, #2000
 2151 008e 6649     		ldr	r1, .L132+4
 2152 0090 6C48     		ldr	r0, .L132+32
 2153 0092 FFF7FEFF 		bl	at_write_command
 634:modem.c       ****     //at_write_command("AT$LCSLK=1,3\r","OK",DEFAULT_AT_TIMEOUT);//Verizon
 635:modem.c       ****     
 636:modem.c       ****     // Relock the context
 637:modem.c       ****     at_write_command("AT#SGACT=1,1\r\n", "OK",10000u);
 2154              		.loc 1 637 0
 2155 0096 42F21072 		movw	r2, #10000
 2156 009a 6349     		ldr	r1, .L132+4
 2157 009c 6A48     		ldr	r0, .L132+36
 2158 009e FFF7FEFF 		bl	at_write_command
 638:modem.c       ****     
 639:modem.c       ****     //start AGPS service
 640:modem.c       ****     at_write_command("AT$GPSSLSR=1,1,,,,,2\r","OK",DEFAULT_AT_TIMEOUT); 
 2159              		.loc 1 640 0
 2160 00a2 4FF4FA62 		mov	r2, #2000
 2161 00a6 6049     		ldr	r1, .L132+4
 2162 00a8 6848     		ldr	r0, .L132+40
 2163 00aa FFF7FEFF 		bl	at_write_command
 641:modem.c       ****     
 642:modem.c       ****     
 643:modem.c       ****     // Start the AGPS service
 644:modem.c       ****     // Will keep receiving a buynch of commas without numbers, until GPS locks
 645:modem.c       ****     // Good lock will retunr a string with "N" and "W" coordinates
 646:modem.c       ****     
 647:modem.c       ****     
 648:modem.c       ****  
 649:modem.c       ****     uint8 gps_status = 0;
 2164              		.loc 1 649 0
 2165 00ae 0023     		movs	r3, #0
 2166 00b0 87F82F30 		strb	r3, [r7, #47]
 2167              	.LBB12:
 650:modem.c       ****     for(uint16 i=0;i<200;i++){
 2168              		.loc 1 650 0
 2169 00b4 0023     		movs	r3, #0
 2170 00b6 FB86     		strh	r3, [r7, #54]	@ movhi
 2171 00b8 13E0     		b	.L125
 2172              	.L128:
 651:modem.c       ****         gps_status = at_write_command("AT$GPSACP\r","N",DEFAULT_AT_TIMEOUT);//ATT
 2173              		.loc 1 651 0
 2174 00ba 4FF4FA62 		mov	r2, #2000
ARM GAS  C:\Users\hail\AppData\Local\Temp\ccotwkx9.s 			page 54


 2175 00be 6449     		ldr	r1, .L132+44
 2176 00c0 6448     		ldr	r0, .L132+48
 2177 00c2 FFF7FEFF 		bl	at_write_command
 2178 00c6 0346     		mov	r3, r0
 2179 00c8 87F82F30 		strb	r3, [r7, #47]
 652:modem.c       ****         if(gps_status){
 2180              		.loc 1 652 0
 2181 00cc 97F82F30 		ldrb	r3, [r7, #47]	@ zero_extendqisi2
 2182 00d0 002B     		cmp	r3, #0
 2183 00d2 0AD1     		bne	.L131
 653:modem.c       ****             break;   
 654:modem.c       ****         }
 655:modem.c       ****         CyDelay(1000u);// Wait for a second -- BLOCKING. Could be more elegant to incorporate this 
 2184              		.loc 1 655 0 discriminator 2
 2185 00d4 4FF47A70 		mov	r0, #1000
 2186 00d8 FFF7FEFF 		bl	CyDelay
 650:modem.c       ****         gps_status = at_write_command("AT$GPSACP\r","N",DEFAULT_AT_TIMEOUT);//ATT
 2187              		.loc 1 650 0 discriminator 2
 2188 00dc FB8E     		ldrh	r3, [r7, #54]
 2189 00de 0133     		adds	r3, r3, #1
 2190 00e0 FB86     		strh	r3, [r7, #54]	@ movhi
 2191              	.L125:
 650:modem.c       ****         gps_status = at_write_command("AT$GPSACP\r","N",DEFAULT_AT_TIMEOUT);//ATT
 2192              		.loc 1 650 0 is_stmt 0 discriminator 1
 2193 00e2 FB8E     		ldrh	r3, [r7, #54]
 2194 00e4 C72B     		cmp	r3, #199
 2195 00e6 E8D9     		bls	.L128
 2196 00e8 00E0     		b	.L127
 2197              	.L131:
 653:modem.c       ****             break;   
 2198              		.loc 1 653 0 is_stmt 1
 2199 00ea 00BF     		nop
 2200              	.L127:
 2201              	.LBE12:
 656:modem.c       ****     }
 657:modem.c       ****     
 658:modem.c       ****     //parse data here
 659:modem.c       ****     
 660:modem.c       ****     //example $GPSACP: 210926.000,4217.8003N,08341.3158W,2.3,258.2,3,17.8,4.8,2.6,220520,05,00
 661:modem.c       ****     float lat;
 662:modem.c       ****     float lon;
 663:modem.c       ****     float alt;
 664:modem.c       ****     
 665:modem.c       ****     // Look for $GPSACP:  in uart_received_string and save to sl
 666:modem.c       ****     // char *strstr(const char *haystack, const char *needle) function finds the first occurrence o
 667:modem.c       ****     char *s1 = strstr(uart_received_string,"$GPSACP: ");
 2202              		.loc 1 667 0
 2203 00ec 5A49     		ldr	r1, .L132+52
 2204 00ee 5B48     		ldr	r0, .L132+56
 2205 00f0 FFF7FEFF 		bl	strstr
 2206 00f4 B862     		str	r0, [r7, #40]
 668:modem.c       ****     // Look in sl for lat, long, alt and save in match 
 669:modem.c       ****     // int sscanf(const char *str, const char *format, ...) reads formatted input from a string.
 670:modem.c       ****     int match = sscanf(s1,"$GPSACP: %*f,%fN,%fW,%*f,%f,%*s",&lat,&lon,&alt);
 2207              		.loc 1 670 0
 2208 00f6 07F10C01 		add	r1, r7, #12
 2209 00fa 07F11002 		add	r2, r7, #16
ARM GAS  C:\Users\hail\AppData\Local\Temp\ccotwkx9.s 			page 55


 2210 00fe 07F10803 		add	r3, r7, #8
 2211 0102 0093     		str	r3, [sp]
 2212 0104 0B46     		mov	r3, r1
 2213 0106 5649     		ldr	r1, .L132+60
 2214 0108 B86A     		ldr	r0, [r7, #40]
 2215 010a FFF7FEFF 		bl	sscanf
 2216 010e 7862     		str	r0, [r7, #36]
 671:modem.c       ****     if(match >= 3){
 2217              		.loc 1 671 0
 2218 0110 7B6A     		ldr	r3, [r7, #36]
 2219 0112 022B     		cmp	r3, #2
 2220 0114 60DD     		ble	.L129
 672:modem.c       ****         // Calculate lat and lon
 673:modem.c       ****         // floorf(x) calculates the largest integer that is less than or equal to x. 
 674:modem.c       ****         // fmod(double x, double y) returns the remainder of x divided by y.
 675:modem.c       ****         lat = floorf(lat/100) + fmod(lat,100)/60;
 2221              		.loc 1 675 0
 2222 0116 3B69     		ldr	r3, [r7, #16]	@ float
 2223 0118 5249     		ldr	r1, .L132+64
 2224 011a 1846     		mov	r0, r3
 2225 011c FFF7FEFF 		bl	__aeabi_fdiv
 2226 0120 0346     		mov	r3, r0
 2227 0122 1846     		mov	r0, r3
 2228 0124 FFF7FEFF 		bl	floorf
 2229 0128 0346     		mov	r3, r0
 2230 012a 1846     		mov	r0, r3
 2231 012c FFF7FEFF 		bl	__aeabi_f2d
 2232 0130 0446     		mov	r4, r0
 2233 0132 0D46     		mov	r5, r1
 2234 0134 3B69     		ldr	r3, [r7, #16]	@ float
 2235 0136 1846     		mov	r0, r3
 2236 0138 FFF7FEFF 		bl	__aeabi_f2d
 2237 013c 4FF00002 		mov	r2, #0
 2238 0140 494B     		ldr	r3, .L132+68
 2239 0142 FFF7FEFF 		bl	fmod
 2240 0146 4FF00002 		mov	r2, #0
 2241 014a 484B     		ldr	r3, .L132+72
 2242 014c FFF7FEFF 		bl	__aeabi_ddiv
 2243 0150 0246     		mov	r2, r0
 2244 0152 0B46     		mov	r3, r1
 2245 0154 2046     		mov	r0, r4
 2246 0156 2946     		mov	r1, r5
 2247 0158 FFF7FEFF 		bl	__aeabi_dadd
 2248 015c 0346     		mov	r3, r0
 2249 015e 0C46     		mov	r4, r1
 2250 0160 1846     		mov	r0, r3
 2251 0162 2146     		mov	r1, r4
 2252 0164 FFF7FEFF 		bl	__aeabi_d2f
 2253 0168 0346     		mov	r3, r0
 2254 016a 3B61     		str	r3, [r7, #16]	@ float
 676:modem.c       ****         lon = -(floorf(lon/100) + fmod(lon,100)/60);
 2255              		.loc 1 676 0
 2256 016c FB68     		ldr	r3, [r7, #12]	@ float
 2257 016e 3D49     		ldr	r1, .L132+64
 2258 0170 1846     		mov	r0, r3
 2259 0172 FFF7FEFF 		bl	__aeabi_fdiv
 2260 0176 0346     		mov	r3, r0
ARM GAS  C:\Users\hail\AppData\Local\Temp\ccotwkx9.s 			page 56


 2261 0178 1846     		mov	r0, r3
 2262 017a FFF7FEFF 		bl	floorf
 2263 017e 0346     		mov	r3, r0
 2264 0180 1846     		mov	r0, r3
 2265 0182 FFF7FEFF 		bl	__aeabi_f2d
 2266 0186 0446     		mov	r4, r0
 2267 0188 0D46     		mov	r5, r1
 2268 018a FB68     		ldr	r3, [r7, #12]	@ float
 2269 018c 1846     		mov	r0, r3
 2270 018e FFF7FEFF 		bl	__aeabi_f2d
 2271 0192 4FF00002 		mov	r2, #0
 2272 0196 344B     		ldr	r3, .L132+68
 2273 0198 FFF7FEFF 		bl	fmod
 2274 019c 4FF00002 		mov	r2, #0
 2275 01a0 324B     		ldr	r3, .L132+72
 2276 01a2 FFF7FEFF 		bl	__aeabi_ddiv
 2277 01a6 0246     		mov	r2, r0
 2278 01a8 0B46     		mov	r3, r1
 2279 01aa 2046     		mov	r0, r4
 2280 01ac 2946     		mov	r1, r5
 2281 01ae FFF7FEFF 		bl	__aeabi_dadd
 2282 01b2 0346     		mov	r3, r0
 2283 01b4 0C46     		mov	r4, r1
 2284 01b6 1846     		mov	r0, r3
 2285 01b8 2146     		mov	r1, r4
 2286 01ba FFF7FEFF 		bl	__aeabi_d2f
 2287 01be 0346     		mov	r3, r0
 2288 01c0 83F00043 		eor	r3, r3, #-2147483648
 2289 01c4 FB60     		str	r3, [r7, #12]	@ float
 677:modem.c       ****         gps.altitude = alt; // Save alt, lat, and lon to the variable gps.
 2290              		.loc 1 677 0
 2291 01c6 BB68     		ldr	r3, [r7, #8]	@ float
 2292 01c8 FB61     		str	r3, [r7, #28]	@ float
 678:modem.c       ****         gps.latitude = lat;
 2293              		.loc 1 678 0
 2294 01ca 3B69     		ldr	r3, [r7, #16]	@ float
 2295 01cc 7B61     		str	r3, [r7, #20]	@ float
 679:modem.c       ****         gps.longitude = lon;
 2296              		.loc 1 679 0
 2297 01ce FB68     		ldr	r3, [r7, #12]	@ float
 2298 01d0 BB61     		str	r3, [r7, #24]	@ float
 680:modem.c       ****         gps.valid = 1;
 2299              		.loc 1 680 0
 2300 01d2 0123     		movs	r3, #1
 2301 01d4 87F82230 		strb	r3, [r7, #34]
 2302              	.L129:
 681:modem.c       ****     }
 682:modem.c       ****     
 683:modem.c       ****     // Disable LDO, just in case
 684:modem.c       ****     at_write_command("AT#GPIO=5,0,1,0\r","OK",DEFAULT_AT_TIMEOUT);
 2303              		.loc 1 684 0
 2304 01d8 4FF4FA62 		mov	r2, #2000
 2305 01dc 1249     		ldr	r1, .L132+4
 2306 01de 2448     		ldr	r0, .L132+76
 2307 01e0 FFF7FEFF 		bl	at_write_command
 685:modem.c       ****     
 686:modem.c       ****     // Flush modem's GPS data, just in case
ARM GAS  C:\Users\hail\AppData\Local\Temp\ccotwkx9.s 			page 57


 687:modem.c       ****     at_write_command("AT$GPSR=0\r","OK",DEFAULT_AT_TIMEOUT);
 2308              		.loc 1 687 0
 2309 01e4 4FF4FA62 		mov	r2, #2000
 2310 01e8 0F49     		ldr	r1, .L132+4
 2311 01ea 2248     		ldr	r0, .L132+80
 2312 01ec FFF7FEFF 		bl	at_write_command
 688:modem.c       ****     
 689:modem.c       ****     
 690:modem.c       ****     
 691:modem.c       ****     
 692:modem.c       ****     
 693:modem.c       ****     /* Relevant to 3g modem, can ignore
 694:modem.c       ****     
 695:modem.c       ****     //Setthe GPS Quality of Servicep arameters. Inorder,theyare<horiz_accuracy(inmeters)>,<vertical
 696:modem.c       ****     //AT$GPSQOS=50,50,100,0
 697:modem.c       ****     at_write_command("AT$GPSQOS=50,50,100,0\r","OK",DEFAULT_AT_TIMEOUT);
 698:modem.c       ****     
 699:modem.c       ****     //SettheSUPLLocationPlatform(SLP)addressoftheserverthatwillprovidetheA-GPS data:
 700:modem.c       ****     at_write_command("AT$LCSSLP=1,\"supl.google.com\"\r","OK",DEFAULT_AT_TIMEOUT);
 701:modem.c       ****     
 702:modem.c       ****     //unlock contedt, simnce its being used by modem
 703:modem.c       ****     at_write_command("AT#SGACT=1,0\r\n", "OK",DEFAULT_AT_TIMEOUT);
 704:modem.c       ****     //Lock context 1 for LoCation Services (LCS) use only
 705:modem.c       ****     at_write_command("AT$LCSLK=1,1\r","OK",5000u);
 706:modem.c       ****     
 707:modem.c       ****     //unlock contedt, simnce its being used by modem
 708:modem.c       ****     at_write_command("AT#SGACT=1,1\r\n", "OK",10000u);
 709:modem.c       ****     
 710:modem.c       ****     //EnableunsolicitedNMEAGPSdataintheformatof<NMEASENTENCE><CR>
 711:modem.c       ****     at_write_command("AT$GPSNMUN=2,1,0,0,0,0,0\r","OK",DEFAULT_AT_TIMEOUT);
 712:modem.c       ****     
 713:modem.c       ****     //StartGPSlocationservicerequest.Sendingthiscommandsets$GPSP=1
 714:modem.c       ****    uint8 gps_status = 0;
 715:modem.c       ****     for(uint16 i=0;i<200;i++){
 716:modem.c       ****         gps_status = at_write_command("AT$GPSSLSR=1,1,,,,,0,255\r","N",3000u);
 717:modem.c       ****         if(gps_status){
 718:modem.c       ****             break;   
 719:modem.c       ****         }
 720:modem.c       ****   }
 721:modem.c       ****     
 722:modem.c       ****     //$GPGGA,030307.691,4217.7923,N,08341.3240,W,1,05,2.25,225.0,M,,M,,0000*6E
 723:modem.c       ****     //$GPGGA,213852.000,4600.8755,N,09327.7008,W,1,05,3.00,292.0,M,,M,,0000*6E
 724:modem.c       ****     if(gps_status){
 725:modem.c       ****         float lat,lon,alt = 0;
 726:modem.c       ****         if(sscanf(uart_received_string,"%*s,%f,N,%f,W,%*s",&lat,&lon) > 0){
 727:modem.c       ****             gps.altitude = alt;
 728:modem.c       ****             gps.latitude = lat/60;
 729:modem.c       ****             gps.longitude = lon/60;
 730:modem.c       ****             gps.valid = 1;
 731:modem.c       ****         }
 732:modem.c       ****         
 733:modem.c       ****     }
 734:modem.c       ****     
 735:modem.c       ****     //turn off gps
 736:modem.c       ****     //AT$GPSP=0
 737:modem.c       ****     at_write_command("AT$GPSP=0\r","OK",DEFAULT_AT_TIMEOUT);
 738:modem.c       ****     
ARM GAS  C:\Users\hail\AppData\Local\Temp\ccotwkx9.s 			page 58


 739:modem.c       ****     */
 740:modem.c       **** 
 741:modem.c       ****     // Calculate time to lock into GPS location and save in variable lock_time
 742:modem.c       ****     lock_time = getTimeStamp() - lock_time;
 2313              		.loc 1 742 0
 2314 01f0 FFF7FEFF 		bl	getTimeStamp
 2315 01f4 0246     		mov	r2, r0
 2316 01f6 3B6B     		ldr	r3, [r7, #48]
 2317 01f8 D31A     		subs	r3, r2, r3
 2318 01fa 3B63     		str	r3, [r7, #48]
 743:modem.c       ****     gps.time_to_lock = lock_time;
 2319              		.loc 1 743 0
 2320 01fc 3B6B     		ldr	r3, [r7, #48]
 2321 01fe 9BB2     		uxth	r3, r3
 2322 0200 3B84     		strh	r3, [r7, #32]	@ movhi
 744:modem.c       ****     printNotif(NOTIF_TYPE_EVENT,"Time to lock GPS: %d", gps.time_to_lock);
 2323              		.loc 1 744 0
 2324 0202 3B8C     		ldrh	r3, [r7, #32]
 2325 0204 1A46     		mov	r2, r3
 2326 0206 1C49     		ldr	r1, .L132+84
 2327 0208 0020     		movs	r0, #0
 2328 020a FFF7FEFF 		bl	printNotif
 745:modem.c       ****     
 746:modem.c       ****     return gps;
 2329              		.loc 1 746 0
 2330 020e 7B68     		ldr	r3, [r7, #4]
 2331 0210 1C46     		mov	r4, r3
 2332 0212 07F11403 		add	r3, r7, #20
 2333 0216 0FCB     		ldmia	r3, {r0, r1, r2, r3}
 2334 0218 84E80F00 		stmia	r4, {r0, r1, r2, r3}
 2335              	.L122:
 747:modem.c       ****     
 748:modem.c       **** }
 2336              		.loc 1 748 0
 2337 021c 7868     		ldr	r0, [r7, #4]
 2338 021e 3837     		adds	r7, r7, #56
 2339              		.cfi_def_cfa_offset 16
 2340 0220 BD46     		mov	sp, r7
 2341              		.cfi_def_cfa_register 13
 2342              		@ sp needed
 2343 0222 B0BD     		pop	{r4, r5, r7, pc}
 2344              	.L133:
 2345              		.align	2
 2346              	.L132:
 2347 0224 00000000 		.word	modem_state
 2348 0228 00000000 		.word	.LC0
 2349 022c 50040000 		.word	.LC49
 2350 0230 64040000 		.word	.LC50
 2351 0234 74040000 		.word	.LC51
 2352 0238 80040000 		.word	.LC52
 2353 023c 90040000 		.word	.LC53
 2354 0240 B4040000 		.word	.LC54
 2355 0244 C4040000 		.word	.LC55
 2356 0248 D8020000 		.word	.LC26
 2357 024c D4040000 		.word	.LC56
 2358 0250 EC040000 		.word	.LC57
 2359 0254 F0040000 		.word	.LC58
ARM GAS  C:\Users\hail\AppData\Local\Temp\ccotwkx9.s 			page 59


 2360 0258 FC040000 		.word	.LC59
 2361 025c 00000000 		.word	uart_received_string
 2362 0260 08050000 		.word	.LC60
 2363 0264 0000C842 		.word	1120403456
 2364 0268 00005940 		.word	1079574528
 2365 026c 00004E40 		.word	1078853632
 2366 0270 28050000 		.word	.LC61
 2367 0274 3C050000 		.word	.LC62
 2368 0278 48050000 		.word	.LC63
 2369              		.cfi_endproc
 2370              	.LFE85:
 2371              		.size	modem_get_gps_coordinates, .-modem_get_gps_coordinates
 2372              		.text
 2373              	.Letext0:
 2374              		.file 2 "c:\\program files (x86)\\cypress\\psoc creator\\4.1\\psoc creator\\import\\gnu\\arm\\5.4.
 2375              		.file 3 "c:\\program files (x86)\\cypress\\psoc creator\\4.1\\psoc creator\\import\\gnu\\arm\\5.4.
 2376              		.file 4 "Generated_Source\\PSoC5/cytypes.h"
 2377              		.file 5 "c:\\program files (x86)\\cypress\\psoc creator\\4.1\\psoc creator\\import\\gnu\\arm\\5.4.
 2378              		.file 6 "testing.h"
 2379              		.file 7 "modem.h"
 2380              		.file 8 "data.h"
 2381              		.file 9 "notoriOS.h"
 2382              		.file 10 "Generated_Source\\PSoC5/core_cm3.h"
 2383              		.section	.debug_info,"",%progbits
 2384              	.Ldebug_info0:
 2385 0000 EF090000 		.4byte	0x9ef
 2386 0004 0400     		.2byte	0x4
 2387 0006 00000000 		.4byte	.Ldebug_abbrev0
 2388 000a 04       		.byte	0x4
 2389 000b 01       		.uleb128 0x1
 2390 000c 3C000000 		.4byte	.LASF130
 2391 0010 0C       		.byte	0xc
 2392 0011 14030000 		.4byte	.LASF131
 2393 0015 9A040000 		.4byte	.LASF132
 2394 0019 00000000 		.4byte	.Ldebug_ranges0+0
 2395 001d 00000000 		.4byte	0
 2396 0021 00000000 		.4byte	.Ldebug_line0
 2397 0025 02       		.uleb128 0x2
 2398 0026 01       		.byte	0x1
 2399 0027 06       		.byte	0x6
 2400 0028 26010000 		.4byte	.LASF0
 2401 002c 03       		.uleb128 0x3
 2402 002d 28000000 		.4byte	.LASF4
 2403 0031 02       		.byte	0x2
 2404 0032 1D       		.byte	0x1d
 2405 0033 37000000 		.4byte	0x37
 2406 0037 02       		.uleb128 0x2
 2407 0038 01       		.byte	0x1
 2408 0039 08       		.byte	0x8
 2409 003a 76040000 		.4byte	.LASF1
 2410 003e 02       		.uleb128 0x2
 2411 003f 02       		.byte	0x2
 2412 0040 05       		.byte	0x5
 2413 0041 4C030000 		.4byte	.LASF2
 2414 0045 02       		.uleb128 0x2
 2415 0046 02       		.byte	0x2
 2416 0047 07       		.byte	0x7
ARM GAS  C:\Users\hail\AppData\Local\Temp\ccotwkx9.s 			page 60


 2417 0048 DE010000 		.4byte	.LASF3
 2418 004c 03       		.uleb128 0x3
 2419 004d 61030000 		.4byte	.LASF5
 2420 0051 02       		.byte	0x2
 2421 0052 3F       		.byte	0x3f
 2422 0053 57000000 		.4byte	0x57
 2423 0057 02       		.uleb128 0x2
 2424 0058 04       		.byte	0x4
 2425 0059 05       		.byte	0x5
 2426 005a 7B010000 		.4byte	.LASF6
 2427 005e 03       		.uleb128 0x3
 2428 005f 01020000 		.4byte	.LASF7
 2429 0063 02       		.byte	0x2
 2430 0064 41       		.byte	0x41
 2431 0065 69000000 		.4byte	0x69
 2432 0069 02       		.uleb128 0x2
 2433 006a 04       		.byte	0x4
 2434 006b 07       		.byte	0x7
 2435 006c 78020000 		.4byte	.LASF8
 2436 0070 02       		.uleb128 0x2
 2437 0071 08       		.byte	0x8
 2438 0072 05       		.byte	0x5
 2439 0073 18010000 		.4byte	.LASF9
 2440 0077 02       		.uleb128 0x2
 2441 0078 08       		.byte	0x8
 2442 0079 07       		.byte	0x7
 2443 007a D7000000 		.4byte	.LASF10
 2444 007e 04       		.uleb128 0x4
 2445 007f 04       		.byte	0x4
 2446 0080 05       		.byte	0x5
 2447 0081 696E7400 		.ascii	"int\000"
 2448 0085 02       		.uleb128 0x2
 2449 0086 04       		.byte	0x4
 2450 0087 07       		.byte	0x7
 2451 0088 6D050000 		.4byte	.LASF11
 2452 008c 03       		.uleb128 0x3
 2453 008d 5B060000 		.4byte	.LASF12
 2454 0091 03       		.byte	0x3
 2455 0092 18       		.byte	0x18
 2456 0093 2C000000 		.4byte	0x2c
 2457 0097 03       		.uleb128 0x3
 2458 0098 6E040000 		.4byte	.LASF13
 2459 009c 03       		.byte	0x3
 2460 009d 2C       		.byte	0x2c
 2461 009e 4C000000 		.4byte	0x4c
 2462 00a2 03       		.uleb128 0x3
 2463 00a3 35060000 		.4byte	.LASF14
 2464 00a7 03       		.byte	0x3
 2465 00a8 30       		.byte	0x30
 2466 00a9 5E000000 		.4byte	0x5e
 2467 00ad 05       		.uleb128 0x5
 2468 00ae 9D010000 		.4byte	.LASF15
 2469 00b2 04       		.byte	0x4
 2470 00b3 9201     		.2byte	0x192
 2471 00b5 37000000 		.4byte	0x37
 2472 00b9 05       		.uleb128 0x5
 2473 00ba 0B000000 		.4byte	.LASF16
ARM GAS  C:\Users\hail\AppData\Local\Temp\ccotwkx9.s 			page 61


 2474 00be 04       		.byte	0x4
 2475 00bf 9301     		.2byte	0x193
 2476 00c1 45000000 		.4byte	0x45
 2477 00c5 05       		.uleb128 0x5
 2478 00c6 F1010000 		.4byte	.LASF17
 2479 00ca 04       		.byte	0x4
 2480 00cb 9401     		.2byte	0x194
 2481 00cd 69000000 		.4byte	0x69
 2482 00d1 05       		.uleb128 0x5
 2483 00d2 B2010000 		.4byte	.LASF18
 2484 00d6 04       		.byte	0x4
 2485 00d7 9701     		.2byte	0x197
 2486 00d9 57000000 		.4byte	0x57
 2487 00dd 02       		.uleb128 0x2
 2488 00de 04       		.byte	0x4
 2489 00df 04       		.byte	0x4
 2490 00e0 4D040000 		.4byte	.LASF19
 2491 00e4 02       		.uleb128 0x2
 2492 00e5 08       		.byte	0x8
 2493 00e6 04       		.byte	0x4
 2494 00e7 AB010000 		.4byte	.LASF20
 2495 00eb 02       		.uleb128 0x2
 2496 00ec 01       		.byte	0x1
 2497 00ed 08       		.byte	0x8
 2498 00ee 54050000 		.4byte	.LASF21
 2499 00f2 02       		.uleb128 0x2
 2500 00f3 08       		.byte	0x8
 2501 00f4 04       		.byte	0x4
 2502 00f5 48050000 		.4byte	.LASF22
 2503 00f9 02       		.uleb128 0x2
 2504 00fa 04       		.byte	0x4
 2505 00fb 07       		.byte	0x7
 2506 00fc CF030000 		.4byte	.LASF23
 2507 0100 06       		.uleb128 0x6
 2508 0101 04       		.byte	0x4
 2509 0102 EB000000 		.4byte	0xeb
 2510 0106 06       		.uleb128 0x6
 2511 0107 04       		.byte	0x4
 2512 0108 0C010000 		.4byte	0x10c
 2513 010c 07       		.uleb128 0x7
 2514 010d EB000000 		.4byte	0xeb
 2515 0111 08       		.uleb128 0x8
 2516 0112 EB000000 		.4byte	0xeb
 2517 0116 21010000 		.4byte	0x121
 2518 011a 09       		.uleb128 0x9
 2519 011b F9000000 		.4byte	0xf9
 2520 011f 17       		.byte	0x17
 2521 0120 00       		.byte	0
 2522 0121 0A       		.uleb128 0xa
 2523 0122 746D00   		.ascii	"tm\000"
 2524 0125 24       		.byte	0x24
 2525 0126 05       		.byte	0x5
 2526 0127 21       		.byte	0x21
 2527 0128 99010000 		.4byte	0x199
 2528 012c 0B       		.uleb128 0xb
 2529 012d 3E060000 		.4byte	.LASF24
 2530 0131 05       		.byte	0x5
ARM GAS  C:\Users\hail\AppData\Local\Temp\ccotwkx9.s 			page 62


 2531 0132 23       		.byte	0x23
 2532 0133 7E000000 		.4byte	0x7e
 2533 0137 00       		.byte	0
 2534 0138 0B       		.uleb128 0xb
 2535 0139 C8030000 		.4byte	.LASF25
 2536 013d 05       		.byte	0x5
 2537 013e 24       		.byte	0x24
 2538 013f 7E000000 		.4byte	0x7e
 2539 0143 04       		.byte	0x4
 2540 0144 0B       		.uleb128 0xb
 2541 0145 18000000 		.4byte	.LASF26
 2542 0149 05       		.byte	0x5
 2543 014a 25       		.byte	0x25
 2544 014b 7E000000 		.4byte	0x7e
 2545 014f 08       		.byte	0x8
 2546 0150 0B       		.uleb128 0xb
 2547 0151 20060000 		.4byte	.LASF27
 2548 0155 05       		.byte	0x5
 2549 0156 26       		.byte	0x26
 2550 0157 7E000000 		.4byte	0x7e
 2551 015b 0C       		.byte	0xc
 2552 015c 0B       		.uleb128 0xb
 2553 015d 23020000 		.4byte	.LASF28
 2554 0161 05       		.byte	0x5
 2555 0162 27       		.byte	0x27
 2556 0163 7E000000 		.4byte	0x7e
 2557 0167 10       		.byte	0x10
 2558 0168 0B       		.uleb128 0xb
 2559 0169 3E020000 		.4byte	.LASF29
 2560 016d 05       		.byte	0x5
 2561 016e 28       		.byte	0x28
 2562 016f 7E000000 		.4byte	0x7e
 2563 0173 14       		.byte	0x14
 2564 0174 0B       		.uleb128 0xb
 2565 0175 29050000 		.4byte	.LASF30
 2566 0179 05       		.byte	0x5
 2567 017a 29       		.byte	0x29
 2568 017b 7E000000 		.4byte	0x7e
 2569 017f 18       		.byte	0x18
 2570 0180 0B       		.uleb128 0xb
 2571 0181 20000000 		.4byte	.LASF31
 2572 0185 05       		.byte	0x5
 2573 0186 2A       		.byte	0x2a
 2574 0187 7E000000 		.4byte	0x7e
 2575 018b 1C       		.byte	0x1c
 2576 018c 0B       		.uleb128 0xb
 2577 018d E9020000 		.4byte	.LASF32
 2578 0191 05       		.byte	0x5
 2579 0192 2B       		.byte	0x2b
 2580 0193 7E000000 		.4byte	0x7e
 2581 0197 20       		.byte	0x20
 2582 0198 00       		.byte	0
 2583 0199 0C       		.uleb128 0xc
 2584 019a 8101     		.2byte	0x181
 2585 019c 06       		.byte	0x6
 2586 019d 0A       		.byte	0xa
 2587 019e C7010000 		.4byte	0x1c7
ARM GAS  C:\Users\hail\AppData\Local\Temp\ccotwkx9.s 			page 63


 2588 01a2 0B       		.uleb128 0xb
 2589 01a3 13040000 		.4byte	.LASF33
 2590 01a7 06       		.byte	0x6
 2591 01a8 0C       		.byte	0xc
 2592 01a9 C7010000 		.4byte	0x1c7
 2593 01ad 00       		.byte	0
 2594 01ae 0B       		.uleb128 0xb
 2595 01af 45060000 		.4byte	.LASF34
 2596 01b3 06       		.byte	0x6
 2597 01b4 0D       		.byte	0xd
 2598 01b5 AD000000 		.4byte	0xad
 2599 01b9 80       		.byte	0x80
 2600 01ba 0B       		.uleb128 0xb
 2601 01bb 02050000 		.4byte	.LASF35
 2602 01bf 06       		.byte	0x6
 2603 01c0 0F       		.byte	0xf
 2604 01c1 D7010000 		.4byte	0x1d7
 2605 01c5 81       		.byte	0x81
 2606 01c6 00       		.byte	0
 2607 01c7 08       		.uleb128 0x8
 2608 01c8 EB000000 		.4byte	0xeb
 2609 01cc D7010000 		.4byte	0x1d7
 2610 01d0 09       		.uleb128 0x9
 2611 01d1 F9000000 		.4byte	0xf9
 2612 01d5 7F       		.byte	0x7f
 2613 01d6 00       		.byte	0
 2614 01d7 08       		.uleb128 0x8
 2615 01d8 EB000000 		.4byte	0xeb
 2616 01dc E7010000 		.4byte	0x1e7
 2617 01e0 09       		.uleb128 0x9
 2618 01e1 F9000000 		.4byte	0xf9
 2619 01e5 FF       		.byte	0xff
 2620 01e6 00       		.byte	0
 2621 01e7 03       		.uleb128 0x3
 2622 01e8 EA040000 		.4byte	.LASF36
 2623 01ec 06       		.byte	0x6
 2624 01ed 10       		.byte	0x10
 2625 01ee 99010000 		.4byte	0x199
 2626 01f2 0D       		.uleb128 0xd
 2627 01f3 3C       		.byte	0x3c
 2628 01f4 07       		.byte	0x7
 2629 01f5 2C       		.byte	0x2c
 2630 01f6 1F020000 		.4byte	0x21f
 2631 01fa 0B       		.uleb128 0xb
 2632 01fb 0B060000 		.4byte	.LASF37
 2633 01ff 07       		.byte	0x7
 2634 0200 2D       		.byte	0x2d
 2635 0201 1F020000 		.4byte	0x21f
 2636 0205 00       		.byte	0
 2637 0206 0B       		.uleb128 0xb
 2638 0207 7F050000 		.4byte	.LASF38
 2639 020b 07       		.byte	0x7
 2640 020c 2E       		.byte	0x2e
 2641 020d 1F020000 		.4byte	0x21f
 2642 0211 14       		.byte	0x14
 2643 0212 0B       		.uleb128 0xb
 2644 0213 FD040000 		.4byte	.LASF39
ARM GAS  C:\Users\hail\AppData\Local\Temp\ccotwkx9.s 			page 64


 2645 0217 07       		.byte	0x7
 2646 0218 2F       		.byte	0x2f
 2647 0219 1F020000 		.4byte	0x21f
 2648 021d 28       		.byte	0x28
 2649 021e 00       		.byte	0
 2650 021f 08       		.uleb128 0x8
 2651 0220 EB000000 		.4byte	0xeb
 2652 0224 2F020000 		.4byte	0x22f
 2653 0228 09       		.uleb128 0x9
 2654 0229 F9000000 		.4byte	0xf9
 2655 022d 13       		.byte	0x13
 2656 022e 00       		.byte	0
 2657 022f 03       		.uleb128 0x3
 2658 0230 93050000 		.4byte	.LASF40
 2659 0234 07       		.byte	0x7
 2660 0235 30       		.byte	0x30
 2661 0236 F2010000 		.4byte	0x1f2
 2662 023a 0D       		.uleb128 0xd
 2663 023b 0C       		.byte	0xc
 2664 023c 07       		.byte	0x7
 2665 023d 32       		.byte	0x32
 2666 023e 72020000 		.4byte	0x272
 2667 0242 0B       		.uleb128 0xb
 2668 0243 9D060000 		.4byte	.LASF41
 2669 0247 07       		.byte	0x7
 2670 0248 33       		.byte	0x33
 2671 0249 AD000000 		.4byte	0xad
 2672 024d 00       		.byte	0
 2673 024e 0E       		.uleb128 0xe
 2674 024f 737100   		.ascii	"sq\000"
 2675 0252 07       		.byte	0x7
 2676 0253 34       		.byte	0x34
 2677 0254 AD000000 		.4byte	0xad
 2678 0258 01       		.byte	0x1
 2679 0259 0B       		.uleb128 0xb
 2680 025a 32010000 		.4byte	.LASF42
 2681 025e 07       		.byte	0x7
 2682 025f 35       		.byte	0x35
 2683 0260 7E000000 		.4byte	0x7e
 2684 0264 04       		.byte	0x4
 2685 0265 0B       		.uleb128 0xb
 2686 0266 2F030000 		.4byte	.LASF43
 2687 026a 07       		.byte	0x7
 2688 026b 36       		.byte	0x36
 2689 026c 7E000000 		.4byte	0x7e
 2690 0270 08       		.byte	0x8
 2691 0271 00       		.byte	0
 2692 0272 03       		.uleb128 0x3
 2693 0273 09050000 		.4byte	.LASF44
 2694 0277 07       		.byte	0x7
 2695 0278 37       		.byte	0x37
 2696 0279 3A020000 		.4byte	0x23a
 2697 027d 0D       		.uleb128 0xd
 2698 027e 10       		.byte	0x10
 2699 027f 07       		.byte	0x7
 2700 0280 39       		.byte	0x39
 2701 0281 C2020000 		.4byte	0x2c2
ARM GAS  C:\Users\hail\AppData\Local\Temp\ccotwkx9.s 			page 65


 2702 0285 0B       		.uleb128 0xb
 2703 0286 0A040000 		.4byte	.LASF45
 2704 028a 07       		.byte	0x7
 2705 028b 3A       		.byte	0x3a
 2706 028c DD000000 		.4byte	0xdd
 2707 0290 00       		.byte	0
 2708 0291 0B       		.uleb128 0xb
 2709 0292 32000000 		.4byte	.LASF46
 2710 0296 07       		.byte	0x7
 2711 0297 3B       		.byte	0x3b
 2712 0298 DD000000 		.4byte	0xdd
 2713 029c 04       		.byte	0x4
 2714 029d 0B       		.uleb128 0xb
 2715 029e 94010000 		.4byte	.LASF47
 2716 02a2 07       		.byte	0x7
 2717 02a3 3C       		.byte	0x3c
 2718 02a4 DD000000 		.4byte	0xdd
 2719 02a8 08       		.byte	0x8
 2720 02a9 0B       		.uleb128 0xb
 2721 02aa C7020000 		.4byte	.LASF48
 2722 02ae 07       		.byte	0x7
 2723 02af 3D       		.byte	0x3d
 2724 02b0 B9000000 		.4byte	0xb9
 2725 02b4 0C       		.byte	0xc
 2726 02b5 0B       		.uleb128 0xb
 2727 02b6 28060000 		.4byte	.LASF49
 2728 02ba 07       		.byte	0x7
 2729 02bb 3E       		.byte	0x3e
 2730 02bc AD000000 		.4byte	0xad
 2731 02c0 0E       		.byte	0xe
 2732 02c1 00       		.byte	0
 2733 02c2 03       		.uleb128 0x3
 2734 02c3 A0050000 		.4byte	.LASF50
 2735 02c7 07       		.byte	0x7
 2736 02c8 40       		.byte	0x40
 2737 02c9 7D020000 		.4byte	0x27d
 2738 02cd 0D       		.uleb128 0xd
 2739 02ce 2C       		.byte	0x2c
 2740 02cf 08       		.byte	0x8
 2741 02d0 0F       		.byte	0xf
 2742 02d1 FA020000 		.4byte	0x2fa
 2743 02d5 0E       		.uleb128 0xe
 2744 02d6 6B657900 		.ascii	"key\000"
 2745 02da 08       		.byte	0x8
 2746 02db 10       		.byte	0x10
 2747 02dc 1F020000 		.4byte	0x21f
 2748 02e0 00       		.byte	0
 2749 02e1 0B       		.uleb128 0xb
 2750 02e2 12000000 		.4byte	.LASF51
 2751 02e6 08       		.byte	0x8
 2752 02e7 11       		.byte	0x11
 2753 02e8 1F020000 		.4byte	0x21f
 2754 02ec 14       		.byte	0x14
 2755 02ed 0B       		.uleb128 0xb
 2756 02ee CA060000 		.4byte	.LASF52
 2757 02f2 08       		.byte	0x8
 2758 02f3 12       		.byte	0x12
ARM GAS  C:\Users\hail\AppData\Local\Temp\ccotwkx9.s 			page 66


 2759 02f4 D1000000 		.4byte	0xd1
 2760 02f8 28       		.byte	0x28
 2761 02f9 00       		.byte	0
 2762 02fa 03       		.uleb128 0x3
 2763 02fb 62020000 		.4byte	.LASF53
 2764 02ff 08       		.byte	0x8
 2765 0300 13       		.byte	0x13
 2766 0301 CD020000 		.4byte	0x2cd
 2767 0305 0D       		.uleb128 0xd
 2768 0306 1C       		.byte	0x1c
 2769 0307 09       		.byte	0x9
 2770 0308 37       		.byte	0x37
 2771 0309 26030000 		.4byte	0x326
 2772 030d 0B       		.uleb128 0xb
 2773 030e F2020000 		.4byte	.LASF54
 2774 0312 09       		.byte	0x9
 2775 0313 39       		.byte	0x39
 2776 0314 26030000 		.4byte	0x326
 2777 0318 00       		.byte	0
 2778 0319 0B       		.uleb128 0xb
 2779 031a 12060000 		.4byte	.LASF55
 2780 031e 09       		.byte	0x9
 2781 031f 3A       		.byte	0x3a
 2782 0320 11010000 		.4byte	0x111
 2783 0324 04       		.byte	0x4
 2784 0325 00       		.byte	0
 2785 0326 06       		.uleb128 0x6
 2786 0327 04       		.byte	0x4
 2787 0328 2F020000 		.4byte	0x22f
 2788 032c 03       		.uleb128 0x3
 2789 032d 91030000 		.4byte	.LASF56
 2790 0331 09       		.byte	0x9
 2791 0332 3C       		.byte	0x3c
 2792 0333 05030000 		.4byte	0x305
 2793 0337 0C       		.uleb128 0xc
 2794 0338 4401     		.2byte	0x144
 2795 033a 09       		.byte	0x9
 2796 033b 42       		.byte	0x42
 2797 033c 8A030000 		.4byte	0x38a
 2798 0340 0B       		.uleb128 0xb
 2799 0341 A3010000 		.4byte	.LASF57
 2800 0345 09       		.byte	0x9
 2801 0346 45       		.byte	0x45
 2802 0347 1F020000 		.4byte	0x21f
 2803 034b 00       		.byte	0
 2804 034c 0B       		.uleb128 0xb
 2805 034d FD020000 		.4byte	.LASF58
 2806 0351 09       		.byte	0x9
 2807 0352 47       		.byte	0x47
 2808 0353 8A030000 		.4byte	0x38a
 2809 0357 14       		.byte	0x14
 2810 0358 0B       		.uleb128 0xb
 2811 0359 E1020000 		.4byte	.LASF59
 2812 035d 09       		.byte	0x9
 2813 035e 48       		.byte	0x48
 2814 035f 7E000000 		.4byte	0x7e
 2815 0363 78       		.byte	0x78
ARM GAS  C:\Users\hail\AppData\Local\Temp\ccotwkx9.s 			page 67


 2816 0364 0B       		.uleb128 0xb
 2817 0365 D9020000 		.4byte	.LASF60
 2818 0369 09       		.byte	0x9
 2819 036a 49       		.byte	0x49
 2820 036b 9A030000 		.4byte	0x39a
 2821 036f 7C       		.byte	0x7c
 2822 0370 0B       		.uleb128 0xb
 2823 0371 2A020000 		.4byte	.LASF61
 2824 0375 09       		.byte	0x9
 2825 0376 4A       		.byte	0x4a
 2826 0377 8A030000 		.4byte	0x38a
 2827 037b AE       		.byte	0xae
 2828 037c 0F       		.uleb128 0xf
 2829 037d 63060000 		.4byte	.LASF62
 2830 0381 09       		.byte	0x9
 2831 0382 4B       		.byte	0x4b
 2832 0383 9A030000 		.4byte	0x39a
 2833 0387 1201     		.2byte	0x112
 2834 0389 00       		.byte	0
 2835 038a 08       		.uleb128 0x8
 2836 038b EB000000 		.4byte	0xeb
 2837 038f 9A030000 		.4byte	0x39a
 2838 0393 09       		.uleb128 0x9
 2839 0394 F9000000 		.4byte	0xf9
 2840 0398 63       		.byte	0x63
 2841 0399 00       		.byte	0
 2842 039a 08       		.uleb128 0x8
 2843 039b EB000000 		.4byte	0xeb
 2844 039f AA030000 		.4byte	0x3aa
 2845 03a3 09       		.uleb128 0x9
 2846 03a4 F9000000 		.4byte	0xf9
 2847 03a8 31       		.byte	0x31
 2848 03a9 00       		.byte	0
 2849 03aa 03       		.uleb128 0x3
 2850 03ab 4C060000 		.4byte	.LASF63
 2851 03af 09       		.byte	0x9
 2852 03b0 4E       		.byte	0x4e
 2853 03b1 37030000 		.4byte	0x337
 2854 03b5 10       		.uleb128 0x10
 2855 03b6 61040000 		.4byte	.LASF92
 2856 03ba 01       		.byte	0x1
 2857 03bb 15       		.byte	0x15
 2858 03bc 00000000 		.4byte	.LFB64
 2859 03c0 3C000000 		.4byte	.LFE64-.LFB64
 2860 03c4 01       		.uleb128 0x1
 2861 03c5 9C       		.byte	0x9c
 2862 03c6 11       		.uleb128 0x11
 2863 03c7 99020000 		.4byte	.LASF64
 2864 03cb 01       		.byte	0x1
 2865 03cc 1F       		.byte	0x1f
 2866 03cd 00000000 		.4byte	.LFB65
 2867 03d1 54000000 		.4byte	.LFE65-.LFB65
 2868 03d5 01       		.uleb128 0x1
 2869 03d6 9C       		.byte	0x9c
 2870 03d7 11       		.uleb128 0x11
 2871 03d8 F3050000 		.4byte	.LASF65
 2872 03dc 01       		.byte	0x1
ARM GAS  C:\Users\hail\AppData\Local\Temp\ccotwkx9.s 			page 68


 2873 03dd 35       		.byte	0x35
 2874 03de 00000000 		.4byte	.LFB66
 2875 03e2 32000000 		.4byte	.LFE66-.LFB66
 2876 03e6 01       		.uleb128 0x1
 2877 03e7 9C       		.byte	0x9c
 2878 03e8 11       		.uleb128 0x11
 2879 03e9 4C020000 		.4byte	.LASF66
 2880 03ed 01       		.byte	0x1
 2881 03ee 45       		.byte	0x45
 2882 03ef 00000000 		.4byte	.LFB67
 2883 03f3 20000000 		.4byte	.LFE67-.LFB67
 2884 03f7 01       		.uleb128 0x1
 2885 03f8 9C       		.byte	0x9c
 2886 03f9 11       		.uleb128 0x11
 2887 03fa B9060000 		.4byte	.LASF67
 2888 03fe 01       		.byte	0x1
 2889 03ff 4E       		.byte	0x4e
 2890 0400 00000000 		.4byte	.LFB68
 2891 0404 40000000 		.4byte	.LFE68-.LFB68
 2892 0408 01       		.uleb128 0x1
 2893 0409 9C       		.byte	0x9c
 2894 040a 12       		.uleb128 0x12
 2895 040b 05030000 		.4byte	.LASF82
 2896 040f 01       		.byte	0x1
 2897 0410 60       		.byte	0x60
 2898 0411 AD000000 		.4byte	0xad
 2899 0415 00000000 		.4byte	.LFB69
 2900 0419 DC000000 		.4byte	.LFE69-.LFB69
 2901 041d 01       		.uleb128 0x1
 2902 041e 9C       		.byte	0x9c
 2903 041f 7E040000 		.4byte	0x47e
 2904 0423 13       		.uleb128 0x13
 2905 0424 6F060000 		.4byte	.LASF68
 2906 0428 01       		.byte	0x1
 2907 0429 69       		.byte	0x69
 2908 042a AD000000 		.4byte	0xad
 2909 042e 02       		.uleb128 0x2
 2910 042f 91       		.byte	0x91
 2911 0430 77       		.sleb128 -9
 2912 0431 13       		.uleb128 0x13
 2913 0432 59040000 		.4byte	.LASF69
 2914 0436 01       		.byte	0x1
 2915 0437 6A       		.byte	0x6a
 2916 0438 AD000000 		.4byte	0xad
 2917 043c 02       		.uleb128 0x2
 2918 043d 91       		.byte	0x91
 2919 043e 74       		.sleb128 -12
 2920 043f 13       		.uleb128 0x13
 2921 0440 81060000 		.4byte	.LASF70
 2922 0444 01       		.byte	0x1
 2923 0445 6C       		.byte	0x6c
 2924 0446 57000000 		.4byte	0x57
 2925 044a 02       		.uleb128 0x2
 2926 044b 91       		.byte	0x91
 2927 044c 70       		.sleb128 -16
 2928 044d 14       		.uleb128 0x14
 2929 044e 26000000 		.4byte	.LBB2
ARM GAS  C:\Users\hail\AppData\Local\Temp\ccotwkx9.s 			page 69


 2930 0452 4A000000 		.4byte	.LBE2-.LBB2
 2931 0456 13       		.uleb128 0x13
 2932 0457 78060000 		.4byte	.LASF71
 2933 045b 01       		.byte	0x1
 2934 045c 6F       		.byte	0x6f
 2935 045d AD000000 		.4byte	0xad
 2936 0461 02       		.uleb128 0x2
 2937 0462 91       		.byte	0x91
 2938 0463 76       		.sleb128 -10
 2939 0464 14       		.uleb128 0x14
 2940 0465 2C000000 		.4byte	.LBB3
 2941 0469 2A000000 		.4byte	.LBE3-.LBB3
 2942 046d 13       		.uleb128 0x13
 2943 046e 6E020000 		.4byte	.LASF72
 2944 0472 01       		.byte	0x1
 2945 0473 71       		.byte	0x71
 2946 0474 AD000000 		.4byte	0xad
 2947 0478 02       		.uleb128 0x2
 2948 0479 91       		.byte	0x91
 2949 047a 75       		.sleb128 -11
 2950 047b 00       		.byte	0
 2951 047c 00       		.byte	0
 2952 047d 00       		.byte	0
 2953 047e 11       		.uleb128 0x11
 2954 047f 31050000 		.4byte	.LASF73
 2955 0483 01       		.byte	0x1
 2956 0484 92       		.byte	0x92
 2957 0485 00000000 		.4byte	.LFB70
 2958 0489 1C000000 		.4byte	.LFE70-.LFB70
 2959 048d 01       		.uleb128 0x1
 2960 048e 9C       		.byte	0x9c
 2961 048f 11       		.uleb128 0x11
 2962 0490 17050000 		.4byte	.LASF74
 2963 0494 01       		.byte	0x1
 2964 0495 9A       		.byte	0x9a
 2965 0496 00000000 		.4byte	.LFB71
 2966 049a 28000000 		.4byte	.LFE71-.LFB71
 2967 049e 01       		.uleb128 0x1
 2968 049f 9C       		.byte	0x9c
 2969 04a0 15       		.uleb128 0x15
 2970 04a1 80030000 		.4byte	.LASF86
 2971 04a5 01       		.byte	0x1
 2972 04a6 A5       		.byte	0xa5
 2973 04a7 8C000000 		.4byte	0x8c
 2974 04ab 00000000 		.4byte	.LFB72
 2975 04af C8000000 		.4byte	.LFE72-.LFB72
 2976 04b3 01       		.uleb128 0x1
 2977 04b4 9C       		.byte	0x9c
 2978 04b5 32050000 		.4byte	0x532
 2979 04b9 16       		.uleb128 0x16
 2980 04ba 33040000 		.4byte	.LASF75
 2981 04be 01       		.byte	0x1
 2982 04bf A5       		.byte	0xa5
 2983 04c0 00010000 		.4byte	0x100
 2984 04c4 02       		.uleb128 0x2
 2985 04c5 91       		.byte	0x91
 2986 04c6 5C       		.sleb128 -36
ARM GAS  C:\Users\hail\AppData\Local\Temp\ccotwkx9.s 			page 70


 2987 04c7 16       		.uleb128 0x16
 2988 04c8 8B060000 		.4byte	.LASF76
 2989 04cc 01       		.byte	0x1
 2990 04cd A5       		.byte	0xa5
 2991 04ce 00010000 		.4byte	0x100
 2992 04d2 02       		.uleb128 0x2
 2993 04d3 91       		.byte	0x91
 2994 04d4 58       		.sleb128 -40
 2995 04d5 16       		.uleb128 0x16
 2996 04d6 A8020000 		.4byte	.LASF77
 2997 04da 01       		.byte	0x1
 2998 04db A5       		.byte	0xa5
 2999 04dc A2000000 		.4byte	0xa2
 3000 04e0 02       		.uleb128 0x2
 3001 04e1 91       		.byte	0x91
 3002 04e2 54       		.sleb128 -44
 3003 04e3 13       		.uleb128 0x13
 3004 04e4 75030000 		.4byte	.LASF78
 3005 04e8 01       		.byte	0x1
 3006 04e9 A7       		.byte	0xa7
 3007 04ea C5000000 		.4byte	0xc5
 3008 04ee 02       		.uleb128 0x2
 3009 04ef 91       		.byte	0x91
 3010 04f0 74       		.sleb128 -12
 3011 04f1 14       		.uleb128 0x14
 3012 04f2 16000000 		.4byte	.LBB4
 3013 04f6 88000000 		.4byte	.LBE4-.LBB4
 3014 04fa 13       		.uleb128 0x13
 3015 04fb 3C040000 		.4byte	.LASF79
 3016 04ff 01       		.byte	0x1
 3017 0500 AB       		.byte	0xab
 3018 0501 00010000 		.4byte	0x100
 3019 0505 02       		.uleb128 0x2
 3020 0506 91       		.byte	0x91
 3021 0507 64       		.sleb128 -28
 3022 0508 13       		.uleb128 0x13
 3023 0509 94040000 		.4byte	.LASF80
 3024 050d 01       		.byte	0x1
 3025 050e AC       		.byte	0xac
 3026 050f A2000000 		.4byte	0xa2
 3027 0513 02       		.uleb128 0x2
 3028 0514 91       		.byte	0x91
 3029 0515 6C       		.sleb128 -20
 3030 0516 17       		.uleb128 0x17
 3031 0517 6900     		.ascii	"i\000"
 3032 0519 01       		.byte	0x1
 3033 051a AD       		.byte	0xad
 3034 051b A2000000 		.4byte	0xa2
 3035 051f 02       		.uleb128 0x2
 3036 0520 91       		.byte	0x91
 3037 0521 70       		.sleb128 -16
 3038 0522 13       		.uleb128 0x13
 3039 0523 F8010000 		.4byte	.LASF81
 3040 0527 01       		.byte	0x1
 3041 0528 AD       		.byte	0xad
 3042 0529 A2000000 		.4byte	0xa2
 3043 052d 02       		.uleb128 0x2
ARM GAS  C:\Users\hail\AppData\Local\Temp\ccotwkx9.s 			page 71


 3044 052e 91       		.byte	0x91
 3045 052f 68       		.sleb128 -24
 3046 0530 00       		.byte	0
 3047 0531 00       		.byte	0
 3048 0532 12       		.uleb128 0x12
 3049 0533 1D040000 		.4byte	.LASF83
 3050 0537 01       		.byte	0x1
 3051 0538 D9       		.byte	0xd9
 3052 0539 E7010000 		.4byte	0x1e7
 3053 053d 00000000 		.4byte	.LFB73
 3054 0541 FC000000 		.4byte	.LFE73-.LFB73
 3055 0545 01       		.uleb128 0x1
 3056 0546 9C       		.byte	0x9c
 3057 0547 89050000 		.4byte	0x589
 3058 054b 13       		.uleb128 0x13
 3059 054c FA000000 		.4byte	.LASF84
 3060 0550 01       		.byte	0x1
 3061 0551 DB       		.byte	0xdb
 3062 0552 E7010000 		.4byte	0x1e7
 3063 0556 03       		.uleb128 0x3
 3064 0557 91       		.byte	0x91
 3065 0558 E47C     		.sleb128 -412
 3066 055a 14       		.uleb128 0x14
 3067 055b 4A000000 		.4byte	.LBB5
 3068 055f 84000000 		.4byte	.LBE5-.LBB5
 3069 0563 17       		.uleb128 0x17
 3070 0564 6900     		.ascii	"i\000"
 3071 0566 01       		.byte	0x1
 3072 0567 E2       		.byte	0xe2
 3073 0568 7E000000 		.4byte	0x7e
 3074 056c 02       		.uleb128 0x2
 3075 056d 91       		.byte	0x91
 3076 056e 6C       		.sleb128 -20
 3077 056f 14       		.uleb128 0x14
 3078 0570 70000000 		.4byte	.LBB6
 3079 0574 46000000 		.4byte	.LBE6-.LBB6
 3080 0578 13       		.uleb128 0x13
 3081 0579 D1010000 		.4byte	.LASF85
 3082 057d 01       		.byte	0x1
 3083 057e EF       		.byte	0xef
 3084 057f 57000000 		.4byte	0x57
 3085 0583 02       		.uleb128 0x2
 3086 0584 91       		.byte	0x91
 3087 0585 68       		.sleb128 -24
 3088 0586 00       		.byte	0
 3089 0587 00       		.byte	0
 3090 0588 00       		.byte	0
 3091 0589 18       		.uleb128 0x18
 3092 058a 8A020000 		.4byte	.LASF87
 3093 058e 01       		.byte	0x1
 3094 058f 0301     		.2byte	0x103
 3095 0591 AD000000 		.4byte	0xad
 3096 0595 00000000 		.4byte	.LFB74
 3097 0599 78000000 		.4byte	.LFE74-.LFB74
 3098 059d 01       		.uleb128 0x1
 3099 059e 9C       		.byte	0x9c
 3100 059f FA050000 		.4byte	0x5fa
ARM GAS  C:\Users\hail\AppData\Local\Temp\ccotwkx9.s 			page 72


 3101 05a3 19       		.uleb128 0x19
 3102 05a4 6B030000 		.4byte	.LASF88
 3103 05a8 01       		.byte	0x1
 3104 05a9 0301     		.2byte	0x103
 3105 05ab 00010000 		.4byte	0x100
 3106 05af 02       		.uleb128 0x2
 3107 05b0 91       		.byte	0x91
 3108 05b1 6C       		.sleb128 -20
 3109 05b2 19       		.uleb128 0x19
 3110 05b3 1C030000 		.4byte	.LASF89
 3111 05b7 01       		.byte	0x1
 3112 05b8 0301     		.2byte	0x103
 3113 05ba 06010000 		.4byte	0x106
 3114 05be 02       		.uleb128 0x2
 3115 05bf 91       		.byte	0x91
 3116 05c0 68       		.sleb128 -24
 3117 05c1 19       		.uleb128 0x19
 3118 05c2 42030000 		.4byte	.LASF90
 3119 05c6 01       		.byte	0x1
 3120 05c7 0301     		.2byte	0x103
 3121 05c9 06010000 		.4byte	0x106
 3122 05cd 02       		.uleb128 0x2
 3123 05ce 91       		.byte	0x91
 3124 05cf 64       		.sleb128 -28
 3125 05d0 19       		.uleb128 0x19
 3126 05d1 28030000 		.4byte	.LASF91
 3127 05d5 01       		.byte	0x1
 3128 05d6 0301     		.2byte	0x103
 3129 05d8 00010000 		.4byte	0x100
 3130 05dc 02       		.uleb128 0x2
 3131 05dd 91       		.byte	0x91
 3132 05de 60       		.sleb128 -32
 3133 05df 1A       		.uleb128 0x1a
 3134 05e0 6100     		.ascii	"a\000"
 3135 05e2 01       		.byte	0x1
 3136 05e3 0501     		.2byte	0x105
 3137 05e5 00010000 		.4byte	0x100
 3138 05e9 02       		.uleb128 0x2
 3139 05ea 91       		.byte	0x91
 3140 05eb 74       		.sleb128 -12
 3141 05ec 1A       		.uleb128 0x1a
 3142 05ed 6200     		.ascii	"b\000"
 3143 05ef 01       		.byte	0x1
 3144 05f0 0501     		.2byte	0x105
 3145 05f2 00010000 		.4byte	0x100
 3146 05f6 02       		.uleb128 0x2
 3147 05f7 91       		.byte	0x91
 3148 05f8 70       		.sleb128 -16
 3149 05f9 00       		.byte	0
 3150 05fa 1B       		.uleb128 0x1b
 3151 05fb 59050000 		.4byte	.LASF93
 3152 05ff 01       		.byte	0x1
 3153 0600 2201     		.2byte	0x122
 3154 0602 AD000000 		.4byte	0xad
 3155 0606 00000000 		.4byte	.LFB75
 3156 060a 08010000 		.4byte	.LFE75-.LFB75
 3157 060e 01       		.uleb128 0x1
ARM GAS  C:\Users\hail\AppData\Local\Temp\ccotwkx9.s 			page 73


 3158 060f 9C       		.byte	0x9c
 3159 0610 1C       		.uleb128 0x1c
 3160 0611 D8030000 		.4byte	.LASF94
 3161 0615 01       		.byte	0x1
 3162 0616 5D01     		.2byte	0x15d
 3163 0618 AD000000 		.4byte	0xad
 3164 061c 00000000 		.4byte	.LFB76
 3165 0620 A0000000 		.4byte	.LFE76-.LFB76
 3166 0624 01       		.uleb128 0x1
 3167 0625 9C       		.byte	0x9c
 3168 0626 53060000 		.4byte	0x653
 3169 062a 1D       		.uleb128 0x1d
 3170 062b 45060000 		.4byte	.LASF34
 3171 062f 01       		.byte	0x1
 3172 0630 6101     		.2byte	0x161
 3173 0632 AD000000 		.4byte	0xad
 3174 0636 02       		.uleb128 0x2
 3175 0637 91       		.byte	0x91
 3176 0638 77       		.sleb128 -9
 3177 0639 14       		.uleb128 0x14
 3178 063a 36000000 		.4byte	.LBB7
 3179 063e 34000000 		.4byte	.LBE7-.LBB7
 3180 0642 1D       		.uleb128 0x1d
 3181 0643 70030000 		.4byte	.LASF95
 3182 0647 01       		.byte	0x1
 3183 0648 6901     		.2byte	0x169
 3184 064a 53060000 		.4byte	0x653
 3185 064e 02       		.uleb128 0x2
 3186 064f 91       		.byte	0x91
 3187 0650 6C       		.sleb128 -20
 3188 0651 00       		.byte	0
 3189 0652 00       		.byte	0
 3190 0653 08       		.uleb128 0x8
 3191 0654 EB000000 		.4byte	0xeb
 3192 0658 63060000 		.4byte	0x663
 3193 065c 09       		.uleb128 0x9
 3194 065d F9000000 		.4byte	0xf9
 3195 0661 09       		.byte	0x9
 3196 0662 00       		.byte	0
 3197 0663 1E       		.uleb128 0x1e
 3198 0664 54010000 		.4byte	.LASF96
 3199 0668 01       		.byte	0x1
 3200 0669 7C01     		.2byte	0x17c
 3201 066b 00000000 		.4byte	.LFB77
 3202 066f 1C000000 		.4byte	.LFE77-.LFB77
 3203 0673 01       		.uleb128 0x1
 3204 0674 9C       		.byte	0x9c
 3205 0675 1B       		.uleb128 0x1b
 3206 0676 B8050000 		.4byte	.LASF97
 3207 067a 01       		.byte	0x1
 3208 067b 8C01     		.2byte	0x18c
 3209 067d AD000000 		.4byte	0xad
 3210 0681 00000000 		.4byte	.LFB78
 3211 0685 28000000 		.4byte	.LFE78-.LFB78
 3212 0689 01       		.uleb128 0x1
 3213 068a 9C       		.byte	0x9c
 3214 068b 1F       		.uleb128 0x1f
ARM GAS  C:\Users\hail\AppData\Local\Temp\ccotwkx9.s 			page 74


 3215 068c B0020000 		.4byte	.LASF99
 3216 0690 01       		.byte	0x1
 3217 0691 9801     		.2byte	0x198
 3218 0693 00000000 		.4byte	.LFB79
 3219 0697 B4000000 		.4byte	.LFE79-.LFB79
 3220 069b 01       		.uleb128 0x1
 3221 069c 9C       		.byte	0x9c
 3222 069d E3060000 		.4byte	0x6e3
 3223 06a1 14       		.uleb128 0x14
 3224 06a2 06000000 		.4byte	.LBB8
 3225 06a6 84000000 		.4byte	.LBE8-.LBB8
 3226 06aa 1D       		.uleb128 0x1d
 3227 06ab 78060000 		.4byte	.LASF71
 3228 06af 01       		.byte	0x1
 3229 06b0 9C01     		.2byte	0x19c
 3230 06b2 AD000000 		.4byte	0xad
 3231 06b6 02       		.uleb128 0x2
 3232 06b7 91       		.byte	0x91
 3233 06b8 77       		.sleb128 -9
 3234 06b9 14       		.uleb128 0x14
 3235 06ba 0C000000 		.4byte	.LBB9
 3236 06be 72000000 		.4byte	.LBE9-.LBB9
 3237 06c2 1A       		.uleb128 0x1a
 3238 06c3 63737100 		.ascii	"csq\000"
 3239 06c7 01       		.byte	0x1
 3240 06c8 A001     		.2byte	0x1a0
 3241 06ca 53060000 		.4byte	0x653
 3242 06ce 02       		.uleb128 0x2
 3243 06cf 91       		.byte	0x91
 3244 06d0 64       		.sleb128 -28
 3245 06d1 1D       		.uleb128 0x1d
 3246 06d2 53040000 		.4byte	.LASF98
 3247 06d6 01       		.byte	0x1
 3248 06d7 A501     		.2byte	0x1a5
 3249 06d9 00010000 		.4byte	0x100
 3250 06dd 02       		.uleb128 0x2
 3251 06de 91       		.byte	0x91
 3252 06df 70       		.sleb128 -16
 3253 06e0 00       		.byte	0
 3254 06e1 00       		.byte	0
 3255 06e2 00       		.byte	0
 3256 06e3 1F       		.uleb128 0x1f
 3257 06e4 B8010000 		.4byte	.LASF100
 3258 06e8 01       		.byte	0x1
 3259 06e9 BB01     		.2byte	0x1bb
 3260 06eb 00000000 		.4byte	.LFB80
 3261 06ef 38010000 		.4byte	.LFE80-.LFB80
 3262 06f3 01       		.uleb128 0x1
 3263 06f4 9C       		.byte	0x9c
 3264 06f5 13070000 		.4byte	0x713
 3265 06f9 14       		.uleb128 0x14
 3266 06fa B6000000 		.4byte	.LBB10
 3267 06fe 34000000 		.4byte	.LBE10-.LBB10
 3268 0702 1D       		.uleb128 0x1d
 3269 0703 7A050000 		.4byte	.LASF101
 3270 0707 01       		.byte	0x1
 3271 0708 E401     		.2byte	0x1e4
ARM GAS  C:\Users\hail\AppData\Local\Temp\ccotwkx9.s 			page 75


 3272 070a 53060000 		.4byte	0x653
 3273 070e 02       		.uleb128 0x2
 3274 070f 91       		.byte	0x91
 3275 0710 6C       		.sleb128 -20
 3276 0711 00       		.byte	0
 3277 0712 00       		.byte	0
 3278 0713 1C       		.uleb128 0x1c
 3279 0714 0C020000 		.4byte	.LASF102
 3280 0718 01       		.byte	0x1
 3281 0719 F601     		.2byte	0x1f6
 3282 071b 57000000 		.4byte	0x57
 3283 071f 00000000 		.4byte	.LFB81
 3284 0723 44010000 		.4byte	.LFE81-.LFB81
 3285 0727 01       		.uleb128 0x1
 3286 0728 9C       		.byte	0x9c
 3287 0729 CF070000 		.4byte	0x7cf
 3288 072d 1D       		.uleb128 0x1d
 3289 072e 56030000 		.4byte	.LASF103
 3290 0732 01       		.byte	0x1
 3291 0733 0102     		.2byte	0x201
 3292 0735 57000000 		.4byte	0x57
 3293 0739 02       		.uleb128 0x2
 3294 073a 91       		.byte	0x91
 3295 073b 74       		.sleb128 -12
 3296 073c 14       		.uleb128 0x14
 3297 073d 30000000 		.4byte	.LBB11
 3298 0741 DE000000 		.4byte	.LBE11-.LBB11
 3299 0745 1D       		.uleb128 0x1d
 3300 0746 D1010000 		.4byte	.LASF85
 3301 074a 01       		.byte	0x1
 3302 074b 0502     		.2byte	0x205
 3303 074d CF070000 		.4byte	0x7cf
 3304 0751 02       		.uleb128 0x2
 3305 0752 91       		.byte	0x91
 3306 0753 54       		.sleb128 -44
 3307 0754 1A       		.uleb128 0x1a
 3308 0755 7400     		.ascii	"t\000"
 3309 0757 01       		.byte	0x1
 3310 0758 0A02     		.2byte	0x20a
 3311 075a 21010000 		.4byte	0x121
 3312 075e 03       		.uleb128 0x3
 3313 075f 91       		.byte	0x91
 3314 0760 947F     		.sleb128 -108
 3315 0762 1D       		.uleb128 0x1d
 3316 0763 76010000 		.4byte	.LASF104
 3317 0767 01       		.byte	0x1
 3318 0768 0D02     		.2byte	0x20d
 3319 076a 7E000000 		.4byte	0x7e
 3320 076e 02       		.uleb128 0x2
 3321 076f 91       		.byte	0x91
 3322 0770 50       		.sleb128 -48
 3323 0771 1D       		.uleb128 0x1d
 3324 0772 46020000 		.4byte	.LASF105
 3325 0776 01       		.byte	0x1
 3326 0777 0D02     		.2byte	0x20d
 3327 0779 7E000000 		.4byte	0x7e
 3328 077d 02       		.uleb128 0x2
ARM GAS  C:\Users\hail\AppData\Local\Temp\ccotwkx9.s 			page 76


 3329 077e 91       		.byte	0x91
 3330 077f 4C       		.sleb128 -52
 3331 0780 1A       		.uleb128 0x1a
 3332 0781 64617900 		.ascii	"day\000"
 3333 0785 01       		.byte	0x1
 3334 0786 0D02     		.2byte	0x20d
 3335 0788 7E000000 		.4byte	0x7e
 3336 078c 02       		.uleb128 0x2
 3337 078d 91       		.byte	0x91
 3338 078e 48       		.sleb128 -56
 3339 078f 1D       		.uleb128 0x1d
 3340 0790 2E040000 		.4byte	.LASF106
 3341 0794 01       		.byte	0x1
 3342 0795 0D02     		.2byte	0x20d
 3343 0797 7E000000 		.4byte	0x7e
 3344 079b 02       		.uleb128 0x2
 3345 079c 91       		.byte	0x91
 3346 079d 44       		.sleb128 -60
 3347 079e 1D       		.uleb128 0x1d
 3348 079f 2E060000 		.4byte	.LASF107
 3349 07a3 01       		.byte	0x1
 3350 07a4 0D02     		.2byte	0x20d
 3351 07a6 7E000000 		.4byte	0x7e
 3352 07aa 02       		.uleb128 0x2
 3353 07ab 91       		.byte	0x91
 3354 07ac 40       		.sleb128 -64
 3355 07ad 1D       		.uleb128 0x1d
 3356 07ae 6F010000 		.4byte	.LASF108
 3357 07b2 01       		.byte	0x1
 3358 07b3 0D02     		.2byte	0x20d
 3359 07b5 7E000000 		.4byte	0x7e
 3360 07b9 03       		.uleb128 0x3
 3361 07ba 91       		.byte	0x91
 3362 07bb BC7F     		.sleb128 -68
 3363 07bd 1D       		.uleb128 0x1d
 3364 07be 00000000 		.4byte	.LASF109
 3365 07c2 01       		.byte	0x1
 3366 07c3 0D02     		.2byte	0x20d
 3367 07c5 7E000000 		.4byte	0x7e
 3368 07c9 03       		.uleb128 0x3
 3369 07ca 91       		.byte	0x91
 3370 07cb B87F     		.sleb128 -72
 3371 07cd 00       		.byte	0
 3372 07ce 00       		.byte	0
 3373 07cf 08       		.uleb128 0x8
 3374 07d0 EB000000 		.4byte	0xeb
 3375 07d4 DF070000 		.4byte	0x7df
 3376 07d8 09       		.uleb128 0x9
 3377 07d9 F9000000 		.4byte	0xf9
 3378 07dd 1D       		.byte	0x1d
 3379 07de 00       		.byte	0
 3380 07df 20       		.uleb128 0x20
 3381 07e0 84010000 		.4byte	.LASF110
 3382 07e4 01       		.byte	0x1
 3383 07e5 2D02     		.2byte	0x22d
 3384 07e7 AD000000 		.4byte	0xad
 3385 07eb 00000000 		.4byte	.LFB82
ARM GAS  C:\Users\hail\AppData\Local\Temp\ccotwkx9.s 			page 77


 3386 07ef 14000000 		.4byte	.LFE82-.LFB82
 3387 07f3 01       		.uleb128 0x1
 3388 07f4 9C       		.byte	0x9c
 3389 07f5 1E       		.uleb128 0x1e
 3390 07f6 32020000 		.4byte	.LASF111
 3391 07fa 01       		.byte	0x1
 3392 07fb 3202     		.2byte	0x232
 3393 07fd 00000000 		.4byte	.LFB83
 3394 0801 1A000000 		.4byte	.LFE83-.LFB83
 3395 0805 01       		.uleb128 0x1
 3396 0806 9C       		.byte	0x9c
 3397 0807 1E       		.uleb128 0x1e
 3398 0808 CA000000 		.4byte	.LASF112
 3399 080c 01       		.byte	0x1
 3400 080d 3F02     		.2byte	0x23f
 3401 080f 00000000 		.4byte	.LFB84
 3402 0813 2A000000 		.4byte	.LFE84-.LFB84
 3403 0817 01       		.uleb128 0x1
 3404 0818 9C       		.byte	0x9c
 3405 0819 1C       		.uleb128 0x1c
 3406 081a AE030000 		.4byte	.LASF113
 3407 081e 01       		.byte	0x1
 3408 081f 5502     		.2byte	0x255
 3409 0821 C2020000 		.4byte	0x2c2
 3410 0825 00000000 		.4byte	.LFB85
 3411 0829 7C020000 		.4byte	.LFE85-.LFB85
 3412 082d 01       		.uleb128 0x1
 3413 082e 9C       		.byte	0x9c
 3414 082f C2080000 		.4byte	0x8c2
 3415 0833 1A       		.uleb128 0x1a
 3416 0834 67707300 		.ascii	"gps\000"
 3417 0838 01       		.byte	0x1
 3418 0839 5602     		.2byte	0x256
 3419 083b C2020000 		.4byte	0x2c2
 3420 083f 02       		.uleb128 0x2
 3421 0840 91       		.byte	0x91
 3422 0841 4C       		.sleb128 -52
 3423 0842 1D       		.uleb128 0x1d
 3424 0843 A2060000 		.4byte	.LASF114
 3425 0847 01       		.byte	0x1
 3426 0848 6202     		.2byte	0x262
 3427 084a 57000000 		.4byte	0x57
 3428 084e 02       		.uleb128 0x2
 3429 084f 91       		.byte	0x91
 3430 0850 68       		.sleb128 -24
 3431 0851 1D       		.uleb128 0x1d
 3432 0852 E8050000 		.4byte	.LASF115
 3433 0856 01       		.byte	0x1
 3434 0857 8902     		.2byte	0x289
 3435 0859 AD000000 		.4byte	0xad
 3436 085d 02       		.uleb128 0x2
 3437 085e 91       		.byte	0x91
 3438 085f 67       		.sleb128 -25
 3439 0860 1A       		.uleb128 0x1a
 3440 0861 6C617400 		.ascii	"lat\000"
 3441 0865 01       		.byte	0x1
 3442 0866 9502     		.2byte	0x295
ARM GAS  C:\Users\hail\AppData\Local\Temp\ccotwkx9.s 			page 78


 3443 0868 DD000000 		.4byte	0xdd
 3444 086c 02       		.uleb128 0x2
 3445 086d 91       		.byte	0x91
 3446 086e 48       		.sleb128 -56
 3447 086f 1A       		.uleb128 0x1a
 3448 0870 6C6F6E00 		.ascii	"lon\000"
 3449 0874 01       		.byte	0x1
 3450 0875 9602     		.2byte	0x296
 3451 0877 DD000000 		.4byte	0xdd
 3452 087b 02       		.uleb128 0x2
 3453 087c 91       		.byte	0x91
 3454 087d 44       		.sleb128 -60
 3455 087e 1A       		.uleb128 0x1a
 3456 087f 616C7400 		.ascii	"alt\000"
 3457 0883 01       		.byte	0x1
 3458 0884 9702     		.2byte	0x297
 3459 0886 DD000000 		.4byte	0xdd
 3460 088a 02       		.uleb128 0x2
 3461 088b 91       		.byte	0x91
 3462 088c 40       		.sleb128 -64
 3463 088d 1A       		.uleb128 0x1a
 3464 088e 733100   		.ascii	"s1\000"
 3465 0891 01       		.byte	0x1
 3466 0892 9B02     		.2byte	0x29b
 3467 0894 00010000 		.4byte	0x100
 3468 0898 02       		.uleb128 0x2
 3469 0899 91       		.byte	0x91
 3470 089a 60       		.sleb128 -32
 3471 089b 1D       		.uleb128 0x1d
 3472 089c 28040000 		.4byte	.LASF116
 3473 08a0 01       		.byte	0x1
 3474 08a1 9E02     		.2byte	0x29e
 3475 08a3 7E000000 		.4byte	0x7e
 3476 08a7 02       		.uleb128 0x2
 3477 08a8 91       		.byte	0x91
 3478 08a9 5C       		.sleb128 -36
 3479 08aa 14       		.uleb128 0x14
 3480 08ab B4000000 		.4byte	.LBB12
 3481 08af 38000000 		.4byte	.LBE12-.LBB12
 3482 08b3 1A       		.uleb128 0x1a
 3483 08b4 6900     		.ascii	"i\000"
 3484 08b6 01       		.byte	0x1
 3485 08b7 8A02     		.2byte	0x28a
 3486 08b9 B9000000 		.4byte	0xb9
 3487 08bd 02       		.uleb128 0x2
 3488 08be 91       		.byte	0x91
 3489 08bf 6E       		.sleb128 -18
 3490 08c0 00       		.byte	0
 3491 08c1 00       		.byte	0
 3492 08c2 21       		.uleb128 0x21
 3493 08c3 FF000000 		.4byte	.LASF117
 3494 08c7 0A       		.byte	0xa
 3495 08c8 1207     		.2byte	0x712
 3496 08ca CE080000 		.4byte	0x8ce
 3497 08ce 22       		.uleb128 0x22
 3498 08cf 97000000 		.4byte	0x97
 3499 08d3 23       		.uleb128 0x23
ARM GAS  C:\Users\hail\AppData\Local\Temp\ccotwkx9.s 			page 79


 3500 08d4 EE000000 		.4byte	.LASF118
 3501 08d8 07       		.byte	0x7
 3502 08d9 15       		.byte	0x15
 3503 08da AD000000 		.4byte	0xad
 3504 08de 05       		.uleb128 0x5
 3505 08df 03       		.byte	0x3
 3506 08e0 00000000 		.4byte	modem_state
 3507 08e4 23       		.uleb128 0x23
 3508 08e5 D1050000 		.4byte	.LASF119
 3509 08e9 07       		.byte	0x7
 3510 08ea 45       		.byte	0x45
 3511 08eb D1000000 		.4byte	0xd1
 3512 08ef 05       		.uleb128 0x5
 3513 08f0 03       		.byte	0x3
 3514 08f1 00000000 		.4byte	modem_start_time_stamp
 3515 08f5 23       		.uleb128 0x23
 3516 08f6 F2020000 		.4byte	.LASF54
 3517 08fa 07       		.byte	0x7
 3518 08fb 46       		.byte	0x46
 3519 08fc 2F020000 		.4byte	0x22f
 3520 0900 05       		.uleb128 0x5
 3521 0901 03       		.byte	0x3
 3522 0902 00000000 		.4byte	modem_info
 3523 0906 23       		.uleb128 0x23
 3524 0907 0C010000 		.4byte	.LASF120
 3525 090b 07       		.byte	0x7
 3526 090c 47       		.byte	0x47
 3527 090d 72020000 		.4byte	0x272
 3528 0911 05       		.uleb128 0x5
 3529 0912 03       		.byte	0x3
 3530 0913 00000000 		.4byte	modem_stats
 3531 0917 23       		.uleb128 0x23
 3532 0918 9C030000 		.4byte	.LASF121
 3533 091c 08       		.byte	0x8
 3534 091d 1D       		.byte	0x1d
 3535 091e B9000000 		.4byte	0xb9
 3536 0922 05       		.uleb128 0x5
 3537 0923 03       		.byte	0x3
 3538 0924 00000000 		.4byte	dataPointsInStack
 3539 0928 08       		.uleb128 0x8
 3540 0929 FA020000 		.4byte	0x2fa
 3541 092d 38090000 		.4byte	0x938
 3542 0931 09       		.uleb128 0x9
 3543 0932 F9000000 		.4byte	0xf9
 3544 0936 31       		.byte	0x31
 3545 0937 00       		.byte	0
 3546 0938 23       		.uleb128 0x23
 3547 0939 D4020000 		.4byte	.LASF122
 3548 093d 08       		.byte	0x8
 3549 093e 1E       		.byte	0x1e
 3550 093f 28090000 		.4byte	0x928
 3551 0943 05       		.uleb128 0x5
 3552 0944 03       		.byte	0x3
 3553 0945 00000000 		.4byte	data
 3554 0949 08       		.uleb128 0x8
 3555 094a EB000000 		.4byte	0xeb
 3556 094e 5A090000 		.4byte	0x95a
ARM GAS  C:\Users\hail\AppData\Local\Temp\ccotwkx9.s 			page 80


 3557 0952 24       		.uleb128 0x24
 3558 0953 F9000000 		.4byte	0xf9
 3559 0957 9F0F     		.2byte	0xf9f
 3560 0959 00       		.byte	0
 3561 095a 23       		.uleb128 0x23
 3562 095b AC060000 		.4byte	.LASF123
 3563 095f 09       		.byte	0x9
 3564 0960 16       		.byte	0x16
 3565 0961 49090000 		.4byte	0x949
 3566 0965 05       		.uleb128 0x5
 3567 0966 03       		.byte	0x3
 3568 0967 00000000 		.4byte	http_request
 3569 096b 23       		.uleb128 0x23
 3570 096c 4A010000 		.4byte	.LASF124
 3571 0970 09       		.byte	0x9
 3572 0971 17       		.byte	0x17
 3573 0972 49090000 		.4byte	0x949
 3574 0976 05       		.uleb128 0x5
 3575 0977 03       		.byte	0x3
 3576 0978 00000000 		.4byte	http_body
 3577 097c 08       		.uleb128 0x8
 3578 097d EB000000 		.4byte	0xeb
 3579 0981 8C090000 		.4byte	0x98c
 3580 0985 09       		.uleb128 0x9
 3581 0986 F9000000 		.4byte	0xf9
 3582 098a C7       		.byte	0xc7
 3583 098b 00       		.byte	0
 3584 098c 23       		.uleb128 0x23
 3585 098d 88050000 		.4byte	.LASF125
 3586 0991 09       		.byte	0x9
 3587 0992 18       		.byte	0x18
 3588 0993 7C090000 		.4byte	0x97c
 3589 0997 05       		.uleb128 0x5
 3590 0998 03       		.byte	0x3
 3591 0999 00000000 		.4byte	http_route
 3592 099d 23       		.uleb128 0x23
 3593 099e F1040000 		.4byte	.LASF126
 3594 09a2 09       		.byte	0x9
 3595 09a3 3F       		.byte	0x3f
 3596 09a4 2C030000 		.4byte	0x32c
 3597 09a8 05       		.uleb128 0x5
 3598 09a9 03       		.byte	0x3
 3599 09aa 00000000 		.4byte	system_info
 3600 09ae 23       		.uleb128 0x23
 3601 09af 84040000 		.4byte	.LASF127
 3602 09b3 09       		.byte	0x9
 3603 09b4 51       		.byte	0x51
 3604 09b5 AA030000 		.4byte	0x3aa
 3605 09b9 05       		.uleb128 0x5
 3606 09ba 03       		.byte	0x3
 3607 09bb 00000000 		.4byte	system_settings
 3608 09bf 08       		.uleb128 0x8
 3609 09c0 EB000000 		.4byte	0xeb
 3610 09c4 D0090000 		.4byte	0x9d0
 3611 09c8 24       		.uleb128 0x24
 3612 09c9 F9000000 		.4byte	0xf9
 3613 09cd FF03     		.2byte	0x3ff
ARM GAS  C:\Users\hail\AppData\Local\Temp\ccotwkx9.s 			page 81


 3614 09cf 00       		.byte	0
 3615 09d0 23       		.uleb128 0x23
 3616 09d1 F5030000 		.4byte	.LASF128
 3617 09d5 01       		.byte	0x1
 3618 09d6 08       		.byte	0x8
 3619 09d7 BF090000 		.4byte	0x9bf
 3620 09db 05       		.uleb128 0x5
 3621 09dc 03       		.byte	0x3
 3622 09dd 00000000 		.4byte	uart_received_string
 3623 09e1 23       		.uleb128 0x23
 3624 09e2 A6050000 		.4byte	.LASF129
 3625 09e6 01       		.byte	0x1
 3626 09e7 09       		.byte	0x9
 3627 09e8 8C000000 		.4byte	0x8c
 3628 09ec 05       		.uleb128 0x5
 3629 09ed 03       		.byte	0x3
 3630 09ee 00000000 		.4byte	uart_string_index
 3631 09f2 00       		.byte	0
 3632              		.section	.debug_abbrev,"",%progbits
 3633              	.Ldebug_abbrev0:
 3634 0000 01       		.uleb128 0x1
 3635 0001 11       		.uleb128 0x11
 3636 0002 01       		.byte	0x1
 3637 0003 25       		.uleb128 0x25
 3638 0004 0E       		.uleb128 0xe
 3639 0005 13       		.uleb128 0x13
 3640 0006 0B       		.uleb128 0xb
 3641 0007 03       		.uleb128 0x3
 3642 0008 0E       		.uleb128 0xe
 3643 0009 1B       		.uleb128 0x1b
 3644 000a 0E       		.uleb128 0xe
 3645 000b 55       		.uleb128 0x55
 3646 000c 17       		.uleb128 0x17
 3647 000d 11       		.uleb128 0x11
 3648 000e 01       		.uleb128 0x1
 3649 000f 10       		.uleb128 0x10
 3650 0010 17       		.uleb128 0x17
 3651 0011 00       		.byte	0
 3652 0012 00       		.byte	0
 3653 0013 02       		.uleb128 0x2
 3654 0014 24       		.uleb128 0x24
 3655 0015 00       		.byte	0
 3656 0016 0B       		.uleb128 0xb
 3657 0017 0B       		.uleb128 0xb
 3658 0018 3E       		.uleb128 0x3e
 3659 0019 0B       		.uleb128 0xb
 3660 001a 03       		.uleb128 0x3
 3661 001b 0E       		.uleb128 0xe
 3662 001c 00       		.byte	0
 3663 001d 00       		.byte	0
 3664 001e 03       		.uleb128 0x3
 3665 001f 16       		.uleb128 0x16
 3666 0020 00       		.byte	0
 3667 0021 03       		.uleb128 0x3
 3668 0022 0E       		.uleb128 0xe
 3669 0023 3A       		.uleb128 0x3a
 3670 0024 0B       		.uleb128 0xb
ARM GAS  C:\Users\hail\AppData\Local\Temp\ccotwkx9.s 			page 82


 3671 0025 3B       		.uleb128 0x3b
 3672 0026 0B       		.uleb128 0xb
 3673 0027 49       		.uleb128 0x49
 3674 0028 13       		.uleb128 0x13
 3675 0029 00       		.byte	0
 3676 002a 00       		.byte	0
 3677 002b 04       		.uleb128 0x4
 3678 002c 24       		.uleb128 0x24
 3679 002d 00       		.byte	0
 3680 002e 0B       		.uleb128 0xb
 3681 002f 0B       		.uleb128 0xb
 3682 0030 3E       		.uleb128 0x3e
 3683 0031 0B       		.uleb128 0xb
 3684 0032 03       		.uleb128 0x3
 3685 0033 08       		.uleb128 0x8
 3686 0034 00       		.byte	0
 3687 0035 00       		.byte	0
 3688 0036 05       		.uleb128 0x5
 3689 0037 16       		.uleb128 0x16
 3690 0038 00       		.byte	0
 3691 0039 03       		.uleb128 0x3
 3692 003a 0E       		.uleb128 0xe
 3693 003b 3A       		.uleb128 0x3a
 3694 003c 0B       		.uleb128 0xb
 3695 003d 3B       		.uleb128 0x3b
 3696 003e 05       		.uleb128 0x5
 3697 003f 49       		.uleb128 0x49
 3698 0040 13       		.uleb128 0x13
 3699 0041 00       		.byte	0
 3700 0042 00       		.byte	0
 3701 0043 06       		.uleb128 0x6
 3702 0044 0F       		.uleb128 0xf
 3703 0045 00       		.byte	0
 3704 0046 0B       		.uleb128 0xb
 3705 0047 0B       		.uleb128 0xb
 3706 0048 49       		.uleb128 0x49
 3707 0049 13       		.uleb128 0x13
 3708 004a 00       		.byte	0
 3709 004b 00       		.byte	0
 3710 004c 07       		.uleb128 0x7
 3711 004d 26       		.uleb128 0x26
 3712 004e 00       		.byte	0
 3713 004f 49       		.uleb128 0x49
 3714 0050 13       		.uleb128 0x13
 3715 0051 00       		.byte	0
 3716 0052 00       		.byte	0
 3717 0053 08       		.uleb128 0x8
 3718 0054 01       		.uleb128 0x1
 3719 0055 01       		.byte	0x1
 3720 0056 49       		.uleb128 0x49
 3721 0057 13       		.uleb128 0x13
 3722 0058 01       		.uleb128 0x1
 3723 0059 13       		.uleb128 0x13
 3724 005a 00       		.byte	0
 3725 005b 00       		.byte	0
 3726 005c 09       		.uleb128 0x9
 3727 005d 21       		.uleb128 0x21
ARM GAS  C:\Users\hail\AppData\Local\Temp\ccotwkx9.s 			page 83


 3728 005e 00       		.byte	0
 3729 005f 49       		.uleb128 0x49
 3730 0060 13       		.uleb128 0x13
 3731 0061 2F       		.uleb128 0x2f
 3732 0062 0B       		.uleb128 0xb
 3733 0063 00       		.byte	0
 3734 0064 00       		.byte	0
 3735 0065 0A       		.uleb128 0xa
 3736 0066 13       		.uleb128 0x13
 3737 0067 01       		.byte	0x1
 3738 0068 03       		.uleb128 0x3
 3739 0069 08       		.uleb128 0x8
 3740 006a 0B       		.uleb128 0xb
 3741 006b 0B       		.uleb128 0xb
 3742 006c 3A       		.uleb128 0x3a
 3743 006d 0B       		.uleb128 0xb
 3744 006e 3B       		.uleb128 0x3b
 3745 006f 0B       		.uleb128 0xb
 3746 0070 01       		.uleb128 0x1
 3747 0071 13       		.uleb128 0x13
 3748 0072 00       		.byte	0
 3749 0073 00       		.byte	0
 3750 0074 0B       		.uleb128 0xb
 3751 0075 0D       		.uleb128 0xd
 3752 0076 00       		.byte	0
 3753 0077 03       		.uleb128 0x3
 3754 0078 0E       		.uleb128 0xe
 3755 0079 3A       		.uleb128 0x3a
 3756 007a 0B       		.uleb128 0xb
 3757 007b 3B       		.uleb128 0x3b
 3758 007c 0B       		.uleb128 0xb
 3759 007d 49       		.uleb128 0x49
 3760 007e 13       		.uleb128 0x13
 3761 007f 38       		.uleb128 0x38
 3762 0080 0B       		.uleb128 0xb
 3763 0081 00       		.byte	0
 3764 0082 00       		.byte	0
 3765 0083 0C       		.uleb128 0xc
 3766 0084 13       		.uleb128 0x13
 3767 0085 01       		.byte	0x1
 3768 0086 0B       		.uleb128 0xb
 3769 0087 05       		.uleb128 0x5
 3770 0088 3A       		.uleb128 0x3a
 3771 0089 0B       		.uleb128 0xb
 3772 008a 3B       		.uleb128 0x3b
 3773 008b 0B       		.uleb128 0xb
 3774 008c 01       		.uleb128 0x1
 3775 008d 13       		.uleb128 0x13
 3776 008e 00       		.byte	0
 3777 008f 00       		.byte	0
 3778 0090 0D       		.uleb128 0xd
 3779 0091 13       		.uleb128 0x13
 3780 0092 01       		.byte	0x1
 3781 0093 0B       		.uleb128 0xb
 3782 0094 0B       		.uleb128 0xb
 3783 0095 3A       		.uleb128 0x3a
 3784 0096 0B       		.uleb128 0xb
ARM GAS  C:\Users\hail\AppData\Local\Temp\ccotwkx9.s 			page 84


 3785 0097 3B       		.uleb128 0x3b
 3786 0098 0B       		.uleb128 0xb
 3787 0099 01       		.uleb128 0x1
 3788 009a 13       		.uleb128 0x13
 3789 009b 00       		.byte	0
 3790 009c 00       		.byte	0
 3791 009d 0E       		.uleb128 0xe
 3792 009e 0D       		.uleb128 0xd
 3793 009f 00       		.byte	0
 3794 00a0 03       		.uleb128 0x3
 3795 00a1 08       		.uleb128 0x8
 3796 00a2 3A       		.uleb128 0x3a
 3797 00a3 0B       		.uleb128 0xb
 3798 00a4 3B       		.uleb128 0x3b
 3799 00a5 0B       		.uleb128 0xb
 3800 00a6 49       		.uleb128 0x49
 3801 00a7 13       		.uleb128 0x13
 3802 00a8 38       		.uleb128 0x38
 3803 00a9 0B       		.uleb128 0xb
 3804 00aa 00       		.byte	0
 3805 00ab 00       		.byte	0
 3806 00ac 0F       		.uleb128 0xf
 3807 00ad 0D       		.uleb128 0xd
 3808 00ae 00       		.byte	0
 3809 00af 03       		.uleb128 0x3
 3810 00b0 0E       		.uleb128 0xe
 3811 00b1 3A       		.uleb128 0x3a
 3812 00b2 0B       		.uleb128 0xb
 3813 00b3 3B       		.uleb128 0x3b
 3814 00b4 0B       		.uleb128 0xb
 3815 00b5 49       		.uleb128 0x49
 3816 00b6 13       		.uleb128 0x13
 3817 00b7 38       		.uleb128 0x38
 3818 00b8 05       		.uleb128 0x5
 3819 00b9 00       		.byte	0
 3820 00ba 00       		.byte	0
 3821 00bb 10       		.uleb128 0x10
 3822 00bc 2E       		.uleb128 0x2e
 3823 00bd 00       		.byte	0
 3824 00be 3F       		.uleb128 0x3f
 3825 00bf 19       		.uleb128 0x19
 3826 00c0 03       		.uleb128 0x3
 3827 00c1 0E       		.uleb128 0xe
 3828 00c2 3A       		.uleb128 0x3a
 3829 00c3 0B       		.uleb128 0xb
 3830 00c4 3B       		.uleb128 0x3b
 3831 00c5 0B       		.uleb128 0xb
 3832 00c6 27       		.uleb128 0x27
 3833 00c7 19       		.uleb128 0x19
 3834 00c8 11       		.uleb128 0x11
 3835 00c9 01       		.uleb128 0x1
 3836 00ca 12       		.uleb128 0x12
 3837 00cb 06       		.uleb128 0x6
 3838 00cc 40       		.uleb128 0x40
 3839 00cd 18       		.uleb128 0x18
 3840 00ce 9642     		.uleb128 0x2116
 3841 00d0 19       		.uleb128 0x19
ARM GAS  C:\Users\hail\AppData\Local\Temp\ccotwkx9.s 			page 85


 3842 00d1 00       		.byte	0
 3843 00d2 00       		.byte	0
 3844 00d3 11       		.uleb128 0x11
 3845 00d4 2E       		.uleb128 0x2e
 3846 00d5 00       		.byte	0
 3847 00d6 3F       		.uleb128 0x3f
 3848 00d7 19       		.uleb128 0x19
 3849 00d8 03       		.uleb128 0x3
 3850 00d9 0E       		.uleb128 0xe
 3851 00da 3A       		.uleb128 0x3a
 3852 00db 0B       		.uleb128 0xb
 3853 00dc 3B       		.uleb128 0x3b
 3854 00dd 0B       		.uleb128 0xb
 3855 00de 11       		.uleb128 0x11
 3856 00df 01       		.uleb128 0x1
 3857 00e0 12       		.uleb128 0x12
 3858 00e1 06       		.uleb128 0x6
 3859 00e2 40       		.uleb128 0x40
 3860 00e3 18       		.uleb128 0x18
 3861 00e4 9642     		.uleb128 0x2116
 3862 00e6 19       		.uleb128 0x19
 3863 00e7 00       		.byte	0
 3864 00e8 00       		.byte	0
 3865 00e9 12       		.uleb128 0x12
 3866 00ea 2E       		.uleb128 0x2e
 3867 00eb 01       		.byte	0x1
 3868 00ec 3F       		.uleb128 0x3f
 3869 00ed 19       		.uleb128 0x19
 3870 00ee 03       		.uleb128 0x3
 3871 00ef 0E       		.uleb128 0xe
 3872 00f0 3A       		.uleb128 0x3a
 3873 00f1 0B       		.uleb128 0xb
 3874 00f2 3B       		.uleb128 0x3b
 3875 00f3 0B       		.uleb128 0xb
 3876 00f4 49       		.uleb128 0x49
 3877 00f5 13       		.uleb128 0x13
 3878 00f6 11       		.uleb128 0x11
 3879 00f7 01       		.uleb128 0x1
 3880 00f8 12       		.uleb128 0x12
 3881 00f9 06       		.uleb128 0x6
 3882 00fa 40       		.uleb128 0x40
 3883 00fb 18       		.uleb128 0x18
 3884 00fc 9642     		.uleb128 0x2116
 3885 00fe 19       		.uleb128 0x19
 3886 00ff 01       		.uleb128 0x1
 3887 0100 13       		.uleb128 0x13
 3888 0101 00       		.byte	0
 3889 0102 00       		.byte	0
 3890 0103 13       		.uleb128 0x13
 3891 0104 34       		.uleb128 0x34
 3892 0105 00       		.byte	0
 3893 0106 03       		.uleb128 0x3
 3894 0107 0E       		.uleb128 0xe
 3895 0108 3A       		.uleb128 0x3a
 3896 0109 0B       		.uleb128 0xb
 3897 010a 3B       		.uleb128 0x3b
 3898 010b 0B       		.uleb128 0xb
ARM GAS  C:\Users\hail\AppData\Local\Temp\ccotwkx9.s 			page 86


 3899 010c 49       		.uleb128 0x49
 3900 010d 13       		.uleb128 0x13
 3901 010e 02       		.uleb128 0x2
 3902 010f 18       		.uleb128 0x18
 3903 0110 00       		.byte	0
 3904 0111 00       		.byte	0
 3905 0112 14       		.uleb128 0x14
 3906 0113 0B       		.uleb128 0xb
 3907 0114 01       		.byte	0x1
 3908 0115 11       		.uleb128 0x11
 3909 0116 01       		.uleb128 0x1
 3910 0117 12       		.uleb128 0x12
 3911 0118 06       		.uleb128 0x6
 3912 0119 00       		.byte	0
 3913 011a 00       		.byte	0
 3914 011b 15       		.uleb128 0x15
 3915 011c 2E       		.uleb128 0x2e
 3916 011d 01       		.byte	0x1
 3917 011e 3F       		.uleb128 0x3f
 3918 011f 19       		.uleb128 0x19
 3919 0120 03       		.uleb128 0x3
 3920 0121 0E       		.uleb128 0xe
 3921 0122 3A       		.uleb128 0x3a
 3922 0123 0B       		.uleb128 0xb
 3923 0124 3B       		.uleb128 0x3b
 3924 0125 0B       		.uleb128 0xb
 3925 0126 27       		.uleb128 0x27
 3926 0127 19       		.uleb128 0x19
 3927 0128 49       		.uleb128 0x49
 3928 0129 13       		.uleb128 0x13
 3929 012a 11       		.uleb128 0x11
 3930 012b 01       		.uleb128 0x1
 3931 012c 12       		.uleb128 0x12
 3932 012d 06       		.uleb128 0x6
 3933 012e 40       		.uleb128 0x40
 3934 012f 18       		.uleb128 0x18
 3935 0130 9642     		.uleb128 0x2116
 3936 0132 19       		.uleb128 0x19
 3937 0133 01       		.uleb128 0x1
 3938 0134 13       		.uleb128 0x13
 3939 0135 00       		.byte	0
 3940 0136 00       		.byte	0
 3941 0137 16       		.uleb128 0x16
 3942 0138 05       		.uleb128 0x5
 3943 0139 00       		.byte	0
 3944 013a 03       		.uleb128 0x3
 3945 013b 0E       		.uleb128 0xe
 3946 013c 3A       		.uleb128 0x3a
 3947 013d 0B       		.uleb128 0xb
 3948 013e 3B       		.uleb128 0x3b
 3949 013f 0B       		.uleb128 0xb
 3950 0140 49       		.uleb128 0x49
 3951 0141 13       		.uleb128 0x13
 3952 0142 02       		.uleb128 0x2
 3953 0143 18       		.uleb128 0x18
 3954 0144 00       		.byte	0
 3955 0145 00       		.byte	0
ARM GAS  C:\Users\hail\AppData\Local\Temp\ccotwkx9.s 			page 87


 3956 0146 17       		.uleb128 0x17
 3957 0147 34       		.uleb128 0x34
 3958 0148 00       		.byte	0
 3959 0149 03       		.uleb128 0x3
 3960 014a 08       		.uleb128 0x8
 3961 014b 3A       		.uleb128 0x3a
 3962 014c 0B       		.uleb128 0xb
 3963 014d 3B       		.uleb128 0x3b
 3964 014e 0B       		.uleb128 0xb
 3965 014f 49       		.uleb128 0x49
 3966 0150 13       		.uleb128 0x13
 3967 0151 02       		.uleb128 0x2
 3968 0152 18       		.uleb128 0x18
 3969 0153 00       		.byte	0
 3970 0154 00       		.byte	0
 3971 0155 18       		.uleb128 0x18
 3972 0156 2E       		.uleb128 0x2e
 3973 0157 01       		.byte	0x1
 3974 0158 3F       		.uleb128 0x3f
 3975 0159 19       		.uleb128 0x19
 3976 015a 03       		.uleb128 0x3
 3977 015b 0E       		.uleb128 0xe
 3978 015c 3A       		.uleb128 0x3a
 3979 015d 0B       		.uleb128 0xb
 3980 015e 3B       		.uleb128 0x3b
 3981 015f 05       		.uleb128 0x5
 3982 0160 27       		.uleb128 0x27
 3983 0161 19       		.uleb128 0x19
 3984 0162 49       		.uleb128 0x49
 3985 0163 13       		.uleb128 0x13
 3986 0164 11       		.uleb128 0x11
 3987 0165 01       		.uleb128 0x1
 3988 0166 12       		.uleb128 0x12
 3989 0167 06       		.uleb128 0x6
 3990 0168 40       		.uleb128 0x40
 3991 0169 18       		.uleb128 0x18
 3992 016a 9642     		.uleb128 0x2116
 3993 016c 19       		.uleb128 0x19
 3994 016d 01       		.uleb128 0x1
 3995 016e 13       		.uleb128 0x13
 3996 016f 00       		.byte	0
 3997 0170 00       		.byte	0
 3998 0171 19       		.uleb128 0x19
 3999 0172 05       		.uleb128 0x5
 4000 0173 00       		.byte	0
 4001 0174 03       		.uleb128 0x3
 4002 0175 0E       		.uleb128 0xe
 4003 0176 3A       		.uleb128 0x3a
 4004 0177 0B       		.uleb128 0xb
 4005 0178 3B       		.uleb128 0x3b
 4006 0179 05       		.uleb128 0x5
 4007 017a 49       		.uleb128 0x49
 4008 017b 13       		.uleb128 0x13
 4009 017c 02       		.uleb128 0x2
 4010 017d 18       		.uleb128 0x18
 4011 017e 00       		.byte	0
 4012 017f 00       		.byte	0
ARM GAS  C:\Users\hail\AppData\Local\Temp\ccotwkx9.s 			page 88


 4013 0180 1A       		.uleb128 0x1a
 4014 0181 34       		.uleb128 0x34
 4015 0182 00       		.byte	0
 4016 0183 03       		.uleb128 0x3
 4017 0184 08       		.uleb128 0x8
 4018 0185 3A       		.uleb128 0x3a
 4019 0186 0B       		.uleb128 0xb
 4020 0187 3B       		.uleb128 0x3b
 4021 0188 05       		.uleb128 0x5
 4022 0189 49       		.uleb128 0x49
 4023 018a 13       		.uleb128 0x13
 4024 018b 02       		.uleb128 0x2
 4025 018c 18       		.uleb128 0x18
 4026 018d 00       		.byte	0
 4027 018e 00       		.byte	0
 4028 018f 1B       		.uleb128 0x1b
 4029 0190 2E       		.uleb128 0x2e
 4030 0191 00       		.byte	0
 4031 0192 3F       		.uleb128 0x3f
 4032 0193 19       		.uleb128 0x19
 4033 0194 03       		.uleb128 0x3
 4034 0195 0E       		.uleb128 0xe
 4035 0196 3A       		.uleb128 0x3a
 4036 0197 0B       		.uleb128 0xb
 4037 0198 3B       		.uleb128 0x3b
 4038 0199 05       		.uleb128 0x5
 4039 019a 49       		.uleb128 0x49
 4040 019b 13       		.uleb128 0x13
 4041 019c 11       		.uleb128 0x11
 4042 019d 01       		.uleb128 0x1
 4043 019e 12       		.uleb128 0x12
 4044 019f 06       		.uleb128 0x6
 4045 01a0 40       		.uleb128 0x40
 4046 01a1 18       		.uleb128 0x18
 4047 01a2 9642     		.uleb128 0x2116
 4048 01a4 19       		.uleb128 0x19
 4049 01a5 00       		.byte	0
 4050 01a6 00       		.byte	0
 4051 01a7 1C       		.uleb128 0x1c
 4052 01a8 2E       		.uleb128 0x2e
 4053 01a9 01       		.byte	0x1
 4054 01aa 3F       		.uleb128 0x3f
 4055 01ab 19       		.uleb128 0x19
 4056 01ac 03       		.uleb128 0x3
 4057 01ad 0E       		.uleb128 0xe
 4058 01ae 3A       		.uleb128 0x3a
 4059 01af 0B       		.uleb128 0xb
 4060 01b0 3B       		.uleb128 0x3b
 4061 01b1 05       		.uleb128 0x5
 4062 01b2 49       		.uleb128 0x49
 4063 01b3 13       		.uleb128 0x13
 4064 01b4 11       		.uleb128 0x11
 4065 01b5 01       		.uleb128 0x1
 4066 01b6 12       		.uleb128 0x12
 4067 01b7 06       		.uleb128 0x6
 4068 01b8 40       		.uleb128 0x40
 4069 01b9 18       		.uleb128 0x18
ARM GAS  C:\Users\hail\AppData\Local\Temp\ccotwkx9.s 			page 89


 4070 01ba 9642     		.uleb128 0x2116
 4071 01bc 19       		.uleb128 0x19
 4072 01bd 01       		.uleb128 0x1
 4073 01be 13       		.uleb128 0x13
 4074 01bf 00       		.byte	0
 4075 01c0 00       		.byte	0
 4076 01c1 1D       		.uleb128 0x1d
 4077 01c2 34       		.uleb128 0x34
 4078 01c3 00       		.byte	0
 4079 01c4 03       		.uleb128 0x3
 4080 01c5 0E       		.uleb128 0xe
 4081 01c6 3A       		.uleb128 0x3a
 4082 01c7 0B       		.uleb128 0xb
 4083 01c8 3B       		.uleb128 0x3b
 4084 01c9 05       		.uleb128 0x5
 4085 01ca 49       		.uleb128 0x49
 4086 01cb 13       		.uleb128 0x13
 4087 01cc 02       		.uleb128 0x2
 4088 01cd 18       		.uleb128 0x18
 4089 01ce 00       		.byte	0
 4090 01cf 00       		.byte	0
 4091 01d0 1E       		.uleb128 0x1e
 4092 01d1 2E       		.uleb128 0x2e
 4093 01d2 00       		.byte	0
 4094 01d3 3F       		.uleb128 0x3f
 4095 01d4 19       		.uleb128 0x19
 4096 01d5 03       		.uleb128 0x3
 4097 01d6 0E       		.uleb128 0xe
 4098 01d7 3A       		.uleb128 0x3a
 4099 01d8 0B       		.uleb128 0xb
 4100 01d9 3B       		.uleb128 0x3b
 4101 01da 05       		.uleb128 0x5
 4102 01db 11       		.uleb128 0x11
 4103 01dc 01       		.uleb128 0x1
 4104 01dd 12       		.uleb128 0x12
 4105 01de 06       		.uleb128 0x6
 4106 01df 40       		.uleb128 0x40
 4107 01e0 18       		.uleb128 0x18
 4108 01e1 9642     		.uleb128 0x2116
 4109 01e3 19       		.uleb128 0x19
 4110 01e4 00       		.byte	0
 4111 01e5 00       		.byte	0
 4112 01e6 1F       		.uleb128 0x1f
 4113 01e7 2E       		.uleb128 0x2e
 4114 01e8 01       		.byte	0x1
 4115 01e9 3F       		.uleb128 0x3f
 4116 01ea 19       		.uleb128 0x19
 4117 01eb 03       		.uleb128 0x3
 4118 01ec 0E       		.uleb128 0xe
 4119 01ed 3A       		.uleb128 0x3a
 4120 01ee 0B       		.uleb128 0xb
 4121 01ef 3B       		.uleb128 0x3b
 4122 01f0 05       		.uleb128 0x5
 4123 01f1 11       		.uleb128 0x11
 4124 01f2 01       		.uleb128 0x1
 4125 01f3 12       		.uleb128 0x12
 4126 01f4 06       		.uleb128 0x6
ARM GAS  C:\Users\hail\AppData\Local\Temp\ccotwkx9.s 			page 90


 4127 01f5 40       		.uleb128 0x40
 4128 01f6 18       		.uleb128 0x18
 4129 01f7 9642     		.uleb128 0x2116
 4130 01f9 19       		.uleb128 0x19
 4131 01fa 01       		.uleb128 0x1
 4132 01fb 13       		.uleb128 0x13
 4133 01fc 00       		.byte	0
 4134 01fd 00       		.byte	0
 4135 01fe 20       		.uleb128 0x20
 4136 01ff 2E       		.uleb128 0x2e
 4137 0200 00       		.byte	0
 4138 0201 3F       		.uleb128 0x3f
 4139 0202 19       		.uleb128 0x19
 4140 0203 03       		.uleb128 0x3
 4141 0204 0E       		.uleb128 0xe
 4142 0205 3A       		.uleb128 0x3a
 4143 0206 0B       		.uleb128 0xb
 4144 0207 3B       		.uleb128 0x3b
 4145 0208 05       		.uleb128 0x5
 4146 0209 49       		.uleb128 0x49
 4147 020a 13       		.uleb128 0x13
 4148 020b 11       		.uleb128 0x11
 4149 020c 01       		.uleb128 0x1
 4150 020d 12       		.uleb128 0x12
 4151 020e 06       		.uleb128 0x6
 4152 020f 40       		.uleb128 0x40
 4153 0210 18       		.uleb128 0x18
 4154 0211 9742     		.uleb128 0x2117
 4155 0213 19       		.uleb128 0x19
 4156 0214 00       		.byte	0
 4157 0215 00       		.byte	0
 4158 0216 21       		.uleb128 0x21
 4159 0217 34       		.uleb128 0x34
 4160 0218 00       		.byte	0
 4161 0219 03       		.uleb128 0x3
 4162 021a 0E       		.uleb128 0xe
 4163 021b 3A       		.uleb128 0x3a
 4164 021c 0B       		.uleb128 0xb
 4165 021d 3B       		.uleb128 0x3b
 4166 021e 05       		.uleb128 0x5
 4167 021f 49       		.uleb128 0x49
 4168 0220 13       		.uleb128 0x13
 4169 0221 3F       		.uleb128 0x3f
 4170 0222 19       		.uleb128 0x19
 4171 0223 3C       		.uleb128 0x3c
 4172 0224 19       		.uleb128 0x19
 4173 0225 00       		.byte	0
 4174 0226 00       		.byte	0
 4175 0227 22       		.uleb128 0x22
 4176 0228 35       		.uleb128 0x35
 4177 0229 00       		.byte	0
 4178 022a 49       		.uleb128 0x49
 4179 022b 13       		.uleb128 0x13
 4180 022c 00       		.byte	0
 4181 022d 00       		.byte	0
 4182 022e 23       		.uleb128 0x23
 4183 022f 34       		.uleb128 0x34
ARM GAS  C:\Users\hail\AppData\Local\Temp\ccotwkx9.s 			page 91


 4184 0230 00       		.byte	0
 4185 0231 03       		.uleb128 0x3
 4186 0232 0E       		.uleb128 0xe
 4187 0233 3A       		.uleb128 0x3a
 4188 0234 0B       		.uleb128 0xb
 4189 0235 3B       		.uleb128 0x3b
 4190 0236 0B       		.uleb128 0xb
 4191 0237 49       		.uleb128 0x49
 4192 0238 13       		.uleb128 0x13
 4193 0239 3F       		.uleb128 0x3f
 4194 023a 19       		.uleb128 0x19
 4195 023b 02       		.uleb128 0x2
 4196 023c 18       		.uleb128 0x18
 4197 023d 00       		.byte	0
 4198 023e 00       		.byte	0
 4199 023f 24       		.uleb128 0x24
 4200 0240 21       		.uleb128 0x21
 4201 0241 00       		.byte	0
 4202 0242 49       		.uleb128 0x49
 4203 0243 13       		.uleb128 0x13
 4204 0244 2F       		.uleb128 0x2f
 4205 0245 05       		.uleb128 0x5
 4206 0246 00       		.byte	0
 4207 0247 00       		.byte	0
 4208 0248 00       		.byte	0
 4209              		.section	.debug_aranges,"",%progbits
 4210 0000 C4000000 		.4byte	0xc4
 4211 0004 0200     		.2byte	0x2
 4212 0006 00000000 		.4byte	.Ldebug_info0
 4213 000a 04       		.byte	0x4
 4214 000b 00       		.byte	0
 4215 000c 0000     		.2byte	0
 4216 000e 0000     		.2byte	0
 4217 0010 00000000 		.4byte	.LFB64
 4218 0014 3C000000 		.4byte	.LFE64-.LFB64
 4219 0018 00000000 		.4byte	.LFB65
 4220 001c 54000000 		.4byte	.LFE65-.LFB65
 4221 0020 00000000 		.4byte	.LFB66
 4222 0024 32000000 		.4byte	.LFE66-.LFB66
 4223 0028 00000000 		.4byte	.LFB67
 4224 002c 20000000 		.4byte	.LFE67-.LFB67
 4225 0030 00000000 		.4byte	.LFB68
 4226 0034 40000000 		.4byte	.LFE68-.LFB68
 4227 0038 00000000 		.4byte	.LFB69
 4228 003c DC000000 		.4byte	.LFE69-.LFB69
 4229 0040 00000000 		.4byte	.LFB70
 4230 0044 1C000000 		.4byte	.LFE70-.LFB70
 4231 0048 00000000 		.4byte	.LFB71
 4232 004c 28000000 		.4byte	.LFE71-.LFB71
 4233 0050 00000000 		.4byte	.LFB72
 4234 0054 C8000000 		.4byte	.LFE72-.LFB72
 4235 0058 00000000 		.4byte	.LFB73
 4236 005c FC000000 		.4byte	.LFE73-.LFB73
 4237 0060 00000000 		.4byte	.LFB74
 4238 0064 78000000 		.4byte	.LFE74-.LFB74
 4239 0068 00000000 		.4byte	.LFB75
 4240 006c 08010000 		.4byte	.LFE75-.LFB75
ARM GAS  C:\Users\hail\AppData\Local\Temp\ccotwkx9.s 			page 92


 4241 0070 00000000 		.4byte	.LFB76
 4242 0074 A0000000 		.4byte	.LFE76-.LFB76
 4243 0078 00000000 		.4byte	.LFB77
 4244 007c 1C000000 		.4byte	.LFE77-.LFB77
 4245 0080 00000000 		.4byte	.LFB78
 4246 0084 28000000 		.4byte	.LFE78-.LFB78
 4247 0088 00000000 		.4byte	.LFB79
 4248 008c B4000000 		.4byte	.LFE79-.LFB79
 4249 0090 00000000 		.4byte	.LFB80
 4250 0094 38010000 		.4byte	.LFE80-.LFB80
 4251 0098 00000000 		.4byte	.LFB81
 4252 009c 44010000 		.4byte	.LFE81-.LFB81
 4253 00a0 00000000 		.4byte	.LFB82
 4254 00a4 14000000 		.4byte	.LFE82-.LFB82
 4255 00a8 00000000 		.4byte	.LFB83
 4256 00ac 1A000000 		.4byte	.LFE83-.LFB83
 4257 00b0 00000000 		.4byte	.LFB84
 4258 00b4 2A000000 		.4byte	.LFE84-.LFB84
 4259 00b8 00000000 		.4byte	.LFB85
 4260 00bc 7C020000 		.4byte	.LFE85-.LFB85
 4261 00c0 00000000 		.4byte	0
 4262 00c4 00000000 		.4byte	0
 4263              		.section	.debug_ranges,"",%progbits
 4264              	.Ldebug_ranges0:
 4265 0000 00000000 		.4byte	.LFB64
 4266 0004 3C000000 		.4byte	.LFE64
 4267 0008 00000000 		.4byte	.LFB65
 4268 000c 54000000 		.4byte	.LFE65
 4269 0010 00000000 		.4byte	.LFB66
 4270 0014 32000000 		.4byte	.LFE66
 4271 0018 00000000 		.4byte	.LFB67
 4272 001c 20000000 		.4byte	.LFE67
 4273 0020 00000000 		.4byte	.LFB68
 4274 0024 40000000 		.4byte	.LFE68
 4275 0028 00000000 		.4byte	.LFB69
 4276 002c DC000000 		.4byte	.LFE69
 4277 0030 00000000 		.4byte	.LFB70
 4278 0034 1C000000 		.4byte	.LFE70
 4279 0038 00000000 		.4byte	.LFB71
 4280 003c 28000000 		.4byte	.LFE71
 4281 0040 00000000 		.4byte	.LFB72
 4282 0044 C8000000 		.4byte	.LFE72
 4283 0048 00000000 		.4byte	.LFB73
 4284 004c FC000000 		.4byte	.LFE73
 4285 0050 00000000 		.4byte	.LFB74
 4286 0054 78000000 		.4byte	.LFE74
 4287 0058 00000000 		.4byte	.LFB75
 4288 005c 08010000 		.4byte	.LFE75
 4289 0060 00000000 		.4byte	.LFB76
 4290 0064 A0000000 		.4byte	.LFE76
 4291 0068 00000000 		.4byte	.LFB77
 4292 006c 1C000000 		.4byte	.LFE77
 4293 0070 00000000 		.4byte	.LFB78
 4294 0074 28000000 		.4byte	.LFE78
 4295 0078 00000000 		.4byte	.LFB79
 4296 007c B4000000 		.4byte	.LFE79
 4297 0080 00000000 		.4byte	.LFB80
ARM GAS  C:\Users\hail\AppData\Local\Temp\ccotwkx9.s 			page 93


 4298 0084 38010000 		.4byte	.LFE80
 4299 0088 00000000 		.4byte	.LFB81
 4300 008c 44010000 		.4byte	.LFE81
 4301 0090 00000000 		.4byte	.LFB82
 4302 0094 14000000 		.4byte	.LFE82
 4303 0098 00000000 		.4byte	.LFB83
 4304 009c 1A000000 		.4byte	.LFE83
 4305 00a0 00000000 		.4byte	.LFB84
 4306 00a4 2A000000 		.4byte	.LFE84
 4307 00a8 00000000 		.4byte	.LFB85
 4308 00ac 7C020000 		.4byte	.LFE85
 4309 00b0 00000000 		.4byte	0
 4310 00b4 00000000 		.4byte	0
 4311              		.section	.debug_line,"",%progbits
 4312              	.Ldebug_line0:
 4313 0000 ED040000 		.section	.debug_str,"MS",%progbits,1
 4313      0200EF01 
 4313      00000201 
 4313      FB0E0D00 
 4313      01010101 
 4314              	.LASF109:
 4315 0000 676D745F 		.ascii	"gmt_offset\000"
 4315      6F666673 
 4315      657400
 4316              	.LASF16:
 4317 000b 75696E74 		.ascii	"uint16\000"
 4317      313600
 4318              	.LASF51:
 4319 0012 76616C75 		.ascii	"value\000"
 4319      6500
 4320              	.LASF26:
 4321 0018 746D5F68 		.ascii	"tm_hour\000"
 4321      6F757200 
 4322              	.LASF31:
 4323 0020 746D5F79 		.ascii	"tm_yday\000"
 4323      64617900 
 4324              	.LASF4:
 4325 0028 5F5F7569 		.ascii	"__uint8_t\000"
 4325      6E74385F 
 4325      7400
 4326              	.LASF46:
 4327 0032 6C6F6E67 		.ascii	"longitude\000"
 4327      69747564 
 4327      6500
 4328              	.LASF130:
 4329 003c 474E5520 		.ascii	"GNU C11 5.4.1 20160609 (release) [ARM/embedded-5-br"
 4329      43313120 
 4329      352E342E 
 4329      31203230 
 4329      31363036 
 4330 006f 616E6368 		.ascii	"anch revision 237715] -mcpu=cortex-m3 -mthumb -g -O"
 4330      20726576 
 4330      6973696F 
 4330      6E203233 
 4330      37373135 
 4331 00a2 30202D66 		.ascii	"0 -ffunction-sections -ffat-lto-objects\000"
 4331      66756E63 
ARM GAS  C:\Users\hail\AppData\Local\Temp\ccotwkx9.s 			page 94


 4331      74696F6E 
 4331      2D736563 
 4331      74696F6E 
 4332              	.LASF112:
 4333 00ca 6D6F6465 		.ascii	"modem_wakeup\000"
 4333      6D5F7761 
 4333      6B657570 
 4333      00
 4334              	.LASF10:
 4335 00d7 6C6F6E67 		.ascii	"long long unsigned int\000"
 4335      206C6F6E 
 4335      6720756E 
 4335      7369676E 
 4335      65642069 
 4336              	.LASF118:
 4337 00ee 6D6F6465 		.ascii	"modem_state\000"
 4337      6D5F7374 
 4337      61746500 
 4338              	.LASF84:
 4339 00fa 74657374 		.ascii	"test\000"
 4339      00
 4340              	.LASF117:
 4341 00ff 49544D5F 		.ascii	"ITM_RxBuffer\000"
 4341      52784275 
 4341      66666572 
 4341      00
 4342              	.LASF120:
 4343 010c 6D6F6465 		.ascii	"modem_stats\000"
 4343      6D5F7374 
 4343      61747300 
 4344              	.LASF9:
 4345 0118 6C6F6E67 		.ascii	"long long int\000"
 4345      206C6F6E 
 4345      6720696E 
 4345      7400
 4346              	.LASF0:
 4347 0126 7369676E 		.ascii	"signed char\000"
 4347      65642063 
 4347      68617200 
 4348              	.LASF42:
 4349 0132 74696D65 		.ascii	"time_to_network_connect\000"
 4349      5F746F5F 
 4349      6E657477 
 4349      6F726B5F 
 4349      636F6E6E 
 4350              	.LASF124:
 4351 014a 68747470 		.ascii	"http_body\000"
 4351      5F626F64 
 4351      7900
 4352              	.LASF96:
 4353 0154 7365745F 		.ascii	"set_up_internet_connection\000"
 4353      75705F69 
 4353      6E746572 
 4353      6E65745F 
 4353      636F6E6E 
 4354              	.LASF108:
 4355 016f 7365636F 		.ascii	"second\000"
ARM GAS  C:\Users\hail\AppData\Local\Temp\ccotwkx9.s 			page 95


 4355      6E6400
 4356              	.LASF104:
 4357 0176 79656172 		.ascii	"year\000"
 4357      00
 4358              	.LASF6:
 4359 017b 6C6F6E67 		.ascii	"long int\000"
 4359      20696E74 
 4359      00
 4360              	.LASF110:
 4361 0184 6D6F6465 		.ascii	"modem_get_state\000"
 4361      6D5F6765 
 4361      745F7374 
 4361      61746500 
 4362              	.LASF47:
 4363 0194 616C7469 		.ascii	"altitude\000"
 4363      74756465 
 4363      00
 4364              	.LASF15:
 4365 019d 75696E74 		.ascii	"uint8\000"
 4365      3800
 4366              	.LASF57:
 4367 01a3 6E6F6465 		.ascii	"node_id\000"
 4367      5F696400 
 4368              	.LASF20:
 4369 01ab 646F7562 		.ascii	"double\000"
 4369      6C6500
 4370              	.LASF18:
 4371 01b2 696E7433 		.ascii	"int32\000"
 4371      3200
 4372              	.LASF100:
 4373 01b8 6D6F6465 		.ascii	"modem_configure_settings\000"
 4373      6D5F636F 
 4373      6E666967 
 4373      7572655F 
 4373      73657474 
 4374              	.LASF85:
 4375 01d1 6E657477 		.ascii	"network_time\000"
 4375      6F726B5F 
 4375      74696D65 
 4375      00
 4376              	.LASF3:
 4377 01de 73686F72 		.ascii	"short unsigned int\000"
 4377      7420756E 
 4377      7369676E 
 4377      65642069 
 4377      6E7400
 4378              	.LASF17:
 4379 01f1 75696E74 		.ascii	"uint32\000"
 4379      333200
 4380              	.LASF81:
 4381 01f8 696E7465 		.ascii	"interval\000"
 4381      7276616C 
 4381      00
 4382              	.LASF7:
 4383 0201 5F5F7569 		.ascii	"__uint32_t\000"
 4383      6E743332 
 4383      5F7400
ARM GAS  C:\Users\hail\AppData\Local\Temp\ccotwkx9.s 			page 96


 4384              	.LASF102:
 4385 020c 6D6F6465 		.ascii	"modem_get_network_time\000"
 4385      6D5F6765 
 4385      745F6E65 
 4385      74776F72 
 4385      6B5F7469 
 4386              	.LASF28:
 4387 0223 746D5F6D 		.ascii	"tm_mon\000"
 4387      6F6E00
 4388              	.LASF61:
 4389 022a 65705F70 		.ascii	"ep_pswd\000"
 4389      73776400 
 4390              	.LASF111:
 4391 0232 6D6F6465 		.ascii	"modem_sleep\000"
 4391      6D5F736C 
 4391      65657000 
 4392              	.LASF29:
 4393 023e 746D5F79 		.ascii	"tm_year\000"
 4393      65617200 
 4394              	.LASF105:
 4395 0246 6D6F6E74 		.ascii	"month\000"
 4395      6800
 4396              	.LASF66:
 4397 024c 70696E73 		.ascii	"pins_configure_active\000"
 4397      5F636F6E 
 4397      66696775 
 4397      72655F61 
 4397      63746976 
 4398              	.LASF53:
 4399 0262 6B65795F 		.ascii	"key_value_t\000"
 4399      76616C75 
 4399      655F7400 
 4400              	.LASF72:
 4401 026e 7077725F 		.ascii	"pwr_check\000"
 4401      63686563 
 4401      6B00
 4402              	.LASF8:
 4403 0278 6C6F6E67 		.ascii	"long unsigned int\000"
 4403      20756E73 
 4403      69676E65 
 4403      6420696E 
 4403      7400
 4404              	.LASF87:
 4405 028a 65787472 		.ascii	"extract_string\000"
 4405      6163745F 
 4405      73747269 
 4405      6E6700
 4406              	.LASF64:
 4407 0299 6D6F6465 		.ascii	"modem_intilize\000"
 4407      6D5F696E 
 4407      74696C69 
 4407      7A6500
 4408              	.LASF77:
 4409 02a8 74696D65 		.ascii	"timeout\000"
 4409      6F757400 
 4410              	.LASF99:
 4411 02b0 6765745F 		.ascii	"get_cell_network_stats\000"
ARM GAS  C:\Users\hail\AppData\Local\Temp\ccotwkx9.s 			page 97


 4411      63656C6C 
 4411      5F6E6574 
 4411      776F726B 
 4411      5F737461 
 4412              	.LASF48:
 4413 02c7 74696D65 		.ascii	"time_to_lock\000"
 4413      5F746F5F 
 4413      6C6F636B 
 4413      00
 4414              	.LASF122:
 4415 02d4 64617461 		.ascii	"data\000"
 4415      00
 4416              	.LASF60:
 4417 02d9 65705F75 		.ascii	"ep_user\000"
 4417      73657200 
 4418              	.LASF59:
 4419 02e1 65705F70 		.ascii	"ep_port\000"
 4419      6F727400 
 4420              	.LASF32:
 4421 02e9 746D5F69 		.ascii	"tm_isdst\000"
 4421      73647374 
 4421      00
 4422              	.LASF54:
 4423 02f2 6D6F6465 		.ascii	"modem_info\000"
 4423      6D5F696E 
 4423      666F00
 4424              	.LASF58:
 4425 02fd 65705F68 		.ascii	"ep_host\000"
 4425      6F737400 
 4426              	.LASF82:
 4427 0305 6D6F6465 		.ascii	"modem_power_up\000"
 4427      6D5F706F 
 4427      7765725F 
 4427      757000
 4428              	.LASF131:
 4429 0314 6D6F6465 		.ascii	"modem.c\000"
 4429      6D2E6300 
 4430              	.LASF89:
 4431 031c 62656769 		.ascii	"beginMarker\000"
 4431      6E4D6172 
 4431      6B657200 
 4432              	.LASF91:
 4433 0328 74617267 		.ascii	"target\000"
 4433      657400
 4434              	.LASF43:
 4435 032f 74696D65 		.ascii	"time_to_acquire_ip\000"
 4435      5F746F5F 
 4435      61637175 
 4435      6972655F 
 4435      697000
 4436              	.LASF90:
 4437 0342 656E644D 		.ascii	"endMarker\000"
 4437      61726B65 
 4437      7200
 4438              	.LASF2:
 4439 034c 73686F72 		.ascii	"short int\000"
 4439      7420696E 
ARM GAS  C:\Users\hail\AppData\Local\Temp\ccotwkx9.s 			page 98


 4439      7400
 4440              	.LASF103:
 4441 0356 65706F63 		.ascii	"epoch_time\000"
 4441      685F7469 
 4441      6D6500
 4442              	.LASF5:
 4443 0361 5F5F696E 		.ascii	"__int32_t\000"
 4443      7433325F 
 4443      7400
 4444              	.LASF88:
 4445 036b 66726F6D 		.ascii	"from\000"
 4445      00
 4446              	.LASF95:
 4447 0370 63726567 		.ascii	"creg\000"
 4447      00
 4448              	.LASF78:
 4449 0375 61745F61 		.ascii	"at_attempt\000"
 4449      7474656D 
 4449      707400
 4450              	.LASF86:
 4451 0380 61745F77 		.ascii	"at_write_command\000"
 4451      72697465 
 4451      5F636F6D 
 4451      6D616E64 
 4451      00
 4452              	.LASF56:
 4453 0391 7379735F 		.ascii	"sys_info_t\000"
 4453      696E666F 
 4453      5F7400
 4454              	.LASF121:
 4455 039c 64617461 		.ascii	"dataPointsInStack\000"
 4455      506F696E 
 4455      7473496E 
 4455      53746163 
 4455      6B00
 4456              	.LASF113:
 4457 03ae 6D6F6465 		.ascii	"modem_get_gps_coordinates\000"
 4457      6D5F6765 
 4457      745F6770 
 4457      735F636F 
 4457      6F726469 
 4458              	.LASF25:
 4459 03c8 746D5F6D 		.ascii	"tm_min\000"
 4459      696E00
 4460              	.LASF23:
 4461 03cf 73697A65 		.ascii	"sizetype\000"
 4461      74797065 
 4461      00
 4462              	.LASF94:
 4463 03d8 69735F63 		.ascii	"is_connected_to_cell_network\000"
 4463      6F6E6E65 
 4463      63746564 
 4463      5F746F5F 
 4463      63656C6C 
 4464              	.LASF128:
 4465 03f5 75617274 		.ascii	"uart_received_string\000"
 4465      5F726563 
ARM GAS  C:\Users\hail\AppData\Local\Temp\ccotwkx9.s 			page 99


 4465      65697665 
 4465      645F7374 
 4465      72696E67 
 4466              	.LASF45:
 4467 040a 6C617469 		.ascii	"latitude\000"
 4467      74756465 
 4467      00
 4468              	.LASF33:
 4469 0413 74657374 		.ascii	"test_name\000"
 4469      5F6E616D 
 4469      6500
 4470              	.LASF83:
 4471 041d 6D6F6465 		.ascii	"modem_test\000"
 4471      6D5F7465 
 4471      737400
 4472              	.LASF116:
 4473 0428 6D617463 		.ascii	"match\000"
 4473      6800
 4474              	.LASF106:
 4475 042e 686F7572 		.ascii	"hour\000"
 4475      00
 4476              	.LASF75:
 4477 0433 636F6D6D 		.ascii	"commands\000"
 4477      616E6473 
 4477      00
 4478              	.LASF79:
 4479 043c 636F6D70 		.ascii	"compare_location\000"
 4479      6172655F 
 4479      6C6F6361 
 4479      74696F6E 
 4479      00
 4480              	.LASF19:
 4481 044d 666C6F61 		.ascii	"float\000"
 4481      7400
 4482              	.LASF98:
 4483 0453 746F6B65 		.ascii	"token\000"
 4483      6E00
 4484              	.LASF69:
 4485 0459 61747465 		.ascii	"attemps\000"
 4485      6D707300 
 4486              	.LASF92:
 4487 0461 6973725F 		.ascii	"isr_telit_rx\000"
 4487      74656C69 
 4487      745F7278 
 4487      00
 4488              	.LASF13:
 4489 046e 696E7433 		.ascii	"int32_t\000"
 4489      325F7400 
 4490              	.LASF1:
 4491 0476 756E7369 		.ascii	"unsigned char\000"
 4491      676E6564 
 4491      20636861 
 4491      7200
 4492              	.LASF127:
 4493 0484 73797374 		.ascii	"system_settings\000"
 4493      656D5F73 
 4493      65747469 
ARM GAS  C:\Users\hail\AppData\Local\Temp\ccotwkx9.s 			page 100


 4493      6E677300 
 4494              	.LASF80:
 4495 0494 64656C61 		.ascii	"delay\000"
 4495      7900
 4496              	.LASF132:
 4497 049a 433A5C55 		.ascii	"C:\\Users\\hail\\Desktop\\Brooke Research\\notoriOS"
 4497      73657273 
 4497      5C686169 
 4497      6C5C4465 
 4497      736B746F 
 4498 04c8 5C6E6F74 		.ascii	"\\notoriOS\\notoriOS\\notoriOS.cydsn\000"
 4498      6F72694F 
 4498      535C6E6F 
 4498      746F7269 
 4498      4F535C6E 
 4499              	.LASF36:
 4500 04ea 74657374 		.ascii	"test_t\000"
 4500      5F7400
 4501              	.LASF126:
 4502 04f1 73797374 		.ascii	"system_info\000"
 4502      656D5F69 
 4502      6E666F00 
 4503              	.LASF39:
 4504 04fd 696D6569 		.ascii	"imei\000"
 4504      00
 4505              	.LASF35:
 4506 0502 72656173 		.ascii	"reason\000"
 4506      6F6E00
 4507              	.LASF44:
 4508 0509 6D6F6465 		.ascii	"modem_stats_t\000"
 4508      6D5F7374 
 4508      6174735F 
 4508      7400
 4509              	.LASF74:
 4510 0517 75617274 		.ascii	"uart_string_reset\000"
 4510      5F737472 
 4510      696E675F 
 4510      72657365 
 4510      7400
 4511              	.LASF30:
 4512 0529 746D5F77 		.ascii	"tm_wday\000"
 4512      64617900 
 4513              	.LASF73:
 4514 0531 6D6F6465 		.ascii	"modem_soft_power_cycle\000"
 4514      6D5F736F 
 4514      66745F70 
 4514      6F776572 
 4514      5F637963 
 4515              	.LASF22:
 4516 0548 6C6F6E67 		.ascii	"long double\000"
 4516      20646F75 
 4516      626C6500 
 4517              	.LASF21:
 4518 0554 63686172 		.ascii	"char\000"
 4518      00
 4519              	.LASF93:
 4520 0559 6D6F6465 		.ascii	"modem_process_tasks\000"
ARM GAS  C:\Users\hail\AppData\Local\Temp\ccotwkx9.s 			page 101


 4520      6D5F7072 
 4520      6F636573 
 4520      735F7461 
 4520      736B7300 
 4521              	.LASF11:
 4522 056d 756E7369 		.ascii	"unsigned int\000"
 4522      676E6564 
 4522      20696E74 
 4522      00
 4523              	.LASF101:
 4524 057a 4346554E 		.ascii	"CFUN\000"
 4524      00
 4525              	.LASF38:
 4526 057f 6D6F6465 		.ascii	"model_id\000"
 4526      6C5F6964 
 4526      00
 4527              	.LASF125:
 4528 0588 68747470 		.ascii	"http_route\000"
 4528      5F726F75 
 4528      746500
 4529              	.LASF40:
 4530 0593 6D6F6465 		.ascii	"modem_info_t\000"
 4530      6D5F696E 
 4530      666F5F74 
 4530      00
 4531              	.LASF50:
 4532 05a0 6770735F 		.ascii	"gps_t\000"
 4532      7400
 4533              	.LASF129:
 4534 05a6 75617274 		.ascii	"uart_string_index\000"
 4534      5F737472 
 4534      696E675F 
 4534      696E6465 
 4534      7800
 4535              	.LASF97:
 4536 05b8 69735F63 		.ascii	"is_connected_to_internet\000"
 4536      6F6E6E65 
 4536      63746564 
 4536      5F746F5F 
 4536      696E7465 
 4537              	.LASF119:
 4538 05d1 6D6F6465 		.ascii	"modem_start_time_stamp\000"
 4538      6D5F7374 
 4538      6172745F 
 4538      74696D65 
 4538      5F737461 
 4539              	.LASF115:
 4540 05e8 6770735F 		.ascii	"gps_status\000"
 4540      73746174 
 4540      757300
 4541              	.LASF65:
 4542 05f3 70696E73 		.ascii	"pins_configure_inactive\000"
 4542      5F636F6E 
 4542      66696775 
 4542      72655F69 
 4542      6E616374 
 4543              	.LASF37:
ARM GAS  C:\Users\hail\AppData\Local\Temp\ccotwkx9.s 			page 102


 4544 060b 73696D5F 		.ascii	"sim_id\000"
 4544      696400
 4545              	.LASF55:
 4546 0612 63686970 		.ascii	"chip_uniqueId\000"
 4546      5F756E69 
 4546      71756549 
 4546      6400
 4547              	.LASF27:
 4548 0620 746D5F6D 		.ascii	"tm_mday\000"
 4548      64617900 
 4549              	.LASF49:
 4550 0628 76616C69 		.ascii	"valid\000"
 4550      6400
 4551              	.LASF107:
 4552 062e 6D696E75 		.ascii	"minute\000"
 4552      746500
 4553              	.LASF14:
 4554 0635 75696E74 		.ascii	"uint32_t\000"
 4554      33325F74 
 4554      00
 4555              	.LASF24:
 4556 063e 746D5F73 		.ascii	"tm_sec\000"
 4556      656300
 4557              	.LASF34:
 4558 0645 73746174 		.ascii	"status\000"
 4558      757300
 4559              	.LASF63:
 4560 064c 7379735F 		.ascii	"sys_settings_t\000"
 4560      73657474 
 4560      696E6773 
 4560      5F7400
 4561              	.LASF12:
 4562 065b 75696E74 		.ascii	"uint8_t\000"
 4562      385F7400 
 4563              	.LASF62:
 4564 0663 65705F64 		.ascii	"ep_database\000"
 4564      61746162 
 4564      61736500 
 4565              	.LASF68:
 4566 066f 61745F72 		.ascii	"at_ready\000"
 4566      65616479 
 4566      00
 4567              	.LASF71:
 4568 0678 61747465 		.ascii	"attempts\000"
 4568      6D707473 
 4568      00
 4569              	.LASF70:
 4570 0681 626F6F74 		.ascii	"boot_time\000"
 4570      5F74696D 
 4570      6500
 4571              	.LASF76:
 4572 068b 65787065 		.ascii	"expected_response\000"
 4572      63746564 
 4572      5F726573 
 4572      706F6E73 
 4572      6500
 4573              	.LASF41:
ARM GAS  C:\Users\hail\AppData\Local\Temp\ccotwkx9.s 			page 103


 4574 069d 72737369 		.ascii	"rssi\000"
 4574      00
 4575              	.LASF114:
 4576 06a2 6C6F636B 		.ascii	"lock_time\000"
 4576      5F74696D 
 4576      6500
 4577              	.LASF123:
 4578 06ac 68747470 		.ascii	"http_request\000"
 4578      5F726571 
 4578      75657374 
 4578      00
 4579              	.LASF67:
 4580 06b9 6D6F6465 		.ascii	"modem_power_down\000"
 4580      6D5F706F 
 4580      7765725F 
 4580      646F776E 
 4580      00
 4581              	.LASF52:
 4582 06ca 74696D65 		.ascii	"timeStamp\000"
 4582      5374616D 
 4582      7000
 4583              		.ident	"GCC: (GNU Tools for ARM Embedded Processors) 5.4.1 20160609 (release) [ARM/embedded-5-bran
