ARM GAS  C:\Users\HYFI_A~1\AppData\Local\Temp\ccBuuRJ5.s 			page 1


   1              		.syntax unified
   2              		.cpu cortex-m3
   3              		.fpu softvfp
   4              		.eabi_attribute 20, 1
   5              		.eabi_attribute 21, 1
   6              		.eabi_attribute 23, 3
   7              		.eabi_attribute 24, 1
   8              		.eabi_attribute 25, 1
   9              		.eabi_attribute 26, 1
  10              		.eabi_attribute 30, 6
  11              		.eabi_attribute 34, 1
  12              		.eabi_attribute 18, 4
  13              		.thumb
  14              		.syntax unified
  15              		.file	"modem.c"
  16              		.text
  17              	.Ltext0:
  18              		.cfi_sections	.debug_frame
  19              		.comm	modem_state,1,1
  20              		.comm	modem_start_time_stamp,4,4
  21              		.comm	modem_info,60,4
  22              		.comm	modem_stats,12,4
  23              		.syntax unified
  24              		.global _printf_float
  25              		.thumb
  26              		.syntax unified
  27              		.comm	dataPointsInStack,2,2
  28              		.comm	data,4400,4
  29              		.comm	http_request,1000,4
  30              		.comm	http_body,7000,4
  31              		.comm	http_route,200,4
  32              		.comm	system_info,28,4
  33              		.comm	system_settings,324,4
  34              		.comm	uart_received_string,1024,4
  35              		.global	uart_string_index
  36              		.bss
  37              		.type	uart_string_index, %object
  38              		.size	uart_string_index, 1
  39              	uart_string_index:
  40 0000 00       		.space	1
  41              		.section	.text.isr_telit_rx,"ax",%progbits
  42              		.align	2
  43              		.global	isr_telit_rx
  44              		.thumb
  45              		.thumb_func
  46              		.type	isr_telit_rx, %function
  47              	isr_telit_rx:
  48              	.LFB64:
  49              		.file 1 "modem.c"
   1:modem.c       **** //Methods for Telit modem 
   2:modem.c       **** #include "modem.h"
   3:modem.c       **** #include "notoriOS.h"
   4:modem.c       **** #include "debug.h"
   5:modem.c       **** 
   6:modem.c       **** char uart_received_string[1024];
   7:modem.c       **** uint8_t uart_string_index=0;
   8:modem.c       **** 
ARM GAS  C:\Users\HYFI_A~1\AppData\Local\Temp\ccBuuRJ5.s 			page 2


   9:modem.c       **** #define DEFAULT_AT_TIMEOUT 2000u
  10:modem.c       **** #define NO_AT_TIMEOUT 0u
  11:modem.c       **** 
  12:modem.c       **** #define TIMEOUT_NETWORK_CONNECT 200 //seconds
  13:modem.c       **** #define TIMEOUT_IP_ACQUIRE 230 //seconds (cummulatinve) add to TIMEOUT_NETWORK_CONNECT
  14:modem.c       **** 
  15:modem.c       **** CY_ISR_PROTO(isr_telit_rx);
  16:modem.c       **** 
  17:modem.c       **** CY_ISR(isr_telit_rx){      
  50              		.loc 1 17 0
  51              		.cfi_startproc
  52              		@ args = 0, pretend = 0, frame = 0
  53              		@ frame_needed = 1, uses_anonymous_args = 0
  54 0000 98B5     		push	{r3, r4, r7, lr}
  55              		.cfi_def_cfa_offset 16
  56              		.cfi_offset 3, -16
  57              		.cfi_offset 4, -12
  58              		.cfi_offset 7, -8
  59              		.cfi_offset 14, -4
  60 0002 00AF     		add	r7, sp, #0
  61              		.cfi_def_cfa_register 7
  18:modem.c       ****     while(UART_Telit_GetRxBufferSize()==1){
  62              		.loc 1 18 0
  63 0004 0EE0     		b	.L2
  64              	.L3:
  19:modem.c       ****         uart_received_string[uart_string_index]=UART_Telit_GetChar();
  65              		.loc 1 19 0
  66 0006 0B4B     		ldr	r3, .L4
  67 0008 1B78     		ldrb	r3, [r3]	@ zero_extendqisi2
  68 000a 1C46     		mov	r4, r3
  69 000c FFF7FEFF 		bl	UART_Telit_GetChar
  70 0010 0346     		mov	r3, r0
  71 0012 1A46     		mov	r2, r3
  72 0014 084B     		ldr	r3, .L4+4
  73 0016 1A55     		strb	r2, [r3, r4]
  20:modem.c       ****         uart_string_index++;
  74              		.loc 1 20 0
  75 0018 064B     		ldr	r3, .L4
  76 001a 1B78     		ldrb	r3, [r3]	@ zero_extendqisi2
  77 001c 0133     		adds	r3, r3, #1
  78 001e DAB2     		uxtb	r2, r3
  79 0020 044B     		ldr	r3, .L4
  80 0022 1A70     		strb	r2, [r3]
  81              	.L2:
  18:modem.c       ****     while(UART_Telit_GetRxBufferSize()==1){
  82              		.loc 1 18 0
  83 0024 FFF7FEFF 		bl	UART_Telit_GetRxBufferSize
  84 0028 0346     		mov	r3, r0
  85 002a 012B     		cmp	r3, #1
  86 002c EBD0     		beq	.L3
  21:modem.c       ****     }
  22:modem.c       **** 
  23:modem.c       **** }
  87              		.loc 1 23 0
  88 002e 00BF     		nop
  89 0030 98BD     		pop	{r3, r4, r7, pc}
  90              	.L5:
ARM GAS  C:\Users\HYFI_A~1\AppData\Local\Temp\ccBuuRJ5.s 			page 3


  91 0032 00BF     		.align	2
  92              	.L4:
  93 0034 00000000 		.word	uart_string_index
  94 0038 00000000 		.word	uart_received_string
  95              		.cfi_endproc
  96              	.LFE64:
  97              		.size	isr_telit_rx, .-isr_telit_rx
  98              		.section	.text.modem_intilize,"ax",%progbits
  99              		.align	2
 100              		.global	modem_intilize
 101              		.thumb
 102              		.thumb_func
 103              		.type	modem_intilize, %function
 104              	modem_intilize:
 105              	.LFB65:
  24:modem.c       **** 
  25:modem.c       **** 
  26:modem.c       **** void modem_intilize(){
 106              		.loc 1 26 0
 107              		.cfi_startproc
 108              		@ args = 0, pretend = 0, frame = 0
 109              		@ frame_needed = 1, uses_anonymous_args = 0
 110 0000 80B5     		push	{r7, lr}
 111              		.cfi_def_cfa_offset 8
 112              		.cfi_offset 7, -8
 113              		.cfi_offset 14, -4
 114 0002 00AF     		add	r7, sp, #0
 115              		.cfi_def_cfa_register 7
  27:modem.c       ****     //don't do much except make sure that all the modem pins are pulled low
  28:modem.c       ****     //also make sure that the TX PIN is fully disabled
  29:modem.c       ****     pins_configure_inactive();
 116              		.loc 1 29 0
 117 0004 FFF7FEFF 		bl	pins_configure_inactive
  30:modem.c       ****     modem_state = 0;
 118              		.loc 1 30 0
 119 0008 0F4B     		ldr	r3, .L7
 120 000a 0022     		movs	r2, #0
 121 000c 1A70     		strb	r2, [r3]
  31:modem.c       ****     //initilize states
  32:modem.c       ****     modem_info.imei[0] = '\0';
 122              		.loc 1 32 0
 123 000e 0F4B     		ldr	r3, .L7+4
 124 0010 0022     		movs	r2, #0
 125 0012 83F82820 		strb	r2, [r3, #40]
  33:modem.c       ****     modem_info.model_id[0] = '\0';
 126              		.loc 1 33 0
 127 0016 0D4B     		ldr	r3, .L7+4
 128 0018 0022     		movs	r2, #0
 129 001a 1A75     		strb	r2, [r3, #20]
  34:modem.c       ****     modem_info.sim_id[0] = '\0';
 130              		.loc 1 34 0
 131 001c 0B4B     		ldr	r3, .L7+4
 132 001e 0022     		movs	r2, #0
 133 0020 1A70     		strb	r2, [r3]
  35:modem.c       ****     modem_stats.sq = 0;
 134              		.loc 1 35 0
 135 0022 0B4B     		ldr	r3, .L7+8
ARM GAS  C:\Users\HYFI_A~1\AppData\Local\Temp\ccBuuRJ5.s 			page 4


 136 0024 0022     		movs	r2, #0
 137 0026 5A70     		strb	r2, [r3, #1]
  36:modem.c       ****     modem_stats.rssi = 0;
 138              		.loc 1 36 0
 139 0028 094B     		ldr	r3, .L7+8
 140 002a 0022     		movs	r2, #0
 141 002c 1A70     		strb	r2, [r3]
  37:modem.c       ****     modem_stats.time_to_acquire_ip = 0;
 142              		.loc 1 37 0
 143 002e 084B     		ldr	r3, .L7+8
 144 0030 0022     		movs	r2, #0
 145 0032 9A60     		str	r2, [r3, #8]
  38:modem.c       ****     modem_stats.time_to_network_connect = 0;
 146              		.loc 1 38 0
 147 0034 064B     		ldr	r3, .L7+8
 148 0036 0022     		movs	r2, #0
 149 0038 5A60     		str	r2, [r3, #4]
  39:modem.c       ****     //disable the RX Pin interrupt, and only enable it during long timeouts
  40:modem.c       ****     Rx_Telit_SetInterruptMode(Rx_Telit_0_INTR,Rx_Telit_INTR_NONE);
 150              		.loc 1 40 0
 151 003a 0021     		movs	r1, #0
 152 003c 4020     		movs	r0, #64
 153 003e FFF7FEFF 		bl	Rx_Telit_SetInterruptMode
  41:modem.c       ****     
  42:modem.c       **** }
 154              		.loc 1 42 0
 155 0042 00BF     		nop
 156 0044 80BD     		pop	{r7, pc}
 157              	.L8:
 158 0046 00BF     		.align	2
 159              	.L7:
 160 0048 00000000 		.word	modem_state
 161 004c 00000000 		.word	modem_info
 162 0050 00000000 		.word	modem_stats
 163              		.cfi_endproc
 164              	.LFE65:
 165              		.size	modem_intilize, .-modem_intilize
 166              		.section	.text.pins_configure_inactive,"ax",%progbits
 167              		.align	2
 168              		.global	pins_configure_inactive
 169              		.thumb
 170              		.thumb_func
 171              		.type	pins_configure_inactive, %function
 172              	pins_configure_inactive:
 173              	.LFB66:
  43:modem.c       **** 
  44:modem.c       **** 
  45:modem.c       **** //to be used when the modem power is to be "killed" conpletely to conserve power
  46:modem.c       **** void pins_configure_inactive(){
 174              		.loc 1 46 0
 175              		.cfi_startproc
 176              		@ args = 0, pretend = 0, frame = 0
 177              		@ frame_needed = 1, uses_anonymous_args = 0
 178 0000 80B5     		push	{r7, lr}
 179              		.cfi_def_cfa_offset 8
 180              		.cfi_offset 7, -8
 181              		.cfi_offset 14, -4
ARM GAS  C:\Users\HYFI_A~1\AppData\Local\Temp\ccBuuRJ5.s 			page 5


 182 0002 00AF     		add	r7, sp, #0
 183              		.cfi_def_cfa_register 7
  47:modem.c       ****    
  48:modem.c       ****     //physically disconect UART pin
  49:modem.c       ****    Telit_ControlReg_Write(0u);
 184              		.loc 1 49 0
 185 0004 0020     		movs	r0, #0
 186 0006 FFF7FEFF 		bl	Telit_ControlReg_Write
  50:modem.c       ****    //set drive mode
  51:modem.c       ****    Rx_Telit_SetDriveMode(PIN_DM_STRONG);
 187              		.loc 1 51 0
 188 000a 0C20     		movs	r0, #12
 189 000c FFF7FEFF 		bl	Rx_Telit_SetDriveMode
  52:modem.c       **** 
  53:modem.c       ****    //kill power to modem
  54:modem.c       ****    Pin_Telit_pwr_Write(OFF);
 190              		.loc 1 54 0
 191 0010 0020     		movs	r0, #0
 192 0012 FFF7FEFF 		bl	Pin_Telit_pwr_Write
  55:modem.c       **** 
  56:modem.c       ****    //pull down all of these, just in case
  57:modem.c       ****    Rx_Telit_Write(OFF); 
 193              		.loc 1 57 0
 194 0016 0020     		movs	r0, #0
 195 0018 FFF7FEFF 		bl	Rx_Telit_Write
  58:modem.c       ****    Tx_Telit_Write(OFF);
 196              		.loc 1 58 0
 197 001c 0020     		movs	r0, #0
 198 001e FFF7FEFF 		bl	Tx_Telit_Write
  59:modem.c       ****    Pin_Telit_ONOFF_Write(OFF);
 199              		.loc 1 59 0
 200 0022 0020     		movs	r0, #0
 201 0024 FFF7FEFF 		bl	Pin_Telit_ONOFF_Write
  60:modem.c       ****    Pin_Telit_SWRDY_Write(OFF);
 202              		.loc 1 60 0
 203 0028 0020     		movs	r0, #0
 204 002a FFF7FEFF 		bl	Pin_Telit_SWRDY_Write
  61:modem.c       ****     
  62:modem.c       **** }
 205              		.loc 1 62 0
 206 002e 00BF     		nop
 207 0030 80BD     		pop	{r7, pc}
 208              		.cfi_endproc
 209              	.LFE66:
 210              		.size	pins_configure_inactive, .-pins_configure_inactive
 211 0032 00BF     		.section	.text.pins_configure_active,"ax",%progbits
 212              		.align	2
 213              		.global	pins_configure_active
 214              		.thumb
 215              		.thumb_func
 216              		.type	pins_configure_active, %function
 217              	pins_configure_active:
 218              	.LFB67:
  63:modem.c       **** 
  64:modem.c       **** void pins_configure_active(){
 219              		.loc 1 64 0
 220              		.cfi_startproc
ARM GAS  C:\Users\HYFI_A~1\AppData\Local\Temp\ccBuuRJ5.s 			page 6


 221              		@ args = 0, pretend = 0, frame = 0
 222              		@ frame_needed = 1, uses_anonymous_args = 0
 223 0000 80B5     		push	{r7, lr}
 224              		.cfi_def_cfa_offset 8
 225              		.cfi_offset 7, -8
 226              		.cfi_offset 14, -4
 227 0002 00AF     		add	r7, sp, #0
 228              		.cfi_def_cfa_register 7
  65:modem.c       ****     //powerup
  66:modem.c       ****     Rx_Telit_SetDriveMode(PIN_DM_DIG_HIZ);
 229              		.loc 1 66 0
 230 0004 0220     		movs	r0, #2
 231 0006 FFF7FEFF 		bl	Rx_Telit_SetDriveMode
  67:modem.c       ****     Telit_ControlReg_Write(1u);
 232              		.loc 1 67 0
 233 000a 0120     		movs	r0, #1
 234 000c FFF7FEFF 		bl	Telit_ControlReg_Write
  68:modem.c       ****     Pin_Telit_pwr_Write(ON);
 235              		.loc 1 68 0
 236 0010 0120     		movs	r0, #1
 237 0012 FFF7FEFF 		bl	Pin_Telit_pwr_Write
  69:modem.c       ****     CyDelay(100u);//give the MOSFET a few ms to stalbilise power 
 238              		.loc 1 69 0
 239 0016 6420     		movs	r0, #100
 240 0018 FFF7FEFF 		bl	CyDelay
  70:modem.c       **** }
 241              		.loc 1 70 0
 242 001c 00BF     		nop
 243 001e 80BD     		pop	{r7, pc}
 244              		.cfi_endproc
 245              	.LFE67:
 246              		.size	pins_configure_active, .-pins_configure_active
 247              		.section	.rodata
 248              		.align	2
 249              	.LC0:
 250 0000 4F4B00   		.ascii	"OK\000"
 251 0003 00       		.align	2
 252              	.LC1:
 253 0004 41542353 		.ascii	"AT#SHDN\015\000"
 253      48444E0D 
 253      00
 254              		.section	.text.modem_power_down,"ax",%progbits
 255              		.align	2
 256              		.global	modem_power_down
 257              		.thumb
 258              		.thumb_func
 259              		.type	modem_power_down, %function
 260              	modem_power_down:
 261              	.LFB68:
  71:modem.c       **** 
  72:modem.c       **** void modem_power_down(){
 262              		.loc 1 72 0
 263              		.cfi_startproc
 264              		@ args = 0, pretend = 0, frame = 0
 265              		@ frame_needed = 1, uses_anonymous_args = 0
 266 0000 80B5     		push	{r7, lr}
 267              		.cfi_def_cfa_offset 8
ARM GAS  C:\Users\HYFI_A~1\AppData\Local\Temp\ccBuuRJ5.s 			page 7


 268              		.cfi_offset 7, -8
 269              		.cfi_offset 14, -4
 270 0002 00AF     		add	r7, sp, #0
 271              		.cfi_def_cfa_register 7
  73:modem.c       ****     
  74:modem.c       ****    at_write_command("AT#SHDN\r","OK",5000u); 
 272              		.loc 1 74 0
 273 0004 41F28832 		movw	r2, #5000
 274 0008 0A49     		ldr	r1, .L12
 275 000a 0B48     		ldr	r0, .L12+4
 276 000c FFF7FEFF 		bl	at_write_command
  75:modem.c       ****     
  76:modem.c       ****    modem_soft_power_cycle();
 277              		.loc 1 76 0
 278 0010 FFF7FEFF 		bl	modem_soft_power_cycle
  77:modem.c       ****    CyDelay(1000u);
 279              		.loc 1 77 0
 280 0014 4FF47A70 		mov	r0, #1000
 281 0018 FFF7FEFF 		bl	CyDelay
  78:modem.c       ****     
  79:modem.c       ****    UART_Telit_Stop();
 282              		.loc 1 79 0
 283 001c FFF7FEFF 		bl	UART_Telit_Stop
  80:modem.c       ****    isr_telit_rx_Stop();
 284              		.loc 1 80 0
 285 0020 FFF7FEFF 		bl	isr_telit_rx_Stop
  81:modem.c       ****    pins_configure_inactive();
 286              		.loc 1 81 0
 287 0024 FFF7FEFF 		bl	pins_configure_inactive
  82:modem.c       ****    modem_state = MODEM_STATE_OFF;
 288              		.loc 1 82 0
 289 0028 044B     		ldr	r3, .L12+8
 290 002a 0022     		movs	r2, #0
 291 002c 1A70     		strb	r2, [r3]
  83:modem.c       ****     
  84:modem.c       **** }
 292              		.loc 1 84 0
 293 002e 00BF     		nop
 294 0030 80BD     		pop	{r7, pc}
 295              	.L13:
 296 0032 00BF     		.align	2
 297              	.L12:
 298 0034 00000000 		.word	.LC0
 299 0038 04000000 		.word	.LC1
 300 003c 00000000 		.word	modem_state
 301              		.cfi_endproc
 302              	.LFE68:
 303              		.size	modem_power_down, .-modem_power_down
 304              		.section	.rodata
 305 000d 000000   		.align	2
 306              	.LC2:
 307 0010 41544530 		.ascii	"ATE0\015\000"
 307      0D00
 308 0016 0000     		.align	2
 309              	.LC3:
 310 0018 4D6F6465 		.ascii	"Modem ready for AT commands after %d attempt(s).\000"
 310      6D207265 
ARM GAS  C:\Users\HYFI_A~1\AppData\Local\Temp\ccBuuRJ5.s 			page 8


 310      61647920 
 310      666F7220 
 310      41542063 
 311 0049 000000   		.align	2
 312              	.LC4:
 313 004c 4E6F2072 		.ascii	"No response from modem.\000"
 313      6573706F 
 313      6E736520 
 313      66726F6D 
 313      206D6F64 
 314              		.section	.text.modem_power_up,"ax",%progbits
 315              		.align	2
 316              		.global	modem_power_up
 317              		.thumb
 318              		.thumb_func
 319              		.type	modem_power_up, %function
 320              	modem_power_up:
 321              	.LFB69:
  85:modem.c       **** 
  86:modem.c       **** //this puts all the modem pints into a state that won't leak power
  87:modem.c       **** //pleasde call restore_pins() to bring them abck to function when they are needed for UART
  88:modem.c       **** uint8 modem_power_up(){
 322              		.loc 1 88 0
 323              		.cfi_startproc
 324              		@ args = 0, pretend = 0, frame = 8
 325              		@ frame_needed = 1, uses_anonymous_args = 0
 326 0000 80B5     		push	{r7, lr}
 327              		.cfi_def_cfa_offset 8
 328              		.cfi_offset 7, -8
 329              		.cfi_offset 14, -4
 330 0002 82B0     		sub	sp, sp, #8
 331              		.cfi_def_cfa_offset 16
 332 0004 00AF     		add	r7, sp, #0
 333              		.cfi_def_cfa_register 7
  89:modem.c       **** 
  90:modem.c       ****     pins_configure_active();//turns on power and configures all UART pin modes
 334              		.loc 1 90 0
 335 0006 FFF7FEFF 		bl	pins_configure_active
  91:modem.c       ****     UART_Telit_Start();
 336              		.loc 1 91 0
 337 000a FFF7FEFF 		bl	UART_Telit_Start
  92:modem.c       ****     isr_telit_rx_StartEx(isr_telit_rx);
 338              		.loc 1 92 0
 339 000e 1E48     		ldr	r0, .L22
 340 0010 FFF7FEFF 		bl	isr_telit_rx_StartEx
  93:modem.c       **** 
  94:modem.c       ****     modem_soft_power_cycle();
 341              		.loc 1 94 0
 342 0014 FFF7FEFF 		bl	modem_soft_power_cycle
  95:modem.c       ****     
  96:modem.c       ****     //turn off ECHO command
  97:modem.c       ****     uint8 at_ready = 0;
 343              		.loc 1 97 0
 344 0018 0023     		movs	r3, #0
 345 001a FB71     		strb	r3, [r7, #7]
  98:modem.c       ****     uint8 attemps = 0;
 346              		.loc 1 98 0
ARM GAS  C:\Users\HYFI_A~1\AppData\Local\Temp\ccBuuRJ5.s 			page 9


 347 001c 0023     		movs	r3, #0
 348 001e 7B71     		strb	r3, [r7, #5]
 349              	.LBB2:
  99:modem.c       ****     
 100:modem.c       ****     for(uint8 attemps = 0; attemps<3; attemps++){
 350              		.loc 1 100 0
 351 0020 0023     		movs	r3, #0
 352 0022 BB71     		strb	r3, [r7, #6]
 353 0024 10E0     		b	.L15
 354              	.L18:
 101:modem.c       ****         if(at_write_command("ATE0\r","OK",DEFAULT_AT_TIMEOUT)){
 355              		.loc 1 101 0
 356 0026 4FF4FA62 		mov	r2, #2000
 357 002a 1849     		ldr	r1, .L22+4
 358 002c 1848     		ldr	r0, .L22+8
 359 002e FFF7FEFF 		bl	at_write_command
 360 0032 0346     		mov	r3, r0
 361 0034 002B     		cmp	r3, #0
 362 0036 02D0     		beq	.L16
 102:modem.c       ****             at_ready = 1;
 363              		.loc 1 102 0
 364 0038 0123     		movs	r3, #1
 365 003a FB71     		strb	r3, [r7, #7]
 103:modem.c       ****             break;
 366              		.loc 1 103 0
 367 003c 07E0     		b	.L17
 368              	.L16:
 104:modem.c       ****         }else{
 105:modem.c       ****             modem_soft_power_cycle();
 369              		.loc 1 105 0 discriminator 2
 370 003e FFF7FEFF 		bl	modem_soft_power_cycle
 100:modem.c       ****         if(at_write_command("ATE0\r","OK",DEFAULT_AT_TIMEOUT)){
 371              		.loc 1 100 0 discriminator 2
 372 0042 BB79     		ldrb	r3, [r7, #6]	@ zero_extendqisi2
 373 0044 0133     		adds	r3, r3, #1
 374 0046 BB71     		strb	r3, [r7, #6]
 375              	.L15:
 100:modem.c       ****         if(at_write_command("ATE0\r","OK",DEFAULT_AT_TIMEOUT)){
 376              		.loc 1 100 0 is_stmt 0 discriminator 1
 377 0048 BB79     		ldrb	r3, [r7, #6]	@ zero_extendqisi2
 378 004a 022B     		cmp	r3, #2
 379 004c EBD9     		bls	.L18
 380              	.L17:
 381              	.LBE2:
 106:modem.c       ****         }
 107:modem.c       ****     }
 108:modem.c       ****     
 109:modem.c       ****     if(at_ready == 1){
 382              		.loc 1 109 0 is_stmt 1
 383 004e FB79     		ldrb	r3, [r7, #7]	@ zero_extendqisi2
 384 0050 012B     		cmp	r3, #1
 385 0052 0AD1     		bne	.L19
 110:modem.c       ****         printNotif(NOTIF_TYPE_EVENT,"Modem ready for AT commands after %d attempt(s).",attemps);
 386              		.loc 1 110 0
 387 0054 7B79     		ldrb	r3, [r7, #5]	@ zero_extendqisi2
 388 0056 1A46     		mov	r2, r3
 389 0058 0E49     		ldr	r1, .L22+12
ARM GAS  C:\Users\HYFI_A~1\AppData\Local\Temp\ccBuuRJ5.s 			page 10


 390 005a 0020     		movs	r0, #0
 391 005c FFF7FEFF 		bl	printNotif
 111:modem.c       ****         modem_state = MODEM_STATE_STARTUP;
 392              		.loc 1 111 0
 393 0060 0D4B     		ldr	r3, .L22+16
 394 0062 0122     		movs	r2, #1
 395 0064 1A70     		strb	r2, [r3]
 112:modem.c       ****     }else{
 113:modem.c       ****         printNotif(NOTIF_TYPE_ERROR,"No response from modem.");
 114:modem.c       ****         modem_state = MODEM_STATE_OFF;
 115:modem.c       ****         modem_power_down();
 116:modem.c       ****         return 0u;
 117:modem.c       ****     }
 118:modem.c       ****     return 1u;
 396              		.loc 1 118 0
 397 0066 0123     		movs	r3, #1
 398 0068 09E0     		b	.L21
 399              	.L19:
 113:modem.c       ****         modem_state = MODEM_STATE_OFF;
 400              		.loc 1 113 0
 401 006a 0C49     		ldr	r1, .L22+20
 402 006c 0220     		movs	r0, #2
 403 006e FFF7FEFF 		bl	printNotif
 114:modem.c       ****         modem_power_down();
 404              		.loc 1 114 0
 405 0072 094B     		ldr	r3, .L22+16
 406 0074 0022     		movs	r2, #0
 407 0076 1A70     		strb	r2, [r3]
 115:modem.c       ****         return 0u;
 408              		.loc 1 115 0
 409 0078 FFF7FEFF 		bl	modem_power_down
 116:modem.c       ****     }
 410              		.loc 1 116 0
 411 007c 0023     		movs	r3, #0
 412              	.L21:
 119:modem.c       **** }
 413              		.loc 1 119 0
 414 007e 1846     		mov	r0, r3
 415 0080 0837     		adds	r7, r7, #8
 416              		.cfi_def_cfa_offset 8
 417 0082 BD46     		mov	sp, r7
 418              		.cfi_def_cfa_register 13
 419              		@ sp needed
 420 0084 80BD     		pop	{r7, pc}
 421              	.L23:
 422 0086 00BF     		.align	2
 423              	.L22:
 424 0088 00000000 		.word	isr_telit_rx
 425 008c 00000000 		.word	.LC0
 426 0090 10000000 		.word	.LC2
 427 0094 18000000 		.word	.LC3
 428 0098 00000000 		.word	modem_state
 429 009c 4C000000 		.word	.LC4
 430              		.cfi_endproc
 431              	.LFE69:
 432              		.size	modem_power_up, .-modem_power_up
 433              		.section	.text.modem_soft_power_cycle,"ax",%progbits
ARM GAS  C:\Users\HYFI_A~1\AppData\Local\Temp\ccBuuRJ5.s 			page 11


 434              		.align	2
 435              		.global	modem_soft_power_cycle
 436              		.thumb
 437              		.thumb_func
 438              		.type	modem_soft_power_cycle, %function
 439              	modem_soft_power_cycle:
 440              	.LFB70:
 120:modem.c       **** 
 121:modem.c       **** void modem_soft_power_cycle(){
 441              		.loc 1 121 0
 442              		.cfi_startproc
 443              		@ args = 0, pretend = 0, frame = 0
 444              		@ frame_needed = 1, uses_anonymous_args = 0
 445 0000 80B5     		push	{r7, lr}
 446              		.cfi_def_cfa_offset 8
 447              		.cfi_offset 7, -8
 448              		.cfi_offset 14, -4
 449 0002 00AF     		add	r7, sp, #0
 450              		.cfi_def_cfa_register 7
 122:modem.c       ****     Pin_Telit_ONOFF_Write(1u);
 451              		.loc 1 122 0
 452 0004 0120     		movs	r0, #1
 453 0006 FFF7FEFF 		bl	Pin_Telit_ONOFF_Write
 123:modem.c       ****     CyDelay(2000u);//give modem a sec to boot
 454              		.loc 1 123 0
 455 000a 4FF4FA60 		mov	r0, #2000
 456 000e FFF7FEFF 		bl	CyDelay
 124:modem.c       ****     Pin_Telit_ONOFF_Write(0u);
 457              		.loc 1 124 0
 458 0012 0020     		movs	r0, #0
 459 0014 FFF7FEFF 		bl	Pin_Telit_ONOFF_Write
 125:modem.c       ****     
 126:modem.c       **** }
 460              		.loc 1 126 0
 461 0018 00BF     		nop
 462 001a 80BD     		pop	{r7, pc}
 463              		.cfi_endproc
 464              	.LFE70:
 465              		.size	modem_soft_power_cycle, .-modem_soft_power_cycle
 466              		.section	.text.uart_string_reset,"ax",%progbits
 467              		.align	2
 468              		.global	uart_string_reset
 469              		.thumb
 470              		.thumb_func
 471              		.type	uart_string_reset, %function
 472              	uart_string_reset:
 473              	.LFB71:
 127:modem.c       **** 
 128:modem.c       **** 
 129:modem.c       **** void uart_string_reset(){
 474              		.loc 1 129 0
 475              		.cfi_startproc
 476              		@ args = 0, pretend = 0, frame = 0
 477              		@ frame_needed = 1, uses_anonymous_args = 0
 478 0000 80B5     		push	{r7, lr}
 479              		.cfi_def_cfa_offset 8
 480              		.cfi_offset 7, -8
ARM GAS  C:\Users\HYFI_A~1\AppData\Local\Temp\ccBuuRJ5.s 			page 12


 481              		.cfi_offset 14, -4
 482 0002 00AF     		add	r7, sp, #0
 483              		.cfi_def_cfa_register 7
 130:modem.c       ****     uart_string_index=0;
 484              		.loc 1 130 0
 485 0004 064B     		ldr	r3, .L26
 486 0006 0022     		movs	r2, #0
 487 0008 1A70     		strb	r2, [r3]
 131:modem.c       ****     memset(uart_received_string,'\0',sizeof(uart_received_string));
 488              		.loc 1 131 0
 489 000a 4FF48062 		mov	r2, #1024
 490 000e 0021     		movs	r1, #0
 491 0010 0448     		ldr	r0, .L26+4
 492 0012 FFF7FEFF 		bl	memset
 132:modem.c       ****     UART_Telit_ClearRxBuffer();
 493              		.loc 1 132 0
 494 0016 FFF7FEFF 		bl	UART_Telit_ClearRxBuffer
 133:modem.c       **** }
 495              		.loc 1 133 0
 496 001a 00BF     		nop
 497 001c 80BD     		pop	{r7, pc}
 498              	.L27:
 499 001e 00BF     		.align	2
 500              	.L26:
 501 0020 00000000 		.word	uart_string_index
 502 0024 00000000 		.word	uart_received_string
 503              		.cfi_endproc
 504              	.LFE71:
 505              		.size	uart_string_reset, .-uart_string_reset
 506              		.section	.rodata
 507              		.align	2
 508              	.LC5:
 509 0064 4D6F6465 		.ascii	"Modem sent AT command without timeout: %s\015\012\000"
 509      6D207365 
 509      6E742041 
 509      5420636F 
 509      6D6D616E 
 510              		.align	2
 511              	.LC6:
 512 0090 4D6F6465 		.ascii	"Modem Received expected AT Response on first Try:\012"
 512      6D205265 
 512      63656976 
 512      65642065 
 512      78706563 
 513 00c2 436F6D6D 		.ascii	"Command: %s\012Received: %s\015\012\000"
 513      616E643A 
 513      2025730A 
 513      52656365 
 513      69766564 
 514 00dd 000000   		.align	2
 515              	.LC7:
 516 00e0 4D6F6465 		.ascii	"Modem required %d tries to receive AT Response: %s\015"
 516      6D207265 
 516      71756972 
 516      65642025 
 516      64207472 
 517 0113 0A00     		.ascii	"\012\000"
ARM GAS  C:\Users\HYFI_A~1\AppData\Local\Temp\ccBuuRJ5.s 			page 13


 518 0115 000000   		.align	2
 519              	.LC8:
 520 0118 436F756C 		.ascii	"Could not write AT command: %s\012 Received: %s\012"
 520      64206E6F 
 520      74207772 
 520      69746520 
 520      41542063 
 521 0145 00       		.ascii	"\000"
 522              		.section	.text.at_write_command,"ax",%progbits
 523              		.align	2
 524              		.global	at_write_command
 525              		.thumb
 526              		.thumb_func
 527              		.type	at_write_command, %function
 528              	at_write_command:
 529              	.LFB72:
 134:modem.c       **** 
 135:modem.c       **** uint8_t at_write_command(char* commands, char* expected_response,uint32_t timeout){
 530              		.loc 1 135 0
 531              		.cfi_startproc
 532              		@ args = 0, pretend = 0, frame = 40
 533              		@ frame_needed = 1, uses_anonymous_args = 0
 534 0000 80B5     		push	{r7, lr}
 535              		.cfi_def_cfa_offset 8
 536              		.cfi_offset 7, -8
 537              		.cfi_offset 14, -4
 538 0002 8AB0     		sub	sp, sp, #40
 539              		.cfi_def_cfa_offset 48
 540 0004 00AF     		add	r7, sp, #0
 541              		.cfi_def_cfa_register 7
 542 0006 F860     		str	r0, [r7, #12]
 543 0008 B960     		str	r1, [r7, #8]
 544 000a 7A60     		str	r2, [r7, #4]
 136:modem.c       **** 
 137:modem.c       ****     uint32 at_attempt = 0;
 545              		.loc 1 137 0
 546 000c 0023     		movs	r3, #0
 547 000e 7B62     		str	r3, [r7, #36]
 138:modem.c       ****     
 139:modem.c       ****     for(at_attempt = 0; at_attempt < 3; at_attempt++) {
 548              		.loc 1 139 0
 549 0010 0023     		movs	r3, #0
 550 0012 7B62     		str	r3, [r7, #36]
 551 0014 46E0     		b	.L29
 552              	.L37:
 553              	.LBB3:
 140:modem.c       ****         
 141:modem.c       ****         char* compare_location;
 142:modem.c       ****         uint32_t delay=10;
 554              		.loc 1 142 0
 555 0016 0A23     		movs	r3, #10
 556 0018 FB61     		str	r3, [r7, #28]
 143:modem.c       ****         uint32_t i, interval=timeout/delay;        
 557              		.loc 1 143 0
 558 001a 7A68     		ldr	r2, [r7, #4]
 559 001c FB69     		ldr	r3, [r7, #28]
 560 001e B2FBF3F3 		udiv	r3, r2, r3
ARM GAS  C:\Users\HYFI_A~1\AppData\Local\Temp\ccBuuRJ5.s 			page 14


 561 0022 BB61     		str	r3, [r7, #24]
 144:modem.c       ****         
 145:modem.c       ****         uart_string_reset();
 562              		.loc 1 145 0
 563 0024 FFF7FEFF 		bl	uart_string_reset
 146:modem.c       ****         
 147:modem.c       ****         UART_Telit_PutString(commands);
 564              		.loc 1 147 0
 565 0028 F868     		ldr	r0, [r7, #12]
 566 002a FFF7FEFF 		bl	UART_Telit_PutString
 148:modem.c       ****         
 149:modem.c       ****         
 150:modem.c       ****         //if no timeout, no need to wait for response
 151:modem.c       ****         if(timeout == NO_AT_TIMEOUT){
 567              		.loc 1 151 0
 568 002e 7B68     		ldr	r3, [r7, #4]
 569 0030 002B     		cmp	r3, #0
 570 0032 06D1     		bne	.L30
 152:modem.c       ****             printNotif(NOTIF_TYPE_EVENT,"Modem sent AT command without timeout: %s\r\n", commands);
 571              		.loc 1 152 0
 572 0034 FA68     		ldr	r2, [r7, #12]
 573 0036 1F49     		ldr	r1, .L38
 574 0038 0020     		movs	r0, #0
 575 003a FFF7FEFF 		bl	printNotif
 153:modem.c       ****             return 1u;
 576              		.loc 1 153 0
 577 003e 0123     		movs	r3, #1
 578 0040 34E0     		b	.L31
 579              	.L30:
 154:modem.c       ****         }
 155:modem.c       ****       
 156:modem.c       ****      
 157:modem.c       ****         for(i=0;i<interval;i++){ 
 580              		.loc 1 157 0
 581 0042 0023     		movs	r3, #0
 582 0044 3B62     		str	r3, [r7, #32]
 583 0046 20E0     		b	.L32
 584              	.L36:
 158:modem.c       ****             CyDelay((uint32) delay);
 585              		.loc 1 158 0
 586 0048 F869     		ldr	r0, [r7, #28]
 587 004a FFF7FEFF 		bl	CyDelay
 159:modem.c       ****             compare_location=strstr(uart_received_string,expected_response);        
 588              		.loc 1 159 0
 589 004e B968     		ldr	r1, [r7, #8]
 590 0050 1948     		ldr	r0, .L38+4
 591 0052 FFF7FEFF 		bl	strstr
 592 0056 7861     		str	r0, [r7, #20]
 160:modem.c       ****             if(compare_location!=NULL) {
 593              		.loc 1 160 0
 594 0058 7B69     		ldr	r3, [r7, #20]
 595 005a 002B     		cmp	r3, #0
 596 005c 12D0     		beq	.L33
 161:modem.c       ****                 if (at_attempt == 0){
 597              		.loc 1 161 0
 598 005e 7B6A     		ldr	r3, [r7, #36]
 599 0060 002B     		cmp	r3, #0
ARM GAS  C:\Users\HYFI_A~1\AppData\Local\Temp\ccBuuRJ5.s 			page 15


 600 0062 06D1     		bne	.L34
 162:modem.c       ****                    printNotif(NOTIF_TYPE_EVENT,"Modem Received expected AT Response on first Try:\n
 601              		.loc 1 162 0
 602 0064 144B     		ldr	r3, .L38+4
 603 0066 FA68     		ldr	r2, [r7, #12]
 604 0068 1449     		ldr	r1, .L38+8
 605 006a 0020     		movs	r0, #0
 606 006c FFF7FEFF 		bl	printNotif
 607 0070 06E0     		b	.L35
 608              	.L34:
 163:modem.c       ****                 }else{
 164:modem.c       ****                    printNotif(NOTIF_TYPE_WARNING,"Modem required %d tries to receive AT Response: %
 609              		.loc 1 164 0
 610 0072 7B6A     		ldr	r3, [r7, #36]
 611 0074 5A1C     		adds	r2, r3, #1
 612 0076 104B     		ldr	r3, .L38+4
 613 0078 1149     		ldr	r1, .L38+12
 614 007a 0120     		movs	r0, #1
 615 007c FFF7FEFF 		bl	printNotif
 616              	.L35:
 165:modem.c       ****                  
 166:modem.c       ****                 }
 167:modem.c       ****                  return(1);
 617              		.loc 1 167 0
 618 0080 0123     		movs	r3, #1
 619 0082 13E0     		b	.L31
 620              	.L33:
 157:modem.c       ****             CyDelay((uint32) delay);
 621              		.loc 1 157 0 discriminator 2
 622 0084 3B6A     		ldr	r3, [r7, #32]
 623 0086 0133     		adds	r3, r3, #1
 624 0088 3B62     		str	r3, [r7, #32]
 625              	.L32:
 157:modem.c       ****             CyDelay((uint32) delay);
 626              		.loc 1 157 0 is_stmt 0 discriminator 1
 627 008a 3A6A     		ldr	r2, [r7, #32]
 628 008c BB69     		ldr	r3, [r7, #24]
 629 008e 9A42     		cmp	r2, r3
 630 0090 DAD3     		bcc	.L36
 168:modem.c       ****             }
 169:modem.c       ****             
 170:modem.c       ****         }  
 171:modem.c       ****         
 172:modem.c       ****         //somehitng went wrong, restart UARt
 173:modem.c       ****         printNotif(NOTIF_TYPE_ERROR,"Could not write AT command: %s\n Received: %s\n", commands,uar
 631              		.loc 1 173 0 is_stmt 1 discriminator 2
 632 0092 094B     		ldr	r3, .L38+4
 633 0094 FA68     		ldr	r2, [r7, #12]
 634 0096 0B49     		ldr	r1, .L38+16
 635 0098 0220     		movs	r0, #2
 636 009a FFF7FEFF 		bl	printNotif
 637              	.LBE3:
 139:modem.c       ****         
 638              		.loc 1 139 0 discriminator 2
 639 009e 7B6A     		ldr	r3, [r7, #36]
 640 00a0 0133     		adds	r3, r3, #1
 641 00a2 7B62     		str	r3, [r7, #36]
ARM GAS  C:\Users\HYFI_A~1\AppData\Local\Temp\ccBuuRJ5.s 			page 16


 642              	.L29:
 139:modem.c       ****         
 643              		.loc 1 139 0 is_stmt 0 discriminator 1
 644 00a4 7B6A     		ldr	r3, [r7, #36]
 645 00a6 022B     		cmp	r3, #2
 646 00a8 B5D9     		bls	.L37
 174:modem.c       ****       
 175:modem.c       ****     }
 176:modem.c       ****    // printNotif(NOTIF_TYPE_ERROR,"Modem AT response timeout: %s\r\n", commands);
 177:modem.c       ****           
 178:modem.c       ****     return(0);    
 647              		.loc 1 178 0 is_stmt 1
 648 00aa 0023     		movs	r3, #0
 649              	.L31:
 179:modem.c       **** }
 650              		.loc 1 179 0
 651 00ac 1846     		mov	r0, r3
 652 00ae 2837     		adds	r7, r7, #40
 653              		.cfi_def_cfa_offset 8
 654 00b0 BD46     		mov	sp, r7
 655              		.cfi_def_cfa_register 13
 656              		@ sp needed
 657 00b2 80BD     		pop	{r7, pc}
 658              	.L39:
 659              		.align	2
 660              	.L38:
 661 00b4 64000000 		.word	.LC5
 662 00b8 00000000 		.word	uart_received_string
 663 00bc 90000000 		.word	.LC6
 664 00c0 E0000000 		.word	.LC7
 665 00c4 18010000 		.word	.LC8
 666              		.cfi_endproc
 667              	.LFE72:
 668              		.size	at_write_command, .-at_write_command
 669              		.section	.text.modem_test,"ax",%progbits
 670              		.align	2
 671              		.global	modem_test
 672              		.thumb
 673              		.thumb_func
 674              		.type	modem_test, %function
 675              	modem_test:
 676              	.LFB73:
 180:modem.c       **** 
 181:modem.c       **** test_t modem_test(){
 677              		.loc 1 181 0
 678              		.cfi_startproc
 679              		@ args = 0, pretend = 0, frame = 400
 680              		@ frame_needed = 1, uses_anonymous_args = 0
 681 0000 80B5     		push	{r7, lr}
 682              		.cfi_def_cfa_offset 8
 683              		.cfi_offset 7, -8
 684              		.cfi_offset 14, -4
 685 0002 E4B0     		sub	sp, sp, #400
 686              		.cfi_def_cfa_offset 408
 687 0004 00AF     		add	r7, sp, #0
 688              		.cfi_def_cfa_register 7
 689 0006 3B1D     		adds	r3, r7, #4
ARM GAS  C:\Users\HYFI_A~1\AppData\Local\Temp\ccBuuRJ5.s 			page 17


 690 0008 1860     		str	r0, [r3]
 182:modem.c       ****     
 183:modem.c       ****     test_t test;
 184:modem.c       ****     modem_power_up();
 691              		.loc 1 184 0
 692 000a FFF7FEFF 		bl	modem_power_up
 185:modem.c       ****     //tbd 
 186:modem.c       ****     modem_power_down();
 693              		.loc 1 186 0
 694 000e FFF7FEFF 		bl	modem_power_down
 187:modem.c       ****     
 188:modem.c       ****     
 189:modem.c       ****     return test;
 695              		.loc 1 189 0
 696 0012 3B1D     		adds	r3, r7, #4
 697 0014 1A68     		ldr	r2, [r3]
 698 0016 07F10C03 		add	r3, r7, #12
 699 001a 1046     		mov	r0, r2
 700 001c 1946     		mov	r1, r3
 701 001e 40F28113 		movw	r3, #385
 702 0022 1A46     		mov	r2, r3
 703 0024 FFF7FEFF 		bl	memcpy
 190:modem.c       **** }
 704              		.loc 1 190 0
 705 0028 3B1D     		adds	r3, r7, #4
 706 002a 1868     		ldr	r0, [r3]
 707 002c 07F5C877 		add	r7, r7, #400
 708              		.cfi_def_cfa_offset 8
 709 0030 BD46     		mov	sp, r7
 710              		.cfi_def_cfa_register 13
 711              		@ sp needed
 712 0032 80BD     		pop	{r7, pc}
 713              		.cfi_endproc
 714              	.LFE73:
 715              		.size	modem_test, .-modem_test
 716              		.section	.text.extract_string,"ax",%progbits
 717              		.align	2
 718              		.global	extract_string
 719              		.thumb
 720              		.thumb_func
 721              		.type	extract_string, %function
 722              	extract_string:
 723              	.LFB74:
 191:modem.c       **** 
 192:modem.c       **** 
 193:modem.c       **** uint8 extract_string(char* from, const char* beginMarker, const char* endMarker,  char* target){
 724              		.loc 1 193 0
 725              		.cfi_startproc
 726              		@ args = 0, pretend = 0, frame = 24
 727              		@ frame_needed = 1, uses_anonymous_args = 0
 728 0000 80B5     		push	{r7, lr}
 729              		.cfi_def_cfa_offset 8
 730              		.cfi_offset 7, -8
 731              		.cfi_offset 14, -4
 732 0002 86B0     		sub	sp, sp, #24
 733              		.cfi_def_cfa_offset 32
 734 0004 00AF     		add	r7, sp, #0
ARM GAS  C:\Users\HYFI_A~1\AppData\Local\Temp\ccBuuRJ5.s 			page 18


 735              		.cfi_def_cfa_register 7
 736 0006 F860     		str	r0, [r7, #12]
 737 0008 B960     		str	r1, [r7, #8]
 738 000a 7A60     		str	r2, [r7, #4]
 739 000c 3B60     		str	r3, [r7]
 194:modem.c       ****     
 195:modem.c       ****         char *a, *b;
 196:modem.c       ****   
 197:modem.c       ****         // Expect the UART to contain something like "+CSQ: 17,99\r\n\r\nOK"
 198:modem.c       ****         // - Search for "+CSQ: ".  Place the starting pointer, a, at the resulting index
 199:modem.c       ****         a = strstr(from,beginMarker);
 740              		.loc 1 199 0
 741 000e B968     		ldr	r1, [r7, #8]
 742 0010 F868     		ldr	r0, [r7, #12]
 743 0012 FFF7FEFF 		bl	strstr
 744 0016 7861     		str	r0, [r7, #20]
 200:modem.c       ****         if (a == NULL) {
 745              		.loc 1 200 0
 746 0018 7B69     		ldr	r3, [r7, #20]
 747 001a 002B     		cmp	r3, #0
 748 001c 01D1     		bne	.L43
 201:modem.c       ****             //puts("+CSQ: not found in uart_received_string");
 202:modem.c       ****             a = from;
 749              		.loc 1 202 0
 750 001e FB68     		ldr	r3, [r7, #12]
 751 0020 7B61     		str	r3, [r7, #20]
 752              	.L43:
 203:modem.c       ****         }
 204:modem.c       ****         
 205:modem.c       ****         a += strlen(beginMarker);
 753              		.loc 1 205 0
 754 0022 B868     		ldr	r0, [r7, #8]
 755 0024 FFF7FEFF 		bl	strlen
 756 0028 0246     		mov	r2, r0
 757 002a 7B69     		ldr	r3, [r7, #20]
 758 002c 1344     		add	r3, r3, r2
 759 002e 7B61     		str	r3, [r7, #20]
 206:modem.c       ****         
 207:modem.c       ****         // - Find the end marking and offset by 1
 208:modem.c       ****         b = strstr(a,endMarker);
 760              		.loc 1 208 0
 761 0030 7968     		ldr	r1, [r7, #4]
 762 0032 7869     		ldr	r0, [r7, #20]
 763 0034 FFF7FEFF 		bl	strstr
 764 0038 3861     		str	r0, [r7, #16]
 209:modem.c       ****         if (b == NULL) {
 765              		.loc 1 209 0
 766 003a 3B69     		ldr	r3, [r7, #16]
 767 003c 002B     		cmp	r3, #0
 768 003e 06D1     		bne	.L44
 210:modem.c       ****             //puts("Comma not found in uart_received_string");
 211:modem.c       ****             b=from+strlen(from);
 769              		.loc 1 211 0
 770 0040 F868     		ldr	r0, [r7, #12]
 771 0042 FFF7FEFF 		bl	strlen
 772 0046 0246     		mov	r2, r0
 773 0048 FB68     		ldr	r3, [r7, #12]
ARM GAS  C:\Users\HYFI_A~1\AppData\Local\Temp\ccBuuRJ5.s 			page 19


 774 004a 1344     		add	r3, r3, r2
 775 004c 3B61     		str	r3, [r7, #16]
 776              	.L44:
 212:modem.c       ****         }        
 213:modem.c       ****         
 214:modem.c       ****         // Parse the strings and store the respective rssi and fer values
 215:modem.c       ****         strncpy(target,a,b-a);
 777              		.loc 1 215 0
 778 004e 3A69     		ldr	r2, [r7, #16]
 779 0050 7B69     		ldr	r3, [r7, #20]
 780 0052 D31A     		subs	r3, r2, r3
 781 0054 1A46     		mov	r2, r3
 782 0056 7969     		ldr	r1, [r7, #20]
 783 0058 3868     		ldr	r0, [r7]
 784 005a FFF7FEFF 		bl	strncpy
 216:modem.c       ****         target[b-a] = '\0';
 785              		.loc 1 216 0
 786 005e 3A69     		ldr	r2, [r7, #16]
 787 0060 7B69     		ldr	r3, [r7, #20]
 788 0062 D31A     		subs	r3, r2, r3
 789 0064 1A46     		mov	r2, r3
 790 0066 3B68     		ldr	r3, [r7]
 791 0068 1344     		add	r3, r3, r2
 792 006a 0022     		movs	r2, #0
 793 006c 1A70     		strb	r2, [r3]
 217:modem.c       ****         return 1u;
 794              		.loc 1 217 0
 795 006e 0123     		movs	r3, #1
 218:modem.c       ****         
 219:modem.c       **** }
 796              		.loc 1 219 0
 797 0070 1846     		mov	r0, r3
 798 0072 1837     		adds	r7, r7, #24
 799              		.cfi_def_cfa_offset 8
 800 0074 BD46     		mov	sp, r7
 801              		.cfi_def_cfa_register 13
 802              		@ sp needed
 803 0076 80BD     		pop	{r7, pc}
 804              		.cfi_endproc
 805              	.LFE74:
 806              		.size	extract_string, .-extract_string
 807              		.section	.rodata
 808 0146 0000     		.align	2
 809              	.LC9:
 810 0148 54696D65 		.ascii	"Time to connecto to network: %d seconds\000"
 810      20746F20 
 810      636F6E6E 
 810      6563746F 
 810      20746F20 
 811              		.align	2
 812              	.LC10:
 813 0170 4D6F6465 		.ascii	"Modem timed out on network connect\000"
 813      6D207469 
 813      6D656420 
 813      6F757420 
 813      6F6E206E 
 814 0193 00       		.align	2
ARM GAS  C:\Users\HYFI_A~1\AppData\Local\Temp\ccBuuRJ5.s 			page 20


 815              	.LC11:
 816 0194 41637175 		.ascii	"Acquired IP address: %d seconds\000"
 816      69726564 
 816      20495020 
 816      61646472 
 816      6573733A 
 817              		.align	2
 818              	.LC12:
 819 01b4 4D6F6465 		.ascii	"Modem timed out on IP address acquire.\000"
 819      6D207469 
 819      6D656420 
 819      6F757420 
 819      6F6E2049 
 820              		.section	.text.modem_process_tasks,"ax",%progbits
 821              		.align	2
 822              		.global	modem_process_tasks
 823              		.thumb
 824              		.thumb_func
 825              		.type	modem_process_tasks, %function
 826              	modem_process_tasks:
 827              	.LFB75:
 220:modem.c       **** 
 221:modem.c       **** 
 222:modem.c       **** uint8 modem_process_tasks(){
 828              		.loc 1 222 0
 829              		.cfi_startproc
 830              		@ args = 0, pretend = 0, frame = 0
 831              		@ frame_needed = 1, uses_anonymous_args = 0
 832 0000 80B5     		push	{r7, lr}
 833              		.cfi_def_cfa_offset 8
 834              		.cfi_offset 7, -8
 835              		.cfi_offset 14, -4
 836 0002 00AF     		add	r7, sp, #0
 837              		.cfi_def_cfa_register 7
 223:modem.c       ****     
 224:modem.c       ****     
 225:modem.c       **** 
 226:modem.c       ****     if(modem_state == MODEM_STATE_STARTUP){
 838              		.loc 1 226 0
 839 0004 394B     		ldr	r3, .L55
 840 0006 1B78     		ldrb	r3, [r3]	@ zero_extendqisi2
 841 0008 012B     		cmp	r3, #1
 842 000a 0BD1     		bne	.L47
 227:modem.c       ****         
 228:modem.c       ****         modem_start_time_stamp = getTimeStamp();
 843              		.loc 1 228 0
 844 000c FFF7FEFF 		bl	getTimeStamp
 845 0010 0246     		mov	r2, r0
 846 0012 374B     		ldr	r3, .L55+4
 847 0014 1A60     		str	r2, [r3]
 229:modem.c       ****         modem_configure_settings();
 848              		.loc 1 229 0
 849 0016 FFF7FEFF 		bl	modem_configure_settings
 230:modem.c       ****         modem_state = MODEM_STATE_WAITING_FOR_NETWORK;
 850              		.loc 1 230 0
 851 001a 344B     		ldr	r3, .L55
 852 001c 0222     		movs	r2, #2
ARM GAS  C:\Users\HYFI_A~1\AppData\Local\Temp\ccBuuRJ5.s 			page 21


 853 001e 1A70     		strb	r2, [r3]
 231:modem.c       ****         return 1u;//keep going, don't hand off to sleep yet
 854              		.loc 1 231 0
 855 0020 0123     		movs	r3, #1
 856 0022 60E0     		b	.L48
 857              	.L47:
 232:modem.c       ****         
 233:modem.c       ****     }
 234:modem.c       ****     else if(modem_state == MODEM_STATE_WAITING_FOR_NETWORK){
 858              		.loc 1 234 0
 859 0024 314B     		ldr	r3, .L55
 860 0026 1B78     		ldrb	r3, [r3]	@ zero_extendqisi2
 861 0028 022B     		cmp	r3, #2
 862 002a 2DD1     		bne	.L49
 235:modem.c       ****         
 236:modem.c       **** 
 237:modem.c       ****         if(is_connected_to_cell_network()){
 863              		.loc 1 237 0
 864 002c FFF7FEFF 		bl	is_connected_to_cell_network
 865 0030 0346     		mov	r3, r0
 866 0032 002B     		cmp	r3, #0
 867 0034 15D0     		beq	.L50
 238:modem.c       ****       
 239:modem.c       ****              modem_stats.time_to_network_connect = (int)(getTimeStamp() - (int32)modem_start_time_s
 868              		.loc 1 239 0
 869 0036 FFF7FEFF 		bl	getTimeStamp
 870 003a 0246     		mov	r2, r0
 871 003c 2C4B     		ldr	r3, .L55+4
 872 003e 1B68     		ldr	r3, [r3]
 873 0040 D31A     		subs	r3, r2, r3
 874 0042 2C4A     		ldr	r2, .L55+8
 875 0044 5360     		str	r3, [r2, #4]
 240:modem.c       ****              printNotif(NOTIF_TYPE_EVENT,"Time to connecto to network: %d seconds",
 876              		.loc 1 240 0
 877 0046 2B4B     		ldr	r3, .L55+8
 878 0048 5B68     		ldr	r3, [r3, #4]
 879 004a 1A46     		mov	r2, r3
 880 004c 2A49     		ldr	r1, .L55+12
 881 004e 0020     		movs	r0, #0
 882 0050 FFF7FEFF 		bl	printNotif
 241:modem.c       ****                                             modem_stats.time_to_network_connect);
 242:modem.c       ****             get_cell_network_stats();
 883              		.loc 1 242 0
 884 0054 FFF7FEFF 		bl	get_cell_network_stats
 243:modem.c       ****             set_up_internet_connection();
 885              		.loc 1 243 0
 886 0058 FFF7FEFF 		bl	set_up_internet_connection
 244:modem.c       ****             modem_state = MODEM_STATE_WAITING_FOR_IP;
 887              		.loc 1 244 0
 888 005c 234B     		ldr	r3, .L55
 889 005e 0322     		movs	r2, #3
 890 0060 1A70     		strb	r2, [r3]
 891              	.L50:
 245:modem.c       ****             
 246:modem.c       ****         }
 247:modem.c       **** 
 248:modem.c       ****         //power off if we times out shold only take ~30 secs to connect to network
ARM GAS  C:\Users\HYFI_A~1\AppData\Local\Temp\ccBuuRJ5.s 			page 22


 249:modem.c       ****         if((int)(getTimeStamp()-(int32)modem_start_time_stamp) > TIMEOUT_NETWORK_CONNECT){
 892              		.loc 1 249 0
 893 0062 FFF7FEFF 		bl	getTimeStamp
 894 0066 0246     		mov	r2, r0
 895 0068 214B     		ldr	r3, .L55+4
 896 006a 1B68     		ldr	r3, [r3]
 897 006c D31A     		subs	r3, r2, r3
 898 006e C82B     		cmp	r3, #200
 899 0070 08DD     		ble	.L51
 250:modem.c       ****             modem_state = MODEM_STATE_OFF;
 900              		.loc 1 250 0
 901 0072 1E4B     		ldr	r3, .L55
 902 0074 0022     		movs	r2, #0
 903 0076 1A70     		strb	r2, [r3]
 251:modem.c       ****             modem_power_down();
 904              		.loc 1 251 0
 905 0078 FFF7FEFF 		bl	modem_power_down
 252:modem.c       ****             printNotif(NOTIF_TYPE_ERROR,"Modem timed out on network connect");
 906              		.loc 1 252 0
 907 007c 1F49     		ldr	r1, .L55+16
 908 007e 0220     		movs	r0, #2
 909 0080 FFF7FEFF 		bl	printNotif
 910              	.L51:
 253:modem.c       ****             
 254:modem.c       ****         }
 255:modem.c       ****         
 256:modem.c       ****         return 0u;//ok to hand off to sleep
 911              		.loc 1 256 0
 912 0084 0023     		movs	r3, #0
 913 0086 2EE0     		b	.L48
 914              	.L49:
 257:modem.c       **** 
 258:modem.c       ****     }else if(modem_state == MODEM_STATE_WAITING_FOR_IP){
 915              		.loc 1 258 0
 916 0088 184B     		ldr	r3, .L55
 917 008a 1B78     		ldrb	r3, [r3]	@ zero_extendqisi2
 918 008c 032B     		cmp	r3, #3
 919 008e 29D1     		bne	.L52
 259:modem.c       ****         if(is_connected_to_internet()){
 920              		.loc 1 259 0
 921 0090 FFF7FEFF 		bl	is_connected_to_internet
 922 0094 0346     		mov	r3, r0
 923 0096 002B     		cmp	r3, #0
 924 0098 11D0     		beq	.L53
 260:modem.c       ****             modem_state = MODEM_STATE_READY;
 925              		.loc 1 260 0
 926 009a 144B     		ldr	r3, .L55
 927 009c 0422     		movs	r2, #4
 928 009e 1A70     		strb	r2, [r3]
 261:modem.c       ****             modem_stats.time_to_acquire_ip = (int)(getTimeStamp() - (int32)modem_start_time_stamp);
 929              		.loc 1 261 0
 930 00a0 FFF7FEFF 		bl	getTimeStamp
 931 00a4 0246     		mov	r2, r0
 932 00a6 124B     		ldr	r3, .L55+4
 933 00a8 1B68     		ldr	r3, [r3]
 934 00aa D31A     		subs	r3, r2, r3
 935 00ac 114A     		ldr	r2, .L55+8
ARM GAS  C:\Users\HYFI_A~1\AppData\Local\Temp\ccBuuRJ5.s 			page 23


 936 00ae 9360     		str	r3, [r2, #8]
 262:modem.c       ****              printNotif(NOTIF_TYPE_EVENT,"Acquired IP address: %d seconds",
 937              		.loc 1 262 0
 938 00b0 104B     		ldr	r3, .L55+8
 939 00b2 9B68     		ldr	r3, [r3, #8]
 940 00b4 1A46     		mov	r2, r3
 941 00b6 1249     		ldr	r1, .L55+20
 942 00b8 0020     		movs	r0, #0
 943 00ba FFF7FEFF 		bl	printNotif
 944              	.L53:
 263:modem.c       ****                                             modem_stats.time_to_acquire_ip);
 264:modem.c       ****         }
 265:modem.c       ****         
 266:modem.c       ****         //power off if we times out shold only take ~30 secs to connect to network
 267:modem.c       ****         if((int)(getTimeStamp()-(int32)modem_start_time_stamp) > TIMEOUT_IP_ACQUIRE){
 945              		.loc 1 267 0
 946 00be FFF7FEFF 		bl	getTimeStamp
 947 00c2 0246     		mov	r2, r0
 948 00c4 0A4B     		ldr	r3, .L55+4
 949 00c6 1B68     		ldr	r3, [r3]
 950 00c8 D31A     		subs	r3, r2, r3
 951 00ca E62B     		cmp	r3, #230
 952 00cc 08DD     		ble	.L54
 268:modem.c       ****             modem_state = MODEM_STATE_OFF;
 953              		.loc 1 268 0
 954 00ce 074B     		ldr	r3, .L55
 955 00d0 0022     		movs	r2, #0
 956 00d2 1A70     		strb	r2, [r3]
 269:modem.c       ****             modem_power_down();
 957              		.loc 1 269 0
 958 00d4 FFF7FEFF 		bl	modem_power_down
 270:modem.c       ****             printNotif(NOTIF_TYPE_ERROR,"Modem timed out on IP address acquire.");
 959              		.loc 1 270 0
 960 00d8 0A49     		ldr	r1, .L55+24
 961 00da 0220     		movs	r0, #2
 962 00dc FFF7FEFF 		bl	printNotif
 963              	.L54:
 271:modem.c       ****       
 272:modem.c       ****         }
 273:modem.c       ****         return 0u;//ok to hand off to sleep
 964              		.loc 1 273 0
 965 00e0 0023     		movs	r3, #0
 966 00e2 00E0     		b	.L48
 967              	.L52:
 274:modem.c       ****     }
 275:modem.c       ****     
 276:modem.c       ****     return 0u;
 968              		.loc 1 276 0
 969 00e4 0023     		movs	r3, #0
 970              	.L48:
 277:modem.c       ****     
 278:modem.c       **** }
 971              		.loc 1 278 0
 972 00e6 1846     		mov	r0, r3
 973 00e8 80BD     		pop	{r7, pc}
 974              	.L56:
 975 00ea 00BF     		.align	2
ARM GAS  C:\Users\HYFI_A~1\AppData\Local\Temp\ccBuuRJ5.s 			page 24


 976              	.L55:
 977 00ec 00000000 		.word	modem_state
 978 00f0 00000000 		.word	modem_start_time_stamp
 979 00f4 00000000 		.word	modem_stats
 980 00f8 48010000 		.word	.LC9
 981 00fc 70010000 		.word	.LC10
 982 0100 94010000 		.word	.LC11
 983 0104 B4010000 		.word	.LC12
 984              		.cfi_endproc
 985              	.LFE75:
 986              		.size	modem_process_tasks, .-modem_process_tasks
 987              		.section	.rodata
 988 01db 00       		.align	2
 989              	.LC13:
 990 01dc 43686563 		.ascii	"Checking AT+CREG?\000"
 990      6B696E67 
 990      2041542B 
 990      43524547 
 990      3F00
 991 01ee 0000     		.align	2
 992              	.LC14:
 993 01f0 41542B43 		.ascii	"AT+CREG?\015\000"
 993      5245473F 
 993      0D00
 994 01fa 0000     		.align	2
 995              	.LC15:
 996 01fc 45787472 		.ascii	"Extracting string AT+CREG?\000"
 996      61637469 
 996      6E672073 
 996      7472696E 
 996      67204154 
 997 0217 00       		.align	2
 998              	.LC16:
 999 0218 75617274 		.ascii	"uart_received_string: %s\000"
 999      5F726563 
 999      65697665 
 999      645F7374 
 999      72696E67 
 1000 0231 000000   		.align	2
 1001              	.LC17:
 1002 0234 0D00     		.ascii	"\015\000"
 1003 0236 0000     		.align	2
 1004              	.LC18:
 1005 0238 3A2000   		.ascii	": \000"
 1006 023b 00       		.align	2
 1007              	.LC19:
 1008 023c 52656769 		.ascii	"Registered to network, CREG: %s\000"
 1008      73746572 
 1008      65642074 
 1008      6F206E65 
 1008      74776F72 
 1009              		.align	2
 1010              	.LC20:
 1011 025c 446F6E65 		.ascii	"Done extracing string AT+CREG?\000"
 1011      20657874 
 1011      72616369 
 1011      6E672073 
ARM GAS  C:\Users\HYFI_A~1\AppData\Local\Temp\ccBuuRJ5.s 			page 25


 1011      7472696E 
 1012 027b 00       		.align	2
 1013              	.LC21:
 1014 027c 302C3100 		.ascii	"0,1\000"
 1015              		.section	.text.is_connected_to_cell_network,"ax",%progbits
 1016              		.align	2
 1017              		.global	is_connected_to_cell_network
 1018              		.thumb
 1019              		.thumb_func
 1020              		.type	is_connected_to_cell_network, %function
 1021              	is_connected_to_cell_network:
 1022              	.LFB76:
 279:modem.c       **** 
 280:modem.c       **** uint8 is_connected_to_cell_network(){
 1023              		.loc 1 280 0
 1024              		.cfi_startproc
 1025              		@ args = 0, pretend = 0, frame = 16
 1026              		@ frame_needed = 1, uses_anonymous_args = 0
 1027 0000 80B5     		push	{r7, lr}
 1028              		.cfi_def_cfa_offset 8
 1029              		.cfi_offset 7, -8
 1030              		.cfi_offset 14, -4
 1031 0002 84B0     		sub	sp, sp, #16
 1032              		.cfi_def_cfa_offset 24
 1033 0004 00AF     		add	r7, sp, #0
 1034              		.cfi_def_cfa_register 7
 281:modem.c       ****     //check network status -- need '0,0' response to continue
 282:modem.c       ****     printNotif(NOTIF_TYPE_EVENT,"Checking AT+CREG?");
 1035              		.loc 1 282 0
 1036 0006 1B49     		ldr	r1, .L61
 1037 0008 0020     		movs	r0, #0
 1038 000a FFF7FEFF 		bl	printNotif
 283:modem.c       ****     uint8 status = at_write_command("AT+CREG?\r", "OK",DEFAULT_AT_TIMEOUT);
 1039              		.loc 1 283 0
 1040 000e 4FF4FA62 		mov	r2, #2000
 1041 0012 1949     		ldr	r1, .L61+4
 1042 0014 1948     		ldr	r0, .L61+8
 1043 0016 FFF7FEFF 		bl	at_write_command
 1044 001a 0346     		mov	r3, r0
 1045 001c FB73     		strb	r3, [r7, #15]
 284:modem.c       ****     
 285:modem.c       ****     printNotif(NOTIF_TYPE_EVENT,"Extracting string AT+CREG?");
 1046              		.loc 1 285 0
 1047 001e 1849     		ldr	r1, .L61+12
 1048 0020 0020     		movs	r0, #0
 1049 0022 FFF7FEFF 		bl	printNotif
 286:modem.c       ****     printNotif(NOTIF_TYPE_EVENT,"uart_received_string: %s",uart_received_string);
 1050              		.loc 1 286 0
 1051 0026 174A     		ldr	r2, .L61+16
 1052 0028 1749     		ldr	r1, .L61+20
 1053 002a 0020     		movs	r0, #0
 1054 002c FFF7FEFF 		bl	printNotif
 287:modem.c       ****     
 288:modem.c       ****     if(status){
 1055              		.loc 1 288 0
 1056 0030 FB7B     		ldrb	r3, [r7, #15]	@ zero_extendqisi2
 1057 0032 002B     		cmp	r3, #0
ARM GAS  C:\Users\HYFI_A~1\AppData\Local\Temp\ccBuuRJ5.s 			page 26


 1058 0034 19D0     		beq	.L58
 1059              	.LBB4:
 289:modem.c       ****         char creg[10];
 290:modem.c       ****         
 291:modem.c       ****         extract_string(uart_received_string,": ","\r",creg);
 1060              		.loc 1 291 0
 1061 0036 3B1D     		adds	r3, r7, #4
 1062 0038 144A     		ldr	r2, .L61+24
 1063 003a 1549     		ldr	r1, .L61+28
 1064 003c 1148     		ldr	r0, .L61+16
 1065 003e FFF7FEFF 		bl	extract_string
 292:modem.c       ****         printNotif(NOTIF_TYPE_EVENT,"Registered to network, CREG: %s",creg);
 1066              		.loc 1 292 0
 1067 0042 3B1D     		adds	r3, r7, #4
 1068 0044 1A46     		mov	r2, r3
 1069 0046 1349     		ldr	r1, .L61+32
 1070 0048 0020     		movs	r0, #0
 1071 004a FFF7FEFF 		bl	printNotif
 293:modem.c       ****         printNotif(NOTIF_TYPE_EVENT,"Done extracing string AT+CREG?");
 1072              		.loc 1 293 0
 1073 004e 1249     		ldr	r1, .L61+36
 1074 0050 0020     		movs	r0, #0
 1075 0052 FFF7FEFF 		bl	printNotif
 294:modem.c       ****        
 295:modem.c       ****         if(strstr(creg,"0,1")!=NULL){
 1076              		.loc 1 295 0
 1077 0056 3B1D     		adds	r3, r7, #4
 1078 0058 1049     		ldr	r1, .L61+40
 1079 005a 1846     		mov	r0, r3
 1080 005c FFF7FEFF 		bl	strstr
 1081 0060 0346     		mov	r3, r0
 1082 0062 002B     		cmp	r3, #0
 1083 0064 01D0     		beq	.L58
 296:modem.c       ****             //time_network_connect = getTimeStamp();
 297:modem.c       ****             return 1u;
 1084              		.loc 1 297 0
 1085 0066 0123     		movs	r3, #1
 1086 0068 00E0     		b	.L60
 1087              	.L58:
 1088              	.LBE4:
 298:modem.c       ****         }
 299:modem.c       ****     }
 300:modem.c       ****     
 301:modem.c       ****     return 0u;
 1089              		.loc 1 301 0
 1090 006a 0023     		movs	r3, #0
 1091              	.L60:
 302:modem.c       ****         
 303:modem.c       **** }
 1092              		.loc 1 303 0
 1093 006c 1846     		mov	r0, r3
 1094 006e 1037     		adds	r7, r7, #16
 1095              		.cfi_def_cfa_offset 8
 1096 0070 BD46     		mov	sp, r7
 1097              		.cfi_def_cfa_register 13
 1098              		@ sp needed
 1099 0072 80BD     		pop	{r7, pc}
ARM GAS  C:\Users\HYFI_A~1\AppData\Local\Temp\ccBuuRJ5.s 			page 27


 1100              	.L62:
 1101              		.align	2
 1102              	.L61:
 1103 0074 DC010000 		.word	.LC13
 1104 0078 00000000 		.word	.LC0
 1105 007c F0010000 		.word	.LC14
 1106 0080 FC010000 		.word	.LC15
 1107 0084 00000000 		.word	uart_received_string
 1108 0088 18020000 		.word	.LC16
 1109 008c 34020000 		.word	.LC17
 1110 0090 38020000 		.word	.LC18
 1111 0094 3C020000 		.word	.LC19
 1112 0098 5C020000 		.word	.LC20
 1113 009c 7C020000 		.word	.LC21
 1114              		.cfi_endproc
 1115              	.LFE76:
 1116              		.size	is_connected_to_cell_network, .-is_connected_to_cell_network
 1117              		.section	.rodata
 1118              		.align	2
 1119              	.LC22:
 1120 0280 41542353 		.ascii	"AT#SGACT=1,1\015\012\000"
 1120      47414354 
 1120      3D312C31 
 1120      0D0A00
 1121              		.section	.text.set_up_internet_connection,"ax",%progbits
 1122              		.align	2
 1123              		.global	set_up_internet_connection
 1124              		.thumb
 1125              		.thumb_func
 1126              		.type	set_up_internet_connection, %function
 1127              	set_up_internet_connection:
 1128              	.LFB77:
 304:modem.c       **** 
 305:modem.c       **** void set_up_internet_connection(){
 1129              		.loc 1 305 0
 1130              		.cfi_startproc
 1131              		@ args = 0, pretend = 0, frame = 0
 1132              		@ frame_needed = 1, uses_anonymous_args = 0
 1133 0000 80B5     		push	{r7, lr}
 1134              		.cfi_def_cfa_offset 8
 1135              		.cfi_offset 7, -8
 1136              		.cfi_offset 14, -4
 1137 0002 00AF     		add	r7, sp, #0
 1138              		.cfi_def_cfa_register 7
 306:modem.c       ****     
 307:modem.c       ****     //port 3
 308:modem.c       ****    //<connId>,<srMode>,<dataMode>, 
 309:modem.c       ****     //at_write_command("AT#SCFGEXT=1,1,0,0,0,0\r", "OK",DEFAULT_AT_TIMEOUT);////LTE modem relevant
 310:modem.c       ****     
 311:modem.c       ****     //<connId>,<cid>,<pktSz>,<maxTo>,<connTo>,<txTo>
 312:modem.c       ****     //at_write_command("AT#SCFG=1,3,300,90,600,50\r", "OK",DEFAULT_AT_TIMEOUT); //LTE modem relevan
 313:modem.c       ****     // <cid>,<stat>
 314:modem.c       ****    
 315:modem.c       ****     at_write_command("AT#SGACT=1,1\r\n", "OK",NO_AT_TIMEOUT);
 1139              		.loc 1 315 0
 1140 0004 0022     		movs	r2, #0
 1141 0006 0349     		ldr	r1, .L64
ARM GAS  C:\Users\HYFI_A~1\AppData\Local\Temp\ccBuuRJ5.s 			page 28


 1142 0008 0348     		ldr	r0, .L64+4
 1143 000a FFF7FEFF 		bl	at_write_command
 316:modem.c       **** 
 317:modem.c       ****     
 318:modem.c       **** 
 319:modem.c       ****     
 320:modem.c       **** }
 1144              		.loc 1 320 0
 1145 000e 00BF     		nop
 1146 0010 80BD     		pop	{r7, pc}
 1147              	.L65:
 1148 0012 00BF     		.align	2
 1149              	.L64:
 1150 0014 00000000 		.word	.LC0
 1151 0018 80020000 		.word	.LC22
 1152              		.cfi_endproc
 1153              	.LFE77:
 1154              		.size	set_up_internet_connection, .-set_up_internet_connection
 1155              		.section	.rodata
 1156 028f 00       		.align	2
 1157              	.LC23:
 1158 0290 312C3100 		.ascii	"1,1\000"
 1159              		.align	2
 1160              	.LC24:
 1161 0294 41542353 		.ascii	"AT#SGACT?\015\000"
 1161      47414354 
 1161      3F0D00
 1162              		.section	.text.is_connected_to_internet,"ax",%progbits
 1163              		.align	2
 1164              		.global	is_connected_to_internet
 1165              		.thumb
 1166              		.thumb_func
 1167              		.type	is_connected_to_internet, %function
 1168              	is_connected_to_internet:
 1169              	.LFB78:
 321:modem.c       **** 
 322:modem.c       **** uint8 is_connected_to_internet(){
 1170              		.loc 1 322 0
 1171              		.cfi_startproc
 1172              		@ args = 0, pretend = 0, frame = 0
 1173              		@ frame_needed = 1, uses_anonymous_args = 0
 1174 0000 80B5     		push	{r7, lr}
 1175              		.cfi_def_cfa_offset 8
 1176              		.cfi_offset 7, -8
 1177              		.cfi_offset 14, -4
 1178 0002 00AF     		add	r7, sp, #0
 1179              		.cfi_def_cfa_register 7
 323:modem.c       ****     
 324:modem.c       ****     //check for 3,1 if verizon
 325:modem.c       ****     if(at_write_command("AT#SGACT?\r", "1,1",DEFAULT_AT_TIMEOUT)){
 1180              		.loc 1 325 0
 1181 0004 4FF4FA62 		mov	r2, #2000
 1182 0008 0549     		ldr	r1, .L69
 1183 000a 0648     		ldr	r0, .L69+4
 1184 000c FFF7FEFF 		bl	at_write_command
 1185 0010 0346     		mov	r3, r0
 1186 0012 002B     		cmp	r3, #0
ARM GAS  C:\Users\HYFI_A~1\AppData\Local\Temp\ccBuuRJ5.s 			page 29


 1187 0014 01D0     		beq	.L67
 326:modem.c       ****         return 1u;
 1188              		.loc 1 326 0
 1189 0016 0123     		movs	r3, #1
 1190 0018 00E0     		b	.L68
 1191              	.L67:
 327:modem.c       ****     }
 328:modem.c       ****  
 329:modem.c       ****     return 0u;
 1192              		.loc 1 329 0
 1193 001a 0023     		movs	r3, #0
 1194              	.L68:
 330:modem.c       ****     
 331:modem.c       **** }
 1195              		.loc 1 331 0
 1196 001c 1846     		mov	r0, r3
 1197 001e 80BD     		pop	{r7, pc}
 1198              	.L70:
 1199              		.align	2
 1200              	.L69:
 1201 0020 90020000 		.word	.LC23
 1202 0024 94020000 		.word	.LC24
 1203              		.cfi_endproc
 1204              	.LFE78:
 1205              		.size	is_connected_to_internet, .-is_connected_to_internet
 1206              		.section	.rodata
 1207 029f 00       		.align	2
 1208              	.LC25:
 1209 02a0 41542B43 		.ascii	"AT+CSQ\015\000"
 1209      53510D00 
 1210              		.align	2
 1211              	.LC26:
 1212 02a8 4E657477 		.ascii	"Network STts: %s\000"
 1212      6F726B20 
 1212      53547473 
 1212      3A202573 
 1212      00
 1213 02b9 000000   		.align	2
 1214              	.LC27:
 1215 02bc 2C00     		.ascii	",\000"
 1216              		.section	.text.get_cell_network_stats,"ax",%progbits
 1217              		.align	2
 1218              		.global	get_cell_network_stats
 1219              		.thumb
 1220              		.thumb_func
 1221              		.type	get_cell_network_stats, %function
 1222              	get_cell_network_stats:
 1223              	.LFB79:
 332:modem.c       **** 
 333:modem.c       **** void get_cell_network_stats(){
 1224              		.loc 1 333 0
 1225              		.cfi_startproc
 1226              		@ args = 0, pretend = 0, frame = 24
 1227              		@ frame_needed = 1, uses_anonymous_args = 0
 1228 0000 80B5     		push	{r7, lr}
 1229              		.cfi_def_cfa_offset 8
 1230              		.cfi_offset 7, -8
ARM GAS  C:\Users\HYFI_A~1\AppData\Local\Temp\ccBuuRJ5.s 			page 30


 1231              		.cfi_offset 14, -4
 1232 0002 86B0     		sub	sp, sp, #24
 1233              		.cfi_def_cfa_offset 32
 1234 0004 00AF     		add	r7, sp, #0
 1235              		.cfi_def_cfa_register 7
 1236              	.LBB5:
 334:modem.c       ****     //gets RSSI and FER values
 335:modem.c       ****     for(uint8 attempts =0; attempts <10; attempts++){
 1237              		.loc 1 335 0
 1238 0006 0023     		movs	r3, #0
 1239 0008 FB75     		strb	r3, [r7, #23]
 1240 000a 3BE0     		b	.L72
 1241              	.L77:
 1242              	.LBB6:
 336:modem.c       ****         at_write_command("AT+CSQ\r", "OK",DEFAULT_AT_TIMEOUT);
 1243              		.loc 1 336 0
 1244 000c 4FF4FA62 		mov	r2, #2000
 1245 0010 2049     		ldr	r1, .L79
 1246 0012 2148     		ldr	r0, .L79+4
 1247 0014 FFF7FEFF 		bl	at_write_command
 337:modem.c       ****         
 338:modem.c       ****         char csq[10];
 339:modem.c       ****         extract_string(uart_received_string,": ","\r",csq);
 1248              		.loc 1 339 0
 1249 0018 3B1D     		adds	r3, r7, #4
 1250 001a 204A     		ldr	r2, .L79+8
 1251 001c 2049     		ldr	r1, .L79+12
 1252 001e 2148     		ldr	r0, .L79+16
 1253 0020 FFF7FEFF 		bl	extract_string
 340:modem.c       ****         printNotif(NOTIF_TYPE_EVENT,"Network STts: %s",csq);
 1254              		.loc 1 340 0
 1255 0024 3B1D     		adds	r3, r7, #4
 1256 0026 1A46     		mov	r2, r3
 1257 0028 1F49     		ldr	r1, .L79+20
 1258 002a 0020     		movs	r0, #0
 1259 002c FFF7FEFF 		bl	printNotif
 341:modem.c       ****         
 342:modem.c       ****         char *token;
 343:modem.c       ****         token = strtok(csq,",");
 1260              		.loc 1 343 0
 1261 0030 3B1D     		adds	r3, r7, #4
 1262 0032 1E49     		ldr	r1, .L79+24
 1263 0034 1846     		mov	r0, r3
 1264 0036 FFF7FEFF 		bl	strtok
 1265 003a 3861     		str	r0, [r7, #16]
 344:modem.c       ****         if(token != NULL){
 1266              		.loc 1 344 0
 1267 003c 3B69     		ldr	r3, [r7, #16]
 1268 003e 002B     		cmp	r3, #0
 1269 0040 06D0     		beq	.L73
 345:modem.c       ****             modem_stats.rssi = atoi(token);
 1270              		.loc 1 345 0
 1271 0042 3869     		ldr	r0, [r7, #16]
 1272 0044 FFF7FEFF 		bl	atoi
 1273 0048 0346     		mov	r3, r0
 1274 004a DAB2     		uxtb	r2, r3
 1275 004c 184B     		ldr	r3, .L79+28
ARM GAS  C:\Users\HYFI_A~1\AppData\Local\Temp\ccBuuRJ5.s 			page 31


 1276 004e 1A70     		strb	r2, [r3]
 1277              	.L73:
 346:modem.c       ****         }
 347:modem.c       ****         token = strtok(NULL,",");
 1278              		.loc 1 347 0
 1279 0050 1649     		ldr	r1, .L79+24
 1280 0052 0020     		movs	r0, #0
 1281 0054 FFF7FEFF 		bl	strtok
 1282 0058 3861     		str	r0, [r7, #16]
 348:modem.c       ****         if(token != NULL){
 1283              		.loc 1 348 0
 1284 005a 3B69     		ldr	r3, [r7, #16]
 1285 005c 002B     		cmp	r3, #0
 1286 005e 06D0     		beq	.L74
 349:modem.c       ****             modem_stats.sq = atoi(token);
 1287              		.loc 1 349 0
 1288 0060 3869     		ldr	r0, [r7, #16]
 1289 0062 FFF7FEFF 		bl	atoi
 1290 0066 0346     		mov	r3, r0
 1291 0068 DAB2     		uxtb	r2, r3
 1292 006a 114B     		ldr	r3, .L79+28
 1293 006c 5A70     		strb	r2, [r3, #1]
 1294              	.L74:
 350:modem.c       ****         }
 351:modem.c       ****         if(modem_stats.rssi != 99 || modem_stats.rssi !=0){
 1295              		.loc 1 351 0
 1296 006e 104B     		ldr	r3, .L79+28
 1297 0070 1B78     		ldrb	r3, [r3]	@ zero_extendqisi2
 1298 0072 632B     		cmp	r3, #99
 1299 0074 09D1     		bne	.L78
 1300              		.loc 1 351 0 is_stmt 0 discriminator 1
 1301 0076 0E4B     		ldr	r3, .L79+28
 1302 0078 1B78     		ldrb	r3, [r3]	@ zero_extendqisi2
 1303 007a 002B     		cmp	r3, #0
 1304 007c 05D1     		bne	.L78
 1305              	.LBE6:
 335:modem.c       ****         at_write_command("AT+CSQ\r", "OK",DEFAULT_AT_TIMEOUT);
 1306              		.loc 1 335 0 is_stmt 1
 1307 007e FB7D     		ldrb	r3, [r7, #23]	@ zero_extendqisi2
 1308 0080 0133     		adds	r3, r3, #1
 1309 0082 FB75     		strb	r3, [r7, #23]
 1310              	.L72:
 335:modem.c       ****         at_write_command("AT+CSQ\r", "OK",DEFAULT_AT_TIMEOUT);
 1311              		.loc 1 335 0 is_stmt 0 discriminator 1
 1312 0084 FB7D     		ldrb	r3, [r7, #23]	@ zero_extendqisi2
 1313 0086 092B     		cmp	r3, #9
 1314 0088 C0D9     		bls	.L77
 1315              	.L78:
 1316              	.LBE5:
 352:modem.c       ****             break;
 353:modem.c       ****         }
 354:modem.c       ****     }
 355:modem.c       **** }
 1317              		.loc 1 355 0 is_stmt 1
 1318 008a 00BF     		nop
 1319 008c 1837     		adds	r7, r7, #24
 1320              		.cfi_def_cfa_offset 8
ARM GAS  C:\Users\HYFI_A~1\AppData\Local\Temp\ccBuuRJ5.s 			page 32


 1321 008e BD46     		mov	sp, r7
 1322              		.cfi_def_cfa_register 13
 1323              		@ sp needed
 1324 0090 80BD     		pop	{r7, pc}
 1325              	.L80:
 1326 0092 00BF     		.align	2
 1327              	.L79:
 1328 0094 00000000 		.word	.LC0
 1329 0098 A0020000 		.word	.LC25
 1330 009c 34020000 		.word	.LC17
 1331 00a0 38020000 		.word	.LC18
 1332 00a4 00000000 		.word	uart_received_string
 1333 00a8 A8020000 		.word	.LC26
 1334 00ac BC020000 		.word	.LC27
 1335 00b0 00000000 		.word	modem_stats
 1336              		.cfi_endproc
 1337              	.LFE79:
 1338              		.size	get_cell_network_stats, .-get_cell_network_stats
 1339              		.section	.rodata
 1340 02be 0000     		.align	2
 1341              	.LC28:
 1342 02c0 41542343 		.ascii	"AT#CGMM\015\000"
 1342      474D4D0D 
 1342      00
 1343 02c9 000000   		.align	2
 1344              	.LC29:
 1345 02cc 4D6F6465 		.ascii	"Modem Model: %s\000"
 1345      6D204D6F 
 1345      64656C3A 
 1345      20257300 
 1346              		.align	2
 1347              	.LC30:
 1348 02dc 41542343 		.ascii	"AT#CCID\015\000"
 1348      4349440D 
 1348      00
 1349 02e5 000000   		.align	2
 1350              	.LC31:
 1351 02e8 53494D20 		.ascii	"SIM ID: %s\000"
 1351      49443A20 
 1351      257300
 1352 02f3 00       		.align	2
 1353              	.LC32:
 1354 02f4 41542B43 		.ascii	"AT+CGSN\015\000"
 1354      47534E0D 
 1354      00
 1355 02fd 000000   		.align	2
 1356              	.LC33:
 1357 0300 494D4549 		.ascii	"IMEI: %s\000"
 1357      3A202573 
 1357      00
 1358 0309 000000   		.align	2
 1359              	.LC34:
 1360 030c 41542B43 		.ascii	"AT+CGDCONT=1,\"IP\",\"wireless.twilio.com\"\015\012"
 1360      4744434F 
 1360      4E543D31 
 1360      2C224950 
 1360      222C2277 
ARM GAS  C:\Users\HYFI_A~1\AppData\Local\Temp\ccBuuRJ5.s 			page 33


 1361 0335 00       		.ascii	"\000"
 1362 0336 0000     		.align	2
 1363              	.LC35:
 1364 0338 41542B43 		.ascii	"AT+CFUN?\015\000"
 1364      46554E3F 
 1364      0D00
 1365 0342 0000     		.align	2
 1366              	.LC36:
 1367 0344 4346554E 		.ascii	"CFUN: %s\000"
 1367      3A202573 
 1367      00
 1368 034d 000000   		.align	2
 1369              	.LC37:
 1370 0350 41542B43 		.ascii	"AT+CFUN=1\015\000"
 1370      46554E3D 
 1370      310D00
 1371              		.section	.text.modem_configure_settings,"ax",%progbits
 1372              		.align	2
 1373              		.global	modem_configure_settings
 1374              		.thumb
 1375              		.thumb_func
 1376              		.type	modem_configure_settings, %function
 1377              	modem_configure_settings:
 1378              	.LFB80:
 356:modem.c       ****     
 357:modem.c       ****     
 358:modem.c       **** 
 359:modem.c       **** void modem_configure_settings(){
 1379              		.loc 1 359 0
 1380              		.cfi_startproc
 1381              		@ args = 0, pretend = 0, frame = 16
 1382              		@ frame_needed = 1, uses_anonymous_args = 0
 1383 0000 80B5     		push	{r7, lr}
 1384              		.cfi_def_cfa_offset 8
 1385              		.cfi_offset 7, -8
 1386              		.cfi_offset 14, -4
 1387 0002 84B0     		sub	sp, sp, #16
 1388              		.cfi_def_cfa_offset 24
 1389 0004 00AF     		add	r7, sp, #0
 1390              		.cfi_def_cfa_register 7
 360:modem.c       ****     
 361:modem.c       ****     //get modem model number
 362:modem.c       ****     if(modem_info.model_id[0] == '\0'){
 1391              		.loc 1 362 0
 1392 0006 3B4B     		ldr	r3, .L88
 1393 0008 1B7D     		ldrb	r3, [r3, #20]	@ zero_extendqisi2
 1394 000a 002B     		cmp	r3, #0
 1395 000c 13D1     		bne	.L82
 363:modem.c       ****         if(at_write_command("AT#CGMM\r","OK",DEFAULT_AT_TIMEOUT)){
 1396              		.loc 1 363 0
 1397 000e 4FF4FA62 		mov	r2, #2000
 1398 0012 3949     		ldr	r1, .L88+4
 1399 0014 3948     		ldr	r0, .L88+8
 1400 0016 FFF7FEFF 		bl	at_write_command
 1401 001a 0346     		mov	r3, r0
 1402 001c 002B     		cmp	r3, #0
 1403 001e 0AD0     		beq	.L82
ARM GAS  C:\Users\HYFI_A~1\AppData\Local\Temp\ccBuuRJ5.s 			page 34


 364:modem.c       ****             extract_string(uart_received_string,": ","\r",modem_info.model_id);
 1404              		.loc 1 364 0
 1405 0020 374B     		ldr	r3, .L88+12
 1406 0022 384A     		ldr	r2, .L88+16
 1407 0024 3849     		ldr	r1, .L88+20
 1408 0026 3948     		ldr	r0, .L88+24
 1409 0028 FFF7FEFF 		bl	extract_string
 365:modem.c       ****             printNotif(NOTIF_TYPE_EVENT,"Modem Model: %s",modem_info.model_id);
 1410              		.loc 1 365 0
 1411 002c 344A     		ldr	r2, .L88+12
 1412 002e 3849     		ldr	r1, .L88+28
 1413 0030 0020     		movs	r0, #0
 1414 0032 FFF7FEFF 		bl	printNotif
 1415              	.L82:
 366:modem.c       ****         }
 367:modem.c       ****     }
 368:modem.c       ****     
 369:modem.c       ****    //get SIM-card ID
 370:modem.c       ****    if(modem_info.sim_id[0] == '\0'){
 1416              		.loc 1 370 0
 1417 0036 2F4B     		ldr	r3, .L88
 1418 0038 1B78     		ldrb	r3, [r3]	@ zero_extendqisi2
 1419 003a 002B     		cmp	r3, #0
 1420 003c 13D1     		bne	.L83
 371:modem.c       ****         if(at_write_command("AT#CCID\r", "OK", DEFAULT_AT_TIMEOUT)){
 1421              		.loc 1 371 0
 1422 003e 4FF4FA62 		mov	r2, #2000
 1423 0042 2D49     		ldr	r1, .L88+4
 1424 0044 3348     		ldr	r0, .L88+32
 1425 0046 FFF7FEFF 		bl	at_write_command
 1426 004a 0346     		mov	r3, r0
 1427 004c 002B     		cmp	r3, #0
 1428 004e 0AD0     		beq	.L83
 372:modem.c       ****             extract_string(uart_received_string,": ","\r",modem_info.sim_id);
 1429              		.loc 1 372 0
 1430 0050 284B     		ldr	r3, .L88
 1431 0052 2C4A     		ldr	r2, .L88+16
 1432 0054 2C49     		ldr	r1, .L88+20
 1433 0056 2D48     		ldr	r0, .L88+24
 1434 0058 FFF7FEFF 		bl	extract_string
 373:modem.c       ****             printNotif(NOTIF_TYPE_EVENT,"SIM ID: %s",modem_info.sim_id);
 1435              		.loc 1 373 0
 1436 005c 254A     		ldr	r2, .L88
 1437 005e 2E49     		ldr	r1, .L88+36
 1438 0060 0020     		movs	r0, #0
 1439 0062 FFF7FEFF 		bl	printNotif
 1440              	.L83:
 374:modem.c       ****         }
 375:modem.c       ****    }
 376:modem.c       **** 
 377:modem.c       ****     //getm modem IMEI
 378:modem.c       ****     if(modem_info.imei[0] == '\0'){
 1441              		.loc 1 378 0
 1442 0066 234B     		ldr	r3, .L88
 1443 0068 93F82830 		ldrb	r3, [r3, #40]	@ zero_extendqisi2
 1444 006c 002B     		cmp	r3, #0
 1445 006e 13D1     		bne	.L84
ARM GAS  C:\Users\HYFI_A~1\AppData\Local\Temp\ccBuuRJ5.s 			page 35


 379:modem.c       ****         if(at_write_command("AT+CGSN\r","OK",DEFAULT_AT_TIMEOUT)){
 1446              		.loc 1 379 0
 1447 0070 4FF4FA62 		mov	r2, #2000
 1448 0074 2049     		ldr	r1, .L88+4
 1449 0076 2948     		ldr	r0, .L88+40
 1450 0078 FFF7FEFF 		bl	at_write_command
 1451 007c 0346     		mov	r3, r0
 1452 007e 002B     		cmp	r3, #0
 1453 0080 0AD0     		beq	.L84
 380:modem.c       ****             extract_string(uart_received_string,": ","\r",modem_info.imei);
 1454              		.loc 1 380 0
 1455 0082 274B     		ldr	r3, .L88+44
 1456 0084 1F4A     		ldr	r2, .L88+16
 1457 0086 2049     		ldr	r1, .L88+20
 1458 0088 2048     		ldr	r0, .L88+24
 1459 008a FFF7FEFF 		bl	extract_string
 381:modem.c       ****             printNotif(NOTIF_TYPE_EVENT,"IMEI: %s",modem_info.imei);
 1460              		.loc 1 381 0
 1461 008e 244A     		ldr	r2, .L88+44
 1462 0090 2449     		ldr	r1, .L88+48
 1463 0092 0020     		movs	r0, #0
 1464 0094 FFF7FEFF 		bl	printNotif
 1465              	.L84:
 382:modem.c       ****         } 
 383:modem.c       ****     }
 384:modem.c       ****     
 385:modem.c       ****     //configfure protocol and cellular end point
 386:modem.c       ****     at_write_command("AT+CGDCONT=1,\"IP\",\"wireless.twilio.com\"\r\n", "OK", DEFAULT_AT_TIMEOUT);
 1466              		.loc 1 386 0
 1467 0098 4FF4FA62 		mov	r2, #2000
 1468 009c 1649     		ldr	r1, .L88+4
 1469 009e 2248     		ldr	r0, .L88+52
 1470 00a0 FFF7FEFF 		bl	at_write_command
 387:modem.c       ****     
 388:modem.c       ****     //Check if modem power savings is enabled. If so, disable it so we can send data.
 389:modem.c       ****     if(at_write_command("AT+CFUN?\r", "OK",DEFAULT_AT_TIMEOUT)){
 1471              		.loc 1 389 0
 1472 00a4 4FF4FA62 		mov	r2, #2000
 1473 00a8 1349     		ldr	r1, .L88+4
 1474 00aa 2048     		ldr	r0, .L88+56
 1475 00ac FFF7FEFF 		bl	at_write_command
 1476 00b0 0346     		mov	r3, r0
 1477 00b2 002B     		cmp	r3, #0
 1478 00b4 19D0     		beq	.L87
 1479              	.LBB7:
 390:modem.c       ****         char CFUN[10];
 391:modem.c       ****         extract_string(uart_received_string,": ","\r",CFUN);
 1480              		.loc 1 391 0
 1481 00b6 3B1D     		adds	r3, r7, #4
 1482 00b8 124A     		ldr	r2, .L88+16
 1483 00ba 1349     		ldr	r1, .L88+20
 1484 00bc 1348     		ldr	r0, .L88+24
 1485 00be FFF7FEFF 		bl	extract_string
 392:modem.c       ****         printNotif(NOTIF_TYPE_EVENT,"CFUN: %s",CFUN);
 1486              		.loc 1 392 0
 1487 00c2 3B1D     		adds	r3, r7, #4
 1488 00c4 1A46     		mov	r2, r3
ARM GAS  C:\Users\HYFI_A~1\AppData\Local\Temp\ccBuuRJ5.s 			page 36


 1489 00c6 1A49     		ldr	r1, .L88+60
 1490 00c8 0020     		movs	r0, #0
 1491 00ca FFF7FEFF 		bl	printNotif
 393:modem.c       ****         if(strstr(CFUN,"1") == NULL){
 1492              		.loc 1 393 0
 1493 00ce 3B1D     		adds	r3, r7, #4
 1494 00d0 3121     		movs	r1, #49
 1495 00d2 1846     		mov	r0, r3
 1496 00d4 FFF7FEFF 		bl	strchr
 1497 00d8 0346     		mov	r3, r0
 1498 00da 002B     		cmp	r3, #0
 1499 00dc 05D1     		bne	.L87
 394:modem.c       ****             at_write_command("AT+CFUN=1\r", "OK",DEFAULT_AT_TIMEOUT);
 1500              		.loc 1 394 0
 1501 00de 4FF4FA62 		mov	r2, #2000
 1502 00e2 0549     		ldr	r1, .L88+4
 1503 00e4 1348     		ldr	r0, .L88+64
 1504 00e6 FFF7FEFF 		bl	at_write_command
 1505              	.L87:
 1506              	.LBE7:
 395:modem.c       ****         }
 396:modem.c       ****     }
 397:modem.c       **** 
 398:modem.c       ****     
 399:modem.c       **** }
 1507              		.loc 1 399 0
 1508 00ea 00BF     		nop
 1509 00ec 1037     		adds	r7, r7, #16
 1510              		.cfi_def_cfa_offset 8
 1511 00ee BD46     		mov	sp, r7
 1512              		.cfi_def_cfa_register 13
 1513              		@ sp needed
 1514 00f0 80BD     		pop	{r7, pc}
 1515              	.L89:
 1516 00f2 00BF     		.align	2
 1517              	.L88:
 1518 00f4 00000000 		.word	modem_info
 1519 00f8 00000000 		.word	.LC0
 1520 00fc C0020000 		.word	.LC28
 1521 0100 14000000 		.word	modem_info+20
 1522 0104 34020000 		.word	.LC17
 1523 0108 38020000 		.word	.LC18
 1524 010c 00000000 		.word	uart_received_string
 1525 0110 CC020000 		.word	.LC29
 1526 0114 DC020000 		.word	.LC30
 1527 0118 E8020000 		.word	.LC31
 1528 011c F4020000 		.word	.LC32
 1529 0120 28000000 		.word	modem_info+40
 1530 0124 00030000 		.word	.LC33
 1531 0128 0C030000 		.word	.LC34
 1532 012c 38030000 		.word	.LC35
 1533 0130 44030000 		.word	.LC36
 1534 0134 50030000 		.word	.LC37
 1535              		.cfi_endproc
 1536              	.LFE80:
 1537              		.size	modem_configure_settings, .-modem_configure_settings
 1538              		.section	.rodata
ARM GAS  C:\Users\HYFI_A~1\AppData\Local\Temp\ccBuuRJ5.s 			page 37


 1539 035b 00       		.align	2
 1540              	.LC38:
 1541 035c 4D6F6465 		.ascii	"Modem not ready to get time. Not conncted to networ"
 1541      6D206E6F 
 1541      74207265 
 1541      61647920 
 1541      746F2067 
 1542 038f 6B2E00   		.ascii	"k.\000"
 1543 0392 0000     		.align	2
 1544              	.LC39:
 1545 0394 41542B43 		.ascii	"AT+CCLK?\015\000"
 1545      434C4B3F 
 1545      0D00
 1546 039e 0000     		.align	2
 1547              	.LC40:
 1548 03a0 220D00   		.ascii	"\"\015\000"
 1549 03a3 00       		.align	2
 1550              	.LC41:
 1551 03a4 3A202200 		.ascii	": \"\000"
 1552              		.align	2
 1553              	.LC42:
 1554 03a8 25642F25 		.ascii	"%d/%d/%d,%d:%d:%d-%d\000"
 1554      642F2564 
 1554      2C25643A 
 1554      25643A25 
 1554      642D2564 
 1555 03bd 000000   		.align	2
 1556              	.LC43:
 1557 03c0 25642F25 		.ascii	"%d/%d/%d,%d:%d:%d+%d\000"
 1557      642F2564 
 1557      2C25643A 
 1557      25643A25 
 1557      642B2564 
 1558 03d5 000000   		.align	2
 1559              	.LC44:
 1560 03d8 436F756C 		.ascii	"Could not parse modem time: %s.\000"
 1560      64206E6F 
 1560      74207061 
 1560      72736520 
 1560      6D6F6465 
 1561              		.section	.text.modem_get_network_time,"ax",%progbits
 1562              		.align	2
 1563              		.global	modem_get_network_time
 1564              		.thumb
 1565              		.thumb_func
 1566              		.type	modem_get_network_time, %function
 1567              	modem_get_network_time:
 1568              	.LFB81:
 400:modem.c       **** 
 401:modem.c       **** //returns 0 if modem can't get time
 402:modem.c       **** long modem_get_network_time(){
 1569              		.loc 1 402 0
 1570              		.cfi_startproc
 1571              		@ args = 0, pretend = 0, frame = 104
 1572              		@ frame_needed = 1, uses_anonymous_args = 0
 1573 0000 80B5     		push	{r7, lr}
 1574              		.cfi_def_cfa_offset 8
ARM GAS  C:\Users\HYFI_A~1\AppData\Local\Temp\ccBuuRJ5.s 			page 38


 1575              		.cfi_offset 7, -8
 1576              		.cfi_offset 14, -4
 1577 0002 A0B0     		sub	sp, sp, #128
 1578              		.cfi_def_cfa_offset 136
 1579 0004 06AF     		add	r7, sp, #24
 1580              		.cfi_def_cfa 7, 112
 403:modem.c       ****     
 404:modem.c       ****     //modem reposen format (careful to include the quotes "")
 405:modem.c       ****     //+CCLK: "20/05/01,10:48:33-16" the "-16" is the number of quarter hourts (15 mins) from GMT ti
 406:modem.c       ****     //ex: 14:48 GMT
 407:modem.c       **** 
 408:modem.c       ****     if(modem_state != MODEM_STATE_READY){
 1581              		.loc 1 408 0
 1582 0006 444B     		ldr	r3, .L97
 1583 0008 1B78     		ldrb	r3, [r3]	@ zero_extendqisi2
 1584 000a 042B     		cmp	r3, #4
 1585 000c 05D0     		beq	.L91
 409:modem.c       ****         printNotif(NOTIF_TYPE_ERROR,"Modem not ready to get time. Not conncted to network.");
 1586              		.loc 1 409 0
 1587 000e 4349     		ldr	r1, .L97+4
 1588 0010 0220     		movs	r0, #2
 1589 0012 FFF7FEFF 		bl	printNotif
 410:modem.c       ****         return 0;   
 1590              		.loc 1 410 0
 1591 0016 0023     		movs	r3, #0
 1592 0018 7AE0     		b	.L92
 1593              	.L91:
 411:modem.c       ****     }
 412:modem.c       ****     long epoch_time = 0;
 1594              		.loc 1 412 0
 1595 001a 0023     		movs	r3, #0
 1596 001c 7B66     		str	r3, [r7, #100]
 413:modem.c       ****     
 414:modem.c       ****     if(at_write_command("AT+CCLK?\r","OK",DEFAULT_AT_TIMEOUT)){
 1597              		.loc 1 414 0
 1598 001e 4FF4FA62 		mov	r2, #2000
 1599 0022 3F49     		ldr	r1, .L97+8
 1600 0024 3F48     		ldr	r0, .L97+12
 1601 0026 FFF7FEFF 		bl	at_write_command
 1602 002a 0346     		mov	r3, r0
 1603 002c 002B     		cmp	r3, #0
 1604 002e 6ED0     		beq	.L93
 1605              	.LBB8:
 415:modem.c       ****         char network_time[30];
 416:modem.c       ****         extract_string(uart_received_string,": \"","\"\r",network_time);
 1606              		.loc 1 416 0
 1607 0030 07F14403 		add	r3, r7, #68
 1608 0034 3C4A     		ldr	r2, .L97+16
 1609 0036 3D49     		ldr	r1, .L97+20
 1610 0038 3D48     		ldr	r0, .L97+24
 1611 003a FFF7FEFF 		bl	extract_string
 417:modem.c       ****         
 418:modem.c       ****         ///////////////////  
 419:modem.c       ****         struct tm t;
 420:modem.c       ****         
 421:modem.c       ****         int year, month, day, hour, minute, second, gmt_offset = 0;
 1612              		.loc 1 421 0
ARM GAS  C:\Users\HYFI_A~1\AppData\Local\Temp\ccBuuRJ5.s 			page 39


 1613 003e 0023     		movs	r3, #0
 1614 0040 BB62     		str	r3, [r7, #40]
 422:modem.c       ****       
 423:modem.c       ****         if(sscanf(network_time,"%d/%d/%d,%d:%d:%d-%d",&year,&month,&day,&hour,&minute,&second,&gmt_
 1615              		.loc 1 423 0
 1616 0042 07F13C01 		add	r1, r7, #60
 1617 0046 07F14002 		add	r2, r7, #64
 1618 004a 07F14400 		add	r0, r7, #68
 1619 004e 07F12803 		add	r3, r7, #40
 1620 0052 0493     		str	r3, [sp, #16]
 1621 0054 07F12C03 		add	r3, r7, #44
 1622 0058 0393     		str	r3, [sp, #12]
 1623 005a 07F13003 		add	r3, r7, #48
 1624 005e 0293     		str	r3, [sp, #8]
 1625 0060 07F13403 		add	r3, r7, #52
 1626 0064 0193     		str	r3, [sp, #4]
 1627 0066 07F13803 		add	r3, r7, #56
 1628 006a 0093     		str	r3, [sp]
 1629 006c 0B46     		mov	r3, r1
 1630 006e 3149     		ldr	r1, .L97+28
 1631 0070 FFF7FEFF 		bl	sscanf
 1632 0074 0346     		mov	r3, r0
 1633 0076 072B     		cmp	r3, #7
 1634 0078 06D1     		bne	.L94
 424:modem.c       ****             gmt_offset = gmt_offset*(900);
 1635              		.loc 1 424 0
 1636 007a BB6A     		ldr	r3, [r7, #40]
 1637 007c 4FF46172 		mov	r2, #900
 1638 0080 02FB03F3 		mul	r3, r2, r3
 1639 0084 BB62     		str	r3, [r7, #40]
 1640 0086 2AE0     		b	.L95
 1641              	.L94:
 425:modem.c       ****         }else if(sscanf(network_time,"%d/%d/%d,%d:%d:%d+%d",&year,&month,&day,&hour,&minute,&second
 1642              		.loc 1 425 0
 1643 0088 07F13C01 		add	r1, r7, #60
 1644 008c 07F14002 		add	r2, r7, #64
 1645 0090 07F14400 		add	r0, r7, #68
 1646 0094 07F12803 		add	r3, r7, #40
 1647 0098 0493     		str	r3, [sp, #16]
 1648 009a 07F12C03 		add	r3, r7, #44
 1649 009e 0393     		str	r3, [sp, #12]
 1650 00a0 07F13003 		add	r3, r7, #48
 1651 00a4 0293     		str	r3, [sp, #8]
 1652 00a6 07F13403 		add	r3, r7, #52
 1653 00aa 0193     		str	r3, [sp, #4]
 1654 00ac 07F13803 		add	r3, r7, #56
 1655 00b0 0093     		str	r3, [sp]
 1656 00b2 0B46     		mov	r3, r1
 1657 00b4 2049     		ldr	r1, .L97+32
 1658 00b6 FFF7FEFF 		bl	sscanf
 1659 00ba 0346     		mov	r3, r0
 1660 00bc 072B     		cmp	r3, #7
 1661 00be 05D1     		bne	.L96
 426:modem.c       ****             gmt_offset = gmt_offset*(-900);
 1662              		.loc 1 426 0
 1663 00c0 BB6A     		ldr	r3, [r7, #40]
 1664 00c2 1E4A     		ldr	r2, .L97+36
ARM GAS  C:\Users\HYFI_A~1\AppData\Local\Temp\ccBuuRJ5.s 			page 40


 1665 00c4 02FB03F3 		mul	r3, r2, r3
 1666 00c8 BB62     		str	r3, [r7, #40]
 1667 00ca 08E0     		b	.L95
 1668              	.L96:
 427:modem.c       ****         }else{
 428:modem.c       ****             printNotif(NOTIF_TYPE_ERROR,"Could not parse modem time: %s.",network_time);
 1669              		.loc 1 428 0
 1670 00cc 07F14403 		add	r3, r7, #68
 1671 00d0 1A46     		mov	r2, r3
 1672 00d2 1B49     		ldr	r1, .L97+40
 1673 00d4 0220     		movs	r0, #2
 1674 00d6 FFF7FEFF 		bl	printNotif
 429:modem.c       ****             return 0;   
 1675              		.loc 1 429 0
 1676 00da 0023     		movs	r3, #0
 1677 00dc 18E0     		b	.L92
 1678              	.L95:
 430:modem.c       ****         }
 431:modem.c       ****         
 432:modem.c       ****         t.tm_sec = second;
 1679              		.loc 1 432 0
 1680 00de FB6A     		ldr	r3, [r7, #44]
 1681 00e0 7B60     		str	r3, [r7, #4]
 433:modem.c       ****         t.tm_min = minute;
 1682              		.loc 1 433 0
 1683 00e2 3B6B     		ldr	r3, [r7, #48]
 1684 00e4 BB60     		str	r3, [r7, #8]
 434:modem.c       ****         t.tm_hour = hour;
 1685              		.loc 1 434 0
 1686 00e6 7B6B     		ldr	r3, [r7, #52]
 1687 00e8 FB60     		str	r3, [r7, #12]
 435:modem.c       ****         t.tm_year = year + 100;    // Year since 1900
 1688              		.loc 1 435 0
 1689 00ea 3B6C     		ldr	r3, [r7, #64]
 1690 00ec 6433     		adds	r3, r3, #100
 1691 00ee BB61     		str	r3, [r7, #24]
 436:modem.c       ****         t.tm_mon = month-1;        // Month, where 0 = jan
 1692              		.loc 1 436 0
 1693 00f0 FB6B     		ldr	r3, [r7, #60]
 1694 00f2 013B     		subs	r3, r3, #1
 1695 00f4 7B61     		str	r3, [r7, #20]
 437:modem.c       ****         t.tm_mday = day;           // Day of the month
 1696              		.loc 1 437 0
 1697 00f6 BB6B     		ldr	r3, [r7, #56]
 1698 00f8 3B61     		str	r3, [r7, #16]
 438:modem.c       ****         t.tm_isdst = 0;            // Is Daylight Savings on? 1 = yes, 0 = no, -1 = unknown
 1699              		.loc 1 438 0
 1700 00fa 0023     		movs	r3, #0
 1701 00fc 7B62     		str	r3, [r7, #36]
 439:modem.c       ****     
 440:modem.c       ****         epoch_time = mktime(&t) + gmt_offset;
 1702              		.loc 1 440 0
 1703 00fe 3B1D     		adds	r3, r7, #4
 1704 0100 1846     		mov	r0, r3
 1705 0102 FFF7FEFF 		bl	mktime
 1706 0106 0246     		mov	r2, r0
 1707 0108 BB6A     		ldr	r3, [r7, #40]
ARM GAS  C:\Users\HYFI_A~1\AppData\Local\Temp\ccBuuRJ5.s 			page 41


 1708 010a 1344     		add	r3, r3, r2
 1709 010c 7B66     		str	r3, [r7, #100]
 1710              	.L93:
 1711              	.LBE8:
 441:modem.c       ****     }
 442:modem.c       **** 
 443:modem.c       ****     
 444:modem.c       ****     return epoch_time;
 1712              		.loc 1 444 0
 1713 010e 7B6E     		ldr	r3, [r7, #100]
 1714              	.L92:
 445:modem.c       **** }
 1715              		.loc 1 445 0
 1716 0110 1846     		mov	r0, r3
 1717 0112 6837     		adds	r7, r7, #104
 1718              		.cfi_def_cfa_offset 8
 1719 0114 BD46     		mov	sp, r7
 1720              		.cfi_def_cfa_register 13
 1721              		@ sp needed
 1722 0116 80BD     		pop	{r7, pc}
 1723              	.L98:
 1724              		.align	2
 1725              	.L97:
 1726 0118 00000000 		.word	modem_state
 1727 011c 5C030000 		.word	.LC38
 1728 0120 00000000 		.word	.LC0
 1729 0124 94030000 		.word	.LC39
 1730 0128 A0030000 		.word	.LC40
 1731 012c A4030000 		.word	.LC41
 1732 0130 00000000 		.word	uart_received_string
 1733 0134 A8030000 		.word	.LC42
 1734 0138 C0030000 		.word	.LC43
 1735 013c 7CFCFFFF 		.word	-900
 1736 0140 D8030000 		.word	.LC44
 1737              		.cfi_endproc
 1738              	.LFE81:
 1739              		.size	modem_get_network_time, .-modem_get_network_time
 1740              		.section	.text.modem_get_state,"ax",%progbits
 1741              		.align	2
 1742              		.global	modem_get_state
 1743              		.thumb
 1744              		.thumb_func
 1745              		.type	modem_get_state, %function
 1746              	modem_get_state:
 1747              	.LFB82:
 446:modem.c       **** 
 447:modem.c       **** 
 448:modem.c       **** 
 449:modem.c       **** 
 450:modem.c       **** uint8 modem_get_state(){
 1748              		.loc 1 450 0
 1749              		.cfi_startproc
 1750              		@ args = 0, pretend = 0, frame = 0
 1751              		@ frame_needed = 1, uses_anonymous_args = 0
 1752              		@ link register save eliminated.
 1753 0000 80B4     		push	{r7}
 1754              		.cfi_def_cfa_offset 4
ARM GAS  C:\Users\HYFI_A~1\AppData\Local\Temp\ccBuuRJ5.s 			page 42


 1755              		.cfi_offset 7, -4
 1756 0002 00AF     		add	r7, sp, #0
 1757              		.cfi_def_cfa_register 7
 451:modem.c       ****     return modem_state;
 1758              		.loc 1 451 0
 1759 0004 024B     		ldr	r3, .L101
 1760 0006 1B78     		ldrb	r3, [r3]	@ zero_extendqisi2
 452:modem.c       **** }
 1761              		.loc 1 452 0
 1762 0008 1846     		mov	r0, r3
 1763 000a BD46     		mov	sp, r7
 1764              		.cfi_def_cfa_register 13
 1765              		@ sp needed
 1766 000c 80BC     		pop	{r7}
 1767              		.cfi_restore 7
 1768              		.cfi_def_cfa_offset 0
 1769 000e 7047     		bx	lr
 1770              	.L102:
 1771              		.align	2
 1772              	.L101:
 1773 0010 00000000 		.word	modem_state
 1774              		.cfi_endproc
 1775              	.LFE82:
 1776              		.size	modem_get_state, .-modem_get_state
 1777              		.section	.text.modem_sleep,"ax",%progbits
 1778              		.align	2
 1779              		.global	modem_sleep
 1780              		.thumb
 1781              		.thumb_func
 1782              		.type	modem_sleep, %function
 1783              	modem_sleep:
 1784              	.LFB83:
 453:modem.c       **** 
 454:modem.c       **** void modem_sleep(){
 1785              		.loc 1 454 0
 1786              		.cfi_startproc
 1787              		@ args = 0, pretend = 0, frame = 0
 1788              		@ frame_needed = 1, uses_anonymous_args = 0
 1789 0000 80B5     		push	{r7, lr}
 1790              		.cfi_def_cfa_offset 8
 1791              		.cfi_offset 7, -8
 1792              		.cfi_offset 14, -4
 1793 0002 00AF     		add	r7, sp, #0
 1794              		.cfi_def_cfa_register 7
 455:modem.c       ****     if(modem_get_state() != MODEM_STATE_OFF){
 1795              		.loc 1 455 0
 1796 0004 FFF7FEFF 		bl	modem_get_state
 1797 0008 0346     		mov	r3, r0
 1798 000a 002B     		cmp	r3, #0
 1799 000c 03D0     		beq	.L105
 456:modem.c       **** 
 457:modem.c       ****         Telit_ControlReg_Sleep();
 1800              		.loc 1 457 0
 1801 000e FFF7FEFF 		bl	Telit_ControlReg_Sleep
 458:modem.c       ****         UART_Telit_Sleep();
 1802              		.loc 1 458 0
 1803 0012 FFF7FEFF 		bl	UART_Telit_Sleep
ARM GAS  C:\Users\HYFI_A~1\AppData\Local\Temp\ccBuuRJ5.s 			page 43


 1804              	.L105:
 459:modem.c       ****         
 460:modem.c       ****         //set interrupt on RX pin to wakeup chip from sleep if UART comm starts
 461:modem.c       ****        // Rx_Telit_SetInterruptMode(Rx_Telit_0_INTR,Rx_Telit_INTR_FALLING);
 462:modem.c       ****      }
 463:modem.c       **** }
 1805              		.loc 1 463 0
 1806 0016 00BF     		nop
 1807 0018 80BD     		pop	{r7, pc}
 1808              		.cfi_endproc
 1809              	.LFE83:
 1810              		.size	modem_sleep, .-modem_sleep
 1811 001a 00BF     		.section	.text.modem_wakeup,"ax",%progbits
 1812              		.align	2
 1813              		.global	modem_wakeup
 1814              		.thumb
 1815              		.thumb_func
 1816              		.type	modem_wakeup, %function
 1817              	modem_wakeup:
 1818              	.LFB84:
 464:modem.c       **** 
 465:modem.c       **** void modem_wakeup(){
 1819              		.loc 1 465 0
 1820              		.cfi_startproc
 1821              		@ args = 0, pretend = 0, frame = 0
 1822              		@ frame_needed = 1, uses_anonymous_args = 0
 1823 0000 80B5     		push	{r7, lr}
 1824              		.cfi_def_cfa_offset 8
 1825              		.cfi_offset 7, -8
 1826              		.cfi_offset 14, -4
 1827 0002 00AF     		add	r7, sp, #0
 1828              		.cfi_def_cfa_register 7
 466:modem.c       ****      if(modem_get_state() != MODEM_STATE_OFF){
 1829              		.loc 1 466 0
 1830 0004 FFF7FEFF 		bl	modem_get_state
 1831 0008 0346     		mov	r3, r0
 1832 000a 002B     		cmp	r3, #0
 1833 000c 0BD0     		beq	.L108
 467:modem.c       ****         Telit_ControlReg_Wakeup();
 1834              		.loc 1 467 0
 1835 000e FFF7FEFF 		bl	Telit_ControlReg_Wakeup
 468:modem.c       ****         UART_Telit_Wakeup();
 1836              		.loc 1 468 0
 1837 0012 FFF7FEFF 		bl	UART_Telit_Wakeup
 469:modem.c       ****         //remove the need for this pin itterupt
 470:modem.c       ****         //Rx_Telit_SetInterruptMode(Rx_Telit_0_INTR,Rx_Telit_INTR_NONE);
 471:modem.c       ****         //if woken up from pin, go ahead and delay for 100ms to allow modem UART to deliver the mes
 472:modem.c       ****         if(modem_get_state() == MODEM_STATE_WAITING_FOR_IP){
 1838              		.loc 1 472 0
 1839 0016 FFF7FEFF 		bl	modem_get_state
 1840 001a 0346     		mov	r3, r0
 1841 001c 032B     		cmp	r3, #3
 1842 001e 02D1     		bne	.L108
 473:modem.c       ****             CyDelay(100u);
 1843              		.loc 1 473 0
 1844 0020 6420     		movs	r0, #100
 1845 0022 FFF7FEFF 		bl	CyDelay
ARM GAS  C:\Users\HYFI_A~1\AppData\Local\Temp\ccBuuRJ5.s 			page 44


 1846              	.L108:
 474:modem.c       ****         }
 475:modem.c       ****         
 476:modem.c       ****      }
 477:modem.c       ****     
 478:modem.c       **** }
 1847              		.loc 1 478 0
 1848 0026 00BF     		nop
 1849 0028 80BD     		pop	{r7, pc}
 1850              		.cfi_endproc
 1851              	.LFE84:
 1852              		.size	modem_wakeup, .-modem_wakeup
 1853 002a 00BF     		.section	.rodata
 1854              		.align	2
 1855              	.LC45:
 1856 03f8 41542447 		.ascii	"AT$GPSQOS=50,50,100,0\015\000"
 1856      5053514F 
 1856      533D3530 
 1856      2C35302C 
 1856      3130302C 
 1857 040f 00       		.align	2
 1858              	.LC46:
 1859 0410 4154244C 		.ascii	"AT$LCSSLP=1,\"supl.google.com\"\015\000"
 1859      4353534C 
 1859      503D312C 
 1859      22737570 
 1859      6C2E676F 
 1860 042f 00       		.align	2
 1861              	.LC47:
 1862 0430 41542353 		.ascii	"AT#SGACT=1,0\015\012\000"
 1862      47414354 
 1862      3D312C30 
 1862      0D0A00
 1863 043f 00       		.align	2
 1864              	.LC48:
 1865 0440 4154244C 		.ascii	"AT$LCSLK=1,1\015\000"
 1865      43534C4B 
 1865      3D312C31 
 1865      0D00
 1866 044e 0000     		.align	2
 1867              	.LC49:
 1868 0450 41542447 		.ascii	"AT$GPSNMUN=2,1,0,0,0,0,0\015\000"
 1868      50534E4D 
 1868      554E3D32 
 1868      2C312C30 
 1868      2C302C30 
 1869 046a 0000     		.align	2
 1870              	.LC50:
 1871 046c 4E00     		.ascii	"N\000"
 1872 046e 0000     		.align	2
 1873              	.LC51:
 1874 0470 41542447 		.ascii	"AT$GPSSLSR=1,1,,,,,0,255\015\000"
 1874      5053534C 
 1874      53523D31 
 1874      2C312C2C 
 1874      2C2C2C30 
 1875 048a 0000     		.align	2
ARM GAS  C:\Users\HYFI_A~1\AppData\Local\Temp\ccBuuRJ5.s 			page 45


 1876              	.LC52:
 1877 048c 252A732C 		.ascii	"%*s,%f,N,%f,W,%*s\000"
 1877      25662C4E 
 1877      2C25662C 
 1877      572C252A 
 1877      7300
 1878              		.global	__aeabi_fdiv
 1879 049e 0000     		.align	2
 1880              	.LC53:
 1881 04a0 41542447 		.ascii	"AT$GPSP=0\015\000"
 1881      5053503D 
 1881      300D00
 1882              		.section	.text.modem_get_gps_coordinates,"ax",%progbits
 1883              		.align	2
 1884              		.global	modem_get_gps_coordinates
 1885              		.thumb
 1886              		.thumb_func
 1887              		.type	modem_get_gps_coordinates, %function
 1888              	modem_get_gps_coordinates:
 1889              	.LFB85:
 479:modem.c       **** 
 480:modem.c       **** 
 481:modem.c       ****     
 482:modem.c       **** //retunrs lat,lom,alt data from Assited GPS (AGPS) system
 483:modem.c       **** gps_t modem_get_gps_coordinates(){
 1890              		.loc 1 483 0
 1891              		.cfi_startproc
 1892              		@ args = 0, pretend = 0, frame = 48
 1893              		@ frame_needed = 1, uses_anonymous_args = 0
 1894 0000 90B5     		push	{r4, r7, lr}
 1895              		.cfi_def_cfa_offset 12
 1896              		.cfi_offset 4, -12
 1897              		.cfi_offset 7, -8
 1898              		.cfi_offset 14, -4
 1899 0002 8DB0     		sub	sp, sp, #52
 1900              		.cfi_def_cfa_offset 64
 1901 0004 00AF     		add	r7, sp, #0
 1902              		.cfi_def_cfa_register 7
 1903 0006 7860     		str	r0, [r7, #4]
 484:modem.c       ****     gps_t gps;
 485:modem.c       ****     gps.altitude = 0;
 1904              		.loc 1 485 0
 1905 0008 4FF00003 		mov	r3, #0
 1906 000c FB61     		str	r3, [r7, #28]	@ float
 486:modem.c       ****     gps.longitude = 0;
 1907              		.loc 1 486 0
 1908 000e 4FF00003 		mov	r3, #0
 1909 0012 BB61     		str	r3, [r7, #24]	@ float
 487:modem.c       ****     gps.latitude = 0;
 1910              		.loc 1 487 0
 1911 0014 4FF00003 		mov	r3, #0
 1912 0018 7B61     		str	r3, [r7, #20]	@ float
 488:modem.c       ****     gps.time_to_lock =0;
 1913              		.loc 1 488 0
 1914 001a 0023     		movs	r3, #0
 1915 001c 3B84     		strh	r3, [r7, #32]	@ movhi
 489:modem.c       ****     gps.valid = 0;
ARM GAS  C:\Users\HYFI_A~1\AppData\Local\Temp\ccBuuRJ5.s 			page 46


 1916              		.loc 1 489 0
 1917 001e 0023     		movs	r3, #0
 1918 0020 87F82230 		strb	r3, [r7, #34]
 490:modem.c       ****     
 491:modem.c       ****     //AGPS will only work if we're connected to network, so don't call this fuction otherwise
 492:modem.c       ****     if(modem_state != MODEM_STATE_READY){
 1919              		.loc 1 492 0
 1920 0024 464B     		ldr	r3, .L120
 1921 0026 1B78     		ldrb	r3, [r3]	@ zero_extendqisi2
 1922 0028 042B     		cmp	r3, #4
 1923 002a 07D0     		beq	.L110
 493:modem.c       ****         return gps;//where valid = 0
 1924              		.loc 1 493 0
 1925 002c 7B68     		ldr	r3, [r7, #4]
 1926 002e 1C46     		mov	r4, r3
 1927 0030 07F11403 		add	r3, r7, #20
 1928 0034 0FCB     		ldmia	r3, {r0, r1, r2, r3}
 1929 0036 84E80F00 		stmia	r4, {r0, r1, r2, r3}
 1930 003a 7CE0     		b	.L109
 1931              	.L110:
 494:modem.c       ****     }
 495:modem.c       ****     
 496:modem.c       ****     long lock_time = getTimeStamp();
 1932              		.loc 1 496 0
 1933 003c FFF7FEFF 		bl	getTimeStamp
 1934 0040 B862     		str	r0, [r7, #40]
 497:modem.c       ****     
 498:modem.c       ****     /*enable this for thr LTER module
 499:modem.c       ****     //enable GPS Low-Dropout Regulator
 500:modem.c       ****     at_write_command("AT#GPIO=5,1,1,0\r","OK",DEFAULT_AT_TIMEOUT);
 501:modem.c       ****     
 502:modem.c       ****     //configure SUPL connection params
 503:modem.c       ****     at_write_command("AT$SUPLSEC=1\r","OK",DEFAULT_AT_TIMEOUT);
 504:modem.c       ****     
 505:modem.c       ****     //use SUPL2.0
 506:modem.c       ****     at_write_command("AT$SUPLV2=1\r","OK",DEFAULT_AT_TIMEOUT);
 507:modem.c       ****     
 508:modem.c       ****     //enable AGPS service
 509:modem.c       ****     at_write_command("AT$AGPSEN=1\r","OK",DEFAULT_AT_TIMEOUT);
 510:modem.c       ****     
 511:modem.c       ****     //chose SUPL server, use google publiuc service
 512:modem.c       ****     at_write_command("AT$SLP=1,\"supl.google.com:7275\"\r","OK",DEFAULT_AT_TIMEOUT);
 513:modem.c       ****     
 514:modem.c       ****     //pdp context has to be lockeed to carrier for this to work
 515:modem.c       ****     
 516:modem.c       ****     at_write_command("AT$LCSLK=1,1\r","OK",DEFAULT_AT_TIMEOUT);//ATT
 517:modem.c       ****     //at_write_command("AT$LCSLK=1,3\r","OK",DEFAULT_AT_TIMEOUT);//Verizon
 518:modem.c       ****     
 519:modem.c       ****     //start the AGPS service
 520:modem.c       ****     //will keep receiving a buynch of commas without numbers, until GPS locks
 521:modem.c       ****     //good lock will retunr a string with "N" and "W" coordinates
 522:modem.c       ****     
 523:modem.c       ****     
 524:modem.c       ****  
 525:modem.c       ****     uint8 gps_status = 0;
 526:modem.c       ****     for(uint16 i=0;i<200;i++){
 527:modem.c       ****         gps_status = at_write_command("AT$GPSACP\r","N",DEFAULT_AT_TIMEOUT);//ATT
ARM GAS  C:\Users\HYFI_A~1\AppData\Local\Temp\ccBuuRJ5.s 			page 47


 528:modem.c       ****         if(gps_status){
 529:modem.c       ****             break;   
 530:modem.c       ****         }
 531:modem.c       ****         CyDelay(1000u);//wait for a second -- BLOCKING. Could be more elegant to incorporate this i
 532:modem.c       ****     }
 533:modem.c       ****     
 534:modem.c       ****     
 535:modem.c       ****     //parse data here
 536:modem.c       ****     
 537:modem.c       ****     //disable LDO, just in case
 538:modem.c       ****     at_write_command("AT#GPIO=5,0,1,0\r","OK",DEFAULT_AT_TIMEOUT);
 539:modem.c       ****     
 540:modem.c       ****     //flush modem's GPS data, just in case
 541:modem.c       ****     at_write_command("AT$GPSR=0\r","OK",DEFAULT_AT_TIMEOUT);
 542:modem.c       ****     
 543:modem.c       ****     */
 544:modem.c       ****     
 545:modem.c       ****     
 546:modem.c       ****     //Setthe GPS Quality of Servicep arameters. Inorder,theyare<horiz_accuracy(inmeters)>,<vertical
 547:modem.c       ****     //AT$GPSQOS=50,50,100,0
 548:modem.c       ****     at_write_command("AT$GPSQOS=50,50,100,0\r","OK",DEFAULT_AT_TIMEOUT);
 1935              		.loc 1 548 0
 1936 0042 4FF4FA62 		mov	r2, #2000
 1937 0046 3F49     		ldr	r1, .L120+4
 1938 0048 3F48     		ldr	r0, .L120+8
 1939 004a FFF7FEFF 		bl	at_write_command
 549:modem.c       ****     
 550:modem.c       ****     //SettheSUPLLocationPlatform(SLP)addressoftheserverthatwillprovidetheA-GPS data:
 551:modem.c       ****     at_write_command("AT$LCSSLP=1,\"supl.google.com\"\r","OK",DEFAULT_AT_TIMEOUT);
 1940              		.loc 1 551 0
 1941 004e 4FF4FA62 		mov	r2, #2000
 1942 0052 3C49     		ldr	r1, .L120+4
 1943 0054 3D48     		ldr	r0, .L120+12
 1944 0056 FFF7FEFF 		bl	at_write_command
 552:modem.c       ****     
 553:modem.c       ****     //unlock contedt, simnce its being used by modem
 554:modem.c       ****     at_write_command("AT#SGACT=1,0\r\n", "OK",DEFAULT_AT_TIMEOUT);
 1945              		.loc 1 554 0
 1946 005a 4FF4FA62 		mov	r2, #2000
 1947 005e 3949     		ldr	r1, .L120+4
 1948 0060 3B48     		ldr	r0, .L120+16
 1949 0062 FFF7FEFF 		bl	at_write_command
 555:modem.c       ****     //Lock context 1 for LoCation Services (LCS) use only
 556:modem.c       ****     at_write_command("AT$LCSLK=1,1\r","OK",5000u);
 1950              		.loc 1 556 0
 1951 0066 41F28832 		movw	r2, #5000
 1952 006a 3649     		ldr	r1, .L120+4
 1953 006c 3948     		ldr	r0, .L120+20
 1954 006e FFF7FEFF 		bl	at_write_command
 557:modem.c       ****     
 558:modem.c       ****     //unlock contedt, simnce its being used by modem
 559:modem.c       ****     at_write_command("AT#SGACT=1,1\r\n", "OK",10000u);
 1955              		.loc 1 559 0
 1956 0072 42F21072 		movw	r2, #10000
 1957 0076 3349     		ldr	r1, .L120+4
 1958 0078 3748     		ldr	r0, .L120+24
 1959 007a FFF7FEFF 		bl	at_write_command
ARM GAS  C:\Users\HYFI_A~1\AppData\Local\Temp\ccBuuRJ5.s 			page 48


 560:modem.c       ****     
 561:modem.c       ****     //EnableunsolicitedNMEAGPSdataintheformatof<NMEASENTENCE><CR>
 562:modem.c       ****     at_write_command("AT$GPSNMUN=2,1,0,0,0,0,0\r","OK",DEFAULT_AT_TIMEOUT);
 1960              		.loc 1 562 0
 1961 007e 4FF4FA62 		mov	r2, #2000
 1962 0082 3049     		ldr	r1, .L120+4
 1963 0084 3548     		ldr	r0, .L120+28
 1964 0086 FFF7FEFF 		bl	at_write_command
 563:modem.c       ****     
 564:modem.c       ****     //StartGPSlocationservicerequest.Sendingthiscommandsets$GPSP=1
 565:modem.c       ****    uint8 gps_status = 0;
 1965              		.loc 1 565 0
 1966 008a 0023     		movs	r3, #0
 1967 008c 87F82F30 		strb	r3, [r7, #47]
 1968              	.LBB9:
 566:modem.c       ****     for(uint16 i=0;i<200;i++){
 1969              		.loc 1 566 0
 1970 0090 0023     		movs	r3, #0
 1971 0092 BB85     		strh	r3, [r7, #44]	@ movhi
 1972 0094 0FE0     		b	.L112
 1973              	.L115:
 567:modem.c       ****         gps_status = at_write_command("AT$GPSSLSR=1,1,,,,,0,255\r","N",3000u);
 1974              		.loc 1 567 0
 1975 0096 40F6B832 		movw	r2, #3000
 1976 009a 3149     		ldr	r1, .L120+32
 1977 009c 3148     		ldr	r0, .L120+36
 1978 009e FFF7FEFF 		bl	at_write_command
 1979 00a2 0346     		mov	r3, r0
 1980 00a4 87F82F30 		strb	r3, [r7, #47]
 568:modem.c       ****         if(gps_status){
 1981              		.loc 1 568 0
 1982 00a8 97F82F30 		ldrb	r3, [r7, #47]	@ zero_extendqisi2
 1983 00ac 002B     		cmp	r3, #0
 1984 00ae 06D1     		bne	.L119
 566:modem.c       ****     for(uint16 i=0;i<200;i++){
 1985              		.loc 1 566 0 discriminator 2
 1986 00b0 BB8D     		ldrh	r3, [r7, #44]
 1987 00b2 0133     		adds	r3, r3, #1
 1988 00b4 BB85     		strh	r3, [r7, #44]	@ movhi
 1989              	.L112:
 566:modem.c       ****     for(uint16 i=0;i<200;i++){
 1990              		.loc 1 566 0 is_stmt 0 discriminator 1
 1991 00b6 BB8D     		ldrh	r3, [r7, #44]
 1992 00b8 C72B     		cmp	r3, #199
 1993 00ba ECD9     		bls	.L115
 1994 00bc 00E0     		b	.L114
 1995              	.L119:
 569:modem.c       ****             break;   
 1996              		.loc 1 569 0 is_stmt 1
 1997 00be 00BF     		nop
 1998              	.L114:
 1999              	.LBE9:
 570:modem.c       ****         }
 571:modem.c       ****   }
 572:modem.c       ****     
 573:modem.c       ****     //$GPGGA,030307.691,4217.7923,N,08341.3240,W,1,05,2.25,225.0,M,,M,,0000*6E
 574:modem.c       ****     //$GPGGA,213852.000,4600.8755,N,09327.7008,W,1,05,3.00,292.0,M,,M,,0000*6E
ARM GAS  C:\Users\HYFI_A~1\AppData\Local\Temp\ccBuuRJ5.s 			page 49


 575:modem.c       ****     if(gps_status){
 2000              		.loc 1 575 0
 2001 00c0 97F82F30 		ldrb	r3, [r7, #47]	@ zero_extendqisi2
 2002 00c4 002B     		cmp	r3, #0
 2003 00c6 20D0     		beq	.L116
 2004              	.LBB10:
 576:modem.c       ****         float lat,lon,alt = 0;
 2005              		.loc 1 576 0
 2006 00c8 4FF00003 		mov	r3, #0
 2007 00cc 7B62     		str	r3, [r7, #36]	@ float
 577:modem.c       ****         if(sscanf(uart_received_string,"%*s,%f,N,%f,W,%*s",&lat,&lon) > 0){
 2008              		.loc 1 577 0
 2009 00ce 07F10C03 		add	r3, r7, #12
 2010 00d2 07F11002 		add	r2, r7, #16
 2011 00d6 2449     		ldr	r1, .L120+40
 2012 00d8 2448     		ldr	r0, .L120+44
 2013 00da FFF7FEFF 		bl	sscanf
 2014 00de 0346     		mov	r3, r0
 2015 00e0 002B     		cmp	r3, #0
 2016 00e2 12DD     		ble	.L116
 578:modem.c       ****             gps.altitude = alt;
 2017              		.loc 1 578 0
 2018 00e4 7B6A     		ldr	r3, [r7, #36]	@ float
 2019 00e6 FB61     		str	r3, [r7, #28]	@ float
 579:modem.c       ****             gps.latitude = lat/60;
 2020              		.loc 1 579 0
 2021 00e8 3B69     		ldr	r3, [r7, #16]	@ float
 2022 00ea 2149     		ldr	r1, .L120+48
 2023 00ec 1846     		mov	r0, r3
 2024 00ee FFF7FEFF 		bl	__aeabi_fdiv
 2025 00f2 0346     		mov	r3, r0
 2026 00f4 7B61     		str	r3, [r7, #20]	@ float
 580:modem.c       ****             gps.longitude = lon/60;
 2027              		.loc 1 580 0
 2028 00f6 FB68     		ldr	r3, [r7, #12]	@ float
 2029 00f8 1D49     		ldr	r1, .L120+48
 2030 00fa 1846     		mov	r0, r3
 2031 00fc FFF7FEFF 		bl	__aeabi_fdiv
 2032 0100 0346     		mov	r3, r0
 2033 0102 BB61     		str	r3, [r7, #24]	@ float
 581:modem.c       ****             gps.valid = 1;
 2034              		.loc 1 581 0
 2035 0104 0123     		movs	r3, #1
 2036 0106 87F82230 		strb	r3, [r7, #34]
 2037              	.L116:
 2038              	.LBE10:
 582:modem.c       ****         }
 583:modem.c       ****         
 584:modem.c       ****     }
 585:modem.c       ****     
 586:modem.c       ****     //turn off gps
 587:modem.c       ****     //AT$GPSP=0
 588:modem.c       ****     at_write_command("AT$GPSP=0\r","OK",DEFAULT_AT_TIMEOUT);
 2039              		.loc 1 588 0
 2040 010a 4FF4FA62 		mov	r2, #2000
 2041 010e 0D49     		ldr	r1, .L120+4
 2042 0110 1848     		ldr	r0, .L120+52
ARM GAS  C:\Users\HYFI_A~1\AppData\Local\Temp\ccBuuRJ5.s 			page 50


 2043 0112 FFF7FEFF 		bl	at_write_command
 589:modem.c       ****     
 590:modem.c       ****     
 591:modem.c       **** 
 592:modem.c       ****     
 593:modem.c       ****     lock_time = getTimeStamp() - lock_time;
 2044              		.loc 1 593 0
 2045 0116 FFF7FEFF 		bl	getTimeStamp
 2046 011a 0246     		mov	r2, r0
 2047 011c BB6A     		ldr	r3, [r7, #40]
 2048 011e D31A     		subs	r3, r2, r3
 2049 0120 BB62     		str	r3, [r7, #40]
 594:modem.c       ****     gps.time_to_lock = lock_time;
 2050              		.loc 1 594 0
 2051 0122 BB6A     		ldr	r3, [r7, #40]
 2052 0124 9BB2     		uxth	r3, r3
 2053 0126 3B84     		strh	r3, [r7, #32]	@ movhi
 595:modem.c       ****     
 596:modem.c       ****     return gps;
 2054              		.loc 1 596 0
 2055 0128 7B68     		ldr	r3, [r7, #4]
 2056 012a 1C46     		mov	r4, r3
 2057 012c 07F11403 		add	r3, r7, #20
 2058 0130 0FCB     		ldmia	r3, {r0, r1, r2, r3}
 2059 0132 84E80F00 		stmia	r4, {r0, r1, r2, r3}
 2060              	.L109:
 597:modem.c       ****     
 598:modem.c       **** }
 2061              		.loc 1 598 0
 2062 0136 7868     		ldr	r0, [r7, #4]
 2063 0138 3437     		adds	r7, r7, #52
 2064              		.cfi_def_cfa_offset 12
 2065 013a BD46     		mov	sp, r7
 2066              		.cfi_def_cfa_register 13
 2067              		@ sp needed
 2068 013c 90BD     		pop	{r4, r7, pc}
 2069              	.L121:
 2070 013e 00BF     		.align	2
 2071              	.L120:
 2072 0140 00000000 		.word	modem_state
 2073 0144 00000000 		.word	.LC0
 2074 0148 F8030000 		.word	.LC45
 2075 014c 10040000 		.word	.LC46
 2076 0150 30040000 		.word	.LC47
 2077 0154 40040000 		.word	.LC48
 2078 0158 80020000 		.word	.LC22
 2079 015c 50040000 		.word	.LC49
 2080 0160 6C040000 		.word	.LC50
 2081 0164 70040000 		.word	.LC51
 2082 0168 8C040000 		.word	.LC52
 2083 016c 00000000 		.word	uart_received_string
 2084 0170 00007042 		.word	1114636288
 2085 0174 A0040000 		.word	.LC53
 2086              		.cfi_endproc
 2087              	.LFE85:
 2088              		.size	modem_get_gps_coordinates, .-modem_get_gps_coordinates
 2089              		.text
ARM GAS  C:\Users\HYFI_A~1\AppData\Local\Temp\ccBuuRJ5.s 			page 51


 2090              	.Letext0:
 2091              		.file 2 "c:\\program files (x86)\\cypress\\psoc creator\\4.3\\psoc creator\\import\\gnu\\arm\\5.4.
 2092              		.file 3 "c:\\program files (x86)\\cypress\\psoc creator\\4.3\\psoc creator\\import\\gnu\\arm\\5.4.
 2093              		.file 4 "Generated_Source\\PSoC5/cytypes.h"
 2094              		.file 5 "c:\\program files (x86)\\cypress\\psoc creator\\4.3\\psoc creator\\import\\gnu\\arm\\5.4.
 2095              		.file 6 "testing.h"
 2096              		.file 7 "modem.h"
 2097              		.file 8 "data.h"
 2098              		.file 9 "notoriOS.h"
 2099              		.file 10 "Generated_Source\\PSoC5/core_cm3.h"
 2100              		.section	.debug_info,"",%progbits
 2101              	.Ldebug_info0:
 2102 0000 95090000 		.4byte	0x995
 2103 0004 0400     		.2byte	0x4
 2104 0006 00000000 		.4byte	.Ldebug_abbrev0
 2105 000a 04       		.byte	0x4
 2106 000b 01       		.uleb128 0x1
 2107 000c 3C000000 		.4byte	.LASF127
 2108 0010 0C       		.byte	0xc
 2109 0011 0A030000 		.4byte	.LASF128
 2110 0015 2F040000 		.4byte	.LASF129
 2111 0019 00000000 		.4byte	.Ldebug_ranges0+0
 2112 001d 00000000 		.4byte	0
 2113 0021 00000000 		.4byte	.Ldebug_line0
 2114 0025 02       		.uleb128 0x2
 2115 0026 01       		.byte	0x1
 2116 0027 06       		.byte	0x6
 2117 0028 26010000 		.4byte	.LASF0
 2118 002c 03       		.uleb128 0x3
 2119 002d 28000000 		.4byte	.LASF4
 2120 0031 02       		.byte	0x2
 2121 0032 1D       		.byte	0x1d
 2122 0033 37000000 		.4byte	0x37
 2123 0037 02       		.uleb128 0x2
 2124 0038 01       		.byte	0x1
 2125 0039 08       		.byte	0x8
 2126 003a 92040000 		.4byte	.LASF1
 2127 003e 02       		.uleb128 0x2
 2128 003f 02       		.byte	0x2
 2129 0040 05       		.byte	0x5
 2130 0041 42030000 		.4byte	.LASF2
 2131 0045 02       		.uleb128 0x2
 2132 0046 02       		.byte	0x2
 2133 0047 07       		.byte	0x7
 2134 0048 DE010000 		.4byte	.LASF3
 2135 004c 03       		.uleb128 0x3
 2136 004d 57030000 		.4byte	.LASF5
 2137 0051 02       		.byte	0x2
 2138 0052 3F       		.byte	0x3f
 2139 0053 57000000 		.4byte	0x57
 2140 0057 02       		.uleb128 0x2
 2141 0058 04       		.byte	0x4
 2142 0059 05       		.byte	0x5
 2143 005a 7B010000 		.4byte	.LASF6
 2144 005e 03       		.uleb128 0x3
 2145 005f 01020000 		.4byte	.LASF7
 2146 0063 02       		.byte	0x2
ARM GAS  C:\Users\HYFI_A~1\AppData\Local\Temp\ccBuuRJ5.s 			page 52


 2147 0064 41       		.byte	0x41
 2148 0065 69000000 		.4byte	0x69
 2149 0069 02       		.uleb128 0x2
 2150 006a 04       		.byte	0x4
 2151 006b 07       		.byte	0x7
 2152 006c 6E020000 		.4byte	.LASF8
 2153 0070 02       		.uleb128 0x2
 2154 0071 08       		.byte	0x8
 2155 0072 05       		.byte	0x5
 2156 0073 18010000 		.4byte	.LASF9
 2157 0077 02       		.uleb128 0x2
 2158 0078 08       		.byte	0x8
 2159 0079 07       		.byte	0x7
 2160 007a D7000000 		.4byte	.LASF10
 2161 007e 04       		.uleb128 0x4
 2162 007f 04       		.byte	0x4
 2163 0080 05       		.byte	0x5
 2164 0081 696E7400 		.ascii	"int\000"
 2165 0085 02       		.uleb128 0x2
 2166 0086 04       		.byte	0x4
 2167 0087 07       		.byte	0x7
 2168 0088 53050000 		.4byte	.LASF11
 2169 008c 03       		.uleb128 0x3
 2170 008d 41060000 		.4byte	.LASF12
 2171 0091 03       		.byte	0x3
 2172 0092 18       		.byte	0x18
 2173 0093 2C000000 		.4byte	0x2c
 2174 0097 03       		.uleb128 0x3
 2175 0098 8A040000 		.4byte	.LASF13
 2176 009c 03       		.byte	0x3
 2177 009d 2C       		.byte	0x2c
 2178 009e 4C000000 		.4byte	0x4c
 2179 00a2 03       		.uleb128 0x3
 2180 00a3 1B060000 		.4byte	.LASF14
 2181 00a7 03       		.byte	0x3
 2182 00a8 30       		.byte	0x30
 2183 00a9 5E000000 		.4byte	0x5e
 2184 00ad 05       		.uleb128 0x5
 2185 00ae 9D010000 		.4byte	.LASF15
 2186 00b2 04       		.byte	0x4
 2187 00b3 E401     		.2byte	0x1e4
 2188 00b5 37000000 		.4byte	0x37
 2189 00b9 05       		.uleb128 0x5
 2190 00ba 0B000000 		.4byte	.LASF16
 2191 00be 04       		.byte	0x4
 2192 00bf E501     		.2byte	0x1e5
 2193 00c1 45000000 		.4byte	0x45
 2194 00c5 05       		.uleb128 0x5
 2195 00c6 F1010000 		.4byte	.LASF17
 2196 00ca 04       		.byte	0x4
 2197 00cb E601     		.2byte	0x1e6
 2198 00cd 69000000 		.4byte	0x69
 2199 00d1 05       		.uleb128 0x5
 2200 00d2 B2010000 		.4byte	.LASF18
 2201 00d6 04       		.byte	0x4
 2202 00d7 E901     		.2byte	0x1e9
 2203 00d9 57000000 		.4byte	0x57
ARM GAS  C:\Users\HYFI_A~1\AppData\Local\Temp\ccBuuRJ5.s 			page 53


 2204 00dd 02       		.uleb128 0x2
 2205 00de 04       		.byte	0x4
 2206 00df 04       		.byte	0x4
 2207 00e0 23040000 		.4byte	.LASF19
 2208 00e4 02       		.uleb128 0x2
 2209 00e5 08       		.byte	0x8
 2210 00e6 04       		.byte	0x4
 2211 00e7 AB010000 		.4byte	.LASF20
 2212 00eb 02       		.uleb128 0x2
 2213 00ec 01       		.byte	0x1
 2214 00ed 08       		.byte	0x8
 2215 00ee 3A050000 		.4byte	.LASF21
 2216 00f2 02       		.uleb128 0x2
 2217 00f3 08       		.byte	0x8
 2218 00f4 04       		.byte	0x4
 2219 00f5 2E050000 		.4byte	.LASF22
 2220 00f9 02       		.uleb128 0x2
 2221 00fa 04       		.byte	0x4
 2222 00fb 07       		.byte	0x7
 2223 00fc AB030000 		.4byte	.LASF23
 2224 0100 06       		.uleb128 0x6
 2225 0101 04       		.byte	0x4
 2226 0102 EB000000 		.4byte	0xeb
 2227 0106 06       		.uleb128 0x6
 2228 0107 04       		.byte	0x4
 2229 0108 0C010000 		.4byte	0x10c
 2230 010c 07       		.uleb128 0x7
 2231 010d EB000000 		.4byte	0xeb
 2232 0111 08       		.uleb128 0x8
 2233 0112 EB000000 		.4byte	0xeb
 2234 0116 21010000 		.4byte	0x121
 2235 011a 09       		.uleb128 0x9
 2236 011b F9000000 		.4byte	0xf9
 2237 011f 17       		.byte	0x17
 2238 0120 00       		.byte	0
 2239 0121 0A       		.uleb128 0xa
 2240 0122 746D00   		.ascii	"tm\000"
 2241 0125 24       		.byte	0x24
 2242 0126 05       		.byte	0x5
 2243 0127 21       		.byte	0x21
 2244 0128 99010000 		.4byte	0x199
 2245 012c 0B       		.uleb128 0xb
 2246 012d 24060000 		.4byte	.LASF24
 2247 0131 05       		.byte	0x5
 2248 0132 23       		.byte	0x23
 2249 0133 7E000000 		.4byte	0x7e
 2250 0137 00       		.byte	0
 2251 0138 0B       		.uleb128 0xb
 2252 0139 A4030000 		.4byte	.LASF25
 2253 013d 05       		.byte	0x5
 2254 013e 24       		.byte	0x24
 2255 013f 7E000000 		.4byte	0x7e
 2256 0143 04       		.byte	0x4
 2257 0144 0B       		.uleb128 0xb
 2258 0145 18000000 		.4byte	.LASF26
 2259 0149 05       		.byte	0x5
 2260 014a 25       		.byte	0x25
ARM GAS  C:\Users\HYFI_A~1\AppData\Local\Temp\ccBuuRJ5.s 			page 54


 2261 014b 7E000000 		.4byte	0x7e
 2262 014f 08       		.byte	0x8
 2263 0150 0B       		.uleb128 0xb
 2264 0151 06060000 		.4byte	.LASF27
 2265 0155 05       		.byte	0x5
 2266 0156 26       		.byte	0x26
 2267 0157 7E000000 		.4byte	0x7e
 2268 015b 0C       		.byte	0xc
 2269 015c 0B       		.uleb128 0xb
 2270 015d 23020000 		.4byte	.LASF28
 2271 0161 05       		.byte	0x5
 2272 0162 27       		.byte	0x27
 2273 0163 7E000000 		.4byte	0x7e
 2274 0167 10       		.byte	0x10
 2275 0168 0B       		.uleb128 0xb
 2276 0169 3E020000 		.4byte	.LASF29
 2277 016d 05       		.byte	0x5
 2278 016e 28       		.byte	0x28
 2279 016f 7E000000 		.4byte	0x7e
 2280 0173 14       		.byte	0x14
 2281 0174 0B       		.uleb128 0xb
 2282 0175 0F050000 		.4byte	.LASF30
 2283 0179 05       		.byte	0x5
 2284 017a 29       		.byte	0x29
 2285 017b 7E000000 		.4byte	0x7e
 2286 017f 18       		.byte	0x18
 2287 0180 0B       		.uleb128 0xb
 2288 0181 20000000 		.4byte	.LASF31
 2289 0185 05       		.byte	0x5
 2290 0186 2A       		.byte	0x2a
 2291 0187 7E000000 		.4byte	0x7e
 2292 018b 1C       		.byte	0x1c
 2293 018c 0B       		.uleb128 0xb
 2294 018d DF020000 		.4byte	.LASF32
 2295 0191 05       		.byte	0x5
 2296 0192 2B       		.byte	0x2b
 2297 0193 7E000000 		.4byte	0x7e
 2298 0197 20       		.byte	0x20
 2299 0198 00       		.byte	0
 2300 0199 0C       		.uleb128 0xc
 2301 019a 8101     		.2byte	0x181
 2302 019c 06       		.byte	0x6
 2303 019d 0A       		.byte	0xa
 2304 019e C7010000 		.4byte	0x1c7
 2305 01a2 0B       		.uleb128 0xb
 2306 01a3 EF030000 		.4byte	.LASF33
 2307 01a7 06       		.byte	0x6
 2308 01a8 0B       		.byte	0xb
 2309 01a9 C7010000 		.4byte	0x1c7
 2310 01ad 00       		.byte	0
 2311 01ae 0B       		.uleb128 0xb
 2312 01af 2B060000 		.4byte	.LASF34
 2313 01b3 06       		.byte	0x6
 2314 01b4 0C       		.byte	0xc
 2315 01b5 AD000000 		.4byte	0xad
 2316 01b9 80       		.byte	0x80
 2317 01ba 0B       		.uleb128 0xb
ARM GAS  C:\Users\HYFI_A~1\AppData\Local\Temp\ccBuuRJ5.s 			page 55


 2318 01bb E8040000 		.4byte	.LASF35
 2319 01bf 06       		.byte	0x6
 2320 01c0 0D       		.byte	0xd
 2321 01c1 D7010000 		.4byte	0x1d7
 2322 01c5 81       		.byte	0x81
 2323 01c6 00       		.byte	0
 2324 01c7 08       		.uleb128 0x8
 2325 01c8 EB000000 		.4byte	0xeb
 2326 01cc D7010000 		.4byte	0x1d7
 2327 01d0 09       		.uleb128 0x9
 2328 01d1 F9000000 		.4byte	0xf9
 2329 01d5 7F       		.byte	0x7f
 2330 01d6 00       		.byte	0
 2331 01d7 08       		.uleb128 0x8
 2332 01d8 EB000000 		.4byte	0xeb
 2333 01dc E7010000 		.4byte	0x1e7
 2334 01e0 09       		.uleb128 0x9
 2335 01e1 F9000000 		.4byte	0xf9
 2336 01e5 FF       		.byte	0xff
 2337 01e6 00       		.byte	0
 2338 01e7 03       		.uleb128 0x3
 2339 01e8 D0040000 		.4byte	.LASF36
 2340 01ec 06       		.byte	0x6
 2341 01ed 0E       		.byte	0xe
 2342 01ee 99010000 		.4byte	0x199
 2343 01f2 0D       		.uleb128 0xd
 2344 01f3 3C       		.byte	0x3c
 2345 01f4 07       		.byte	0x7
 2346 01f5 2C       		.byte	0x2c
 2347 01f6 1F020000 		.4byte	0x21f
 2348 01fa 0B       		.uleb128 0xb
 2349 01fb F1050000 		.4byte	.LASF37
 2350 01ff 07       		.byte	0x7
 2351 0200 2D       		.byte	0x2d
 2352 0201 1F020000 		.4byte	0x21f
 2353 0205 00       		.byte	0
 2354 0206 0B       		.uleb128 0xb
 2355 0207 65050000 		.4byte	.LASF38
 2356 020b 07       		.byte	0x7
 2357 020c 2E       		.byte	0x2e
 2358 020d 1F020000 		.4byte	0x21f
 2359 0211 14       		.byte	0x14
 2360 0212 0B       		.uleb128 0xb
 2361 0213 E3040000 		.4byte	.LASF39
 2362 0217 07       		.byte	0x7
 2363 0218 2F       		.byte	0x2f
 2364 0219 1F020000 		.4byte	0x21f
 2365 021d 28       		.byte	0x28
 2366 021e 00       		.byte	0
 2367 021f 08       		.uleb128 0x8
 2368 0220 EB000000 		.4byte	0xeb
 2369 0224 2F020000 		.4byte	0x22f
 2370 0228 09       		.uleb128 0x9
 2371 0229 F9000000 		.4byte	0xf9
 2372 022d 13       		.byte	0x13
 2373 022e 00       		.byte	0
 2374 022f 03       		.uleb128 0x3
ARM GAS  C:\Users\HYFI_A~1\AppData\Local\Temp\ccBuuRJ5.s 			page 56


 2375 0230 79050000 		.4byte	.LASF40
 2376 0234 07       		.byte	0x7
 2377 0235 30       		.byte	0x30
 2378 0236 F2010000 		.4byte	0x1f2
 2379 023a 0D       		.uleb128 0xd
 2380 023b 0C       		.byte	0xc
 2381 023c 07       		.byte	0x7
 2382 023d 32       		.byte	0x32
 2383 023e 72020000 		.4byte	0x272
 2384 0242 0B       		.uleb128 0xb
 2385 0243 79060000 		.4byte	.LASF41
 2386 0247 07       		.byte	0x7
 2387 0248 33       		.byte	0x33
 2388 0249 AD000000 		.4byte	0xad
 2389 024d 00       		.byte	0
 2390 024e 0E       		.uleb128 0xe
 2391 024f 737100   		.ascii	"sq\000"
 2392 0252 07       		.byte	0x7
 2393 0253 34       		.byte	0x34
 2394 0254 AD000000 		.4byte	0xad
 2395 0258 01       		.byte	0x1
 2396 0259 0B       		.uleb128 0xb
 2397 025a 32010000 		.4byte	.LASF42
 2398 025e 07       		.byte	0x7
 2399 025f 35       		.byte	0x35
 2400 0260 7E000000 		.4byte	0x7e
 2401 0264 04       		.byte	0x4
 2402 0265 0B       		.uleb128 0xb
 2403 0266 25030000 		.4byte	.LASF43
 2404 026a 07       		.byte	0x7
 2405 026b 36       		.byte	0x36
 2406 026c 7E000000 		.4byte	0x7e
 2407 0270 08       		.byte	0x8
 2408 0271 00       		.byte	0
 2409 0272 03       		.uleb128 0x3
 2410 0273 EF040000 		.4byte	.LASF44
 2411 0277 07       		.byte	0x7
 2412 0278 37       		.byte	0x37
 2413 0279 3A020000 		.4byte	0x23a
 2414 027d 0D       		.uleb128 0xd
 2415 027e 10       		.byte	0x10
 2416 027f 07       		.byte	0x7
 2417 0280 39       		.byte	0x39
 2418 0281 C2020000 		.4byte	0x2c2
 2419 0285 0B       		.uleb128 0xb
 2420 0286 E6030000 		.4byte	.LASF45
 2421 028a 07       		.byte	0x7
 2422 028b 3A       		.byte	0x3a
 2423 028c DD000000 		.4byte	0xdd
 2424 0290 00       		.byte	0
 2425 0291 0B       		.uleb128 0xb
 2426 0292 32000000 		.4byte	.LASF46
 2427 0296 07       		.byte	0x7
 2428 0297 3B       		.byte	0x3b
 2429 0298 DD000000 		.4byte	0xdd
 2430 029c 04       		.byte	0x4
 2431 029d 0B       		.uleb128 0xb
ARM GAS  C:\Users\HYFI_A~1\AppData\Local\Temp\ccBuuRJ5.s 			page 57


 2432 029e 94010000 		.4byte	.LASF47
 2433 02a2 07       		.byte	0x7
 2434 02a3 3C       		.byte	0x3c
 2435 02a4 DD000000 		.4byte	0xdd
 2436 02a8 08       		.byte	0x8
 2437 02a9 0B       		.uleb128 0xb
 2438 02aa BD020000 		.4byte	.LASF48
 2439 02ae 07       		.byte	0x7
 2440 02af 3D       		.byte	0x3d
 2441 02b0 B9000000 		.4byte	0xb9
 2442 02b4 0C       		.byte	0xc
 2443 02b5 0B       		.uleb128 0xb
 2444 02b6 0E060000 		.4byte	.LASF49
 2445 02ba 07       		.byte	0x7
 2446 02bb 3E       		.byte	0x3e
 2447 02bc AD000000 		.4byte	0xad
 2448 02c0 0E       		.byte	0xe
 2449 02c1 00       		.byte	0
 2450 02c2 03       		.uleb128 0x3
 2451 02c3 86050000 		.4byte	.LASF50
 2452 02c7 07       		.byte	0x7
 2453 02c8 40       		.byte	0x40
 2454 02c9 7D020000 		.4byte	0x27d
 2455 02cd 0D       		.uleb128 0xd
 2456 02ce 2C       		.byte	0x2c
 2457 02cf 08       		.byte	0x8
 2458 02d0 0F       		.byte	0xf
 2459 02d1 FA020000 		.4byte	0x2fa
 2460 02d5 0E       		.uleb128 0xe
 2461 02d6 6B657900 		.ascii	"key\000"
 2462 02da 08       		.byte	0x8
 2463 02db 10       		.byte	0x10
 2464 02dc 1F020000 		.4byte	0x21f
 2465 02e0 00       		.byte	0
 2466 02e1 0B       		.uleb128 0xb
 2467 02e2 12000000 		.4byte	.LASF51
 2468 02e6 08       		.byte	0x8
 2469 02e7 11       		.byte	0x11
 2470 02e8 1F020000 		.4byte	0x21f
 2471 02ec 14       		.byte	0x14
 2472 02ed 0B       		.uleb128 0xb
 2473 02ee A6060000 		.4byte	.LASF52
 2474 02f2 08       		.byte	0x8
 2475 02f3 12       		.byte	0x12
 2476 02f4 D1000000 		.4byte	0xd1
 2477 02f8 28       		.byte	0x28
 2478 02f9 00       		.byte	0
 2479 02fa 03       		.uleb128 0x3
 2480 02fb 62020000 		.4byte	.LASF53
 2481 02ff 08       		.byte	0x8
 2482 0300 13       		.byte	0x13
 2483 0301 CD020000 		.4byte	0x2cd
 2484 0305 0D       		.uleb128 0xd
 2485 0306 1C       		.byte	0x1c
 2486 0307 09       		.byte	0x9
 2487 0308 37       		.byte	0x37
 2488 0309 26030000 		.4byte	0x326
ARM GAS  C:\Users\HYFI_A~1\AppData\Local\Temp\ccBuuRJ5.s 			page 58


 2489 030d 0B       		.uleb128 0xb
 2490 030e E8020000 		.4byte	.LASF54
 2491 0312 09       		.byte	0x9
 2492 0313 39       		.byte	0x39
 2493 0314 26030000 		.4byte	0x326
 2494 0318 00       		.byte	0
 2495 0319 0B       		.uleb128 0xb
 2496 031a F8050000 		.4byte	.LASF55
 2497 031e 09       		.byte	0x9
 2498 031f 3A       		.byte	0x3a
 2499 0320 11010000 		.4byte	0x111
 2500 0324 04       		.byte	0x4
 2501 0325 00       		.byte	0
 2502 0326 06       		.uleb128 0x6
 2503 0327 04       		.byte	0x4
 2504 0328 2F020000 		.4byte	0x22f
 2505 032c 03       		.uleb128 0x3
 2506 032d 87030000 		.4byte	.LASF56
 2507 0331 09       		.byte	0x9
 2508 0332 3C       		.byte	0x3c
 2509 0333 05030000 		.4byte	0x305
 2510 0337 0C       		.uleb128 0xc
 2511 0338 4401     		.2byte	0x144
 2512 033a 09       		.byte	0x9
 2513 033b 3F       		.byte	0x3f
 2514 033c 8A030000 		.4byte	0x38a
 2515 0340 0B       		.uleb128 0xb
 2516 0341 A3010000 		.4byte	.LASF57
 2517 0345 09       		.byte	0x9
 2518 0346 42       		.byte	0x42
 2519 0347 1F020000 		.4byte	0x21f
 2520 034b 00       		.byte	0
 2521 034c 0B       		.uleb128 0xb
 2522 034d F3020000 		.4byte	.LASF58
 2523 0351 09       		.byte	0x9
 2524 0352 44       		.byte	0x44
 2525 0353 8A030000 		.4byte	0x38a
 2526 0357 14       		.byte	0x14
 2527 0358 0B       		.uleb128 0xb
 2528 0359 D7020000 		.4byte	.LASF59
 2529 035d 09       		.byte	0x9
 2530 035e 45       		.byte	0x45
 2531 035f 7E000000 		.4byte	0x7e
 2532 0363 78       		.byte	0x78
 2533 0364 0B       		.uleb128 0xb
 2534 0365 CF020000 		.4byte	.LASF60
 2535 0369 09       		.byte	0x9
 2536 036a 46       		.byte	0x46
 2537 036b 9A030000 		.4byte	0x39a
 2538 036f 7C       		.byte	0x7c
 2539 0370 0B       		.uleb128 0xb
 2540 0371 2A020000 		.4byte	.LASF61
 2541 0375 09       		.byte	0x9
 2542 0376 47       		.byte	0x47
 2543 0377 8A030000 		.4byte	0x38a
 2544 037b AE       		.byte	0xae
 2545 037c 0F       		.uleb128 0xf
ARM GAS  C:\Users\HYFI_A~1\AppData\Local\Temp\ccBuuRJ5.s 			page 59


 2546 037d 49060000 		.4byte	.LASF62
 2547 0381 09       		.byte	0x9
 2548 0382 48       		.byte	0x48
 2549 0383 9A030000 		.4byte	0x39a
 2550 0387 1201     		.2byte	0x112
 2551 0389 00       		.byte	0
 2552 038a 08       		.uleb128 0x8
 2553 038b EB000000 		.4byte	0xeb
 2554 038f 9A030000 		.4byte	0x39a
 2555 0393 09       		.uleb128 0x9
 2556 0394 F9000000 		.4byte	0xf9
 2557 0398 63       		.byte	0x63
 2558 0399 00       		.byte	0
 2559 039a 08       		.uleb128 0x8
 2560 039b EB000000 		.4byte	0xeb
 2561 039f AA030000 		.4byte	0x3aa
 2562 03a3 09       		.uleb128 0x9
 2563 03a4 F9000000 		.4byte	0xf9
 2564 03a8 31       		.byte	0x31
 2565 03a9 00       		.byte	0
 2566 03aa 03       		.uleb128 0x3
 2567 03ab 32060000 		.4byte	.LASF63
 2568 03af 09       		.byte	0x9
 2569 03b0 4B       		.byte	0x4b
 2570 03b1 37030000 		.4byte	0x337
 2571 03b5 10       		.uleb128 0x10
 2572 03b6 7D040000 		.4byte	.LASF88
 2573 03ba 01       		.byte	0x1
 2574 03bb 11       		.byte	0x11
 2575 03bc 00000000 		.4byte	.LFB64
 2576 03c0 3C000000 		.4byte	.LFE64-.LFB64
 2577 03c4 01       		.uleb128 0x1
 2578 03c5 9C       		.byte	0x9c
 2579 03c6 11       		.uleb128 0x11
 2580 03c7 8F020000 		.4byte	.LASF64
 2581 03cb 01       		.byte	0x1
 2582 03cc 1A       		.byte	0x1a
 2583 03cd 00000000 		.4byte	.LFB65
 2584 03d1 54000000 		.4byte	.LFE65-.LFB65
 2585 03d5 01       		.uleb128 0x1
 2586 03d6 9C       		.byte	0x9c
 2587 03d7 11       		.uleb128 0x11
 2588 03d8 D9050000 		.4byte	.LASF65
 2589 03dc 01       		.byte	0x1
 2590 03dd 2E       		.byte	0x2e
 2591 03de 00000000 		.4byte	.LFB66
 2592 03e2 32000000 		.4byte	.LFE66-.LFB66
 2593 03e6 01       		.uleb128 0x1
 2594 03e7 9C       		.byte	0x9c
 2595 03e8 11       		.uleb128 0x11
 2596 03e9 4C020000 		.4byte	.LASF66
 2597 03ed 01       		.byte	0x1
 2598 03ee 40       		.byte	0x40
 2599 03ef 00000000 		.4byte	.LFB67
 2600 03f3 20000000 		.4byte	.LFE67-.LFB67
 2601 03f7 01       		.uleb128 0x1
 2602 03f8 9C       		.byte	0x9c
ARM GAS  C:\Users\HYFI_A~1\AppData\Local\Temp\ccBuuRJ5.s 			page 60


 2603 03f9 11       		.uleb128 0x11
 2604 03fa 95060000 		.4byte	.LASF67
 2605 03fe 01       		.byte	0x1
 2606 03ff 48       		.byte	0x48
 2607 0400 00000000 		.4byte	.LFB68
 2608 0404 40000000 		.4byte	.LFE68-.LFB68
 2609 0408 01       		.uleb128 0x1
 2610 0409 9C       		.byte	0x9c
 2611 040a 12       		.uleb128 0x12
 2612 040b FB020000 		.4byte	.LASF79
 2613 040f 01       		.byte	0x1
 2614 0410 58       		.byte	0x58
 2615 0411 AD000000 		.4byte	0xad
 2616 0415 00000000 		.4byte	.LFB69
 2617 0419 A0000000 		.4byte	.LFE69-.LFB69
 2618 041d 01       		.uleb128 0x1
 2619 041e 9C       		.byte	0x9c
 2620 041f 58040000 		.4byte	0x458
 2621 0423 13       		.uleb128 0x13
 2622 0424 55060000 		.4byte	.LASF68
 2623 0428 01       		.byte	0x1
 2624 0429 61       		.byte	0x61
 2625 042a AD000000 		.4byte	0xad
 2626 042e 02       		.uleb128 0x2
 2627 042f 91       		.byte	0x91
 2628 0430 77       		.sleb128 -9
 2629 0431 13       		.uleb128 0x13
 2630 0432 75040000 		.4byte	.LASF69
 2631 0436 01       		.byte	0x1
 2632 0437 62       		.byte	0x62
 2633 0438 AD000000 		.4byte	0xad
 2634 043c 02       		.uleb128 0x2
 2635 043d 91       		.byte	0x91
 2636 043e 75       		.sleb128 -11
 2637 043f 14       		.uleb128 0x14
 2638 0440 20000000 		.4byte	.LBB2
 2639 0444 2E000000 		.4byte	.LBE2-.LBB2
 2640 0448 13       		.uleb128 0x13
 2641 0449 75040000 		.4byte	.LASF69
 2642 044d 01       		.byte	0x1
 2643 044e 64       		.byte	0x64
 2644 044f AD000000 		.4byte	0xad
 2645 0453 02       		.uleb128 0x2
 2646 0454 91       		.byte	0x91
 2647 0455 76       		.sleb128 -10
 2648 0456 00       		.byte	0
 2649 0457 00       		.byte	0
 2650 0458 11       		.uleb128 0x11
 2651 0459 17050000 		.4byte	.LASF70
 2652 045d 01       		.byte	0x1
 2653 045e 79       		.byte	0x79
 2654 045f 00000000 		.4byte	.LFB70
 2655 0463 1C000000 		.4byte	.LFE70-.LFB70
 2656 0467 01       		.uleb128 0x1
 2657 0468 9C       		.byte	0x9c
 2658 0469 11       		.uleb128 0x11
 2659 046a FD040000 		.4byte	.LASF71
ARM GAS  C:\Users\HYFI_A~1\AppData\Local\Temp\ccBuuRJ5.s 			page 61


 2660 046e 01       		.byte	0x1
 2661 046f 81       		.byte	0x81
 2662 0470 00000000 		.4byte	.LFB71
 2663 0474 28000000 		.4byte	.LFE71-.LFB71
 2664 0478 01       		.uleb128 0x1
 2665 0479 9C       		.byte	0x9c
 2666 047a 15       		.uleb128 0x15
 2667 047b 76030000 		.4byte	.LASF82
 2668 047f 01       		.byte	0x1
 2669 0480 87       		.byte	0x87
 2670 0481 8C000000 		.4byte	0x8c
 2671 0485 00000000 		.4byte	.LFB72
 2672 0489 C8000000 		.4byte	.LFE72-.LFB72
 2673 048d 01       		.uleb128 0x1
 2674 048e 9C       		.byte	0x9c
 2675 048f 0C050000 		.4byte	0x50c
 2676 0493 16       		.uleb128 0x16
 2677 0494 09040000 		.4byte	.LASF72
 2678 0498 01       		.byte	0x1
 2679 0499 87       		.byte	0x87
 2680 049a 00010000 		.4byte	0x100
 2681 049e 02       		.uleb128 0x2
 2682 049f 91       		.byte	0x91
 2683 04a0 5C       		.sleb128 -36
 2684 04a1 16       		.uleb128 0x16
 2685 04a2 67060000 		.4byte	.LASF73
 2686 04a6 01       		.byte	0x1
 2687 04a7 87       		.byte	0x87
 2688 04a8 00010000 		.4byte	0x100
 2689 04ac 02       		.uleb128 0x2
 2690 04ad 91       		.byte	0x91
 2691 04ae 58       		.sleb128 -40
 2692 04af 16       		.uleb128 0x16
 2693 04b0 9E020000 		.4byte	.LASF74
 2694 04b4 01       		.byte	0x1
 2695 04b5 87       		.byte	0x87
 2696 04b6 A2000000 		.4byte	0xa2
 2697 04ba 02       		.uleb128 0x2
 2698 04bb 91       		.byte	0x91
 2699 04bc 54       		.sleb128 -44
 2700 04bd 13       		.uleb128 0x13
 2701 04be 6B030000 		.4byte	.LASF75
 2702 04c2 01       		.byte	0x1
 2703 04c3 89       		.byte	0x89
 2704 04c4 C5000000 		.4byte	0xc5
 2705 04c8 02       		.uleb128 0x2
 2706 04c9 91       		.byte	0x91
 2707 04ca 74       		.sleb128 -12
 2708 04cb 14       		.uleb128 0x14
 2709 04cc 16000000 		.4byte	.LBB3
 2710 04d0 88000000 		.4byte	.LBE3-.LBB3
 2711 04d4 13       		.uleb128 0x13
 2712 04d5 12040000 		.4byte	.LASF76
 2713 04d9 01       		.byte	0x1
 2714 04da 8D       		.byte	0x8d
 2715 04db 00010000 		.4byte	0x100
 2716 04df 02       		.uleb128 0x2
ARM GAS  C:\Users\HYFI_A~1\AppData\Local\Temp\ccBuuRJ5.s 			page 62


 2717 04e0 91       		.byte	0x91
 2718 04e1 64       		.sleb128 -28
 2719 04e2 13       		.uleb128 0x13
 2720 04e3 B0040000 		.4byte	.LASF77
 2721 04e7 01       		.byte	0x1
 2722 04e8 8E       		.byte	0x8e
 2723 04e9 A2000000 		.4byte	0xa2
 2724 04ed 02       		.uleb128 0x2
 2725 04ee 91       		.byte	0x91
 2726 04ef 6C       		.sleb128 -20
 2727 04f0 17       		.uleb128 0x17
 2728 04f1 6900     		.ascii	"i\000"
 2729 04f3 01       		.byte	0x1
 2730 04f4 8F       		.byte	0x8f
 2731 04f5 A2000000 		.4byte	0xa2
 2732 04f9 02       		.uleb128 0x2
 2733 04fa 91       		.byte	0x91
 2734 04fb 70       		.sleb128 -16
 2735 04fc 13       		.uleb128 0x13
 2736 04fd F8010000 		.4byte	.LASF78
 2737 0501 01       		.byte	0x1
 2738 0502 8F       		.byte	0x8f
 2739 0503 A2000000 		.4byte	0xa2
 2740 0507 02       		.uleb128 0x2
 2741 0508 91       		.byte	0x91
 2742 0509 68       		.sleb128 -24
 2743 050a 00       		.byte	0
 2744 050b 00       		.byte	0
 2745 050c 12       		.uleb128 0x12
 2746 050d F9030000 		.4byte	.LASF80
 2747 0511 01       		.byte	0x1
 2748 0512 B5       		.byte	0xb5
 2749 0513 E7010000 		.4byte	0x1e7
 2750 0517 00000000 		.4byte	.LFB73
 2751 051b 34000000 		.4byte	.LFE73-.LFB73
 2752 051f 01       		.uleb128 0x1
 2753 0520 9C       		.byte	0x9c
 2754 0521 35050000 		.4byte	0x535
 2755 0525 13       		.uleb128 0x13
 2756 0526 FA000000 		.4byte	.LASF81
 2757 052a 01       		.byte	0x1
 2758 052b B7       		.byte	0xb7
 2759 052c E7010000 		.4byte	0x1e7
 2760 0530 03       		.uleb128 0x3
 2761 0531 91       		.byte	0x91
 2762 0532 F47C     		.sleb128 -396
 2763 0534 00       		.byte	0
 2764 0535 15       		.uleb128 0x15
 2765 0536 80020000 		.4byte	.LASF83
 2766 053a 01       		.byte	0x1
 2767 053b C1       		.byte	0xc1
 2768 053c AD000000 		.4byte	0xad
 2769 0540 00000000 		.4byte	.LFB74
 2770 0544 78000000 		.4byte	.LFE74-.LFB74
 2771 0548 01       		.uleb128 0x1
 2772 0549 9C       		.byte	0x9c
 2773 054a 9F050000 		.4byte	0x59f
ARM GAS  C:\Users\HYFI_A~1\AppData\Local\Temp\ccBuuRJ5.s 			page 63


 2774 054e 16       		.uleb128 0x16
 2775 054f 61030000 		.4byte	.LASF84
 2776 0553 01       		.byte	0x1
 2777 0554 C1       		.byte	0xc1
 2778 0555 00010000 		.4byte	0x100
 2779 0559 02       		.uleb128 0x2
 2780 055a 91       		.byte	0x91
 2781 055b 6C       		.sleb128 -20
 2782 055c 16       		.uleb128 0x16
 2783 055d 12030000 		.4byte	.LASF85
 2784 0561 01       		.byte	0x1
 2785 0562 C1       		.byte	0xc1
 2786 0563 06010000 		.4byte	0x106
 2787 0567 02       		.uleb128 0x2
 2788 0568 91       		.byte	0x91
 2789 0569 68       		.sleb128 -24
 2790 056a 16       		.uleb128 0x16
 2791 056b 38030000 		.4byte	.LASF86
 2792 056f 01       		.byte	0x1
 2793 0570 C1       		.byte	0xc1
 2794 0571 06010000 		.4byte	0x106
 2795 0575 02       		.uleb128 0x2
 2796 0576 91       		.byte	0x91
 2797 0577 64       		.sleb128 -28
 2798 0578 16       		.uleb128 0x16
 2799 0579 1E030000 		.4byte	.LASF87
 2800 057d 01       		.byte	0x1
 2801 057e C1       		.byte	0xc1
 2802 057f 00010000 		.4byte	0x100
 2803 0583 02       		.uleb128 0x2
 2804 0584 91       		.byte	0x91
 2805 0585 60       		.sleb128 -32
 2806 0586 17       		.uleb128 0x17
 2807 0587 6100     		.ascii	"a\000"
 2808 0589 01       		.byte	0x1
 2809 058a C3       		.byte	0xc3
 2810 058b 00010000 		.4byte	0x100
 2811 058f 02       		.uleb128 0x2
 2812 0590 91       		.byte	0x91
 2813 0591 74       		.sleb128 -12
 2814 0592 17       		.uleb128 0x17
 2815 0593 6200     		.ascii	"b\000"
 2816 0595 01       		.byte	0x1
 2817 0596 C3       		.byte	0xc3
 2818 0597 00010000 		.4byte	0x100
 2819 059b 02       		.uleb128 0x2
 2820 059c 91       		.byte	0x91
 2821 059d 70       		.sleb128 -16
 2822 059e 00       		.byte	0
 2823 059f 18       		.uleb128 0x18
 2824 05a0 3F050000 		.4byte	.LASF89
 2825 05a4 01       		.byte	0x1
 2826 05a5 DE       		.byte	0xde
 2827 05a6 AD000000 		.4byte	0xad
 2828 05aa 00000000 		.4byte	.LFB75
 2829 05ae 08010000 		.4byte	.LFE75-.LFB75
 2830 05b2 01       		.uleb128 0x1
ARM GAS  C:\Users\HYFI_A~1\AppData\Local\Temp\ccBuuRJ5.s 			page 64


 2831 05b3 9C       		.byte	0x9c
 2832 05b4 19       		.uleb128 0x19
 2833 05b5 B4030000 		.4byte	.LASF90
 2834 05b9 01       		.byte	0x1
 2835 05ba 1801     		.2byte	0x118
 2836 05bc AD000000 		.4byte	0xad
 2837 05c0 00000000 		.4byte	.LFB76
 2838 05c4 A0000000 		.4byte	.LFE76-.LFB76
 2839 05c8 01       		.uleb128 0x1
 2840 05c9 9C       		.byte	0x9c
 2841 05ca F7050000 		.4byte	0x5f7
 2842 05ce 1A       		.uleb128 0x1a
 2843 05cf 2B060000 		.4byte	.LASF34
 2844 05d3 01       		.byte	0x1
 2845 05d4 1B01     		.2byte	0x11b
 2846 05d6 AD000000 		.4byte	0xad
 2847 05da 02       		.uleb128 0x2
 2848 05db 91       		.byte	0x91
 2849 05dc 77       		.sleb128 -9
 2850 05dd 14       		.uleb128 0x14
 2851 05de 36000000 		.4byte	.LBB4
 2852 05e2 34000000 		.4byte	.LBE4-.LBB4
 2853 05e6 1A       		.uleb128 0x1a
 2854 05e7 66030000 		.4byte	.LASF91
 2855 05eb 01       		.byte	0x1
 2856 05ec 2101     		.2byte	0x121
 2857 05ee F7050000 		.4byte	0x5f7
 2858 05f2 02       		.uleb128 0x2
 2859 05f3 91       		.byte	0x91
 2860 05f4 6C       		.sleb128 -20
 2861 05f5 00       		.byte	0
 2862 05f6 00       		.byte	0
 2863 05f7 08       		.uleb128 0x8
 2864 05f8 EB000000 		.4byte	0xeb
 2865 05fc 07060000 		.4byte	0x607
 2866 0600 09       		.uleb128 0x9
 2867 0601 F9000000 		.4byte	0xf9
 2868 0605 09       		.byte	0x9
 2869 0606 00       		.byte	0
 2870 0607 1B       		.uleb128 0x1b
 2871 0608 54010000 		.4byte	.LASF92
 2872 060c 01       		.byte	0x1
 2873 060d 3101     		.2byte	0x131
 2874 060f 00000000 		.4byte	.LFB77
 2875 0613 1C000000 		.4byte	.LFE77-.LFB77
 2876 0617 01       		.uleb128 0x1
 2877 0618 9C       		.byte	0x9c
 2878 0619 1C       		.uleb128 0x1c
 2879 061a 9E050000 		.4byte	.LASF93
 2880 061e 01       		.byte	0x1
 2881 061f 4201     		.2byte	0x142
 2882 0621 AD000000 		.4byte	0xad
 2883 0625 00000000 		.4byte	.LFB78
 2884 0629 28000000 		.4byte	.LFE78-.LFB78
 2885 062d 01       		.uleb128 0x1
 2886 062e 9C       		.byte	0x9c
 2887 062f 1D       		.uleb128 0x1d
ARM GAS  C:\Users\HYFI_A~1\AppData\Local\Temp\ccBuuRJ5.s 			page 65


 2888 0630 A6020000 		.4byte	.LASF96
 2889 0634 01       		.byte	0x1
 2890 0635 4D01     		.2byte	0x14d
 2891 0637 00000000 		.4byte	.LFB79
 2892 063b B4000000 		.4byte	.LFE79-.LFB79
 2893 063f 01       		.uleb128 0x1
 2894 0640 9C       		.byte	0x9c
 2895 0641 87060000 		.4byte	0x687
 2896 0645 14       		.uleb128 0x14
 2897 0646 06000000 		.4byte	.LBB5
 2898 064a 84000000 		.4byte	.LBE5-.LBB5
 2899 064e 1A       		.uleb128 0x1a
 2900 064f 5E060000 		.4byte	.LASF94
 2901 0653 01       		.byte	0x1
 2902 0654 4F01     		.2byte	0x14f
 2903 0656 AD000000 		.4byte	0xad
 2904 065a 02       		.uleb128 0x2
 2905 065b 91       		.byte	0x91
 2906 065c 77       		.sleb128 -9
 2907 065d 14       		.uleb128 0x14
 2908 065e 0C000000 		.4byte	.LBB6
 2909 0662 72000000 		.4byte	.LBE6-.LBB6
 2910 0666 1E       		.uleb128 0x1e
 2911 0667 63737100 		.ascii	"csq\000"
 2912 066b 01       		.byte	0x1
 2913 066c 5201     		.2byte	0x152
 2914 066e F7050000 		.4byte	0x5f7
 2915 0672 02       		.uleb128 0x2
 2916 0673 91       		.byte	0x91
 2917 0674 64       		.sleb128 -28
 2918 0675 1A       		.uleb128 0x1a
 2919 0676 29040000 		.4byte	.LASF95
 2920 067a 01       		.byte	0x1
 2921 067b 5601     		.2byte	0x156
 2922 067d 00010000 		.4byte	0x100
 2923 0681 02       		.uleb128 0x2
 2924 0682 91       		.byte	0x91
 2925 0683 70       		.sleb128 -16
 2926 0684 00       		.byte	0
 2927 0685 00       		.byte	0
 2928 0686 00       		.byte	0
 2929 0687 1D       		.uleb128 0x1d
 2930 0688 B8010000 		.4byte	.LASF97
 2931 068c 01       		.byte	0x1
 2932 068d 6701     		.2byte	0x167
 2933 068f 00000000 		.4byte	.LFB80
 2934 0693 38010000 		.4byte	.LFE80-.LFB80
 2935 0697 01       		.uleb128 0x1
 2936 0698 9C       		.byte	0x9c
 2937 0699 B7060000 		.4byte	0x6b7
 2938 069d 14       		.uleb128 0x14
 2939 069e B6000000 		.4byte	.LBB7
 2940 06a2 34000000 		.4byte	.LBE7-.LBB7
 2941 06a6 1A       		.uleb128 0x1a
 2942 06a7 60050000 		.4byte	.LASF98
 2943 06ab 01       		.byte	0x1
 2944 06ac 8601     		.2byte	0x186
ARM GAS  C:\Users\HYFI_A~1\AppData\Local\Temp\ccBuuRJ5.s 			page 66


 2945 06ae F7050000 		.4byte	0x5f7
 2946 06b2 02       		.uleb128 0x2
 2947 06b3 91       		.byte	0x91
 2948 06b4 6C       		.sleb128 -20
 2949 06b5 00       		.byte	0
 2950 06b6 00       		.byte	0
 2951 06b7 19       		.uleb128 0x19
 2952 06b8 0C020000 		.4byte	.LASF99
 2953 06bc 01       		.byte	0x1
 2954 06bd 9201     		.2byte	0x192
 2955 06bf 57000000 		.4byte	0x57
 2956 06c3 00000000 		.4byte	.LFB81
 2957 06c7 44010000 		.4byte	.LFE81-.LFB81
 2958 06cb 01       		.uleb128 0x1
 2959 06cc 9C       		.byte	0x9c
 2960 06cd 73070000 		.4byte	0x773
 2961 06d1 1A       		.uleb128 0x1a
 2962 06d2 4C030000 		.4byte	.LASF100
 2963 06d6 01       		.byte	0x1
 2964 06d7 9C01     		.2byte	0x19c
 2965 06d9 57000000 		.4byte	0x57
 2966 06dd 02       		.uleb128 0x2
 2967 06de 91       		.byte	0x91
 2968 06df 74       		.sleb128 -12
 2969 06e0 14       		.uleb128 0x14
 2970 06e1 30000000 		.4byte	.LBB8
 2971 06e5 DE000000 		.4byte	.LBE8-.LBB8
 2972 06e9 1A       		.uleb128 0x1a
 2973 06ea D1010000 		.4byte	.LASF101
 2974 06ee 01       		.byte	0x1
 2975 06ef 9F01     		.2byte	0x19f
 2976 06f1 73070000 		.4byte	0x773
 2977 06f5 02       		.uleb128 0x2
 2978 06f6 91       		.byte	0x91
 2979 06f7 54       		.sleb128 -44
 2980 06f8 1E       		.uleb128 0x1e
 2981 06f9 7400     		.ascii	"t\000"
 2982 06fb 01       		.byte	0x1
 2983 06fc A301     		.2byte	0x1a3
 2984 06fe 21010000 		.4byte	0x121
 2985 0702 03       		.uleb128 0x3
 2986 0703 91       		.byte	0x91
 2987 0704 947F     		.sleb128 -108
 2988 0706 1A       		.uleb128 0x1a
 2989 0707 76010000 		.4byte	.LASF102
 2990 070b 01       		.byte	0x1
 2991 070c A501     		.2byte	0x1a5
 2992 070e 7E000000 		.4byte	0x7e
 2993 0712 02       		.uleb128 0x2
 2994 0713 91       		.byte	0x91
 2995 0714 50       		.sleb128 -48
 2996 0715 1A       		.uleb128 0x1a
 2997 0716 46020000 		.4byte	.LASF103
 2998 071a 01       		.byte	0x1
 2999 071b A501     		.2byte	0x1a5
 3000 071d 7E000000 		.4byte	0x7e
 3001 0721 02       		.uleb128 0x2
ARM GAS  C:\Users\HYFI_A~1\AppData\Local\Temp\ccBuuRJ5.s 			page 67


 3002 0722 91       		.byte	0x91
 3003 0723 4C       		.sleb128 -52
 3004 0724 1E       		.uleb128 0x1e
 3005 0725 64617900 		.ascii	"day\000"
 3006 0729 01       		.byte	0x1
 3007 072a A501     		.2byte	0x1a5
 3008 072c 7E000000 		.4byte	0x7e
 3009 0730 02       		.uleb128 0x2
 3010 0731 91       		.byte	0x91
 3011 0732 48       		.sleb128 -56
 3012 0733 1A       		.uleb128 0x1a
 3013 0734 04040000 		.4byte	.LASF104
 3014 0738 01       		.byte	0x1
 3015 0739 A501     		.2byte	0x1a5
 3016 073b 7E000000 		.4byte	0x7e
 3017 073f 02       		.uleb128 0x2
 3018 0740 91       		.byte	0x91
 3019 0741 44       		.sleb128 -60
 3020 0742 1A       		.uleb128 0x1a
 3021 0743 14060000 		.4byte	.LASF105
 3022 0747 01       		.byte	0x1
 3023 0748 A501     		.2byte	0x1a5
 3024 074a 7E000000 		.4byte	0x7e
 3025 074e 02       		.uleb128 0x2
 3026 074f 91       		.byte	0x91
 3027 0750 40       		.sleb128 -64
 3028 0751 1A       		.uleb128 0x1a
 3029 0752 6F010000 		.4byte	.LASF106
 3030 0756 01       		.byte	0x1
 3031 0757 A501     		.2byte	0x1a5
 3032 0759 7E000000 		.4byte	0x7e
 3033 075d 03       		.uleb128 0x3
 3034 075e 91       		.byte	0x91
 3035 075f BC7F     		.sleb128 -68
 3036 0761 1A       		.uleb128 0x1a
 3037 0762 00000000 		.4byte	.LASF107
 3038 0766 01       		.byte	0x1
 3039 0767 A501     		.2byte	0x1a5
 3040 0769 7E000000 		.4byte	0x7e
 3041 076d 03       		.uleb128 0x3
 3042 076e 91       		.byte	0x91
 3043 076f B87F     		.sleb128 -72
 3044 0771 00       		.byte	0
 3045 0772 00       		.byte	0
 3046 0773 08       		.uleb128 0x8
 3047 0774 EB000000 		.4byte	0xeb
 3048 0778 83070000 		.4byte	0x783
 3049 077c 09       		.uleb128 0x9
 3050 077d F9000000 		.4byte	0xf9
 3051 0781 1D       		.byte	0x1d
 3052 0782 00       		.byte	0
 3053 0783 1F       		.uleb128 0x1f
 3054 0784 84010000 		.4byte	.LASF108
 3055 0788 01       		.byte	0x1
 3056 0789 C201     		.2byte	0x1c2
 3057 078b AD000000 		.4byte	0xad
 3058 078f 00000000 		.4byte	.LFB82
ARM GAS  C:\Users\HYFI_A~1\AppData\Local\Temp\ccBuuRJ5.s 			page 68


 3059 0793 14000000 		.4byte	.LFE82-.LFB82
 3060 0797 01       		.uleb128 0x1
 3061 0798 9C       		.byte	0x9c
 3062 0799 1B       		.uleb128 0x1b
 3063 079a 32020000 		.4byte	.LASF109
 3064 079e 01       		.byte	0x1
 3065 079f C601     		.2byte	0x1c6
 3066 07a1 00000000 		.4byte	.LFB83
 3067 07a5 1A000000 		.4byte	.LFE83-.LFB83
 3068 07a9 01       		.uleb128 0x1
 3069 07aa 9C       		.byte	0x9c
 3070 07ab 1B       		.uleb128 0x1b
 3071 07ac CA000000 		.4byte	.LASF110
 3072 07b0 01       		.byte	0x1
 3073 07b1 D101     		.2byte	0x1d1
 3074 07b3 00000000 		.4byte	.LFB84
 3075 07b7 2A000000 		.4byte	.LFE84-.LFB84
 3076 07bb 01       		.uleb128 0x1
 3077 07bc 9C       		.byte	0x9c
 3078 07bd 19       		.uleb128 0x19
 3079 07be B6040000 		.4byte	.LASF111
 3080 07c2 01       		.byte	0x1
 3081 07c3 E301     		.2byte	0x1e3
 3082 07c5 C2020000 		.4byte	0x2c2
 3083 07c9 00000000 		.4byte	.LFB85
 3084 07cd 78010000 		.4byte	.LFE85-.LFB85
 3085 07d1 01       		.uleb128 0x1
 3086 07d2 9C       		.byte	0x9c
 3087 07d3 57080000 		.4byte	0x857
 3088 07d7 1E       		.uleb128 0x1e
 3089 07d8 67707300 		.ascii	"gps\000"
 3090 07dc 01       		.byte	0x1
 3091 07dd E401     		.2byte	0x1e4
 3092 07df C2020000 		.4byte	0x2c2
 3093 07e3 02       		.uleb128 0x2
 3094 07e4 91       		.byte	0x91
 3095 07e5 54       		.sleb128 -44
 3096 07e6 1A       		.uleb128 0x1a
 3097 07e7 7E060000 		.4byte	.LASF112
 3098 07eb 01       		.byte	0x1
 3099 07ec F001     		.2byte	0x1f0
 3100 07ee 57000000 		.4byte	0x57
 3101 07f2 02       		.uleb128 0x2
 3102 07f3 91       		.byte	0x91
 3103 07f4 68       		.sleb128 -24
 3104 07f5 1A       		.uleb128 0x1a
 3105 07f6 CE050000 		.4byte	.LASF113
 3106 07fa 01       		.byte	0x1
 3107 07fb 3502     		.2byte	0x235
 3108 07fd AD000000 		.4byte	0xad
 3109 0801 02       		.uleb128 0x2
 3110 0802 91       		.byte	0x91
 3111 0803 6F       		.sleb128 -17
 3112 0804 20       		.uleb128 0x20
 3113 0805 90000000 		.4byte	.LBB9
 3114 0809 30000000 		.4byte	.LBE9-.LBB9
 3115 080d 1F080000 		.4byte	0x81f
ARM GAS  C:\Users\HYFI_A~1\AppData\Local\Temp\ccBuuRJ5.s 			page 69


 3116 0811 1E       		.uleb128 0x1e
 3117 0812 6900     		.ascii	"i\000"
 3118 0814 01       		.byte	0x1
 3119 0815 3602     		.2byte	0x236
 3120 0817 B9000000 		.4byte	0xb9
 3121 081b 02       		.uleb128 0x2
 3122 081c 91       		.byte	0x91
 3123 081d 6C       		.sleb128 -20
 3124 081e 00       		.byte	0
 3125 081f 14       		.uleb128 0x14
 3126 0820 C8000000 		.4byte	.LBB10
 3127 0824 42000000 		.4byte	.LBE10-.LBB10
 3128 0828 1E       		.uleb128 0x1e
 3129 0829 6C617400 		.ascii	"lat\000"
 3130 082d 01       		.byte	0x1
 3131 082e 4002     		.2byte	0x240
 3132 0830 DD000000 		.4byte	0xdd
 3133 0834 02       		.uleb128 0x2
 3134 0835 91       		.byte	0x91
 3135 0836 50       		.sleb128 -48
 3136 0837 1E       		.uleb128 0x1e
 3137 0838 6C6F6E00 		.ascii	"lon\000"
 3138 083c 01       		.byte	0x1
 3139 083d 4002     		.2byte	0x240
 3140 083f DD000000 		.4byte	0xdd
 3141 0843 02       		.uleb128 0x2
 3142 0844 91       		.byte	0x91
 3143 0845 4C       		.sleb128 -52
 3144 0846 1E       		.uleb128 0x1e
 3145 0847 616C7400 		.ascii	"alt\000"
 3146 084b 01       		.byte	0x1
 3147 084c 4002     		.2byte	0x240
 3148 084e DD000000 		.4byte	0xdd
 3149 0852 02       		.uleb128 0x2
 3150 0853 91       		.byte	0x91
 3151 0854 64       		.sleb128 -28
 3152 0855 00       		.byte	0
 3153 0856 00       		.byte	0
 3154 0857 21       		.uleb128 0x21
 3155 0858 FF000000 		.4byte	.LASF114
 3156 085c 0A       		.byte	0xa
 3157 085d 1207     		.2byte	0x712
 3158 085f 63080000 		.4byte	0x863
 3159 0863 22       		.uleb128 0x22
 3160 0864 97000000 		.4byte	0x97
 3161 0868 23       		.uleb128 0x23
 3162 0869 EE000000 		.4byte	.LASF115
 3163 086d 07       		.byte	0x7
 3164 086e 15       		.byte	0x15
 3165 086f AD000000 		.4byte	0xad
 3166 0873 05       		.uleb128 0x5
 3167 0874 03       		.byte	0x3
 3168 0875 00000000 		.4byte	modem_state
 3169 0879 23       		.uleb128 0x23
 3170 087a B7050000 		.4byte	.LASF116
 3171 087e 07       		.byte	0x7
 3172 087f 45       		.byte	0x45
ARM GAS  C:\Users\HYFI_A~1\AppData\Local\Temp\ccBuuRJ5.s 			page 70


 3173 0880 D1000000 		.4byte	0xd1
 3174 0884 05       		.uleb128 0x5
 3175 0885 03       		.byte	0x3
 3176 0886 00000000 		.4byte	modem_start_time_stamp
 3177 088a 23       		.uleb128 0x23
 3178 088b E8020000 		.4byte	.LASF54
 3179 088f 07       		.byte	0x7
 3180 0890 46       		.byte	0x46
 3181 0891 2F020000 		.4byte	0x22f
 3182 0895 05       		.uleb128 0x5
 3183 0896 03       		.byte	0x3
 3184 0897 00000000 		.4byte	modem_info
 3185 089b 23       		.uleb128 0x23
 3186 089c 0C010000 		.4byte	.LASF117
 3187 08a0 07       		.byte	0x7
 3188 08a1 47       		.byte	0x47
 3189 08a2 72020000 		.4byte	0x272
 3190 08a6 05       		.uleb128 0x5
 3191 08a7 03       		.byte	0x3
 3192 08a8 00000000 		.4byte	modem_stats
 3193 08ac 23       		.uleb128 0x23
 3194 08ad 92030000 		.4byte	.LASF118
 3195 08b1 08       		.byte	0x8
 3196 08b2 1D       		.byte	0x1d
 3197 08b3 B9000000 		.4byte	0xb9
 3198 08b7 05       		.uleb128 0x5
 3199 08b8 03       		.byte	0x3
 3200 08b9 00000000 		.4byte	dataPointsInStack
 3201 08bd 08       		.uleb128 0x8
 3202 08be FA020000 		.4byte	0x2fa
 3203 08c2 CD080000 		.4byte	0x8cd
 3204 08c6 09       		.uleb128 0x9
 3205 08c7 F9000000 		.4byte	0xf9
 3206 08cb 63       		.byte	0x63
 3207 08cc 00       		.byte	0
 3208 08cd 23       		.uleb128 0x23
 3209 08ce CA020000 		.4byte	.LASF119
 3210 08d2 08       		.byte	0x8
 3211 08d3 1E       		.byte	0x1e
 3212 08d4 BD080000 		.4byte	0x8bd
 3213 08d8 05       		.uleb128 0x5
 3214 08d9 03       		.byte	0x3
 3215 08da 00000000 		.4byte	data
 3216 08de 08       		.uleb128 0x8
 3217 08df EB000000 		.4byte	0xeb
 3218 08e3 EF080000 		.4byte	0x8ef
 3219 08e7 24       		.uleb128 0x24
 3220 08e8 F9000000 		.4byte	0xf9
 3221 08ec E703     		.2byte	0x3e7
 3222 08ee 00       		.byte	0
 3223 08ef 23       		.uleb128 0x23
 3224 08f0 88060000 		.4byte	.LASF120
 3225 08f4 09       		.byte	0x9
 3226 08f5 16       		.byte	0x16
 3227 08f6 DE080000 		.4byte	0x8de
 3228 08fa 05       		.uleb128 0x5
 3229 08fb 03       		.byte	0x3
ARM GAS  C:\Users\HYFI_A~1\AppData\Local\Temp\ccBuuRJ5.s 			page 71


 3230 08fc 00000000 		.4byte	http_request
 3231 0900 08       		.uleb128 0x8
 3232 0901 EB000000 		.4byte	0xeb
 3233 0905 11090000 		.4byte	0x911
 3234 0909 24       		.uleb128 0x24
 3235 090a F9000000 		.4byte	0xf9
 3236 090e 571B     		.2byte	0x1b57
 3237 0910 00       		.byte	0
 3238 0911 23       		.uleb128 0x23
 3239 0912 4A010000 		.4byte	.LASF121
 3240 0916 09       		.byte	0x9
 3241 0917 17       		.byte	0x17
 3242 0918 00090000 		.4byte	0x900
 3243 091c 05       		.uleb128 0x5
 3244 091d 03       		.byte	0x3
 3245 091e 00000000 		.4byte	http_body
 3246 0922 08       		.uleb128 0x8
 3247 0923 EB000000 		.4byte	0xeb
 3248 0927 32090000 		.4byte	0x932
 3249 092b 09       		.uleb128 0x9
 3250 092c F9000000 		.4byte	0xf9
 3251 0930 C7       		.byte	0xc7
 3252 0931 00       		.byte	0
 3253 0932 23       		.uleb128 0x23
 3254 0933 6E050000 		.4byte	.LASF122
 3255 0937 09       		.byte	0x9
 3256 0938 18       		.byte	0x18
 3257 0939 22090000 		.4byte	0x922
 3258 093d 05       		.uleb128 0x5
 3259 093e 03       		.byte	0x3
 3260 093f 00000000 		.4byte	http_route
 3261 0943 23       		.uleb128 0x23
 3262 0944 D7040000 		.4byte	.LASF123
 3263 0948 09       		.byte	0x9
 3264 0949 3D       		.byte	0x3d
 3265 094a 2C030000 		.4byte	0x32c
 3266 094e 05       		.uleb128 0x5
 3267 094f 03       		.byte	0x3
 3268 0950 00000000 		.4byte	system_info
 3269 0954 23       		.uleb128 0x23
 3270 0955 A0040000 		.4byte	.LASF124
 3271 0959 09       		.byte	0x9
 3272 095a 4C       		.byte	0x4c
 3273 095b AA030000 		.4byte	0x3aa
 3274 095f 05       		.uleb128 0x5
 3275 0960 03       		.byte	0x3
 3276 0961 00000000 		.4byte	system_settings
 3277 0965 08       		.uleb128 0x8
 3278 0966 EB000000 		.4byte	0xeb
 3279 096a 76090000 		.4byte	0x976
 3280 096e 24       		.uleb128 0x24
 3281 096f F9000000 		.4byte	0xf9
 3282 0973 FF03     		.2byte	0x3ff
 3283 0975 00       		.byte	0
 3284 0976 23       		.uleb128 0x23
 3285 0977 D1030000 		.4byte	.LASF125
 3286 097b 01       		.byte	0x1
ARM GAS  C:\Users\HYFI_A~1\AppData\Local\Temp\ccBuuRJ5.s 			page 72


 3287 097c 06       		.byte	0x6
 3288 097d 65090000 		.4byte	0x965
 3289 0981 05       		.uleb128 0x5
 3290 0982 03       		.byte	0x3
 3291 0983 00000000 		.4byte	uart_received_string
 3292 0987 23       		.uleb128 0x23
 3293 0988 8C050000 		.4byte	.LASF126
 3294 098c 01       		.byte	0x1
 3295 098d 07       		.byte	0x7
 3296 098e 8C000000 		.4byte	0x8c
 3297 0992 05       		.uleb128 0x5
 3298 0993 03       		.byte	0x3
 3299 0994 00000000 		.4byte	uart_string_index
 3300 0998 00       		.byte	0
 3301              		.section	.debug_abbrev,"",%progbits
 3302              	.Ldebug_abbrev0:
 3303 0000 01       		.uleb128 0x1
 3304 0001 11       		.uleb128 0x11
 3305 0002 01       		.byte	0x1
 3306 0003 25       		.uleb128 0x25
 3307 0004 0E       		.uleb128 0xe
 3308 0005 13       		.uleb128 0x13
 3309 0006 0B       		.uleb128 0xb
 3310 0007 03       		.uleb128 0x3
 3311 0008 0E       		.uleb128 0xe
 3312 0009 1B       		.uleb128 0x1b
 3313 000a 0E       		.uleb128 0xe
 3314 000b 55       		.uleb128 0x55
 3315 000c 17       		.uleb128 0x17
 3316 000d 11       		.uleb128 0x11
 3317 000e 01       		.uleb128 0x1
 3318 000f 10       		.uleb128 0x10
 3319 0010 17       		.uleb128 0x17
 3320 0011 00       		.byte	0
 3321 0012 00       		.byte	0
 3322 0013 02       		.uleb128 0x2
 3323 0014 24       		.uleb128 0x24
 3324 0015 00       		.byte	0
 3325 0016 0B       		.uleb128 0xb
 3326 0017 0B       		.uleb128 0xb
 3327 0018 3E       		.uleb128 0x3e
 3328 0019 0B       		.uleb128 0xb
 3329 001a 03       		.uleb128 0x3
 3330 001b 0E       		.uleb128 0xe
 3331 001c 00       		.byte	0
 3332 001d 00       		.byte	0
 3333 001e 03       		.uleb128 0x3
 3334 001f 16       		.uleb128 0x16
 3335 0020 00       		.byte	0
 3336 0021 03       		.uleb128 0x3
 3337 0022 0E       		.uleb128 0xe
 3338 0023 3A       		.uleb128 0x3a
 3339 0024 0B       		.uleb128 0xb
 3340 0025 3B       		.uleb128 0x3b
 3341 0026 0B       		.uleb128 0xb
 3342 0027 49       		.uleb128 0x49
 3343 0028 13       		.uleb128 0x13
ARM GAS  C:\Users\HYFI_A~1\AppData\Local\Temp\ccBuuRJ5.s 			page 73


 3344 0029 00       		.byte	0
 3345 002a 00       		.byte	0
 3346 002b 04       		.uleb128 0x4
 3347 002c 24       		.uleb128 0x24
 3348 002d 00       		.byte	0
 3349 002e 0B       		.uleb128 0xb
 3350 002f 0B       		.uleb128 0xb
 3351 0030 3E       		.uleb128 0x3e
 3352 0031 0B       		.uleb128 0xb
 3353 0032 03       		.uleb128 0x3
 3354 0033 08       		.uleb128 0x8
 3355 0034 00       		.byte	0
 3356 0035 00       		.byte	0
 3357 0036 05       		.uleb128 0x5
 3358 0037 16       		.uleb128 0x16
 3359 0038 00       		.byte	0
 3360 0039 03       		.uleb128 0x3
 3361 003a 0E       		.uleb128 0xe
 3362 003b 3A       		.uleb128 0x3a
 3363 003c 0B       		.uleb128 0xb
 3364 003d 3B       		.uleb128 0x3b
 3365 003e 05       		.uleb128 0x5
 3366 003f 49       		.uleb128 0x49
 3367 0040 13       		.uleb128 0x13
 3368 0041 00       		.byte	0
 3369 0042 00       		.byte	0
 3370 0043 06       		.uleb128 0x6
 3371 0044 0F       		.uleb128 0xf
 3372 0045 00       		.byte	0
 3373 0046 0B       		.uleb128 0xb
 3374 0047 0B       		.uleb128 0xb
 3375 0048 49       		.uleb128 0x49
 3376 0049 13       		.uleb128 0x13
 3377 004a 00       		.byte	0
 3378 004b 00       		.byte	0
 3379 004c 07       		.uleb128 0x7
 3380 004d 26       		.uleb128 0x26
 3381 004e 00       		.byte	0
 3382 004f 49       		.uleb128 0x49
 3383 0050 13       		.uleb128 0x13
 3384 0051 00       		.byte	0
 3385 0052 00       		.byte	0
 3386 0053 08       		.uleb128 0x8
 3387 0054 01       		.uleb128 0x1
 3388 0055 01       		.byte	0x1
 3389 0056 49       		.uleb128 0x49
 3390 0057 13       		.uleb128 0x13
 3391 0058 01       		.uleb128 0x1
 3392 0059 13       		.uleb128 0x13
 3393 005a 00       		.byte	0
 3394 005b 00       		.byte	0
 3395 005c 09       		.uleb128 0x9
 3396 005d 21       		.uleb128 0x21
 3397 005e 00       		.byte	0
 3398 005f 49       		.uleb128 0x49
 3399 0060 13       		.uleb128 0x13
 3400 0061 2F       		.uleb128 0x2f
ARM GAS  C:\Users\HYFI_A~1\AppData\Local\Temp\ccBuuRJ5.s 			page 74


 3401 0062 0B       		.uleb128 0xb
 3402 0063 00       		.byte	0
 3403 0064 00       		.byte	0
 3404 0065 0A       		.uleb128 0xa
 3405 0066 13       		.uleb128 0x13
 3406 0067 01       		.byte	0x1
 3407 0068 03       		.uleb128 0x3
 3408 0069 08       		.uleb128 0x8
 3409 006a 0B       		.uleb128 0xb
 3410 006b 0B       		.uleb128 0xb
 3411 006c 3A       		.uleb128 0x3a
 3412 006d 0B       		.uleb128 0xb
 3413 006e 3B       		.uleb128 0x3b
 3414 006f 0B       		.uleb128 0xb
 3415 0070 01       		.uleb128 0x1
 3416 0071 13       		.uleb128 0x13
 3417 0072 00       		.byte	0
 3418 0073 00       		.byte	0
 3419 0074 0B       		.uleb128 0xb
 3420 0075 0D       		.uleb128 0xd
 3421 0076 00       		.byte	0
 3422 0077 03       		.uleb128 0x3
 3423 0078 0E       		.uleb128 0xe
 3424 0079 3A       		.uleb128 0x3a
 3425 007a 0B       		.uleb128 0xb
 3426 007b 3B       		.uleb128 0x3b
 3427 007c 0B       		.uleb128 0xb
 3428 007d 49       		.uleb128 0x49
 3429 007e 13       		.uleb128 0x13
 3430 007f 38       		.uleb128 0x38
 3431 0080 0B       		.uleb128 0xb
 3432 0081 00       		.byte	0
 3433 0082 00       		.byte	0
 3434 0083 0C       		.uleb128 0xc
 3435 0084 13       		.uleb128 0x13
 3436 0085 01       		.byte	0x1
 3437 0086 0B       		.uleb128 0xb
 3438 0087 05       		.uleb128 0x5
 3439 0088 3A       		.uleb128 0x3a
 3440 0089 0B       		.uleb128 0xb
 3441 008a 3B       		.uleb128 0x3b
 3442 008b 0B       		.uleb128 0xb
 3443 008c 01       		.uleb128 0x1
 3444 008d 13       		.uleb128 0x13
 3445 008e 00       		.byte	0
 3446 008f 00       		.byte	0
 3447 0090 0D       		.uleb128 0xd
 3448 0091 13       		.uleb128 0x13
 3449 0092 01       		.byte	0x1
 3450 0093 0B       		.uleb128 0xb
 3451 0094 0B       		.uleb128 0xb
 3452 0095 3A       		.uleb128 0x3a
 3453 0096 0B       		.uleb128 0xb
 3454 0097 3B       		.uleb128 0x3b
 3455 0098 0B       		.uleb128 0xb
 3456 0099 01       		.uleb128 0x1
 3457 009a 13       		.uleb128 0x13
ARM GAS  C:\Users\HYFI_A~1\AppData\Local\Temp\ccBuuRJ5.s 			page 75


 3458 009b 00       		.byte	0
 3459 009c 00       		.byte	0
 3460 009d 0E       		.uleb128 0xe
 3461 009e 0D       		.uleb128 0xd
 3462 009f 00       		.byte	0
 3463 00a0 03       		.uleb128 0x3
 3464 00a1 08       		.uleb128 0x8
 3465 00a2 3A       		.uleb128 0x3a
 3466 00a3 0B       		.uleb128 0xb
 3467 00a4 3B       		.uleb128 0x3b
 3468 00a5 0B       		.uleb128 0xb
 3469 00a6 49       		.uleb128 0x49
 3470 00a7 13       		.uleb128 0x13
 3471 00a8 38       		.uleb128 0x38
 3472 00a9 0B       		.uleb128 0xb
 3473 00aa 00       		.byte	0
 3474 00ab 00       		.byte	0
 3475 00ac 0F       		.uleb128 0xf
 3476 00ad 0D       		.uleb128 0xd
 3477 00ae 00       		.byte	0
 3478 00af 03       		.uleb128 0x3
 3479 00b0 0E       		.uleb128 0xe
 3480 00b1 3A       		.uleb128 0x3a
 3481 00b2 0B       		.uleb128 0xb
 3482 00b3 3B       		.uleb128 0x3b
 3483 00b4 0B       		.uleb128 0xb
 3484 00b5 49       		.uleb128 0x49
 3485 00b6 13       		.uleb128 0x13
 3486 00b7 38       		.uleb128 0x38
 3487 00b8 05       		.uleb128 0x5
 3488 00b9 00       		.byte	0
 3489 00ba 00       		.byte	0
 3490 00bb 10       		.uleb128 0x10
 3491 00bc 2E       		.uleb128 0x2e
 3492 00bd 00       		.byte	0
 3493 00be 3F       		.uleb128 0x3f
 3494 00bf 19       		.uleb128 0x19
 3495 00c0 03       		.uleb128 0x3
 3496 00c1 0E       		.uleb128 0xe
 3497 00c2 3A       		.uleb128 0x3a
 3498 00c3 0B       		.uleb128 0xb
 3499 00c4 3B       		.uleb128 0x3b
 3500 00c5 0B       		.uleb128 0xb
 3501 00c6 27       		.uleb128 0x27
 3502 00c7 19       		.uleb128 0x19
 3503 00c8 11       		.uleb128 0x11
 3504 00c9 01       		.uleb128 0x1
 3505 00ca 12       		.uleb128 0x12
 3506 00cb 06       		.uleb128 0x6
 3507 00cc 40       		.uleb128 0x40
 3508 00cd 18       		.uleb128 0x18
 3509 00ce 9642     		.uleb128 0x2116
 3510 00d0 19       		.uleb128 0x19
 3511 00d1 00       		.byte	0
 3512 00d2 00       		.byte	0
 3513 00d3 11       		.uleb128 0x11
 3514 00d4 2E       		.uleb128 0x2e
ARM GAS  C:\Users\HYFI_A~1\AppData\Local\Temp\ccBuuRJ5.s 			page 76


 3515 00d5 00       		.byte	0
 3516 00d6 3F       		.uleb128 0x3f
 3517 00d7 19       		.uleb128 0x19
 3518 00d8 03       		.uleb128 0x3
 3519 00d9 0E       		.uleb128 0xe
 3520 00da 3A       		.uleb128 0x3a
 3521 00db 0B       		.uleb128 0xb
 3522 00dc 3B       		.uleb128 0x3b
 3523 00dd 0B       		.uleb128 0xb
 3524 00de 11       		.uleb128 0x11
 3525 00df 01       		.uleb128 0x1
 3526 00e0 12       		.uleb128 0x12
 3527 00e1 06       		.uleb128 0x6
 3528 00e2 40       		.uleb128 0x40
 3529 00e3 18       		.uleb128 0x18
 3530 00e4 9642     		.uleb128 0x2116
 3531 00e6 19       		.uleb128 0x19
 3532 00e7 00       		.byte	0
 3533 00e8 00       		.byte	0
 3534 00e9 12       		.uleb128 0x12
 3535 00ea 2E       		.uleb128 0x2e
 3536 00eb 01       		.byte	0x1
 3537 00ec 3F       		.uleb128 0x3f
 3538 00ed 19       		.uleb128 0x19
 3539 00ee 03       		.uleb128 0x3
 3540 00ef 0E       		.uleb128 0xe
 3541 00f0 3A       		.uleb128 0x3a
 3542 00f1 0B       		.uleb128 0xb
 3543 00f2 3B       		.uleb128 0x3b
 3544 00f3 0B       		.uleb128 0xb
 3545 00f4 49       		.uleb128 0x49
 3546 00f5 13       		.uleb128 0x13
 3547 00f6 11       		.uleb128 0x11
 3548 00f7 01       		.uleb128 0x1
 3549 00f8 12       		.uleb128 0x12
 3550 00f9 06       		.uleb128 0x6
 3551 00fa 40       		.uleb128 0x40
 3552 00fb 18       		.uleb128 0x18
 3553 00fc 9642     		.uleb128 0x2116
 3554 00fe 19       		.uleb128 0x19
 3555 00ff 01       		.uleb128 0x1
 3556 0100 13       		.uleb128 0x13
 3557 0101 00       		.byte	0
 3558 0102 00       		.byte	0
 3559 0103 13       		.uleb128 0x13
 3560 0104 34       		.uleb128 0x34
 3561 0105 00       		.byte	0
 3562 0106 03       		.uleb128 0x3
 3563 0107 0E       		.uleb128 0xe
 3564 0108 3A       		.uleb128 0x3a
 3565 0109 0B       		.uleb128 0xb
 3566 010a 3B       		.uleb128 0x3b
 3567 010b 0B       		.uleb128 0xb
 3568 010c 49       		.uleb128 0x49
 3569 010d 13       		.uleb128 0x13
 3570 010e 02       		.uleb128 0x2
 3571 010f 18       		.uleb128 0x18
ARM GAS  C:\Users\HYFI_A~1\AppData\Local\Temp\ccBuuRJ5.s 			page 77


 3572 0110 00       		.byte	0
 3573 0111 00       		.byte	0
 3574 0112 14       		.uleb128 0x14
 3575 0113 0B       		.uleb128 0xb
 3576 0114 01       		.byte	0x1
 3577 0115 11       		.uleb128 0x11
 3578 0116 01       		.uleb128 0x1
 3579 0117 12       		.uleb128 0x12
 3580 0118 06       		.uleb128 0x6
 3581 0119 00       		.byte	0
 3582 011a 00       		.byte	0
 3583 011b 15       		.uleb128 0x15
 3584 011c 2E       		.uleb128 0x2e
 3585 011d 01       		.byte	0x1
 3586 011e 3F       		.uleb128 0x3f
 3587 011f 19       		.uleb128 0x19
 3588 0120 03       		.uleb128 0x3
 3589 0121 0E       		.uleb128 0xe
 3590 0122 3A       		.uleb128 0x3a
 3591 0123 0B       		.uleb128 0xb
 3592 0124 3B       		.uleb128 0x3b
 3593 0125 0B       		.uleb128 0xb
 3594 0126 27       		.uleb128 0x27
 3595 0127 19       		.uleb128 0x19
 3596 0128 49       		.uleb128 0x49
 3597 0129 13       		.uleb128 0x13
 3598 012a 11       		.uleb128 0x11
 3599 012b 01       		.uleb128 0x1
 3600 012c 12       		.uleb128 0x12
 3601 012d 06       		.uleb128 0x6
 3602 012e 40       		.uleb128 0x40
 3603 012f 18       		.uleb128 0x18
 3604 0130 9642     		.uleb128 0x2116
 3605 0132 19       		.uleb128 0x19
 3606 0133 01       		.uleb128 0x1
 3607 0134 13       		.uleb128 0x13
 3608 0135 00       		.byte	0
 3609 0136 00       		.byte	0
 3610 0137 16       		.uleb128 0x16
 3611 0138 05       		.uleb128 0x5
 3612 0139 00       		.byte	0
 3613 013a 03       		.uleb128 0x3
 3614 013b 0E       		.uleb128 0xe
 3615 013c 3A       		.uleb128 0x3a
 3616 013d 0B       		.uleb128 0xb
 3617 013e 3B       		.uleb128 0x3b
 3618 013f 0B       		.uleb128 0xb
 3619 0140 49       		.uleb128 0x49
 3620 0141 13       		.uleb128 0x13
 3621 0142 02       		.uleb128 0x2
 3622 0143 18       		.uleb128 0x18
 3623 0144 00       		.byte	0
 3624 0145 00       		.byte	0
 3625 0146 17       		.uleb128 0x17
 3626 0147 34       		.uleb128 0x34
 3627 0148 00       		.byte	0
 3628 0149 03       		.uleb128 0x3
ARM GAS  C:\Users\HYFI_A~1\AppData\Local\Temp\ccBuuRJ5.s 			page 78


 3629 014a 08       		.uleb128 0x8
 3630 014b 3A       		.uleb128 0x3a
 3631 014c 0B       		.uleb128 0xb
 3632 014d 3B       		.uleb128 0x3b
 3633 014e 0B       		.uleb128 0xb
 3634 014f 49       		.uleb128 0x49
 3635 0150 13       		.uleb128 0x13
 3636 0151 02       		.uleb128 0x2
 3637 0152 18       		.uleb128 0x18
 3638 0153 00       		.byte	0
 3639 0154 00       		.byte	0
 3640 0155 18       		.uleb128 0x18
 3641 0156 2E       		.uleb128 0x2e
 3642 0157 00       		.byte	0
 3643 0158 3F       		.uleb128 0x3f
 3644 0159 19       		.uleb128 0x19
 3645 015a 03       		.uleb128 0x3
 3646 015b 0E       		.uleb128 0xe
 3647 015c 3A       		.uleb128 0x3a
 3648 015d 0B       		.uleb128 0xb
 3649 015e 3B       		.uleb128 0x3b
 3650 015f 0B       		.uleb128 0xb
 3651 0160 49       		.uleb128 0x49
 3652 0161 13       		.uleb128 0x13
 3653 0162 11       		.uleb128 0x11
 3654 0163 01       		.uleb128 0x1
 3655 0164 12       		.uleb128 0x12
 3656 0165 06       		.uleb128 0x6
 3657 0166 40       		.uleb128 0x40
 3658 0167 18       		.uleb128 0x18
 3659 0168 9642     		.uleb128 0x2116
 3660 016a 19       		.uleb128 0x19
 3661 016b 00       		.byte	0
 3662 016c 00       		.byte	0
 3663 016d 19       		.uleb128 0x19
 3664 016e 2E       		.uleb128 0x2e
 3665 016f 01       		.byte	0x1
 3666 0170 3F       		.uleb128 0x3f
 3667 0171 19       		.uleb128 0x19
 3668 0172 03       		.uleb128 0x3
 3669 0173 0E       		.uleb128 0xe
 3670 0174 3A       		.uleb128 0x3a
 3671 0175 0B       		.uleb128 0xb
 3672 0176 3B       		.uleb128 0x3b
 3673 0177 05       		.uleb128 0x5
 3674 0178 49       		.uleb128 0x49
 3675 0179 13       		.uleb128 0x13
 3676 017a 11       		.uleb128 0x11
 3677 017b 01       		.uleb128 0x1
 3678 017c 12       		.uleb128 0x12
 3679 017d 06       		.uleb128 0x6
 3680 017e 40       		.uleb128 0x40
 3681 017f 18       		.uleb128 0x18
 3682 0180 9642     		.uleb128 0x2116
 3683 0182 19       		.uleb128 0x19
 3684 0183 01       		.uleb128 0x1
 3685 0184 13       		.uleb128 0x13
ARM GAS  C:\Users\HYFI_A~1\AppData\Local\Temp\ccBuuRJ5.s 			page 79


 3686 0185 00       		.byte	0
 3687 0186 00       		.byte	0
 3688 0187 1A       		.uleb128 0x1a
 3689 0188 34       		.uleb128 0x34
 3690 0189 00       		.byte	0
 3691 018a 03       		.uleb128 0x3
 3692 018b 0E       		.uleb128 0xe
 3693 018c 3A       		.uleb128 0x3a
 3694 018d 0B       		.uleb128 0xb
 3695 018e 3B       		.uleb128 0x3b
 3696 018f 05       		.uleb128 0x5
 3697 0190 49       		.uleb128 0x49
 3698 0191 13       		.uleb128 0x13
 3699 0192 02       		.uleb128 0x2
 3700 0193 18       		.uleb128 0x18
 3701 0194 00       		.byte	0
 3702 0195 00       		.byte	0
 3703 0196 1B       		.uleb128 0x1b
 3704 0197 2E       		.uleb128 0x2e
 3705 0198 00       		.byte	0
 3706 0199 3F       		.uleb128 0x3f
 3707 019a 19       		.uleb128 0x19
 3708 019b 03       		.uleb128 0x3
 3709 019c 0E       		.uleb128 0xe
 3710 019d 3A       		.uleb128 0x3a
 3711 019e 0B       		.uleb128 0xb
 3712 019f 3B       		.uleb128 0x3b
 3713 01a0 05       		.uleb128 0x5
 3714 01a1 11       		.uleb128 0x11
 3715 01a2 01       		.uleb128 0x1
 3716 01a3 12       		.uleb128 0x12
 3717 01a4 06       		.uleb128 0x6
 3718 01a5 40       		.uleb128 0x40
 3719 01a6 18       		.uleb128 0x18
 3720 01a7 9642     		.uleb128 0x2116
 3721 01a9 19       		.uleb128 0x19
 3722 01aa 00       		.byte	0
 3723 01ab 00       		.byte	0
 3724 01ac 1C       		.uleb128 0x1c
 3725 01ad 2E       		.uleb128 0x2e
 3726 01ae 00       		.byte	0
 3727 01af 3F       		.uleb128 0x3f
 3728 01b0 19       		.uleb128 0x19
 3729 01b1 03       		.uleb128 0x3
 3730 01b2 0E       		.uleb128 0xe
 3731 01b3 3A       		.uleb128 0x3a
 3732 01b4 0B       		.uleb128 0xb
 3733 01b5 3B       		.uleb128 0x3b
 3734 01b6 05       		.uleb128 0x5
 3735 01b7 49       		.uleb128 0x49
 3736 01b8 13       		.uleb128 0x13
 3737 01b9 11       		.uleb128 0x11
 3738 01ba 01       		.uleb128 0x1
 3739 01bb 12       		.uleb128 0x12
 3740 01bc 06       		.uleb128 0x6
 3741 01bd 40       		.uleb128 0x40
 3742 01be 18       		.uleb128 0x18
ARM GAS  C:\Users\HYFI_A~1\AppData\Local\Temp\ccBuuRJ5.s 			page 80


 3743 01bf 9642     		.uleb128 0x2116
 3744 01c1 19       		.uleb128 0x19
 3745 01c2 00       		.byte	0
 3746 01c3 00       		.byte	0
 3747 01c4 1D       		.uleb128 0x1d
 3748 01c5 2E       		.uleb128 0x2e
 3749 01c6 01       		.byte	0x1
 3750 01c7 3F       		.uleb128 0x3f
 3751 01c8 19       		.uleb128 0x19
 3752 01c9 03       		.uleb128 0x3
 3753 01ca 0E       		.uleb128 0xe
 3754 01cb 3A       		.uleb128 0x3a
 3755 01cc 0B       		.uleb128 0xb
 3756 01cd 3B       		.uleb128 0x3b
 3757 01ce 05       		.uleb128 0x5
 3758 01cf 11       		.uleb128 0x11
 3759 01d0 01       		.uleb128 0x1
 3760 01d1 12       		.uleb128 0x12
 3761 01d2 06       		.uleb128 0x6
 3762 01d3 40       		.uleb128 0x40
 3763 01d4 18       		.uleb128 0x18
 3764 01d5 9642     		.uleb128 0x2116
 3765 01d7 19       		.uleb128 0x19
 3766 01d8 01       		.uleb128 0x1
 3767 01d9 13       		.uleb128 0x13
 3768 01da 00       		.byte	0
 3769 01db 00       		.byte	0
 3770 01dc 1E       		.uleb128 0x1e
 3771 01dd 34       		.uleb128 0x34
 3772 01de 00       		.byte	0
 3773 01df 03       		.uleb128 0x3
 3774 01e0 08       		.uleb128 0x8
 3775 01e1 3A       		.uleb128 0x3a
 3776 01e2 0B       		.uleb128 0xb
 3777 01e3 3B       		.uleb128 0x3b
 3778 01e4 05       		.uleb128 0x5
 3779 01e5 49       		.uleb128 0x49
 3780 01e6 13       		.uleb128 0x13
 3781 01e7 02       		.uleb128 0x2
 3782 01e8 18       		.uleb128 0x18
 3783 01e9 00       		.byte	0
 3784 01ea 00       		.byte	0
 3785 01eb 1F       		.uleb128 0x1f
 3786 01ec 2E       		.uleb128 0x2e
 3787 01ed 00       		.byte	0
 3788 01ee 3F       		.uleb128 0x3f
 3789 01ef 19       		.uleb128 0x19
 3790 01f0 03       		.uleb128 0x3
 3791 01f1 0E       		.uleb128 0xe
 3792 01f2 3A       		.uleb128 0x3a
 3793 01f3 0B       		.uleb128 0xb
 3794 01f4 3B       		.uleb128 0x3b
 3795 01f5 05       		.uleb128 0x5
 3796 01f6 49       		.uleb128 0x49
 3797 01f7 13       		.uleb128 0x13
 3798 01f8 11       		.uleb128 0x11
 3799 01f9 01       		.uleb128 0x1
ARM GAS  C:\Users\HYFI_A~1\AppData\Local\Temp\ccBuuRJ5.s 			page 81


 3800 01fa 12       		.uleb128 0x12
 3801 01fb 06       		.uleb128 0x6
 3802 01fc 40       		.uleb128 0x40
 3803 01fd 18       		.uleb128 0x18
 3804 01fe 9742     		.uleb128 0x2117
 3805 0200 19       		.uleb128 0x19
 3806 0201 00       		.byte	0
 3807 0202 00       		.byte	0
 3808 0203 20       		.uleb128 0x20
 3809 0204 0B       		.uleb128 0xb
 3810 0205 01       		.byte	0x1
 3811 0206 11       		.uleb128 0x11
 3812 0207 01       		.uleb128 0x1
 3813 0208 12       		.uleb128 0x12
 3814 0209 06       		.uleb128 0x6
 3815 020a 01       		.uleb128 0x1
 3816 020b 13       		.uleb128 0x13
 3817 020c 00       		.byte	0
 3818 020d 00       		.byte	0
 3819 020e 21       		.uleb128 0x21
 3820 020f 34       		.uleb128 0x34
 3821 0210 00       		.byte	0
 3822 0211 03       		.uleb128 0x3
 3823 0212 0E       		.uleb128 0xe
 3824 0213 3A       		.uleb128 0x3a
 3825 0214 0B       		.uleb128 0xb
 3826 0215 3B       		.uleb128 0x3b
 3827 0216 05       		.uleb128 0x5
 3828 0217 49       		.uleb128 0x49
 3829 0218 13       		.uleb128 0x13
 3830 0219 3F       		.uleb128 0x3f
 3831 021a 19       		.uleb128 0x19
 3832 021b 3C       		.uleb128 0x3c
 3833 021c 19       		.uleb128 0x19
 3834 021d 00       		.byte	0
 3835 021e 00       		.byte	0
 3836 021f 22       		.uleb128 0x22
 3837 0220 35       		.uleb128 0x35
 3838 0221 00       		.byte	0
 3839 0222 49       		.uleb128 0x49
 3840 0223 13       		.uleb128 0x13
 3841 0224 00       		.byte	0
 3842 0225 00       		.byte	0
 3843 0226 23       		.uleb128 0x23
 3844 0227 34       		.uleb128 0x34
 3845 0228 00       		.byte	0
 3846 0229 03       		.uleb128 0x3
 3847 022a 0E       		.uleb128 0xe
 3848 022b 3A       		.uleb128 0x3a
 3849 022c 0B       		.uleb128 0xb
 3850 022d 3B       		.uleb128 0x3b
 3851 022e 0B       		.uleb128 0xb
 3852 022f 49       		.uleb128 0x49
 3853 0230 13       		.uleb128 0x13
 3854 0231 3F       		.uleb128 0x3f
 3855 0232 19       		.uleb128 0x19
 3856 0233 02       		.uleb128 0x2
ARM GAS  C:\Users\HYFI_A~1\AppData\Local\Temp\ccBuuRJ5.s 			page 82


 3857 0234 18       		.uleb128 0x18
 3858 0235 00       		.byte	0
 3859 0236 00       		.byte	0
 3860 0237 24       		.uleb128 0x24
 3861 0238 21       		.uleb128 0x21
 3862 0239 00       		.byte	0
 3863 023a 49       		.uleb128 0x49
 3864 023b 13       		.uleb128 0x13
 3865 023c 2F       		.uleb128 0x2f
 3866 023d 05       		.uleb128 0x5
 3867 023e 00       		.byte	0
 3868 023f 00       		.byte	0
 3869 0240 00       		.byte	0
 3870              		.section	.debug_aranges,"",%progbits
 3871 0000 C4000000 		.4byte	0xc4
 3872 0004 0200     		.2byte	0x2
 3873 0006 00000000 		.4byte	.Ldebug_info0
 3874 000a 04       		.byte	0x4
 3875 000b 00       		.byte	0
 3876 000c 0000     		.2byte	0
 3877 000e 0000     		.2byte	0
 3878 0010 00000000 		.4byte	.LFB64
 3879 0014 3C000000 		.4byte	.LFE64-.LFB64
 3880 0018 00000000 		.4byte	.LFB65
 3881 001c 54000000 		.4byte	.LFE65-.LFB65
 3882 0020 00000000 		.4byte	.LFB66
 3883 0024 32000000 		.4byte	.LFE66-.LFB66
 3884 0028 00000000 		.4byte	.LFB67
 3885 002c 20000000 		.4byte	.LFE67-.LFB67
 3886 0030 00000000 		.4byte	.LFB68
 3887 0034 40000000 		.4byte	.LFE68-.LFB68
 3888 0038 00000000 		.4byte	.LFB69
 3889 003c A0000000 		.4byte	.LFE69-.LFB69
 3890 0040 00000000 		.4byte	.LFB70
 3891 0044 1C000000 		.4byte	.LFE70-.LFB70
 3892 0048 00000000 		.4byte	.LFB71
 3893 004c 28000000 		.4byte	.LFE71-.LFB71
 3894 0050 00000000 		.4byte	.LFB72
 3895 0054 C8000000 		.4byte	.LFE72-.LFB72
 3896 0058 00000000 		.4byte	.LFB73
 3897 005c 34000000 		.4byte	.LFE73-.LFB73
 3898 0060 00000000 		.4byte	.LFB74
 3899 0064 78000000 		.4byte	.LFE74-.LFB74
 3900 0068 00000000 		.4byte	.LFB75
 3901 006c 08010000 		.4byte	.LFE75-.LFB75
 3902 0070 00000000 		.4byte	.LFB76
 3903 0074 A0000000 		.4byte	.LFE76-.LFB76
 3904 0078 00000000 		.4byte	.LFB77
 3905 007c 1C000000 		.4byte	.LFE77-.LFB77
 3906 0080 00000000 		.4byte	.LFB78
 3907 0084 28000000 		.4byte	.LFE78-.LFB78
 3908 0088 00000000 		.4byte	.LFB79
 3909 008c B4000000 		.4byte	.LFE79-.LFB79
 3910 0090 00000000 		.4byte	.LFB80
 3911 0094 38010000 		.4byte	.LFE80-.LFB80
 3912 0098 00000000 		.4byte	.LFB81
 3913 009c 44010000 		.4byte	.LFE81-.LFB81
ARM GAS  C:\Users\HYFI_A~1\AppData\Local\Temp\ccBuuRJ5.s 			page 83


 3914 00a0 00000000 		.4byte	.LFB82
 3915 00a4 14000000 		.4byte	.LFE82-.LFB82
 3916 00a8 00000000 		.4byte	.LFB83
 3917 00ac 1A000000 		.4byte	.LFE83-.LFB83
 3918 00b0 00000000 		.4byte	.LFB84
 3919 00b4 2A000000 		.4byte	.LFE84-.LFB84
 3920 00b8 00000000 		.4byte	.LFB85
 3921 00bc 78010000 		.4byte	.LFE85-.LFB85
 3922 00c0 00000000 		.4byte	0
 3923 00c4 00000000 		.4byte	0
 3924              		.section	.debug_ranges,"",%progbits
 3925              	.Ldebug_ranges0:
 3926 0000 00000000 		.4byte	.LFB64
 3927 0004 3C000000 		.4byte	.LFE64
 3928 0008 00000000 		.4byte	.LFB65
 3929 000c 54000000 		.4byte	.LFE65
 3930 0010 00000000 		.4byte	.LFB66
 3931 0014 32000000 		.4byte	.LFE66
 3932 0018 00000000 		.4byte	.LFB67
 3933 001c 20000000 		.4byte	.LFE67
 3934 0020 00000000 		.4byte	.LFB68
 3935 0024 40000000 		.4byte	.LFE68
 3936 0028 00000000 		.4byte	.LFB69
 3937 002c A0000000 		.4byte	.LFE69
 3938 0030 00000000 		.4byte	.LFB70
 3939 0034 1C000000 		.4byte	.LFE70
 3940 0038 00000000 		.4byte	.LFB71
 3941 003c 28000000 		.4byte	.LFE71
 3942 0040 00000000 		.4byte	.LFB72
 3943 0044 C8000000 		.4byte	.LFE72
 3944 0048 00000000 		.4byte	.LFB73
 3945 004c 34000000 		.4byte	.LFE73
 3946 0050 00000000 		.4byte	.LFB74
 3947 0054 78000000 		.4byte	.LFE74
 3948 0058 00000000 		.4byte	.LFB75
 3949 005c 08010000 		.4byte	.LFE75
 3950 0060 00000000 		.4byte	.LFB76
 3951 0064 A0000000 		.4byte	.LFE76
 3952 0068 00000000 		.4byte	.LFB77
 3953 006c 1C000000 		.4byte	.LFE77
 3954 0070 00000000 		.4byte	.LFB78
 3955 0074 28000000 		.4byte	.LFE78
 3956 0078 00000000 		.4byte	.LFB79
 3957 007c B4000000 		.4byte	.LFE79
 3958 0080 00000000 		.4byte	.LFB80
 3959 0084 38010000 		.4byte	.LFE80
 3960 0088 00000000 		.4byte	.LFB81
 3961 008c 44010000 		.4byte	.LFE81
 3962 0090 00000000 		.4byte	.LFB82
 3963 0094 14000000 		.4byte	.LFE82
 3964 0098 00000000 		.4byte	.LFB83
 3965 009c 1A000000 		.4byte	.LFE83
 3966 00a0 00000000 		.4byte	.LFB84
 3967 00a4 2A000000 		.4byte	.LFE84
 3968 00a8 00000000 		.4byte	.LFB85
 3969 00ac 78010000 		.4byte	.LFE85
 3970 00b0 00000000 		.4byte	0
ARM GAS  C:\Users\HYFI_A~1\AppData\Local\Temp\ccBuuRJ5.s 			page 84


 3971 00b4 00000000 		.4byte	0
 3972              		.section	.debug_line,"",%progbits
 3973              	.Ldebug_line0:
 3974 0000 9E040000 		.section	.debug_str,"MS",%progbits,1
 3974      0200EF01 
 3974      00000201 
 3974      FB0E0D00 
 3974      01010101 
 3975              	.LASF107:
 3976 0000 676D745F 		.ascii	"gmt_offset\000"
 3976      6F666673 
 3976      657400
 3977              	.LASF16:
 3978 000b 75696E74 		.ascii	"uint16\000"
 3978      313600
 3979              	.LASF51:
 3980 0012 76616C75 		.ascii	"value\000"
 3980      6500
 3981              	.LASF26:
 3982 0018 746D5F68 		.ascii	"tm_hour\000"
 3982      6F757200 
 3983              	.LASF31:
 3984 0020 746D5F79 		.ascii	"tm_yday\000"
 3984      64617900 
 3985              	.LASF4:
 3986 0028 5F5F7569 		.ascii	"__uint8_t\000"
 3986      6E74385F 
 3986      7400
 3987              	.LASF46:
 3988 0032 6C6F6E67 		.ascii	"longitude\000"
 3988      69747564 
 3988      6500
 3989              	.LASF127:
 3990 003c 474E5520 		.ascii	"GNU C11 5.4.1 20160609 (release) [ARM/embedded-5-br"
 3990      43313120 
 3990      352E342E 
 3990      31203230 
 3990      31363036 
 3991 006f 616E6368 		.ascii	"anch revision 237715] -mcpu=cortex-m3 -mthumb -g -O"
 3991      20726576 
 3991      6973696F 
 3991      6E203233 
 3991      37373135 
 3992 00a2 30202D66 		.ascii	"0 -ffunction-sections -ffat-lto-objects\000"
 3992      66756E63 
 3992      74696F6E 
 3992      2D736563 
 3992      74696F6E 
 3993              	.LASF110:
 3994 00ca 6D6F6465 		.ascii	"modem_wakeup\000"
 3994      6D5F7761 
 3994      6B657570 
 3994      00
 3995              	.LASF10:
 3996 00d7 6C6F6E67 		.ascii	"long long unsigned int\000"
 3996      206C6F6E 
 3996      6720756E 
ARM GAS  C:\Users\HYFI_A~1\AppData\Local\Temp\ccBuuRJ5.s 			page 85


 3996      7369676E 
 3996      65642069 
 3997              	.LASF115:
 3998 00ee 6D6F6465 		.ascii	"modem_state\000"
 3998      6D5F7374 
 3998      61746500 
 3999              	.LASF81:
 4000 00fa 74657374 		.ascii	"test\000"
 4000      00
 4001              	.LASF114:
 4002 00ff 49544D5F 		.ascii	"ITM_RxBuffer\000"
 4002      52784275 
 4002      66666572 
 4002      00
 4003              	.LASF117:
 4004 010c 6D6F6465 		.ascii	"modem_stats\000"
 4004      6D5F7374 
 4004      61747300 
 4005              	.LASF9:
 4006 0118 6C6F6E67 		.ascii	"long long int\000"
 4006      206C6F6E 
 4006      6720696E 
 4006      7400
 4007              	.LASF0:
 4008 0126 7369676E 		.ascii	"signed char\000"
 4008      65642063 
 4008      68617200 
 4009              	.LASF42:
 4010 0132 74696D65 		.ascii	"time_to_network_connect\000"
 4010      5F746F5F 
 4010      6E657477 
 4010      6F726B5F 
 4010      636F6E6E 
 4011              	.LASF121:
 4012 014a 68747470 		.ascii	"http_body\000"
 4012      5F626F64 
 4012      7900
 4013              	.LASF92:
 4014 0154 7365745F 		.ascii	"set_up_internet_connection\000"
 4014      75705F69 
 4014      6E746572 
 4014      6E65745F 
 4014      636F6E6E 
 4015              	.LASF106:
 4016 016f 7365636F 		.ascii	"second\000"
 4016      6E6400
 4017              	.LASF102:
 4018 0176 79656172 		.ascii	"year\000"
 4018      00
 4019              	.LASF6:
 4020 017b 6C6F6E67 		.ascii	"long int\000"
 4020      20696E74 
 4020      00
 4021              	.LASF108:
 4022 0184 6D6F6465 		.ascii	"modem_get_state\000"
 4022      6D5F6765 
 4022      745F7374 
ARM GAS  C:\Users\HYFI_A~1\AppData\Local\Temp\ccBuuRJ5.s 			page 86


 4022      61746500 
 4023              	.LASF47:
 4024 0194 616C7469 		.ascii	"altitude\000"
 4024      74756465 
 4024      00
 4025              	.LASF15:
 4026 019d 75696E74 		.ascii	"uint8\000"
 4026      3800
 4027              	.LASF57:
 4028 01a3 6E6F6465 		.ascii	"node_id\000"
 4028      5F696400 
 4029              	.LASF20:
 4030 01ab 646F7562 		.ascii	"double\000"
 4030      6C6500
 4031              	.LASF18:
 4032 01b2 696E7433 		.ascii	"int32\000"
 4032      3200
 4033              	.LASF97:
 4034 01b8 6D6F6465 		.ascii	"modem_configure_settings\000"
 4034      6D5F636F 
 4034      6E666967 
 4034      7572655F 
 4034      73657474 
 4035              	.LASF101:
 4036 01d1 6E657477 		.ascii	"network_time\000"
 4036      6F726B5F 
 4036      74696D65 
 4036      00
 4037              	.LASF3:
 4038 01de 73686F72 		.ascii	"short unsigned int\000"
 4038      7420756E 
 4038      7369676E 
 4038      65642069 
 4038      6E7400
 4039              	.LASF17:
 4040 01f1 75696E74 		.ascii	"uint32\000"
 4040      333200
 4041              	.LASF78:
 4042 01f8 696E7465 		.ascii	"interval\000"
 4042      7276616C 
 4042      00
 4043              	.LASF7:
 4044 0201 5F5F7569 		.ascii	"__uint32_t\000"
 4044      6E743332 
 4044      5F7400
 4045              	.LASF99:
 4046 020c 6D6F6465 		.ascii	"modem_get_network_time\000"
 4046      6D5F6765 
 4046      745F6E65 
 4046      74776F72 
 4046      6B5F7469 
 4047              	.LASF28:
 4048 0223 746D5F6D 		.ascii	"tm_mon\000"
 4048      6F6E00
 4049              	.LASF61:
 4050 022a 65705F70 		.ascii	"ep_pswd\000"
 4050      73776400 
ARM GAS  C:\Users\HYFI_A~1\AppData\Local\Temp\ccBuuRJ5.s 			page 87


 4051              	.LASF109:
 4052 0232 6D6F6465 		.ascii	"modem_sleep\000"
 4052      6D5F736C 
 4052      65657000 
 4053              	.LASF29:
 4054 023e 746D5F79 		.ascii	"tm_year\000"
 4054      65617200 
 4055              	.LASF103:
 4056 0246 6D6F6E74 		.ascii	"month\000"
 4056      6800
 4057              	.LASF66:
 4058 024c 70696E73 		.ascii	"pins_configure_active\000"
 4058      5F636F6E 
 4058      66696775 
 4058      72655F61 
 4058      63746976 
 4059              	.LASF53:
 4060 0262 6B65795F 		.ascii	"key_value_t\000"
 4060      76616C75 
 4060      655F7400 
 4061              	.LASF8:
 4062 026e 6C6F6E67 		.ascii	"long unsigned int\000"
 4062      20756E73 
 4062      69676E65 
 4062      6420696E 
 4062      7400
 4063              	.LASF83:
 4064 0280 65787472 		.ascii	"extract_string\000"
 4064      6163745F 
 4064      73747269 
 4064      6E6700
 4065              	.LASF64:
 4066 028f 6D6F6465 		.ascii	"modem_intilize\000"
 4066      6D5F696E 
 4066      74696C69 
 4066      7A6500
 4067              	.LASF74:
 4068 029e 74696D65 		.ascii	"timeout\000"
 4068      6F757400 
 4069              	.LASF96:
 4070 02a6 6765745F 		.ascii	"get_cell_network_stats\000"
 4070      63656C6C 
 4070      5F6E6574 
 4070      776F726B 
 4070      5F737461 
 4071              	.LASF48:
 4072 02bd 74696D65 		.ascii	"time_to_lock\000"
 4072      5F746F5F 
 4072      6C6F636B 
 4072      00
 4073              	.LASF119:
 4074 02ca 64617461 		.ascii	"data\000"
 4074      00
 4075              	.LASF60:
 4076 02cf 65705F75 		.ascii	"ep_user\000"
 4076      73657200 
 4077              	.LASF59:
ARM GAS  C:\Users\HYFI_A~1\AppData\Local\Temp\ccBuuRJ5.s 			page 88


 4078 02d7 65705F70 		.ascii	"ep_port\000"
 4078      6F727400 
 4079              	.LASF32:
 4080 02df 746D5F69 		.ascii	"tm_isdst\000"
 4080      73647374 
 4080      00
 4081              	.LASF54:
 4082 02e8 6D6F6465 		.ascii	"modem_info\000"
 4082      6D5F696E 
 4082      666F00
 4083              	.LASF58:
 4084 02f3 65705F68 		.ascii	"ep_host\000"
 4084      6F737400 
 4085              	.LASF79:
 4086 02fb 6D6F6465 		.ascii	"modem_power_up\000"
 4086      6D5F706F 
 4086      7765725F 
 4086      757000
 4087              	.LASF128:
 4088 030a 6D6F6465 		.ascii	"modem.c\000"
 4088      6D2E6300 
 4089              	.LASF85:
 4090 0312 62656769 		.ascii	"beginMarker\000"
 4090      6E4D6172 
 4090      6B657200 
 4091              	.LASF87:
 4092 031e 74617267 		.ascii	"target\000"
 4092      657400
 4093              	.LASF43:
 4094 0325 74696D65 		.ascii	"time_to_acquire_ip\000"
 4094      5F746F5F 
 4094      61637175 
 4094      6972655F 
 4094      697000
 4095              	.LASF86:
 4096 0338 656E644D 		.ascii	"endMarker\000"
 4096      61726B65 
 4096      7200
 4097              	.LASF2:
 4098 0342 73686F72 		.ascii	"short int\000"
 4098      7420696E 
 4098      7400
 4099              	.LASF100:
 4100 034c 65706F63 		.ascii	"epoch_time\000"
 4100      685F7469 
 4100      6D6500
 4101              	.LASF5:
 4102 0357 5F5F696E 		.ascii	"__int32_t\000"
 4102      7433325F 
 4102      7400
 4103              	.LASF84:
 4104 0361 66726F6D 		.ascii	"from\000"
 4104      00
 4105              	.LASF91:
 4106 0366 63726567 		.ascii	"creg\000"
 4106      00
 4107              	.LASF75:
ARM GAS  C:\Users\HYFI_A~1\AppData\Local\Temp\ccBuuRJ5.s 			page 89


 4108 036b 61745F61 		.ascii	"at_attempt\000"
 4108      7474656D 
 4108      707400
 4109              	.LASF82:
 4110 0376 61745F77 		.ascii	"at_write_command\000"
 4110      72697465 
 4110      5F636F6D 
 4110      6D616E64 
 4110      00
 4111              	.LASF56:
 4112 0387 7379735F 		.ascii	"sys_info_t\000"
 4112      696E666F 
 4112      5F7400
 4113              	.LASF118:
 4114 0392 64617461 		.ascii	"dataPointsInStack\000"
 4114      506F696E 
 4114      7473496E 
 4114      53746163 
 4114      6B00
 4115              	.LASF25:
 4116 03a4 746D5F6D 		.ascii	"tm_min\000"
 4116      696E00
 4117              	.LASF23:
 4118 03ab 73697A65 		.ascii	"sizetype\000"
 4118      74797065 
 4118      00
 4119              	.LASF90:
 4120 03b4 69735F63 		.ascii	"is_connected_to_cell_network\000"
 4120      6F6E6E65 
 4120      63746564 
 4120      5F746F5F 
 4120      63656C6C 
 4121              	.LASF125:
 4122 03d1 75617274 		.ascii	"uart_received_string\000"
 4122      5F726563 
 4122      65697665 
 4122      645F7374 
 4122      72696E67 
 4123              	.LASF45:
 4124 03e6 6C617469 		.ascii	"latitude\000"
 4124      74756465 
 4124      00
 4125              	.LASF33:
 4126 03ef 74657374 		.ascii	"test_name\000"
 4126      5F6E616D 
 4126      6500
 4127              	.LASF80:
 4128 03f9 6D6F6465 		.ascii	"modem_test\000"
 4128      6D5F7465 
 4128      737400
 4129              	.LASF104:
 4130 0404 686F7572 		.ascii	"hour\000"
 4130      00
 4131              	.LASF72:
 4132 0409 636F6D6D 		.ascii	"commands\000"
 4132      616E6473 
 4132      00
ARM GAS  C:\Users\HYFI_A~1\AppData\Local\Temp\ccBuuRJ5.s 			page 90


 4133              	.LASF76:
 4134 0412 636F6D70 		.ascii	"compare_location\000"
 4134      6172655F 
 4134      6C6F6361 
 4134      74696F6E 
 4134      00
 4135              	.LASF19:
 4136 0423 666C6F61 		.ascii	"float\000"
 4136      7400
 4137              	.LASF95:
 4138 0429 746F6B65 		.ascii	"token\000"
 4138      6E00
 4139              	.LASF129:
 4140 042f 433A5C55 		.ascii	"C:\\Users\\hyfi_admin\\Documents\\GitHub\\notoriOS\\"
 4140      73657273 
 4140      5C687966 
 4140      695F6164 
 4140      6D696E5C 
 4141 045d 6E6F746F 		.ascii	"notoriOS\\notoriOS.cydsn\000"
 4141      72694F53 
 4141      5C6E6F74 
 4141      6F72694F 
 4141      532E6379 
 4142              	.LASF69:
 4143 0475 61747465 		.ascii	"attemps\000"
 4143      6D707300 
 4144              	.LASF88:
 4145 047d 6973725F 		.ascii	"isr_telit_rx\000"
 4145      74656C69 
 4145      745F7278 
 4145      00
 4146              	.LASF13:
 4147 048a 696E7433 		.ascii	"int32_t\000"
 4147      325F7400 
 4148              	.LASF1:
 4149 0492 756E7369 		.ascii	"unsigned char\000"
 4149      676E6564 
 4149      20636861 
 4149      7200
 4150              	.LASF124:
 4151 04a0 73797374 		.ascii	"system_settings\000"
 4151      656D5F73 
 4151      65747469 
 4151      6E677300 
 4152              	.LASF77:
 4153 04b0 64656C61 		.ascii	"delay\000"
 4153      7900
 4154              	.LASF111:
 4155 04b6 6D6F6465 		.ascii	"modem_get_gps_coordinates\000"
 4155      6D5F6765 
 4155      745F6770 
 4155      735F636F 
 4155      6F726469 
 4156              	.LASF36:
 4157 04d0 74657374 		.ascii	"test_t\000"
 4157      5F7400
 4158              	.LASF123:
ARM GAS  C:\Users\HYFI_A~1\AppData\Local\Temp\ccBuuRJ5.s 			page 91


 4159 04d7 73797374 		.ascii	"system_info\000"
 4159      656D5F69 
 4159      6E666F00 
 4160              	.LASF39:
 4161 04e3 696D6569 		.ascii	"imei\000"
 4161      00
 4162              	.LASF35:
 4163 04e8 72656173 		.ascii	"reason\000"
 4163      6F6E00
 4164              	.LASF44:
 4165 04ef 6D6F6465 		.ascii	"modem_stats_t\000"
 4165      6D5F7374 
 4165      6174735F 
 4165      7400
 4166              	.LASF71:
 4167 04fd 75617274 		.ascii	"uart_string_reset\000"
 4167      5F737472 
 4167      696E675F 
 4167      72657365 
 4167      7400
 4168              	.LASF30:
 4169 050f 746D5F77 		.ascii	"tm_wday\000"
 4169      64617900 
 4170              	.LASF70:
 4171 0517 6D6F6465 		.ascii	"modem_soft_power_cycle\000"
 4171      6D5F736F 
 4171      66745F70 
 4171      6F776572 
 4171      5F637963 
 4172              	.LASF22:
 4173 052e 6C6F6E67 		.ascii	"long double\000"
 4173      20646F75 
 4173      626C6500 
 4174              	.LASF21:
 4175 053a 63686172 		.ascii	"char\000"
 4175      00
 4176              	.LASF89:
 4177 053f 6D6F6465 		.ascii	"modem_process_tasks\000"
 4177      6D5F7072 
 4177      6F636573 
 4177      735F7461 
 4177      736B7300 
 4178              	.LASF11:
 4179 0553 756E7369 		.ascii	"unsigned int\000"
 4179      676E6564 
 4179      20696E74 
 4179      00
 4180              	.LASF98:
 4181 0560 4346554E 		.ascii	"CFUN\000"
 4181      00
 4182              	.LASF38:
 4183 0565 6D6F6465 		.ascii	"model_id\000"
 4183      6C5F6964 
 4183      00
 4184              	.LASF122:
 4185 056e 68747470 		.ascii	"http_route\000"
 4185      5F726F75 
ARM GAS  C:\Users\HYFI_A~1\AppData\Local\Temp\ccBuuRJ5.s 			page 92


 4185      746500
 4186              	.LASF40:
 4187 0579 6D6F6465 		.ascii	"modem_info_t\000"
 4187      6D5F696E 
 4187      666F5F74 
 4187      00
 4188              	.LASF50:
 4189 0586 6770735F 		.ascii	"gps_t\000"
 4189      7400
 4190              	.LASF126:
 4191 058c 75617274 		.ascii	"uart_string_index\000"
 4191      5F737472 
 4191      696E675F 
 4191      696E6465 
 4191      7800
 4192              	.LASF93:
 4193 059e 69735F63 		.ascii	"is_connected_to_internet\000"
 4193      6F6E6E65 
 4193      63746564 
 4193      5F746F5F 
 4193      696E7465 
 4194              	.LASF116:
 4195 05b7 6D6F6465 		.ascii	"modem_start_time_stamp\000"
 4195      6D5F7374 
 4195      6172745F 
 4195      74696D65 
 4195      5F737461 
 4196              	.LASF113:
 4197 05ce 6770735F 		.ascii	"gps_status\000"
 4197      73746174 
 4197      757300
 4198              	.LASF65:
 4199 05d9 70696E73 		.ascii	"pins_configure_inactive\000"
 4199      5F636F6E 
 4199      66696775 
 4199      72655F69 
 4199      6E616374 
 4200              	.LASF37:
 4201 05f1 73696D5F 		.ascii	"sim_id\000"
 4201      696400
 4202              	.LASF55:
 4203 05f8 63686970 		.ascii	"chip_uniqueId\000"
 4203      5F756E69 
 4203      71756549 
 4203      6400
 4204              	.LASF27:
 4205 0606 746D5F6D 		.ascii	"tm_mday\000"
 4205      64617900 
 4206              	.LASF49:
 4207 060e 76616C69 		.ascii	"valid\000"
 4207      6400
 4208              	.LASF105:
 4209 0614 6D696E75 		.ascii	"minute\000"
 4209      746500
 4210              	.LASF14:
 4211 061b 75696E74 		.ascii	"uint32_t\000"
 4211      33325F74 
ARM GAS  C:\Users\HYFI_A~1\AppData\Local\Temp\ccBuuRJ5.s 			page 93


 4211      00
 4212              	.LASF24:
 4213 0624 746D5F73 		.ascii	"tm_sec\000"
 4213      656300
 4214              	.LASF34:
 4215 062b 73746174 		.ascii	"status\000"
 4215      757300
 4216              	.LASF63:
 4217 0632 7379735F 		.ascii	"sys_settings_t\000"
 4217      73657474 
 4217      696E6773 
 4217      5F7400
 4218              	.LASF12:
 4219 0641 75696E74 		.ascii	"uint8_t\000"
 4219      385F7400 
 4220              	.LASF62:
 4221 0649 65705F64 		.ascii	"ep_database\000"
 4221      61746162 
 4221      61736500 
 4222              	.LASF68:
 4223 0655 61745F72 		.ascii	"at_ready\000"
 4223      65616479 
 4223      00
 4224              	.LASF94:
 4225 065e 61747465 		.ascii	"attempts\000"
 4225      6D707473 
 4225      00
 4226              	.LASF73:
 4227 0667 65787065 		.ascii	"expected_response\000"
 4227      63746564 
 4227      5F726573 
 4227      706F6E73 
 4227      6500
 4228              	.LASF41:
 4229 0679 72737369 		.ascii	"rssi\000"
 4229      00
 4230              	.LASF112:
 4231 067e 6C6F636B 		.ascii	"lock_time\000"
 4231      5F74696D 
 4231      6500
 4232              	.LASF120:
 4233 0688 68747470 		.ascii	"http_request\000"
 4233      5F726571 
 4233      75657374 
 4233      00
 4234              	.LASF67:
 4235 0695 6D6F6465 		.ascii	"modem_power_down\000"
 4235      6D5F706F 
 4235      7765725F 
 4235      646F776E 
 4235      00
 4236              	.LASF52:
 4237 06a6 74696D65 		.ascii	"timeStamp\000"
 4237      5374616D 
 4237      7000
 4238              		.ident	"GCC: (GNU Tools for ARM Embedded Processors) 5.4.1 20160609 (release) [ARM/embedded-5-bran
