ARM GAS  C:\Users\HYFI_A~1\AppData\Local\Temp\ccHqIvXz.s 			page 1


   1              		.syntax unified
   2              		.cpu cortex-m3
   3              		.fpu softvfp
   4              		.eabi_attribute 20, 1
   5              		.eabi_attribute 21, 1
   6              		.eabi_attribute 23, 3
   7              		.eabi_attribute 24, 1
   8              		.eabi_attribute 25, 1
   9              		.eabi_attribute 26, 1
  10              		.eabi_attribute 30, 6
  11              		.eabi_attribute 34, 1
  12              		.eabi_attribute 18, 4
  13              		.thumb
  14              		.syntax unified
  15              		.file	"modem.c"
  16              		.text
  17              	.Ltext0:
  18              		.cfi_sections	.debug_frame
  19              		.comm	modem_state,1,1
  20              		.comm	modem_start_time_stamp,4,4
  21              		.comm	modem_info,60,4
  22              		.comm	modem_stats,12,4
  23              		.syntax unified
  24              		.global _printf_float
  25              		.thumb
  26              		.syntax unified
  27              		.comm	dataPointsInStack,2,2
  28              		.comm	data,4400,4
  29              		.comm	http_request,1000,4
  30              		.comm	http_body,7000,4
  31              		.comm	http_route,200,4
  32              		.comm	system_info,28,4
  33              		.comm	system_settings,324,4
  34              		.comm	uart_received_string,1024,4
  35              		.global	uart_string_index
  36              		.bss
  37              		.type	uart_string_index, %object
  38              		.size	uart_string_index, 1
  39              	uart_string_index:
  40 0000 00       		.space	1
  41              		.section	.text.isr_telit_rx,"ax",%progbits
  42              		.align	2
  43              		.global	isr_telit_rx
  44              		.thumb
  45              		.thumb_func
  46              		.type	isr_telit_rx, %function
  47              	isr_telit_rx:
  48              	.LFB64:
  49              		.file 1 "modem.c"
   1:modem.c       **** //Methods for Telit modem 
   2:modem.c       **** #include "modem.h"
   3:modem.c       **** #include "notoriOS.h"
   4:modem.c       **** #include "debug.h"
   5:modem.c       **** 
   6:modem.c       **** char uart_received_string[1024];
   7:modem.c       **** uint8_t uart_string_index=0;
   8:modem.c       **** 
ARM GAS  C:\Users\HYFI_A~1\AppData\Local\Temp\ccHqIvXz.s 			page 2


   9:modem.c       **** #define DEFAULT_AT_TIMEOUT 2000u
  10:modem.c       **** #define NO_AT_TIMEOUT 0u
  11:modem.c       **** 
  12:modem.c       **** #define TIMEOUT_NETWORK_CONNECT 200 //seconds
  13:modem.c       **** #define TIMEOUT_IP_ACQUIRE 230 //seconds (cummulatinve) add to TIMEOUT_NETWORK_CONNECT
  14:modem.c       **** 
  15:modem.c       **** CY_ISR_PROTO(isr_telit_rx);
  16:modem.c       **** 
  17:modem.c       **** CY_ISR(isr_telit_rx){      
  50              		.loc 1 17 0
  51              		.cfi_startproc
  52              		@ args = 0, pretend = 0, frame = 0
  53              		@ frame_needed = 1, uses_anonymous_args = 0
  54 0000 98B5     		push	{r3, r4, r7, lr}
  55              		.cfi_def_cfa_offset 16
  56              		.cfi_offset 3, -16
  57              		.cfi_offset 4, -12
  58              		.cfi_offset 7, -8
  59              		.cfi_offset 14, -4
  60 0002 00AF     		add	r7, sp, #0
  61              		.cfi_def_cfa_register 7
  18:modem.c       ****     while(UART_Telit_GetRxBufferSize()==1){
  62              		.loc 1 18 0
  63 0004 0EE0     		b	.L2
  64              	.L3:
  19:modem.c       ****         uart_received_string[uart_string_index]=UART_Telit_GetChar();
  65              		.loc 1 19 0
  66 0006 0B4B     		ldr	r3, .L4
  67 0008 1B78     		ldrb	r3, [r3]	@ zero_extendqisi2
  68 000a 1C46     		mov	r4, r3
  69 000c FFF7FEFF 		bl	UART_Telit_GetChar
  70 0010 0346     		mov	r3, r0
  71 0012 1A46     		mov	r2, r3
  72 0014 084B     		ldr	r3, .L4+4
  73 0016 1A55     		strb	r2, [r3, r4]
  20:modem.c       ****         uart_string_index++;
  74              		.loc 1 20 0
  75 0018 064B     		ldr	r3, .L4
  76 001a 1B78     		ldrb	r3, [r3]	@ zero_extendqisi2
  77 001c 0133     		adds	r3, r3, #1
  78 001e DAB2     		uxtb	r2, r3
  79 0020 044B     		ldr	r3, .L4
  80 0022 1A70     		strb	r2, [r3]
  81              	.L2:
  18:modem.c       ****     while(UART_Telit_GetRxBufferSize()==1){
  82              		.loc 1 18 0
  83 0024 FFF7FEFF 		bl	UART_Telit_GetRxBufferSize
  84 0028 0346     		mov	r3, r0
  85 002a 012B     		cmp	r3, #1
  86 002c EBD0     		beq	.L3
  21:modem.c       ****     }
  22:modem.c       **** 
  23:modem.c       **** }
  87              		.loc 1 23 0
  88 002e 00BF     		nop
  89 0030 98BD     		pop	{r3, r4, r7, pc}
  90              	.L5:
ARM GAS  C:\Users\HYFI_A~1\AppData\Local\Temp\ccHqIvXz.s 			page 3


  91 0032 00BF     		.align	2
  92              	.L4:
  93 0034 00000000 		.word	uart_string_index
  94 0038 00000000 		.word	uart_received_string
  95              		.cfi_endproc
  96              	.LFE64:
  97              		.size	isr_telit_rx, .-isr_telit_rx
  98              		.section	.text.modem_intilize,"ax",%progbits
  99              		.align	2
 100              		.global	modem_intilize
 101              		.thumb
 102              		.thumb_func
 103              		.type	modem_intilize, %function
 104              	modem_intilize:
 105              	.LFB65:
  24:modem.c       **** 
  25:modem.c       **** 
  26:modem.c       **** void modem_intilize(){
 106              		.loc 1 26 0
 107              		.cfi_startproc
 108              		@ args = 0, pretend = 0, frame = 0
 109              		@ frame_needed = 1, uses_anonymous_args = 0
 110 0000 80B5     		push	{r7, lr}
 111              		.cfi_def_cfa_offset 8
 112              		.cfi_offset 7, -8
 113              		.cfi_offset 14, -4
 114 0002 00AF     		add	r7, sp, #0
 115              		.cfi_def_cfa_register 7
  27:modem.c       ****     //don't do much except make sure that all the modem pins are pulled low
  28:modem.c       ****     //also make sure that the TX PIN is fully disabled
  29:modem.c       ****     pins_configure_inactive();
 116              		.loc 1 29 0
 117 0004 FFF7FEFF 		bl	pins_configure_inactive
  30:modem.c       ****     modem_state = 0;
 118              		.loc 1 30 0
 119 0008 0F4B     		ldr	r3, .L7
 120 000a 0022     		movs	r2, #0
 121 000c 1A70     		strb	r2, [r3]
  31:modem.c       ****     //initilize states
  32:modem.c       ****     modem_info.imei[0] = '\0';
 122              		.loc 1 32 0
 123 000e 0F4B     		ldr	r3, .L7+4
 124 0010 0022     		movs	r2, #0
 125 0012 83F82820 		strb	r2, [r3, #40]
  33:modem.c       ****     modem_info.model_id[0] = '\0';
 126              		.loc 1 33 0
 127 0016 0D4B     		ldr	r3, .L7+4
 128 0018 0022     		movs	r2, #0
 129 001a 1A75     		strb	r2, [r3, #20]
  34:modem.c       ****     modem_info.sim_id[0] = '\0';
 130              		.loc 1 34 0
 131 001c 0B4B     		ldr	r3, .L7+4
 132 001e 0022     		movs	r2, #0
 133 0020 1A70     		strb	r2, [r3]
  35:modem.c       ****     modem_stats.sq = 0;
 134              		.loc 1 35 0
 135 0022 0B4B     		ldr	r3, .L7+8
ARM GAS  C:\Users\HYFI_A~1\AppData\Local\Temp\ccHqIvXz.s 			page 4


 136 0024 0022     		movs	r2, #0
 137 0026 5A70     		strb	r2, [r3, #1]
  36:modem.c       ****     modem_stats.rssi = 0;
 138              		.loc 1 36 0
 139 0028 094B     		ldr	r3, .L7+8
 140 002a 0022     		movs	r2, #0
 141 002c 1A70     		strb	r2, [r3]
  37:modem.c       ****     modem_stats.time_to_acquire_ip = 0;
 142              		.loc 1 37 0
 143 002e 084B     		ldr	r3, .L7+8
 144 0030 0022     		movs	r2, #0
 145 0032 9A60     		str	r2, [r3, #8]
  38:modem.c       ****     modem_stats.time_to_network_connect = 0;
 146              		.loc 1 38 0
 147 0034 064B     		ldr	r3, .L7+8
 148 0036 0022     		movs	r2, #0
 149 0038 5A60     		str	r2, [r3, #4]
  39:modem.c       ****     //disable the RX Pin interrupt, and only enable it during long timeouts
  40:modem.c       ****     Rx_Telit_SetInterruptMode(Rx_Telit_0_INTR,Rx_Telit_INTR_NONE);
 150              		.loc 1 40 0
 151 003a 0021     		movs	r1, #0
 152 003c 4020     		movs	r0, #64
 153 003e FFF7FEFF 		bl	Rx_Telit_SetInterruptMode
  41:modem.c       ****     
  42:modem.c       **** }
 154              		.loc 1 42 0
 155 0042 00BF     		nop
 156 0044 80BD     		pop	{r7, pc}
 157              	.L8:
 158 0046 00BF     		.align	2
 159              	.L7:
 160 0048 00000000 		.word	modem_state
 161 004c 00000000 		.word	modem_info
 162 0050 00000000 		.word	modem_stats
 163              		.cfi_endproc
 164              	.LFE65:
 165              		.size	modem_intilize, .-modem_intilize
 166              		.section	.text.pins_configure_inactive,"ax",%progbits
 167              		.align	2
 168              		.global	pins_configure_inactive
 169              		.thumb
 170              		.thumb_func
 171              		.type	pins_configure_inactive, %function
 172              	pins_configure_inactive:
 173              	.LFB66:
  43:modem.c       **** 
  44:modem.c       **** 
  45:modem.c       **** //to be used when the modem power is to be "killed" conpletely to conserve power
  46:modem.c       **** void pins_configure_inactive(){
 174              		.loc 1 46 0
 175              		.cfi_startproc
 176              		@ args = 0, pretend = 0, frame = 0
 177              		@ frame_needed = 1, uses_anonymous_args = 0
 178 0000 80B5     		push	{r7, lr}
 179              		.cfi_def_cfa_offset 8
 180              		.cfi_offset 7, -8
 181              		.cfi_offset 14, -4
ARM GAS  C:\Users\HYFI_A~1\AppData\Local\Temp\ccHqIvXz.s 			page 5


 182 0002 00AF     		add	r7, sp, #0
 183              		.cfi_def_cfa_register 7
  47:modem.c       ****    
  48:modem.c       ****     //physically disconect UART pin
  49:modem.c       ****    Telit_ControlReg_Write(0u);
 184              		.loc 1 49 0
 185 0004 0020     		movs	r0, #0
 186 0006 FFF7FEFF 		bl	Telit_ControlReg_Write
  50:modem.c       ****    //set drive mode
  51:modem.c       ****    Rx_Telit_SetDriveMode(PIN_DM_STRONG);
 187              		.loc 1 51 0
 188 000a 0C20     		movs	r0, #12
 189 000c FFF7FEFF 		bl	Rx_Telit_SetDriveMode
  52:modem.c       **** 
  53:modem.c       ****    //kill power to modem
  54:modem.c       ****    Pin_Telit_pwr_Write(OFF);
 190              		.loc 1 54 0
 191 0010 0020     		movs	r0, #0
 192 0012 FFF7FEFF 		bl	Pin_Telit_pwr_Write
  55:modem.c       **** 
  56:modem.c       ****    //pull down all of these, just in case
  57:modem.c       ****    Rx_Telit_Write(OFF); 
 193              		.loc 1 57 0
 194 0016 0020     		movs	r0, #0
 195 0018 FFF7FEFF 		bl	Rx_Telit_Write
  58:modem.c       ****    Tx_Telit_Write(OFF);
 196              		.loc 1 58 0
 197 001c 0020     		movs	r0, #0
 198 001e FFF7FEFF 		bl	Tx_Telit_Write
  59:modem.c       ****    Pin_Telit_ONOFF_Write(OFF);
 199              		.loc 1 59 0
 200 0022 0020     		movs	r0, #0
 201 0024 FFF7FEFF 		bl	Pin_Telit_ONOFF_Write
  60:modem.c       ****    Pin_Telit_SWRDY_Write(OFF);
 202              		.loc 1 60 0
 203 0028 0020     		movs	r0, #0
 204 002a FFF7FEFF 		bl	Pin_Telit_SWRDY_Write
  61:modem.c       ****     
  62:modem.c       **** }
 205              		.loc 1 62 0
 206 002e 00BF     		nop
 207 0030 80BD     		pop	{r7, pc}
 208              		.cfi_endproc
 209              	.LFE66:
 210              		.size	pins_configure_inactive, .-pins_configure_inactive
 211 0032 00BF     		.section	.text.pins_configure_active,"ax",%progbits
 212              		.align	2
 213              		.global	pins_configure_active
 214              		.thumb
 215              		.thumb_func
 216              		.type	pins_configure_active, %function
 217              	pins_configure_active:
 218              	.LFB67:
  63:modem.c       **** 
  64:modem.c       **** void pins_configure_active(){
 219              		.loc 1 64 0
 220              		.cfi_startproc
ARM GAS  C:\Users\HYFI_A~1\AppData\Local\Temp\ccHqIvXz.s 			page 6


 221              		@ args = 0, pretend = 0, frame = 0
 222              		@ frame_needed = 1, uses_anonymous_args = 0
 223 0000 80B5     		push	{r7, lr}
 224              		.cfi_def_cfa_offset 8
 225              		.cfi_offset 7, -8
 226              		.cfi_offset 14, -4
 227 0002 00AF     		add	r7, sp, #0
 228              		.cfi_def_cfa_register 7
  65:modem.c       ****     //powerup
  66:modem.c       ****     Rx_Telit_SetDriveMode(PIN_DM_DIG_HIZ);
 229              		.loc 1 66 0
 230 0004 0220     		movs	r0, #2
 231 0006 FFF7FEFF 		bl	Rx_Telit_SetDriveMode
  67:modem.c       ****     Telit_ControlReg_Write(1u);
 232              		.loc 1 67 0
 233 000a 0120     		movs	r0, #1
 234 000c FFF7FEFF 		bl	Telit_ControlReg_Write
  68:modem.c       ****     Pin_Telit_pwr_Write(ON);
 235              		.loc 1 68 0
 236 0010 0120     		movs	r0, #1
 237 0012 FFF7FEFF 		bl	Pin_Telit_pwr_Write
  69:modem.c       ****     CyDelay(100u);//give the MOSFET a few ms to stalbilise power 
 238              		.loc 1 69 0
 239 0016 6420     		movs	r0, #100
 240 0018 FFF7FEFF 		bl	CyDelay
  70:modem.c       **** }
 241              		.loc 1 70 0
 242 001c 00BF     		nop
 243 001e 80BD     		pop	{r7, pc}
 244              		.cfi_endproc
 245              	.LFE67:
 246              		.size	pins_configure_active, .-pins_configure_active
 247              		.section	.rodata
 248              		.align	2
 249              	.LC0:
 250 0000 4F4B00   		.ascii	"OK\000"
 251 0003 00       		.align	2
 252              	.LC1:
 253 0004 41542353 		.ascii	"AT#SHDN\015\000"
 253      48444E0D 
 253      00
 254              		.section	.text.modem_power_down,"ax",%progbits
 255              		.align	2
 256              		.global	modem_power_down
 257              		.thumb
 258              		.thumb_func
 259              		.type	modem_power_down, %function
 260              	modem_power_down:
 261              	.LFB68:
  71:modem.c       **** 
  72:modem.c       **** void modem_power_down(){
 262              		.loc 1 72 0
 263              		.cfi_startproc
 264              		@ args = 0, pretend = 0, frame = 0
 265              		@ frame_needed = 1, uses_anonymous_args = 0
 266 0000 80B5     		push	{r7, lr}
 267              		.cfi_def_cfa_offset 8
ARM GAS  C:\Users\HYFI_A~1\AppData\Local\Temp\ccHqIvXz.s 			page 7


 268              		.cfi_offset 7, -8
 269              		.cfi_offset 14, -4
 270 0002 00AF     		add	r7, sp, #0
 271              		.cfi_def_cfa_register 7
  73:modem.c       ****     
  74:modem.c       ****    at_write_command("AT#SHDN\r","OK",5000u); 
 272              		.loc 1 74 0
 273 0004 41F28832 		movw	r2, #5000
 274 0008 0A49     		ldr	r1, .L12
 275 000a 0B48     		ldr	r0, .L12+4
 276 000c FFF7FEFF 		bl	at_write_command
  75:modem.c       ****     
  76:modem.c       ****    modem_soft_power_cycle();
 277              		.loc 1 76 0
 278 0010 FFF7FEFF 		bl	modem_soft_power_cycle
  77:modem.c       ****    CyDelay(1000u);
 279              		.loc 1 77 0
 280 0014 4FF47A70 		mov	r0, #1000
 281 0018 FFF7FEFF 		bl	CyDelay
  78:modem.c       ****     
  79:modem.c       ****    UART_Telit_Stop();
 282              		.loc 1 79 0
 283 001c FFF7FEFF 		bl	UART_Telit_Stop
  80:modem.c       ****    isr_telit_rx_Stop();
 284              		.loc 1 80 0
 285 0020 FFF7FEFF 		bl	isr_telit_rx_Stop
  81:modem.c       ****    pins_configure_inactive();
 286              		.loc 1 81 0
 287 0024 FFF7FEFF 		bl	pins_configure_inactive
  82:modem.c       ****    modem_state = MODEM_STATE_OFF;
 288              		.loc 1 82 0
 289 0028 044B     		ldr	r3, .L12+8
 290 002a 0022     		movs	r2, #0
 291 002c 1A70     		strb	r2, [r3]
  83:modem.c       ****     
  84:modem.c       **** }
 292              		.loc 1 84 0
 293 002e 00BF     		nop
 294 0030 80BD     		pop	{r7, pc}
 295              	.L13:
 296 0032 00BF     		.align	2
 297              	.L12:
 298 0034 00000000 		.word	.LC0
 299 0038 04000000 		.word	.LC1
 300 003c 00000000 		.word	modem_state
 301              		.cfi_endproc
 302              	.LFE68:
 303              		.size	modem_power_down, .-modem_power_down
 304              		.section	.rodata
 305 000d 000000   		.align	2
 306              	.LC2:
 307 0010 41544530 		.ascii	"ATE0\015\000"
 307      0D00
 308 0016 0000     		.align	2
 309              	.LC3:
 310 0018 4D6F6465 		.ascii	"Modem booot time: %d\000"
 310      6D20626F 
ARM GAS  C:\Users\HYFI_A~1\AppData\Local\Temp\ccHqIvXz.s 			page 8


 310      6F6F7420 
 310      74696D65 
 310      3A202564 
 311 002d 000000   		.align	2
 312              	.LC4:
 313 0030 4D6F6465 		.ascii	"Modem ready for AT commands after %d attempt(s).\000"
 313      6D207265 
 313      61647920 
 313      666F7220 
 313      41542063 
 314 0061 000000   		.align	2
 315              	.LC5:
 316 0064 4E6F2072 		.ascii	"No response from modem.\000"
 316      6573706F 
 316      6E736520 
 316      66726F6D 
 316      206D6F64 
 317              		.section	.text.modem_power_up,"ax",%progbits
 318              		.align	2
 319              		.global	modem_power_up
 320              		.thumb
 321              		.thumb_func
 322              		.type	modem_power_up, %function
 323              	modem_power_up:
 324              	.LFB69:
  85:modem.c       **** 
  86:modem.c       **** //this puts all the modem pints into a state that won't leak power
  87:modem.c       **** //pleasde call restore_pins() to bring them abck to function when they are needed for UART
  88:modem.c       **** uint8 modem_power_up(){
 325              		.loc 1 88 0
 326              		.cfi_startproc
 327              		@ args = 0, pretend = 0, frame = 8
 328              		@ frame_needed = 1, uses_anonymous_args = 0
 329 0000 80B5     		push	{r7, lr}
 330              		.cfi_def_cfa_offset 8
 331              		.cfi_offset 7, -8
 332              		.cfi_offset 14, -4
 333 0002 82B0     		sub	sp, sp, #8
 334              		.cfi_def_cfa_offset 16
 335 0004 00AF     		add	r7, sp, #0
 336              		.cfi_def_cfa_register 7
  89:modem.c       **** 
  90:modem.c       ****     pins_configure_active();//turns on power and configures all UART pin modes
 337              		.loc 1 90 0
 338 0006 FFF7FEFF 		bl	pins_configure_active
  91:modem.c       ****     UART_Telit_Start();
 339              		.loc 1 91 0
 340 000a FFF7FEFF 		bl	UART_Telit_Start
  92:modem.c       ****     isr_telit_rx_StartEx(isr_telit_rx);
 341              		.loc 1 92 0
 342 000e 2C48     		ldr	r0, .L27
 343 0010 FFF7FEFF 		bl	isr_telit_rx_StartEx
  93:modem.c       **** 
  94:modem.c       ****     modem_soft_power_cycle();
 344              		.loc 1 94 0
 345 0014 FFF7FEFF 		bl	modem_soft_power_cycle
  95:modem.c       ****     
ARM GAS  C:\Users\HYFI_A~1\AppData\Local\Temp\ccHqIvXz.s 			page 9


  96:modem.c       ****     //turn off ECHO command
  97:modem.c       ****     uint8 at_ready = 0;
 346              		.loc 1 97 0
 347 0018 0023     		movs	r3, #0
 348 001a FB71     		strb	r3, [r7, #7]
  98:modem.c       ****     uint8 attemps = 0;
 349              		.loc 1 98 0
 350 001c 0023     		movs	r3, #0
 351 001e 3B71     		strb	r3, [r7, #4]
  99:modem.c       ****     long boot_time = getTimeStamp();
 352              		.loc 1 99 0
 353 0020 FFF7FEFF 		bl	getTimeStamp
 354 0024 3860     		str	r0, [r7]
 355              	.LBB2:
 100:modem.c       ****     
 101:modem.c       ****     //it takes the 4G modem 10+secs (max 20) to boot up, so keep hitting it with AT commands until 
 102:modem.c       ****     for(uint8 attempts = 0; attempts<3; attempts++){
 356              		.loc 1 102 0
 357 0026 0023     		movs	r3, #0
 358 0028 BB71     		strb	r3, [r7, #6]
 359 002a 1CE0     		b	.L15
 360              	.L22:
 361              	.LBB3:
 103:modem.c       ****         
 104:modem.c       ****         for(uint8 pwr_check = 0; pwr_check<20; pwr_check++){
 362              		.loc 1 104 0
 363 002c 0023     		movs	r3, #0
 364 002e 7B71     		strb	r3, [r7, #5]
 365 0030 0EE0     		b	.L16
 366              	.L19:
 105:modem.c       ****             if(at_write_command("ATE0\r","OK",1000u)){
 367              		.loc 1 105 0
 368 0032 4FF47A72 		mov	r2, #1000
 369 0036 2349     		ldr	r1, .L27+4
 370 0038 2348     		ldr	r0, .L27+8
 371 003a FFF7FEFF 		bl	at_write_command
 372 003e 0346     		mov	r3, r0
 373 0040 002B     		cmp	r3, #0
 374 0042 02D0     		beq	.L17
 106:modem.c       ****                 at_ready = 1;
 375              		.loc 1 106 0
 376 0044 0123     		movs	r3, #1
 377 0046 FB71     		strb	r3, [r7, #7]
 107:modem.c       ****                 break;
 378              		.loc 1 107 0
 379 0048 05E0     		b	.L18
 380              	.L17:
 104:modem.c       ****             if(at_write_command("ATE0\r","OK",1000u)){
 381              		.loc 1 104 0 discriminator 2
 382 004a 7B79     		ldrb	r3, [r7, #5]	@ zero_extendqisi2
 383 004c 0133     		adds	r3, r3, #1
 384 004e 7B71     		strb	r3, [r7, #5]
 385              	.L16:
 104:modem.c       ****             if(at_write_command("ATE0\r","OK",1000u)){
 386              		.loc 1 104 0 is_stmt 0 discriminator 1
 387 0050 7B79     		ldrb	r3, [r7, #5]	@ zero_extendqisi2
 388 0052 132B     		cmp	r3, #19
ARM GAS  C:\Users\HYFI_A~1\AppData\Local\Temp\ccHqIvXz.s 			page 10


 389 0054 EDD9     		bls	.L19
 390              	.L18:
 391              	.LBE3:
 108:modem.c       ****             }
 109:modem.c       ****         }
 110:modem.c       ****             
 111:modem.c       ****         if(at_ready == 1){
 392              		.loc 1 111 0 is_stmt 1
 393 0056 FB79     		ldrb	r3, [r7, #7]	@ zero_extendqisi2
 394 0058 012B     		cmp	r3, #1
 395 005a 08D0     		beq	.L26
 112:modem.c       ****             break;
 113:modem.c       ****         }else{
 114:modem.c       ****             modem_soft_power_cycle();
 396              		.loc 1 114 0 discriminator 2
 397 005c FFF7FEFF 		bl	modem_soft_power_cycle
 102:modem.c       ****         
 398              		.loc 1 102 0 discriminator 2
 399 0060 BB79     		ldrb	r3, [r7, #6]	@ zero_extendqisi2
 400 0062 0133     		adds	r3, r3, #1
 401 0064 BB71     		strb	r3, [r7, #6]
 402              	.L15:
 102:modem.c       ****         
 403              		.loc 1 102 0 is_stmt 0 discriminator 1
 404 0066 BB79     		ldrb	r3, [r7, #6]	@ zero_extendqisi2
 405 0068 022B     		cmp	r3, #2
 406 006a DFD9     		bls	.L22
 407 006c 00E0     		b	.L21
 408              	.L26:
 112:modem.c       ****             break;
 409              		.loc 1 112 0 is_stmt 1
 410 006e 00BF     		nop
 411              	.L21:
 412              	.LBE2:
 115:modem.c       ****         }
 116:modem.c       ****     }
 117:modem.c       ****     
 118:modem.c       ****     boot_time = getTimeStamp() - boot_time;
 413              		.loc 1 118 0
 414 0070 FFF7FEFF 		bl	getTimeStamp
 415 0074 0246     		mov	r2, r0
 416 0076 3B68     		ldr	r3, [r7]
 417 0078 D31A     		subs	r3, r2, r3
 418 007a 3B60     		str	r3, [r7]
 119:modem.c       ****     printNotif(NOTIF_TYPE_EVENT,"Modem booot time: %d",boot_time);
 419              		.loc 1 119 0
 420 007c 3A68     		ldr	r2, [r7]
 421 007e 1349     		ldr	r1, .L27+12
 422 0080 0020     		movs	r0, #0
 423 0082 FFF7FEFF 		bl	printNotif
 120:modem.c       ****     
 121:modem.c       ****     if(at_ready == 1){
 424              		.loc 1 121 0
 425 0086 FB79     		ldrb	r3, [r7, #7]	@ zero_extendqisi2
 426 0088 012B     		cmp	r3, #1
 427 008a 0AD1     		bne	.L23
 122:modem.c       ****         printNotif(NOTIF_TYPE_EVENT,"Modem ready for AT commands after %d attempt(s).",attemps);
ARM GAS  C:\Users\HYFI_A~1\AppData\Local\Temp\ccHqIvXz.s 			page 11


 428              		.loc 1 122 0
 429 008c 3B79     		ldrb	r3, [r7, #4]	@ zero_extendqisi2
 430 008e 1A46     		mov	r2, r3
 431 0090 0F49     		ldr	r1, .L27+16
 432 0092 0020     		movs	r0, #0
 433 0094 FFF7FEFF 		bl	printNotif
 123:modem.c       ****         modem_state = MODEM_STATE_STARTUP;
 434              		.loc 1 123 0
 435 0098 0E4B     		ldr	r3, .L27+20
 436 009a 0122     		movs	r2, #1
 437 009c 1A70     		strb	r2, [r3]
 124:modem.c       ****     }else{
 125:modem.c       ****         printNotif(NOTIF_TYPE_ERROR,"No response from modem.");
 126:modem.c       ****         modem_state = MODEM_STATE_OFF;
 127:modem.c       ****         modem_power_down();
 128:modem.c       ****         return 0u;
 129:modem.c       ****     }
 130:modem.c       ****     return 1u;
 438              		.loc 1 130 0
 439 009e 0123     		movs	r3, #1
 440 00a0 09E0     		b	.L25
 441              	.L23:
 125:modem.c       ****         modem_state = MODEM_STATE_OFF;
 442              		.loc 1 125 0
 443 00a2 0D49     		ldr	r1, .L27+24
 444 00a4 0220     		movs	r0, #2
 445 00a6 FFF7FEFF 		bl	printNotif
 126:modem.c       ****         modem_power_down();
 446              		.loc 1 126 0
 447 00aa 0A4B     		ldr	r3, .L27+20
 448 00ac 0022     		movs	r2, #0
 449 00ae 1A70     		strb	r2, [r3]
 127:modem.c       ****         return 0u;
 450              		.loc 1 127 0
 451 00b0 FFF7FEFF 		bl	modem_power_down
 128:modem.c       ****     }
 452              		.loc 1 128 0
 453 00b4 0023     		movs	r3, #0
 454              	.L25:
 131:modem.c       **** }
 455              		.loc 1 131 0
 456 00b6 1846     		mov	r0, r3
 457 00b8 0837     		adds	r7, r7, #8
 458              		.cfi_def_cfa_offset 8
 459 00ba BD46     		mov	sp, r7
 460              		.cfi_def_cfa_register 13
 461              		@ sp needed
 462 00bc 80BD     		pop	{r7, pc}
 463              	.L28:
 464 00be 00BF     		.align	2
 465              	.L27:
 466 00c0 00000000 		.word	isr_telit_rx
 467 00c4 00000000 		.word	.LC0
 468 00c8 10000000 		.word	.LC2
 469 00cc 18000000 		.word	.LC3
 470 00d0 30000000 		.word	.LC4
 471 00d4 00000000 		.word	modem_state
ARM GAS  C:\Users\HYFI_A~1\AppData\Local\Temp\ccHqIvXz.s 			page 12


 472 00d8 64000000 		.word	.LC5
 473              		.cfi_endproc
 474              	.LFE69:
 475              		.size	modem_power_up, .-modem_power_up
 476              		.section	.text.modem_soft_power_cycle,"ax",%progbits
 477              		.align	2
 478              		.global	modem_soft_power_cycle
 479              		.thumb
 480              		.thumb_func
 481              		.type	modem_soft_power_cycle, %function
 482              	modem_soft_power_cycle:
 483              	.LFB70:
 132:modem.c       **** 
 133:modem.c       **** void modem_soft_power_cycle(){
 484              		.loc 1 133 0
 485              		.cfi_startproc
 486              		@ args = 0, pretend = 0, frame = 0
 487              		@ frame_needed = 1, uses_anonymous_args = 0
 488 0000 80B5     		push	{r7, lr}
 489              		.cfi_def_cfa_offset 8
 490              		.cfi_offset 7, -8
 491              		.cfi_offset 14, -4
 492 0002 00AF     		add	r7, sp, #0
 493              		.cfi_def_cfa_register 7
 134:modem.c       ****     Pin_Telit_ONOFF_Write(1u);
 494              		.loc 1 134 0
 495 0004 0120     		movs	r0, #1
 496 0006 FFF7FEFF 		bl	Pin_Telit_ONOFF_Write
 135:modem.c       ****     CyDelay(2000u);//give modem a sec to boot
 497              		.loc 1 135 0
 498 000a 4FF4FA60 		mov	r0, #2000
 499 000e FFF7FEFF 		bl	CyDelay
 136:modem.c       ****     Pin_Telit_ONOFF_Write(0u);
 500              		.loc 1 136 0
 501 0012 0020     		movs	r0, #0
 502 0014 FFF7FEFF 		bl	Pin_Telit_ONOFF_Write
 137:modem.c       ****     
 138:modem.c       **** }
 503              		.loc 1 138 0
 504 0018 00BF     		nop
 505 001a 80BD     		pop	{r7, pc}
 506              		.cfi_endproc
 507              	.LFE70:
 508              		.size	modem_soft_power_cycle, .-modem_soft_power_cycle
 509              		.section	.text.uart_string_reset,"ax",%progbits
 510              		.align	2
 511              		.global	uart_string_reset
 512              		.thumb
 513              		.thumb_func
 514              		.type	uart_string_reset, %function
 515              	uart_string_reset:
 516              	.LFB71:
 139:modem.c       **** 
 140:modem.c       **** 
 141:modem.c       **** void uart_string_reset(){
 517              		.loc 1 141 0
 518              		.cfi_startproc
ARM GAS  C:\Users\HYFI_A~1\AppData\Local\Temp\ccHqIvXz.s 			page 13


 519              		@ args = 0, pretend = 0, frame = 0
 520              		@ frame_needed = 1, uses_anonymous_args = 0
 521 0000 80B5     		push	{r7, lr}
 522              		.cfi_def_cfa_offset 8
 523              		.cfi_offset 7, -8
 524              		.cfi_offset 14, -4
 525 0002 00AF     		add	r7, sp, #0
 526              		.cfi_def_cfa_register 7
 142:modem.c       ****     uart_string_index=0;
 527              		.loc 1 142 0
 528 0004 064B     		ldr	r3, .L31
 529 0006 0022     		movs	r2, #0
 530 0008 1A70     		strb	r2, [r3]
 143:modem.c       ****     memset(uart_received_string,'\0',sizeof(uart_received_string));
 531              		.loc 1 143 0
 532 000a 4FF48062 		mov	r2, #1024
 533 000e 0021     		movs	r1, #0
 534 0010 0448     		ldr	r0, .L31+4
 535 0012 FFF7FEFF 		bl	memset
 144:modem.c       ****     UART_Telit_ClearRxBuffer();
 536              		.loc 1 144 0
 537 0016 FFF7FEFF 		bl	UART_Telit_ClearRxBuffer
 145:modem.c       **** }
 538              		.loc 1 145 0
 539 001a 00BF     		nop
 540 001c 80BD     		pop	{r7, pc}
 541              	.L32:
 542 001e 00BF     		.align	2
 543              	.L31:
 544 0020 00000000 		.word	uart_string_index
 545 0024 00000000 		.word	uart_received_string
 546              		.cfi_endproc
 547              	.LFE71:
 548              		.size	uart_string_reset, .-uart_string_reset
 549              		.section	.rodata
 550              		.align	2
 551              	.LC6:
 552 007c 4D6F6465 		.ascii	"Modem sent AT command without timeout: %s\015\012\000"
 552      6D207365 
 552      6E742041 
 552      5420636F 
 552      6D6D616E 
 553              		.align	2
 554              	.LC7:
 555 00a8 4D6F6465 		.ascii	"Modem Received expected AT Response on first Try:\012"
 555      6D205265 
 555      63656976 
 555      65642065 
 555      78706563 
 556 00da 436F6D6D 		.ascii	"Command: %s\012Received: %s\015\012\000"
 556      616E643A 
 556      2025730A 
 556      52656365 
 556      69766564 
 557 00f5 000000   		.align	2
 558              	.LC8:
 559 00f8 4D6F6465 		.ascii	"Modem required %d tries to receive AT Response: %s\015"
ARM GAS  C:\Users\HYFI_A~1\AppData\Local\Temp\ccHqIvXz.s 			page 14


 559      6D207265 
 559      71756972 
 559      65642025 
 559      64207472 
 560 012b 0A00     		.ascii	"\012\000"
 561 012d 000000   		.align	2
 562              	.LC9:
 563 0130 436F756C 		.ascii	"Could not write AT command: %s\012 Received: %s\012"
 563      64206E6F 
 563      74207772 
 563      69746520 
 563      41542063 
 564 015d 00       		.ascii	"\000"
 565              		.section	.text.at_write_command,"ax",%progbits
 566              		.align	2
 567              		.global	at_write_command
 568              		.thumb
 569              		.thumb_func
 570              		.type	at_write_command, %function
 571              	at_write_command:
 572              	.LFB72:
 146:modem.c       **** 
 147:modem.c       **** uint8_t at_write_command(char* commands, char* expected_response,uint32_t timeout){
 573              		.loc 1 147 0
 574              		.cfi_startproc
 575              		@ args = 0, pretend = 0, frame = 40
 576              		@ frame_needed = 1, uses_anonymous_args = 0
 577 0000 80B5     		push	{r7, lr}
 578              		.cfi_def_cfa_offset 8
 579              		.cfi_offset 7, -8
 580              		.cfi_offset 14, -4
 581 0002 8AB0     		sub	sp, sp, #40
 582              		.cfi_def_cfa_offset 48
 583 0004 00AF     		add	r7, sp, #0
 584              		.cfi_def_cfa_register 7
 585 0006 F860     		str	r0, [r7, #12]
 586 0008 B960     		str	r1, [r7, #8]
 587 000a 7A60     		str	r2, [r7, #4]
 148:modem.c       **** 
 149:modem.c       ****     uint32 at_attempt = 0;
 588              		.loc 1 149 0
 589 000c 0023     		movs	r3, #0
 590 000e 7B62     		str	r3, [r7, #36]
 150:modem.c       ****     
 151:modem.c       ****     for(at_attempt = 0; at_attempt < 3; at_attempt++) {
 591              		.loc 1 151 0
 592 0010 0023     		movs	r3, #0
 593 0012 7B62     		str	r3, [r7, #36]
 594 0014 46E0     		b	.L34
 595              	.L42:
 596              	.LBB4:
 152:modem.c       ****         
 153:modem.c       ****         char* compare_location;
 154:modem.c       ****         uint32_t delay=10;
 597              		.loc 1 154 0
 598 0016 0A23     		movs	r3, #10
 599 0018 FB61     		str	r3, [r7, #28]
ARM GAS  C:\Users\HYFI_A~1\AppData\Local\Temp\ccHqIvXz.s 			page 15


 155:modem.c       ****         uint32_t i, interval=timeout/delay;        
 600              		.loc 1 155 0
 601 001a 7A68     		ldr	r2, [r7, #4]
 602 001c FB69     		ldr	r3, [r7, #28]
 603 001e B2FBF3F3 		udiv	r3, r2, r3
 604 0022 BB61     		str	r3, [r7, #24]
 156:modem.c       ****         
 157:modem.c       ****         uart_string_reset();
 605              		.loc 1 157 0
 606 0024 FFF7FEFF 		bl	uart_string_reset
 158:modem.c       ****         
 159:modem.c       ****         UART_Telit_PutString(commands);
 607              		.loc 1 159 0
 608 0028 F868     		ldr	r0, [r7, #12]
 609 002a FFF7FEFF 		bl	UART_Telit_PutString
 160:modem.c       ****         
 161:modem.c       ****         
 162:modem.c       ****         //if no timeout, no need to wait for response
 163:modem.c       ****         if(timeout == NO_AT_TIMEOUT){
 610              		.loc 1 163 0
 611 002e 7B68     		ldr	r3, [r7, #4]
 612 0030 002B     		cmp	r3, #0
 613 0032 06D1     		bne	.L35
 164:modem.c       ****             printNotif(NOTIF_TYPE_EVENT,"Modem sent AT command without timeout: %s\r\n", commands);
 614              		.loc 1 164 0
 615 0034 FA68     		ldr	r2, [r7, #12]
 616 0036 1F49     		ldr	r1, .L43
 617 0038 0020     		movs	r0, #0
 618 003a FFF7FEFF 		bl	printNotif
 165:modem.c       ****             return 1u;
 619              		.loc 1 165 0
 620 003e 0123     		movs	r3, #1
 621 0040 34E0     		b	.L36
 622              	.L35:
 166:modem.c       ****         }
 167:modem.c       ****       
 168:modem.c       ****      
 169:modem.c       ****         for(i=0;i<interval;i++){ 
 623              		.loc 1 169 0
 624 0042 0023     		movs	r3, #0
 625 0044 3B62     		str	r3, [r7, #32]
 626 0046 20E0     		b	.L37
 627              	.L41:
 170:modem.c       ****             CyDelay((uint32) delay);
 628              		.loc 1 170 0
 629 0048 F869     		ldr	r0, [r7, #28]
 630 004a FFF7FEFF 		bl	CyDelay
 171:modem.c       ****             compare_location=strstr(uart_received_string,expected_response);        
 631              		.loc 1 171 0
 632 004e B968     		ldr	r1, [r7, #8]
 633 0050 1948     		ldr	r0, .L43+4
 634 0052 FFF7FEFF 		bl	strstr
 635 0056 7861     		str	r0, [r7, #20]
 172:modem.c       ****             if(compare_location!=NULL) {
 636              		.loc 1 172 0
 637 0058 7B69     		ldr	r3, [r7, #20]
 638 005a 002B     		cmp	r3, #0
ARM GAS  C:\Users\HYFI_A~1\AppData\Local\Temp\ccHqIvXz.s 			page 16


 639 005c 12D0     		beq	.L38
 173:modem.c       ****                 if (at_attempt == 0){
 640              		.loc 1 173 0
 641 005e 7B6A     		ldr	r3, [r7, #36]
 642 0060 002B     		cmp	r3, #0
 643 0062 06D1     		bne	.L39
 174:modem.c       ****                    printNotif(NOTIF_TYPE_EVENT,"Modem Received expected AT Response on first Try:\n
 644              		.loc 1 174 0
 645 0064 144B     		ldr	r3, .L43+4
 646 0066 FA68     		ldr	r2, [r7, #12]
 647 0068 1449     		ldr	r1, .L43+8
 648 006a 0020     		movs	r0, #0
 649 006c FFF7FEFF 		bl	printNotif
 650 0070 06E0     		b	.L40
 651              	.L39:
 175:modem.c       ****                 }else{
 176:modem.c       ****                    printNotif(NOTIF_TYPE_WARNING,"Modem required %d tries to receive AT Response: %
 652              		.loc 1 176 0
 653 0072 7B6A     		ldr	r3, [r7, #36]
 654 0074 5A1C     		adds	r2, r3, #1
 655 0076 104B     		ldr	r3, .L43+4
 656 0078 1149     		ldr	r1, .L43+12
 657 007a 0120     		movs	r0, #1
 658 007c FFF7FEFF 		bl	printNotif
 659              	.L40:
 177:modem.c       ****                  
 178:modem.c       ****                 }
 179:modem.c       ****                  return(1);
 660              		.loc 1 179 0
 661 0080 0123     		movs	r3, #1
 662 0082 13E0     		b	.L36
 663              	.L38:
 169:modem.c       ****             CyDelay((uint32) delay);
 664              		.loc 1 169 0 discriminator 2
 665 0084 3B6A     		ldr	r3, [r7, #32]
 666 0086 0133     		adds	r3, r3, #1
 667 0088 3B62     		str	r3, [r7, #32]
 668              	.L37:
 169:modem.c       ****             CyDelay((uint32) delay);
 669              		.loc 1 169 0 is_stmt 0 discriminator 1
 670 008a 3A6A     		ldr	r2, [r7, #32]
 671 008c BB69     		ldr	r3, [r7, #24]
 672 008e 9A42     		cmp	r2, r3
 673 0090 DAD3     		bcc	.L41
 180:modem.c       ****             }
 181:modem.c       ****             
 182:modem.c       ****         }  
 183:modem.c       ****         
 184:modem.c       ****         //somehitng went wrong, restart UARt
 185:modem.c       ****         printNotif(NOTIF_TYPE_ERROR,"Could not write AT command: %s\n Received: %s\n", commands,uar
 674              		.loc 1 185 0 is_stmt 1 discriminator 2
 675 0092 094B     		ldr	r3, .L43+4
 676 0094 FA68     		ldr	r2, [r7, #12]
 677 0096 0B49     		ldr	r1, .L43+16
 678 0098 0220     		movs	r0, #2
 679 009a FFF7FEFF 		bl	printNotif
 680              	.LBE4:
ARM GAS  C:\Users\HYFI_A~1\AppData\Local\Temp\ccHqIvXz.s 			page 17


 151:modem.c       ****         
 681              		.loc 1 151 0 discriminator 2
 682 009e 7B6A     		ldr	r3, [r7, #36]
 683 00a0 0133     		adds	r3, r3, #1
 684 00a2 7B62     		str	r3, [r7, #36]
 685              	.L34:
 151:modem.c       ****         
 686              		.loc 1 151 0 is_stmt 0 discriminator 1
 687 00a4 7B6A     		ldr	r3, [r7, #36]
 688 00a6 022B     		cmp	r3, #2
 689 00a8 B5D9     		bls	.L42
 186:modem.c       ****       
 187:modem.c       ****     }
 188:modem.c       ****    // printNotif(NOTIF_TYPE_ERROR,"Modem AT response timeout: %s\r\n", commands);
 189:modem.c       ****           
 190:modem.c       ****     return(0);    
 690              		.loc 1 190 0 is_stmt 1
 691 00aa 0023     		movs	r3, #0
 692              	.L36:
 191:modem.c       **** }
 693              		.loc 1 191 0
 694 00ac 1846     		mov	r0, r3
 695 00ae 2837     		adds	r7, r7, #40
 696              		.cfi_def_cfa_offset 8
 697 00b0 BD46     		mov	sp, r7
 698              		.cfi_def_cfa_register 13
 699              		@ sp needed
 700 00b2 80BD     		pop	{r7, pc}
 701              	.L44:
 702              		.align	2
 703              	.L43:
 704 00b4 7C000000 		.word	.LC6
 705 00b8 00000000 		.word	uart_received_string
 706 00bc A8000000 		.word	.LC7
 707 00c0 F8000000 		.word	.LC8
 708 00c4 30010000 		.word	.LC9
 709              		.cfi_endproc
 710              	.LFE72:
 711              		.size	at_write_command, .-at_write_command
 712              		.section	.text.modem_test,"ax",%progbits
 713              		.align	2
 714              		.global	modem_test
 715              		.thumb
 716              		.thumb_func
 717              		.type	modem_test, %function
 718              	modem_test:
 719              	.LFB73:
 192:modem.c       **** 
 193:modem.c       **** test_t modem_test(){
 720              		.loc 1 193 0
 721              		.cfi_startproc
 722              		@ args = 0, pretend = 0, frame = 400
 723              		@ frame_needed = 1, uses_anonymous_args = 0
 724 0000 80B5     		push	{r7, lr}
 725              		.cfi_def_cfa_offset 8
 726              		.cfi_offset 7, -8
 727              		.cfi_offset 14, -4
ARM GAS  C:\Users\HYFI_A~1\AppData\Local\Temp\ccHqIvXz.s 			page 18


 728 0002 E4B0     		sub	sp, sp, #400
 729              		.cfi_def_cfa_offset 408
 730 0004 00AF     		add	r7, sp, #0
 731              		.cfi_def_cfa_register 7
 732 0006 3B1D     		adds	r3, r7, #4
 733 0008 1860     		str	r0, [r3]
 194:modem.c       ****     
 195:modem.c       ****     test_t test;
 196:modem.c       ****     modem_power_up();
 734              		.loc 1 196 0
 735 000a FFF7FEFF 		bl	modem_power_up
 197:modem.c       ****     //tbd 
 198:modem.c       ****     modem_power_down();
 736              		.loc 1 198 0
 737 000e FFF7FEFF 		bl	modem_power_down
 199:modem.c       ****     
 200:modem.c       ****     
 201:modem.c       ****     return test;
 738              		.loc 1 201 0
 739 0012 3B1D     		adds	r3, r7, #4
 740 0014 1A68     		ldr	r2, [r3]
 741 0016 07F10C03 		add	r3, r7, #12
 742 001a 1046     		mov	r0, r2
 743 001c 1946     		mov	r1, r3
 744 001e 40F28113 		movw	r3, #385
 745 0022 1A46     		mov	r2, r3
 746 0024 FFF7FEFF 		bl	memcpy
 202:modem.c       **** }
 747              		.loc 1 202 0
 748 0028 3B1D     		adds	r3, r7, #4
 749 002a 1868     		ldr	r0, [r3]
 750 002c 07F5C877 		add	r7, r7, #400
 751              		.cfi_def_cfa_offset 8
 752 0030 BD46     		mov	sp, r7
 753              		.cfi_def_cfa_register 13
 754              		@ sp needed
 755 0032 80BD     		pop	{r7, pc}
 756              		.cfi_endproc
 757              	.LFE73:
 758              		.size	modem_test, .-modem_test
 759              		.section	.text.extract_string,"ax",%progbits
 760              		.align	2
 761              		.global	extract_string
 762              		.thumb
 763              		.thumb_func
 764              		.type	extract_string, %function
 765              	extract_string:
 766              	.LFB74:
 203:modem.c       **** 
 204:modem.c       **** 
 205:modem.c       **** uint8 extract_string(char* from, const char* beginMarker, const char* endMarker,  char* target){
 767              		.loc 1 205 0
 768              		.cfi_startproc
 769              		@ args = 0, pretend = 0, frame = 24
 770              		@ frame_needed = 1, uses_anonymous_args = 0
 771 0000 80B5     		push	{r7, lr}
 772              		.cfi_def_cfa_offset 8
ARM GAS  C:\Users\HYFI_A~1\AppData\Local\Temp\ccHqIvXz.s 			page 19


 773              		.cfi_offset 7, -8
 774              		.cfi_offset 14, -4
 775 0002 86B0     		sub	sp, sp, #24
 776              		.cfi_def_cfa_offset 32
 777 0004 00AF     		add	r7, sp, #0
 778              		.cfi_def_cfa_register 7
 779 0006 F860     		str	r0, [r7, #12]
 780 0008 B960     		str	r1, [r7, #8]
 781 000a 7A60     		str	r2, [r7, #4]
 782 000c 3B60     		str	r3, [r7]
 206:modem.c       ****     
 207:modem.c       ****         char *a, *b;
 208:modem.c       ****   
 209:modem.c       ****         // Expect the UART to contain something like "+CSQ: 17,99\r\n\r\nOK"
 210:modem.c       ****         // - Search for "+CSQ: ".  Place the starting pointer, a, at the resulting index
 211:modem.c       ****         a = strstr(from,beginMarker);
 783              		.loc 1 211 0
 784 000e B968     		ldr	r1, [r7, #8]
 785 0010 F868     		ldr	r0, [r7, #12]
 786 0012 FFF7FEFF 		bl	strstr
 787 0016 7861     		str	r0, [r7, #20]
 212:modem.c       ****         if (a == NULL) {
 788              		.loc 1 212 0
 789 0018 7B69     		ldr	r3, [r7, #20]
 790 001a 002B     		cmp	r3, #0
 791 001c 01D1     		bne	.L48
 213:modem.c       ****             //puts("+CSQ: not found in uart_received_string");
 214:modem.c       ****             a = from;
 792              		.loc 1 214 0
 793 001e FB68     		ldr	r3, [r7, #12]
 794 0020 7B61     		str	r3, [r7, #20]
 795              	.L48:
 215:modem.c       ****         }
 216:modem.c       ****         
 217:modem.c       ****         a += strlen(beginMarker);
 796              		.loc 1 217 0
 797 0022 B868     		ldr	r0, [r7, #8]
 798 0024 FFF7FEFF 		bl	strlen
 799 0028 0246     		mov	r2, r0
 800 002a 7B69     		ldr	r3, [r7, #20]
 801 002c 1344     		add	r3, r3, r2
 802 002e 7B61     		str	r3, [r7, #20]
 218:modem.c       ****         
 219:modem.c       ****         // - Find the end marking and offset by 1
 220:modem.c       ****         b = strstr(a,endMarker);
 803              		.loc 1 220 0
 804 0030 7968     		ldr	r1, [r7, #4]
 805 0032 7869     		ldr	r0, [r7, #20]
 806 0034 FFF7FEFF 		bl	strstr
 807 0038 3861     		str	r0, [r7, #16]
 221:modem.c       ****         if (b == NULL) {
 808              		.loc 1 221 0
 809 003a 3B69     		ldr	r3, [r7, #16]
 810 003c 002B     		cmp	r3, #0
 811 003e 06D1     		bne	.L49
 222:modem.c       ****             //puts("Comma not found in uart_received_string");
 223:modem.c       ****             b=from+strlen(from);
ARM GAS  C:\Users\HYFI_A~1\AppData\Local\Temp\ccHqIvXz.s 			page 20


 812              		.loc 1 223 0
 813 0040 F868     		ldr	r0, [r7, #12]
 814 0042 FFF7FEFF 		bl	strlen
 815 0046 0246     		mov	r2, r0
 816 0048 FB68     		ldr	r3, [r7, #12]
 817 004a 1344     		add	r3, r3, r2
 818 004c 3B61     		str	r3, [r7, #16]
 819              	.L49:
 224:modem.c       ****         }        
 225:modem.c       ****         
 226:modem.c       ****         // Parse the strings and store the respective rssi and fer values
 227:modem.c       ****         strncpy(target,a,b-a);
 820              		.loc 1 227 0
 821 004e 3A69     		ldr	r2, [r7, #16]
 822 0050 7B69     		ldr	r3, [r7, #20]
 823 0052 D31A     		subs	r3, r2, r3
 824 0054 1A46     		mov	r2, r3
 825 0056 7969     		ldr	r1, [r7, #20]
 826 0058 3868     		ldr	r0, [r7]
 827 005a FFF7FEFF 		bl	strncpy
 228:modem.c       ****         target[b-a] = '\0';
 828              		.loc 1 228 0
 829 005e 3A69     		ldr	r2, [r7, #16]
 830 0060 7B69     		ldr	r3, [r7, #20]
 831 0062 D31A     		subs	r3, r2, r3
 832 0064 1A46     		mov	r2, r3
 833 0066 3B68     		ldr	r3, [r7]
 834 0068 1344     		add	r3, r3, r2
 835 006a 0022     		movs	r2, #0
 836 006c 1A70     		strb	r2, [r3]
 229:modem.c       ****         return 1u;
 837              		.loc 1 229 0
 838 006e 0123     		movs	r3, #1
 230:modem.c       ****         
 231:modem.c       **** }
 839              		.loc 1 231 0
 840 0070 1846     		mov	r0, r3
 841 0072 1837     		adds	r7, r7, #24
 842              		.cfi_def_cfa_offset 8
 843 0074 BD46     		mov	sp, r7
 844              		.cfi_def_cfa_register 13
 845              		@ sp needed
 846 0076 80BD     		pop	{r7, pc}
 847              		.cfi_endproc
 848              	.LFE74:
 849              		.size	extract_string, .-extract_string
 850              		.section	.rodata
 851 015e 0000     		.align	2
 852              	.LC10:
 853 0160 54696D65 		.ascii	"Time to connecto to network: %d seconds\000"
 853      20746F20 
 853      636F6E6E 
 853      6563746F 
 853      20746F20 
 854              		.align	2
 855              	.LC11:
 856 0188 4D6F6465 		.ascii	"Modem timed out on network connect\000"
ARM GAS  C:\Users\HYFI_A~1\AppData\Local\Temp\ccHqIvXz.s 			page 21


 856      6D207469 
 856      6D656420 
 856      6F757420 
 856      6F6E206E 
 857 01ab 00       		.align	2
 858              	.LC12:
 859 01ac 41637175 		.ascii	"Acquired IP address: %d seconds\000"
 859      69726564 
 859      20495020 
 859      61646472 
 859      6573733A 
 860              		.align	2
 861              	.LC13:
 862 01cc 4D6F6465 		.ascii	"Modem timed out on IP address acquire.\000"
 862      6D207469 
 862      6D656420 
 862      6F757420 
 862      6F6E2049 
 863              		.section	.text.modem_process_tasks,"ax",%progbits
 864              		.align	2
 865              		.global	modem_process_tasks
 866              		.thumb
 867              		.thumb_func
 868              		.type	modem_process_tasks, %function
 869              	modem_process_tasks:
 870              	.LFB75:
 232:modem.c       **** 
 233:modem.c       **** 
 234:modem.c       **** uint8 modem_process_tasks(){
 871              		.loc 1 234 0
 872              		.cfi_startproc
 873              		@ args = 0, pretend = 0, frame = 0
 874              		@ frame_needed = 1, uses_anonymous_args = 0
 875 0000 80B5     		push	{r7, lr}
 876              		.cfi_def_cfa_offset 8
 877              		.cfi_offset 7, -8
 878              		.cfi_offset 14, -4
 879 0002 00AF     		add	r7, sp, #0
 880              		.cfi_def_cfa_register 7
 235:modem.c       ****     
 236:modem.c       ****     
 237:modem.c       **** 
 238:modem.c       ****     if(modem_state == MODEM_STATE_STARTUP){
 881              		.loc 1 238 0
 882 0004 394B     		ldr	r3, .L60
 883 0006 1B78     		ldrb	r3, [r3]	@ zero_extendqisi2
 884 0008 012B     		cmp	r3, #1
 885 000a 0BD1     		bne	.L52
 239:modem.c       ****         
 240:modem.c       ****         modem_start_time_stamp = getTimeStamp();
 886              		.loc 1 240 0
 887 000c FFF7FEFF 		bl	getTimeStamp
 888 0010 0246     		mov	r2, r0
 889 0012 374B     		ldr	r3, .L60+4
 890 0014 1A60     		str	r2, [r3]
 241:modem.c       ****         modem_configure_settings();
 891              		.loc 1 241 0
ARM GAS  C:\Users\HYFI_A~1\AppData\Local\Temp\ccHqIvXz.s 			page 22


 892 0016 FFF7FEFF 		bl	modem_configure_settings
 242:modem.c       ****         modem_state = MODEM_STATE_WAITING_FOR_NETWORK;
 893              		.loc 1 242 0
 894 001a 344B     		ldr	r3, .L60
 895 001c 0222     		movs	r2, #2
 896 001e 1A70     		strb	r2, [r3]
 243:modem.c       ****         return 1u;//keep going, don't hand off to sleep yet
 897              		.loc 1 243 0
 898 0020 0123     		movs	r3, #1
 899 0022 60E0     		b	.L53
 900              	.L52:
 244:modem.c       ****         
 245:modem.c       ****     }
 246:modem.c       ****     else if(modem_state == MODEM_STATE_WAITING_FOR_NETWORK){
 901              		.loc 1 246 0
 902 0024 314B     		ldr	r3, .L60
 903 0026 1B78     		ldrb	r3, [r3]	@ zero_extendqisi2
 904 0028 022B     		cmp	r3, #2
 905 002a 2DD1     		bne	.L54
 247:modem.c       ****         
 248:modem.c       **** 
 249:modem.c       ****         if(is_connected_to_cell_network()){
 906              		.loc 1 249 0
 907 002c FFF7FEFF 		bl	is_connected_to_cell_network
 908 0030 0346     		mov	r3, r0
 909 0032 002B     		cmp	r3, #0
 910 0034 15D0     		beq	.L55
 250:modem.c       ****       
 251:modem.c       ****              modem_stats.time_to_network_connect = (int)(getTimeStamp() - (int32)modem_start_time_s
 911              		.loc 1 251 0
 912 0036 FFF7FEFF 		bl	getTimeStamp
 913 003a 0246     		mov	r2, r0
 914 003c 2C4B     		ldr	r3, .L60+4
 915 003e 1B68     		ldr	r3, [r3]
 916 0040 D31A     		subs	r3, r2, r3
 917 0042 2C4A     		ldr	r2, .L60+8
 918 0044 5360     		str	r3, [r2, #4]
 252:modem.c       ****              printNotif(NOTIF_TYPE_EVENT,"Time to connecto to network: %d seconds",
 919              		.loc 1 252 0
 920 0046 2B4B     		ldr	r3, .L60+8
 921 0048 5B68     		ldr	r3, [r3, #4]
 922 004a 1A46     		mov	r2, r3
 923 004c 2A49     		ldr	r1, .L60+12
 924 004e 0020     		movs	r0, #0
 925 0050 FFF7FEFF 		bl	printNotif
 253:modem.c       ****                                             modem_stats.time_to_network_connect);
 254:modem.c       ****             get_cell_network_stats();
 926              		.loc 1 254 0
 927 0054 FFF7FEFF 		bl	get_cell_network_stats
 255:modem.c       ****             set_up_internet_connection();
 928              		.loc 1 255 0
 929 0058 FFF7FEFF 		bl	set_up_internet_connection
 256:modem.c       ****             modem_state = MODEM_STATE_WAITING_FOR_IP;
 930              		.loc 1 256 0
 931 005c 234B     		ldr	r3, .L60
 932 005e 0322     		movs	r2, #3
 933 0060 1A70     		strb	r2, [r3]
ARM GAS  C:\Users\HYFI_A~1\AppData\Local\Temp\ccHqIvXz.s 			page 23


 934              	.L55:
 257:modem.c       ****             
 258:modem.c       ****         }
 259:modem.c       **** 
 260:modem.c       ****         //power off if we times out shold only take ~30 secs to connect to network
 261:modem.c       ****         if((int)(getTimeStamp()-(int32)modem_start_time_stamp) > TIMEOUT_NETWORK_CONNECT){
 935              		.loc 1 261 0
 936 0062 FFF7FEFF 		bl	getTimeStamp
 937 0066 0246     		mov	r2, r0
 938 0068 214B     		ldr	r3, .L60+4
 939 006a 1B68     		ldr	r3, [r3]
 940 006c D31A     		subs	r3, r2, r3
 941 006e C82B     		cmp	r3, #200
 942 0070 08DD     		ble	.L56
 262:modem.c       ****             modem_state = MODEM_STATE_OFF;
 943              		.loc 1 262 0
 944 0072 1E4B     		ldr	r3, .L60
 945 0074 0022     		movs	r2, #0
 946 0076 1A70     		strb	r2, [r3]
 263:modem.c       ****             modem_power_down();
 947              		.loc 1 263 0
 948 0078 FFF7FEFF 		bl	modem_power_down
 264:modem.c       ****             printNotif(NOTIF_TYPE_ERROR,"Modem timed out on network connect");
 949              		.loc 1 264 0
 950 007c 1F49     		ldr	r1, .L60+16
 951 007e 0220     		movs	r0, #2
 952 0080 FFF7FEFF 		bl	printNotif
 953              	.L56:
 265:modem.c       ****             
 266:modem.c       ****         }
 267:modem.c       ****         
 268:modem.c       ****         return 0u;//ok to hand off to sleep
 954              		.loc 1 268 0
 955 0084 0023     		movs	r3, #0
 956 0086 2EE0     		b	.L53
 957              	.L54:
 269:modem.c       **** 
 270:modem.c       ****     }else if(modem_state == MODEM_STATE_WAITING_FOR_IP){
 958              		.loc 1 270 0
 959 0088 184B     		ldr	r3, .L60
 960 008a 1B78     		ldrb	r3, [r3]	@ zero_extendqisi2
 961 008c 032B     		cmp	r3, #3
 962 008e 29D1     		bne	.L57
 271:modem.c       ****         if(is_connected_to_internet()){
 963              		.loc 1 271 0
 964 0090 FFF7FEFF 		bl	is_connected_to_internet
 965 0094 0346     		mov	r3, r0
 966 0096 002B     		cmp	r3, #0
 967 0098 11D0     		beq	.L58
 272:modem.c       ****             modem_state = MODEM_STATE_READY;
 968              		.loc 1 272 0
 969 009a 144B     		ldr	r3, .L60
 970 009c 0422     		movs	r2, #4
 971 009e 1A70     		strb	r2, [r3]
 273:modem.c       ****             modem_stats.time_to_acquire_ip = (int)(getTimeStamp() - (int32)modem_start_time_stamp);
 972              		.loc 1 273 0
 973 00a0 FFF7FEFF 		bl	getTimeStamp
ARM GAS  C:\Users\HYFI_A~1\AppData\Local\Temp\ccHqIvXz.s 			page 24


 974 00a4 0246     		mov	r2, r0
 975 00a6 124B     		ldr	r3, .L60+4
 976 00a8 1B68     		ldr	r3, [r3]
 977 00aa D31A     		subs	r3, r2, r3
 978 00ac 114A     		ldr	r2, .L60+8
 979 00ae 9360     		str	r3, [r2, #8]
 274:modem.c       ****              printNotif(NOTIF_TYPE_EVENT,"Acquired IP address: %d seconds",
 980              		.loc 1 274 0
 981 00b0 104B     		ldr	r3, .L60+8
 982 00b2 9B68     		ldr	r3, [r3, #8]
 983 00b4 1A46     		mov	r2, r3
 984 00b6 1249     		ldr	r1, .L60+20
 985 00b8 0020     		movs	r0, #0
 986 00ba FFF7FEFF 		bl	printNotif
 987              	.L58:
 275:modem.c       ****                                             modem_stats.time_to_acquire_ip);
 276:modem.c       ****         }
 277:modem.c       ****         
 278:modem.c       ****         //power off if we times out shold only take ~30 secs to connect to network
 279:modem.c       ****         if((int)(getTimeStamp()-(int32)modem_start_time_stamp) > TIMEOUT_IP_ACQUIRE){
 988              		.loc 1 279 0
 989 00be FFF7FEFF 		bl	getTimeStamp
 990 00c2 0246     		mov	r2, r0
 991 00c4 0A4B     		ldr	r3, .L60+4
 992 00c6 1B68     		ldr	r3, [r3]
 993 00c8 D31A     		subs	r3, r2, r3
 994 00ca E62B     		cmp	r3, #230
 995 00cc 08DD     		ble	.L59
 280:modem.c       ****             modem_state = MODEM_STATE_OFF;
 996              		.loc 1 280 0
 997 00ce 074B     		ldr	r3, .L60
 998 00d0 0022     		movs	r2, #0
 999 00d2 1A70     		strb	r2, [r3]
 281:modem.c       ****             modem_power_down();
 1000              		.loc 1 281 0
 1001 00d4 FFF7FEFF 		bl	modem_power_down
 282:modem.c       ****             printNotif(NOTIF_TYPE_ERROR,"Modem timed out on IP address acquire.");
 1002              		.loc 1 282 0
 1003 00d8 0A49     		ldr	r1, .L60+24
 1004 00da 0220     		movs	r0, #2
 1005 00dc FFF7FEFF 		bl	printNotif
 1006              	.L59:
 283:modem.c       ****       
 284:modem.c       ****         }
 285:modem.c       ****         return 0u;//ok to hand off to sleep
 1007              		.loc 1 285 0
 1008 00e0 0023     		movs	r3, #0
 1009 00e2 00E0     		b	.L53
 1010              	.L57:
 286:modem.c       ****     }
 287:modem.c       ****     
 288:modem.c       ****     return 0u;
 1011              		.loc 1 288 0
 1012 00e4 0023     		movs	r3, #0
 1013              	.L53:
 289:modem.c       ****     
 290:modem.c       **** }
ARM GAS  C:\Users\HYFI_A~1\AppData\Local\Temp\ccHqIvXz.s 			page 25


 1014              		.loc 1 290 0
 1015 00e6 1846     		mov	r0, r3
 1016 00e8 80BD     		pop	{r7, pc}
 1017              	.L61:
 1018 00ea 00BF     		.align	2
 1019              	.L60:
 1020 00ec 00000000 		.word	modem_state
 1021 00f0 00000000 		.word	modem_start_time_stamp
 1022 00f4 00000000 		.word	modem_stats
 1023 00f8 60010000 		.word	.LC10
 1024 00fc 88010000 		.word	.LC11
 1025 0100 AC010000 		.word	.LC12
 1026 0104 CC010000 		.word	.LC13
 1027              		.cfi_endproc
 1028              	.LFE75:
 1029              		.size	modem_process_tasks, .-modem_process_tasks
 1030              		.section	.rodata
 1031 01f3 00       		.align	2
 1032              	.LC14:
 1033 01f4 43686563 		.ascii	"Checking AT+CREG?\000"
 1033      6B696E67 
 1033      2041542B 
 1033      43524547 
 1033      3F00
 1034 0206 0000     		.align	2
 1035              	.LC15:
 1036 0208 41542B43 		.ascii	"AT+CREG?\015\000"
 1036      5245473F 
 1036      0D00
 1037 0212 0000     		.align	2
 1038              	.LC16:
 1039 0214 45787472 		.ascii	"Extracting string AT+CREG?\000"
 1039      61637469 
 1039      6E672073 
 1039      7472696E 
 1039      67204154 
 1040 022f 00       		.align	2
 1041              	.LC17:
 1042 0230 75617274 		.ascii	"uart_received_string: %s\000"
 1042      5F726563 
 1042      65697665 
 1042      645F7374 
 1042      72696E67 
 1043 0249 000000   		.align	2
 1044              	.LC18:
 1045 024c 0D00     		.ascii	"\015\000"
 1046 024e 0000     		.align	2
 1047              	.LC19:
 1048 0250 3A2000   		.ascii	": \000"
 1049 0253 00       		.align	2
 1050              	.LC20:
 1051 0254 52656769 		.ascii	"Registered to network, CREG: %s\000"
 1051      73746572 
 1051      65642074 
 1051      6F206E65 
 1051      74776F72 
 1052              		.align	2
ARM GAS  C:\Users\HYFI_A~1\AppData\Local\Temp\ccHqIvXz.s 			page 26


 1053              	.LC21:
 1054 0274 446F6E65 		.ascii	"Done extracing string AT+CREG?\000"
 1054      20657874 
 1054      72616369 
 1054      6E672073 
 1054      7472696E 
 1055 0293 00       		.align	2
 1056              	.LC22:
 1057 0294 302C3100 		.ascii	"0,1\000"
 1058              		.section	.text.is_connected_to_cell_network,"ax",%progbits
 1059              		.align	2
 1060              		.global	is_connected_to_cell_network
 1061              		.thumb
 1062              		.thumb_func
 1063              		.type	is_connected_to_cell_network, %function
 1064              	is_connected_to_cell_network:
 1065              	.LFB76:
 291:modem.c       **** 
 292:modem.c       **** uint8 is_connected_to_cell_network(){
 1066              		.loc 1 292 0
 1067              		.cfi_startproc
 1068              		@ args = 0, pretend = 0, frame = 16
 1069              		@ frame_needed = 1, uses_anonymous_args = 0
 1070 0000 80B5     		push	{r7, lr}
 1071              		.cfi_def_cfa_offset 8
 1072              		.cfi_offset 7, -8
 1073              		.cfi_offset 14, -4
 1074 0002 84B0     		sub	sp, sp, #16
 1075              		.cfi_def_cfa_offset 24
 1076 0004 00AF     		add	r7, sp, #0
 1077              		.cfi_def_cfa_register 7
 293:modem.c       ****     //check network status -- need '0,0' response to continue
 294:modem.c       ****     printNotif(NOTIF_TYPE_EVENT,"Checking AT+CREG?");
 1078              		.loc 1 294 0
 1079 0006 1B49     		ldr	r1, .L66
 1080 0008 0020     		movs	r0, #0
 1081 000a FFF7FEFF 		bl	printNotif
 295:modem.c       ****     uint8 status = at_write_command("AT+CREG?\r", "OK",DEFAULT_AT_TIMEOUT);
 1082              		.loc 1 295 0
 1083 000e 4FF4FA62 		mov	r2, #2000
 1084 0012 1949     		ldr	r1, .L66+4
 1085 0014 1948     		ldr	r0, .L66+8
 1086 0016 FFF7FEFF 		bl	at_write_command
 1087 001a 0346     		mov	r3, r0
 1088 001c FB73     		strb	r3, [r7, #15]
 296:modem.c       ****     
 297:modem.c       ****     printNotif(NOTIF_TYPE_EVENT,"Extracting string AT+CREG?");
 1089              		.loc 1 297 0
 1090 001e 1849     		ldr	r1, .L66+12
 1091 0020 0020     		movs	r0, #0
 1092 0022 FFF7FEFF 		bl	printNotif
 298:modem.c       ****     printNotif(NOTIF_TYPE_EVENT,"uart_received_string: %s",uart_received_string);
 1093              		.loc 1 298 0
 1094 0026 174A     		ldr	r2, .L66+16
 1095 0028 1749     		ldr	r1, .L66+20
 1096 002a 0020     		movs	r0, #0
 1097 002c FFF7FEFF 		bl	printNotif
ARM GAS  C:\Users\HYFI_A~1\AppData\Local\Temp\ccHqIvXz.s 			page 27


 299:modem.c       ****     
 300:modem.c       ****     if(status){
 1098              		.loc 1 300 0
 1099 0030 FB7B     		ldrb	r3, [r7, #15]	@ zero_extendqisi2
 1100 0032 002B     		cmp	r3, #0
 1101 0034 19D0     		beq	.L63
 1102              	.LBB5:
 301:modem.c       ****         char creg[10];
 302:modem.c       ****         
 303:modem.c       ****         extract_string(uart_received_string,": ","\r",creg);
 1103              		.loc 1 303 0
 1104 0036 3B1D     		adds	r3, r7, #4
 1105 0038 144A     		ldr	r2, .L66+24
 1106 003a 1549     		ldr	r1, .L66+28
 1107 003c 1148     		ldr	r0, .L66+16
 1108 003e FFF7FEFF 		bl	extract_string
 304:modem.c       ****         printNotif(NOTIF_TYPE_EVENT,"Registered to network, CREG: %s",creg);
 1109              		.loc 1 304 0
 1110 0042 3B1D     		adds	r3, r7, #4
 1111 0044 1A46     		mov	r2, r3
 1112 0046 1349     		ldr	r1, .L66+32
 1113 0048 0020     		movs	r0, #0
 1114 004a FFF7FEFF 		bl	printNotif
 305:modem.c       ****         printNotif(NOTIF_TYPE_EVENT,"Done extracing string AT+CREG?");
 1115              		.loc 1 305 0
 1116 004e 1249     		ldr	r1, .L66+36
 1117 0050 0020     		movs	r0, #0
 1118 0052 FFF7FEFF 		bl	printNotif
 306:modem.c       ****        
 307:modem.c       ****         if(strstr(creg,"0,1")!=NULL){
 1119              		.loc 1 307 0
 1120 0056 3B1D     		adds	r3, r7, #4
 1121 0058 1049     		ldr	r1, .L66+40
 1122 005a 1846     		mov	r0, r3
 1123 005c FFF7FEFF 		bl	strstr
 1124 0060 0346     		mov	r3, r0
 1125 0062 002B     		cmp	r3, #0
 1126 0064 01D0     		beq	.L63
 308:modem.c       ****             //time_network_connect = getTimeStamp();
 309:modem.c       ****             return 1u;
 1127              		.loc 1 309 0
 1128 0066 0123     		movs	r3, #1
 1129 0068 00E0     		b	.L65
 1130              	.L63:
 1131              	.LBE5:
 310:modem.c       ****         }
 311:modem.c       ****     }
 312:modem.c       ****     
 313:modem.c       ****     return 0u;
 1132              		.loc 1 313 0
 1133 006a 0023     		movs	r3, #0
 1134              	.L65:
 314:modem.c       ****         
 315:modem.c       **** }
 1135              		.loc 1 315 0
 1136 006c 1846     		mov	r0, r3
 1137 006e 1037     		adds	r7, r7, #16
ARM GAS  C:\Users\HYFI_A~1\AppData\Local\Temp\ccHqIvXz.s 			page 28


 1138              		.cfi_def_cfa_offset 8
 1139 0070 BD46     		mov	sp, r7
 1140              		.cfi_def_cfa_register 13
 1141              		@ sp needed
 1142 0072 80BD     		pop	{r7, pc}
 1143              	.L67:
 1144              		.align	2
 1145              	.L66:
 1146 0074 F4010000 		.word	.LC14
 1147 0078 00000000 		.word	.LC0
 1148 007c 08020000 		.word	.LC15
 1149 0080 14020000 		.word	.LC16
 1150 0084 00000000 		.word	uart_received_string
 1151 0088 30020000 		.word	.LC17
 1152 008c 4C020000 		.word	.LC18
 1153 0090 50020000 		.word	.LC19
 1154 0094 54020000 		.word	.LC20
 1155 0098 74020000 		.word	.LC21
 1156 009c 94020000 		.word	.LC22
 1157              		.cfi_endproc
 1158              	.LFE76:
 1159              		.size	is_connected_to_cell_network, .-is_connected_to_cell_network
 1160              		.section	.rodata
 1161              		.align	2
 1162              	.LC23:
 1163 0298 41542353 		.ascii	"AT#SGACT=1,1\015\012\000"
 1163      47414354 
 1163      3D312C31 
 1163      0D0A00
 1164              		.section	.text.set_up_internet_connection,"ax",%progbits
 1165              		.align	2
 1166              		.global	set_up_internet_connection
 1167              		.thumb
 1168              		.thumb_func
 1169              		.type	set_up_internet_connection, %function
 1170              	set_up_internet_connection:
 1171              	.LFB77:
 316:modem.c       **** 
 317:modem.c       **** void set_up_internet_connection(){
 1172              		.loc 1 317 0
 1173              		.cfi_startproc
 1174              		@ args = 0, pretend = 0, frame = 0
 1175              		@ frame_needed = 1, uses_anonymous_args = 0
 1176 0000 80B5     		push	{r7, lr}
 1177              		.cfi_def_cfa_offset 8
 1178              		.cfi_offset 7, -8
 1179              		.cfi_offset 14, -4
 1180 0002 00AF     		add	r7, sp, #0
 1181              		.cfi_def_cfa_register 7
 318:modem.c       ****     
 319:modem.c       ****     //port 3
 320:modem.c       ****    //<connId>,<srMode>,<dataMode>, 
 321:modem.c       ****     //at_write_command("AT#SCFGEXT=1,1,0,0,0,0\r", "OK",DEFAULT_AT_TIMEOUT);////LTE modem relevant
 322:modem.c       ****     
 323:modem.c       ****     //<connId>,<cid>,<pktSz>,<maxTo>,<connTo>,<txTo>
 324:modem.c       ****     //at_write_command("AT#SCFG=1,3,300,90,600,50\r", "OK",DEFAULT_AT_TIMEOUT); //LTE modem relevan
 325:modem.c       ****     // <cid>,<stat>
ARM GAS  C:\Users\HYFI_A~1\AppData\Local\Temp\ccHqIvXz.s 			page 29


 326:modem.c       ****    
 327:modem.c       ****     at_write_command("AT#SGACT=1,1\r\n", "OK",NO_AT_TIMEOUT);
 1182              		.loc 1 327 0
 1183 0004 0022     		movs	r2, #0
 1184 0006 0349     		ldr	r1, .L69
 1185 0008 0348     		ldr	r0, .L69+4
 1186 000a FFF7FEFF 		bl	at_write_command
 328:modem.c       **** 
 329:modem.c       ****     
 330:modem.c       **** 
 331:modem.c       ****     
 332:modem.c       **** }
 1187              		.loc 1 332 0
 1188 000e 00BF     		nop
 1189 0010 80BD     		pop	{r7, pc}
 1190              	.L70:
 1191 0012 00BF     		.align	2
 1192              	.L69:
 1193 0014 00000000 		.word	.LC0
 1194 0018 98020000 		.word	.LC23
 1195              		.cfi_endproc
 1196              	.LFE77:
 1197              		.size	set_up_internet_connection, .-set_up_internet_connection
 1198              		.section	.rodata
 1199 02a7 00       		.align	2
 1200              	.LC24:
 1201 02a8 312C3100 		.ascii	"1,1\000"
 1202              		.align	2
 1203              	.LC25:
 1204 02ac 41542353 		.ascii	"AT#SGACT?\015\000"
 1204      47414354 
 1204      3F0D00
 1205              		.section	.text.is_connected_to_internet,"ax",%progbits
 1206              		.align	2
 1207              		.global	is_connected_to_internet
 1208              		.thumb
 1209              		.thumb_func
 1210              		.type	is_connected_to_internet, %function
 1211              	is_connected_to_internet:
 1212              	.LFB78:
 333:modem.c       **** 
 334:modem.c       **** uint8 is_connected_to_internet(){
 1213              		.loc 1 334 0
 1214              		.cfi_startproc
 1215              		@ args = 0, pretend = 0, frame = 0
 1216              		@ frame_needed = 1, uses_anonymous_args = 0
 1217 0000 80B5     		push	{r7, lr}
 1218              		.cfi_def_cfa_offset 8
 1219              		.cfi_offset 7, -8
 1220              		.cfi_offset 14, -4
 1221 0002 00AF     		add	r7, sp, #0
 1222              		.cfi_def_cfa_register 7
 335:modem.c       ****     
 336:modem.c       ****     //check for 3,1 if verizon
 337:modem.c       ****     if(at_write_command("AT#SGACT?\r", "1,1",DEFAULT_AT_TIMEOUT)){
 1223              		.loc 1 337 0
 1224 0004 4FF4FA62 		mov	r2, #2000
ARM GAS  C:\Users\HYFI_A~1\AppData\Local\Temp\ccHqIvXz.s 			page 30


 1225 0008 0549     		ldr	r1, .L74
 1226 000a 0648     		ldr	r0, .L74+4
 1227 000c FFF7FEFF 		bl	at_write_command
 1228 0010 0346     		mov	r3, r0
 1229 0012 002B     		cmp	r3, #0
 1230 0014 01D0     		beq	.L72
 338:modem.c       ****         return 1u;
 1231              		.loc 1 338 0
 1232 0016 0123     		movs	r3, #1
 1233 0018 00E0     		b	.L73
 1234              	.L72:
 339:modem.c       ****     }
 340:modem.c       ****  
 341:modem.c       ****     return 0u;
 1235              		.loc 1 341 0
 1236 001a 0023     		movs	r3, #0
 1237              	.L73:
 342:modem.c       ****     
 343:modem.c       **** }
 1238              		.loc 1 343 0
 1239 001c 1846     		mov	r0, r3
 1240 001e 80BD     		pop	{r7, pc}
 1241              	.L75:
 1242              		.align	2
 1243              	.L74:
 1244 0020 A8020000 		.word	.LC24
 1245 0024 AC020000 		.word	.LC25
 1246              		.cfi_endproc
 1247              	.LFE78:
 1248              		.size	is_connected_to_internet, .-is_connected_to_internet
 1249              		.section	.rodata
 1250 02b7 00       		.align	2
 1251              	.LC26:
 1252 02b8 41542B43 		.ascii	"AT+CSQ\015\000"
 1252      53510D00 
 1253              		.align	2
 1254              	.LC27:
 1255 02c0 4E657477 		.ascii	"Network STts: %s\000"
 1255      6F726B20 
 1255      53547473 
 1255      3A202573 
 1255      00
 1256 02d1 000000   		.align	2
 1257              	.LC28:
 1258 02d4 2C00     		.ascii	",\000"
 1259              		.section	.text.get_cell_network_stats,"ax",%progbits
 1260              		.align	2
 1261              		.global	get_cell_network_stats
 1262              		.thumb
 1263              		.thumb_func
 1264              		.type	get_cell_network_stats, %function
 1265              	get_cell_network_stats:
 1266              	.LFB79:
 344:modem.c       **** 
 345:modem.c       **** void get_cell_network_stats(){
 1267              		.loc 1 345 0
 1268              		.cfi_startproc
ARM GAS  C:\Users\HYFI_A~1\AppData\Local\Temp\ccHqIvXz.s 			page 31


 1269              		@ args = 0, pretend = 0, frame = 24
 1270              		@ frame_needed = 1, uses_anonymous_args = 0
 1271 0000 80B5     		push	{r7, lr}
 1272              		.cfi_def_cfa_offset 8
 1273              		.cfi_offset 7, -8
 1274              		.cfi_offset 14, -4
 1275 0002 86B0     		sub	sp, sp, #24
 1276              		.cfi_def_cfa_offset 32
 1277 0004 00AF     		add	r7, sp, #0
 1278              		.cfi_def_cfa_register 7
 1279              	.LBB6:
 346:modem.c       ****     //gets RSSI and FER values
 347:modem.c       ****     for(uint8 attempts =0; attempts <10; attempts++){
 1280              		.loc 1 347 0
 1281 0006 0023     		movs	r3, #0
 1282 0008 FB75     		strb	r3, [r7, #23]
 1283 000a 3BE0     		b	.L77
 1284              	.L82:
 1285              	.LBB7:
 348:modem.c       ****         at_write_command("AT+CSQ\r", "OK",DEFAULT_AT_TIMEOUT);
 1286              		.loc 1 348 0
 1287 000c 4FF4FA62 		mov	r2, #2000
 1288 0010 2049     		ldr	r1, .L84
 1289 0012 2148     		ldr	r0, .L84+4
 1290 0014 FFF7FEFF 		bl	at_write_command
 349:modem.c       ****         
 350:modem.c       ****         char csq[10];
 351:modem.c       ****         extract_string(uart_received_string,": ","\r",csq);
 1291              		.loc 1 351 0
 1292 0018 3B1D     		adds	r3, r7, #4
 1293 001a 204A     		ldr	r2, .L84+8
 1294 001c 2049     		ldr	r1, .L84+12
 1295 001e 2148     		ldr	r0, .L84+16
 1296 0020 FFF7FEFF 		bl	extract_string
 352:modem.c       ****         printNotif(NOTIF_TYPE_EVENT,"Network STts: %s",csq);
 1297              		.loc 1 352 0
 1298 0024 3B1D     		adds	r3, r7, #4
 1299 0026 1A46     		mov	r2, r3
 1300 0028 1F49     		ldr	r1, .L84+20
 1301 002a 0020     		movs	r0, #0
 1302 002c FFF7FEFF 		bl	printNotif
 353:modem.c       ****         
 354:modem.c       ****         char *token;
 355:modem.c       ****         token = strtok(csq,",");
 1303              		.loc 1 355 0
 1304 0030 3B1D     		adds	r3, r7, #4
 1305 0032 1E49     		ldr	r1, .L84+24
 1306 0034 1846     		mov	r0, r3
 1307 0036 FFF7FEFF 		bl	strtok
 1308 003a 3861     		str	r0, [r7, #16]
 356:modem.c       ****         if(token != NULL){
 1309              		.loc 1 356 0
 1310 003c 3B69     		ldr	r3, [r7, #16]
 1311 003e 002B     		cmp	r3, #0
 1312 0040 06D0     		beq	.L78
 357:modem.c       ****             modem_stats.rssi = atoi(token);
 1313              		.loc 1 357 0
ARM GAS  C:\Users\HYFI_A~1\AppData\Local\Temp\ccHqIvXz.s 			page 32


 1314 0042 3869     		ldr	r0, [r7, #16]
 1315 0044 FFF7FEFF 		bl	atoi
 1316 0048 0346     		mov	r3, r0
 1317 004a DAB2     		uxtb	r2, r3
 1318 004c 184B     		ldr	r3, .L84+28
 1319 004e 1A70     		strb	r2, [r3]
 1320              	.L78:
 358:modem.c       ****         }
 359:modem.c       ****         token = strtok(NULL,",");
 1321              		.loc 1 359 0
 1322 0050 1649     		ldr	r1, .L84+24
 1323 0052 0020     		movs	r0, #0
 1324 0054 FFF7FEFF 		bl	strtok
 1325 0058 3861     		str	r0, [r7, #16]
 360:modem.c       ****         if(token != NULL){
 1326              		.loc 1 360 0
 1327 005a 3B69     		ldr	r3, [r7, #16]
 1328 005c 002B     		cmp	r3, #0
 1329 005e 06D0     		beq	.L79
 361:modem.c       ****             modem_stats.sq = atoi(token);
 1330              		.loc 1 361 0
 1331 0060 3869     		ldr	r0, [r7, #16]
 1332 0062 FFF7FEFF 		bl	atoi
 1333 0066 0346     		mov	r3, r0
 1334 0068 DAB2     		uxtb	r2, r3
 1335 006a 114B     		ldr	r3, .L84+28
 1336 006c 5A70     		strb	r2, [r3, #1]
 1337              	.L79:
 362:modem.c       ****         }
 363:modem.c       ****         if(modem_stats.rssi != 99 || modem_stats.rssi !=0){
 1338              		.loc 1 363 0
 1339 006e 104B     		ldr	r3, .L84+28
 1340 0070 1B78     		ldrb	r3, [r3]	@ zero_extendqisi2
 1341 0072 632B     		cmp	r3, #99
 1342 0074 09D1     		bne	.L83
 1343              		.loc 1 363 0 is_stmt 0 discriminator 1
 1344 0076 0E4B     		ldr	r3, .L84+28
 1345 0078 1B78     		ldrb	r3, [r3]	@ zero_extendqisi2
 1346 007a 002B     		cmp	r3, #0
 1347 007c 05D1     		bne	.L83
 1348              	.LBE7:
 347:modem.c       ****         at_write_command("AT+CSQ\r", "OK",DEFAULT_AT_TIMEOUT);
 1349              		.loc 1 347 0 is_stmt 1
 1350 007e FB7D     		ldrb	r3, [r7, #23]	@ zero_extendqisi2
 1351 0080 0133     		adds	r3, r3, #1
 1352 0082 FB75     		strb	r3, [r7, #23]
 1353              	.L77:
 347:modem.c       ****         at_write_command("AT+CSQ\r", "OK",DEFAULT_AT_TIMEOUT);
 1354              		.loc 1 347 0 is_stmt 0 discriminator 1
 1355 0084 FB7D     		ldrb	r3, [r7, #23]	@ zero_extendqisi2
 1356 0086 092B     		cmp	r3, #9
 1357 0088 C0D9     		bls	.L82
 1358              	.L83:
 1359              	.LBE6:
 364:modem.c       ****             break;
 365:modem.c       ****         }
 366:modem.c       ****     }
ARM GAS  C:\Users\HYFI_A~1\AppData\Local\Temp\ccHqIvXz.s 			page 33


 367:modem.c       **** }
 1360              		.loc 1 367 0 is_stmt 1
 1361 008a 00BF     		nop
 1362 008c 1837     		adds	r7, r7, #24
 1363              		.cfi_def_cfa_offset 8
 1364 008e BD46     		mov	sp, r7
 1365              		.cfi_def_cfa_register 13
 1366              		@ sp needed
 1367 0090 80BD     		pop	{r7, pc}
 1368              	.L85:
 1369 0092 00BF     		.align	2
 1370              	.L84:
 1371 0094 00000000 		.word	.LC0
 1372 0098 B8020000 		.word	.LC26
 1373 009c 4C020000 		.word	.LC18
 1374 00a0 50020000 		.word	.LC19
 1375 00a4 00000000 		.word	uart_received_string
 1376 00a8 C0020000 		.word	.LC27
 1377 00ac D4020000 		.word	.LC28
 1378 00b0 00000000 		.word	modem_stats
 1379              		.cfi_endproc
 1380              	.LFE79:
 1381              		.size	get_cell_network_stats, .-get_cell_network_stats
 1382              		.section	.rodata
 1383 02d6 0000     		.align	2
 1384              	.LC29:
 1385 02d8 41542343 		.ascii	"AT#CGMM\015\000"
 1385      474D4D0D 
 1385      00
 1386 02e1 000000   		.align	2
 1387              	.LC30:
 1388 02e4 4D6F6465 		.ascii	"Modem Model: %s\000"
 1388      6D204D6F 
 1388      64656C3A 
 1388      20257300 
 1389              		.align	2
 1390              	.LC31:
 1391 02f4 41542343 		.ascii	"AT#CCID\015\000"
 1391      4349440D 
 1391      00
 1392 02fd 000000   		.align	2
 1393              	.LC32:
 1394 0300 53494D20 		.ascii	"SIM ID: %s\000"
 1394      49443A20 
 1394      257300
 1395 030b 00       		.align	2
 1396              	.LC33:
 1397 030c 41542B43 		.ascii	"AT+CGSN\015\000"
 1397      47534E0D 
 1397      00
 1398 0315 000000   		.align	2
 1399              	.LC34:
 1400 0318 494D4549 		.ascii	"IMEI: %s\000"
 1400      3A202573 
 1400      00
 1401 0321 000000   		.align	2
 1402              	.LC35:
ARM GAS  C:\Users\HYFI_A~1\AppData\Local\Temp\ccHqIvXz.s 			page 34


 1403 0324 41542B43 		.ascii	"AT+CGDCONT=1,\"IP\",\"wireless.twilio.com\"\015\012"
 1403      4744434F 
 1403      4E543D31 
 1403      2C224950 
 1403      222C2277 
 1404 034d 00       		.ascii	"\000"
 1405 034e 0000     		.align	2
 1406              	.LC36:
 1407 0350 41542B43 		.ascii	"AT+CFUN?\015\000"
 1407      46554E3F 
 1407      0D00
 1408 035a 0000     		.align	2
 1409              	.LC37:
 1410 035c 4346554E 		.ascii	"CFUN: %s\000"
 1410      3A202573 
 1410      00
 1411 0365 000000   		.align	2
 1412              	.LC38:
 1413 0368 41542B43 		.ascii	"AT+CFUN=1\015\000"
 1413      46554E3D 
 1413      310D00
 1414              		.section	.text.modem_configure_settings,"ax",%progbits
 1415              		.align	2
 1416              		.global	modem_configure_settings
 1417              		.thumb
 1418              		.thumb_func
 1419              		.type	modem_configure_settings, %function
 1420              	modem_configure_settings:
 1421              	.LFB80:
 368:modem.c       ****     
 369:modem.c       ****     
 370:modem.c       **** 
 371:modem.c       **** void modem_configure_settings(){
 1422              		.loc 1 371 0
 1423              		.cfi_startproc
 1424              		@ args = 0, pretend = 0, frame = 16
 1425              		@ frame_needed = 1, uses_anonymous_args = 0
 1426 0000 80B5     		push	{r7, lr}
 1427              		.cfi_def_cfa_offset 8
 1428              		.cfi_offset 7, -8
 1429              		.cfi_offset 14, -4
 1430 0002 84B0     		sub	sp, sp, #16
 1431              		.cfi_def_cfa_offset 24
 1432 0004 00AF     		add	r7, sp, #0
 1433              		.cfi_def_cfa_register 7
 372:modem.c       ****     
 373:modem.c       ****     //get modem model number
 374:modem.c       ****     if(modem_info.model_id[0] == '\0'){
 1434              		.loc 1 374 0
 1435 0006 3B4B     		ldr	r3, .L93
 1436 0008 1B7D     		ldrb	r3, [r3, #20]	@ zero_extendqisi2
 1437 000a 002B     		cmp	r3, #0
 1438 000c 13D1     		bne	.L87
 375:modem.c       ****         if(at_write_command("AT#CGMM\r","OK",DEFAULT_AT_TIMEOUT)){
 1439              		.loc 1 375 0
 1440 000e 4FF4FA62 		mov	r2, #2000
 1441 0012 3949     		ldr	r1, .L93+4
ARM GAS  C:\Users\HYFI_A~1\AppData\Local\Temp\ccHqIvXz.s 			page 35


 1442 0014 3948     		ldr	r0, .L93+8
 1443 0016 FFF7FEFF 		bl	at_write_command
 1444 001a 0346     		mov	r3, r0
 1445 001c 002B     		cmp	r3, #0
 1446 001e 0AD0     		beq	.L87
 376:modem.c       ****             extract_string(uart_received_string,": ","\r",modem_info.model_id);
 1447              		.loc 1 376 0
 1448 0020 374B     		ldr	r3, .L93+12
 1449 0022 384A     		ldr	r2, .L93+16
 1450 0024 3849     		ldr	r1, .L93+20
 1451 0026 3948     		ldr	r0, .L93+24
 1452 0028 FFF7FEFF 		bl	extract_string
 377:modem.c       ****             printNotif(NOTIF_TYPE_EVENT,"Modem Model: %s",modem_info.model_id);
 1453              		.loc 1 377 0
 1454 002c 344A     		ldr	r2, .L93+12
 1455 002e 3849     		ldr	r1, .L93+28
 1456 0030 0020     		movs	r0, #0
 1457 0032 FFF7FEFF 		bl	printNotif
 1458              	.L87:
 378:modem.c       ****         }
 379:modem.c       ****     }
 380:modem.c       ****     
 381:modem.c       ****    //get SIM-card ID
 382:modem.c       ****    if(modem_info.sim_id[0] == '\0'){
 1459              		.loc 1 382 0
 1460 0036 2F4B     		ldr	r3, .L93
 1461 0038 1B78     		ldrb	r3, [r3]	@ zero_extendqisi2
 1462 003a 002B     		cmp	r3, #0
 1463 003c 13D1     		bne	.L88
 383:modem.c       ****         if(at_write_command("AT#CCID\r", "OK", DEFAULT_AT_TIMEOUT)){
 1464              		.loc 1 383 0
 1465 003e 4FF4FA62 		mov	r2, #2000
 1466 0042 2D49     		ldr	r1, .L93+4
 1467 0044 3348     		ldr	r0, .L93+32
 1468 0046 FFF7FEFF 		bl	at_write_command
 1469 004a 0346     		mov	r3, r0
 1470 004c 002B     		cmp	r3, #0
 1471 004e 0AD0     		beq	.L88
 384:modem.c       ****             extract_string(uart_received_string,": ","\r",modem_info.sim_id);
 1472              		.loc 1 384 0
 1473 0050 284B     		ldr	r3, .L93
 1474 0052 2C4A     		ldr	r2, .L93+16
 1475 0054 2C49     		ldr	r1, .L93+20
 1476 0056 2D48     		ldr	r0, .L93+24
 1477 0058 FFF7FEFF 		bl	extract_string
 385:modem.c       ****             printNotif(NOTIF_TYPE_EVENT,"SIM ID: %s",modem_info.sim_id);
 1478              		.loc 1 385 0
 1479 005c 254A     		ldr	r2, .L93
 1480 005e 2E49     		ldr	r1, .L93+36
 1481 0060 0020     		movs	r0, #0
 1482 0062 FFF7FEFF 		bl	printNotif
 1483              	.L88:
 386:modem.c       ****         }
 387:modem.c       ****    }
 388:modem.c       **** 
 389:modem.c       ****     //getm modem IMEI
 390:modem.c       ****     if(modem_info.imei[0] == '\0'){
ARM GAS  C:\Users\HYFI_A~1\AppData\Local\Temp\ccHqIvXz.s 			page 36


 1484              		.loc 1 390 0
 1485 0066 234B     		ldr	r3, .L93
 1486 0068 93F82830 		ldrb	r3, [r3, #40]	@ zero_extendqisi2
 1487 006c 002B     		cmp	r3, #0
 1488 006e 13D1     		bne	.L89
 391:modem.c       ****         if(at_write_command("AT+CGSN\r","OK",DEFAULT_AT_TIMEOUT)){
 1489              		.loc 1 391 0
 1490 0070 4FF4FA62 		mov	r2, #2000
 1491 0074 2049     		ldr	r1, .L93+4
 1492 0076 2948     		ldr	r0, .L93+40
 1493 0078 FFF7FEFF 		bl	at_write_command
 1494 007c 0346     		mov	r3, r0
 1495 007e 002B     		cmp	r3, #0
 1496 0080 0AD0     		beq	.L89
 392:modem.c       ****             extract_string(uart_received_string,": ","\r",modem_info.imei);
 1497              		.loc 1 392 0
 1498 0082 274B     		ldr	r3, .L93+44
 1499 0084 1F4A     		ldr	r2, .L93+16
 1500 0086 2049     		ldr	r1, .L93+20
 1501 0088 2048     		ldr	r0, .L93+24
 1502 008a FFF7FEFF 		bl	extract_string
 393:modem.c       ****             printNotif(NOTIF_TYPE_EVENT,"IMEI: %s",modem_info.imei);
 1503              		.loc 1 393 0
 1504 008e 244A     		ldr	r2, .L93+44
 1505 0090 2449     		ldr	r1, .L93+48
 1506 0092 0020     		movs	r0, #0
 1507 0094 FFF7FEFF 		bl	printNotif
 1508              	.L89:
 394:modem.c       ****         } 
 395:modem.c       ****     }
 396:modem.c       ****     
 397:modem.c       ****     //configfure protocol and cellular end point
 398:modem.c       ****     at_write_command("AT+CGDCONT=1,\"IP\",\"wireless.twilio.com\"\r\n", "OK", DEFAULT_AT_TIMEOUT);
 1509              		.loc 1 398 0
 1510 0098 4FF4FA62 		mov	r2, #2000
 1511 009c 1649     		ldr	r1, .L93+4
 1512 009e 2248     		ldr	r0, .L93+52
 1513 00a0 FFF7FEFF 		bl	at_write_command
 399:modem.c       ****     
 400:modem.c       ****     //Check if modem power savings is enabled. If so, disable it so we can send data.
 401:modem.c       ****     if(at_write_command("AT+CFUN?\r", "OK",DEFAULT_AT_TIMEOUT)){
 1514              		.loc 1 401 0
 1515 00a4 4FF4FA62 		mov	r2, #2000
 1516 00a8 1349     		ldr	r1, .L93+4
 1517 00aa 2048     		ldr	r0, .L93+56
 1518 00ac FFF7FEFF 		bl	at_write_command
 1519 00b0 0346     		mov	r3, r0
 1520 00b2 002B     		cmp	r3, #0
 1521 00b4 19D0     		beq	.L92
 1522              	.LBB8:
 402:modem.c       ****         char CFUN[10];
 403:modem.c       ****         extract_string(uart_received_string,": ","\r",CFUN);
 1523              		.loc 1 403 0
 1524 00b6 3B1D     		adds	r3, r7, #4
 1525 00b8 124A     		ldr	r2, .L93+16
 1526 00ba 1349     		ldr	r1, .L93+20
 1527 00bc 1348     		ldr	r0, .L93+24
ARM GAS  C:\Users\HYFI_A~1\AppData\Local\Temp\ccHqIvXz.s 			page 37


 1528 00be FFF7FEFF 		bl	extract_string
 404:modem.c       ****         printNotif(NOTIF_TYPE_EVENT,"CFUN: %s",CFUN);
 1529              		.loc 1 404 0
 1530 00c2 3B1D     		adds	r3, r7, #4
 1531 00c4 1A46     		mov	r2, r3
 1532 00c6 1A49     		ldr	r1, .L93+60
 1533 00c8 0020     		movs	r0, #0
 1534 00ca FFF7FEFF 		bl	printNotif
 405:modem.c       ****         if(strstr(CFUN,"1") == NULL){
 1535              		.loc 1 405 0
 1536 00ce 3B1D     		adds	r3, r7, #4
 1537 00d0 3121     		movs	r1, #49
 1538 00d2 1846     		mov	r0, r3
 1539 00d4 FFF7FEFF 		bl	strchr
 1540 00d8 0346     		mov	r3, r0
 1541 00da 002B     		cmp	r3, #0
 1542 00dc 05D1     		bne	.L92
 406:modem.c       ****             at_write_command("AT+CFUN=1\r", "OK",DEFAULT_AT_TIMEOUT);
 1543              		.loc 1 406 0
 1544 00de 4FF4FA62 		mov	r2, #2000
 1545 00e2 0549     		ldr	r1, .L93+4
 1546 00e4 1348     		ldr	r0, .L93+64
 1547 00e6 FFF7FEFF 		bl	at_write_command
 1548              	.L92:
 1549              	.LBE8:
 407:modem.c       ****         }
 408:modem.c       ****     }
 409:modem.c       **** 
 410:modem.c       ****     
 411:modem.c       **** }
 1550              		.loc 1 411 0
 1551 00ea 00BF     		nop
 1552 00ec 1037     		adds	r7, r7, #16
 1553              		.cfi_def_cfa_offset 8
 1554 00ee BD46     		mov	sp, r7
 1555              		.cfi_def_cfa_register 13
 1556              		@ sp needed
 1557 00f0 80BD     		pop	{r7, pc}
 1558              	.L94:
 1559 00f2 00BF     		.align	2
 1560              	.L93:
 1561 00f4 00000000 		.word	modem_info
 1562 00f8 00000000 		.word	.LC0
 1563 00fc D8020000 		.word	.LC29
 1564 0100 14000000 		.word	modem_info+20
 1565 0104 4C020000 		.word	.LC18
 1566 0108 50020000 		.word	.LC19
 1567 010c 00000000 		.word	uart_received_string
 1568 0110 E4020000 		.word	.LC30
 1569 0114 F4020000 		.word	.LC31
 1570 0118 00030000 		.word	.LC32
 1571 011c 0C030000 		.word	.LC33
 1572 0120 28000000 		.word	modem_info+40
 1573 0124 18030000 		.word	.LC34
 1574 0128 24030000 		.word	.LC35
 1575 012c 50030000 		.word	.LC36
 1576 0130 5C030000 		.word	.LC37
ARM GAS  C:\Users\HYFI_A~1\AppData\Local\Temp\ccHqIvXz.s 			page 38


 1577 0134 68030000 		.word	.LC38
 1578              		.cfi_endproc
 1579              	.LFE80:
 1580              		.size	modem_configure_settings, .-modem_configure_settings
 1581              		.section	.rodata
 1582 0373 00       		.align	2
 1583              	.LC39:
 1584 0374 4D6F6465 		.ascii	"Modem not ready to get time. Not conncted to networ"
 1584      6D206E6F 
 1584      74207265 
 1584      61647920 
 1584      746F2067 
 1585 03a7 6B2E00   		.ascii	"k.\000"
 1586 03aa 0000     		.align	2
 1587              	.LC40:
 1588 03ac 41542B43 		.ascii	"AT+CCLK?\015\000"
 1588      434C4B3F 
 1588      0D00
 1589 03b6 0000     		.align	2
 1590              	.LC41:
 1591 03b8 220D00   		.ascii	"\"\015\000"
 1592 03bb 00       		.align	2
 1593              	.LC42:
 1594 03bc 3A202200 		.ascii	": \"\000"
 1595              		.align	2
 1596              	.LC43:
 1597 03c0 25642F25 		.ascii	"%d/%d/%d,%d:%d:%d-%d\000"
 1597      642F2564 
 1597      2C25643A 
 1597      25643A25 
 1597      642D2564 
 1598 03d5 000000   		.align	2
 1599              	.LC44:
 1600 03d8 25642F25 		.ascii	"%d/%d/%d,%d:%d:%d+%d\000"
 1600      642F2564 
 1600      2C25643A 
 1600      25643A25 
 1600      642B2564 
 1601 03ed 000000   		.align	2
 1602              	.LC45:
 1603 03f0 436F756C 		.ascii	"Could not parse modem time: %s.\000"
 1603      64206E6F 
 1603      74207061 
 1603      72736520 
 1603      6D6F6465 
 1604              		.section	.text.modem_get_network_time,"ax",%progbits
 1605              		.align	2
 1606              		.global	modem_get_network_time
 1607              		.thumb
 1608              		.thumb_func
 1609              		.type	modem_get_network_time, %function
 1610              	modem_get_network_time:
 1611              	.LFB81:
 412:modem.c       **** 
 413:modem.c       **** //returns 0 if modem can't get time
 414:modem.c       **** long modem_get_network_time(){
 1612              		.loc 1 414 0
ARM GAS  C:\Users\HYFI_A~1\AppData\Local\Temp\ccHqIvXz.s 			page 39


 1613              		.cfi_startproc
 1614              		@ args = 0, pretend = 0, frame = 104
 1615              		@ frame_needed = 1, uses_anonymous_args = 0
 1616 0000 80B5     		push	{r7, lr}
 1617              		.cfi_def_cfa_offset 8
 1618              		.cfi_offset 7, -8
 1619              		.cfi_offset 14, -4
 1620 0002 A0B0     		sub	sp, sp, #128
 1621              		.cfi_def_cfa_offset 136
 1622 0004 06AF     		add	r7, sp, #24
 1623              		.cfi_def_cfa 7, 112
 415:modem.c       ****     
 416:modem.c       ****     //modem reposen format (careful to include the quotes "")
 417:modem.c       ****     //+CCLK: "20/05/01,10:48:33-16" the "-16" is the number of quarter hourts (15 mins) from GMT ti
 418:modem.c       ****     //ex: 14:48 GMT
 419:modem.c       **** 
 420:modem.c       ****     if(modem_state != MODEM_STATE_READY){
 1624              		.loc 1 420 0
 1625 0006 444B     		ldr	r3, .L102
 1626 0008 1B78     		ldrb	r3, [r3]	@ zero_extendqisi2
 1627 000a 042B     		cmp	r3, #4
 1628 000c 05D0     		beq	.L96
 421:modem.c       ****         printNotif(NOTIF_TYPE_ERROR,"Modem not ready to get time. Not conncted to network.");
 1629              		.loc 1 421 0
 1630 000e 4349     		ldr	r1, .L102+4
 1631 0010 0220     		movs	r0, #2
 1632 0012 FFF7FEFF 		bl	printNotif
 422:modem.c       ****         return 0;   
 1633              		.loc 1 422 0
 1634 0016 0023     		movs	r3, #0
 1635 0018 7AE0     		b	.L97
 1636              	.L96:
 423:modem.c       ****     }
 424:modem.c       ****     long epoch_time = 0;
 1637              		.loc 1 424 0
 1638 001a 0023     		movs	r3, #0
 1639 001c 7B66     		str	r3, [r7, #100]
 425:modem.c       ****     
 426:modem.c       ****     if(at_write_command("AT+CCLK?\r","OK",DEFAULT_AT_TIMEOUT)){
 1640              		.loc 1 426 0
 1641 001e 4FF4FA62 		mov	r2, #2000
 1642 0022 3F49     		ldr	r1, .L102+8
 1643 0024 3F48     		ldr	r0, .L102+12
 1644 0026 FFF7FEFF 		bl	at_write_command
 1645 002a 0346     		mov	r3, r0
 1646 002c 002B     		cmp	r3, #0
 1647 002e 6ED0     		beq	.L98
 1648              	.LBB9:
 427:modem.c       ****         char network_time[30];
 428:modem.c       ****         extract_string(uart_received_string,": \"","\"\r",network_time);
 1649              		.loc 1 428 0
 1650 0030 07F14403 		add	r3, r7, #68
 1651 0034 3C4A     		ldr	r2, .L102+16
 1652 0036 3D49     		ldr	r1, .L102+20
 1653 0038 3D48     		ldr	r0, .L102+24
 1654 003a FFF7FEFF 		bl	extract_string
 429:modem.c       ****         
ARM GAS  C:\Users\HYFI_A~1\AppData\Local\Temp\ccHqIvXz.s 			page 40


 430:modem.c       ****         ///////////////////  
 431:modem.c       ****         struct tm t;
 432:modem.c       ****         
 433:modem.c       ****         int year, month, day, hour, minute, second, gmt_offset = 0;
 1655              		.loc 1 433 0
 1656 003e 0023     		movs	r3, #0
 1657 0040 BB62     		str	r3, [r7, #40]
 434:modem.c       ****       
 435:modem.c       ****         if(sscanf(network_time,"%d/%d/%d,%d:%d:%d-%d",&year,&month,&day,&hour,&minute,&second,&gmt_
 1658              		.loc 1 435 0
 1659 0042 07F13C01 		add	r1, r7, #60
 1660 0046 07F14002 		add	r2, r7, #64
 1661 004a 07F14400 		add	r0, r7, #68
 1662 004e 07F12803 		add	r3, r7, #40
 1663 0052 0493     		str	r3, [sp, #16]
 1664 0054 07F12C03 		add	r3, r7, #44
 1665 0058 0393     		str	r3, [sp, #12]
 1666 005a 07F13003 		add	r3, r7, #48
 1667 005e 0293     		str	r3, [sp, #8]
 1668 0060 07F13403 		add	r3, r7, #52
 1669 0064 0193     		str	r3, [sp, #4]
 1670 0066 07F13803 		add	r3, r7, #56
 1671 006a 0093     		str	r3, [sp]
 1672 006c 0B46     		mov	r3, r1
 1673 006e 3149     		ldr	r1, .L102+28
 1674 0070 FFF7FEFF 		bl	sscanf
 1675 0074 0346     		mov	r3, r0
 1676 0076 072B     		cmp	r3, #7
 1677 0078 06D1     		bne	.L99
 436:modem.c       ****             gmt_offset = gmt_offset*(900);
 1678              		.loc 1 436 0
 1679 007a BB6A     		ldr	r3, [r7, #40]
 1680 007c 4FF46172 		mov	r2, #900
 1681 0080 02FB03F3 		mul	r3, r2, r3
 1682 0084 BB62     		str	r3, [r7, #40]
 1683 0086 2AE0     		b	.L100
 1684              	.L99:
 437:modem.c       ****         }else if(sscanf(network_time,"%d/%d/%d,%d:%d:%d+%d",&year,&month,&day,&hour,&minute,&second
 1685              		.loc 1 437 0
 1686 0088 07F13C01 		add	r1, r7, #60
 1687 008c 07F14002 		add	r2, r7, #64
 1688 0090 07F14400 		add	r0, r7, #68
 1689 0094 07F12803 		add	r3, r7, #40
 1690 0098 0493     		str	r3, [sp, #16]
 1691 009a 07F12C03 		add	r3, r7, #44
 1692 009e 0393     		str	r3, [sp, #12]
 1693 00a0 07F13003 		add	r3, r7, #48
 1694 00a4 0293     		str	r3, [sp, #8]
 1695 00a6 07F13403 		add	r3, r7, #52
 1696 00aa 0193     		str	r3, [sp, #4]
 1697 00ac 07F13803 		add	r3, r7, #56
 1698 00b0 0093     		str	r3, [sp]
 1699 00b2 0B46     		mov	r3, r1
 1700 00b4 2049     		ldr	r1, .L102+32
 1701 00b6 FFF7FEFF 		bl	sscanf
 1702 00ba 0346     		mov	r3, r0
 1703 00bc 072B     		cmp	r3, #7
ARM GAS  C:\Users\HYFI_A~1\AppData\Local\Temp\ccHqIvXz.s 			page 41


 1704 00be 05D1     		bne	.L101
 438:modem.c       ****             gmt_offset = gmt_offset*(-900);
 1705              		.loc 1 438 0
 1706 00c0 BB6A     		ldr	r3, [r7, #40]
 1707 00c2 1E4A     		ldr	r2, .L102+36
 1708 00c4 02FB03F3 		mul	r3, r2, r3
 1709 00c8 BB62     		str	r3, [r7, #40]
 1710 00ca 08E0     		b	.L100
 1711              	.L101:
 439:modem.c       ****         }else{
 440:modem.c       ****             printNotif(NOTIF_TYPE_ERROR,"Could not parse modem time: %s.",network_time);
 1712              		.loc 1 440 0
 1713 00cc 07F14403 		add	r3, r7, #68
 1714 00d0 1A46     		mov	r2, r3
 1715 00d2 1B49     		ldr	r1, .L102+40
 1716 00d4 0220     		movs	r0, #2
 1717 00d6 FFF7FEFF 		bl	printNotif
 441:modem.c       ****             return 0;   
 1718              		.loc 1 441 0
 1719 00da 0023     		movs	r3, #0
 1720 00dc 18E0     		b	.L97
 1721              	.L100:
 442:modem.c       ****         }
 443:modem.c       ****         
 444:modem.c       ****         t.tm_sec = second;
 1722              		.loc 1 444 0
 1723 00de FB6A     		ldr	r3, [r7, #44]
 1724 00e0 7B60     		str	r3, [r7, #4]
 445:modem.c       ****         t.tm_min = minute;
 1725              		.loc 1 445 0
 1726 00e2 3B6B     		ldr	r3, [r7, #48]
 1727 00e4 BB60     		str	r3, [r7, #8]
 446:modem.c       ****         t.tm_hour = hour;
 1728              		.loc 1 446 0
 1729 00e6 7B6B     		ldr	r3, [r7, #52]
 1730 00e8 FB60     		str	r3, [r7, #12]
 447:modem.c       ****         t.tm_year = year + 100;    // Year since 1900
 1731              		.loc 1 447 0
 1732 00ea 3B6C     		ldr	r3, [r7, #64]
 1733 00ec 6433     		adds	r3, r3, #100
 1734 00ee BB61     		str	r3, [r7, #24]
 448:modem.c       ****         t.tm_mon = month-1;        // Month, where 0 = jan
 1735              		.loc 1 448 0
 1736 00f0 FB6B     		ldr	r3, [r7, #60]
 1737 00f2 013B     		subs	r3, r3, #1
 1738 00f4 7B61     		str	r3, [r7, #20]
 449:modem.c       ****         t.tm_mday = day;           // Day of the month
 1739              		.loc 1 449 0
 1740 00f6 BB6B     		ldr	r3, [r7, #56]
 1741 00f8 3B61     		str	r3, [r7, #16]
 450:modem.c       ****         t.tm_isdst = 0;            // Is Daylight Savings on? 1 = yes, 0 = no, -1 = unknown
 1742              		.loc 1 450 0
 1743 00fa 0023     		movs	r3, #0
 1744 00fc 7B62     		str	r3, [r7, #36]
 451:modem.c       ****     
 452:modem.c       ****         epoch_time = mktime(&t) + gmt_offset;
 1745              		.loc 1 452 0
ARM GAS  C:\Users\HYFI_A~1\AppData\Local\Temp\ccHqIvXz.s 			page 42


 1746 00fe 3B1D     		adds	r3, r7, #4
 1747 0100 1846     		mov	r0, r3
 1748 0102 FFF7FEFF 		bl	mktime
 1749 0106 0246     		mov	r2, r0
 1750 0108 BB6A     		ldr	r3, [r7, #40]
 1751 010a 1344     		add	r3, r3, r2
 1752 010c 7B66     		str	r3, [r7, #100]
 1753              	.L98:
 1754              	.LBE9:
 453:modem.c       ****     }
 454:modem.c       **** 
 455:modem.c       ****     
 456:modem.c       ****     return epoch_time;
 1755              		.loc 1 456 0
 1756 010e 7B6E     		ldr	r3, [r7, #100]
 1757              	.L97:
 457:modem.c       **** }
 1758              		.loc 1 457 0
 1759 0110 1846     		mov	r0, r3
 1760 0112 6837     		adds	r7, r7, #104
 1761              		.cfi_def_cfa_offset 8
 1762 0114 BD46     		mov	sp, r7
 1763              		.cfi_def_cfa_register 13
 1764              		@ sp needed
 1765 0116 80BD     		pop	{r7, pc}
 1766              	.L103:
 1767              		.align	2
 1768              	.L102:
 1769 0118 00000000 		.word	modem_state
 1770 011c 74030000 		.word	.LC39
 1771 0120 00000000 		.word	.LC0
 1772 0124 AC030000 		.word	.LC40
 1773 0128 B8030000 		.word	.LC41
 1774 012c BC030000 		.word	.LC42
 1775 0130 00000000 		.word	uart_received_string
 1776 0134 C0030000 		.word	.LC43
 1777 0138 D8030000 		.word	.LC44
 1778 013c 7CFCFFFF 		.word	-900
 1779 0140 F0030000 		.word	.LC45
 1780              		.cfi_endproc
 1781              	.LFE81:
 1782              		.size	modem_get_network_time, .-modem_get_network_time
 1783              		.section	.text.modem_get_state,"ax",%progbits
 1784              		.align	2
 1785              		.global	modem_get_state
 1786              		.thumb
 1787              		.thumb_func
 1788              		.type	modem_get_state, %function
 1789              	modem_get_state:
 1790              	.LFB82:
 458:modem.c       **** 
 459:modem.c       **** 
 460:modem.c       **** 
 461:modem.c       **** 
 462:modem.c       **** uint8 modem_get_state(){
 1791              		.loc 1 462 0
 1792              		.cfi_startproc
ARM GAS  C:\Users\HYFI_A~1\AppData\Local\Temp\ccHqIvXz.s 			page 43


 1793              		@ args = 0, pretend = 0, frame = 0
 1794              		@ frame_needed = 1, uses_anonymous_args = 0
 1795              		@ link register save eliminated.
 1796 0000 80B4     		push	{r7}
 1797              		.cfi_def_cfa_offset 4
 1798              		.cfi_offset 7, -4
 1799 0002 00AF     		add	r7, sp, #0
 1800              		.cfi_def_cfa_register 7
 463:modem.c       ****     return modem_state;
 1801              		.loc 1 463 0
 1802 0004 024B     		ldr	r3, .L106
 1803 0006 1B78     		ldrb	r3, [r3]	@ zero_extendqisi2
 464:modem.c       **** }
 1804              		.loc 1 464 0
 1805 0008 1846     		mov	r0, r3
 1806 000a BD46     		mov	sp, r7
 1807              		.cfi_def_cfa_register 13
 1808              		@ sp needed
 1809 000c 80BC     		pop	{r7}
 1810              		.cfi_restore 7
 1811              		.cfi_def_cfa_offset 0
 1812 000e 7047     		bx	lr
 1813              	.L107:
 1814              		.align	2
 1815              	.L106:
 1816 0010 00000000 		.word	modem_state
 1817              		.cfi_endproc
 1818              	.LFE82:
 1819              		.size	modem_get_state, .-modem_get_state
 1820              		.section	.text.modem_sleep,"ax",%progbits
 1821              		.align	2
 1822              		.global	modem_sleep
 1823              		.thumb
 1824              		.thumb_func
 1825              		.type	modem_sleep, %function
 1826              	modem_sleep:
 1827              	.LFB83:
 465:modem.c       **** 
 466:modem.c       **** void modem_sleep(){
 1828              		.loc 1 466 0
 1829              		.cfi_startproc
 1830              		@ args = 0, pretend = 0, frame = 0
 1831              		@ frame_needed = 1, uses_anonymous_args = 0
 1832 0000 80B5     		push	{r7, lr}
 1833              		.cfi_def_cfa_offset 8
 1834              		.cfi_offset 7, -8
 1835              		.cfi_offset 14, -4
 1836 0002 00AF     		add	r7, sp, #0
 1837              		.cfi_def_cfa_register 7
 467:modem.c       ****     if(modem_get_state() != MODEM_STATE_OFF){
 1838              		.loc 1 467 0
 1839 0004 FFF7FEFF 		bl	modem_get_state
 1840 0008 0346     		mov	r3, r0
 1841 000a 002B     		cmp	r3, #0
 1842 000c 03D0     		beq	.L110
 468:modem.c       **** 
 469:modem.c       ****         Telit_ControlReg_Sleep();
ARM GAS  C:\Users\HYFI_A~1\AppData\Local\Temp\ccHqIvXz.s 			page 44


 1843              		.loc 1 469 0
 1844 000e FFF7FEFF 		bl	Telit_ControlReg_Sleep
 470:modem.c       ****         UART_Telit_Sleep();
 1845              		.loc 1 470 0
 1846 0012 FFF7FEFF 		bl	UART_Telit_Sleep
 1847              	.L110:
 471:modem.c       ****         
 472:modem.c       ****         //set interrupt on RX pin to wakeup chip from sleep if UART comm starts
 473:modem.c       ****        // Rx_Telit_SetInterruptMode(Rx_Telit_0_INTR,Rx_Telit_INTR_FALLING);
 474:modem.c       ****      }
 475:modem.c       **** }
 1848              		.loc 1 475 0
 1849 0016 00BF     		nop
 1850 0018 80BD     		pop	{r7, pc}
 1851              		.cfi_endproc
 1852              	.LFE83:
 1853              		.size	modem_sleep, .-modem_sleep
 1854 001a 00BF     		.section	.text.modem_wakeup,"ax",%progbits
 1855              		.align	2
 1856              		.global	modem_wakeup
 1857              		.thumb
 1858              		.thumb_func
 1859              		.type	modem_wakeup, %function
 1860              	modem_wakeup:
 1861              	.LFB84:
 476:modem.c       **** 
 477:modem.c       **** void modem_wakeup(){
 1862              		.loc 1 477 0
 1863              		.cfi_startproc
 1864              		@ args = 0, pretend = 0, frame = 0
 1865              		@ frame_needed = 1, uses_anonymous_args = 0
 1866 0000 80B5     		push	{r7, lr}
 1867              		.cfi_def_cfa_offset 8
 1868              		.cfi_offset 7, -8
 1869              		.cfi_offset 14, -4
 1870 0002 00AF     		add	r7, sp, #0
 1871              		.cfi_def_cfa_register 7
 478:modem.c       ****      if(modem_get_state() != MODEM_STATE_OFF){
 1872              		.loc 1 478 0
 1873 0004 FFF7FEFF 		bl	modem_get_state
 1874 0008 0346     		mov	r3, r0
 1875 000a 002B     		cmp	r3, #0
 1876 000c 0BD0     		beq	.L113
 479:modem.c       ****         Telit_ControlReg_Wakeup();
 1877              		.loc 1 479 0
 1878 000e FFF7FEFF 		bl	Telit_ControlReg_Wakeup
 480:modem.c       ****         UART_Telit_Wakeup();
 1879              		.loc 1 480 0
 1880 0012 FFF7FEFF 		bl	UART_Telit_Wakeup
 481:modem.c       ****         //remove the need for this pin itterupt
 482:modem.c       ****         //Rx_Telit_SetInterruptMode(Rx_Telit_0_INTR,Rx_Telit_INTR_NONE);
 483:modem.c       ****         //if woken up from pin, go ahead and delay for 100ms to allow modem UART to deliver the mes
 484:modem.c       ****         if(modem_get_state() == MODEM_STATE_WAITING_FOR_IP){
 1881              		.loc 1 484 0
 1882 0016 FFF7FEFF 		bl	modem_get_state
 1883 001a 0346     		mov	r3, r0
 1884 001c 032B     		cmp	r3, #3
ARM GAS  C:\Users\HYFI_A~1\AppData\Local\Temp\ccHqIvXz.s 			page 45


 1885 001e 02D1     		bne	.L113
 485:modem.c       ****             CyDelay(100u);
 1886              		.loc 1 485 0
 1887 0020 6420     		movs	r0, #100
 1888 0022 FFF7FEFF 		bl	CyDelay
 1889              	.L113:
 486:modem.c       ****         }
 487:modem.c       ****         
 488:modem.c       ****      }
 489:modem.c       ****     
 490:modem.c       **** }
 1890              		.loc 1 490 0
 1891 0026 00BF     		nop
 1892 0028 80BD     		pop	{r7, pc}
 1893              		.cfi_endproc
 1894              	.LFE84:
 1895              		.size	modem_wakeup, .-modem_wakeup
 1896 002a 00BF     		.section	.rodata
 1897              		.align	2
 1898              	.LC46:
 1899 0410 41542447 		.ascii	"AT$GPSQOS=50,50,100,0\015\000"
 1899      5053514F 
 1899      533D3530 
 1899      2C35302C 
 1899      3130302C 
 1900 0427 00       		.align	2
 1901              	.LC47:
 1902 0428 4154244C 		.ascii	"AT$LCSSLP=1,\"supl.google.com\"\015\000"
 1902      4353534C 
 1902      503D312C 
 1902      22737570 
 1902      6C2E676F 
 1903 0447 00       		.align	2
 1904              	.LC48:
 1905 0448 41542353 		.ascii	"AT#SGACT=1,0\015\012\000"
 1905      47414354 
 1905      3D312C30 
 1905      0D0A00
 1906 0457 00       		.align	2
 1907              	.LC49:
 1908 0458 4154244C 		.ascii	"AT$LCSLK=1,1\015\000"
 1908      43534C4B 
 1908      3D312C31 
 1908      0D00
 1909 0466 0000     		.align	2
 1910              	.LC50:
 1911 0468 41542447 		.ascii	"AT$GPSNMUN=2,1,0,0,0,0,0\015\000"
 1911      50534E4D 
 1911      554E3D32 
 1911      2C312C30 
 1911      2C302C30 
 1912 0482 0000     		.align	2
 1913              	.LC51:
 1914 0484 4E00     		.ascii	"N\000"
 1915 0486 0000     		.align	2
 1916              	.LC52:
 1917 0488 41542447 		.ascii	"AT$GPSSLSR=1,1,,,,,0,255\015\000"
ARM GAS  C:\Users\HYFI_A~1\AppData\Local\Temp\ccHqIvXz.s 			page 46


 1917      5053534C 
 1917      53523D31 
 1917      2C312C2C 
 1917      2C2C2C30 
 1918 04a2 0000     		.align	2
 1919              	.LC53:
 1920 04a4 252A732C 		.ascii	"%*s,%f,N,%f,W,%*s\000"
 1920      25662C4E 
 1920      2C25662C 
 1920      572C252A 
 1920      7300
 1921              		.global	__aeabi_fdiv
 1922 04b6 0000     		.align	2
 1923              	.LC54:
 1924 04b8 41542447 		.ascii	"AT$GPSP=0\015\000"
 1924      5053503D 
 1924      300D00
 1925              		.section	.text.modem_get_gps_coordinates,"ax",%progbits
 1926              		.align	2
 1927              		.global	modem_get_gps_coordinates
 1928              		.thumb
 1929              		.thumb_func
 1930              		.type	modem_get_gps_coordinates, %function
 1931              	modem_get_gps_coordinates:
 1932              	.LFB85:
 491:modem.c       **** 
 492:modem.c       **** 
 493:modem.c       ****     
 494:modem.c       **** //retunrs lat,lom,alt data from Assited GPS (AGPS) system
 495:modem.c       **** gps_t modem_get_gps_coordinates(){
 1933              		.loc 1 495 0
 1934              		.cfi_startproc
 1935              		@ args = 0, pretend = 0, frame = 48
 1936              		@ frame_needed = 1, uses_anonymous_args = 0
 1937 0000 90B5     		push	{r4, r7, lr}
 1938              		.cfi_def_cfa_offset 12
 1939              		.cfi_offset 4, -12
 1940              		.cfi_offset 7, -8
 1941              		.cfi_offset 14, -4
 1942 0002 8DB0     		sub	sp, sp, #52
 1943              		.cfi_def_cfa_offset 64
 1944 0004 00AF     		add	r7, sp, #0
 1945              		.cfi_def_cfa_register 7
 1946 0006 7860     		str	r0, [r7, #4]
 496:modem.c       ****     gps_t gps;
 497:modem.c       ****     gps.altitude = 0;
 1947              		.loc 1 497 0
 1948 0008 4FF00003 		mov	r3, #0
 1949 000c FB61     		str	r3, [r7, #28]	@ float
 498:modem.c       ****     gps.longitude = 0;
 1950              		.loc 1 498 0
 1951 000e 4FF00003 		mov	r3, #0
 1952 0012 BB61     		str	r3, [r7, #24]	@ float
 499:modem.c       ****     gps.latitude = 0;
 1953              		.loc 1 499 0
 1954 0014 4FF00003 		mov	r3, #0
 1955 0018 7B61     		str	r3, [r7, #20]	@ float
ARM GAS  C:\Users\HYFI_A~1\AppData\Local\Temp\ccHqIvXz.s 			page 47


 500:modem.c       ****     gps.time_to_lock =0;
 1956              		.loc 1 500 0
 1957 001a 0023     		movs	r3, #0
 1958 001c 3B84     		strh	r3, [r7, #32]	@ movhi
 501:modem.c       ****     gps.valid = 0;
 1959              		.loc 1 501 0
 1960 001e 0023     		movs	r3, #0
 1961 0020 87F82230 		strb	r3, [r7, #34]
 502:modem.c       ****     
 503:modem.c       ****     //AGPS will only work if we're connected to network, so don't call this fuction otherwise
 504:modem.c       ****     if(modem_state != MODEM_STATE_READY){
 1962              		.loc 1 504 0
 1963 0024 464B     		ldr	r3, .L125
 1964 0026 1B78     		ldrb	r3, [r3]	@ zero_extendqisi2
 1965 0028 042B     		cmp	r3, #4
 1966 002a 07D0     		beq	.L115
 505:modem.c       ****         return gps;//where valid = 0
 1967              		.loc 1 505 0
 1968 002c 7B68     		ldr	r3, [r7, #4]
 1969 002e 1C46     		mov	r4, r3
 1970 0030 07F11403 		add	r3, r7, #20
 1971 0034 0FCB     		ldmia	r3, {r0, r1, r2, r3}
 1972 0036 84E80F00 		stmia	r4, {r0, r1, r2, r3}
 1973 003a 7CE0     		b	.L114
 1974              	.L115:
 506:modem.c       ****     }
 507:modem.c       ****     
 508:modem.c       ****     long lock_time = getTimeStamp();
 1975              		.loc 1 508 0
 1976 003c FFF7FEFF 		bl	getTimeStamp
 1977 0040 B862     		str	r0, [r7, #40]
 509:modem.c       ****     
 510:modem.c       ****     /*enable this for thr LTER module
 511:modem.c       ****     //enable GPS Low-Dropout Regulator
 512:modem.c       ****     at_write_command("AT#GPIO=5,1,1,0\r","OK",DEFAULT_AT_TIMEOUT);
 513:modem.c       ****     
 514:modem.c       ****     //configure SUPL connection params
 515:modem.c       ****     at_write_command("AT$SUPLSEC=1\r","OK",DEFAULT_AT_TIMEOUT);
 516:modem.c       ****     
 517:modem.c       ****     //use SUPL2.0
 518:modem.c       ****     at_write_command("AT$SUPLV2=1\r","OK",DEFAULT_AT_TIMEOUT);
 519:modem.c       ****     
 520:modem.c       ****     //enable AGPS service
 521:modem.c       ****     at_write_command("AT$AGPSEN=1\r","OK",DEFAULT_AT_TIMEOUT);
 522:modem.c       ****     
 523:modem.c       ****     //chose SUPL server, use google publiuc service
 524:modem.c       ****     at_write_command("AT$SLP=1,\"supl.google.com:7275\"\r","OK",DEFAULT_AT_TIMEOUT);
 525:modem.c       ****     
 526:modem.c       ****     //pdp context has to be lockeed to carrier for this to work
 527:modem.c       ****     
 528:modem.c       ****     at_write_command("AT$LCSLK=1,1\r","OK",DEFAULT_AT_TIMEOUT);//ATT
 529:modem.c       ****     //at_write_command("AT$LCSLK=1,3\r","OK",DEFAULT_AT_TIMEOUT);//Verizon
 530:modem.c       ****     
 531:modem.c       ****     //start the AGPS service
 532:modem.c       ****     //will keep receiving a buynch of commas without numbers, until GPS locks
 533:modem.c       ****     //good lock will retunr a string with "N" and "W" coordinates
 534:modem.c       ****     
ARM GAS  C:\Users\HYFI_A~1\AppData\Local\Temp\ccHqIvXz.s 			page 48


 535:modem.c       ****     
 536:modem.c       ****  
 537:modem.c       ****     uint8 gps_status = 0;
 538:modem.c       ****     for(uint16 i=0;i<200;i++){
 539:modem.c       ****         gps_status = at_write_command("AT$GPSACP\r","N",DEFAULT_AT_TIMEOUT);//ATT
 540:modem.c       ****         if(gps_status){
 541:modem.c       ****             break;   
 542:modem.c       ****         }
 543:modem.c       ****         CyDelay(1000u);//wait for a second -- BLOCKING. Could be more elegant to incorporate this i
 544:modem.c       ****     }
 545:modem.c       ****     
 546:modem.c       ****     
 547:modem.c       ****     //parse data here
 548:modem.c       ****     
 549:modem.c       ****     //disable LDO, just in case
 550:modem.c       ****     at_write_command("AT#GPIO=5,0,1,0\r","OK",DEFAULT_AT_TIMEOUT);
 551:modem.c       ****     
 552:modem.c       ****     //flush modem's GPS data, just in case
 553:modem.c       ****     at_write_command("AT$GPSR=0\r","OK",DEFAULT_AT_TIMEOUT);
 554:modem.c       ****     
 555:modem.c       ****     */
 556:modem.c       ****     
 557:modem.c       ****     
 558:modem.c       ****     //Setthe GPS Quality of Servicep arameters. Inorder,theyare<horiz_accuracy(inmeters)>,<vertical
 559:modem.c       ****     //AT$GPSQOS=50,50,100,0
 560:modem.c       ****     at_write_command("AT$GPSQOS=50,50,100,0\r","OK",DEFAULT_AT_TIMEOUT);
 1978              		.loc 1 560 0
 1979 0042 4FF4FA62 		mov	r2, #2000
 1980 0046 3F49     		ldr	r1, .L125+4
 1981 0048 3F48     		ldr	r0, .L125+8
 1982 004a FFF7FEFF 		bl	at_write_command
 561:modem.c       ****     
 562:modem.c       ****     //SettheSUPLLocationPlatform(SLP)addressoftheserverthatwillprovidetheA-GPS data:
 563:modem.c       ****     at_write_command("AT$LCSSLP=1,\"supl.google.com\"\r","OK",DEFAULT_AT_TIMEOUT);
 1983              		.loc 1 563 0
 1984 004e 4FF4FA62 		mov	r2, #2000
 1985 0052 3C49     		ldr	r1, .L125+4
 1986 0054 3D48     		ldr	r0, .L125+12
 1987 0056 FFF7FEFF 		bl	at_write_command
 564:modem.c       ****     
 565:modem.c       ****     //unlock contedt, simnce its being used by modem
 566:modem.c       ****     at_write_command("AT#SGACT=1,0\r\n", "OK",DEFAULT_AT_TIMEOUT);
 1988              		.loc 1 566 0
 1989 005a 4FF4FA62 		mov	r2, #2000
 1990 005e 3949     		ldr	r1, .L125+4
 1991 0060 3B48     		ldr	r0, .L125+16
 1992 0062 FFF7FEFF 		bl	at_write_command
 567:modem.c       ****     //Lock context 1 for LoCation Services (LCS) use only
 568:modem.c       ****     at_write_command("AT$LCSLK=1,1\r","OK",5000u);
 1993              		.loc 1 568 0
 1994 0066 41F28832 		movw	r2, #5000
 1995 006a 3649     		ldr	r1, .L125+4
 1996 006c 3948     		ldr	r0, .L125+20
 1997 006e FFF7FEFF 		bl	at_write_command
 569:modem.c       ****     
 570:modem.c       ****     //unlock contedt, simnce its being used by modem
 571:modem.c       ****     at_write_command("AT#SGACT=1,1\r\n", "OK",10000u);
ARM GAS  C:\Users\HYFI_A~1\AppData\Local\Temp\ccHqIvXz.s 			page 49


 1998              		.loc 1 571 0
 1999 0072 42F21072 		movw	r2, #10000
 2000 0076 3349     		ldr	r1, .L125+4
 2001 0078 3748     		ldr	r0, .L125+24
 2002 007a FFF7FEFF 		bl	at_write_command
 572:modem.c       ****     
 573:modem.c       ****     //EnableunsolicitedNMEAGPSdataintheformatof<NMEASENTENCE><CR>
 574:modem.c       ****     at_write_command("AT$GPSNMUN=2,1,0,0,0,0,0\r","OK",DEFAULT_AT_TIMEOUT);
 2003              		.loc 1 574 0
 2004 007e 4FF4FA62 		mov	r2, #2000
 2005 0082 3049     		ldr	r1, .L125+4
 2006 0084 3548     		ldr	r0, .L125+28
 2007 0086 FFF7FEFF 		bl	at_write_command
 575:modem.c       ****     
 576:modem.c       ****     //StartGPSlocationservicerequest.Sendingthiscommandsets$GPSP=1
 577:modem.c       ****    uint8 gps_status = 0;
 2008              		.loc 1 577 0
 2009 008a 0023     		movs	r3, #0
 2010 008c 87F82F30 		strb	r3, [r7, #47]
 2011              	.LBB10:
 578:modem.c       ****     for(uint16 i=0;i<200;i++){
 2012              		.loc 1 578 0
 2013 0090 0023     		movs	r3, #0
 2014 0092 BB85     		strh	r3, [r7, #44]	@ movhi
 2015 0094 0FE0     		b	.L117
 2016              	.L120:
 579:modem.c       ****         gps_status = at_write_command("AT$GPSSLSR=1,1,,,,,0,255\r","N",3000u);
 2017              		.loc 1 579 0
 2018 0096 40F6B832 		movw	r2, #3000
 2019 009a 3149     		ldr	r1, .L125+32
 2020 009c 3148     		ldr	r0, .L125+36
 2021 009e FFF7FEFF 		bl	at_write_command
 2022 00a2 0346     		mov	r3, r0
 2023 00a4 87F82F30 		strb	r3, [r7, #47]
 580:modem.c       ****         if(gps_status){
 2024              		.loc 1 580 0
 2025 00a8 97F82F30 		ldrb	r3, [r7, #47]	@ zero_extendqisi2
 2026 00ac 002B     		cmp	r3, #0
 2027 00ae 06D1     		bne	.L124
 578:modem.c       ****     for(uint16 i=0;i<200;i++){
 2028              		.loc 1 578 0 discriminator 2
 2029 00b0 BB8D     		ldrh	r3, [r7, #44]
 2030 00b2 0133     		adds	r3, r3, #1
 2031 00b4 BB85     		strh	r3, [r7, #44]	@ movhi
 2032              	.L117:
 578:modem.c       ****     for(uint16 i=0;i<200;i++){
 2033              		.loc 1 578 0 is_stmt 0 discriminator 1
 2034 00b6 BB8D     		ldrh	r3, [r7, #44]
 2035 00b8 C72B     		cmp	r3, #199
 2036 00ba ECD9     		bls	.L120
 2037 00bc 00E0     		b	.L119
 2038              	.L124:
 581:modem.c       ****             break;   
 2039              		.loc 1 581 0 is_stmt 1
 2040 00be 00BF     		nop
 2041              	.L119:
 2042              	.LBE10:
ARM GAS  C:\Users\HYFI_A~1\AppData\Local\Temp\ccHqIvXz.s 			page 50


 582:modem.c       ****         }
 583:modem.c       ****   }
 584:modem.c       ****     
 585:modem.c       ****     //$GPGGA,030307.691,4217.7923,N,08341.3240,W,1,05,2.25,225.0,M,,M,,0000*6E
 586:modem.c       ****     //$GPGGA,213852.000,4600.8755,N,09327.7008,W,1,05,3.00,292.0,M,,M,,0000*6E
 587:modem.c       ****     if(gps_status){
 2043              		.loc 1 587 0
 2044 00c0 97F82F30 		ldrb	r3, [r7, #47]	@ zero_extendqisi2
 2045 00c4 002B     		cmp	r3, #0
 2046 00c6 20D0     		beq	.L121
 2047              	.LBB11:
 588:modem.c       ****         float lat,lon,alt = 0;
 2048              		.loc 1 588 0
 2049 00c8 4FF00003 		mov	r3, #0
 2050 00cc 7B62     		str	r3, [r7, #36]	@ float
 589:modem.c       ****         if(sscanf(uart_received_string,"%*s,%f,N,%f,W,%*s",&lat,&lon) > 0){
 2051              		.loc 1 589 0
 2052 00ce 07F10C03 		add	r3, r7, #12
 2053 00d2 07F11002 		add	r2, r7, #16
 2054 00d6 2449     		ldr	r1, .L125+40
 2055 00d8 2448     		ldr	r0, .L125+44
 2056 00da FFF7FEFF 		bl	sscanf
 2057 00de 0346     		mov	r3, r0
 2058 00e0 002B     		cmp	r3, #0
 2059 00e2 12DD     		ble	.L121
 590:modem.c       ****             gps.altitude = alt;
 2060              		.loc 1 590 0
 2061 00e4 7B6A     		ldr	r3, [r7, #36]	@ float
 2062 00e6 FB61     		str	r3, [r7, #28]	@ float
 591:modem.c       ****             gps.latitude = lat/60;
 2063              		.loc 1 591 0
 2064 00e8 3B69     		ldr	r3, [r7, #16]	@ float
 2065 00ea 2149     		ldr	r1, .L125+48
 2066 00ec 1846     		mov	r0, r3
 2067 00ee FFF7FEFF 		bl	__aeabi_fdiv
 2068 00f2 0346     		mov	r3, r0
 2069 00f4 7B61     		str	r3, [r7, #20]	@ float
 592:modem.c       ****             gps.longitude = lon/60;
 2070              		.loc 1 592 0
 2071 00f6 FB68     		ldr	r3, [r7, #12]	@ float
 2072 00f8 1D49     		ldr	r1, .L125+48
 2073 00fa 1846     		mov	r0, r3
 2074 00fc FFF7FEFF 		bl	__aeabi_fdiv
 2075 0100 0346     		mov	r3, r0
 2076 0102 BB61     		str	r3, [r7, #24]	@ float
 593:modem.c       ****             gps.valid = 1;
 2077              		.loc 1 593 0
 2078 0104 0123     		movs	r3, #1
 2079 0106 87F82230 		strb	r3, [r7, #34]
 2080              	.L121:
 2081              	.LBE11:
 594:modem.c       ****         }
 595:modem.c       ****         
 596:modem.c       ****     }
 597:modem.c       ****     
 598:modem.c       ****     //turn off gps
 599:modem.c       ****     //AT$GPSP=0
ARM GAS  C:\Users\HYFI_A~1\AppData\Local\Temp\ccHqIvXz.s 			page 51


 600:modem.c       ****     at_write_command("AT$GPSP=0\r","OK",DEFAULT_AT_TIMEOUT);
 2082              		.loc 1 600 0
 2083 010a 4FF4FA62 		mov	r2, #2000
 2084 010e 0D49     		ldr	r1, .L125+4
 2085 0110 1848     		ldr	r0, .L125+52
 2086 0112 FFF7FEFF 		bl	at_write_command
 601:modem.c       ****     
 602:modem.c       ****     
 603:modem.c       **** 
 604:modem.c       ****     
 605:modem.c       ****     lock_time = getTimeStamp() - lock_time;
 2087              		.loc 1 605 0
 2088 0116 FFF7FEFF 		bl	getTimeStamp
 2089 011a 0246     		mov	r2, r0
 2090 011c BB6A     		ldr	r3, [r7, #40]
 2091 011e D31A     		subs	r3, r2, r3
 2092 0120 BB62     		str	r3, [r7, #40]
 606:modem.c       ****     gps.time_to_lock = lock_time;
 2093              		.loc 1 606 0
 2094 0122 BB6A     		ldr	r3, [r7, #40]
 2095 0124 9BB2     		uxth	r3, r3
 2096 0126 3B84     		strh	r3, [r7, #32]	@ movhi
 607:modem.c       ****     
 608:modem.c       ****     return gps;
 2097              		.loc 1 608 0
 2098 0128 7B68     		ldr	r3, [r7, #4]
 2099 012a 1C46     		mov	r4, r3
 2100 012c 07F11403 		add	r3, r7, #20
 2101 0130 0FCB     		ldmia	r3, {r0, r1, r2, r3}
 2102 0132 84E80F00 		stmia	r4, {r0, r1, r2, r3}
 2103              	.L114:
 609:modem.c       ****     
 610:modem.c       **** }
 2104              		.loc 1 610 0
 2105 0136 7868     		ldr	r0, [r7, #4]
 2106 0138 3437     		adds	r7, r7, #52
 2107              		.cfi_def_cfa_offset 12
 2108 013a BD46     		mov	sp, r7
 2109              		.cfi_def_cfa_register 13
 2110              		@ sp needed
 2111 013c 90BD     		pop	{r4, r7, pc}
 2112              	.L126:
 2113 013e 00BF     		.align	2
 2114              	.L125:
 2115 0140 00000000 		.word	modem_state
 2116 0144 00000000 		.word	.LC0
 2117 0148 10040000 		.word	.LC46
 2118 014c 28040000 		.word	.LC47
 2119 0150 48040000 		.word	.LC48
 2120 0154 58040000 		.word	.LC49
 2121 0158 98020000 		.word	.LC23
 2122 015c 68040000 		.word	.LC50
 2123 0160 84040000 		.word	.LC51
 2124 0164 88040000 		.word	.LC52
 2125 0168 A4040000 		.word	.LC53
 2126 016c 00000000 		.word	uart_received_string
 2127 0170 00007042 		.word	1114636288
ARM GAS  C:\Users\HYFI_A~1\AppData\Local\Temp\ccHqIvXz.s 			page 52


 2128 0174 B8040000 		.word	.LC54
 2129              		.cfi_endproc
 2130              	.LFE85:
 2131              		.size	modem_get_gps_coordinates, .-modem_get_gps_coordinates
 2132              		.text
 2133              	.Letext0:
 2134              		.file 2 "c:\\program files (x86)\\cypress\\psoc creator\\4.3\\psoc creator\\import\\gnu\\arm\\5.4.
 2135              		.file 3 "c:\\program files (x86)\\cypress\\psoc creator\\4.3\\psoc creator\\import\\gnu\\arm\\5.4.
 2136              		.file 4 "Generated_Source\\PSoC5/cytypes.h"
 2137              		.file 5 "c:\\program files (x86)\\cypress\\psoc creator\\4.3\\psoc creator\\import\\gnu\\arm\\5.4.
 2138              		.file 6 "testing.h"
 2139              		.file 7 "modem.h"
 2140              		.file 8 "data.h"
 2141              		.file 9 "notoriOS.h"
 2142              		.file 10 "Generated_Source\\PSoC5/core_cm3.h"
 2143              		.section	.debug_info,"",%progbits
 2144              	.Ldebug_info0:
 2145 0000 BB090000 		.4byte	0x9bb
 2146 0004 0400     		.2byte	0x4
 2147 0006 00000000 		.4byte	.Ldebug_abbrev0
 2148 000a 04       		.byte	0x4
 2149 000b 01       		.uleb128 0x1
 2150 000c 3C000000 		.4byte	.LASF129
 2151 0010 0C       		.byte	0xc
 2152 0011 14030000 		.4byte	.LASF130
 2153 0015 39040000 		.4byte	.LASF131
 2154 0019 00000000 		.4byte	.Ldebug_ranges0+0
 2155 001d 00000000 		.4byte	0
 2156 0021 00000000 		.4byte	.Ldebug_line0
 2157 0025 02       		.uleb128 0x2
 2158 0026 01       		.byte	0x1
 2159 0027 06       		.byte	0x6
 2160 0028 26010000 		.4byte	.LASF0
 2161 002c 03       		.uleb128 0x3
 2162 002d 28000000 		.4byte	.LASF4
 2163 0031 02       		.byte	0x2
 2164 0032 1D       		.byte	0x1d
 2165 0033 37000000 		.4byte	0x37
 2166 0037 02       		.uleb128 0x2
 2167 0038 01       		.byte	0x1
 2168 0039 08       		.byte	0x8
 2169 003a 9C040000 		.4byte	.LASF1
 2170 003e 02       		.uleb128 0x2
 2171 003f 02       		.byte	0x2
 2172 0040 05       		.byte	0x5
 2173 0041 4C030000 		.4byte	.LASF2
 2174 0045 02       		.uleb128 0x2
 2175 0046 02       		.byte	0x2
 2176 0047 07       		.byte	0x7
 2177 0048 DE010000 		.4byte	.LASF3
 2178 004c 03       		.uleb128 0x3
 2179 004d 61030000 		.4byte	.LASF5
 2180 0051 02       		.byte	0x2
 2181 0052 3F       		.byte	0x3f
 2182 0053 57000000 		.4byte	0x57
 2183 0057 02       		.uleb128 0x2
 2184 0058 04       		.byte	0x4
ARM GAS  C:\Users\HYFI_A~1\AppData\Local\Temp\ccHqIvXz.s 			page 53


 2185 0059 05       		.byte	0x5
 2186 005a 7B010000 		.4byte	.LASF6
 2187 005e 03       		.uleb128 0x3
 2188 005f 01020000 		.4byte	.LASF7
 2189 0063 02       		.byte	0x2
 2190 0064 41       		.byte	0x41
 2191 0065 69000000 		.4byte	0x69
 2192 0069 02       		.uleb128 0x2
 2193 006a 04       		.byte	0x4
 2194 006b 07       		.byte	0x7
 2195 006c 78020000 		.4byte	.LASF8
 2196 0070 02       		.uleb128 0x2
 2197 0071 08       		.byte	0x8
 2198 0072 05       		.byte	0x5
 2199 0073 18010000 		.4byte	.LASF9
 2200 0077 02       		.uleb128 0x2
 2201 0078 08       		.byte	0x8
 2202 0079 07       		.byte	0x7
 2203 007a D7000000 		.4byte	.LASF10
 2204 007e 04       		.uleb128 0x4
 2205 007f 04       		.byte	0x4
 2206 0080 05       		.byte	0x5
 2207 0081 696E7400 		.ascii	"int\000"
 2208 0085 02       		.uleb128 0x2
 2209 0086 04       		.byte	0x4
 2210 0087 07       		.byte	0x7
 2211 0088 5D050000 		.4byte	.LASF11
 2212 008c 03       		.uleb128 0x3
 2213 008d 4B060000 		.4byte	.LASF12
 2214 0091 03       		.byte	0x3
 2215 0092 18       		.byte	0x18
 2216 0093 2C000000 		.4byte	0x2c
 2217 0097 03       		.uleb128 0x3
 2218 0098 94040000 		.4byte	.LASF13
 2219 009c 03       		.byte	0x3
 2220 009d 2C       		.byte	0x2c
 2221 009e 4C000000 		.4byte	0x4c
 2222 00a2 03       		.uleb128 0x3
 2223 00a3 25060000 		.4byte	.LASF14
 2224 00a7 03       		.byte	0x3
 2225 00a8 30       		.byte	0x30
 2226 00a9 5E000000 		.4byte	0x5e
 2227 00ad 05       		.uleb128 0x5
 2228 00ae 9D010000 		.4byte	.LASF15
 2229 00b2 04       		.byte	0x4
 2230 00b3 E401     		.2byte	0x1e4
 2231 00b5 37000000 		.4byte	0x37
 2232 00b9 05       		.uleb128 0x5
 2233 00ba 0B000000 		.4byte	.LASF16
 2234 00be 04       		.byte	0x4
 2235 00bf E501     		.2byte	0x1e5
 2236 00c1 45000000 		.4byte	0x45
 2237 00c5 05       		.uleb128 0x5
 2238 00c6 F1010000 		.4byte	.LASF17
 2239 00ca 04       		.byte	0x4
 2240 00cb E601     		.2byte	0x1e6
 2241 00cd 69000000 		.4byte	0x69
ARM GAS  C:\Users\HYFI_A~1\AppData\Local\Temp\ccHqIvXz.s 			page 54


 2242 00d1 05       		.uleb128 0x5
 2243 00d2 B2010000 		.4byte	.LASF18
 2244 00d6 04       		.byte	0x4
 2245 00d7 E901     		.2byte	0x1e9
 2246 00d9 57000000 		.4byte	0x57
 2247 00dd 02       		.uleb128 0x2
 2248 00de 04       		.byte	0x4
 2249 00df 04       		.byte	0x4
 2250 00e0 2D040000 		.4byte	.LASF19
 2251 00e4 02       		.uleb128 0x2
 2252 00e5 08       		.byte	0x8
 2253 00e6 04       		.byte	0x4
 2254 00e7 AB010000 		.4byte	.LASF20
 2255 00eb 02       		.uleb128 0x2
 2256 00ec 01       		.byte	0x1
 2257 00ed 08       		.byte	0x8
 2258 00ee 44050000 		.4byte	.LASF21
 2259 00f2 02       		.uleb128 0x2
 2260 00f3 08       		.byte	0x8
 2261 00f4 04       		.byte	0x4
 2262 00f5 38050000 		.4byte	.LASF22
 2263 00f9 02       		.uleb128 0x2
 2264 00fa 04       		.byte	0x4
 2265 00fb 07       		.byte	0x7
 2266 00fc B5030000 		.4byte	.LASF23
 2267 0100 06       		.uleb128 0x6
 2268 0101 04       		.byte	0x4
 2269 0102 EB000000 		.4byte	0xeb
 2270 0106 06       		.uleb128 0x6
 2271 0107 04       		.byte	0x4
 2272 0108 0C010000 		.4byte	0x10c
 2273 010c 07       		.uleb128 0x7
 2274 010d EB000000 		.4byte	0xeb
 2275 0111 08       		.uleb128 0x8
 2276 0112 EB000000 		.4byte	0xeb
 2277 0116 21010000 		.4byte	0x121
 2278 011a 09       		.uleb128 0x9
 2279 011b F9000000 		.4byte	0xf9
 2280 011f 17       		.byte	0x17
 2281 0120 00       		.byte	0
 2282 0121 0A       		.uleb128 0xa
 2283 0122 746D00   		.ascii	"tm\000"
 2284 0125 24       		.byte	0x24
 2285 0126 05       		.byte	0x5
 2286 0127 21       		.byte	0x21
 2287 0128 99010000 		.4byte	0x199
 2288 012c 0B       		.uleb128 0xb
 2289 012d 2E060000 		.4byte	.LASF24
 2290 0131 05       		.byte	0x5
 2291 0132 23       		.byte	0x23
 2292 0133 7E000000 		.4byte	0x7e
 2293 0137 00       		.byte	0
 2294 0138 0B       		.uleb128 0xb
 2295 0139 AE030000 		.4byte	.LASF25
 2296 013d 05       		.byte	0x5
 2297 013e 24       		.byte	0x24
 2298 013f 7E000000 		.4byte	0x7e
ARM GAS  C:\Users\HYFI_A~1\AppData\Local\Temp\ccHqIvXz.s 			page 55


 2299 0143 04       		.byte	0x4
 2300 0144 0B       		.uleb128 0xb
 2301 0145 18000000 		.4byte	.LASF26
 2302 0149 05       		.byte	0x5
 2303 014a 25       		.byte	0x25
 2304 014b 7E000000 		.4byte	0x7e
 2305 014f 08       		.byte	0x8
 2306 0150 0B       		.uleb128 0xb
 2307 0151 10060000 		.4byte	.LASF27
 2308 0155 05       		.byte	0x5
 2309 0156 26       		.byte	0x26
 2310 0157 7E000000 		.4byte	0x7e
 2311 015b 0C       		.byte	0xc
 2312 015c 0B       		.uleb128 0xb
 2313 015d 23020000 		.4byte	.LASF28
 2314 0161 05       		.byte	0x5
 2315 0162 27       		.byte	0x27
 2316 0163 7E000000 		.4byte	0x7e
 2317 0167 10       		.byte	0x10
 2318 0168 0B       		.uleb128 0xb
 2319 0169 3E020000 		.4byte	.LASF29
 2320 016d 05       		.byte	0x5
 2321 016e 28       		.byte	0x28
 2322 016f 7E000000 		.4byte	0x7e
 2323 0173 14       		.byte	0x14
 2324 0174 0B       		.uleb128 0xb
 2325 0175 19050000 		.4byte	.LASF30
 2326 0179 05       		.byte	0x5
 2327 017a 29       		.byte	0x29
 2328 017b 7E000000 		.4byte	0x7e
 2329 017f 18       		.byte	0x18
 2330 0180 0B       		.uleb128 0xb
 2331 0181 20000000 		.4byte	.LASF31
 2332 0185 05       		.byte	0x5
 2333 0186 2A       		.byte	0x2a
 2334 0187 7E000000 		.4byte	0x7e
 2335 018b 1C       		.byte	0x1c
 2336 018c 0B       		.uleb128 0xb
 2337 018d E9020000 		.4byte	.LASF32
 2338 0191 05       		.byte	0x5
 2339 0192 2B       		.byte	0x2b
 2340 0193 7E000000 		.4byte	0x7e
 2341 0197 20       		.byte	0x20
 2342 0198 00       		.byte	0
 2343 0199 0C       		.uleb128 0xc
 2344 019a 8101     		.2byte	0x181
 2345 019c 06       		.byte	0x6
 2346 019d 0A       		.byte	0xa
 2347 019e C7010000 		.4byte	0x1c7
 2348 01a2 0B       		.uleb128 0xb
 2349 01a3 F9030000 		.4byte	.LASF33
 2350 01a7 06       		.byte	0x6
 2351 01a8 0B       		.byte	0xb
 2352 01a9 C7010000 		.4byte	0x1c7
 2353 01ad 00       		.byte	0
 2354 01ae 0B       		.uleb128 0xb
 2355 01af 35060000 		.4byte	.LASF34
ARM GAS  C:\Users\HYFI_A~1\AppData\Local\Temp\ccHqIvXz.s 			page 56


 2356 01b3 06       		.byte	0x6
 2357 01b4 0C       		.byte	0xc
 2358 01b5 AD000000 		.4byte	0xad
 2359 01b9 80       		.byte	0x80
 2360 01ba 0B       		.uleb128 0xb
 2361 01bb F2040000 		.4byte	.LASF35
 2362 01bf 06       		.byte	0x6
 2363 01c0 0D       		.byte	0xd
 2364 01c1 D7010000 		.4byte	0x1d7
 2365 01c5 81       		.byte	0x81
 2366 01c6 00       		.byte	0
 2367 01c7 08       		.uleb128 0x8
 2368 01c8 EB000000 		.4byte	0xeb
 2369 01cc D7010000 		.4byte	0x1d7
 2370 01d0 09       		.uleb128 0x9
 2371 01d1 F9000000 		.4byte	0xf9
 2372 01d5 7F       		.byte	0x7f
 2373 01d6 00       		.byte	0
 2374 01d7 08       		.uleb128 0x8
 2375 01d8 EB000000 		.4byte	0xeb
 2376 01dc E7010000 		.4byte	0x1e7
 2377 01e0 09       		.uleb128 0x9
 2378 01e1 F9000000 		.4byte	0xf9
 2379 01e5 FF       		.byte	0xff
 2380 01e6 00       		.byte	0
 2381 01e7 03       		.uleb128 0x3
 2382 01e8 DA040000 		.4byte	.LASF36
 2383 01ec 06       		.byte	0x6
 2384 01ed 0E       		.byte	0xe
 2385 01ee 99010000 		.4byte	0x199
 2386 01f2 0D       		.uleb128 0xd
 2387 01f3 3C       		.byte	0x3c
 2388 01f4 07       		.byte	0x7
 2389 01f5 2C       		.byte	0x2c
 2390 01f6 1F020000 		.4byte	0x21f
 2391 01fa 0B       		.uleb128 0xb
 2392 01fb FB050000 		.4byte	.LASF37
 2393 01ff 07       		.byte	0x7
 2394 0200 2D       		.byte	0x2d
 2395 0201 1F020000 		.4byte	0x21f
 2396 0205 00       		.byte	0
 2397 0206 0B       		.uleb128 0xb
 2398 0207 6F050000 		.4byte	.LASF38
 2399 020b 07       		.byte	0x7
 2400 020c 2E       		.byte	0x2e
 2401 020d 1F020000 		.4byte	0x21f
 2402 0211 14       		.byte	0x14
 2403 0212 0B       		.uleb128 0xb
 2404 0213 ED040000 		.4byte	.LASF39
 2405 0217 07       		.byte	0x7
 2406 0218 2F       		.byte	0x2f
 2407 0219 1F020000 		.4byte	0x21f
 2408 021d 28       		.byte	0x28
 2409 021e 00       		.byte	0
 2410 021f 08       		.uleb128 0x8
 2411 0220 EB000000 		.4byte	0xeb
 2412 0224 2F020000 		.4byte	0x22f
ARM GAS  C:\Users\HYFI_A~1\AppData\Local\Temp\ccHqIvXz.s 			page 57


 2413 0228 09       		.uleb128 0x9
 2414 0229 F9000000 		.4byte	0xf9
 2415 022d 13       		.byte	0x13
 2416 022e 00       		.byte	0
 2417 022f 03       		.uleb128 0x3
 2418 0230 83050000 		.4byte	.LASF40
 2419 0234 07       		.byte	0x7
 2420 0235 30       		.byte	0x30
 2421 0236 F2010000 		.4byte	0x1f2
 2422 023a 0D       		.uleb128 0xd
 2423 023b 0C       		.byte	0xc
 2424 023c 07       		.byte	0x7
 2425 023d 32       		.byte	0x32
 2426 023e 72020000 		.4byte	0x272
 2427 0242 0B       		.uleb128 0xb
 2428 0243 8D060000 		.4byte	.LASF41
 2429 0247 07       		.byte	0x7
 2430 0248 33       		.byte	0x33
 2431 0249 AD000000 		.4byte	0xad
 2432 024d 00       		.byte	0
 2433 024e 0E       		.uleb128 0xe
 2434 024f 737100   		.ascii	"sq\000"
 2435 0252 07       		.byte	0x7
 2436 0253 34       		.byte	0x34
 2437 0254 AD000000 		.4byte	0xad
 2438 0258 01       		.byte	0x1
 2439 0259 0B       		.uleb128 0xb
 2440 025a 32010000 		.4byte	.LASF42
 2441 025e 07       		.byte	0x7
 2442 025f 35       		.byte	0x35
 2443 0260 7E000000 		.4byte	0x7e
 2444 0264 04       		.byte	0x4
 2445 0265 0B       		.uleb128 0xb
 2446 0266 2F030000 		.4byte	.LASF43
 2447 026a 07       		.byte	0x7
 2448 026b 36       		.byte	0x36
 2449 026c 7E000000 		.4byte	0x7e
 2450 0270 08       		.byte	0x8
 2451 0271 00       		.byte	0
 2452 0272 03       		.uleb128 0x3
 2453 0273 F9040000 		.4byte	.LASF44
 2454 0277 07       		.byte	0x7
 2455 0278 37       		.byte	0x37
 2456 0279 3A020000 		.4byte	0x23a
 2457 027d 0D       		.uleb128 0xd
 2458 027e 10       		.byte	0x10
 2459 027f 07       		.byte	0x7
 2460 0280 39       		.byte	0x39
 2461 0281 C2020000 		.4byte	0x2c2
 2462 0285 0B       		.uleb128 0xb
 2463 0286 F0030000 		.4byte	.LASF45
 2464 028a 07       		.byte	0x7
 2465 028b 3A       		.byte	0x3a
 2466 028c DD000000 		.4byte	0xdd
 2467 0290 00       		.byte	0
 2468 0291 0B       		.uleb128 0xb
 2469 0292 32000000 		.4byte	.LASF46
ARM GAS  C:\Users\HYFI_A~1\AppData\Local\Temp\ccHqIvXz.s 			page 58


 2470 0296 07       		.byte	0x7
 2471 0297 3B       		.byte	0x3b
 2472 0298 DD000000 		.4byte	0xdd
 2473 029c 04       		.byte	0x4
 2474 029d 0B       		.uleb128 0xb
 2475 029e 94010000 		.4byte	.LASF47
 2476 02a2 07       		.byte	0x7
 2477 02a3 3C       		.byte	0x3c
 2478 02a4 DD000000 		.4byte	0xdd
 2479 02a8 08       		.byte	0x8
 2480 02a9 0B       		.uleb128 0xb
 2481 02aa C7020000 		.4byte	.LASF48
 2482 02ae 07       		.byte	0x7
 2483 02af 3D       		.byte	0x3d
 2484 02b0 B9000000 		.4byte	0xb9
 2485 02b4 0C       		.byte	0xc
 2486 02b5 0B       		.uleb128 0xb
 2487 02b6 18060000 		.4byte	.LASF49
 2488 02ba 07       		.byte	0x7
 2489 02bb 3E       		.byte	0x3e
 2490 02bc AD000000 		.4byte	0xad
 2491 02c0 0E       		.byte	0xe
 2492 02c1 00       		.byte	0
 2493 02c2 03       		.uleb128 0x3
 2494 02c3 90050000 		.4byte	.LASF50
 2495 02c7 07       		.byte	0x7
 2496 02c8 40       		.byte	0x40
 2497 02c9 7D020000 		.4byte	0x27d
 2498 02cd 0D       		.uleb128 0xd
 2499 02ce 2C       		.byte	0x2c
 2500 02cf 08       		.byte	0x8
 2501 02d0 0F       		.byte	0xf
 2502 02d1 FA020000 		.4byte	0x2fa
 2503 02d5 0E       		.uleb128 0xe
 2504 02d6 6B657900 		.ascii	"key\000"
 2505 02da 08       		.byte	0x8
 2506 02db 10       		.byte	0x10
 2507 02dc 1F020000 		.4byte	0x21f
 2508 02e0 00       		.byte	0
 2509 02e1 0B       		.uleb128 0xb
 2510 02e2 12000000 		.4byte	.LASF51
 2511 02e6 08       		.byte	0x8
 2512 02e7 11       		.byte	0x11
 2513 02e8 1F020000 		.4byte	0x21f
 2514 02ec 14       		.byte	0x14
 2515 02ed 0B       		.uleb128 0xb
 2516 02ee BA060000 		.4byte	.LASF52
 2517 02f2 08       		.byte	0x8
 2518 02f3 12       		.byte	0x12
 2519 02f4 D1000000 		.4byte	0xd1
 2520 02f8 28       		.byte	0x28
 2521 02f9 00       		.byte	0
 2522 02fa 03       		.uleb128 0x3
 2523 02fb 62020000 		.4byte	.LASF53
 2524 02ff 08       		.byte	0x8
 2525 0300 13       		.byte	0x13
 2526 0301 CD020000 		.4byte	0x2cd
ARM GAS  C:\Users\HYFI_A~1\AppData\Local\Temp\ccHqIvXz.s 			page 59


 2527 0305 0D       		.uleb128 0xd
 2528 0306 1C       		.byte	0x1c
 2529 0307 09       		.byte	0x9
 2530 0308 37       		.byte	0x37
 2531 0309 26030000 		.4byte	0x326
 2532 030d 0B       		.uleb128 0xb
 2533 030e F2020000 		.4byte	.LASF54
 2534 0312 09       		.byte	0x9
 2535 0313 39       		.byte	0x39
 2536 0314 26030000 		.4byte	0x326
 2537 0318 00       		.byte	0
 2538 0319 0B       		.uleb128 0xb
 2539 031a 02060000 		.4byte	.LASF55
 2540 031e 09       		.byte	0x9
 2541 031f 3A       		.byte	0x3a
 2542 0320 11010000 		.4byte	0x111
 2543 0324 04       		.byte	0x4
 2544 0325 00       		.byte	0
 2545 0326 06       		.uleb128 0x6
 2546 0327 04       		.byte	0x4
 2547 0328 2F020000 		.4byte	0x22f
 2548 032c 03       		.uleb128 0x3
 2549 032d 91030000 		.4byte	.LASF56
 2550 0331 09       		.byte	0x9
 2551 0332 3C       		.byte	0x3c
 2552 0333 05030000 		.4byte	0x305
 2553 0337 0C       		.uleb128 0xc
 2554 0338 4401     		.2byte	0x144
 2555 033a 09       		.byte	0x9
 2556 033b 3F       		.byte	0x3f
 2557 033c 8A030000 		.4byte	0x38a
 2558 0340 0B       		.uleb128 0xb
 2559 0341 A3010000 		.4byte	.LASF57
 2560 0345 09       		.byte	0x9
 2561 0346 42       		.byte	0x42
 2562 0347 1F020000 		.4byte	0x21f
 2563 034b 00       		.byte	0
 2564 034c 0B       		.uleb128 0xb
 2565 034d FD020000 		.4byte	.LASF58
 2566 0351 09       		.byte	0x9
 2567 0352 44       		.byte	0x44
 2568 0353 8A030000 		.4byte	0x38a
 2569 0357 14       		.byte	0x14
 2570 0358 0B       		.uleb128 0xb
 2571 0359 E1020000 		.4byte	.LASF59
 2572 035d 09       		.byte	0x9
 2573 035e 45       		.byte	0x45
 2574 035f 7E000000 		.4byte	0x7e
 2575 0363 78       		.byte	0x78
 2576 0364 0B       		.uleb128 0xb
 2577 0365 D9020000 		.4byte	.LASF60
 2578 0369 09       		.byte	0x9
 2579 036a 46       		.byte	0x46
 2580 036b 9A030000 		.4byte	0x39a
 2581 036f 7C       		.byte	0x7c
 2582 0370 0B       		.uleb128 0xb
 2583 0371 2A020000 		.4byte	.LASF61
ARM GAS  C:\Users\HYFI_A~1\AppData\Local\Temp\ccHqIvXz.s 			page 60


 2584 0375 09       		.byte	0x9
 2585 0376 47       		.byte	0x47
 2586 0377 8A030000 		.4byte	0x38a
 2587 037b AE       		.byte	0xae
 2588 037c 0F       		.uleb128 0xf
 2589 037d 53060000 		.4byte	.LASF62
 2590 0381 09       		.byte	0x9
 2591 0382 48       		.byte	0x48
 2592 0383 9A030000 		.4byte	0x39a
 2593 0387 1201     		.2byte	0x112
 2594 0389 00       		.byte	0
 2595 038a 08       		.uleb128 0x8
 2596 038b EB000000 		.4byte	0xeb
 2597 038f 9A030000 		.4byte	0x39a
 2598 0393 09       		.uleb128 0x9
 2599 0394 F9000000 		.4byte	0xf9
 2600 0398 63       		.byte	0x63
 2601 0399 00       		.byte	0
 2602 039a 08       		.uleb128 0x8
 2603 039b EB000000 		.4byte	0xeb
 2604 039f AA030000 		.4byte	0x3aa
 2605 03a3 09       		.uleb128 0x9
 2606 03a4 F9000000 		.4byte	0xf9
 2607 03a8 31       		.byte	0x31
 2608 03a9 00       		.byte	0
 2609 03aa 03       		.uleb128 0x3
 2610 03ab 3C060000 		.4byte	.LASF63
 2611 03af 09       		.byte	0x9
 2612 03b0 4B       		.byte	0x4b
 2613 03b1 37030000 		.4byte	0x337
 2614 03b5 10       		.uleb128 0x10
 2615 03b6 87040000 		.4byte	.LASF91
 2616 03ba 01       		.byte	0x1
 2617 03bb 11       		.byte	0x11
 2618 03bc 00000000 		.4byte	.LFB64
 2619 03c0 3C000000 		.4byte	.LFE64-.LFB64
 2620 03c4 01       		.uleb128 0x1
 2621 03c5 9C       		.byte	0x9c
 2622 03c6 11       		.uleb128 0x11
 2623 03c7 99020000 		.4byte	.LASF64
 2624 03cb 01       		.byte	0x1
 2625 03cc 1A       		.byte	0x1a
 2626 03cd 00000000 		.4byte	.LFB65
 2627 03d1 54000000 		.4byte	.LFE65-.LFB65
 2628 03d5 01       		.uleb128 0x1
 2629 03d6 9C       		.byte	0x9c
 2630 03d7 11       		.uleb128 0x11
 2631 03d8 E3050000 		.4byte	.LASF65
 2632 03dc 01       		.byte	0x1
 2633 03dd 2E       		.byte	0x2e
 2634 03de 00000000 		.4byte	.LFB66
 2635 03e2 32000000 		.4byte	.LFE66-.LFB66
 2636 03e6 01       		.uleb128 0x1
 2637 03e7 9C       		.byte	0x9c
 2638 03e8 11       		.uleb128 0x11
 2639 03e9 4C020000 		.4byte	.LASF66
 2640 03ed 01       		.byte	0x1
ARM GAS  C:\Users\HYFI_A~1\AppData\Local\Temp\ccHqIvXz.s 			page 61


 2641 03ee 40       		.byte	0x40
 2642 03ef 00000000 		.4byte	.LFB67
 2643 03f3 20000000 		.4byte	.LFE67-.LFB67
 2644 03f7 01       		.uleb128 0x1
 2645 03f8 9C       		.byte	0x9c
 2646 03f9 11       		.uleb128 0x11
 2647 03fa A9060000 		.4byte	.LASF67
 2648 03fe 01       		.byte	0x1
 2649 03ff 48       		.byte	0x48
 2650 0400 00000000 		.4byte	.LFB68
 2651 0404 40000000 		.4byte	.LFE68-.LFB68
 2652 0408 01       		.uleb128 0x1
 2653 0409 9C       		.byte	0x9c
 2654 040a 12       		.uleb128 0x12
 2655 040b 05030000 		.4byte	.LASF82
 2656 040f 01       		.byte	0x1
 2657 0410 58       		.byte	0x58
 2658 0411 AD000000 		.4byte	0xad
 2659 0415 00000000 		.4byte	.LFB69
 2660 0419 DC000000 		.4byte	.LFE69-.LFB69
 2661 041d 01       		.uleb128 0x1
 2662 041e 9C       		.byte	0x9c
 2663 041f 7E040000 		.4byte	0x47e
 2664 0423 13       		.uleb128 0x13
 2665 0424 5F060000 		.4byte	.LASF68
 2666 0428 01       		.byte	0x1
 2667 0429 61       		.byte	0x61
 2668 042a AD000000 		.4byte	0xad
 2669 042e 02       		.uleb128 0x2
 2670 042f 91       		.byte	0x91
 2671 0430 77       		.sleb128 -9
 2672 0431 13       		.uleb128 0x13
 2673 0432 7F040000 		.4byte	.LASF69
 2674 0436 01       		.byte	0x1
 2675 0437 62       		.byte	0x62
 2676 0438 AD000000 		.4byte	0xad
 2677 043c 02       		.uleb128 0x2
 2678 043d 91       		.byte	0x91
 2679 043e 74       		.sleb128 -12
 2680 043f 13       		.uleb128 0x13
 2681 0440 71060000 		.4byte	.LASF70
 2682 0444 01       		.byte	0x1
 2683 0445 63       		.byte	0x63
 2684 0446 57000000 		.4byte	0x57
 2685 044a 02       		.uleb128 0x2
 2686 044b 91       		.byte	0x91
 2687 044c 70       		.sleb128 -16
 2688 044d 14       		.uleb128 0x14
 2689 044e 26000000 		.4byte	.LBB2
 2690 0452 4A000000 		.4byte	.LBE2-.LBB2
 2691 0456 13       		.uleb128 0x13
 2692 0457 68060000 		.4byte	.LASF71
 2693 045b 01       		.byte	0x1
 2694 045c 66       		.byte	0x66
 2695 045d AD000000 		.4byte	0xad
 2696 0461 02       		.uleb128 0x2
 2697 0462 91       		.byte	0x91
ARM GAS  C:\Users\HYFI_A~1\AppData\Local\Temp\ccHqIvXz.s 			page 62


 2698 0463 76       		.sleb128 -10
 2699 0464 14       		.uleb128 0x14
 2700 0465 2C000000 		.4byte	.LBB3
 2701 0469 2A000000 		.4byte	.LBE3-.LBB3
 2702 046d 13       		.uleb128 0x13
 2703 046e 6E020000 		.4byte	.LASF72
 2704 0472 01       		.byte	0x1
 2705 0473 68       		.byte	0x68
 2706 0474 AD000000 		.4byte	0xad
 2707 0478 02       		.uleb128 0x2
 2708 0479 91       		.byte	0x91
 2709 047a 75       		.sleb128 -11
 2710 047b 00       		.byte	0
 2711 047c 00       		.byte	0
 2712 047d 00       		.byte	0
 2713 047e 11       		.uleb128 0x11
 2714 047f 21050000 		.4byte	.LASF73
 2715 0483 01       		.byte	0x1
 2716 0484 85       		.byte	0x85
 2717 0485 00000000 		.4byte	.LFB70
 2718 0489 1C000000 		.4byte	.LFE70-.LFB70
 2719 048d 01       		.uleb128 0x1
 2720 048e 9C       		.byte	0x9c
 2721 048f 11       		.uleb128 0x11
 2722 0490 07050000 		.4byte	.LASF74
 2723 0494 01       		.byte	0x1
 2724 0495 8D       		.byte	0x8d
 2725 0496 00000000 		.4byte	.LFB71
 2726 049a 28000000 		.4byte	.LFE71-.LFB71
 2727 049e 01       		.uleb128 0x1
 2728 049f 9C       		.byte	0x9c
 2729 04a0 15       		.uleb128 0x15
 2730 04a1 80030000 		.4byte	.LASF85
 2731 04a5 01       		.byte	0x1
 2732 04a6 93       		.byte	0x93
 2733 04a7 8C000000 		.4byte	0x8c
 2734 04ab 00000000 		.4byte	.LFB72
 2735 04af C8000000 		.4byte	.LFE72-.LFB72
 2736 04b3 01       		.uleb128 0x1
 2737 04b4 9C       		.byte	0x9c
 2738 04b5 32050000 		.4byte	0x532
 2739 04b9 16       		.uleb128 0x16
 2740 04ba 13040000 		.4byte	.LASF75
 2741 04be 01       		.byte	0x1
 2742 04bf 93       		.byte	0x93
 2743 04c0 00010000 		.4byte	0x100
 2744 04c4 02       		.uleb128 0x2
 2745 04c5 91       		.byte	0x91
 2746 04c6 5C       		.sleb128 -36
 2747 04c7 16       		.uleb128 0x16
 2748 04c8 7B060000 		.4byte	.LASF76
 2749 04cc 01       		.byte	0x1
 2750 04cd 93       		.byte	0x93
 2751 04ce 00010000 		.4byte	0x100
 2752 04d2 02       		.uleb128 0x2
 2753 04d3 91       		.byte	0x91
 2754 04d4 58       		.sleb128 -40
ARM GAS  C:\Users\HYFI_A~1\AppData\Local\Temp\ccHqIvXz.s 			page 63


 2755 04d5 16       		.uleb128 0x16
 2756 04d6 A8020000 		.4byte	.LASF77
 2757 04da 01       		.byte	0x1
 2758 04db 93       		.byte	0x93
 2759 04dc A2000000 		.4byte	0xa2
 2760 04e0 02       		.uleb128 0x2
 2761 04e1 91       		.byte	0x91
 2762 04e2 54       		.sleb128 -44
 2763 04e3 13       		.uleb128 0x13
 2764 04e4 75030000 		.4byte	.LASF78
 2765 04e8 01       		.byte	0x1
 2766 04e9 95       		.byte	0x95
 2767 04ea C5000000 		.4byte	0xc5
 2768 04ee 02       		.uleb128 0x2
 2769 04ef 91       		.byte	0x91
 2770 04f0 74       		.sleb128 -12
 2771 04f1 14       		.uleb128 0x14
 2772 04f2 16000000 		.4byte	.LBB4
 2773 04f6 88000000 		.4byte	.LBE4-.LBB4
 2774 04fa 13       		.uleb128 0x13
 2775 04fb 1C040000 		.4byte	.LASF79
 2776 04ff 01       		.byte	0x1
 2777 0500 99       		.byte	0x99
 2778 0501 00010000 		.4byte	0x100
 2779 0505 02       		.uleb128 0x2
 2780 0506 91       		.byte	0x91
 2781 0507 64       		.sleb128 -28
 2782 0508 13       		.uleb128 0x13
 2783 0509 BA040000 		.4byte	.LASF80
 2784 050d 01       		.byte	0x1
 2785 050e 9A       		.byte	0x9a
 2786 050f A2000000 		.4byte	0xa2
 2787 0513 02       		.uleb128 0x2
 2788 0514 91       		.byte	0x91
 2789 0515 6C       		.sleb128 -20
 2790 0516 17       		.uleb128 0x17
 2791 0517 6900     		.ascii	"i\000"
 2792 0519 01       		.byte	0x1
 2793 051a 9B       		.byte	0x9b
 2794 051b A2000000 		.4byte	0xa2
 2795 051f 02       		.uleb128 0x2
 2796 0520 91       		.byte	0x91
 2797 0521 70       		.sleb128 -16
 2798 0522 13       		.uleb128 0x13
 2799 0523 F8010000 		.4byte	.LASF81
 2800 0527 01       		.byte	0x1
 2801 0528 9B       		.byte	0x9b
 2802 0529 A2000000 		.4byte	0xa2
 2803 052d 02       		.uleb128 0x2
 2804 052e 91       		.byte	0x91
 2805 052f 68       		.sleb128 -24
 2806 0530 00       		.byte	0
 2807 0531 00       		.byte	0
 2808 0532 12       		.uleb128 0x12
 2809 0533 03040000 		.4byte	.LASF83
 2810 0537 01       		.byte	0x1
 2811 0538 C1       		.byte	0xc1
ARM GAS  C:\Users\HYFI_A~1\AppData\Local\Temp\ccHqIvXz.s 			page 64


 2812 0539 E7010000 		.4byte	0x1e7
 2813 053d 00000000 		.4byte	.LFB73
 2814 0541 34000000 		.4byte	.LFE73-.LFB73
 2815 0545 01       		.uleb128 0x1
 2816 0546 9C       		.byte	0x9c
 2817 0547 5B050000 		.4byte	0x55b
 2818 054b 13       		.uleb128 0x13
 2819 054c FA000000 		.4byte	.LASF84
 2820 0550 01       		.byte	0x1
 2821 0551 C3       		.byte	0xc3
 2822 0552 E7010000 		.4byte	0x1e7
 2823 0556 03       		.uleb128 0x3
 2824 0557 91       		.byte	0x91
 2825 0558 F47C     		.sleb128 -396
 2826 055a 00       		.byte	0
 2827 055b 15       		.uleb128 0x15
 2828 055c 8A020000 		.4byte	.LASF86
 2829 0560 01       		.byte	0x1
 2830 0561 CD       		.byte	0xcd
 2831 0562 AD000000 		.4byte	0xad
 2832 0566 00000000 		.4byte	.LFB74
 2833 056a 78000000 		.4byte	.LFE74-.LFB74
 2834 056e 01       		.uleb128 0x1
 2835 056f 9C       		.byte	0x9c
 2836 0570 C5050000 		.4byte	0x5c5
 2837 0574 16       		.uleb128 0x16
 2838 0575 6B030000 		.4byte	.LASF87
 2839 0579 01       		.byte	0x1
 2840 057a CD       		.byte	0xcd
 2841 057b 00010000 		.4byte	0x100
 2842 057f 02       		.uleb128 0x2
 2843 0580 91       		.byte	0x91
 2844 0581 6C       		.sleb128 -20
 2845 0582 16       		.uleb128 0x16
 2846 0583 1C030000 		.4byte	.LASF88
 2847 0587 01       		.byte	0x1
 2848 0588 CD       		.byte	0xcd
 2849 0589 06010000 		.4byte	0x106
 2850 058d 02       		.uleb128 0x2
 2851 058e 91       		.byte	0x91
 2852 058f 68       		.sleb128 -24
 2853 0590 16       		.uleb128 0x16
 2854 0591 42030000 		.4byte	.LASF89
 2855 0595 01       		.byte	0x1
 2856 0596 CD       		.byte	0xcd
 2857 0597 06010000 		.4byte	0x106
 2858 059b 02       		.uleb128 0x2
 2859 059c 91       		.byte	0x91
 2860 059d 64       		.sleb128 -28
 2861 059e 16       		.uleb128 0x16
 2862 059f 28030000 		.4byte	.LASF90
 2863 05a3 01       		.byte	0x1
 2864 05a4 CD       		.byte	0xcd
 2865 05a5 00010000 		.4byte	0x100
 2866 05a9 02       		.uleb128 0x2
 2867 05aa 91       		.byte	0x91
 2868 05ab 60       		.sleb128 -32
ARM GAS  C:\Users\HYFI_A~1\AppData\Local\Temp\ccHqIvXz.s 			page 65


 2869 05ac 17       		.uleb128 0x17
 2870 05ad 6100     		.ascii	"a\000"
 2871 05af 01       		.byte	0x1
 2872 05b0 CF       		.byte	0xcf
 2873 05b1 00010000 		.4byte	0x100
 2874 05b5 02       		.uleb128 0x2
 2875 05b6 91       		.byte	0x91
 2876 05b7 74       		.sleb128 -12
 2877 05b8 17       		.uleb128 0x17
 2878 05b9 6200     		.ascii	"b\000"
 2879 05bb 01       		.byte	0x1
 2880 05bc CF       		.byte	0xcf
 2881 05bd 00010000 		.4byte	0x100
 2882 05c1 02       		.uleb128 0x2
 2883 05c2 91       		.byte	0x91
 2884 05c3 70       		.sleb128 -16
 2885 05c4 00       		.byte	0
 2886 05c5 18       		.uleb128 0x18
 2887 05c6 49050000 		.4byte	.LASF92
 2888 05ca 01       		.byte	0x1
 2889 05cb EA       		.byte	0xea
 2890 05cc AD000000 		.4byte	0xad
 2891 05d0 00000000 		.4byte	.LFB75
 2892 05d4 08010000 		.4byte	.LFE75-.LFB75
 2893 05d8 01       		.uleb128 0x1
 2894 05d9 9C       		.byte	0x9c
 2895 05da 19       		.uleb128 0x19
 2896 05db BE030000 		.4byte	.LASF93
 2897 05df 01       		.byte	0x1
 2898 05e0 2401     		.2byte	0x124
 2899 05e2 AD000000 		.4byte	0xad
 2900 05e6 00000000 		.4byte	.LFB76
 2901 05ea A0000000 		.4byte	.LFE76-.LFB76
 2902 05ee 01       		.uleb128 0x1
 2903 05ef 9C       		.byte	0x9c
 2904 05f0 1D060000 		.4byte	0x61d
 2905 05f4 1A       		.uleb128 0x1a
 2906 05f5 35060000 		.4byte	.LASF34
 2907 05f9 01       		.byte	0x1
 2908 05fa 2701     		.2byte	0x127
 2909 05fc AD000000 		.4byte	0xad
 2910 0600 02       		.uleb128 0x2
 2911 0601 91       		.byte	0x91
 2912 0602 77       		.sleb128 -9
 2913 0603 14       		.uleb128 0x14
 2914 0604 36000000 		.4byte	.LBB5
 2915 0608 34000000 		.4byte	.LBE5-.LBB5
 2916 060c 1A       		.uleb128 0x1a
 2917 060d 70030000 		.4byte	.LASF94
 2918 0611 01       		.byte	0x1
 2919 0612 2D01     		.2byte	0x12d
 2920 0614 1D060000 		.4byte	0x61d
 2921 0618 02       		.uleb128 0x2
 2922 0619 91       		.byte	0x91
 2923 061a 6C       		.sleb128 -20
 2924 061b 00       		.byte	0
 2925 061c 00       		.byte	0
ARM GAS  C:\Users\HYFI_A~1\AppData\Local\Temp\ccHqIvXz.s 			page 66


 2926 061d 08       		.uleb128 0x8
 2927 061e EB000000 		.4byte	0xeb
 2928 0622 2D060000 		.4byte	0x62d
 2929 0626 09       		.uleb128 0x9
 2930 0627 F9000000 		.4byte	0xf9
 2931 062b 09       		.byte	0x9
 2932 062c 00       		.byte	0
 2933 062d 1B       		.uleb128 0x1b
 2934 062e 54010000 		.4byte	.LASF95
 2935 0632 01       		.byte	0x1
 2936 0633 3D01     		.2byte	0x13d
 2937 0635 00000000 		.4byte	.LFB77
 2938 0639 1C000000 		.4byte	.LFE77-.LFB77
 2939 063d 01       		.uleb128 0x1
 2940 063e 9C       		.byte	0x9c
 2941 063f 1C       		.uleb128 0x1c
 2942 0640 A8050000 		.4byte	.LASF96
 2943 0644 01       		.byte	0x1
 2944 0645 4E01     		.2byte	0x14e
 2945 0647 AD000000 		.4byte	0xad
 2946 064b 00000000 		.4byte	.LFB78
 2947 064f 28000000 		.4byte	.LFE78-.LFB78
 2948 0653 01       		.uleb128 0x1
 2949 0654 9C       		.byte	0x9c
 2950 0655 1D       		.uleb128 0x1d
 2951 0656 B0020000 		.4byte	.LASF98
 2952 065a 01       		.byte	0x1
 2953 065b 5901     		.2byte	0x159
 2954 065d 00000000 		.4byte	.LFB79
 2955 0661 B4000000 		.4byte	.LFE79-.LFB79
 2956 0665 01       		.uleb128 0x1
 2957 0666 9C       		.byte	0x9c
 2958 0667 AD060000 		.4byte	0x6ad
 2959 066b 14       		.uleb128 0x14
 2960 066c 06000000 		.4byte	.LBB6
 2961 0670 84000000 		.4byte	.LBE6-.LBB6
 2962 0674 1A       		.uleb128 0x1a
 2963 0675 68060000 		.4byte	.LASF71
 2964 0679 01       		.byte	0x1
 2965 067a 5B01     		.2byte	0x15b
 2966 067c AD000000 		.4byte	0xad
 2967 0680 02       		.uleb128 0x2
 2968 0681 91       		.byte	0x91
 2969 0682 77       		.sleb128 -9
 2970 0683 14       		.uleb128 0x14
 2971 0684 0C000000 		.4byte	.LBB7
 2972 0688 72000000 		.4byte	.LBE7-.LBB7
 2973 068c 1E       		.uleb128 0x1e
 2974 068d 63737100 		.ascii	"csq\000"
 2975 0691 01       		.byte	0x1
 2976 0692 5E01     		.2byte	0x15e
 2977 0694 1D060000 		.4byte	0x61d
 2978 0698 02       		.uleb128 0x2
 2979 0699 91       		.byte	0x91
 2980 069a 64       		.sleb128 -28
 2981 069b 1A       		.uleb128 0x1a
 2982 069c 33040000 		.4byte	.LASF97
ARM GAS  C:\Users\HYFI_A~1\AppData\Local\Temp\ccHqIvXz.s 			page 67


 2983 06a0 01       		.byte	0x1
 2984 06a1 6201     		.2byte	0x162
 2985 06a3 00010000 		.4byte	0x100
 2986 06a7 02       		.uleb128 0x2
 2987 06a8 91       		.byte	0x91
 2988 06a9 70       		.sleb128 -16
 2989 06aa 00       		.byte	0
 2990 06ab 00       		.byte	0
 2991 06ac 00       		.byte	0
 2992 06ad 1D       		.uleb128 0x1d
 2993 06ae B8010000 		.4byte	.LASF99
 2994 06b2 01       		.byte	0x1
 2995 06b3 7301     		.2byte	0x173
 2996 06b5 00000000 		.4byte	.LFB80
 2997 06b9 38010000 		.4byte	.LFE80-.LFB80
 2998 06bd 01       		.uleb128 0x1
 2999 06be 9C       		.byte	0x9c
 3000 06bf DD060000 		.4byte	0x6dd
 3001 06c3 14       		.uleb128 0x14
 3002 06c4 B6000000 		.4byte	.LBB8
 3003 06c8 34000000 		.4byte	.LBE8-.LBB8
 3004 06cc 1A       		.uleb128 0x1a
 3005 06cd 6A050000 		.4byte	.LASF100
 3006 06d1 01       		.byte	0x1
 3007 06d2 9201     		.2byte	0x192
 3008 06d4 1D060000 		.4byte	0x61d
 3009 06d8 02       		.uleb128 0x2
 3010 06d9 91       		.byte	0x91
 3011 06da 6C       		.sleb128 -20
 3012 06db 00       		.byte	0
 3013 06dc 00       		.byte	0
 3014 06dd 19       		.uleb128 0x19
 3015 06de 0C020000 		.4byte	.LASF101
 3016 06e2 01       		.byte	0x1
 3017 06e3 9E01     		.2byte	0x19e
 3018 06e5 57000000 		.4byte	0x57
 3019 06e9 00000000 		.4byte	.LFB81
 3020 06ed 44010000 		.4byte	.LFE81-.LFB81
 3021 06f1 01       		.uleb128 0x1
 3022 06f2 9C       		.byte	0x9c
 3023 06f3 99070000 		.4byte	0x799
 3024 06f7 1A       		.uleb128 0x1a
 3025 06f8 56030000 		.4byte	.LASF102
 3026 06fc 01       		.byte	0x1
 3027 06fd A801     		.2byte	0x1a8
 3028 06ff 57000000 		.4byte	0x57
 3029 0703 02       		.uleb128 0x2
 3030 0704 91       		.byte	0x91
 3031 0705 74       		.sleb128 -12
 3032 0706 14       		.uleb128 0x14
 3033 0707 30000000 		.4byte	.LBB9
 3034 070b DE000000 		.4byte	.LBE9-.LBB9
 3035 070f 1A       		.uleb128 0x1a
 3036 0710 D1010000 		.4byte	.LASF103
 3037 0714 01       		.byte	0x1
 3038 0715 AB01     		.2byte	0x1ab
 3039 0717 99070000 		.4byte	0x799
ARM GAS  C:\Users\HYFI_A~1\AppData\Local\Temp\ccHqIvXz.s 			page 68


 3040 071b 02       		.uleb128 0x2
 3041 071c 91       		.byte	0x91
 3042 071d 54       		.sleb128 -44
 3043 071e 1E       		.uleb128 0x1e
 3044 071f 7400     		.ascii	"t\000"
 3045 0721 01       		.byte	0x1
 3046 0722 AF01     		.2byte	0x1af
 3047 0724 21010000 		.4byte	0x121
 3048 0728 03       		.uleb128 0x3
 3049 0729 91       		.byte	0x91
 3050 072a 947F     		.sleb128 -108
 3051 072c 1A       		.uleb128 0x1a
 3052 072d 76010000 		.4byte	.LASF104
 3053 0731 01       		.byte	0x1
 3054 0732 B101     		.2byte	0x1b1
 3055 0734 7E000000 		.4byte	0x7e
 3056 0738 02       		.uleb128 0x2
 3057 0739 91       		.byte	0x91
 3058 073a 50       		.sleb128 -48
 3059 073b 1A       		.uleb128 0x1a
 3060 073c 46020000 		.4byte	.LASF105
 3061 0740 01       		.byte	0x1
 3062 0741 B101     		.2byte	0x1b1
 3063 0743 7E000000 		.4byte	0x7e
 3064 0747 02       		.uleb128 0x2
 3065 0748 91       		.byte	0x91
 3066 0749 4C       		.sleb128 -52
 3067 074a 1E       		.uleb128 0x1e
 3068 074b 64617900 		.ascii	"day\000"
 3069 074f 01       		.byte	0x1
 3070 0750 B101     		.2byte	0x1b1
 3071 0752 7E000000 		.4byte	0x7e
 3072 0756 02       		.uleb128 0x2
 3073 0757 91       		.byte	0x91
 3074 0758 48       		.sleb128 -56
 3075 0759 1A       		.uleb128 0x1a
 3076 075a 0E040000 		.4byte	.LASF106
 3077 075e 01       		.byte	0x1
 3078 075f B101     		.2byte	0x1b1
 3079 0761 7E000000 		.4byte	0x7e
 3080 0765 02       		.uleb128 0x2
 3081 0766 91       		.byte	0x91
 3082 0767 44       		.sleb128 -60
 3083 0768 1A       		.uleb128 0x1a
 3084 0769 1E060000 		.4byte	.LASF107
 3085 076d 01       		.byte	0x1
 3086 076e B101     		.2byte	0x1b1
 3087 0770 7E000000 		.4byte	0x7e
 3088 0774 02       		.uleb128 0x2
 3089 0775 91       		.byte	0x91
 3090 0776 40       		.sleb128 -64
 3091 0777 1A       		.uleb128 0x1a
 3092 0778 6F010000 		.4byte	.LASF108
 3093 077c 01       		.byte	0x1
 3094 077d B101     		.2byte	0x1b1
 3095 077f 7E000000 		.4byte	0x7e
 3096 0783 03       		.uleb128 0x3
ARM GAS  C:\Users\HYFI_A~1\AppData\Local\Temp\ccHqIvXz.s 			page 69


 3097 0784 91       		.byte	0x91
 3098 0785 BC7F     		.sleb128 -68
 3099 0787 1A       		.uleb128 0x1a
 3100 0788 00000000 		.4byte	.LASF109
 3101 078c 01       		.byte	0x1
 3102 078d B101     		.2byte	0x1b1
 3103 078f 7E000000 		.4byte	0x7e
 3104 0793 03       		.uleb128 0x3
 3105 0794 91       		.byte	0x91
 3106 0795 B87F     		.sleb128 -72
 3107 0797 00       		.byte	0
 3108 0798 00       		.byte	0
 3109 0799 08       		.uleb128 0x8
 3110 079a EB000000 		.4byte	0xeb
 3111 079e A9070000 		.4byte	0x7a9
 3112 07a2 09       		.uleb128 0x9
 3113 07a3 F9000000 		.4byte	0xf9
 3114 07a7 1D       		.byte	0x1d
 3115 07a8 00       		.byte	0
 3116 07a9 1F       		.uleb128 0x1f
 3117 07aa 84010000 		.4byte	.LASF110
 3118 07ae 01       		.byte	0x1
 3119 07af CE01     		.2byte	0x1ce
 3120 07b1 AD000000 		.4byte	0xad
 3121 07b5 00000000 		.4byte	.LFB82
 3122 07b9 14000000 		.4byte	.LFE82-.LFB82
 3123 07bd 01       		.uleb128 0x1
 3124 07be 9C       		.byte	0x9c
 3125 07bf 1B       		.uleb128 0x1b
 3126 07c0 32020000 		.4byte	.LASF111
 3127 07c4 01       		.byte	0x1
 3128 07c5 D201     		.2byte	0x1d2
 3129 07c7 00000000 		.4byte	.LFB83
 3130 07cb 1A000000 		.4byte	.LFE83-.LFB83
 3131 07cf 01       		.uleb128 0x1
 3132 07d0 9C       		.byte	0x9c
 3133 07d1 1B       		.uleb128 0x1b
 3134 07d2 CA000000 		.4byte	.LASF112
 3135 07d6 01       		.byte	0x1
 3136 07d7 DD01     		.2byte	0x1dd
 3137 07d9 00000000 		.4byte	.LFB84
 3138 07dd 2A000000 		.4byte	.LFE84-.LFB84
 3139 07e1 01       		.uleb128 0x1
 3140 07e2 9C       		.byte	0x9c
 3141 07e3 19       		.uleb128 0x19
 3142 07e4 C0040000 		.4byte	.LASF113
 3143 07e8 01       		.byte	0x1
 3144 07e9 EF01     		.2byte	0x1ef
 3145 07eb C2020000 		.4byte	0x2c2
 3146 07ef 00000000 		.4byte	.LFB85
 3147 07f3 78010000 		.4byte	.LFE85-.LFB85
 3148 07f7 01       		.uleb128 0x1
 3149 07f8 9C       		.byte	0x9c
 3150 07f9 7D080000 		.4byte	0x87d
 3151 07fd 1E       		.uleb128 0x1e
 3152 07fe 67707300 		.ascii	"gps\000"
 3153 0802 01       		.byte	0x1
ARM GAS  C:\Users\HYFI_A~1\AppData\Local\Temp\ccHqIvXz.s 			page 70


 3154 0803 F001     		.2byte	0x1f0
 3155 0805 C2020000 		.4byte	0x2c2
 3156 0809 02       		.uleb128 0x2
 3157 080a 91       		.byte	0x91
 3158 080b 54       		.sleb128 -44
 3159 080c 1A       		.uleb128 0x1a
 3160 080d 92060000 		.4byte	.LASF114
 3161 0811 01       		.byte	0x1
 3162 0812 FC01     		.2byte	0x1fc
 3163 0814 57000000 		.4byte	0x57
 3164 0818 02       		.uleb128 0x2
 3165 0819 91       		.byte	0x91
 3166 081a 68       		.sleb128 -24
 3167 081b 1A       		.uleb128 0x1a
 3168 081c D8050000 		.4byte	.LASF115
 3169 0820 01       		.byte	0x1
 3170 0821 4102     		.2byte	0x241
 3171 0823 AD000000 		.4byte	0xad
 3172 0827 02       		.uleb128 0x2
 3173 0828 91       		.byte	0x91
 3174 0829 6F       		.sleb128 -17
 3175 082a 20       		.uleb128 0x20
 3176 082b 90000000 		.4byte	.LBB10
 3177 082f 30000000 		.4byte	.LBE10-.LBB10
 3178 0833 45080000 		.4byte	0x845
 3179 0837 1E       		.uleb128 0x1e
 3180 0838 6900     		.ascii	"i\000"
 3181 083a 01       		.byte	0x1
 3182 083b 4202     		.2byte	0x242
 3183 083d B9000000 		.4byte	0xb9
 3184 0841 02       		.uleb128 0x2
 3185 0842 91       		.byte	0x91
 3186 0843 6C       		.sleb128 -20
 3187 0844 00       		.byte	0
 3188 0845 14       		.uleb128 0x14
 3189 0846 C8000000 		.4byte	.LBB11
 3190 084a 42000000 		.4byte	.LBE11-.LBB11
 3191 084e 1E       		.uleb128 0x1e
 3192 084f 6C617400 		.ascii	"lat\000"
 3193 0853 01       		.byte	0x1
 3194 0854 4C02     		.2byte	0x24c
 3195 0856 DD000000 		.4byte	0xdd
 3196 085a 02       		.uleb128 0x2
 3197 085b 91       		.byte	0x91
 3198 085c 50       		.sleb128 -48
 3199 085d 1E       		.uleb128 0x1e
 3200 085e 6C6F6E00 		.ascii	"lon\000"
 3201 0862 01       		.byte	0x1
 3202 0863 4C02     		.2byte	0x24c
 3203 0865 DD000000 		.4byte	0xdd
 3204 0869 02       		.uleb128 0x2
 3205 086a 91       		.byte	0x91
 3206 086b 4C       		.sleb128 -52
 3207 086c 1E       		.uleb128 0x1e
 3208 086d 616C7400 		.ascii	"alt\000"
 3209 0871 01       		.byte	0x1
 3210 0872 4C02     		.2byte	0x24c
ARM GAS  C:\Users\HYFI_A~1\AppData\Local\Temp\ccHqIvXz.s 			page 71


 3211 0874 DD000000 		.4byte	0xdd
 3212 0878 02       		.uleb128 0x2
 3213 0879 91       		.byte	0x91
 3214 087a 64       		.sleb128 -28
 3215 087b 00       		.byte	0
 3216 087c 00       		.byte	0
 3217 087d 21       		.uleb128 0x21
 3218 087e FF000000 		.4byte	.LASF116
 3219 0882 0A       		.byte	0xa
 3220 0883 1207     		.2byte	0x712
 3221 0885 89080000 		.4byte	0x889
 3222 0889 22       		.uleb128 0x22
 3223 088a 97000000 		.4byte	0x97
 3224 088e 23       		.uleb128 0x23
 3225 088f EE000000 		.4byte	.LASF117
 3226 0893 07       		.byte	0x7
 3227 0894 15       		.byte	0x15
 3228 0895 AD000000 		.4byte	0xad
 3229 0899 05       		.uleb128 0x5
 3230 089a 03       		.byte	0x3
 3231 089b 00000000 		.4byte	modem_state
 3232 089f 23       		.uleb128 0x23
 3233 08a0 C1050000 		.4byte	.LASF118
 3234 08a4 07       		.byte	0x7
 3235 08a5 45       		.byte	0x45
 3236 08a6 D1000000 		.4byte	0xd1
 3237 08aa 05       		.uleb128 0x5
 3238 08ab 03       		.byte	0x3
 3239 08ac 00000000 		.4byte	modem_start_time_stamp
 3240 08b0 23       		.uleb128 0x23
 3241 08b1 F2020000 		.4byte	.LASF54
 3242 08b5 07       		.byte	0x7
 3243 08b6 46       		.byte	0x46
 3244 08b7 2F020000 		.4byte	0x22f
 3245 08bb 05       		.uleb128 0x5
 3246 08bc 03       		.byte	0x3
 3247 08bd 00000000 		.4byte	modem_info
 3248 08c1 23       		.uleb128 0x23
 3249 08c2 0C010000 		.4byte	.LASF119
 3250 08c6 07       		.byte	0x7
 3251 08c7 47       		.byte	0x47
 3252 08c8 72020000 		.4byte	0x272
 3253 08cc 05       		.uleb128 0x5
 3254 08cd 03       		.byte	0x3
 3255 08ce 00000000 		.4byte	modem_stats
 3256 08d2 23       		.uleb128 0x23
 3257 08d3 9C030000 		.4byte	.LASF120
 3258 08d7 08       		.byte	0x8
 3259 08d8 1D       		.byte	0x1d
 3260 08d9 B9000000 		.4byte	0xb9
 3261 08dd 05       		.uleb128 0x5
 3262 08de 03       		.byte	0x3
 3263 08df 00000000 		.4byte	dataPointsInStack
 3264 08e3 08       		.uleb128 0x8
 3265 08e4 FA020000 		.4byte	0x2fa
 3266 08e8 F3080000 		.4byte	0x8f3
 3267 08ec 09       		.uleb128 0x9
ARM GAS  C:\Users\HYFI_A~1\AppData\Local\Temp\ccHqIvXz.s 			page 72


 3268 08ed F9000000 		.4byte	0xf9
 3269 08f1 63       		.byte	0x63
 3270 08f2 00       		.byte	0
 3271 08f3 23       		.uleb128 0x23
 3272 08f4 D4020000 		.4byte	.LASF121
 3273 08f8 08       		.byte	0x8
 3274 08f9 1E       		.byte	0x1e
 3275 08fa E3080000 		.4byte	0x8e3
 3276 08fe 05       		.uleb128 0x5
 3277 08ff 03       		.byte	0x3
 3278 0900 00000000 		.4byte	data
 3279 0904 08       		.uleb128 0x8
 3280 0905 EB000000 		.4byte	0xeb
 3281 0909 15090000 		.4byte	0x915
 3282 090d 24       		.uleb128 0x24
 3283 090e F9000000 		.4byte	0xf9
 3284 0912 E703     		.2byte	0x3e7
 3285 0914 00       		.byte	0
 3286 0915 23       		.uleb128 0x23
 3287 0916 9C060000 		.4byte	.LASF122
 3288 091a 09       		.byte	0x9
 3289 091b 16       		.byte	0x16
 3290 091c 04090000 		.4byte	0x904
 3291 0920 05       		.uleb128 0x5
 3292 0921 03       		.byte	0x3
 3293 0922 00000000 		.4byte	http_request
 3294 0926 08       		.uleb128 0x8
 3295 0927 EB000000 		.4byte	0xeb
 3296 092b 37090000 		.4byte	0x937
 3297 092f 24       		.uleb128 0x24
 3298 0930 F9000000 		.4byte	0xf9
 3299 0934 571B     		.2byte	0x1b57
 3300 0936 00       		.byte	0
 3301 0937 23       		.uleb128 0x23
 3302 0938 4A010000 		.4byte	.LASF123
 3303 093c 09       		.byte	0x9
 3304 093d 17       		.byte	0x17
 3305 093e 26090000 		.4byte	0x926
 3306 0942 05       		.uleb128 0x5
 3307 0943 03       		.byte	0x3
 3308 0944 00000000 		.4byte	http_body
 3309 0948 08       		.uleb128 0x8
 3310 0949 EB000000 		.4byte	0xeb
 3311 094d 58090000 		.4byte	0x958
 3312 0951 09       		.uleb128 0x9
 3313 0952 F9000000 		.4byte	0xf9
 3314 0956 C7       		.byte	0xc7
 3315 0957 00       		.byte	0
 3316 0958 23       		.uleb128 0x23
 3317 0959 78050000 		.4byte	.LASF124
 3318 095d 09       		.byte	0x9
 3319 095e 18       		.byte	0x18
 3320 095f 48090000 		.4byte	0x948
 3321 0963 05       		.uleb128 0x5
 3322 0964 03       		.byte	0x3
 3323 0965 00000000 		.4byte	http_route
 3324 0969 23       		.uleb128 0x23
ARM GAS  C:\Users\HYFI_A~1\AppData\Local\Temp\ccHqIvXz.s 			page 73


 3325 096a E1040000 		.4byte	.LASF125
 3326 096e 09       		.byte	0x9
 3327 096f 3D       		.byte	0x3d
 3328 0970 2C030000 		.4byte	0x32c
 3329 0974 05       		.uleb128 0x5
 3330 0975 03       		.byte	0x3
 3331 0976 00000000 		.4byte	system_info
 3332 097a 23       		.uleb128 0x23
 3333 097b AA040000 		.4byte	.LASF126
 3334 097f 09       		.byte	0x9
 3335 0980 4C       		.byte	0x4c
 3336 0981 AA030000 		.4byte	0x3aa
 3337 0985 05       		.uleb128 0x5
 3338 0986 03       		.byte	0x3
 3339 0987 00000000 		.4byte	system_settings
 3340 098b 08       		.uleb128 0x8
 3341 098c EB000000 		.4byte	0xeb
 3342 0990 9C090000 		.4byte	0x99c
 3343 0994 24       		.uleb128 0x24
 3344 0995 F9000000 		.4byte	0xf9
 3345 0999 FF03     		.2byte	0x3ff
 3346 099b 00       		.byte	0
 3347 099c 23       		.uleb128 0x23
 3348 099d DB030000 		.4byte	.LASF127
 3349 09a1 01       		.byte	0x1
 3350 09a2 06       		.byte	0x6
 3351 09a3 8B090000 		.4byte	0x98b
 3352 09a7 05       		.uleb128 0x5
 3353 09a8 03       		.byte	0x3
 3354 09a9 00000000 		.4byte	uart_received_string
 3355 09ad 23       		.uleb128 0x23
 3356 09ae 96050000 		.4byte	.LASF128
 3357 09b2 01       		.byte	0x1
 3358 09b3 07       		.byte	0x7
 3359 09b4 8C000000 		.4byte	0x8c
 3360 09b8 05       		.uleb128 0x5
 3361 09b9 03       		.byte	0x3
 3362 09ba 00000000 		.4byte	uart_string_index
 3363 09be 00       		.byte	0
 3364              		.section	.debug_abbrev,"",%progbits
 3365              	.Ldebug_abbrev0:
 3366 0000 01       		.uleb128 0x1
 3367 0001 11       		.uleb128 0x11
 3368 0002 01       		.byte	0x1
 3369 0003 25       		.uleb128 0x25
 3370 0004 0E       		.uleb128 0xe
 3371 0005 13       		.uleb128 0x13
 3372 0006 0B       		.uleb128 0xb
 3373 0007 03       		.uleb128 0x3
 3374 0008 0E       		.uleb128 0xe
 3375 0009 1B       		.uleb128 0x1b
 3376 000a 0E       		.uleb128 0xe
 3377 000b 55       		.uleb128 0x55
 3378 000c 17       		.uleb128 0x17
 3379 000d 11       		.uleb128 0x11
 3380 000e 01       		.uleb128 0x1
 3381 000f 10       		.uleb128 0x10
ARM GAS  C:\Users\HYFI_A~1\AppData\Local\Temp\ccHqIvXz.s 			page 74


 3382 0010 17       		.uleb128 0x17
 3383 0011 00       		.byte	0
 3384 0012 00       		.byte	0
 3385 0013 02       		.uleb128 0x2
 3386 0014 24       		.uleb128 0x24
 3387 0015 00       		.byte	0
 3388 0016 0B       		.uleb128 0xb
 3389 0017 0B       		.uleb128 0xb
 3390 0018 3E       		.uleb128 0x3e
 3391 0019 0B       		.uleb128 0xb
 3392 001a 03       		.uleb128 0x3
 3393 001b 0E       		.uleb128 0xe
 3394 001c 00       		.byte	0
 3395 001d 00       		.byte	0
 3396 001e 03       		.uleb128 0x3
 3397 001f 16       		.uleb128 0x16
 3398 0020 00       		.byte	0
 3399 0021 03       		.uleb128 0x3
 3400 0022 0E       		.uleb128 0xe
 3401 0023 3A       		.uleb128 0x3a
 3402 0024 0B       		.uleb128 0xb
 3403 0025 3B       		.uleb128 0x3b
 3404 0026 0B       		.uleb128 0xb
 3405 0027 49       		.uleb128 0x49
 3406 0028 13       		.uleb128 0x13
 3407 0029 00       		.byte	0
 3408 002a 00       		.byte	0
 3409 002b 04       		.uleb128 0x4
 3410 002c 24       		.uleb128 0x24
 3411 002d 00       		.byte	0
 3412 002e 0B       		.uleb128 0xb
 3413 002f 0B       		.uleb128 0xb
 3414 0030 3E       		.uleb128 0x3e
 3415 0031 0B       		.uleb128 0xb
 3416 0032 03       		.uleb128 0x3
 3417 0033 08       		.uleb128 0x8
 3418 0034 00       		.byte	0
 3419 0035 00       		.byte	0
 3420 0036 05       		.uleb128 0x5
 3421 0037 16       		.uleb128 0x16
 3422 0038 00       		.byte	0
 3423 0039 03       		.uleb128 0x3
 3424 003a 0E       		.uleb128 0xe
 3425 003b 3A       		.uleb128 0x3a
 3426 003c 0B       		.uleb128 0xb
 3427 003d 3B       		.uleb128 0x3b
 3428 003e 05       		.uleb128 0x5
 3429 003f 49       		.uleb128 0x49
 3430 0040 13       		.uleb128 0x13
 3431 0041 00       		.byte	0
 3432 0042 00       		.byte	0
 3433 0043 06       		.uleb128 0x6
 3434 0044 0F       		.uleb128 0xf
 3435 0045 00       		.byte	0
 3436 0046 0B       		.uleb128 0xb
 3437 0047 0B       		.uleb128 0xb
 3438 0048 49       		.uleb128 0x49
ARM GAS  C:\Users\HYFI_A~1\AppData\Local\Temp\ccHqIvXz.s 			page 75


 3439 0049 13       		.uleb128 0x13
 3440 004a 00       		.byte	0
 3441 004b 00       		.byte	0
 3442 004c 07       		.uleb128 0x7
 3443 004d 26       		.uleb128 0x26
 3444 004e 00       		.byte	0
 3445 004f 49       		.uleb128 0x49
 3446 0050 13       		.uleb128 0x13
 3447 0051 00       		.byte	0
 3448 0052 00       		.byte	0
 3449 0053 08       		.uleb128 0x8
 3450 0054 01       		.uleb128 0x1
 3451 0055 01       		.byte	0x1
 3452 0056 49       		.uleb128 0x49
 3453 0057 13       		.uleb128 0x13
 3454 0058 01       		.uleb128 0x1
 3455 0059 13       		.uleb128 0x13
 3456 005a 00       		.byte	0
 3457 005b 00       		.byte	0
 3458 005c 09       		.uleb128 0x9
 3459 005d 21       		.uleb128 0x21
 3460 005e 00       		.byte	0
 3461 005f 49       		.uleb128 0x49
 3462 0060 13       		.uleb128 0x13
 3463 0061 2F       		.uleb128 0x2f
 3464 0062 0B       		.uleb128 0xb
 3465 0063 00       		.byte	0
 3466 0064 00       		.byte	0
 3467 0065 0A       		.uleb128 0xa
 3468 0066 13       		.uleb128 0x13
 3469 0067 01       		.byte	0x1
 3470 0068 03       		.uleb128 0x3
 3471 0069 08       		.uleb128 0x8
 3472 006a 0B       		.uleb128 0xb
 3473 006b 0B       		.uleb128 0xb
 3474 006c 3A       		.uleb128 0x3a
 3475 006d 0B       		.uleb128 0xb
 3476 006e 3B       		.uleb128 0x3b
 3477 006f 0B       		.uleb128 0xb
 3478 0070 01       		.uleb128 0x1
 3479 0071 13       		.uleb128 0x13
 3480 0072 00       		.byte	0
 3481 0073 00       		.byte	0
 3482 0074 0B       		.uleb128 0xb
 3483 0075 0D       		.uleb128 0xd
 3484 0076 00       		.byte	0
 3485 0077 03       		.uleb128 0x3
 3486 0078 0E       		.uleb128 0xe
 3487 0079 3A       		.uleb128 0x3a
 3488 007a 0B       		.uleb128 0xb
 3489 007b 3B       		.uleb128 0x3b
 3490 007c 0B       		.uleb128 0xb
 3491 007d 49       		.uleb128 0x49
 3492 007e 13       		.uleb128 0x13
 3493 007f 38       		.uleb128 0x38
 3494 0080 0B       		.uleb128 0xb
 3495 0081 00       		.byte	0
ARM GAS  C:\Users\HYFI_A~1\AppData\Local\Temp\ccHqIvXz.s 			page 76


 3496 0082 00       		.byte	0
 3497 0083 0C       		.uleb128 0xc
 3498 0084 13       		.uleb128 0x13
 3499 0085 01       		.byte	0x1
 3500 0086 0B       		.uleb128 0xb
 3501 0087 05       		.uleb128 0x5
 3502 0088 3A       		.uleb128 0x3a
 3503 0089 0B       		.uleb128 0xb
 3504 008a 3B       		.uleb128 0x3b
 3505 008b 0B       		.uleb128 0xb
 3506 008c 01       		.uleb128 0x1
 3507 008d 13       		.uleb128 0x13
 3508 008e 00       		.byte	0
 3509 008f 00       		.byte	0
 3510 0090 0D       		.uleb128 0xd
 3511 0091 13       		.uleb128 0x13
 3512 0092 01       		.byte	0x1
 3513 0093 0B       		.uleb128 0xb
 3514 0094 0B       		.uleb128 0xb
 3515 0095 3A       		.uleb128 0x3a
 3516 0096 0B       		.uleb128 0xb
 3517 0097 3B       		.uleb128 0x3b
 3518 0098 0B       		.uleb128 0xb
 3519 0099 01       		.uleb128 0x1
 3520 009a 13       		.uleb128 0x13
 3521 009b 00       		.byte	0
 3522 009c 00       		.byte	0
 3523 009d 0E       		.uleb128 0xe
 3524 009e 0D       		.uleb128 0xd
 3525 009f 00       		.byte	0
 3526 00a0 03       		.uleb128 0x3
 3527 00a1 08       		.uleb128 0x8
 3528 00a2 3A       		.uleb128 0x3a
 3529 00a3 0B       		.uleb128 0xb
 3530 00a4 3B       		.uleb128 0x3b
 3531 00a5 0B       		.uleb128 0xb
 3532 00a6 49       		.uleb128 0x49
 3533 00a7 13       		.uleb128 0x13
 3534 00a8 38       		.uleb128 0x38
 3535 00a9 0B       		.uleb128 0xb
 3536 00aa 00       		.byte	0
 3537 00ab 00       		.byte	0
 3538 00ac 0F       		.uleb128 0xf
 3539 00ad 0D       		.uleb128 0xd
 3540 00ae 00       		.byte	0
 3541 00af 03       		.uleb128 0x3
 3542 00b0 0E       		.uleb128 0xe
 3543 00b1 3A       		.uleb128 0x3a
 3544 00b2 0B       		.uleb128 0xb
 3545 00b3 3B       		.uleb128 0x3b
 3546 00b4 0B       		.uleb128 0xb
 3547 00b5 49       		.uleb128 0x49
 3548 00b6 13       		.uleb128 0x13
 3549 00b7 38       		.uleb128 0x38
 3550 00b8 05       		.uleb128 0x5
 3551 00b9 00       		.byte	0
 3552 00ba 00       		.byte	0
ARM GAS  C:\Users\HYFI_A~1\AppData\Local\Temp\ccHqIvXz.s 			page 77


 3553 00bb 10       		.uleb128 0x10
 3554 00bc 2E       		.uleb128 0x2e
 3555 00bd 00       		.byte	0
 3556 00be 3F       		.uleb128 0x3f
 3557 00bf 19       		.uleb128 0x19
 3558 00c0 03       		.uleb128 0x3
 3559 00c1 0E       		.uleb128 0xe
 3560 00c2 3A       		.uleb128 0x3a
 3561 00c3 0B       		.uleb128 0xb
 3562 00c4 3B       		.uleb128 0x3b
 3563 00c5 0B       		.uleb128 0xb
 3564 00c6 27       		.uleb128 0x27
 3565 00c7 19       		.uleb128 0x19
 3566 00c8 11       		.uleb128 0x11
 3567 00c9 01       		.uleb128 0x1
 3568 00ca 12       		.uleb128 0x12
 3569 00cb 06       		.uleb128 0x6
 3570 00cc 40       		.uleb128 0x40
 3571 00cd 18       		.uleb128 0x18
 3572 00ce 9642     		.uleb128 0x2116
 3573 00d0 19       		.uleb128 0x19
 3574 00d1 00       		.byte	0
 3575 00d2 00       		.byte	0
 3576 00d3 11       		.uleb128 0x11
 3577 00d4 2E       		.uleb128 0x2e
 3578 00d5 00       		.byte	0
 3579 00d6 3F       		.uleb128 0x3f
 3580 00d7 19       		.uleb128 0x19
 3581 00d8 03       		.uleb128 0x3
 3582 00d9 0E       		.uleb128 0xe
 3583 00da 3A       		.uleb128 0x3a
 3584 00db 0B       		.uleb128 0xb
 3585 00dc 3B       		.uleb128 0x3b
 3586 00dd 0B       		.uleb128 0xb
 3587 00de 11       		.uleb128 0x11
 3588 00df 01       		.uleb128 0x1
 3589 00e0 12       		.uleb128 0x12
 3590 00e1 06       		.uleb128 0x6
 3591 00e2 40       		.uleb128 0x40
 3592 00e3 18       		.uleb128 0x18
 3593 00e4 9642     		.uleb128 0x2116
 3594 00e6 19       		.uleb128 0x19
 3595 00e7 00       		.byte	0
 3596 00e8 00       		.byte	0
 3597 00e9 12       		.uleb128 0x12
 3598 00ea 2E       		.uleb128 0x2e
 3599 00eb 01       		.byte	0x1
 3600 00ec 3F       		.uleb128 0x3f
 3601 00ed 19       		.uleb128 0x19
 3602 00ee 03       		.uleb128 0x3
 3603 00ef 0E       		.uleb128 0xe
 3604 00f0 3A       		.uleb128 0x3a
 3605 00f1 0B       		.uleb128 0xb
 3606 00f2 3B       		.uleb128 0x3b
 3607 00f3 0B       		.uleb128 0xb
 3608 00f4 49       		.uleb128 0x49
 3609 00f5 13       		.uleb128 0x13
ARM GAS  C:\Users\HYFI_A~1\AppData\Local\Temp\ccHqIvXz.s 			page 78


 3610 00f6 11       		.uleb128 0x11
 3611 00f7 01       		.uleb128 0x1
 3612 00f8 12       		.uleb128 0x12
 3613 00f9 06       		.uleb128 0x6
 3614 00fa 40       		.uleb128 0x40
 3615 00fb 18       		.uleb128 0x18
 3616 00fc 9642     		.uleb128 0x2116
 3617 00fe 19       		.uleb128 0x19
 3618 00ff 01       		.uleb128 0x1
 3619 0100 13       		.uleb128 0x13
 3620 0101 00       		.byte	0
 3621 0102 00       		.byte	0
 3622 0103 13       		.uleb128 0x13
 3623 0104 34       		.uleb128 0x34
 3624 0105 00       		.byte	0
 3625 0106 03       		.uleb128 0x3
 3626 0107 0E       		.uleb128 0xe
 3627 0108 3A       		.uleb128 0x3a
 3628 0109 0B       		.uleb128 0xb
 3629 010a 3B       		.uleb128 0x3b
 3630 010b 0B       		.uleb128 0xb
 3631 010c 49       		.uleb128 0x49
 3632 010d 13       		.uleb128 0x13
 3633 010e 02       		.uleb128 0x2
 3634 010f 18       		.uleb128 0x18
 3635 0110 00       		.byte	0
 3636 0111 00       		.byte	0
 3637 0112 14       		.uleb128 0x14
 3638 0113 0B       		.uleb128 0xb
 3639 0114 01       		.byte	0x1
 3640 0115 11       		.uleb128 0x11
 3641 0116 01       		.uleb128 0x1
 3642 0117 12       		.uleb128 0x12
 3643 0118 06       		.uleb128 0x6
 3644 0119 00       		.byte	0
 3645 011a 00       		.byte	0
 3646 011b 15       		.uleb128 0x15
 3647 011c 2E       		.uleb128 0x2e
 3648 011d 01       		.byte	0x1
 3649 011e 3F       		.uleb128 0x3f
 3650 011f 19       		.uleb128 0x19
 3651 0120 03       		.uleb128 0x3
 3652 0121 0E       		.uleb128 0xe
 3653 0122 3A       		.uleb128 0x3a
 3654 0123 0B       		.uleb128 0xb
 3655 0124 3B       		.uleb128 0x3b
 3656 0125 0B       		.uleb128 0xb
 3657 0126 27       		.uleb128 0x27
 3658 0127 19       		.uleb128 0x19
 3659 0128 49       		.uleb128 0x49
 3660 0129 13       		.uleb128 0x13
 3661 012a 11       		.uleb128 0x11
 3662 012b 01       		.uleb128 0x1
 3663 012c 12       		.uleb128 0x12
 3664 012d 06       		.uleb128 0x6
 3665 012e 40       		.uleb128 0x40
 3666 012f 18       		.uleb128 0x18
ARM GAS  C:\Users\HYFI_A~1\AppData\Local\Temp\ccHqIvXz.s 			page 79


 3667 0130 9642     		.uleb128 0x2116
 3668 0132 19       		.uleb128 0x19
 3669 0133 01       		.uleb128 0x1
 3670 0134 13       		.uleb128 0x13
 3671 0135 00       		.byte	0
 3672 0136 00       		.byte	0
 3673 0137 16       		.uleb128 0x16
 3674 0138 05       		.uleb128 0x5
 3675 0139 00       		.byte	0
 3676 013a 03       		.uleb128 0x3
 3677 013b 0E       		.uleb128 0xe
 3678 013c 3A       		.uleb128 0x3a
 3679 013d 0B       		.uleb128 0xb
 3680 013e 3B       		.uleb128 0x3b
 3681 013f 0B       		.uleb128 0xb
 3682 0140 49       		.uleb128 0x49
 3683 0141 13       		.uleb128 0x13
 3684 0142 02       		.uleb128 0x2
 3685 0143 18       		.uleb128 0x18
 3686 0144 00       		.byte	0
 3687 0145 00       		.byte	0
 3688 0146 17       		.uleb128 0x17
 3689 0147 34       		.uleb128 0x34
 3690 0148 00       		.byte	0
 3691 0149 03       		.uleb128 0x3
 3692 014a 08       		.uleb128 0x8
 3693 014b 3A       		.uleb128 0x3a
 3694 014c 0B       		.uleb128 0xb
 3695 014d 3B       		.uleb128 0x3b
 3696 014e 0B       		.uleb128 0xb
 3697 014f 49       		.uleb128 0x49
 3698 0150 13       		.uleb128 0x13
 3699 0151 02       		.uleb128 0x2
 3700 0152 18       		.uleb128 0x18
 3701 0153 00       		.byte	0
 3702 0154 00       		.byte	0
 3703 0155 18       		.uleb128 0x18
 3704 0156 2E       		.uleb128 0x2e
 3705 0157 00       		.byte	0
 3706 0158 3F       		.uleb128 0x3f
 3707 0159 19       		.uleb128 0x19
 3708 015a 03       		.uleb128 0x3
 3709 015b 0E       		.uleb128 0xe
 3710 015c 3A       		.uleb128 0x3a
 3711 015d 0B       		.uleb128 0xb
 3712 015e 3B       		.uleb128 0x3b
 3713 015f 0B       		.uleb128 0xb
 3714 0160 49       		.uleb128 0x49
 3715 0161 13       		.uleb128 0x13
 3716 0162 11       		.uleb128 0x11
 3717 0163 01       		.uleb128 0x1
 3718 0164 12       		.uleb128 0x12
 3719 0165 06       		.uleb128 0x6
 3720 0166 40       		.uleb128 0x40
 3721 0167 18       		.uleb128 0x18
 3722 0168 9642     		.uleb128 0x2116
 3723 016a 19       		.uleb128 0x19
ARM GAS  C:\Users\HYFI_A~1\AppData\Local\Temp\ccHqIvXz.s 			page 80


 3724 016b 00       		.byte	0
 3725 016c 00       		.byte	0
 3726 016d 19       		.uleb128 0x19
 3727 016e 2E       		.uleb128 0x2e
 3728 016f 01       		.byte	0x1
 3729 0170 3F       		.uleb128 0x3f
 3730 0171 19       		.uleb128 0x19
 3731 0172 03       		.uleb128 0x3
 3732 0173 0E       		.uleb128 0xe
 3733 0174 3A       		.uleb128 0x3a
 3734 0175 0B       		.uleb128 0xb
 3735 0176 3B       		.uleb128 0x3b
 3736 0177 05       		.uleb128 0x5
 3737 0178 49       		.uleb128 0x49
 3738 0179 13       		.uleb128 0x13
 3739 017a 11       		.uleb128 0x11
 3740 017b 01       		.uleb128 0x1
 3741 017c 12       		.uleb128 0x12
 3742 017d 06       		.uleb128 0x6
 3743 017e 40       		.uleb128 0x40
 3744 017f 18       		.uleb128 0x18
 3745 0180 9642     		.uleb128 0x2116
 3746 0182 19       		.uleb128 0x19
 3747 0183 01       		.uleb128 0x1
 3748 0184 13       		.uleb128 0x13
 3749 0185 00       		.byte	0
 3750 0186 00       		.byte	0
 3751 0187 1A       		.uleb128 0x1a
 3752 0188 34       		.uleb128 0x34
 3753 0189 00       		.byte	0
 3754 018a 03       		.uleb128 0x3
 3755 018b 0E       		.uleb128 0xe
 3756 018c 3A       		.uleb128 0x3a
 3757 018d 0B       		.uleb128 0xb
 3758 018e 3B       		.uleb128 0x3b
 3759 018f 05       		.uleb128 0x5
 3760 0190 49       		.uleb128 0x49
 3761 0191 13       		.uleb128 0x13
 3762 0192 02       		.uleb128 0x2
 3763 0193 18       		.uleb128 0x18
 3764 0194 00       		.byte	0
 3765 0195 00       		.byte	0
 3766 0196 1B       		.uleb128 0x1b
 3767 0197 2E       		.uleb128 0x2e
 3768 0198 00       		.byte	0
 3769 0199 3F       		.uleb128 0x3f
 3770 019a 19       		.uleb128 0x19
 3771 019b 03       		.uleb128 0x3
 3772 019c 0E       		.uleb128 0xe
 3773 019d 3A       		.uleb128 0x3a
 3774 019e 0B       		.uleb128 0xb
 3775 019f 3B       		.uleb128 0x3b
 3776 01a0 05       		.uleb128 0x5
 3777 01a1 11       		.uleb128 0x11
 3778 01a2 01       		.uleb128 0x1
 3779 01a3 12       		.uleb128 0x12
 3780 01a4 06       		.uleb128 0x6
ARM GAS  C:\Users\HYFI_A~1\AppData\Local\Temp\ccHqIvXz.s 			page 81


 3781 01a5 40       		.uleb128 0x40
 3782 01a6 18       		.uleb128 0x18
 3783 01a7 9642     		.uleb128 0x2116
 3784 01a9 19       		.uleb128 0x19
 3785 01aa 00       		.byte	0
 3786 01ab 00       		.byte	0
 3787 01ac 1C       		.uleb128 0x1c
 3788 01ad 2E       		.uleb128 0x2e
 3789 01ae 00       		.byte	0
 3790 01af 3F       		.uleb128 0x3f
 3791 01b0 19       		.uleb128 0x19
 3792 01b1 03       		.uleb128 0x3
 3793 01b2 0E       		.uleb128 0xe
 3794 01b3 3A       		.uleb128 0x3a
 3795 01b4 0B       		.uleb128 0xb
 3796 01b5 3B       		.uleb128 0x3b
 3797 01b6 05       		.uleb128 0x5
 3798 01b7 49       		.uleb128 0x49
 3799 01b8 13       		.uleb128 0x13
 3800 01b9 11       		.uleb128 0x11
 3801 01ba 01       		.uleb128 0x1
 3802 01bb 12       		.uleb128 0x12
 3803 01bc 06       		.uleb128 0x6
 3804 01bd 40       		.uleb128 0x40
 3805 01be 18       		.uleb128 0x18
 3806 01bf 9642     		.uleb128 0x2116
 3807 01c1 19       		.uleb128 0x19
 3808 01c2 00       		.byte	0
 3809 01c3 00       		.byte	0
 3810 01c4 1D       		.uleb128 0x1d
 3811 01c5 2E       		.uleb128 0x2e
 3812 01c6 01       		.byte	0x1
 3813 01c7 3F       		.uleb128 0x3f
 3814 01c8 19       		.uleb128 0x19
 3815 01c9 03       		.uleb128 0x3
 3816 01ca 0E       		.uleb128 0xe
 3817 01cb 3A       		.uleb128 0x3a
 3818 01cc 0B       		.uleb128 0xb
 3819 01cd 3B       		.uleb128 0x3b
 3820 01ce 05       		.uleb128 0x5
 3821 01cf 11       		.uleb128 0x11
 3822 01d0 01       		.uleb128 0x1
 3823 01d1 12       		.uleb128 0x12
 3824 01d2 06       		.uleb128 0x6
 3825 01d3 40       		.uleb128 0x40
 3826 01d4 18       		.uleb128 0x18
 3827 01d5 9642     		.uleb128 0x2116
 3828 01d7 19       		.uleb128 0x19
 3829 01d8 01       		.uleb128 0x1
 3830 01d9 13       		.uleb128 0x13
 3831 01da 00       		.byte	0
 3832 01db 00       		.byte	0
 3833 01dc 1E       		.uleb128 0x1e
 3834 01dd 34       		.uleb128 0x34
 3835 01de 00       		.byte	0
 3836 01df 03       		.uleb128 0x3
 3837 01e0 08       		.uleb128 0x8
ARM GAS  C:\Users\HYFI_A~1\AppData\Local\Temp\ccHqIvXz.s 			page 82


 3838 01e1 3A       		.uleb128 0x3a
 3839 01e2 0B       		.uleb128 0xb
 3840 01e3 3B       		.uleb128 0x3b
 3841 01e4 05       		.uleb128 0x5
 3842 01e5 49       		.uleb128 0x49
 3843 01e6 13       		.uleb128 0x13
 3844 01e7 02       		.uleb128 0x2
 3845 01e8 18       		.uleb128 0x18
 3846 01e9 00       		.byte	0
 3847 01ea 00       		.byte	0
 3848 01eb 1F       		.uleb128 0x1f
 3849 01ec 2E       		.uleb128 0x2e
 3850 01ed 00       		.byte	0
 3851 01ee 3F       		.uleb128 0x3f
 3852 01ef 19       		.uleb128 0x19
 3853 01f0 03       		.uleb128 0x3
 3854 01f1 0E       		.uleb128 0xe
 3855 01f2 3A       		.uleb128 0x3a
 3856 01f3 0B       		.uleb128 0xb
 3857 01f4 3B       		.uleb128 0x3b
 3858 01f5 05       		.uleb128 0x5
 3859 01f6 49       		.uleb128 0x49
 3860 01f7 13       		.uleb128 0x13
 3861 01f8 11       		.uleb128 0x11
 3862 01f9 01       		.uleb128 0x1
 3863 01fa 12       		.uleb128 0x12
 3864 01fb 06       		.uleb128 0x6
 3865 01fc 40       		.uleb128 0x40
 3866 01fd 18       		.uleb128 0x18
 3867 01fe 9742     		.uleb128 0x2117
 3868 0200 19       		.uleb128 0x19
 3869 0201 00       		.byte	0
 3870 0202 00       		.byte	0
 3871 0203 20       		.uleb128 0x20
 3872 0204 0B       		.uleb128 0xb
 3873 0205 01       		.byte	0x1
 3874 0206 11       		.uleb128 0x11
 3875 0207 01       		.uleb128 0x1
 3876 0208 12       		.uleb128 0x12
 3877 0209 06       		.uleb128 0x6
 3878 020a 01       		.uleb128 0x1
 3879 020b 13       		.uleb128 0x13
 3880 020c 00       		.byte	0
 3881 020d 00       		.byte	0
 3882 020e 21       		.uleb128 0x21
 3883 020f 34       		.uleb128 0x34
 3884 0210 00       		.byte	0
 3885 0211 03       		.uleb128 0x3
 3886 0212 0E       		.uleb128 0xe
 3887 0213 3A       		.uleb128 0x3a
 3888 0214 0B       		.uleb128 0xb
 3889 0215 3B       		.uleb128 0x3b
 3890 0216 05       		.uleb128 0x5
 3891 0217 49       		.uleb128 0x49
 3892 0218 13       		.uleb128 0x13
 3893 0219 3F       		.uleb128 0x3f
 3894 021a 19       		.uleb128 0x19
ARM GAS  C:\Users\HYFI_A~1\AppData\Local\Temp\ccHqIvXz.s 			page 83


 3895 021b 3C       		.uleb128 0x3c
 3896 021c 19       		.uleb128 0x19
 3897 021d 00       		.byte	0
 3898 021e 00       		.byte	0
 3899 021f 22       		.uleb128 0x22
 3900 0220 35       		.uleb128 0x35
 3901 0221 00       		.byte	0
 3902 0222 49       		.uleb128 0x49
 3903 0223 13       		.uleb128 0x13
 3904 0224 00       		.byte	0
 3905 0225 00       		.byte	0
 3906 0226 23       		.uleb128 0x23
 3907 0227 34       		.uleb128 0x34
 3908 0228 00       		.byte	0
 3909 0229 03       		.uleb128 0x3
 3910 022a 0E       		.uleb128 0xe
 3911 022b 3A       		.uleb128 0x3a
 3912 022c 0B       		.uleb128 0xb
 3913 022d 3B       		.uleb128 0x3b
 3914 022e 0B       		.uleb128 0xb
 3915 022f 49       		.uleb128 0x49
 3916 0230 13       		.uleb128 0x13
 3917 0231 3F       		.uleb128 0x3f
 3918 0232 19       		.uleb128 0x19
 3919 0233 02       		.uleb128 0x2
 3920 0234 18       		.uleb128 0x18
 3921 0235 00       		.byte	0
 3922 0236 00       		.byte	0
 3923 0237 24       		.uleb128 0x24
 3924 0238 21       		.uleb128 0x21
 3925 0239 00       		.byte	0
 3926 023a 49       		.uleb128 0x49
 3927 023b 13       		.uleb128 0x13
 3928 023c 2F       		.uleb128 0x2f
 3929 023d 05       		.uleb128 0x5
 3930 023e 00       		.byte	0
 3931 023f 00       		.byte	0
 3932 0240 00       		.byte	0
 3933              		.section	.debug_aranges,"",%progbits
 3934 0000 C4000000 		.4byte	0xc4
 3935 0004 0200     		.2byte	0x2
 3936 0006 00000000 		.4byte	.Ldebug_info0
 3937 000a 04       		.byte	0x4
 3938 000b 00       		.byte	0
 3939 000c 0000     		.2byte	0
 3940 000e 0000     		.2byte	0
 3941 0010 00000000 		.4byte	.LFB64
 3942 0014 3C000000 		.4byte	.LFE64-.LFB64
 3943 0018 00000000 		.4byte	.LFB65
 3944 001c 54000000 		.4byte	.LFE65-.LFB65
 3945 0020 00000000 		.4byte	.LFB66
 3946 0024 32000000 		.4byte	.LFE66-.LFB66
 3947 0028 00000000 		.4byte	.LFB67
 3948 002c 20000000 		.4byte	.LFE67-.LFB67
 3949 0030 00000000 		.4byte	.LFB68
 3950 0034 40000000 		.4byte	.LFE68-.LFB68
 3951 0038 00000000 		.4byte	.LFB69
ARM GAS  C:\Users\HYFI_A~1\AppData\Local\Temp\ccHqIvXz.s 			page 84


 3952 003c DC000000 		.4byte	.LFE69-.LFB69
 3953 0040 00000000 		.4byte	.LFB70
 3954 0044 1C000000 		.4byte	.LFE70-.LFB70
 3955 0048 00000000 		.4byte	.LFB71
 3956 004c 28000000 		.4byte	.LFE71-.LFB71
 3957 0050 00000000 		.4byte	.LFB72
 3958 0054 C8000000 		.4byte	.LFE72-.LFB72
 3959 0058 00000000 		.4byte	.LFB73
 3960 005c 34000000 		.4byte	.LFE73-.LFB73
 3961 0060 00000000 		.4byte	.LFB74
 3962 0064 78000000 		.4byte	.LFE74-.LFB74
 3963 0068 00000000 		.4byte	.LFB75
 3964 006c 08010000 		.4byte	.LFE75-.LFB75
 3965 0070 00000000 		.4byte	.LFB76
 3966 0074 A0000000 		.4byte	.LFE76-.LFB76
 3967 0078 00000000 		.4byte	.LFB77
 3968 007c 1C000000 		.4byte	.LFE77-.LFB77
 3969 0080 00000000 		.4byte	.LFB78
 3970 0084 28000000 		.4byte	.LFE78-.LFB78
 3971 0088 00000000 		.4byte	.LFB79
 3972 008c B4000000 		.4byte	.LFE79-.LFB79
 3973 0090 00000000 		.4byte	.LFB80
 3974 0094 38010000 		.4byte	.LFE80-.LFB80
 3975 0098 00000000 		.4byte	.LFB81
 3976 009c 44010000 		.4byte	.LFE81-.LFB81
 3977 00a0 00000000 		.4byte	.LFB82
 3978 00a4 14000000 		.4byte	.LFE82-.LFB82
 3979 00a8 00000000 		.4byte	.LFB83
 3980 00ac 1A000000 		.4byte	.LFE83-.LFB83
 3981 00b0 00000000 		.4byte	.LFB84
 3982 00b4 2A000000 		.4byte	.LFE84-.LFB84
 3983 00b8 00000000 		.4byte	.LFB85
 3984 00bc 78010000 		.4byte	.LFE85-.LFB85
 3985 00c0 00000000 		.4byte	0
 3986 00c4 00000000 		.4byte	0
 3987              		.section	.debug_ranges,"",%progbits
 3988              	.Ldebug_ranges0:
 3989 0000 00000000 		.4byte	.LFB64
 3990 0004 3C000000 		.4byte	.LFE64
 3991 0008 00000000 		.4byte	.LFB65
 3992 000c 54000000 		.4byte	.LFE65
 3993 0010 00000000 		.4byte	.LFB66
 3994 0014 32000000 		.4byte	.LFE66
 3995 0018 00000000 		.4byte	.LFB67
 3996 001c 20000000 		.4byte	.LFE67
 3997 0020 00000000 		.4byte	.LFB68
 3998 0024 40000000 		.4byte	.LFE68
 3999 0028 00000000 		.4byte	.LFB69
 4000 002c DC000000 		.4byte	.LFE69
 4001 0030 00000000 		.4byte	.LFB70
 4002 0034 1C000000 		.4byte	.LFE70
 4003 0038 00000000 		.4byte	.LFB71
 4004 003c 28000000 		.4byte	.LFE71
 4005 0040 00000000 		.4byte	.LFB72
 4006 0044 C8000000 		.4byte	.LFE72
 4007 0048 00000000 		.4byte	.LFB73
 4008 004c 34000000 		.4byte	.LFE73
ARM GAS  C:\Users\HYFI_A~1\AppData\Local\Temp\ccHqIvXz.s 			page 85


 4009 0050 00000000 		.4byte	.LFB74
 4010 0054 78000000 		.4byte	.LFE74
 4011 0058 00000000 		.4byte	.LFB75
 4012 005c 08010000 		.4byte	.LFE75
 4013 0060 00000000 		.4byte	.LFB76
 4014 0064 A0000000 		.4byte	.LFE76
 4015 0068 00000000 		.4byte	.LFB77
 4016 006c 1C000000 		.4byte	.LFE77
 4017 0070 00000000 		.4byte	.LFB78
 4018 0074 28000000 		.4byte	.LFE78
 4019 0078 00000000 		.4byte	.LFB79
 4020 007c B4000000 		.4byte	.LFE79
 4021 0080 00000000 		.4byte	.LFB80
 4022 0084 38010000 		.4byte	.LFE80
 4023 0088 00000000 		.4byte	.LFB81
 4024 008c 44010000 		.4byte	.LFE81
 4025 0090 00000000 		.4byte	.LFB82
 4026 0094 14000000 		.4byte	.LFE82
 4027 0098 00000000 		.4byte	.LFB83
 4028 009c 1A000000 		.4byte	.LFE83
 4029 00a0 00000000 		.4byte	.LFB84
 4030 00a4 2A000000 		.4byte	.LFE84
 4031 00a8 00000000 		.4byte	.LFB85
 4032 00ac 78010000 		.4byte	.LFE85
 4033 00b0 00000000 		.4byte	0
 4034 00b4 00000000 		.4byte	0
 4035              		.section	.debug_line,"",%progbits
 4036              	.Ldebug_line0:
 4037 0000 B3040000 		.section	.debug_str,"MS",%progbits,1
 4037      0200EF01 
 4037      00000201 
 4037      FB0E0D00 
 4037      01010101 
 4038              	.LASF109:
 4039 0000 676D745F 		.ascii	"gmt_offset\000"
 4039      6F666673 
 4039      657400
 4040              	.LASF16:
 4041 000b 75696E74 		.ascii	"uint16\000"
 4041      313600
 4042              	.LASF51:
 4043 0012 76616C75 		.ascii	"value\000"
 4043      6500
 4044              	.LASF26:
 4045 0018 746D5F68 		.ascii	"tm_hour\000"
 4045      6F757200 
 4046              	.LASF31:
 4047 0020 746D5F79 		.ascii	"tm_yday\000"
 4047      64617900 
 4048              	.LASF4:
 4049 0028 5F5F7569 		.ascii	"__uint8_t\000"
 4049      6E74385F 
 4049      7400
 4050              	.LASF46:
 4051 0032 6C6F6E67 		.ascii	"longitude\000"
 4051      69747564 
 4051      6500
ARM GAS  C:\Users\HYFI_A~1\AppData\Local\Temp\ccHqIvXz.s 			page 86


 4052              	.LASF129:
 4053 003c 474E5520 		.ascii	"GNU C11 5.4.1 20160609 (release) [ARM/embedded-5-br"
 4053      43313120 
 4053      352E342E 
 4053      31203230 
 4053      31363036 
 4054 006f 616E6368 		.ascii	"anch revision 237715] -mcpu=cortex-m3 -mthumb -g -O"
 4054      20726576 
 4054      6973696F 
 4054      6E203233 
 4054      37373135 
 4055 00a2 30202D66 		.ascii	"0 -ffunction-sections -ffat-lto-objects\000"
 4055      66756E63 
 4055      74696F6E 
 4055      2D736563 
 4055      74696F6E 
 4056              	.LASF112:
 4057 00ca 6D6F6465 		.ascii	"modem_wakeup\000"
 4057      6D5F7761 
 4057      6B657570 
 4057      00
 4058              	.LASF10:
 4059 00d7 6C6F6E67 		.ascii	"long long unsigned int\000"
 4059      206C6F6E 
 4059      6720756E 
 4059      7369676E 
 4059      65642069 
 4060              	.LASF117:
 4061 00ee 6D6F6465 		.ascii	"modem_state\000"
 4061      6D5F7374 
 4061      61746500 
 4062              	.LASF84:
 4063 00fa 74657374 		.ascii	"test\000"
 4063      00
 4064              	.LASF116:
 4065 00ff 49544D5F 		.ascii	"ITM_RxBuffer\000"
 4065      52784275 
 4065      66666572 
 4065      00
 4066              	.LASF119:
 4067 010c 6D6F6465 		.ascii	"modem_stats\000"
 4067      6D5F7374 
 4067      61747300 
 4068              	.LASF9:
 4069 0118 6C6F6E67 		.ascii	"long long int\000"
 4069      206C6F6E 
 4069      6720696E 
 4069      7400
 4070              	.LASF0:
 4071 0126 7369676E 		.ascii	"signed char\000"
 4071      65642063 
 4071      68617200 
 4072              	.LASF42:
 4073 0132 74696D65 		.ascii	"time_to_network_connect\000"
 4073      5F746F5F 
 4073      6E657477 
 4073      6F726B5F 
ARM GAS  C:\Users\HYFI_A~1\AppData\Local\Temp\ccHqIvXz.s 			page 87


 4073      636F6E6E 
 4074              	.LASF123:
 4075 014a 68747470 		.ascii	"http_body\000"
 4075      5F626F64 
 4075      7900
 4076              	.LASF95:
 4077 0154 7365745F 		.ascii	"set_up_internet_connection\000"
 4077      75705F69 
 4077      6E746572 
 4077      6E65745F 
 4077      636F6E6E 
 4078              	.LASF108:
 4079 016f 7365636F 		.ascii	"second\000"
 4079      6E6400
 4080              	.LASF104:
 4081 0176 79656172 		.ascii	"year\000"
 4081      00
 4082              	.LASF6:
 4083 017b 6C6F6E67 		.ascii	"long int\000"
 4083      20696E74 
 4083      00
 4084              	.LASF110:
 4085 0184 6D6F6465 		.ascii	"modem_get_state\000"
 4085      6D5F6765 
 4085      745F7374 
 4085      61746500 
 4086              	.LASF47:
 4087 0194 616C7469 		.ascii	"altitude\000"
 4087      74756465 
 4087      00
 4088              	.LASF15:
 4089 019d 75696E74 		.ascii	"uint8\000"
 4089      3800
 4090              	.LASF57:
 4091 01a3 6E6F6465 		.ascii	"node_id\000"
 4091      5F696400 
 4092              	.LASF20:
 4093 01ab 646F7562 		.ascii	"double\000"
 4093      6C6500
 4094              	.LASF18:
 4095 01b2 696E7433 		.ascii	"int32\000"
 4095      3200
 4096              	.LASF99:
 4097 01b8 6D6F6465 		.ascii	"modem_configure_settings\000"
 4097      6D5F636F 
 4097      6E666967 
 4097      7572655F 
 4097      73657474 
 4098              	.LASF103:
 4099 01d1 6E657477 		.ascii	"network_time\000"
 4099      6F726B5F 
 4099      74696D65 
 4099      00
 4100              	.LASF3:
 4101 01de 73686F72 		.ascii	"short unsigned int\000"
 4101      7420756E 
 4101      7369676E 
ARM GAS  C:\Users\HYFI_A~1\AppData\Local\Temp\ccHqIvXz.s 			page 88


 4101      65642069 
 4101      6E7400
 4102              	.LASF17:
 4103 01f1 75696E74 		.ascii	"uint32\000"
 4103      333200
 4104              	.LASF81:
 4105 01f8 696E7465 		.ascii	"interval\000"
 4105      7276616C 
 4105      00
 4106              	.LASF7:
 4107 0201 5F5F7569 		.ascii	"__uint32_t\000"
 4107      6E743332 
 4107      5F7400
 4108              	.LASF101:
 4109 020c 6D6F6465 		.ascii	"modem_get_network_time\000"
 4109      6D5F6765 
 4109      745F6E65 
 4109      74776F72 
 4109      6B5F7469 
 4110              	.LASF28:
 4111 0223 746D5F6D 		.ascii	"tm_mon\000"
 4111      6F6E00
 4112              	.LASF61:
 4113 022a 65705F70 		.ascii	"ep_pswd\000"
 4113      73776400 
 4114              	.LASF111:
 4115 0232 6D6F6465 		.ascii	"modem_sleep\000"
 4115      6D5F736C 
 4115      65657000 
 4116              	.LASF29:
 4117 023e 746D5F79 		.ascii	"tm_year\000"
 4117      65617200 
 4118              	.LASF105:
 4119 0246 6D6F6E74 		.ascii	"month\000"
 4119      6800
 4120              	.LASF66:
 4121 024c 70696E73 		.ascii	"pins_configure_active\000"
 4121      5F636F6E 
 4121      66696775 
 4121      72655F61 
 4121      63746976 
 4122              	.LASF53:
 4123 0262 6B65795F 		.ascii	"key_value_t\000"
 4123      76616C75 
 4123      655F7400 
 4124              	.LASF72:
 4125 026e 7077725F 		.ascii	"pwr_check\000"
 4125      63686563 
 4125      6B00
 4126              	.LASF8:
 4127 0278 6C6F6E67 		.ascii	"long unsigned int\000"
 4127      20756E73 
 4127      69676E65 
 4127      6420696E 
 4127      7400
 4128              	.LASF86:
 4129 028a 65787472 		.ascii	"extract_string\000"
ARM GAS  C:\Users\HYFI_A~1\AppData\Local\Temp\ccHqIvXz.s 			page 89


 4129      6163745F 
 4129      73747269 
 4129      6E6700
 4130              	.LASF64:
 4131 0299 6D6F6465 		.ascii	"modem_intilize\000"
 4131      6D5F696E 
 4131      74696C69 
 4131      7A6500
 4132              	.LASF77:
 4133 02a8 74696D65 		.ascii	"timeout\000"
 4133      6F757400 
 4134              	.LASF98:
 4135 02b0 6765745F 		.ascii	"get_cell_network_stats\000"
 4135      63656C6C 
 4135      5F6E6574 
 4135      776F726B 
 4135      5F737461 
 4136              	.LASF48:
 4137 02c7 74696D65 		.ascii	"time_to_lock\000"
 4137      5F746F5F 
 4137      6C6F636B 
 4137      00
 4138              	.LASF121:
 4139 02d4 64617461 		.ascii	"data\000"
 4139      00
 4140              	.LASF60:
 4141 02d9 65705F75 		.ascii	"ep_user\000"
 4141      73657200 
 4142              	.LASF59:
 4143 02e1 65705F70 		.ascii	"ep_port\000"
 4143      6F727400 
 4144              	.LASF32:
 4145 02e9 746D5F69 		.ascii	"tm_isdst\000"
 4145      73647374 
 4145      00
 4146              	.LASF54:
 4147 02f2 6D6F6465 		.ascii	"modem_info\000"
 4147      6D5F696E 
 4147      666F00
 4148              	.LASF58:
 4149 02fd 65705F68 		.ascii	"ep_host\000"
 4149      6F737400 
 4150              	.LASF82:
 4151 0305 6D6F6465 		.ascii	"modem_power_up\000"
 4151      6D5F706F 
 4151      7765725F 
 4151      757000
 4152              	.LASF130:
 4153 0314 6D6F6465 		.ascii	"modem.c\000"
 4153      6D2E6300 
 4154              	.LASF88:
 4155 031c 62656769 		.ascii	"beginMarker\000"
 4155      6E4D6172 
 4155      6B657200 
 4156              	.LASF90:
 4157 0328 74617267 		.ascii	"target\000"
 4157      657400
ARM GAS  C:\Users\HYFI_A~1\AppData\Local\Temp\ccHqIvXz.s 			page 90


 4158              	.LASF43:
 4159 032f 74696D65 		.ascii	"time_to_acquire_ip\000"
 4159      5F746F5F 
 4159      61637175 
 4159      6972655F 
 4159      697000
 4160              	.LASF89:
 4161 0342 656E644D 		.ascii	"endMarker\000"
 4161      61726B65 
 4161      7200
 4162              	.LASF2:
 4163 034c 73686F72 		.ascii	"short int\000"
 4163      7420696E 
 4163      7400
 4164              	.LASF102:
 4165 0356 65706F63 		.ascii	"epoch_time\000"
 4165      685F7469 
 4165      6D6500
 4166              	.LASF5:
 4167 0361 5F5F696E 		.ascii	"__int32_t\000"
 4167      7433325F 
 4167      7400
 4168              	.LASF87:
 4169 036b 66726F6D 		.ascii	"from\000"
 4169      00
 4170              	.LASF94:
 4171 0370 63726567 		.ascii	"creg\000"
 4171      00
 4172              	.LASF78:
 4173 0375 61745F61 		.ascii	"at_attempt\000"
 4173      7474656D 
 4173      707400
 4174              	.LASF85:
 4175 0380 61745F77 		.ascii	"at_write_command\000"
 4175      72697465 
 4175      5F636F6D 
 4175      6D616E64 
 4175      00
 4176              	.LASF56:
 4177 0391 7379735F 		.ascii	"sys_info_t\000"
 4177      696E666F 
 4177      5F7400
 4178              	.LASF120:
 4179 039c 64617461 		.ascii	"dataPointsInStack\000"
 4179      506F696E 
 4179      7473496E 
 4179      53746163 
 4179      6B00
 4180              	.LASF25:
 4181 03ae 746D5F6D 		.ascii	"tm_min\000"
 4181      696E00
 4182              	.LASF23:
 4183 03b5 73697A65 		.ascii	"sizetype\000"
 4183      74797065 
 4183      00
 4184              	.LASF93:
 4185 03be 69735F63 		.ascii	"is_connected_to_cell_network\000"
ARM GAS  C:\Users\HYFI_A~1\AppData\Local\Temp\ccHqIvXz.s 			page 91


 4185      6F6E6E65 
 4185      63746564 
 4185      5F746F5F 
 4185      63656C6C 
 4186              	.LASF127:
 4187 03db 75617274 		.ascii	"uart_received_string\000"
 4187      5F726563 
 4187      65697665 
 4187      645F7374 
 4187      72696E67 
 4188              	.LASF45:
 4189 03f0 6C617469 		.ascii	"latitude\000"
 4189      74756465 
 4189      00
 4190              	.LASF33:
 4191 03f9 74657374 		.ascii	"test_name\000"
 4191      5F6E616D 
 4191      6500
 4192              	.LASF83:
 4193 0403 6D6F6465 		.ascii	"modem_test\000"
 4193      6D5F7465 
 4193      737400
 4194              	.LASF106:
 4195 040e 686F7572 		.ascii	"hour\000"
 4195      00
 4196              	.LASF75:
 4197 0413 636F6D6D 		.ascii	"commands\000"
 4197      616E6473 
 4197      00
 4198              	.LASF79:
 4199 041c 636F6D70 		.ascii	"compare_location\000"
 4199      6172655F 
 4199      6C6F6361 
 4199      74696F6E 
 4199      00
 4200              	.LASF19:
 4201 042d 666C6F61 		.ascii	"float\000"
 4201      7400
 4202              	.LASF97:
 4203 0433 746F6B65 		.ascii	"token\000"
 4203      6E00
 4204              	.LASF131:
 4205 0439 433A5C55 		.ascii	"C:\\Users\\hyfi_admin\\Documents\\GitHub\\notoriOS\\"
 4205      73657273 
 4205      5C687966 
 4205      695F6164 
 4205      6D696E5C 
 4206 0467 6E6F746F 		.ascii	"notoriOS\\notoriOS.cydsn\000"
 4206      72694F53 
 4206      5C6E6F74 
 4206      6F72694F 
 4206      532E6379 
 4207              	.LASF69:
 4208 047f 61747465 		.ascii	"attemps\000"
 4208      6D707300 
 4209              	.LASF91:
 4210 0487 6973725F 		.ascii	"isr_telit_rx\000"
ARM GAS  C:\Users\HYFI_A~1\AppData\Local\Temp\ccHqIvXz.s 			page 92


 4210      74656C69 
 4210      745F7278 
 4210      00
 4211              	.LASF13:
 4212 0494 696E7433 		.ascii	"int32_t\000"
 4212      325F7400 
 4213              	.LASF1:
 4214 049c 756E7369 		.ascii	"unsigned char\000"
 4214      676E6564 
 4214      20636861 
 4214      7200
 4215              	.LASF126:
 4216 04aa 73797374 		.ascii	"system_settings\000"
 4216      656D5F73 
 4216      65747469 
 4216      6E677300 
 4217              	.LASF80:
 4218 04ba 64656C61 		.ascii	"delay\000"
 4218      7900
 4219              	.LASF113:
 4220 04c0 6D6F6465 		.ascii	"modem_get_gps_coordinates\000"
 4220      6D5F6765 
 4220      745F6770 
 4220      735F636F 
 4220      6F726469 
 4221              	.LASF36:
 4222 04da 74657374 		.ascii	"test_t\000"
 4222      5F7400
 4223              	.LASF125:
 4224 04e1 73797374 		.ascii	"system_info\000"
 4224      656D5F69 
 4224      6E666F00 
 4225              	.LASF39:
 4226 04ed 696D6569 		.ascii	"imei\000"
 4226      00
 4227              	.LASF35:
 4228 04f2 72656173 		.ascii	"reason\000"
 4228      6F6E00
 4229              	.LASF44:
 4230 04f9 6D6F6465 		.ascii	"modem_stats_t\000"
 4230      6D5F7374 
 4230      6174735F 
 4230      7400
 4231              	.LASF74:
 4232 0507 75617274 		.ascii	"uart_string_reset\000"
 4232      5F737472 
 4232      696E675F 
 4232      72657365 
 4232      7400
 4233              	.LASF30:
 4234 0519 746D5F77 		.ascii	"tm_wday\000"
 4234      64617900 
 4235              	.LASF73:
 4236 0521 6D6F6465 		.ascii	"modem_soft_power_cycle\000"
 4236      6D5F736F 
 4236      66745F70 
 4236      6F776572 
ARM GAS  C:\Users\HYFI_A~1\AppData\Local\Temp\ccHqIvXz.s 			page 93


 4236      5F637963 
 4237              	.LASF22:
 4238 0538 6C6F6E67 		.ascii	"long double\000"
 4238      20646F75 
 4238      626C6500 
 4239              	.LASF21:
 4240 0544 63686172 		.ascii	"char\000"
 4240      00
 4241              	.LASF92:
 4242 0549 6D6F6465 		.ascii	"modem_process_tasks\000"
 4242      6D5F7072 
 4242      6F636573 
 4242      735F7461 
 4242      736B7300 
 4243              	.LASF11:
 4244 055d 756E7369 		.ascii	"unsigned int\000"
 4244      676E6564 
 4244      20696E74 
 4244      00
 4245              	.LASF100:
 4246 056a 4346554E 		.ascii	"CFUN\000"
 4246      00
 4247              	.LASF38:
 4248 056f 6D6F6465 		.ascii	"model_id\000"
 4248      6C5F6964 
 4248      00
 4249              	.LASF124:
 4250 0578 68747470 		.ascii	"http_route\000"
 4250      5F726F75 
 4250      746500
 4251              	.LASF40:
 4252 0583 6D6F6465 		.ascii	"modem_info_t\000"
 4252      6D5F696E 
 4252      666F5F74 
 4252      00
 4253              	.LASF50:
 4254 0590 6770735F 		.ascii	"gps_t\000"
 4254      7400
 4255              	.LASF128:
 4256 0596 75617274 		.ascii	"uart_string_index\000"
 4256      5F737472 
 4256      696E675F 
 4256      696E6465 
 4256      7800
 4257              	.LASF96:
 4258 05a8 69735F63 		.ascii	"is_connected_to_internet\000"
 4258      6F6E6E65 
 4258      63746564 
 4258      5F746F5F 
 4258      696E7465 
 4259              	.LASF118:
 4260 05c1 6D6F6465 		.ascii	"modem_start_time_stamp\000"
 4260      6D5F7374 
 4260      6172745F 
 4260      74696D65 
 4260      5F737461 
 4261              	.LASF115:
ARM GAS  C:\Users\HYFI_A~1\AppData\Local\Temp\ccHqIvXz.s 			page 94


 4262 05d8 6770735F 		.ascii	"gps_status\000"
 4262      73746174 
 4262      757300
 4263              	.LASF65:
 4264 05e3 70696E73 		.ascii	"pins_configure_inactive\000"
 4264      5F636F6E 
 4264      66696775 
 4264      72655F69 
 4264      6E616374 
 4265              	.LASF37:
 4266 05fb 73696D5F 		.ascii	"sim_id\000"
 4266      696400
 4267              	.LASF55:
 4268 0602 63686970 		.ascii	"chip_uniqueId\000"
 4268      5F756E69 
 4268      71756549 
 4268      6400
 4269              	.LASF27:
 4270 0610 746D5F6D 		.ascii	"tm_mday\000"
 4270      64617900 
 4271              	.LASF49:
 4272 0618 76616C69 		.ascii	"valid\000"
 4272      6400
 4273              	.LASF107:
 4274 061e 6D696E75 		.ascii	"minute\000"
 4274      746500
 4275              	.LASF14:
 4276 0625 75696E74 		.ascii	"uint32_t\000"
 4276      33325F74 
 4276      00
 4277              	.LASF24:
 4278 062e 746D5F73 		.ascii	"tm_sec\000"
 4278      656300
 4279              	.LASF34:
 4280 0635 73746174 		.ascii	"status\000"
 4280      757300
 4281              	.LASF63:
 4282 063c 7379735F 		.ascii	"sys_settings_t\000"
 4282      73657474 
 4282      696E6773 
 4282      5F7400
 4283              	.LASF12:
 4284 064b 75696E74 		.ascii	"uint8_t\000"
 4284      385F7400 
 4285              	.LASF62:
 4286 0653 65705F64 		.ascii	"ep_database\000"
 4286      61746162 
 4286      61736500 
 4287              	.LASF68:
 4288 065f 61745F72 		.ascii	"at_ready\000"
 4288      65616479 
 4288      00
 4289              	.LASF71:
 4290 0668 61747465 		.ascii	"attempts\000"
 4290      6D707473 
 4290      00
 4291              	.LASF70:
ARM GAS  C:\Users\HYFI_A~1\AppData\Local\Temp\ccHqIvXz.s 			page 95


 4292 0671 626F6F74 		.ascii	"boot_time\000"
 4292      5F74696D 
 4292      6500
 4293              	.LASF76:
 4294 067b 65787065 		.ascii	"expected_response\000"
 4294      63746564 
 4294      5F726573 
 4294      706F6E73 
 4294      6500
 4295              	.LASF41:
 4296 068d 72737369 		.ascii	"rssi\000"
 4296      00
 4297              	.LASF114:
 4298 0692 6C6F636B 		.ascii	"lock_time\000"
 4298      5F74696D 
 4298      6500
 4299              	.LASF122:
 4300 069c 68747470 		.ascii	"http_request\000"
 4300      5F726571 
 4300      75657374 
 4300      00
 4301              	.LASF67:
 4302 06a9 6D6F6465 		.ascii	"modem_power_down\000"
 4302      6D5F706F 
 4302      7765725F 
 4302      646F776E 
 4302      00
 4303              	.LASF52:
 4304 06ba 74696D65 		.ascii	"timeStamp\000"
 4304      5374616D 
 4304      7000
 4305              		.ident	"GCC: (GNU Tools for ARM Embedded Processors) 5.4.1 20160609 (release) [ARM/embedded-5-bran
