ARM GAS  C:\Users\HYFI_A~1\AppData\Local\Temp\ccnKJpxh.s 			page 1


   1              		.syntax unified
   2              		.cpu cortex-m3
   3              		.fpu softvfp
   4              		.eabi_attribute 20, 1
   5              		.eabi_attribute 21, 1
   6              		.eabi_attribute 23, 3
   7              		.eabi_attribute 24, 1
   8              		.eabi_attribute 25, 1
   9              		.eabi_attribute 26, 1
  10              		.eabi_attribute 30, 6
  11              		.eabi_attribute 34, 1
  12              		.eabi_attribute 18, 4
  13              		.thumb
  14              		.syntax unified
  15              		.file	"modem.c"
  16              		.text
  17              	.Ltext0:
  18              		.cfi_sections	.debug_frame
  19              		.comm	modem_state,1,1
  20              		.comm	modem_start_time_stamp,4,4
  21              		.comm	modem_info,60,4
  22              		.comm	modem_stats,12,4
  23              		.syntax unified
  24              		.global _printf_float
  25              		.thumb
  26              		.syntax unified
  27              		.comm	dataPointsInStack,2,2
  28              		.comm	data,2200,4
  29              		.comm	http_request,4000,4
  30              		.comm	http_body,4000,4
  31              		.comm	http_route,200,4
  32              		.comm	system_info,28,4
  33              		.comm	system_settings,324,4
  34              		.comm	uart_received_string,1024,4
  35              		.global	uart_string_index
  36              		.bss
  37              		.type	uart_string_index, %object
  38              		.size	uart_string_index, 1
  39              	uart_string_index:
  40 0000 00       		.space	1
  41              		.section	.text.isr_telit_rx,"ax",%progbits
  42              		.align	2
  43              		.global	isr_telit_rx
  44              		.thumb
  45              		.thumb_func
  46              		.type	isr_telit_rx, %function
  47              	isr_telit_rx:
  48              	.LFB64:
  49              		.file 1 "modem.c"
   1:modem.c       **** //Methods for Telit modem 
   2:modem.c       **** #include "modem.h"
   3:modem.c       **** #include "notoriOS.h"
   4:modem.c       **** #include "debug.h"
   5:modem.c       **** #include <math.h>
   6:modem.c       **** #include <stdio.h>
   7:modem.c       **** 
   8:modem.c       **** char uart_received_string[1024];
ARM GAS  C:\Users\HYFI_A~1\AppData\Local\Temp\ccnKJpxh.s 			page 2


   9:modem.c       **** uint8_t uart_string_index=0;
  10:modem.c       **** 
  11:modem.c       **** #define DEFAULT_AT_TIMEOUT 2000u
  12:modem.c       **** #define NO_AT_TIMEOUT 0u
  13:modem.c       **** 
  14:modem.c       **** #define TIMEOUT_NETWORK_CONNECT 200 //seconds
  15:modem.c       **** #define TIMEOUT_IP_ACQUIRE 230 //seconds (cummulatinve) add to TIMEOUT_NETWORK_CONNECT
  16:modem.c       **** 
  17:modem.c       **** CY_ISR_PROTO(isr_telit_rx);
  18:modem.c       **** 
  19:modem.c       **** CY_ISR(isr_telit_rx){      
  50              		.loc 1 19 0
  51              		.cfi_startproc
  52              		@ args = 0, pretend = 0, frame = 0
  53              		@ frame_needed = 1, uses_anonymous_args = 0
  54 0000 98B5     		push	{r3, r4, r7, lr}
  55              		.cfi_def_cfa_offset 16
  56              		.cfi_offset 3, -16
  57              		.cfi_offset 4, -12
  58              		.cfi_offset 7, -8
  59              		.cfi_offset 14, -4
  60 0002 00AF     		add	r7, sp, #0
  61              		.cfi_def_cfa_register 7
  20:modem.c       ****     while(UART_Telit_GetRxBufferSize()==1){
  62              		.loc 1 20 0
  63 0004 0EE0     		b	.L2
  64              	.L3:
  21:modem.c       ****         uart_received_string[uart_string_index]=UART_Telit_GetChar();
  65              		.loc 1 21 0
  66 0006 0B4B     		ldr	r3, .L4
  67 0008 1B78     		ldrb	r3, [r3]	@ zero_extendqisi2
  68 000a 1C46     		mov	r4, r3
  69 000c FFF7FEFF 		bl	UART_Telit_GetChar
  70 0010 0346     		mov	r3, r0
  71 0012 1A46     		mov	r2, r3
  72 0014 084B     		ldr	r3, .L4+4
  73 0016 1A55     		strb	r2, [r3, r4]
  22:modem.c       ****         uart_string_index++;
  74              		.loc 1 22 0
  75 0018 064B     		ldr	r3, .L4
  76 001a 1B78     		ldrb	r3, [r3]	@ zero_extendqisi2
  77 001c 0133     		adds	r3, r3, #1
  78 001e DAB2     		uxtb	r2, r3
  79 0020 044B     		ldr	r3, .L4
  80 0022 1A70     		strb	r2, [r3]
  81              	.L2:
  20:modem.c       ****     while(UART_Telit_GetRxBufferSize()==1){
  82              		.loc 1 20 0
  83 0024 FFF7FEFF 		bl	UART_Telit_GetRxBufferSize
  84 0028 0346     		mov	r3, r0
  85 002a 012B     		cmp	r3, #1
  86 002c EBD0     		beq	.L3
  23:modem.c       ****     }
  24:modem.c       **** 
  25:modem.c       **** }
  87              		.loc 1 25 0
  88 002e 00BF     		nop
ARM GAS  C:\Users\HYFI_A~1\AppData\Local\Temp\ccnKJpxh.s 			page 3


  89 0030 98BD     		pop	{r3, r4, r7, pc}
  90              	.L5:
  91 0032 00BF     		.align	2
  92              	.L4:
  93 0034 00000000 		.word	uart_string_index
  94 0038 00000000 		.word	uart_received_string
  95              		.cfi_endproc
  96              	.LFE64:
  97              		.size	isr_telit_rx, .-isr_telit_rx
  98              		.section	.text.modem_intilize,"ax",%progbits
  99              		.align	2
 100              		.global	modem_intilize
 101              		.thumb
 102              		.thumb_func
 103              		.type	modem_intilize, %function
 104              	modem_intilize:
 105              	.LFB65:
  26:modem.c       **** 
  27:modem.c       **** 
  28:modem.c       **** void modem_intilize(){
 106              		.loc 1 28 0
 107              		.cfi_startproc
 108              		@ args = 0, pretend = 0, frame = 0
 109              		@ frame_needed = 1, uses_anonymous_args = 0
 110 0000 80B5     		push	{r7, lr}
 111              		.cfi_def_cfa_offset 8
 112              		.cfi_offset 7, -8
 113              		.cfi_offset 14, -4
 114 0002 00AF     		add	r7, sp, #0
 115              		.cfi_def_cfa_register 7
  29:modem.c       ****     //don't do much except make sure that all the modem pins are pulled low
  30:modem.c       ****     //also make sure that the TX PIN is fully disabled
  31:modem.c       ****     pins_configure_inactive();
 116              		.loc 1 31 0
 117 0004 FFF7FEFF 		bl	pins_configure_inactive
  32:modem.c       ****     modem_state = 0;
 118              		.loc 1 32 0
 119 0008 0F4B     		ldr	r3, .L7
 120 000a 0022     		movs	r2, #0
 121 000c 1A70     		strb	r2, [r3]
  33:modem.c       ****     //initilize states
  34:modem.c       ****     modem_info.imei[0] = '\0';
 122              		.loc 1 34 0
 123 000e 0F4B     		ldr	r3, .L7+4
 124 0010 0022     		movs	r2, #0
 125 0012 83F82820 		strb	r2, [r3, #40]
  35:modem.c       ****     modem_info.model_id[0] = '\0';
 126              		.loc 1 35 0
 127 0016 0D4B     		ldr	r3, .L7+4
 128 0018 0022     		movs	r2, #0
 129 001a 1A75     		strb	r2, [r3, #20]
  36:modem.c       ****     modem_info.sim_id[0] = '\0';
 130              		.loc 1 36 0
 131 001c 0B4B     		ldr	r3, .L7+4
 132 001e 0022     		movs	r2, #0
 133 0020 1A70     		strb	r2, [r3]
  37:modem.c       ****     modem_stats.sq = 0;
ARM GAS  C:\Users\HYFI_A~1\AppData\Local\Temp\ccnKJpxh.s 			page 4


 134              		.loc 1 37 0
 135 0022 0B4B     		ldr	r3, .L7+8
 136 0024 0022     		movs	r2, #0
 137 0026 5A70     		strb	r2, [r3, #1]
  38:modem.c       ****     modem_stats.rssi = 0;
 138              		.loc 1 38 0
 139 0028 094B     		ldr	r3, .L7+8
 140 002a 0022     		movs	r2, #0
 141 002c 1A70     		strb	r2, [r3]
  39:modem.c       ****     modem_stats.time_to_acquire_ip = 0;
 142              		.loc 1 39 0
 143 002e 084B     		ldr	r3, .L7+8
 144 0030 0022     		movs	r2, #0
 145 0032 9A60     		str	r2, [r3, #8]
  40:modem.c       ****     modem_stats.time_to_network_connect = 0;
 146              		.loc 1 40 0
 147 0034 064B     		ldr	r3, .L7+8
 148 0036 0022     		movs	r2, #0
 149 0038 5A60     		str	r2, [r3, #4]
  41:modem.c       ****     //disable the RX Pin interrupt, and only enable it during long timeouts
  42:modem.c       ****     Rx_Telit_SetInterruptMode(Rx_Telit_0_INTR,Rx_Telit_INTR_NONE);
 150              		.loc 1 42 0
 151 003a 0021     		movs	r1, #0
 152 003c 4020     		movs	r0, #64
 153 003e FFF7FEFF 		bl	Rx_Telit_SetInterruptMode
  43:modem.c       ****     
  44:modem.c       **** }
 154              		.loc 1 44 0
 155 0042 00BF     		nop
 156 0044 80BD     		pop	{r7, pc}
 157              	.L8:
 158 0046 00BF     		.align	2
 159              	.L7:
 160 0048 00000000 		.word	modem_state
 161 004c 00000000 		.word	modem_info
 162 0050 00000000 		.word	modem_stats
 163              		.cfi_endproc
 164              	.LFE65:
 165              		.size	modem_intilize, .-modem_intilize
 166              		.section	.text.pins_configure_inactive,"ax",%progbits
 167              		.align	2
 168              		.global	pins_configure_inactive
 169              		.thumb
 170              		.thumb_func
 171              		.type	pins_configure_inactive, %function
 172              	pins_configure_inactive:
 173              	.LFB66:
  45:modem.c       **** 
  46:modem.c       **** 
  47:modem.c       **** //to be used when the modem power is to be "killed" conpletely to conserve power
  48:modem.c       **** void pins_configure_inactive(){
 174              		.loc 1 48 0
 175              		.cfi_startproc
 176              		@ args = 0, pretend = 0, frame = 0
 177              		@ frame_needed = 1, uses_anonymous_args = 0
 178 0000 80B5     		push	{r7, lr}
 179              		.cfi_def_cfa_offset 8
ARM GAS  C:\Users\HYFI_A~1\AppData\Local\Temp\ccnKJpxh.s 			page 5


 180              		.cfi_offset 7, -8
 181              		.cfi_offset 14, -4
 182 0002 00AF     		add	r7, sp, #0
 183              		.cfi_def_cfa_register 7
  49:modem.c       ****    
  50:modem.c       ****     //physically disconect UART pin
  51:modem.c       ****    Telit_ControlReg_Write(0u);
 184              		.loc 1 51 0
 185 0004 0020     		movs	r0, #0
 186 0006 FFF7FEFF 		bl	Telit_ControlReg_Write
  52:modem.c       ****    //set drive mode
  53:modem.c       ****    Rx_Telit_SetDriveMode(PIN_DM_STRONG);
 187              		.loc 1 53 0
 188 000a 0C20     		movs	r0, #12
 189 000c FFF7FEFF 		bl	Rx_Telit_SetDriveMode
  54:modem.c       **** 
  55:modem.c       ****    //kill power to modem
  56:modem.c       ****    Pin_Telit_pwr_Write(OFF);
 190              		.loc 1 56 0
 191 0010 0020     		movs	r0, #0
 192 0012 FFF7FEFF 		bl	Pin_Telit_pwr_Write
  57:modem.c       **** 
  58:modem.c       ****    //pull down all of these, just in case
  59:modem.c       ****    Rx_Telit_Write(OFF); 
 193              		.loc 1 59 0
 194 0016 0020     		movs	r0, #0
 195 0018 FFF7FEFF 		bl	Rx_Telit_Write
  60:modem.c       ****    Tx_Telit_Write(OFF);
 196              		.loc 1 60 0
 197 001c 0020     		movs	r0, #0
 198 001e FFF7FEFF 		bl	Tx_Telit_Write
  61:modem.c       ****    Pin_Telit_ONOFF_Write(OFF);
 199              		.loc 1 61 0
 200 0022 0020     		movs	r0, #0
 201 0024 FFF7FEFF 		bl	Pin_Telit_ONOFF_Write
  62:modem.c       ****    Pin_Telit_SWRDY_Write(OFF);
 202              		.loc 1 62 0
 203 0028 0020     		movs	r0, #0
 204 002a FFF7FEFF 		bl	Pin_Telit_SWRDY_Write
  63:modem.c       ****     
  64:modem.c       **** }
 205              		.loc 1 64 0
 206 002e 00BF     		nop
 207 0030 80BD     		pop	{r7, pc}
 208              		.cfi_endproc
 209              	.LFE66:
 210              		.size	pins_configure_inactive, .-pins_configure_inactive
 211 0032 00BF     		.section	.text.pins_configure_active,"ax",%progbits
 212              		.align	2
 213              		.global	pins_configure_active
 214              		.thumb
 215              		.thumb_func
 216              		.type	pins_configure_active, %function
 217              	pins_configure_active:
 218              	.LFB67:
  65:modem.c       **** 
  66:modem.c       **** void pins_configure_active(){
ARM GAS  C:\Users\HYFI_A~1\AppData\Local\Temp\ccnKJpxh.s 			page 6


 219              		.loc 1 66 0
 220              		.cfi_startproc
 221              		@ args = 0, pretend = 0, frame = 0
 222              		@ frame_needed = 1, uses_anonymous_args = 0
 223 0000 80B5     		push	{r7, lr}
 224              		.cfi_def_cfa_offset 8
 225              		.cfi_offset 7, -8
 226              		.cfi_offset 14, -4
 227 0002 00AF     		add	r7, sp, #0
 228              		.cfi_def_cfa_register 7
  67:modem.c       ****     //powerup
  68:modem.c       ****     Rx_Telit_SetDriveMode(PIN_DM_DIG_HIZ);
 229              		.loc 1 68 0
 230 0004 0220     		movs	r0, #2
 231 0006 FFF7FEFF 		bl	Rx_Telit_SetDriveMode
  69:modem.c       ****     Telit_ControlReg_Write(1u);
 232              		.loc 1 69 0
 233 000a 0120     		movs	r0, #1
 234 000c FFF7FEFF 		bl	Telit_ControlReg_Write
  70:modem.c       ****     Pin_Telit_pwr_Write(ON);
 235              		.loc 1 70 0
 236 0010 0120     		movs	r0, #1
 237 0012 FFF7FEFF 		bl	Pin_Telit_pwr_Write
  71:modem.c       ****     CyDelay(100u);//give the MOSFET a few ms to stalbilise power 
 238              		.loc 1 71 0
 239 0016 6420     		movs	r0, #100
 240 0018 FFF7FEFF 		bl	CyDelay
  72:modem.c       **** }
 241              		.loc 1 72 0
 242 001c 00BF     		nop
 243 001e 80BD     		pop	{r7, pc}
 244              		.cfi_endproc
 245              	.LFE67:
 246              		.size	pins_configure_active, .-pins_configure_active
 247              		.section	.rodata
 248              		.align	2
 249              	.LC0:
 250 0000 4F4B00   		.ascii	"OK\000"
 251 0003 00       		.align	2
 252              	.LC1:
 253 0004 41542353 		.ascii	"AT#SHDN\015\000"
 253      48444E0D 
 253      00
 254              		.section	.text.modem_power_down,"ax",%progbits
 255              		.align	2
 256              		.global	modem_power_down
 257              		.thumb
 258              		.thumb_func
 259              		.type	modem_power_down, %function
 260              	modem_power_down:
 261              	.LFB68:
  73:modem.c       **** 
  74:modem.c       **** void modem_power_down(){
 262              		.loc 1 74 0
 263              		.cfi_startproc
 264              		@ args = 0, pretend = 0, frame = 0
 265              		@ frame_needed = 1, uses_anonymous_args = 0
ARM GAS  C:\Users\HYFI_A~1\AppData\Local\Temp\ccnKJpxh.s 			page 7


 266 0000 80B5     		push	{r7, lr}
 267              		.cfi_def_cfa_offset 8
 268              		.cfi_offset 7, -8
 269              		.cfi_offset 14, -4
 270 0002 00AF     		add	r7, sp, #0
 271              		.cfi_def_cfa_register 7
  75:modem.c       ****     
  76:modem.c       ****    at_write_command("AT#SHDN\r","OK",5000u); 
 272              		.loc 1 76 0
 273 0004 41F28832 		movw	r2, #5000
 274 0008 0A49     		ldr	r1, .L12
 275 000a 0B48     		ldr	r0, .L12+4
 276 000c FFF7FEFF 		bl	at_write_command
  77:modem.c       ****     
  78:modem.c       ****    modem_soft_power_cycle();
 277              		.loc 1 78 0
 278 0010 FFF7FEFF 		bl	modem_soft_power_cycle
  79:modem.c       ****    CyDelay(1000u);
 279              		.loc 1 79 0
 280 0014 4FF47A70 		mov	r0, #1000
 281 0018 FFF7FEFF 		bl	CyDelay
  80:modem.c       ****     
  81:modem.c       ****    UART_Telit_Stop();
 282              		.loc 1 81 0
 283 001c FFF7FEFF 		bl	UART_Telit_Stop
  82:modem.c       ****    isr_telit_rx_Stop();
 284              		.loc 1 82 0
 285 0020 FFF7FEFF 		bl	isr_telit_rx_Stop
  83:modem.c       ****    pins_configure_inactive();
 286              		.loc 1 83 0
 287 0024 FFF7FEFF 		bl	pins_configure_inactive
  84:modem.c       ****    modem_state = MODEM_STATE_OFF;
 288              		.loc 1 84 0
 289 0028 044B     		ldr	r3, .L12+8
 290 002a 0022     		movs	r2, #0
 291 002c 1A70     		strb	r2, [r3]
  85:modem.c       ****     
  86:modem.c       **** }
 292              		.loc 1 86 0
 293 002e 00BF     		nop
 294 0030 80BD     		pop	{r7, pc}
 295              	.L13:
 296 0032 00BF     		.align	2
 297              	.L12:
 298 0034 00000000 		.word	.LC0
 299 0038 04000000 		.word	.LC1
 300 003c 00000000 		.word	modem_state
 301              		.cfi_endproc
 302              	.LFE68:
 303              		.size	modem_power_down, .-modem_power_down
 304              		.section	.rodata
 305 000d 000000   		.align	2
 306              	.LC2:
 307 0010 41544530 		.ascii	"ATE0\015\000"
 307      0D00
 308 0016 0000     		.align	2
 309              	.LC3:
ARM GAS  C:\Users\HYFI_A~1\AppData\Local\Temp\ccnKJpxh.s 			page 8


 310 0018 4D6F6465 		.ascii	"Modem booot time: %d\000"
 310      6D20626F 
 310      6F6F7420 
 310      74696D65 
 310      3A202564 
 311 002d 000000   		.align	2
 312              	.LC4:
 313 0030 4D6F6465 		.ascii	"Modem ready for AT commands after %d attempt(s).\000"
 313      6D207265 
 313      61647920 
 313      666F7220 
 313      41542063 
 314 0061 000000   		.align	2
 315              	.LC5:
 316 0064 4E6F2072 		.ascii	"No response from modem.\000"
 316      6573706F 
 316      6E736520 
 316      66726F6D 
 316      206D6F64 
 317              		.section	.text.modem_power_up,"ax",%progbits
 318              		.align	2
 319              		.global	modem_power_up
 320              		.thumb
 321              		.thumb_func
 322              		.type	modem_power_up, %function
 323              	modem_power_up:
 324              	.LFB69:
  87:modem.c       **** 
  88:modem.c       **** //this puts all the modem pints into a state that won't leak power
  89:modem.c       **** //pleasde call restore_pins() to bring them abck to function when they are needed for UART
  90:modem.c       **** uint8 modem_power_up(){
 325              		.loc 1 90 0
 326              		.cfi_startproc
 327              		@ args = 0, pretend = 0, frame = 8
 328              		@ frame_needed = 1, uses_anonymous_args = 0
 329 0000 80B5     		push	{r7, lr}
 330              		.cfi_def_cfa_offset 8
 331              		.cfi_offset 7, -8
 332              		.cfi_offset 14, -4
 333 0002 82B0     		sub	sp, sp, #8
 334              		.cfi_def_cfa_offset 16
 335 0004 00AF     		add	r7, sp, #0
 336              		.cfi_def_cfa_register 7
  91:modem.c       **** 
  92:modem.c       ****     pins_configure_active();//turns on power and configures all UART pin modes
 337              		.loc 1 92 0
 338 0006 FFF7FEFF 		bl	pins_configure_active
  93:modem.c       ****     UART_Telit_Start();
 339              		.loc 1 93 0
 340 000a FFF7FEFF 		bl	UART_Telit_Start
  94:modem.c       ****     isr_telit_rx_StartEx(isr_telit_rx);
 341              		.loc 1 94 0
 342 000e 2C48     		ldr	r0, .L27
 343 0010 FFF7FEFF 		bl	isr_telit_rx_StartEx
  95:modem.c       **** 
  96:modem.c       ****     modem_soft_power_cycle();
 344              		.loc 1 96 0
ARM GAS  C:\Users\HYFI_A~1\AppData\Local\Temp\ccnKJpxh.s 			page 9


 345 0014 FFF7FEFF 		bl	modem_soft_power_cycle
  97:modem.c       ****     
  98:modem.c       ****     //turn off ECHO command
  99:modem.c       ****     uint8 at_ready = 0;
 346              		.loc 1 99 0
 347 0018 0023     		movs	r3, #0
 348 001a FB71     		strb	r3, [r7, #7]
 100:modem.c       ****     uint8 attemps = 0;
 349              		.loc 1 100 0
 350 001c 0023     		movs	r3, #0
 351 001e 3B71     		strb	r3, [r7, #4]
 101:modem.c       ****     long boot_time = getTimeStamp();
 352              		.loc 1 101 0
 353 0020 FFF7FEFF 		bl	getTimeStamp
 354 0024 3860     		str	r0, [r7]
 355              	.LBB2:
 102:modem.c       ****     
 103:modem.c       ****     //it takes the 4G modem 10+secs (max 20) to boot up, so keep hitting it with AT commands until 
 104:modem.c       ****     for(uint8 attempts = 0; attempts<3; attempts++){
 356              		.loc 1 104 0
 357 0026 0023     		movs	r3, #0
 358 0028 BB71     		strb	r3, [r7, #6]
 359 002a 1CE0     		b	.L15
 360              	.L22:
 361              	.LBB3:
 105:modem.c       ****         
 106:modem.c       ****         for(uint8 pwr_check = 0; pwr_check<20; pwr_check++){
 362              		.loc 1 106 0
 363 002c 0023     		movs	r3, #0
 364 002e 7B71     		strb	r3, [r7, #5]
 365 0030 0EE0     		b	.L16
 366              	.L19:
 107:modem.c       ****             if(at_write_command("ATE0\r","OK",1000u)){
 367              		.loc 1 107 0
 368 0032 4FF47A72 		mov	r2, #1000
 369 0036 2349     		ldr	r1, .L27+4
 370 0038 2348     		ldr	r0, .L27+8
 371 003a FFF7FEFF 		bl	at_write_command
 372 003e 0346     		mov	r3, r0
 373 0040 002B     		cmp	r3, #0
 374 0042 02D0     		beq	.L17
 108:modem.c       ****                 at_ready = 1;
 375              		.loc 1 108 0
 376 0044 0123     		movs	r3, #1
 377 0046 FB71     		strb	r3, [r7, #7]
 109:modem.c       ****                 break;
 378              		.loc 1 109 0
 379 0048 05E0     		b	.L18
 380              	.L17:
 106:modem.c       ****             if(at_write_command("ATE0\r","OK",1000u)){
 381              		.loc 1 106 0 discriminator 2
 382 004a 7B79     		ldrb	r3, [r7, #5]	@ zero_extendqisi2
 383 004c 0133     		adds	r3, r3, #1
 384 004e 7B71     		strb	r3, [r7, #5]
 385              	.L16:
 106:modem.c       ****             if(at_write_command("ATE0\r","OK",1000u)){
 386              		.loc 1 106 0 is_stmt 0 discriminator 1
ARM GAS  C:\Users\HYFI_A~1\AppData\Local\Temp\ccnKJpxh.s 			page 10


 387 0050 7B79     		ldrb	r3, [r7, #5]	@ zero_extendqisi2
 388 0052 132B     		cmp	r3, #19
 389 0054 EDD9     		bls	.L19
 390              	.L18:
 391              	.LBE3:
 110:modem.c       ****             }
 111:modem.c       ****         }
 112:modem.c       ****             
 113:modem.c       ****         if(at_ready == 1){
 392              		.loc 1 113 0 is_stmt 1
 393 0056 FB79     		ldrb	r3, [r7, #7]	@ zero_extendqisi2
 394 0058 012B     		cmp	r3, #1
 395 005a 08D0     		beq	.L26
 114:modem.c       ****             break;
 115:modem.c       ****         }else{
 116:modem.c       ****             modem_soft_power_cycle();
 396              		.loc 1 116 0 discriminator 2
 397 005c FFF7FEFF 		bl	modem_soft_power_cycle
 104:modem.c       ****         
 398              		.loc 1 104 0 discriminator 2
 399 0060 BB79     		ldrb	r3, [r7, #6]	@ zero_extendqisi2
 400 0062 0133     		adds	r3, r3, #1
 401 0064 BB71     		strb	r3, [r7, #6]
 402              	.L15:
 104:modem.c       ****         
 403              		.loc 1 104 0 is_stmt 0 discriminator 1
 404 0066 BB79     		ldrb	r3, [r7, #6]	@ zero_extendqisi2
 405 0068 022B     		cmp	r3, #2
 406 006a DFD9     		bls	.L22
 407 006c 00E0     		b	.L21
 408              	.L26:
 114:modem.c       ****             break;
 409              		.loc 1 114 0 is_stmt 1
 410 006e 00BF     		nop
 411              	.L21:
 412              	.LBE2:
 117:modem.c       ****         }
 118:modem.c       ****     }
 119:modem.c       ****     
 120:modem.c       ****     boot_time = getTimeStamp() - boot_time;
 413              		.loc 1 120 0
 414 0070 FFF7FEFF 		bl	getTimeStamp
 415 0074 0246     		mov	r2, r0
 416 0076 3B68     		ldr	r3, [r7]
 417 0078 D31A     		subs	r3, r2, r3
 418 007a 3B60     		str	r3, [r7]
 121:modem.c       ****     printNotif(NOTIF_TYPE_EVENT,"Modem booot time: %d",boot_time);
 419              		.loc 1 121 0
 420 007c 3A68     		ldr	r2, [r7]
 421 007e 1349     		ldr	r1, .L27+12
 422 0080 0020     		movs	r0, #0
 423 0082 FFF7FEFF 		bl	printNotif
 122:modem.c       ****     
 123:modem.c       ****     if(at_ready == 1){
 424              		.loc 1 123 0
 425 0086 FB79     		ldrb	r3, [r7, #7]	@ zero_extendqisi2
 426 0088 012B     		cmp	r3, #1
ARM GAS  C:\Users\HYFI_A~1\AppData\Local\Temp\ccnKJpxh.s 			page 11


 427 008a 0AD1     		bne	.L23
 124:modem.c       ****         printNotif(NOTIF_TYPE_EVENT,"Modem ready for AT commands after %d attempt(s).",attemps);
 428              		.loc 1 124 0
 429 008c 3B79     		ldrb	r3, [r7, #4]	@ zero_extendqisi2
 430 008e 1A46     		mov	r2, r3
 431 0090 0F49     		ldr	r1, .L27+16
 432 0092 0020     		movs	r0, #0
 433 0094 FFF7FEFF 		bl	printNotif
 125:modem.c       ****         modem_state = MODEM_STATE_STARTUP;
 434              		.loc 1 125 0
 435 0098 0E4B     		ldr	r3, .L27+20
 436 009a 0122     		movs	r2, #1
 437 009c 1A70     		strb	r2, [r3]
 126:modem.c       ****     }else{
 127:modem.c       ****         printNotif(NOTIF_TYPE_ERROR,"No response from modem.");
 128:modem.c       ****         modem_state = MODEM_STATE_OFF;
 129:modem.c       ****         modem_power_down();
 130:modem.c       ****         return 0u;
 131:modem.c       ****     }
 132:modem.c       ****     return 1u;
 438              		.loc 1 132 0
 439 009e 0123     		movs	r3, #1
 440 00a0 09E0     		b	.L25
 441              	.L23:
 127:modem.c       ****         modem_state = MODEM_STATE_OFF;
 442              		.loc 1 127 0
 443 00a2 0D49     		ldr	r1, .L27+24
 444 00a4 0220     		movs	r0, #2
 445 00a6 FFF7FEFF 		bl	printNotif
 128:modem.c       ****         modem_power_down();
 446              		.loc 1 128 0
 447 00aa 0A4B     		ldr	r3, .L27+20
 448 00ac 0022     		movs	r2, #0
 449 00ae 1A70     		strb	r2, [r3]
 129:modem.c       ****         return 0u;
 450              		.loc 1 129 0
 451 00b0 FFF7FEFF 		bl	modem_power_down
 130:modem.c       ****     }
 452              		.loc 1 130 0
 453 00b4 0023     		movs	r3, #0
 454              	.L25:
 133:modem.c       **** }
 455              		.loc 1 133 0
 456 00b6 1846     		mov	r0, r3
 457 00b8 0837     		adds	r7, r7, #8
 458              		.cfi_def_cfa_offset 8
 459 00ba BD46     		mov	sp, r7
 460              		.cfi_def_cfa_register 13
 461              		@ sp needed
 462 00bc 80BD     		pop	{r7, pc}
 463              	.L28:
 464 00be 00BF     		.align	2
 465              	.L27:
 466 00c0 00000000 		.word	isr_telit_rx
 467 00c4 00000000 		.word	.LC0
 468 00c8 10000000 		.word	.LC2
 469 00cc 18000000 		.word	.LC3
ARM GAS  C:\Users\HYFI_A~1\AppData\Local\Temp\ccnKJpxh.s 			page 12


 470 00d0 30000000 		.word	.LC4
 471 00d4 00000000 		.word	modem_state
 472 00d8 64000000 		.word	.LC5
 473              		.cfi_endproc
 474              	.LFE69:
 475              		.size	modem_power_up, .-modem_power_up
 476              		.section	.text.modem_soft_power_cycle,"ax",%progbits
 477              		.align	2
 478              		.global	modem_soft_power_cycle
 479              		.thumb
 480              		.thumb_func
 481              		.type	modem_soft_power_cycle, %function
 482              	modem_soft_power_cycle:
 483              	.LFB70:
 134:modem.c       **** 
 135:modem.c       **** void modem_soft_power_cycle(){
 484              		.loc 1 135 0
 485              		.cfi_startproc
 486              		@ args = 0, pretend = 0, frame = 0
 487              		@ frame_needed = 1, uses_anonymous_args = 0
 488 0000 80B5     		push	{r7, lr}
 489              		.cfi_def_cfa_offset 8
 490              		.cfi_offset 7, -8
 491              		.cfi_offset 14, -4
 492 0002 00AF     		add	r7, sp, #0
 493              		.cfi_def_cfa_register 7
 136:modem.c       ****     Pin_Telit_ONOFF_Write(1u);
 494              		.loc 1 136 0
 495 0004 0120     		movs	r0, #1
 496 0006 FFF7FEFF 		bl	Pin_Telit_ONOFF_Write
 137:modem.c       ****     CyDelay(2000u);//give modem a sec to boot
 497              		.loc 1 137 0
 498 000a 4FF4FA60 		mov	r0, #2000
 499 000e FFF7FEFF 		bl	CyDelay
 138:modem.c       ****     Pin_Telit_ONOFF_Write(0u);
 500              		.loc 1 138 0
 501 0012 0020     		movs	r0, #0
 502 0014 FFF7FEFF 		bl	Pin_Telit_ONOFF_Write
 139:modem.c       ****     
 140:modem.c       **** }
 503              		.loc 1 140 0
 504 0018 00BF     		nop
 505 001a 80BD     		pop	{r7, pc}
 506              		.cfi_endproc
 507              	.LFE70:
 508              		.size	modem_soft_power_cycle, .-modem_soft_power_cycle
 509              		.section	.text.uart_string_reset,"ax",%progbits
 510              		.align	2
 511              		.global	uart_string_reset
 512              		.thumb
 513              		.thumb_func
 514              		.type	uart_string_reset, %function
 515              	uart_string_reset:
 516              	.LFB71:
 141:modem.c       **** 
 142:modem.c       **** 
 143:modem.c       **** void uart_string_reset(){
ARM GAS  C:\Users\HYFI_A~1\AppData\Local\Temp\ccnKJpxh.s 			page 13


 517              		.loc 1 143 0
 518              		.cfi_startproc
 519              		@ args = 0, pretend = 0, frame = 0
 520              		@ frame_needed = 1, uses_anonymous_args = 0
 521 0000 80B5     		push	{r7, lr}
 522              		.cfi_def_cfa_offset 8
 523              		.cfi_offset 7, -8
 524              		.cfi_offset 14, -4
 525 0002 00AF     		add	r7, sp, #0
 526              		.cfi_def_cfa_register 7
 144:modem.c       ****     uart_string_index=0;
 527              		.loc 1 144 0
 528 0004 064B     		ldr	r3, .L31
 529 0006 0022     		movs	r2, #0
 530 0008 1A70     		strb	r2, [r3]
 145:modem.c       ****     memset(uart_received_string,'\0',sizeof(uart_received_string));
 531              		.loc 1 145 0
 532 000a 4FF48062 		mov	r2, #1024
 533 000e 0021     		movs	r1, #0
 534 0010 0448     		ldr	r0, .L31+4
 535 0012 FFF7FEFF 		bl	memset
 146:modem.c       ****     UART_Telit_ClearRxBuffer();
 536              		.loc 1 146 0
 537 0016 FFF7FEFF 		bl	UART_Telit_ClearRxBuffer
 147:modem.c       **** }
 538              		.loc 1 147 0
 539 001a 00BF     		nop
 540 001c 80BD     		pop	{r7, pc}
 541              	.L32:
 542 001e 00BF     		.align	2
 543              	.L31:
 544 0020 00000000 		.word	uart_string_index
 545 0024 00000000 		.word	uart_received_string
 546              		.cfi_endproc
 547              	.LFE71:
 548              		.size	uart_string_reset, .-uart_string_reset
 549              		.section	.rodata
 550              		.align	2
 551              	.LC6:
 552 007c 4D6F6465 		.ascii	"Modem sent AT command without timeout: %s\015\012\000"
 552      6D207365 
 552      6E742041 
 552      5420636F 
 552      6D6D616E 
 553              		.align	2
 554              	.LC7:
 555 00a8 4D6F6465 		.ascii	"Modem Received expected AT Response on first Try:\012"
 555      6D205265 
 555      63656976 
 555      65642065 
 555      78706563 
 556 00da 436F6D6D 		.ascii	"Command: %s\012Received: %s\015\012\000"
 556      616E643A 
 556      2025730A 
 556      52656365 
 556      69766564 
 557 00f5 000000   		.align	2
ARM GAS  C:\Users\HYFI_A~1\AppData\Local\Temp\ccnKJpxh.s 			page 14


 558              	.LC8:
 559 00f8 4D6F6465 		.ascii	"Modem required %d tries to receive AT Response: %s\015"
 559      6D207265 
 559      71756972 
 559      65642025 
 559      64207472 
 560 012b 0A00     		.ascii	"\012\000"
 561 012d 000000   		.align	2
 562              	.LC9:
 563 0130 436F756C 		.ascii	"Could not write AT command: %s\012 Received: %s\012"
 563      64206E6F 
 563      74207772 
 563      69746520 
 563      41542063 
 564 015d 00       		.ascii	"\000"
 565              		.section	.text.at_write_command,"ax",%progbits
 566              		.align	2
 567              		.global	at_write_command
 568              		.thumb
 569              		.thumb_func
 570              		.type	at_write_command, %function
 571              	at_write_command:
 572              	.LFB72:
 148:modem.c       **** 
 149:modem.c       **** uint8_t at_write_command(char* commands, char* expected_response,uint32_t timeout){
 573              		.loc 1 149 0
 574              		.cfi_startproc
 575              		@ args = 0, pretend = 0, frame = 40
 576              		@ frame_needed = 1, uses_anonymous_args = 0
 577 0000 80B5     		push	{r7, lr}
 578              		.cfi_def_cfa_offset 8
 579              		.cfi_offset 7, -8
 580              		.cfi_offset 14, -4
 581 0002 8AB0     		sub	sp, sp, #40
 582              		.cfi_def_cfa_offset 48
 583 0004 00AF     		add	r7, sp, #0
 584              		.cfi_def_cfa_register 7
 585 0006 F860     		str	r0, [r7, #12]
 586 0008 B960     		str	r1, [r7, #8]
 587 000a 7A60     		str	r2, [r7, #4]
 150:modem.c       **** 
 151:modem.c       ****     uint32 at_attempt = 0;
 588              		.loc 1 151 0
 589 000c 0023     		movs	r3, #0
 590 000e 7B62     		str	r3, [r7, #36]
 152:modem.c       ****     
 153:modem.c       ****     for(at_attempt = 0; at_attempt < 3; at_attempt++) {
 591              		.loc 1 153 0
 592 0010 0023     		movs	r3, #0
 593 0012 7B62     		str	r3, [r7, #36]
 594 0014 46E0     		b	.L34
 595              	.L42:
 596              	.LBB4:
 154:modem.c       ****         
 155:modem.c       ****         char* compare_location;
 156:modem.c       ****         uint32_t delay=10;
 597              		.loc 1 156 0
ARM GAS  C:\Users\HYFI_A~1\AppData\Local\Temp\ccnKJpxh.s 			page 15


 598 0016 0A23     		movs	r3, #10
 599 0018 FB61     		str	r3, [r7, #28]
 157:modem.c       ****         uint32_t i, interval=timeout/delay;        
 600              		.loc 1 157 0
 601 001a 7A68     		ldr	r2, [r7, #4]
 602 001c FB69     		ldr	r3, [r7, #28]
 603 001e B2FBF3F3 		udiv	r3, r2, r3
 604 0022 BB61     		str	r3, [r7, #24]
 158:modem.c       ****         
 159:modem.c       ****         uart_string_reset();
 605              		.loc 1 159 0
 606 0024 FFF7FEFF 		bl	uart_string_reset
 160:modem.c       ****         
 161:modem.c       ****         UART_Telit_PutString(commands);
 607              		.loc 1 161 0
 608 0028 F868     		ldr	r0, [r7, #12]
 609 002a FFF7FEFF 		bl	UART_Telit_PutString
 162:modem.c       ****         
 163:modem.c       ****         
 164:modem.c       ****         //if no timeout, no need to wait for response
 165:modem.c       ****         if(timeout == NO_AT_TIMEOUT){
 610              		.loc 1 165 0
 611 002e 7B68     		ldr	r3, [r7, #4]
 612 0030 002B     		cmp	r3, #0
 613 0032 06D1     		bne	.L35
 166:modem.c       ****             printNotif(NOTIF_TYPE_EVENT,"Modem sent AT command without timeout: %s\r\n", commands);
 614              		.loc 1 166 0
 615 0034 FA68     		ldr	r2, [r7, #12]
 616 0036 1F49     		ldr	r1, .L43
 617 0038 0020     		movs	r0, #0
 618 003a FFF7FEFF 		bl	printNotif
 167:modem.c       ****             return 1u;
 619              		.loc 1 167 0
 620 003e 0123     		movs	r3, #1
 621 0040 34E0     		b	.L36
 622              	.L35:
 168:modem.c       ****         }
 169:modem.c       ****       
 170:modem.c       ****      
 171:modem.c       ****         for(i=0;i<interval;i++){ 
 623              		.loc 1 171 0
 624 0042 0023     		movs	r3, #0
 625 0044 3B62     		str	r3, [r7, #32]
 626 0046 20E0     		b	.L37
 627              	.L41:
 172:modem.c       ****             CyDelay((uint32) delay);
 628              		.loc 1 172 0
 629 0048 F869     		ldr	r0, [r7, #28]
 630 004a FFF7FEFF 		bl	CyDelay
 173:modem.c       ****             compare_location=strstr(uart_received_string,expected_response);        
 631              		.loc 1 173 0
 632 004e B968     		ldr	r1, [r7, #8]
 633 0050 1948     		ldr	r0, .L43+4
 634 0052 FFF7FEFF 		bl	strstr
 635 0056 7861     		str	r0, [r7, #20]
 174:modem.c       ****             if(compare_location!=NULL) {
 636              		.loc 1 174 0
ARM GAS  C:\Users\HYFI_A~1\AppData\Local\Temp\ccnKJpxh.s 			page 16


 637 0058 7B69     		ldr	r3, [r7, #20]
 638 005a 002B     		cmp	r3, #0
 639 005c 12D0     		beq	.L38
 175:modem.c       ****                 if (at_attempt == 0){
 640              		.loc 1 175 0
 641 005e 7B6A     		ldr	r3, [r7, #36]
 642 0060 002B     		cmp	r3, #0
 643 0062 06D1     		bne	.L39
 176:modem.c       ****                    printNotif(NOTIF_TYPE_EVENT,"Modem Received expected AT Response on first Try:\n
 644              		.loc 1 176 0
 645 0064 144B     		ldr	r3, .L43+4
 646 0066 FA68     		ldr	r2, [r7, #12]
 647 0068 1449     		ldr	r1, .L43+8
 648 006a 0020     		movs	r0, #0
 649 006c FFF7FEFF 		bl	printNotif
 650 0070 06E0     		b	.L40
 651              	.L39:
 177:modem.c       ****                 }else{
 178:modem.c       ****                    printNotif(NOTIF_TYPE_WARNING,"Modem required %d tries to receive AT Response: %
 652              		.loc 1 178 0
 653 0072 7B6A     		ldr	r3, [r7, #36]
 654 0074 5A1C     		adds	r2, r3, #1
 655 0076 104B     		ldr	r3, .L43+4
 656 0078 1149     		ldr	r1, .L43+12
 657 007a 0120     		movs	r0, #1
 658 007c FFF7FEFF 		bl	printNotif
 659              	.L40:
 179:modem.c       ****                  
 180:modem.c       ****                 }
 181:modem.c       ****                  return(1);
 660              		.loc 1 181 0
 661 0080 0123     		movs	r3, #1
 662 0082 13E0     		b	.L36
 663              	.L38:
 171:modem.c       ****             CyDelay((uint32) delay);
 664              		.loc 1 171 0 discriminator 2
 665 0084 3B6A     		ldr	r3, [r7, #32]
 666 0086 0133     		adds	r3, r3, #1
 667 0088 3B62     		str	r3, [r7, #32]
 668              	.L37:
 171:modem.c       ****             CyDelay((uint32) delay);
 669              		.loc 1 171 0 is_stmt 0 discriminator 1
 670 008a 3A6A     		ldr	r2, [r7, #32]
 671 008c BB69     		ldr	r3, [r7, #24]
 672 008e 9A42     		cmp	r2, r3
 673 0090 DAD3     		bcc	.L41
 182:modem.c       ****             }
 183:modem.c       ****             
 184:modem.c       ****         }  
 185:modem.c       ****         
 186:modem.c       ****         //somehitng went wrong, restart UARt
 187:modem.c       ****         printNotif(NOTIF_TYPE_ERROR,"Could not write AT command: %s\n Received: %s\n", commands,uar
 674              		.loc 1 187 0 is_stmt 1 discriminator 2
 675 0092 094B     		ldr	r3, .L43+4
 676 0094 FA68     		ldr	r2, [r7, #12]
 677 0096 0B49     		ldr	r1, .L43+16
 678 0098 0220     		movs	r0, #2
ARM GAS  C:\Users\HYFI_A~1\AppData\Local\Temp\ccnKJpxh.s 			page 17


 679 009a FFF7FEFF 		bl	printNotif
 680              	.LBE4:
 153:modem.c       ****         
 681              		.loc 1 153 0 discriminator 2
 682 009e 7B6A     		ldr	r3, [r7, #36]
 683 00a0 0133     		adds	r3, r3, #1
 684 00a2 7B62     		str	r3, [r7, #36]
 685              	.L34:
 153:modem.c       ****         
 686              		.loc 1 153 0 is_stmt 0 discriminator 1
 687 00a4 7B6A     		ldr	r3, [r7, #36]
 688 00a6 022B     		cmp	r3, #2
 689 00a8 B5D9     		bls	.L42
 188:modem.c       ****       
 189:modem.c       ****     }
 190:modem.c       ****    // printNotif(NOTIF_TYPE_ERROR,"Modem AT response timeout: %s\r\n", commands);
 191:modem.c       ****           
 192:modem.c       ****     return(0);    
 690              		.loc 1 192 0 is_stmt 1
 691 00aa 0023     		movs	r3, #0
 692              	.L36:
 193:modem.c       **** }
 693              		.loc 1 193 0
 694 00ac 1846     		mov	r0, r3
 695 00ae 2837     		adds	r7, r7, #40
 696              		.cfi_def_cfa_offset 8
 697 00b0 BD46     		mov	sp, r7
 698              		.cfi_def_cfa_register 13
 699              		@ sp needed
 700 00b2 80BD     		pop	{r7, pc}
 701              	.L44:
 702              		.align	2
 703              	.L43:
 704 00b4 7C000000 		.word	.LC6
 705 00b8 00000000 		.word	uart_received_string
 706 00bc A8000000 		.word	.LC7
 707 00c0 F8000000 		.word	.LC8
 708 00c4 30010000 		.word	.LC9
 709              		.cfi_endproc
 710              	.LFE72:
 711              		.size	at_write_command, .-at_write_command
 712              		.section	.rodata
 713 015e 0000     		.align	2
 714              	.LC10:
 715 0160 54455354 		.ascii	"TEST_MODEM\000"
 715      5F4D4F44 
 715      454D00
 716 016b 00       		.align	2
 717              	.LC11:
 718 016c 4E6F2072 		.ascii	"No reponse from modem.\000"
 718      65706F6E 
 718      73652066 
 718      726F6D20 
 718      6D6F6465 
 719 0183 00       		.align	2
 720              	.LC12:
 721 0184 4D6F6465 		.ascii	"Modem connected to network.\000"
ARM GAS  C:\Users\HYFI_A~1\AppData\Local\Temp\ccnKJpxh.s 			page 18


 721      6D20636F 
 721      6E6E6563 
 721      74656420 
 721      746F206E 
 722              		.section	.text.modem_test,"ax",%progbits
 723              		.align	2
 724              		.global	modem_test
 725              		.thumb
 726              		.thumb_func
 727              		.type	modem_test, %function
 728              	modem_test:
 729              	.LFB73:
 194:modem.c       **** 
 195:modem.c       **** test_t modem_test(){
 730              		.loc 1 195 0
 731              		.cfi_startproc
 732              		@ args = 0, pretend = 0, frame = 408
 733              		@ frame_needed = 1, uses_anonymous_args = 0
 734 0000 B0B5     		push	{r4, r5, r7, lr}
 735              		.cfi_def_cfa_offset 16
 736              		.cfi_offset 4, -16
 737              		.cfi_offset 5, -12
 738              		.cfi_offset 7, -8
 739              		.cfi_offset 14, -4
 740 0002 E6B0     		sub	sp, sp, #408
 741              		.cfi_def_cfa_offset 424
 742 0004 00AF     		add	r7, sp, #0
 743              		.cfi_def_cfa_register 7
 744 0006 3B1D     		adds	r3, r7, #4
 745 0008 1860     		str	r0, [r3]
 196:modem.c       ****     
 197:modem.c       ****     test_t test;
 198:modem.c       ****     test.status = 0;
 746              		.loc 1 198 0
 747 000a 07F10C03 		add	r3, r7, #12
 748 000e 0022     		movs	r2, #0
 749 0010 83F88020 		strb	r2, [r3, #128]
 199:modem.c       ****     snprintf(test.test_name,sizeof(test.test_name),"TEST_MODEM");
 750              		.loc 1 199 0
 751 0014 07F10C03 		add	r3, r7, #12
 752 0018 354A     		ldr	r2, .L53
 753 001a 07CA     		ldmia	r2, {r0, r1, r2}
 754 001c 03C3     		stmia	r3!, {r0, r1}
 755 001e 1A80     		strh	r2, [r3]	@ movhi
 756 0020 0233     		adds	r3, r3, #2
 757 0022 120C     		lsrs	r2, r2, #16
 758 0024 1A70     		strb	r2, [r3]
 200:modem.c       ****     snprintf(test.reason,sizeof(test.reason),"No reponse from modem.");
 759              		.loc 1 200 0
 760 0026 07F10C03 		add	r3, r7, #12
 761 002a 8133     		adds	r3, r3, #129
 762 002c 314A     		ldr	r2, .L53+4
 763 002e 1C46     		mov	r4, r3
 764 0030 1546     		mov	r5, r2
 765 0032 0FCD     		ldmia	r5!, {r0, r1, r2, r3}
 766 0034 2060     		str	r0, [r4]	@ unaligned
 767 0036 6160     		str	r1, [r4, #4]	@ unaligned
ARM GAS  C:\Users\HYFI_A~1\AppData\Local\Temp\ccnKJpxh.s 			page 19


 768 0038 A260     		str	r2, [r4, #8]	@ unaligned
 769 003a E360     		str	r3, [r4, #12]	@ unaligned
 770 003c 2868     		ldr	r0, [r5]	@ unaligned
 771 003e 2061     		str	r0, [r4, #16]	@ unaligned
 772 0040 AB88     		ldrh	r3, [r5, #4]	@ unaligned
 773 0042 AA79     		ldrb	r2, [r5, #6]
 774 0044 A382     		strh	r3, [r4, #20]	@ unaligned
 775 0046 1346     		mov	r3, r2
 776 0048 A375     		strb	r3, [r4, #22]
 777              	.LBB5:
 201:modem.c       ****    
 202:modem.c       ****     //try the modem 60*100 (60 secs)
 203:modem.c       ****     for(int i = 0; i< 60; i++){
 778              		.loc 1 203 0
 779 004a 0023     		movs	r3, #0
 780 004c C7F89431 		str	r3, [r7, #404]
 781 0050 39E0     		b	.L46
 782              	.L51:
 204:modem.c       ****         
 205:modem.c       ****       modem_process_tasks();
 783              		.loc 1 205 0
 784 0052 FFF7FEFF 		bl	modem_process_tasks
 206:modem.c       ****          
 207:modem.c       ****       if(modem_get_state() == MODEM_STATE_OFF){
 785              		.loc 1 207 0
 786 0056 FFF7FEFF 		bl	modem_get_state
 787 005a 0346     		mov	r3, r0
 788 005c 002B     		cmp	r3, #0
 789 005e 02D1     		bne	.L47
 208:modem.c       ****             
 209:modem.c       ****             modem_power_up();
 790              		.loc 1 209 0
 791 0060 FFF7FEFF 		bl	modem_power_up
 792 0064 27E0     		b	.L48
 793              	.L47:
 210:modem.c       ****             //should put this on a max_try counter, so we don't just keep trying to connect over an
 211:modem.c       ****             
 212:modem.c       ****       }else if(modem_get_state() == MODEM_STATE_READY){
 794              		.loc 1 212 0
 795 0066 FFF7FEFF 		bl	modem_get_state
 796 006a 0346     		mov	r3, r0
 797 006c 042B     		cmp	r3, #4
 798 006e 22D1     		bne	.L48
 799              	.LBB6:
 213:modem.c       ****         
 214:modem.c       ****         
 215:modem.c       ****         //get time, and if it looks good, set the RTC with it
 216:modem.c       ****         long network_time = modem_get_network_time();
 800              		.loc 1 216 0
 801 0070 FFF7FEFF 		bl	modem_get_network_time
 802 0074 C7F89001 		str	r0, [r7, #400]
 217:modem.c       ****         if(network_time != 0){
 803              		.loc 1 217 0
 804 0078 D7F89031 		ldr	r3, [r7, #400]
 805 007c 002B     		cmp	r3, #0
 806 007e 03D0     		beq	.L49
 218:modem.c       ****                setTime(network_time);
ARM GAS  C:\Users\HYFI_A~1\AppData\Local\Temp\ccnKJpxh.s 			page 20


 807              		.loc 1 218 0
 808 0080 D7F89001 		ldr	r0, [r7, #400]
 809 0084 FFF7FEFF 		bl	setTime
 810              	.L49:
 219:modem.c       ****         }
 220:modem.c       ****             
 221:modem.c       ****         snprintf(test.reason,sizeof(test.reason),"Modem connected to network.");
 811              		.loc 1 221 0
 812 0088 07F10C03 		add	r3, r7, #12
 813 008c 8133     		adds	r3, r3, #129
 814 008e 1A4A     		ldr	r2, .L53+8
 815 0090 1D46     		mov	r5, r3
 816 0092 1446     		mov	r4, r2
 817 0094 0FCC     		ldmia	r4!, {r0, r1, r2, r3}
 818 0096 2860     		str	r0, [r5]	@ unaligned
 819 0098 6960     		str	r1, [r5, #4]	@ unaligned
 820 009a AA60     		str	r2, [r5, #8]	@ unaligned
 821 009c EB60     		str	r3, [r5, #12]	@ unaligned
 822 009e 07CC     		ldmia	r4!, {r0, r1, r2}
 823 00a0 2861     		str	r0, [r5, #16]	@ unaligned
 824 00a2 6961     		str	r1, [r5, #20]	@ unaligned
 825 00a4 AA61     		str	r2, [r5, #24]	@ unaligned
 222:modem.c       ****         test.status = 1;
 826              		.loc 1 222 0
 827 00a6 07F10C03 		add	r3, r7, #12
 828 00aa 0122     		movs	r2, #1
 829 00ac 83F88020 		strb	r2, [r3, #128]
 223:modem.c       ****         modem_power_down();
 830              		.loc 1 223 0
 831 00b0 FFF7FEFF 		bl	modem_power_down
 224:modem.c       ****         break;
 832              		.loc 1 224 0
 833 00b4 0BE0     		b	.L50
 834              	.L48:
 835              	.LBE6:
 225:modem.c       ****         
 226:modem.c       ****       }
 227:modem.c       ****     
 228:modem.c       ****         CyDelay(100u);
 836              		.loc 1 228 0 discriminator 2
 837 00b6 6420     		movs	r0, #100
 838 00b8 FFF7FEFF 		bl	CyDelay
 203:modem.c       ****         
 839              		.loc 1 203 0 discriminator 2
 840 00bc D7F89431 		ldr	r3, [r7, #404]
 841 00c0 0133     		adds	r3, r3, #1
 842 00c2 C7F89431 		str	r3, [r7, #404]
 843              	.L46:
 203:modem.c       ****         
 844              		.loc 1 203 0 is_stmt 0 discriminator 1
 845 00c6 D7F89431 		ldr	r3, [r7, #404]
 846 00ca 3B2B     		cmp	r3, #59
 847 00cc C1DD     		ble	.L51
 848              	.L50:
 849              	.LBE5:
 229:modem.c       ****         
 230:modem.c       ****     }
ARM GAS  C:\Users\HYFI_A~1\AppData\Local\Temp\ccnKJpxh.s 			page 21


 231:modem.c       ****     
 232:modem.c       ****     
 233:modem.c       ****     return test;
 850              		.loc 1 233 0 is_stmt 1
 851 00ce 3B1D     		adds	r3, r7, #4
 852 00d0 1A68     		ldr	r2, [r3]
 853 00d2 07F10C03 		add	r3, r7, #12
 854 00d6 1046     		mov	r0, r2
 855 00d8 1946     		mov	r1, r3
 856 00da 40F28113 		movw	r3, #385
 857 00de 1A46     		mov	r2, r3
 858 00e0 FFF7FEFF 		bl	memcpy
 234:modem.c       ****     
 235:modem.c       ****     
 236:modem.c       ****     return test;
 237:modem.c       **** }
 859              		.loc 1 237 0
 860 00e4 3B1D     		adds	r3, r7, #4
 861 00e6 1868     		ldr	r0, [r3]
 862 00e8 07F5CC77 		add	r7, r7, #408
 863              		.cfi_def_cfa_offset 16
 864 00ec BD46     		mov	sp, r7
 865              		.cfi_def_cfa_register 13
 866              		@ sp needed
 867 00ee B0BD     		pop	{r4, r5, r7, pc}
 868              	.L54:
 869              		.align	2
 870              	.L53:
 871 00f0 60010000 		.word	.LC10
 872 00f4 6C010000 		.word	.LC11
 873 00f8 84010000 		.word	.LC12
 874              		.cfi_endproc
 875              	.LFE73:
 876              		.size	modem_test, .-modem_test
 877              		.section	.text.extract_string,"ax",%progbits
 878              		.align	2
 879              		.global	extract_string
 880              		.thumb
 881              		.thumb_func
 882              		.type	extract_string, %function
 883              	extract_string:
 884              	.LFB74:
 238:modem.c       **** 
 239:modem.c       **** 
 240:modem.c       **** uint8 extract_string(char* from, const char* beginMarker, const char* endMarker,  char* target){
 885              		.loc 1 240 0
 886              		.cfi_startproc
 887              		@ args = 0, pretend = 0, frame = 24
 888              		@ frame_needed = 1, uses_anonymous_args = 0
 889 0000 80B5     		push	{r7, lr}
 890              		.cfi_def_cfa_offset 8
 891              		.cfi_offset 7, -8
 892              		.cfi_offset 14, -4
 893 0002 86B0     		sub	sp, sp, #24
 894              		.cfi_def_cfa_offset 32
 895 0004 00AF     		add	r7, sp, #0
 896              		.cfi_def_cfa_register 7
ARM GAS  C:\Users\HYFI_A~1\AppData\Local\Temp\ccnKJpxh.s 			page 22


 897 0006 F860     		str	r0, [r7, #12]
 898 0008 B960     		str	r1, [r7, #8]
 899 000a 7A60     		str	r2, [r7, #4]
 900 000c 3B60     		str	r3, [r7]
 241:modem.c       ****     
 242:modem.c       ****         char *a, *b;
 243:modem.c       ****   
 244:modem.c       ****         // Expect the UART to contain something like "+CSQ: 17,99\r\n\r\nOK"
 245:modem.c       ****         // - Search for "+CSQ: ".  Place the starting pointer, a, at the resulting index
 246:modem.c       ****         a = strstr(from,beginMarker);
 901              		.loc 1 246 0
 902 000e B968     		ldr	r1, [r7, #8]
 903 0010 F868     		ldr	r0, [r7, #12]
 904 0012 FFF7FEFF 		bl	strstr
 905 0016 7861     		str	r0, [r7, #20]
 247:modem.c       ****         if (a == NULL) {
 906              		.loc 1 247 0
 907 0018 7B69     		ldr	r3, [r7, #20]
 908 001a 002B     		cmp	r3, #0
 909 001c 01D1     		bne	.L56
 248:modem.c       ****             //puts("+CSQ: not found in uart_received_string");
 249:modem.c       ****             a = from;
 910              		.loc 1 249 0
 911 001e FB68     		ldr	r3, [r7, #12]
 912 0020 7B61     		str	r3, [r7, #20]
 913              	.L56:
 250:modem.c       ****         }
 251:modem.c       ****         
 252:modem.c       ****         a += strlen(beginMarker);
 914              		.loc 1 252 0
 915 0022 B868     		ldr	r0, [r7, #8]
 916 0024 FFF7FEFF 		bl	strlen
 917 0028 0246     		mov	r2, r0
 918 002a 7B69     		ldr	r3, [r7, #20]
 919 002c 1344     		add	r3, r3, r2
 920 002e 7B61     		str	r3, [r7, #20]
 253:modem.c       ****         
 254:modem.c       ****         // - Find the end marking and offset by 1
 255:modem.c       ****         b = strstr(a,endMarker);
 921              		.loc 1 255 0
 922 0030 7968     		ldr	r1, [r7, #4]
 923 0032 7869     		ldr	r0, [r7, #20]
 924 0034 FFF7FEFF 		bl	strstr
 925 0038 3861     		str	r0, [r7, #16]
 256:modem.c       ****         if (b == NULL) {
 926              		.loc 1 256 0
 927 003a 3B69     		ldr	r3, [r7, #16]
 928 003c 002B     		cmp	r3, #0
 929 003e 06D1     		bne	.L57
 257:modem.c       ****             //puts("Comma not found in uart_received_string");
 258:modem.c       ****             b=from+strlen(from);
 930              		.loc 1 258 0
 931 0040 F868     		ldr	r0, [r7, #12]
 932 0042 FFF7FEFF 		bl	strlen
 933 0046 0246     		mov	r2, r0
 934 0048 FB68     		ldr	r3, [r7, #12]
 935 004a 1344     		add	r3, r3, r2
ARM GAS  C:\Users\HYFI_A~1\AppData\Local\Temp\ccnKJpxh.s 			page 23


 936 004c 3B61     		str	r3, [r7, #16]
 937              	.L57:
 259:modem.c       ****         }        
 260:modem.c       ****         
 261:modem.c       ****         // Parse the strings and store the respective rssi and fer values
 262:modem.c       ****         strncpy(target,a,b-a);
 938              		.loc 1 262 0
 939 004e 3A69     		ldr	r2, [r7, #16]
 940 0050 7B69     		ldr	r3, [r7, #20]
 941 0052 D31A     		subs	r3, r2, r3
 942 0054 1A46     		mov	r2, r3
 943 0056 7969     		ldr	r1, [r7, #20]
 944 0058 3868     		ldr	r0, [r7]
 945 005a FFF7FEFF 		bl	strncpy
 263:modem.c       ****         target[b-a] = '\0';
 946              		.loc 1 263 0
 947 005e 3A69     		ldr	r2, [r7, #16]
 948 0060 7B69     		ldr	r3, [r7, #20]
 949 0062 D31A     		subs	r3, r2, r3
 950 0064 1A46     		mov	r2, r3
 951 0066 3B68     		ldr	r3, [r7]
 952 0068 1344     		add	r3, r3, r2
 953 006a 0022     		movs	r2, #0
 954 006c 1A70     		strb	r2, [r3]
 264:modem.c       ****         return 1u;
 955              		.loc 1 264 0
 956 006e 0123     		movs	r3, #1
 265:modem.c       ****         
 266:modem.c       **** }
 957              		.loc 1 266 0
 958 0070 1846     		mov	r0, r3
 959 0072 1837     		adds	r7, r7, #24
 960              		.cfi_def_cfa_offset 8
 961 0074 BD46     		mov	sp, r7
 962              		.cfi_def_cfa_register 13
 963              		@ sp needed
 964 0076 80BD     		pop	{r7, pc}
 965              		.cfi_endproc
 966              	.LFE74:
 967              		.size	extract_string, .-extract_string
 968              		.section	.rodata
 969              		.align	2
 970              	.LC13:
 971 01a0 54696D65 		.ascii	"Time to connecto to network: %d seconds\000"
 971      20746F20 
 971      636F6E6E 
 971      6563746F 
 971      20746F20 
 972              		.align	2
 973              	.LC14:
 974 01c8 4D6F6465 		.ascii	"Modem timed out on network connect\000"
 974      6D207469 
 974      6D656420 
 974      6F757420 
 974      6F6E206E 
 975 01eb 00       		.align	2
 976              	.LC15:
ARM GAS  C:\Users\HYFI_A~1\AppData\Local\Temp\ccnKJpxh.s 			page 24


 977 01ec 41637175 		.ascii	"Acquired IP address: %d seconds\000"
 977      69726564 
 977      20495020 
 977      61646472 
 977      6573733A 
 978              		.align	2
 979              	.LC16:
 980 020c 4D6F6465 		.ascii	"Modem timed out on IP address acquire.\000"
 980      6D207469 
 980      6D656420 
 980      6F757420 
 980      6F6E2049 
 981              		.section	.text.modem_process_tasks,"ax",%progbits
 982              		.align	2
 983              		.global	modem_process_tasks
 984              		.thumb
 985              		.thumb_func
 986              		.type	modem_process_tasks, %function
 987              	modem_process_tasks:
 988              	.LFB75:
 267:modem.c       **** 
 268:modem.c       **** 
 269:modem.c       **** uint8 modem_process_tasks(){
 989              		.loc 1 269 0
 990              		.cfi_startproc
 991              		@ args = 0, pretend = 0, frame = 0
 992              		@ frame_needed = 1, uses_anonymous_args = 0
 993 0000 80B5     		push	{r7, lr}
 994              		.cfi_def_cfa_offset 8
 995              		.cfi_offset 7, -8
 996              		.cfi_offset 14, -4
 997 0002 00AF     		add	r7, sp, #0
 998              		.cfi_def_cfa_register 7
 270:modem.c       ****     
 271:modem.c       ****     
 272:modem.c       **** 
 273:modem.c       ****     if(modem_state == MODEM_STATE_STARTUP){
 999              		.loc 1 273 0
 1000 0004 394B     		ldr	r3, .L68
 1001 0006 1B78     		ldrb	r3, [r3]	@ zero_extendqisi2
 1002 0008 012B     		cmp	r3, #1
 1003 000a 0BD1     		bne	.L60
 274:modem.c       ****         
 275:modem.c       ****         modem_start_time_stamp = getTimeStamp();
 1004              		.loc 1 275 0
 1005 000c FFF7FEFF 		bl	getTimeStamp
 1006 0010 0246     		mov	r2, r0
 1007 0012 374B     		ldr	r3, .L68+4
 1008 0014 1A60     		str	r2, [r3]
 276:modem.c       ****         modem_configure_settings();
 1009              		.loc 1 276 0
 1010 0016 FFF7FEFF 		bl	modem_configure_settings
 277:modem.c       ****         modem_state = MODEM_STATE_WAITING_FOR_NETWORK;
 1011              		.loc 1 277 0
 1012 001a 344B     		ldr	r3, .L68
 1013 001c 0222     		movs	r2, #2
 1014 001e 1A70     		strb	r2, [r3]
ARM GAS  C:\Users\HYFI_A~1\AppData\Local\Temp\ccnKJpxh.s 			page 25


 278:modem.c       ****         return 1u;//keep going, don't hand off to sleep yet
 1015              		.loc 1 278 0
 1016 0020 0123     		movs	r3, #1
 1017 0022 60E0     		b	.L61
 1018              	.L60:
 279:modem.c       ****         
 280:modem.c       ****     }
 281:modem.c       ****     else if(modem_state == MODEM_STATE_WAITING_FOR_NETWORK){
 1019              		.loc 1 281 0
 1020 0024 314B     		ldr	r3, .L68
 1021 0026 1B78     		ldrb	r3, [r3]	@ zero_extendqisi2
 1022 0028 022B     		cmp	r3, #2
 1023 002a 2DD1     		bne	.L62
 282:modem.c       ****         
 283:modem.c       **** 
 284:modem.c       ****         if(is_connected_to_cell_network()){
 1024              		.loc 1 284 0
 1025 002c FFF7FEFF 		bl	is_connected_to_cell_network
 1026 0030 0346     		mov	r3, r0
 1027 0032 002B     		cmp	r3, #0
 1028 0034 15D0     		beq	.L63
 285:modem.c       ****       
 286:modem.c       ****              modem_stats.time_to_network_connect = (int)(getTimeStamp() - (int32)modem_start_time_s
 1029              		.loc 1 286 0
 1030 0036 FFF7FEFF 		bl	getTimeStamp
 1031 003a 0246     		mov	r2, r0
 1032 003c 2C4B     		ldr	r3, .L68+4
 1033 003e 1B68     		ldr	r3, [r3]
 1034 0040 D31A     		subs	r3, r2, r3
 1035 0042 2C4A     		ldr	r2, .L68+8
 1036 0044 5360     		str	r3, [r2, #4]
 287:modem.c       ****              printNotif(NOTIF_TYPE_EVENT,"Time to connecto to network: %d seconds",
 1037              		.loc 1 287 0
 1038 0046 2B4B     		ldr	r3, .L68+8
 1039 0048 5B68     		ldr	r3, [r3, #4]
 1040 004a 1A46     		mov	r2, r3
 1041 004c 2A49     		ldr	r1, .L68+12
 1042 004e 0020     		movs	r0, #0
 1043 0050 FFF7FEFF 		bl	printNotif
 288:modem.c       ****                                             modem_stats.time_to_network_connect);
 289:modem.c       ****             get_cell_network_stats();
 1044              		.loc 1 289 0
 1045 0054 FFF7FEFF 		bl	get_cell_network_stats
 290:modem.c       ****             set_up_internet_connection();
 1046              		.loc 1 290 0
 1047 0058 FFF7FEFF 		bl	set_up_internet_connection
 291:modem.c       ****             modem_state = MODEM_STATE_WAITING_FOR_IP;
 1048              		.loc 1 291 0
 1049 005c 234B     		ldr	r3, .L68
 1050 005e 0322     		movs	r2, #3
 1051 0060 1A70     		strb	r2, [r3]
 1052              	.L63:
 292:modem.c       ****             
 293:modem.c       ****         }
 294:modem.c       **** 
 295:modem.c       ****         //power off if we times out shold only take ~30 secs to connect to network
 296:modem.c       ****         if((int)(getTimeStamp()-(int32)modem_start_time_stamp) > TIMEOUT_NETWORK_CONNECT){
ARM GAS  C:\Users\HYFI_A~1\AppData\Local\Temp\ccnKJpxh.s 			page 26


 1053              		.loc 1 296 0
 1054 0062 FFF7FEFF 		bl	getTimeStamp
 1055 0066 0246     		mov	r2, r0
 1056 0068 214B     		ldr	r3, .L68+4
 1057 006a 1B68     		ldr	r3, [r3]
 1058 006c D31A     		subs	r3, r2, r3
 1059 006e C82B     		cmp	r3, #200
 1060 0070 08DD     		ble	.L64
 297:modem.c       ****             modem_state = MODEM_STATE_OFF;
 1061              		.loc 1 297 0
 1062 0072 1E4B     		ldr	r3, .L68
 1063 0074 0022     		movs	r2, #0
 1064 0076 1A70     		strb	r2, [r3]
 298:modem.c       ****             modem_power_down();
 1065              		.loc 1 298 0
 1066 0078 FFF7FEFF 		bl	modem_power_down
 299:modem.c       ****             printNotif(NOTIF_TYPE_ERROR,"Modem timed out on network connect");
 1067              		.loc 1 299 0
 1068 007c 1F49     		ldr	r1, .L68+16
 1069 007e 0220     		movs	r0, #2
 1070 0080 FFF7FEFF 		bl	printNotif
 1071              	.L64:
 300:modem.c       ****             
 301:modem.c       ****         }
 302:modem.c       ****         
 303:modem.c       ****         return 0u;//ok to hand off to sleep
 1072              		.loc 1 303 0
 1073 0084 0023     		movs	r3, #0
 1074 0086 2EE0     		b	.L61
 1075              	.L62:
 304:modem.c       **** 
 305:modem.c       ****     }else if(modem_state == MODEM_STATE_WAITING_FOR_IP){
 1076              		.loc 1 305 0
 1077 0088 184B     		ldr	r3, .L68
 1078 008a 1B78     		ldrb	r3, [r3]	@ zero_extendqisi2
 1079 008c 032B     		cmp	r3, #3
 1080 008e 29D1     		bne	.L65
 306:modem.c       ****         if(is_connected_to_internet()){
 1081              		.loc 1 306 0
 1082 0090 FFF7FEFF 		bl	is_connected_to_internet
 1083 0094 0346     		mov	r3, r0
 1084 0096 002B     		cmp	r3, #0
 1085 0098 11D0     		beq	.L66
 307:modem.c       ****             modem_state = MODEM_STATE_READY;
 1086              		.loc 1 307 0
 1087 009a 144B     		ldr	r3, .L68
 1088 009c 0422     		movs	r2, #4
 1089 009e 1A70     		strb	r2, [r3]
 308:modem.c       ****             modem_stats.time_to_acquire_ip = (int)(getTimeStamp() - (int32)modem_start_time_stamp);
 1090              		.loc 1 308 0
 1091 00a0 FFF7FEFF 		bl	getTimeStamp
 1092 00a4 0246     		mov	r2, r0
 1093 00a6 124B     		ldr	r3, .L68+4
 1094 00a8 1B68     		ldr	r3, [r3]
 1095 00aa D31A     		subs	r3, r2, r3
 1096 00ac 114A     		ldr	r2, .L68+8
 1097 00ae 9360     		str	r3, [r2, #8]
ARM GAS  C:\Users\HYFI_A~1\AppData\Local\Temp\ccnKJpxh.s 			page 27


 309:modem.c       ****              printNotif(NOTIF_TYPE_EVENT,"Acquired IP address: %d seconds",
 1098              		.loc 1 309 0
 1099 00b0 104B     		ldr	r3, .L68+8
 1100 00b2 9B68     		ldr	r3, [r3, #8]
 1101 00b4 1A46     		mov	r2, r3
 1102 00b6 1249     		ldr	r1, .L68+20
 1103 00b8 0020     		movs	r0, #0
 1104 00ba FFF7FEFF 		bl	printNotif
 1105              	.L66:
 310:modem.c       ****                                             modem_stats.time_to_acquire_ip);
 311:modem.c       ****         }
 312:modem.c       ****         
 313:modem.c       ****         //power off if we times out shold only take ~30 secs to connect to network
 314:modem.c       ****         if((int)(getTimeStamp()-(int32)modem_start_time_stamp) > TIMEOUT_IP_ACQUIRE){
 1106              		.loc 1 314 0
 1107 00be FFF7FEFF 		bl	getTimeStamp
 1108 00c2 0246     		mov	r2, r0
 1109 00c4 0A4B     		ldr	r3, .L68+4
 1110 00c6 1B68     		ldr	r3, [r3]
 1111 00c8 D31A     		subs	r3, r2, r3
 1112 00ca E62B     		cmp	r3, #230
 1113 00cc 08DD     		ble	.L67
 315:modem.c       ****             modem_state = MODEM_STATE_OFF;
 1114              		.loc 1 315 0
 1115 00ce 074B     		ldr	r3, .L68
 1116 00d0 0022     		movs	r2, #0
 1117 00d2 1A70     		strb	r2, [r3]
 316:modem.c       ****             modem_power_down();
 1118              		.loc 1 316 0
 1119 00d4 FFF7FEFF 		bl	modem_power_down
 317:modem.c       ****             printNotif(NOTIF_TYPE_ERROR,"Modem timed out on IP address acquire.");
 1120              		.loc 1 317 0
 1121 00d8 0A49     		ldr	r1, .L68+24
 1122 00da 0220     		movs	r0, #2
 1123 00dc FFF7FEFF 		bl	printNotif
 1124              	.L67:
 318:modem.c       ****       
 319:modem.c       ****         }
 320:modem.c       ****         return 0u;//ok to hand off to sleep
 1125              		.loc 1 320 0
 1126 00e0 0023     		movs	r3, #0
 1127 00e2 00E0     		b	.L61
 1128              	.L65:
 321:modem.c       ****     }
 322:modem.c       ****     
 323:modem.c       ****     return 0u;
 1129              		.loc 1 323 0
 1130 00e4 0023     		movs	r3, #0
 1131              	.L61:
 324:modem.c       ****     
 325:modem.c       **** }
 1132              		.loc 1 325 0
 1133 00e6 1846     		mov	r0, r3
 1134 00e8 80BD     		pop	{r7, pc}
 1135              	.L69:
 1136 00ea 00BF     		.align	2
 1137              	.L68:
ARM GAS  C:\Users\HYFI_A~1\AppData\Local\Temp\ccnKJpxh.s 			page 28


 1138 00ec 00000000 		.word	modem_state
 1139 00f0 00000000 		.word	modem_start_time_stamp
 1140 00f4 00000000 		.word	modem_stats
 1141 00f8 A0010000 		.word	.LC13
 1142 00fc C8010000 		.word	.LC14
 1143 0100 EC010000 		.word	.LC15
 1144 0104 0C020000 		.word	.LC16
 1145              		.cfi_endproc
 1146              	.LFE75:
 1147              		.size	modem_process_tasks, .-modem_process_tasks
 1148              		.section	.rodata
 1149 0233 00       		.align	2
 1150              	.LC17:
 1151 0234 43686563 		.ascii	"Checking AT+CREG?\000"
 1151      6B696E67 
 1151      2041542B 
 1151      43524547 
 1151      3F00
 1152 0246 0000     		.align	2
 1153              	.LC18:
 1154 0248 41542B43 		.ascii	"AT+CREG?\015\000"
 1154      5245473F 
 1154      0D00
 1155 0252 0000     		.align	2
 1156              	.LC19:
 1157 0254 45787472 		.ascii	"Extracting string AT+CREG?\000"
 1157      61637469 
 1157      6E672073 
 1157      7472696E 
 1157      67204154 
 1158 026f 00       		.align	2
 1159              	.LC20:
 1160 0270 75617274 		.ascii	"uart_received_string: %s\000"
 1160      5F726563 
 1160      65697665 
 1160      645F7374 
 1160      72696E67 
 1161 0289 000000   		.align	2
 1162              	.LC21:
 1163 028c 0D00     		.ascii	"\015\000"
 1164 028e 0000     		.align	2
 1165              	.LC22:
 1166 0290 3A2000   		.ascii	": \000"
 1167 0293 00       		.align	2
 1168              	.LC23:
 1169 0294 52656769 		.ascii	"Registered to network, CREG: %s\000"
 1169      73746572 
 1169      65642074 
 1169      6F206E65 
 1169      74776F72 
 1170              		.align	2
 1171              	.LC24:
 1172 02b4 446F6E65 		.ascii	"Done extracing string AT+CREG?\000"
 1172      20657874 
 1172      72616369 
 1172      6E672073 
 1172      7472696E 
ARM GAS  C:\Users\HYFI_A~1\AppData\Local\Temp\ccnKJpxh.s 			page 29


 1173 02d3 00       		.align	2
 1174              	.LC25:
 1175 02d4 302C3100 		.ascii	"0,1\000"
 1176              		.section	.text.is_connected_to_cell_network,"ax",%progbits
 1177              		.align	2
 1178              		.global	is_connected_to_cell_network
 1179              		.thumb
 1180              		.thumb_func
 1181              		.type	is_connected_to_cell_network, %function
 1182              	is_connected_to_cell_network:
 1183              	.LFB76:
 326:modem.c       **** 
 327:modem.c       **** uint8 is_connected_to_cell_network(){
 1184              		.loc 1 327 0
 1185              		.cfi_startproc
 1186              		@ args = 0, pretend = 0, frame = 16
 1187              		@ frame_needed = 1, uses_anonymous_args = 0
 1188 0000 80B5     		push	{r7, lr}
 1189              		.cfi_def_cfa_offset 8
 1190              		.cfi_offset 7, -8
 1191              		.cfi_offset 14, -4
 1192 0002 84B0     		sub	sp, sp, #16
 1193              		.cfi_def_cfa_offset 24
 1194 0004 00AF     		add	r7, sp, #0
 1195              		.cfi_def_cfa_register 7
 328:modem.c       ****     //check network status -- need '0,0' response to continue
 329:modem.c       ****     printNotif(NOTIF_TYPE_EVENT,"Checking AT+CREG?");
 1196              		.loc 1 329 0
 1197 0006 1B49     		ldr	r1, .L74
 1198 0008 0020     		movs	r0, #0
 1199 000a FFF7FEFF 		bl	printNotif
 330:modem.c       ****     uint8 status = at_write_command("AT+CREG?\r", "OK",DEFAULT_AT_TIMEOUT);
 1200              		.loc 1 330 0
 1201 000e 4FF4FA62 		mov	r2, #2000
 1202 0012 1949     		ldr	r1, .L74+4
 1203 0014 1948     		ldr	r0, .L74+8
 1204 0016 FFF7FEFF 		bl	at_write_command
 1205 001a 0346     		mov	r3, r0
 1206 001c FB73     		strb	r3, [r7, #15]
 331:modem.c       ****     
 332:modem.c       ****     printNotif(NOTIF_TYPE_EVENT,"Extracting string AT+CREG?");
 1207              		.loc 1 332 0
 1208 001e 1849     		ldr	r1, .L74+12
 1209 0020 0020     		movs	r0, #0
 1210 0022 FFF7FEFF 		bl	printNotif
 333:modem.c       ****     printNotif(NOTIF_TYPE_EVENT,"uart_received_string: %s",uart_received_string);
 1211              		.loc 1 333 0
 1212 0026 174A     		ldr	r2, .L74+16
 1213 0028 1749     		ldr	r1, .L74+20
 1214 002a 0020     		movs	r0, #0
 1215 002c FFF7FEFF 		bl	printNotif
 334:modem.c       ****     
 335:modem.c       ****     if(status){
 1216              		.loc 1 335 0
 1217 0030 FB7B     		ldrb	r3, [r7, #15]	@ zero_extendqisi2
 1218 0032 002B     		cmp	r3, #0
 1219 0034 19D0     		beq	.L71
ARM GAS  C:\Users\HYFI_A~1\AppData\Local\Temp\ccnKJpxh.s 			page 30


 1220              	.LBB7:
 336:modem.c       ****         char creg[10];
 337:modem.c       ****         
 338:modem.c       ****         extract_string(uart_received_string,": ","\r",creg);
 1221              		.loc 1 338 0
 1222 0036 3B1D     		adds	r3, r7, #4
 1223 0038 144A     		ldr	r2, .L74+24
 1224 003a 1549     		ldr	r1, .L74+28
 1225 003c 1148     		ldr	r0, .L74+16
 1226 003e FFF7FEFF 		bl	extract_string
 339:modem.c       ****         printNotif(NOTIF_TYPE_EVENT,"Registered to network, CREG: %s",creg);
 1227              		.loc 1 339 0
 1228 0042 3B1D     		adds	r3, r7, #4
 1229 0044 1A46     		mov	r2, r3
 1230 0046 1349     		ldr	r1, .L74+32
 1231 0048 0020     		movs	r0, #0
 1232 004a FFF7FEFF 		bl	printNotif
 340:modem.c       ****         printNotif(NOTIF_TYPE_EVENT,"Done extracing string AT+CREG?");
 1233              		.loc 1 340 0
 1234 004e 1249     		ldr	r1, .L74+36
 1235 0050 0020     		movs	r0, #0
 1236 0052 FFF7FEFF 		bl	printNotif
 341:modem.c       ****        
 342:modem.c       ****         if(strstr(creg,"0,1")!=NULL){
 1237              		.loc 1 342 0
 1238 0056 3B1D     		adds	r3, r7, #4
 1239 0058 1049     		ldr	r1, .L74+40
 1240 005a 1846     		mov	r0, r3
 1241 005c FFF7FEFF 		bl	strstr
 1242 0060 0346     		mov	r3, r0
 1243 0062 002B     		cmp	r3, #0
 1244 0064 01D0     		beq	.L71
 343:modem.c       ****             //time_network_connect = getTimeStamp();
 344:modem.c       ****             return 1u;
 1245              		.loc 1 344 0
 1246 0066 0123     		movs	r3, #1
 1247 0068 00E0     		b	.L73
 1248              	.L71:
 1249              	.LBE7:
 345:modem.c       ****         }
 346:modem.c       ****     }
 347:modem.c       ****     
 348:modem.c       ****     return 0u;
 1250              		.loc 1 348 0
 1251 006a 0023     		movs	r3, #0
 1252              	.L73:
 349:modem.c       ****         
 350:modem.c       **** }
 1253              		.loc 1 350 0
 1254 006c 1846     		mov	r0, r3
 1255 006e 1037     		adds	r7, r7, #16
 1256              		.cfi_def_cfa_offset 8
 1257 0070 BD46     		mov	sp, r7
 1258              		.cfi_def_cfa_register 13
 1259              		@ sp needed
 1260 0072 80BD     		pop	{r7, pc}
 1261              	.L75:
ARM GAS  C:\Users\HYFI_A~1\AppData\Local\Temp\ccnKJpxh.s 			page 31


 1262              		.align	2
 1263              	.L74:
 1264 0074 34020000 		.word	.LC17
 1265 0078 00000000 		.word	.LC0
 1266 007c 48020000 		.word	.LC18
 1267 0080 54020000 		.word	.LC19
 1268 0084 00000000 		.word	uart_received_string
 1269 0088 70020000 		.word	.LC20
 1270 008c 8C020000 		.word	.LC21
 1271 0090 90020000 		.word	.LC22
 1272 0094 94020000 		.word	.LC23
 1273 0098 B4020000 		.word	.LC24
 1274 009c D4020000 		.word	.LC25
 1275              		.cfi_endproc
 1276              	.LFE76:
 1277              		.size	is_connected_to_cell_network, .-is_connected_to_cell_network
 1278              		.section	.rodata
 1279              		.align	2
 1280              	.LC26:
 1281 02d8 41542353 		.ascii	"AT#SGACT=1,1\015\012\000"
 1281      47414354 
 1281      3D312C31 
 1281      0D0A00
 1282              		.section	.text.set_up_internet_connection,"ax",%progbits
 1283              		.align	2
 1284              		.global	set_up_internet_connection
 1285              		.thumb
 1286              		.thumb_func
 1287              		.type	set_up_internet_connection, %function
 1288              	set_up_internet_connection:
 1289              	.LFB77:
 351:modem.c       **** 
 352:modem.c       **** void set_up_internet_connection(){
 1290              		.loc 1 352 0
 1291              		.cfi_startproc
 1292              		@ args = 0, pretend = 0, frame = 0
 1293              		@ frame_needed = 1, uses_anonymous_args = 0
 1294 0000 80B5     		push	{r7, lr}
 1295              		.cfi_def_cfa_offset 8
 1296              		.cfi_offset 7, -8
 1297              		.cfi_offset 14, -4
 1298 0002 00AF     		add	r7, sp, #0
 1299              		.cfi_def_cfa_register 7
 353:modem.c       ****     
 354:modem.c       ****     //port 3
 355:modem.c       ****    //<connId>,<srMode>,<dataMode>, 
 356:modem.c       ****     //at_write_command("AT#SCFGEXT=1,1,0,0,0,0\r", "OK",DEFAULT_AT_TIMEOUT);////LTE modem relevant
 357:modem.c       ****     
 358:modem.c       ****     //<connId>,<cid>,<pktSz>,<maxTo>,<connTo>,<txTo>
 359:modem.c       ****     //at_write_command("AT#SCFG=1,3,300,90,600,50\r", "OK",DEFAULT_AT_TIMEOUT); //LTE modem relevan
 360:modem.c       ****     // <cid>,<stat>
 361:modem.c       ****    
 362:modem.c       ****     at_write_command("AT#SGACT=1,1\r\n", "OK",1000u);
 1300              		.loc 1 362 0
 1301 0004 4FF47A72 		mov	r2, #1000
 1302 0008 0249     		ldr	r1, .L77
 1303 000a 0348     		ldr	r0, .L77+4
ARM GAS  C:\Users\HYFI_A~1\AppData\Local\Temp\ccnKJpxh.s 			page 32


 1304 000c FFF7FEFF 		bl	at_write_command
 363:modem.c       **** 
 364:modem.c       ****     
 365:modem.c       **** 
 366:modem.c       ****     
 367:modem.c       **** }
 1305              		.loc 1 367 0
 1306 0010 00BF     		nop
 1307 0012 80BD     		pop	{r7, pc}
 1308              	.L78:
 1309              		.align	2
 1310              	.L77:
 1311 0014 00000000 		.word	.LC0
 1312 0018 D8020000 		.word	.LC26
 1313              		.cfi_endproc
 1314              	.LFE77:
 1315              		.size	set_up_internet_connection, .-set_up_internet_connection
 1316              		.section	.rodata
 1317 02e7 00       		.align	2
 1318              	.LC27:
 1319 02e8 312C3100 		.ascii	"1,1\000"
 1320              		.align	2
 1321              	.LC28:
 1322 02ec 41542353 		.ascii	"AT#SGACT?\015\000"
 1322      47414354 
 1322      3F0D00
 1323              		.section	.text.is_connected_to_internet,"ax",%progbits
 1324              		.align	2
 1325              		.global	is_connected_to_internet
 1326              		.thumb
 1327              		.thumb_func
 1328              		.type	is_connected_to_internet, %function
 1329              	is_connected_to_internet:
 1330              	.LFB78:
 368:modem.c       **** 
 369:modem.c       **** uint8 is_connected_to_internet(){
 1331              		.loc 1 369 0
 1332              		.cfi_startproc
 1333              		@ args = 0, pretend = 0, frame = 0
 1334              		@ frame_needed = 1, uses_anonymous_args = 0
 1335 0000 80B5     		push	{r7, lr}
 1336              		.cfi_def_cfa_offset 8
 1337              		.cfi_offset 7, -8
 1338              		.cfi_offset 14, -4
 1339 0002 00AF     		add	r7, sp, #0
 1340              		.cfi_def_cfa_register 7
 370:modem.c       ****     
 371:modem.c       ****     //check for 3,1 if verizon
 372:modem.c       ****     if(at_write_command("AT#SGACT?\r", "1,1",DEFAULT_AT_TIMEOUT)){
 1341              		.loc 1 372 0
 1342 0004 4FF4FA62 		mov	r2, #2000
 1343 0008 0549     		ldr	r1, .L82
 1344 000a 0648     		ldr	r0, .L82+4
 1345 000c FFF7FEFF 		bl	at_write_command
 1346 0010 0346     		mov	r3, r0
 1347 0012 002B     		cmp	r3, #0
 1348 0014 01D0     		beq	.L80
ARM GAS  C:\Users\HYFI_A~1\AppData\Local\Temp\ccnKJpxh.s 			page 33


 373:modem.c       ****         return 1u;
 1349              		.loc 1 373 0
 1350 0016 0123     		movs	r3, #1
 1351 0018 00E0     		b	.L81
 1352              	.L80:
 374:modem.c       ****     }
 375:modem.c       ****  
 376:modem.c       ****     return 0u;
 1353              		.loc 1 376 0
 1354 001a 0023     		movs	r3, #0
 1355              	.L81:
 377:modem.c       ****     
 378:modem.c       **** }
 1356              		.loc 1 378 0
 1357 001c 1846     		mov	r0, r3
 1358 001e 80BD     		pop	{r7, pc}
 1359              	.L83:
 1360              		.align	2
 1361              	.L82:
 1362 0020 E8020000 		.word	.LC27
 1363 0024 EC020000 		.word	.LC28
 1364              		.cfi_endproc
 1365              	.LFE78:
 1366              		.size	is_connected_to_internet, .-is_connected_to_internet
 1367              		.section	.rodata
 1368 02f7 00       		.align	2
 1369              	.LC29:
 1370 02f8 41542B43 		.ascii	"AT+CSQ\015\000"
 1370      53510D00 
 1371              		.align	2
 1372              	.LC30:
 1373 0300 4E657477 		.ascii	"Network STts: %s\000"
 1373      6F726B20 
 1373      53547473 
 1373      3A202573 
 1373      00
 1374 0311 000000   		.align	2
 1375              	.LC31:
 1376 0314 2C00     		.ascii	",\000"
 1377              		.section	.text.get_cell_network_stats,"ax",%progbits
 1378              		.align	2
 1379              		.global	get_cell_network_stats
 1380              		.thumb
 1381              		.thumb_func
 1382              		.type	get_cell_network_stats, %function
 1383              	get_cell_network_stats:
 1384              	.LFB79:
 379:modem.c       **** 
 380:modem.c       **** void get_cell_network_stats(){
 1385              		.loc 1 380 0
 1386              		.cfi_startproc
 1387              		@ args = 0, pretend = 0, frame = 24
 1388              		@ frame_needed = 1, uses_anonymous_args = 0
 1389 0000 80B5     		push	{r7, lr}
 1390              		.cfi_def_cfa_offset 8
 1391              		.cfi_offset 7, -8
 1392              		.cfi_offset 14, -4
ARM GAS  C:\Users\HYFI_A~1\AppData\Local\Temp\ccnKJpxh.s 			page 34


 1393 0002 86B0     		sub	sp, sp, #24
 1394              		.cfi_def_cfa_offset 32
 1395 0004 00AF     		add	r7, sp, #0
 1396              		.cfi_def_cfa_register 7
 1397              	.LBB8:
 381:modem.c       ****     //gets RSSI and FER values
 382:modem.c       ****     for(uint8 attempts =0; attempts <10; attempts++){
 1398              		.loc 1 382 0
 1399 0006 0023     		movs	r3, #0
 1400 0008 FB75     		strb	r3, [r7, #23]
 1401 000a 3BE0     		b	.L85
 1402              	.L90:
 1403              	.LBB9:
 383:modem.c       ****         at_write_command("AT+CSQ\r", "OK",DEFAULT_AT_TIMEOUT);
 1404              		.loc 1 383 0
 1405 000c 4FF4FA62 		mov	r2, #2000
 1406 0010 2049     		ldr	r1, .L92
 1407 0012 2148     		ldr	r0, .L92+4
 1408 0014 FFF7FEFF 		bl	at_write_command
 384:modem.c       ****         
 385:modem.c       ****         char csq[10];
 386:modem.c       ****         extract_string(uart_received_string,": ","\r",csq);
 1409              		.loc 1 386 0
 1410 0018 3B1D     		adds	r3, r7, #4
 1411 001a 204A     		ldr	r2, .L92+8
 1412 001c 2049     		ldr	r1, .L92+12
 1413 001e 2148     		ldr	r0, .L92+16
 1414 0020 FFF7FEFF 		bl	extract_string
 387:modem.c       ****         printNotif(NOTIF_TYPE_EVENT,"Network STts: %s",csq);
 1415              		.loc 1 387 0
 1416 0024 3B1D     		adds	r3, r7, #4
 1417 0026 1A46     		mov	r2, r3
 1418 0028 1F49     		ldr	r1, .L92+20
 1419 002a 0020     		movs	r0, #0
 1420 002c FFF7FEFF 		bl	printNotif
 388:modem.c       ****         
 389:modem.c       ****         char *token;
 390:modem.c       ****         token = strtok(csq,",");
 1421              		.loc 1 390 0
 1422 0030 3B1D     		adds	r3, r7, #4
 1423 0032 1E49     		ldr	r1, .L92+24
 1424 0034 1846     		mov	r0, r3
 1425 0036 FFF7FEFF 		bl	strtok
 1426 003a 3861     		str	r0, [r7, #16]
 391:modem.c       ****         if(token != NULL){
 1427              		.loc 1 391 0
 1428 003c 3B69     		ldr	r3, [r7, #16]
 1429 003e 002B     		cmp	r3, #0
 1430 0040 06D0     		beq	.L86
 392:modem.c       ****             modem_stats.rssi = atoi(token);
 1431              		.loc 1 392 0
 1432 0042 3869     		ldr	r0, [r7, #16]
 1433 0044 FFF7FEFF 		bl	atoi
 1434 0048 0346     		mov	r3, r0
 1435 004a DAB2     		uxtb	r2, r3
 1436 004c 184B     		ldr	r3, .L92+28
 1437 004e 1A70     		strb	r2, [r3]
ARM GAS  C:\Users\HYFI_A~1\AppData\Local\Temp\ccnKJpxh.s 			page 35


 1438              	.L86:
 393:modem.c       ****         }
 394:modem.c       ****         token = strtok(NULL,",");
 1439              		.loc 1 394 0
 1440 0050 1649     		ldr	r1, .L92+24
 1441 0052 0020     		movs	r0, #0
 1442 0054 FFF7FEFF 		bl	strtok
 1443 0058 3861     		str	r0, [r7, #16]
 395:modem.c       ****         if(token != NULL){
 1444              		.loc 1 395 0
 1445 005a 3B69     		ldr	r3, [r7, #16]
 1446 005c 002B     		cmp	r3, #0
 1447 005e 06D0     		beq	.L87
 396:modem.c       ****             modem_stats.sq = atoi(token);
 1448              		.loc 1 396 0
 1449 0060 3869     		ldr	r0, [r7, #16]
 1450 0062 FFF7FEFF 		bl	atoi
 1451 0066 0346     		mov	r3, r0
 1452 0068 DAB2     		uxtb	r2, r3
 1453 006a 114B     		ldr	r3, .L92+28
 1454 006c 5A70     		strb	r2, [r3, #1]
 1455              	.L87:
 397:modem.c       ****         }
 398:modem.c       ****         if(modem_stats.rssi != 99 || modem_stats.rssi !=0){
 1456              		.loc 1 398 0
 1457 006e 104B     		ldr	r3, .L92+28
 1458 0070 1B78     		ldrb	r3, [r3]	@ zero_extendqisi2
 1459 0072 632B     		cmp	r3, #99
 1460 0074 09D1     		bne	.L91
 1461              		.loc 1 398 0 is_stmt 0 discriminator 1
 1462 0076 0E4B     		ldr	r3, .L92+28
 1463 0078 1B78     		ldrb	r3, [r3]	@ zero_extendqisi2
 1464 007a 002B     		cmp	r3, #0
 1465 007c 05D1     		bne	.L91
 1466              	.LBE9:
 382:modem.c       ****         at_write_command("AT+CSQ\r", "OK",DEFAULT_AT_TIMEOUT);
 1467              		.loc 1 382 0 is_stmt 1
 1468 007e FB7D     		ldrb	r3, [r7, #23]	@ zero_extendqisi2
 1469 0080 0133     		adds	r3, r3, #1
 1470 0082 FB75     		strb	r3, [r7, #23]
 1471              	.L85:
 382:modem.c       ****         at_write_command("AT+CSQ\r", "OK",DEFAULT_AT_TIMEOUT);
 1472              		.loc 1 382 0 is_stmt 0 discriminator 1
 1473 0084 FB7D     		ldrb	r3, [r7, #23]	@ zero_extendqisi2
 1474 0086 092B     		cmp	r3, #9
 1475 0088 C0D9     		bls	.L90
 1476              	.L91:
 1477              	.LBE8:
 399:modem.c       ****             break;
 400:modem.c       ****         }
 401:modem.c       ****     }
 402:modem.c       **** }
 1478              		.loc 1 402 0 is_stmt 1
 1479 008a 00BF     		nop
 1480 008c 1837     		adds	r7, r7, #24
 1481              		.cfi_def_cfa_offset 8
 1482 008e BD46     		mov	sp, r7
ARM GAS  C:\Users\HYFI_A~1\AppData\Local\Temp\ccnKJpxh.s 			page 36


 1483              		.cfi_def_cfa_register 13
 1484              		@ sp needed
 1485 0090 80BD     		pop	{r7, pc}
 1486              	.L93:
 1487 0092 00BF     		.align	2
 1488              	.L92:
 1489 0094 00000000 		.word	.LC0
 1490 0098 F8020000 		.word	.LC29
 1491 009c 8C020000 		.word	.LC21
 1492 00a0 90020000 		.word	.LC22
 1493 00a4 00000000 		.word	uart_received_string
 1494 00a8 00030000 		.word	.LC30
 1495 00ac 14030000 		.word	.LC31
 1496 00b0 00000000 		.word	modem_stats
 1497              		.cfi_endproc
 1498              	.LFE79:
 1499              		.size	get_cell_network_stats, .-get_cell_network_stats
 1500              		.section	.rodata
 1501 0316 0000     		.align	2
 1502              	.LC32:
 1503 0318 41542343 		.ascii	"AT#CGMM\015\000"
 1503      474D4D0D 
 1503      00
 1504 0321 000000   		.align	2
 1505              	.LC33:
 1506 0324 4D6F6465 		.ascii	"Modem Model: %s\000"
 1506      6D204D6F 
 1506      64656C3A 
 1506      20257300 
 1507              		.align	2
 1508              	.LC34:
 1509 0334 41542343 		.ascii	"AT#CCID\015\000"
 1509      4349440D 
 1509      00
 1510 033d 000000   		.align	2
 1511              	.LC35:
 1512 0340 53494D20 		.ascii	"SIM ID: %s\000"
 1512      49443A20 
 1512      257300
 1513 034b 00       		.align	2
 1514              	.LC36:
 1515 034c 41542B43 		.ascii	"AT+CGSN\015\000"
 1515      47534E0D 
 1515      00
 1516 0355 000000   		.align	2
 1517              	.LC37:
 1518 0358 494D4549 		.ascii	"IMEI: %s\000"
 1518      3A202573 
 1518      00
 1519 0361 000000   		.align	2
 1520              	.LC38:
 1521 0364 41542B43 		.ascii	"AT+CGDCONT=1,\"IP\",\"wireless.twilio.com\"\015\012"
 1521      4744434F 
 1521      4E543D31 
 1521      2C224950 
 1521      222C2277 
 1522 038d 00       		.ascii	"\000"
ARM GAS  C:\Users\HYFI_A~1\AppData\Local\Temp\ccnKJpxh.s 			page 37


 1523 038e 0000     		.align	2
 1524              	.LC39:
 1525 0390 41542B43 		.ascii	"AT+CFUN?\015\000"
 1525      46554E3F 
 1525      0D00
 1526 039a 0000     		.align	2
 1527              	.LC40:
 1528 039c 4346554E 		.ascii	"CFUN: %s\000"
 1528      3A202573 
 1528      00
 1529 03a5 000000   		.align	2
 1530              	.LC41:
 1531 03a8 41542B43 		.ascii	"AT+CFUN=1\015\000"
 1531      46554E3D 
 1531      310D00
 1532              		.section	.text.modem_configure_settings,"ax",%progbits
 1533              		.align	2
 1534              		.global	modem_configure_settings
 1535              		.thumb
 1536              		.thumb_func
 1537              		.type	modem_configure_settings, %function
 1538              	modem_configure_settings:
 1539              	.LFB80:
 403:modem.c       ****     
 404:modem.c       ****     
 405:modem.c       **** 
 406:modem.c       **** void modem_configure_settings(){
 1540              		.loc 1 406 0
 1541              		.cfi_startproc
 1542              		@ args = 0, pretend = 0, frame = 16
 1543              		@ frame_needed = 1, uses_anonymous_args = 0
 1544 0000 80B5     		push	{r7, lr}
 1545              		.cfi_def_cfa_offset 8
 1546              		.cfi_offset 7, -8
 1547              		.cfi_offset 14, -4
 1548 0002 84B0     		sub	sp, sp, #16
 1549              		.cfi_def_cfa_offset 24
 1550 0004 00AF     		add	r7, sp, #0
 1551              		.cfi_def_cfa_register 7
 407:modem.c       ****     
 408:modem.c       ****     //get modem model number
 409:modem.c       ****     if(modem_info.model_id[0] == '\0'){
 1552              		.loc 1 409 0
 1553 0006 3B4B     		ldr	r3, .L101
 1554 0008 1B7D     		ldrb	r3, [r3, #20]	@ zero_extendqisi2
 1555 000a 002B     		cmp	r3, #0
 1556 000c 13D1     		bne	.L95
 410:modem.c       ****         if(at_write_command("AT#CGMM\r","OK",DEFAULT_AT_TIMEOUT)){
 1557              		.loc 1 410 0
 1558 000e 4FF4FA62 		mov	r2, #2000
 1559 0012 3949     		ldr	r1, .L101+4
 1560 0014 3948     		ldr	r0, .L101+8
 1561 0016 FFF7FEFF 		bl	at_write_command
 1562 001a 0346     		mov	r3, r0
 1563 001c 002B     		cmp	r3, #0
 1564 001e 0AD0     		beq	.L95
 411:modem.c       ****             extract_string(uart_received_string,": ","\r",modem_info.model_id);
ARM GAS  C:\Users\HYFI_A~1\AppData\Local\Temp\ccnKJpxh.s 			page 38


 1565              		.loc 1 411 0
 1566 0020 374B     		ldr	r3, .L101+12
 1567 0022 384A     		ldr	r2, .L101+16
 1568 0024 3849     		ldr	r1, .L101+20
 1569 0026 3948     		ldr	r0, .L101+24
 1570 0028 FFF7FEFF 		bl	extract_string
 412:modem.c       ****             printNotif(NOTIF_TYPE_EVENT,"Modem Model: %s",modem_info.model_id);
 1571              		.loc 1 412 0
 1572 002c 344A     		ldr	r2, .L101+12
 1573 002e 3849     		ldr	r1, .L101+28
 1574 0030 0020     		movs	r0, #0
 1575 0032 FFF7FEFF 		bl	printNotif
 1576              	.L95:
 413:modem.c       ****         }
 414:modem.c       ****     }
 415:modem.c       ****     
 416:modem.c       ****    //get SIM-card ID
 417:modem.c       ****    if(modem_info.sim_id[0] == '\0'){
 1577              		.loc 1 417 0
 1578 0036 2F4B     		ldr	r3, .L101
 1579 0038 1B78     		ldrb	r3, [r3]	@ zero_extendqisi2
 1580 003a 002B     		cmp	r3, #0
 1581 003c 13D1     		bne	.L96
 418:modem.c       ****         if(at_write_command("AT#CCID\r", "OK", DEFAULT_AT_TIMEOUT)){
 1582              		.loc 1 418 0
 1583 003e 4FF4FA62 		mov	r2, #2000
 1584 0042 2D49     		ldr	r1, .L101+4
 1585 0044 3348     		ldr	r0, .L101+32
 1586 0046 FFF7FEFF 		bl	at_write_command
 1587 004a 0346     		mov	r3, r0
 1588 004c 002B     		cmp	r3, #0
 1589 004e 0AD0     		beq	.L96
 419:modem.c       ****             extract_string(uart_received_string,": ","\r",modem_info.sim_id);
 1590              		.loc 1 419 0
 1591 0050 284B     		ldr	r3, .L101
 1592 0052 2C4A     		ldr	r2, .L101+16
 1593 0054 2C49     		ldr	r1, .L101+20
 1594 0056 2D48     		ldr	r0, .L101+24
 1595 0058 FFF7FEFF 		bl	extract_string
 420:modem.c       ****             printNotif(NOTIF_TYPE_EVENT,"SIM ID: %s",modem_info.sim_id);
 1596              		.loc 1 420 0
 1597 005c 254A     		ldr	r2, .L101
 1598 005e 2E49     		ldr	r1, .L101+36
 1599 0060 0020     		movs	r0, #0
 1600 0062 FFF7FEFF 		bl	printNotif
 1601              	.L96:
 421:modem.c       ****         }
 422:modem.c       ****    }
 423:modem.c       **** 
 424:modem.c       ****     //getm modem IMEI
 425:modem.c       ****     if(modem_info.imei[0] == '\0'){
 1602              		.loc 1 425 0
 1603 0066 234B     		ldr	r3, .L101
 1604 0068 93F82830 		ldrb	r3, [r3, #40]	@ zero_extendqisi2
 1605 006c 002B     		cmp	r3, #0
 1606 006e 13D1     		bne	.L97
 426:modem.c       ****         if(at_write_command("AT+CGSN\r","OK",DEFAULT_AT_TIMEOUT)){
ARM GAS  C:\Users\HYFI_A~1\AppData\Local\Temp\ccnKJpxh.s 			page 39


 1607              		.loc 1 426 0
 1608 0070 4FF4FA62 		mov	r2, #2000
 1609 0074 2049     		ldr	r1, .L101+4
 1610 0076 2948     		ldr	r0, .L101+40
 1611 0078 FFF7FEFF 		bl	at_write_command
 1612 007c 0346     		mov	r3, r0
 1613 007e 002B     		cmp	r3, #0
 1614 0080 0AD0     		beq	.L97
 427:modem.c       ****             extract_string(uart_received_string,": ","\r",modem_info.imei);
 1615              		.loc 1 427 0
 1616 0082 274B     		ldr	r3, .L101+44
 1617 0084 1F4A     		ldr	r2, .L101+16
 1618 0086 2049     		ldr	r1, .L101+20
 1619 0088 2048     		ldr	r0, .L101+24
 1620 008a FFF7FEFF 		bl	extract_string
 428:modem.c       ****             printNotif(NOTIF_TYPE_EVENT,"IMEI: %s",modem_info.imei);
 1621              		.loc 1 428 0
 1622 008e 244A     		ldr	r2, .L101+44
 1623 0090 2449     		ldr	r1, .L101+48
 1624 0092 0020     		movs	r0, #0
 1625 0094 FFF7FEFF 		bl	printNotif
 1626              	.L97:
 429:modem.c       ****         } 
 430:modem.c       ****     }
 431:modem.c       ****     
 432:modem.c       ****     //configfure protocol and cellular end point
 433:modem.c       ****     at_write_command("AT+CGDCONT=1,\"IP\",\"wireless.twilio.com\"\r\n", "OK", DEFAULT_AT_TIMEOUT);
 1627              		.loc 1 433 0
 1628 0098 4FF4FA62 		mov	r2, #2000
 1629 009c 1649     		ldr	r1, .L101+4
 1630 009e 2248     		ldr	r0, .L101+52
 1631 00a0 FFF7FEFF 		bl	at_write_command
 434:modem.c       ****     
 435:modem.c       ****     //Check if modem power savings is enabled. If so, disable it so we can send data.
 436:modem.c       ****     if(at_write_command("AT+CFUN?\r", "OK",DEFAULT_AT_TIMEOUT)){
 1632              		.loc 1 436 0
 1633 00a4 4FF4FA62 		mov	r2, #2000
 1634 00a8 1349     		ldr	r1, .L101+4
 1635 00aa 2048     		ldr	r0, .L101+56
 1636 00ac FFF7FEFF 		bl	at_write_command
 1637 00b0 0346     		mov	r3, r0
 1638 00b2 002B     		cmp	r3, #0
 1639 00b4 19D0     		beq	.L100
 1640              	.LBB10:
 437:modem.c       ****         char CFUN[10];
 438:modem.c       ****         extract_string(uart_received_string,": ","\r",CFUN);
 1641              		.loc 1 438 0
 1642 00b6 3B1D     		adds	r3, r7, #4
 1643 00b8 124A     		ldr	r2, .L101+16
 1644 00ba 1349     		ldr	r1, .L101+20
 1645 00bc 1348     		ldr	r0, .L101+24
 1646 00be FFF7FEFF 		bl	extract_string
 439:modem.c       ****         printNotif(NOTIF_TYPE_EVENT,"CFUN: %s",CFUN);
 1647              		.loc 1 439 0
 1648 00c2 3B1D     		adds	r3, r7, #4
 1649 00c4 1A46     		mov	r2, r3
 1650 00c6 1A49     		ldr	r1, .L101+60
ARM GAS  C:\Users\HYFI_A~1\AppData\Local\Temp\ccnKJpxh.s 			page 40


 1651 00c8 0020     		movs	r0, #0
 1652 00ca FFF7FEFF 		bl	printNotif
 440:modem.c       ****         if(strstr(CFUN,"1") == NULL){
 1653              		.loc 1 440 0
 1654 00ce 3B1D     		adds	r3, r7, #4
 1655 00d0 3121     		movs	r1, #49
 1656 00d2 1846     		mov	r0, r3
 1657 00d4 FFF7FEFF 		bl	strchr
 1658 00d8 0346     		mov	r3, r0
 1659 00da 002B     		cmp	r3, #0
 1660 00dc 05D1     		bne	.L100
 441:modem.c       ****             at_write_command("AT+CFUN=1\r", "OK",DEFAULT_AT_TIMEOUT);
 1661              		.loc 1 441 0
 1662 00de 4FF4FA62 		mov	r2, #2000
 1663 00e2 0549     		ldr	r1, .L101+4
 1664 00e4 1348     		ldr	r0, .L101+64
 1665 00e6 FFF7FEFF 		bl	at_write_command
 1666              	.L100:
 1667              	.LBE10:
 442:modem.c       ****         }
 443:modem.c       ****     }
 444:modem.c       **** 
 445:modem.c       ****     
 446:modem.c       **** }
 1668              		.loc 1 446 0
 1669 00ea 00BF     		nop
 1670 00ec 1037     		adds	r7, r7, #16
 1671              		.cfi_def_cfa_offset 8
 1672 00ee BD46     		mov	sp, r7
 1673              		.cfi_def_cfa_register 13
 1674              		@ sp needed
 1675 00f0 80BD     		pop	{r7, pc}
 1676              	.L102:
 1677 00f2 00BF     		.align	2
 1678              	.L101:
 1679 00f4 00000000 		.word	modem_info
 1680 00f8 00000000 		.word	.LC0
 1681 00fc 18030000 		.word	.LC32
 1682 0100 14000000 		.word	modem_info+20
 1683 0104 8C020000 		.word	.LC21
 1684 0108 90020000 		.word	.LC22
 1685 010c 00000000 		.word	uart_received_string
 1686 0110 24030000 		.word	.LC33
 1687 0114 34030000 		.word	.LC34
 1688 0118 40030000 		.word	.LC35
 1689 011c 4C030000 		.word	.LC36
 1690 0120 28000000 		.word	modem_info+40
 1691 0124 58030000 		.word	.LC37
 1692 0128 64030000 		.word	.LC38
 1693 012c 90030000 		.word	.LC39
 1694 0130 9C030000 		.word	.LC40
 1695 0134 A8030000 		.word	.LC41
 1696              		.cfi_endproc
 1697              	.LFE80:
 1698              		.size	modem_configure_settings, .-modem_configure_settings
 1699              		.section	.rodata
 1700 03b3 00       		.align	2
ARM GAS  C:\Users\HYFI_A~1\AppData\Local\Temp\ccnKJpxh.s 			page 41


 1701              	.LC42:
 1702 03b4 4D6F6465 		.ascii	"Modem not ready to get time. Not conncted to networ"
 1702      6D206E6F 
 1702      74207265 
 1702      61647920 
 1702      746F2067 
 1703 03e7 6B2E00   		.ascii	"k.\000"
 1704 03ea 0000     		.align	2
 1705              	.LC43:
 1706 03ec 41542B43 		.ascii	"AT+CCLK?\015\000"
 1706      434C4B3F 
 1706      0D00
 1707 03f6 0000     		.align	2
 1708              	.LC44:
 1709 03f8 220D00   		.ascii	"\"\015\000"
 1710 03fb 00       		.align	2
 1711              	.LC45:
 1712 03fc 3A202200 		.ascii	": \"\000"
 1713              		.align	2
 1714              	.LC46:
 1715 0400 25642F25 		.ascii	"%d/%d/%d,%d:%d:%d-%d\000"
 1715      642F2564 
 1715      2C25643A 
 1715      25643A25 
 1715      642D2564 
 1716 0415 000000   		.align	2
 1717              	.LC47:
 1718 0418 25642F25 		.ascii	"%d/%d/%d,%d:%d:%d+%d\000"
 1718      642F2564 
 1718      2C25643A 
 1718      25643A25 
 1718      642B2564 
 1719 042d 000000   		.align	2
 1720              	.LC48:
 1721 0430 436F756C 		.ascii	"Could not parse modem time: %s.\000"
 1721      64206E6F 
 1721      74207061 
 1721      72736520 
 1721      6D6F6465 
 1722              		.section	.text.modem_get_network_time,"ax",%progbits
 1723              		.align	2
 1724              		.global	modem_get_network_time
 1725              		.thumb
 1726              		.thumb_func
 1727              		.type	modem_get_network_time, %function
 1728              	modem_get_network_time:
 1729              	.LFB81:
 447:modem.c       **** 
 448:modem.c       **** //returns 0 if modem can't get time
 449:modem.c       **** long modem_get_network_time(){
 1730              		.loc 1 449 0
 1731              		.cfi_startproc
 1732              		@ args = 0, pretend = 0, frame = 104
 1733              		@ frame_needed = 1, uses_anonymous_args = 0
 1734 0000 80B5     		push	{r7, lr}
 1735              		.cfi_def_cfa_offset 8
 1736              		.cfi_offset 7, -8
ARM GAS  C:\Users\HYFI_A~1\AppData\Local\Temp\ccnKJpxh.s 			page 42


 1737              		.cfi_offset 14, -4
 1738 0002 A0B0     		sub	sp, sp, #128
 1739              		.cfi_def_cfa_offset 136
 1740 0004 06AF     		add	r7, sp, #24
 1741              		.cfi_def_cfa 7, 112
 450:modem.c       ****     
 451:modem.c       ****     //modem reposen format (careful to include the quotes "")
 452:modem.c       ****     //+CCLK: "20/05/01,10:48:33-16" the "-16" is the number of quarter hourts (15 mins) from GMT ti
 453:modem.c       ****     //ex: 14:48 GMT
 454:modem.c       **** 
 455:modem.c       ****     if(modem_state != MODEM_STATE_READY){
 1742              		.loc 1 455 0
 1743 0006 444B     		ldr	r3, .L110
 1744 0008 1B78     		ldrb	r3, [r3]	@ zero_extendqisi2
 1745 000a 042B     		cmp	r3, #4
 1746 000c 05D0     		beq	.L104
 456:modem.c       ****         printNotif(NOTIF_TYPE_ERROR,"Modem not ready to get time. Not conncted to network.");
 1747              		.loc 1 456 0
 1748 000e 4349     		ldr	r1, .L110+4
 1749 0010 0220     		movs	r0, #2
 1750 0012 FFF7FEFF 		bl	printNotif
 457:modem.c       ****         return 0;   
 1751              		.loc 1 457 0
 1752 0016 0023     		movs	r3, #0
 1753 0018 7AE0     		b	.L105
 1754              	.L104:
 458:modem.c       ****     }
 459:modem.c       ****     long epoch_time = 0;
 1755              		.loc 1 459 0
 1756 001a 0023     		movs	r3, #0
 1757 001c 7B66     		str	r3, [r7, #100]
 460:modem.c       ****     
 461:modem.c       ****     if(at_write_command("AT+CCLK?\r","OK",DEFAULT_AT_TIMEOUT)){
 1758              		.loc 1 461 0
 1759 001e 4FF4FA62 		mov	r2, #2000
 1760 0022 3F49     		ldr	r1, .L110+8
 1761 0024 3F48     		ldr	r0, .L110+12
 1762 0026 FFF7FEFF 		bl	at_write_command
 1763 002a 0346     		mov	r3, r0
 1764 002c 002B     		cmp	r3, #0
 1765 002e 6ED0     		beq	.L106
 1766              	.LBB11:
 462:modem.c       ****         char network_time[30];
 463:modem.c       ****         extract_string(uart_received_string,": \"","\"\r",network_time);
 1767              		.loc 1 463 0
 1768 0030 07F14403 		add	r3, r7, #68
 1769 0034 3C4A     		ldr	r2, .L110+16
 1770 0036 3D49     		ldr	r1, .L110+20
 1771 0038 3D48     		ldr	r0, .L110+24
 1772 003a FFF7FEFF 		bl	extract_string
 464:modem.c       ****         
 465:modem.c       ****         ///////////////////  
 466:modem.c       ****         struct tm t;
 467:modem.c       ****         
 468:modem.c       ****         int year, month, day, hour, minute, second, gmt_offset = 0;
 1773              		.loc 1 468 0
 1774 003e 0023     		movs	r3, #0
ARM GAS  C:\Users\HYFI_A~1\AppData\Local\Temp\ccnKJpxh.s 			page 43


 1775 0040 BB62     		str	r3, [r7, #40]
 469:modem.c       ****       
 470:modem.c       ****         if(sscanf(network_time,"%d/%d/%d,%d:%d:%d-%d",&year,&month,&day,&hour,&minute,&second,&gmt_
 1776              		.loc 1 470 0
 1777 0042 07F13C01 		add	r1, r7, #60
 1778 0046 07F14002 		add	r2, r7, #64
 1779 004a 07F14400 		add	r0, r7, #68
 1780 004e 07F12803 		add	r3, r7, #40
 1781 0052 0493     		str	r3, [sp, #16]
 1782 0054 07F12C03 		add	r3, r7, #44
 1783 0058 0393     		str	r3, [sp, #12]
 1784 005a 07F13003 		add	r3, r7, #48
 1785 005e 0293     		str	r3, [sp, #8]
 1786 0060 07F13403 		add	r3, r7, #52
 1787 0064 0193     		str	r3, [sp, #4]
 1788 0066 07F13803 		add	r3, r7, #56
 1789 006a 0093     		str	r3, [sp]
 1790 006c 0B46     		mov	r3, r1
 1791 006e 3149     		ldr	r1, .L110+28
 1792 0070 FFF7FEFF 		bl	sscanf
 1793 0074 0346     		mov	r3, r0
 1794 0076 072B     		cmp	r3, #7
 1795 0078 06D1     		bne	.L107
 471:modem.c       ****             gmt_offset = gmt_offset*(900);
 1796              		.loc 1 471 0
 1797 007a BB6A     		ldr	r3, [r7, #40]
 1798 007c 4FF46172 		mov	r2, #900
 1799 0080 02FB03F3 		mul	r3, r2, r3
 1800 0084 BB62     		str	r3, [r7, #40]
 1801 0086 2AE0     		b	.L108
 1802              	.L107:
 472:modem.c       ****         }else if(sscanf(network_time,"%d/%d/%d,%d:%d:%d+%d",&year,&month,&day,&hour,&minute,&second
 1803              		.loc 1 472 0
 1804 0088 07F13C01 		add	r1, r7, #60
 1805 008c 07F14002 		add	r2, r7, #64
 1806 0090 07F14400 		add	r0, r7, #68
 1807 0094 07F12803 		add	r3, r7, #40
 1808 0098 0493     		str	r3, [sp, #16]
 1809 009a 07F12C03 		add	r3, r7, #44
 1810 009e 0393     		str	r3, [sp, #12]
 1811 00a0 07F13003 		add	r3, r7, #48
 1812 00a4 0293     		str	r3, [sp, #8]
 1813 00a6 07F13403 		add	r3, r7, #52
 1814 00aa 0193     		str	r3, [sp, #4]
 1815 00ac 07F13803 		add	r3, r7, #56
 1816 00b0 0093     		str	r3, [sp]
 1817 00b2 0B46     		mov	r3, r1
 1818 00b4 2049     		ldr	r1, .L110+32
 1819 00b6 FFF7FEFF 		bl	sscanf
 1820 00ba 0346     		mov	r3, r0
 1821 00bc 072B     		cmp	r3, #7
 1822 00be 05D1     		bne	.L109
 473:modem.c       ****             gmt_offset = gmt_offset*(-900);
 1823              		.loc 1 473 0
 1824 00c0 BB6A     		ldr	r3, [r7, #40]
 1825 00c2 1E4A     		ldr	r2, .L110+36
 1826 00c4 02FB03F3 		mul	r3, r2, r3
ARM GAS  C:\Users\HYFI_A~1\AppData\Local\Temp\ccnKJpxh.s 			page 44


 1827 00c8 BB62     		str	r3, [r7, #40]
 1828 00ca 08E0     		b	.L108
 1829              	.L109:
 474:modem.c       ****         }else{
 475:modem.c       ****             printNotif(NOTIF_TYPE_ERROR,"Could not parse modem time: %s.",network_time);
 1830              		.loc 1 475 0
 1831 00cc 07F14403 		add	r3, r7, #68
 1832 00d0 1A46     		mov	r2, r3
 1833 00d2 1B49     		ldr	r1, .L110+40
 1834 00d4 0220     		movs	r0, #2
 1835 00d6 FFF7FEFF 		bl	printNotif
 476:modem.c       ****             return 0;   
 1836              		.loc 1 476 0
 1837 00da 0023     		movs	r3, #0
 1838 00dc 18E0     		b	.L105
 1839              	.L108:
 477:modem.c       ****         }
 478:modem.c       ****         
 479:modem.c       ****         t.tm_sec = second;
 1840              		.loc 1 479 0
 1841 00de FB6A     		ldr	r3, [r7, #44]
 1842 00e0 7B60     		str	r3, [r7, #4]
 480:modem.c       ****         t.tm_min = minute;
 1843              		.loc 1 480 0
 1844 00e2 3B6B     		ldr	r3, [r7, #48]
 1845 00e4 BB60     		str	r3, [r7, #8]
 481:modem.c       ****         t.tm_hour = hour;
 1846              		.loc 1 481 0
 1847 00e6 7B6B     		ldr	r3, [r7, #52]
 1848 00e8 FB60     		str	r3, [r7, #12]
 482:modem.c       ****         t.tm_year = year + 100;    // Year since 1900
 1849              		.loc 1 482 0
 1850 00ea 3B6C     		ldr	r3, [r7, #64]
 1851 00ec 6433     		adds	r3, r3, #100
 1852 00ee BB61     		str	r3, [r7, #24]
 483:modem.c       ****         t.tm_mon = month-1;        // Month, where 0 = jan
 1853              		.loc 1 483 0
 1854 00f0 FB6B     		ldr	r3, [r7, #60]
 1855 00f2 013B     		subs	r3, r3, #1
 1856 00f4 7B61     		str	r3, [r7, #20]
 484:modem.c       ****         t.tm_mday = day;           // Day of the month
 1857              		.loc 1 484 0
 1858 00f6 BB6B     		ldr	r3, [r7, #56]
 1859 00f8 3B61     		str	r3, [r7, #16]
 485:modem.c       ****         t.tm_isdst = 0;            // Is Daylight Savings on? 1 = yes, 0 = no, -1 = unknown
 1860              		.loc 1 485 0
 1861 00fa 0023     		movs	r3, #0
 1862 00fc 7B62     		str	r3, [r7, #36]
 486:modem.c       ****     
 487:modem.c       ****         epoch_time = mktime(&t) + gmt_offset;
 1863              		.loc 1 487 0
 1864 00fe 3B1D     		adds	r3, r7, #4
 1865 0100 1846     		mov	r0, r3
 1866 0102 FFF7FEFF 		bl	mktime
 1867 0106 0246     		mov	r2, r0
 1868 0108 BB6A     		ldr	r3, [r7, #40]
 1869 010a 1344     		add	r3, r3, r2
ARM GAS  C:\Users\HYFI_A~1\AppData\Local\Temp\ccnKJpxh.s 			page 45


 1870 010c 7B66     		str	r3, [r7, #100]
 1871              	.L106:
 1872              	.LBE11:
 488:modem.c       ****     }
 489:modem.c       **** 
 490:modem.c       ****     
 491:modem.c       ****     return epoch_time;
 1873              		.loc 1 491 0
 1874 010e 7B6E     		ldr	r3, [r7, #100]
 1875              	.L105:
 492:modem.c       **** }
 1876              		.loc 1 492 0
 1877 0110 1846     		mov	r0, r3
 1878 0112 6837     		adds	r7, r7, #104
 1879              		.cfi_def_cfa_offset 8
 1880 0114 BD46     		mov	sp, r7
 1881              		.cfi_def_cfa_register 13
 1882              		@ sp needed
 1883 0116 80BD     		pop	{r7, pc}
 1884              	.L111:
 1885              		.align	2
 1886              	.L110:
 1887 0118 00000000 		.word	modem_state
 1888 011c B4030000 		.word	.LC42
 1889 0120 00000000 		.word	.LC0
 1890 0124 EC030000 		.word	.LC43
 1891 0128 F8030000 		.word	.LC44
 1892 012c FC030000 		.word	.LC45
 1893 0130 00000000 		.word	uart_received_string
 1894 0134 00040000 		.word	.LC46
 1895 0138 18040000 		.word	.LC47
 1896 013c 7CFCFFFF 		.word	-900
 1897 0140 30040000 		.word	.LC48
 1898              		.cfi_endproc
 1899              	.LFE81:
 1900              		.size	modem_get_network_time, .-modem_get_network_time
 1901              		.section	.text.modem_get_state,"ax",%progbits
 1902              		.align	2
 1903              		.global	modem_get_state
 1904              		.thumb
 1905              		.thumb_func
 1906              		.type	modem_get_state, %function
 1907              	modem_get_state:
 1908              	.LFB82:
 493:modem.c       **** 
 494:modem.c       **** 
 495:modem.c       **** 
 496:modem.c       **** 
 497:modem.c       **** uint8 modem_get_state(){
 1909              		.loc 1 497 0
 1910              		.cfi_startproc
 1911              		@ args = 0, pretend = 0, frame = 0
 1912              		@ frame_needed = 1, uses_anonymous_args = 0
 1913              		@ link register save eliminated.
 1914 0000 80B4     		push	{r7}
 1915              		.cfi_def_cfa_offset 4
 1916              		.cfi_offset 7, -4
ARM GAS  C:\Users\HYFI_A~1\AppData\Local\Temp\ccnKJpxh.s 			page 46


 1917 0002 00AF     		add	r7, sp, #0
 1918              		.cfi_def_cfa_register 7
 498:modem.c       ****     return modem_state;
 1919              		.loc 1 498 0
 1920 0004 024B     		ldr	r3, .L114
 1921 0006 1B78     		ldrb	r3, [r3]	@ zero_extendqisi2
 499:modem.c       **** }
 1922              		.loc 1 499 0
 1923 0008 1846     		mov	r0, r3
 1924 000a BD46     		mov	sp, r7
 1925              		.cfi_def_cfa_register 13
 1926              		@ sp needed
 1927 000c 80BC     		pop	{r7}
 1928              		.cfi_restore 7
 1929              		.cfi_def_cfa_offset 0
 1930 000e 7047     		bx	lr
 1931              	.L115:
 1932              		.align	2
 1933              	.L114:
 1934 0010 00000000 		.word	modem_state
 1935              		.cfi_endproc
 1936              	.LFE82:
 1937              		.size	modem_get_state, .-modem_get_state
 1938              		.section	.text.modem_sleep,"ax",%progbits
 1939              		.align	2
 1940              		.global	modem_sleep
 1941              		.thumb
 1942              		.thumb_func
 1943              		.type	modem_sleep, %function
 1944              	modem_sleep:
 1945              	.LFB83:
 500:modem.c       **** 
 501:modem.c       **** void modem_sleep(){
 1946              		.loc 1 501 0
 1947              		.cfi_startproc
 1948              		@ args = 0, pretend = 0, frame = 0
 1949              		@ frame_needed = 1, uses_anonymous_args = 0
 1950 0000 80B5     		push	{r7, lr}
 1951              		.cfi_def_cfa_offset 8
 1952              		.cfi_offset 7, -8
 1953              		.cfi_offset 14, -4
 1954 0002 00AF     		add	r7, sp, #0
 1955              		.cfi_def_cfa_register 7
 502:modem.c       ****     if(modem_get_state() != MODEM_STATE_OFF){
 1956              		.loc 1 502 0
 1957 0004 FFF7FEFF 		bl	modem_get_state
 1958 0008 0346     		mov	r3, r0
 1959 000a 002B     		cmp	r3, #0
 1960 000c 03D0     		beq	.L118
 503:modem.c       **** 
 504:modem.c       ****         Telit_ControlReg_Sleep();
 1961              		.loc 1 504 0
 1962 000e FFF7FEFF 		bl	Telit_ControlReg_Sleep
 505:modem.c       ****         UART_Telit_Sleep();
 1963              		.loc 1 505 0
 1964 0012 FFF7FEFF 		bl	UART_Telit_Sleep
 1965              	.L118:
ARM GAS  C:\Users\HYFI_A~1\AppData\Local\Temp\ccnKJpxh.s 			page 47


 506:modem.c       ****         
 507:modem.c       ****         //set interrupt on RX pin to wakeup chip from sleep if UART comm starts
 508:modem.c       ****        // Rx_Telit_SetInterruptMode(Rx_Telit_0_INTR,Rx_Telit_INTR_FALLING);
 509:modem.c       ****      }
 510:modem.c       **** }
 1966              		.loc 1 510 0
 1967 0016 00BF     		nop
 1968 0018 80BD     		pop	{r7, pc}
 1969              		.cfi_endproc
 1970              	.LFE83:
 1971              		.size	modem_sleep, .-modem_sleep
 1972 001a 00BF     		.section	.text.modem_wakeup,"ax",%progbits
 1973              		.align	2
 1974              		.global	modem_wakeup
 1975              		.thumb
 1976              		.thumb_func
 1977              		.type	modem_wakeup, %function
 1978              	modem_wakeup:
 1979              	.LFB84:
 511:modem.c       **** 
 512:modem.c       **** void modem_wakeup(){
 1980              		.loc 1 512 0
 1981              		.cfi_startproc
 1982              		@ args = 0, pretend = 0, frame = 0
 1983              		@ frame_needed = 1, uses_anonymous_args = 0
 1984 0000 80B5     		push	{r7, lr}
 1985              		.cfi_def_cfa_offset 8
 1986              		.cfi_offset 7, -8
 1987              		.cfi_offset 14, -4
 1988 0002 00AF     		add	r7, sp, #0
 1989              		.cfi_def_cfa_register 7
 513:modem.c       ****      if(modem_get_state() != MODEM_STATE_OFF){
 1990              		.loc 1 513 0
 1991 0004 FFF7FEFF 		bl	modem_get_state
 1992 0008 0346     		mov	r3, r0
 1993 000a 002B     		cmp	r3, #0
 1994 000c 0BD0     		beq	.L121
 514:modem.c       ****         Telit_ControlReg_Wakeup();
 1995              		.loc 1 514 0
 1996 000e FFF7FEFF 		bl	Telit_ControlReg_Wakeup
 515:modem.c       ****         UART_Telit_Wakeup();
 1997              		.loc 1 515 0
 1998 0012 FFF7FEFF 		bl	UART_Telit_Wakeup
 516:modem.c       ****         //remove the need for this pin itterupt
 517:modem.c       ****         //Rx_Telit_SetInterruptMode(Rx_Telit_0_INTR,Rx_Telit_INTR_NONE);
 518:modem.c       ****         //if woken up from pin, go ahead and delay for 100ms to allow modem UART to deliver the mes
 519:modem.c       ****         if(modem_get_state() == MODEM_STATE_WAITING_FOR_IP){
 1999              		.loc 1 519 0
 2000 0016 FFF7FEFF 		bl	modem_get_state
 2001 001a 0346     		mov	r3, r0
 2002 001c 032B     		cmp	r3, #3
 2003 001e 02D1     		bne	.L121
 520:modem.c       ****             CyDelay(100u);
 2004              		.loc 1 520 0
 2005 0020 6420     		movs	r0, #100
 2006 0022 FFF7FEFF 		bl	CyDelay
 2007              	.L121:
ARM GAS  C:\Users\HYFI_A~1\AppData\Local\Temp\ccnKJpxh.s 			page 48


 521:modem.c       ****         }
 522:modem.c       ****         
 523:modem.c       ****      }
 524:modem.c       ****     
 525:modem.c       **** }
 2008              		.loc 1 525 0
 2009 0026 00BF     		nop
 2010 0028 80BD     		pop	{r7, pc}
 2011              		.cfi_endproc
 2012              	.LFE84:
 2013              		.size	modem_wakeup, .-modem_wakeup
 2014 002a 00BF     		.section	.rodata
 2015              		.align	2
 2016              	.LC49:
 2017 0450 41542347 		.ascii	"AT#GPIO=5,1,1,0\015\000"
 2017      50494F3D 
 2017      352C312C 
 2017      312C300D 
 2017      00
 2018 0461 000000   		.align	2
 2019              	.LC50:
 2020 0464 41542453 		.ascii	"AT$SUPLSEC=1\015\000"
 2020      55504C53 
 2020      45433D31 
 2020      0D00
 2021 0472 0000     		.align	2
 2022              	.LC51:
 2023 0474 41542453 		.ascii	"AT$SUPLV=2\015\000"
 2023      55504C56 
 2023      3D320D00 
 2024              		.align	2
 2025              	.LC52:
 2026 0480 41542441 		.ascii	"AT$AGPSEN=1\015\000"
 2026      47505345 
 2026      4E3D310D 
 2026      00
 2027 048d 000000   		.align	2
 2028              	.LC53:
 2029 0490 41542453 		.ascii	"AT$SLP=1,\"supl.google.com:7275\"\015\000"
 2029      4C503D31 
 2029      2C227375 
 2029      706C2E67 
 2029      6F6F676C 
 2030 04b1 000000   		.align	2
 2031              	.LC54:
 2032 04b4 41542353 		.ascii	"AT#SGACT=1,0\015\012\000"
 2032      47414354 
 2032      3D312C30 
 2032      0D0A00
 2033 04c3 00       		.align	2
 2034              	.LC55:
 2035 04c4 4154244C 		.ascii	"AT$LCSLK=1,1\015\000"
 2035      43534C4B 
 2035      3D312C31 
 2035      0D00
 2036 04d2 0000     		.align	2
 2037              	.LC56:
ARM GAS  C:\Users\HYFI_A~1\AppData\Local\Temp\ccnKJpxh.s 			page 49


 2038 04d4 41542447 		.ascii	"AT$GPSSLSR=1,1,,,,,2\015\000"
 2038      5053534C 
 2038      53523D31 
 2038      2C312C2C 
 2038      2C2C2C32 
 2039 04ea 0000     		.align	2
 2040              	.LC57:
 2041 04ec 4E00     		.ascii	"N\000"
 2042 04ee 0000     		.align	2
 2043              	.LC58:
 2044 04f0 41542447 		.ascii	"AT$GPSACP\015\000"
 2044      50534143 
 2044      500D00
 2045 04fb 00       		.align	2
 2046              	.LC59:
 2047 04fc 24475053 		.ascii	"$GPSACP: \000"
 2047      4143503A 
 2047      2000
 2048 0506 0000     		.align	2
 2049              	.LC60:
 2050 0508 24475053 		.ascii	"$GPSACP: %*f,%fN,%fW,%*f,%f,%*s\000"
 2050      4143503A 
 2050      20252A66 
 2050      2C25664E 
 2050      2C256657 
 2051              		.global	__aeabi_fdiv
 2052              		.global	__aeabi_f2d
 2053              		.global	__aeabi_ddiv
 2054              		.global	__aeabi_dadd
 2055              		.global	__aeabi_d2f
 2056              		.align	2
 2057              	.LC61:
 2058 0528 41542347 		.ascii	"AT#GPIO=5,0,1,0\015\000"
 2058      50494F3D 
 2058      352C302C 
 2058      312C300D 
 2058      00
 2059 0539 000000   		.align	2
 2060              	.LC62:
 2061 053c 41542447 		.ascii	"AT$GPSR=0\015\000"
 2061      5053523D 
 2061      300D00
 2062 0547 00       		.align	2
 2063              	.LC63:
 2064 0548 54696D65 		.ascii	"Time to lock GPS: %d\000"
 2064      20746F20 
 2064      6C6F636B 
 2064      20475053 
 2064      3A202564 
 2065              		.section	.text.modem_get_gps_coordinates,"ax",%progbits
 2066              		.align	2
 2067              		.global	modem_get_gps_coordinates
 2068              		.thumb
 2069              		.thumb_func
 2070              		.type	modem_get_gps_coordinates, %function
 2071              	modem_get_gps_coordinates:
 2072              	.LFB85:
ARM GAS  C:\Users\HYFI_A~1\AppData\Local\Temp\ccnKJpxh.s 			page 50


 526:modem.c       **** 
 527:modem.c       **** 
 528:modem.c       ****     
 529:modem.c       **** //retunrs lat,lom,alt data from Assited GPS (AGPS) system
 530:modem.c       **** gps_t modem_get_gps_coordinates(){
 2073              		.loc 1 530 0
 2074              		.cfi_startproc
 2075              		@ args = 0, pretend = 0, frame = 56
 2076              		@ frame_needed = 1, uses_anonymous_args = 0
 2077 0000 B0B5     		push	{r4, r5, r7, lr}
 2078              		.cfi_def_cfa_offset 16
 2079              		.cfi_offset 4, -16
 2080              		.cfi_offset 5, -12
 2081              		.cfi_offset 7, -8
 2082              		.cfi_offset 14, -4
 2083 0002 90B0     		sub	sp, sp, #64
 2084              		.cfi_def_cfa_offset 80
 2085 0004 02AF     		add	r7, sp, #8
 2086              		.cfi_def_cfa 7, 72
 2087 0006 7860     		str	r0, [r7, #4]
 531:modem.c       ****     gps_t gps;
 532:modem.c       ****     gps.altitude = 0;
 2088              		.loc 1 532 0
 2089 0008 4FF00003 		mov	r3, #0
 2090 000c FB61     		str	r3, [r7, #28]	@ float
 533:modem.c       ****     gps.longitude = 0;
 2091              		.loc 1 533 0
 2092 000e 4FF00003 		mov	r3, #0
 2093 0012 BB61     		str	r3, [r7, #24]	@ float
 534:modem.c       ****     gps.latitude = 0;
 2094              		.loc 1 534 0
 2095 0014 4FF00003 		mov	r3, #0
 2096 0018 7B61     		str	r3, [r7, #20]	@ float
 535:modem.c       ****     gps.time_to_lock =0;
 2097              		.loc 1 535 0
 2098 001a 0023     		movs	r3, #0
 2099 001c 3B84     		strh	r3, [r7, #32]	@ movhi
 536:modem.c       ****     gps.valid = 0;
 2100              		.loc 1 536 0
 2101 001e 0023     		movs	r3, #0
 2102 0020 87F82230 		strb	r3, [r7, #34]
 537:modem.c       ****     
 538:modem.c       ****     //AGPS will only work if we're connected to network, so don't call this fuction otherwise
 539:modem.c       ****     if(modem_state != MODEM_STATE_READY){
 2103              		.loc 1 539 0
 2104 0024 7F4B     		ldr	r3, .L132
 2105 0026 1B78     		ldrb	r3, [r3]	@ zero_extendqisi2
 2106 0028 042B     		cmp	r3, #4
 2107 002a 07D0     		beq	.L123
 540:modem.c       ****         return gps;//where valid = 0
 2108              		.loc 1 540 0
 2109 002c 7B68     		ldr	r3, [r7, #4]
 2110 002e 1C46     		mov	r4, r3
 2111 0030 07F11403 		add	r3, r7, #20
 2112 0034 0FCB     		ldmia	r3, {r0, r1, r2, r3}
 2113 0036 84E80F00 		stmia	r4, {r0, r1, r2, r3}
 2114 003a EFE0     		b	.L122
ARM GAS  C:\Users\HYFI_A~1\AppData\Local\Temp\ccnKJpxh.s 			page 51


 2115              	.L123:
 541:modem.c       ****     }
 542:modem.c       ****     
 543:modem.c       ****     long lock_time = getTimeStamp();
 2116              		.loc 1 543 0
 2117 003c FFF7FEFF 		bl	getTimeStamp
 2118 0040 3863     		str	r0, [r7, #48]
 544:modem.c       ****     
 545:modem.c       ****     //Eenable this for thr LTER module
 546:modem.c       ****     //enable GPS Low-Dropout Regulator
 547:modem.c       ****     at_write_command("AT#GPIO=5,1,1,0\r","OK",DEFAULT_AT_TIMEOUT);
 2119              		.loc 1 547 0
 2120 0042 4FF4FA62 		mov	r2, #2000
 2121 0046 7849     		ldr	r1, .L132+4
 2122 0048 7848     		ldr	r0, .L132+8
 2123 004a FFF7FEFF 		bl	at_write_command
 548:modem.c       ****     
 549:modem.c       ****     //configure SUPL connection params
 550:modem.c       ****     at_write_command("AT$SUPLSEC=1\r","OK",DEFAULT_AT_TIMEOUT);
 2124              		.loc 1 550 0
 2125 004e 4FF4FA62 		mov	r2, #2000
 2126 0052 7549     		ldr	r1, .L132+4
 2127 0054 7648     		ldr	r0, .L132+12
 2128 0056 FFF7FEFF 		bl	at_write_command
 551:modem.c       ****     
 552:modem.c       ****     //use SUPL2.0
 553:modem.c       ****     at_write_command("AT$SUPLV=2\r","OK",DEFAULT_AT_TIMEOUT);
 2129              		.loc 1 553 0
 2130 005a 4FF4FA62 		mov	r2, #2000
 2131 005e 7249     		ldr	r1, .L132+4
 2132 0060 7448     		ldr	r0, .L132+16
 2133 0062 FFF7FEFF 		bl	at_write_command
 554:modem.c       ****     
 555:modem.c       ****     //enable AGPS service
 556:modem.c       ****     at_write_command("AT$AGPSEN=1\r","OK",DEFAULT_AT_TIMEOUT);
 2134              		.loc 1 556 0
 2135 0066 4FF4FA62 		mov	r2, #2000
 2136 006a 6F49     		ldr	r1, .L132+4
 2137 006c 7248     		ldr	r0, .L132+20
 2138 006e FFF7FEFF 		bl	at_write_command
 557:modem.c       ****     
 558:modem.c       ****     //chose SUPL server, use google publiuc service
 559:modem.c       ****     at_write_command("AT$SLP=1,\"supl.google.com:7275\"\r","OK",DEFAULT_AT_TIMEOUT);
 2139              		.loc 1 559 0
 2140 0072 4FF4FA62 		mov	r2, #2000
 2141 0076 6C49     		ldr	r1, .L132+4
 2142 0078 7048     		ldr	r0, .L132+24
 2143 007a FFF7FEFF 		bl	at_write_command
 560:modem.c       ****     
 561:modem.c       ****     //pdp context has to be lockeed to carrier for this to work
 562:modem.c       ****     
 563:modem.c       ****     //unlcok context since it needs to be used by modem
 564:modem.c       ****     at_write_command("AT#SGACT=1,0\r\n", "OK",DEFAULT_AT_TIMEOUT);
 2144              		.loc 1 564 0
 2145 007e 4FF4FA62 		mov	r2, #2000
 2146 0082 6949     		ldr	r1, .L132+4
 2147 0084 6E48     		ldr	r0, .L132+28
ARM GAS  C:\Users\HYFI_A~1\AppData\Local\Temp\ccnKJpxh.s 			page 52


 2148 0086 FFF7FEFF 		bl	at_write_command
 565:modem.c       ****     
 566:modem.c       ****     at_write_command("AT$LCSLK=1,1\r","OK",DEFAULT_AT_TIMEOUT);//ATT
 2149              		.loc 1 566 0
 2150 008a 4FF4FA62 		mov	r2, #2000
 2151 008e 6649     		ldr	r1, .L132+4
 2152 0090 6C48     		ldr	r0, .L132+32
 2153 0092 FFF7FEFF 		bl	at_write_command
 567:modem.c       ****     //at_write_command("AT$LCSLK=1,3\r","OK",DEFAULT_AT_TIMEOUT);//Verizon
 568:modem.c       ****     
 569:modem.c       ****     //relock the context
 570:modem.c       ****     at_write_command("AT#SGACT=1,1\r\n", "OK",10000u);
 2154              		.loc 1 570 0
 2155 0096 42F21072 		movw	r2, #10000
 2156 009a 6349     		ldr	r1, .L132+4
 2157 009c 6A48     		ldr	r0, .L132+36
 2158 009e FFF7FEFF 		bl	at_write_command
 571:modem.c       ****     
 572:modem.c       ****     //start AGPS service
 573:modem.c       ****     at_write_command("AT$GPSSLSR=1,1,,,,,2\r","OK",DEFAULT_AT_TIMEOUT); 
 2159              		.loc 1 573 0
 2160 00a2 4FF4FA62 		mov	r2, #2000
 2161 00a6 6049     		ldr	r1, .L132+4
 2162 00a8 6848     		ldr	r0, .L132+40
 2163 00aa FFF7FEFF 		bl	at_write_command
 574:modem.c       ****     
 575:modem.c       ****     
 576:modem.c       ****     //start the AGPS service
 577:modem.c       ****     //will keep receiving a buynch of commas without numbers, until GPS locks
 578:modem.c       ****     //good lock will retunr a string with "N" and "W" coordinates
 579:modem.c       ****     
 580:modem.c       ****     
 581:modem.c       ****  
 582:modem.c       ****     uint8 gps_status = 0;
 2164              		.loc 1 582 0
 2165 00ae 0023     		movs	r3, #0
 2166 00b0 87F82F30 		strb	r3, [r7, #47]
 2167              	.LBB12:
 583:modem.c       ****     for(uint16 i=0;i<200;i++){
 2168              		.loc 1 583 0
 2169 00b4 0023     		movs	r3, #0
 2170 00b6 FB86     		strh	r3, [r7, #54]	@ movhi
 2171 00b8 13E0     		b	.L125
 2172              	.L128:
 584:modem.c       ****         gps_status = at_write_command("AT$GPSACP\r","N",DEFAULT_AT_TIMEOUT);//ATT
 2173              		.loc 1 584 0
 2174 00ba 4FF4FA62 		mov	r2, #2000
 2175 00be 6449     		ldr	r1, .L132+44
 2176 00c0 6448     		ldr	r0, .L132+48
 2177 00c2 FFF7FEFF 		bl	at_write_command
 2178 00c6 0346     		mov	r3, r0
 2179 00c8 87F82F30 		strb	r3, [r7, #47]
 585:modem.c       ****         if(gps_status){
 2180              		.loc 1 585 0
 2181 00cc 97F82F30 		ldrb	r3, [r7, #47]	@ zero_extendqisi2
 2182 00d0 002B     		cmp	r3, #0
 2183 00d2 0AD1     		bne	.L131
ARM GAS  C:\Users\HYFI_A~1\AppData\Local\Temp\ccnKJpxh.s 			page 53


 586:modem.c       ****             break;   
 587:modem.c       ****         }
 588:modem.c       ****         CyDelay(1000u);//wait for a second -- BLOCKING. Could be more elegant to incorporate this i
 2184              		.loc 1 588 0 discriminator 2
 2185 00d4 4FF47A70 		mov	r0, #1000
 2186 00d8 FFF7FEFF 		bl	CyDelay
 583:modem.c       ****         gps_status = at_write_command("AT$GPSACP\r","N",DEFAULT_AT_TIMEOUT);//ATT
 2187              		.loc 1 583 0 discriminator 2
 2188 00dc FB8E     		ldrh	r3, [r7, #54]
 2189 00de 0133     		adds	r3, r3, #1
 2190 00e0 FB86     		strh	r3, [r7, #54]	@ movhi
 2191              	.L125:
 583:modem.c       ****         gps_status = at_write_command("AT$GPSACP\r","N",DEFAULT_AT_TIMEOUT);//ATT
 2192              		.loc 1 583 0 is_stmt 0 discriminator 1
 2193 00e2 FB8E     		ldrh	r3, [r7, #54]
 2194 00e4 C72B     		cmp	r3, #199
 2195 00e6 E8D9     		bls	.L128
 2196 00e8 00E0     		b	.L127
 2197              	.L131:
 586:modem.c       ****             break;   
 2198              		.loc 1 586 0 is_stmt 1
 2199 00ea 00BF     		nop
 2200              	.L127:
 2201              	.LBE12:
 589:modem.c       ****     }
 590:modem.c       ****     
 591:modem.c       ****     
 592:modem.c       ****     //parse data here
 593:modem.c       ****     
 594:modem.c       ****     //example $GPSACP: 210926.000,4217.8003N,08341.3158W,2.3,258.2,3,17.8,4.8,2.6,220520,05,00
 595:modem.c       ****     float lat;
 596:modem.c       ****     float lon;
 597:modem.c       ****     float alt;
 598:modem.c       ****     
 599:modem.c       ****     char *s1 = strstr(uart_received_string,"$GPSACP: ");
 2202              		.loc 1 599 0
 2203 00ec 5A49     		ldr	r1, .L132+52
 2204 00ee 5B48     		ldr	r0, .L132+56
 2205 00f0 FFF7FEFF 		bl	strstr
 2206 00f4 B862     		str	r0, [r7, #40]
 600:modem.c       ****     int match = sscanf(s1,"$GPSACP: %*f,%fN,%fW,%*f,%f,%*s",&lat,&lon,&alt);
 2207              		.loc 1 600 0
 2208 00f6 07F10C01 		add	r1, r7, #12
 2209 00fa 07F11002 		add	r2, r7, #16
 2210 00fe 07F10803 		add	r3, r7, #8
 2211 0102 0093     		str	r3, [sp]
 2212 0104 0B46     		mov	r3, r1
 2213 0106 5649     		ldr	r1, .L132+60
 2214 0108 B86A     		ldr	r0, [r7, #40]
 2215 010a FFF7FEFF 		bl	sscanf
 2216 010e 7862     		str	r0, [r7, #36]
 601:modem.c       ****     if(match >= 3){
 2217              		.loc 1 601 0
 2218 0110 7B6A     		ldr	r3, [r7, #36]
 2219 0112 022B     		cmp	r3, #2
 2220 0114 60DD     		ble	.L129
 602:modem.c       ****         lat = floorf(lat/100) + fmod(lat,100)/60;
ARM GAS  C:\Users\HYFI_A~1\AppData\Local\Temp\ccnKJpxh.s 			page 54


 2221              		.loc 1 602 0
 2222 0116 3B69     		ldr	r3, [r7, #16]	@ float
 2223 0118 5249     		ldr	r1, .L132+64
 2224 011a 1846     		mov	r0, r3
 2225 011c FFF7FEFF 		bl	__aeabi_fdiv
 2226 0120 0346     		mov	r3, r0
 2227 0122 1846     		mov	r0, r3
 2228 0124 FFF7FEFF 		bl	floorf
 2229 0128 0346     		mov	r3, r0
 2230 012a 1846     		mov	r0, r3
 2231 012c FFF7FEFF 		bl	__aeabi_f2d
 2232 0130 0446     		mov	r4, r0
 2233 0132 0D46     		mov	r5, r1
 2234 0134 3B69     		ldr	r3, [r7, #16]	@ float
 2235 0136 1846     		mov	r0, r3
 2236 0138 FFF7FEFF 		bl	__aeabi_f2d
 2237 013c 4FF00002 		mov	r2, #0
 2238 0140 494B     		ldr	r3, .L132+68
 2239 0142 FFF7FEFF 		bl	fmod
 2240 0146 4FF00002 		mov	r2, #0
 2241 014a 484B     		ldr	r3, .L132+72
 2242 014c FFF7FEFF 		bl	__aeabi_ddiv
 2243 0150 0246     		mov	r2, r0
 2244 0152 0B46     		mov	r3, r1
 2245 0154 2046     		mov	r0, r4
 2246 0156 2946     		mov	r1, r5
 2247 0158 FFF7FEFF 		bl	__aeabi_dadd
 2248 015c 0346     		mov	r3, r0
 2249 015e 0C46     		mov	r4, r1
 2250 0160 1846     		mov	r0, r3
 2251 0162 2146     		mov	r1, r4
 2252 0164 FFF7FEFF 		bl	__aeabi_d2f
 2253 0168 0346     		mov	r3, r0
 2254 016a 3B61     		str	r3, [r7, #16]	@ float
 603:modem.c       ****         lon = -(floorf(lon/100) + fmod(lon,100)/60);
 2255              		.loc 1 603 0
 2256 016c FB68     		ldr	r3, [r7, #12]	@ float
 2257 016e 3D49     		ldr	r1, .L132+64
 2258 0170 1846     		mov	r0, r3
 2259 0172 FFF7FEFF 		bl	__aeabi_fdiv
 2260 0176 0346     		mov	r3, r0
 2261 0178 1846     		mov	r0, r3
 2262 017a FFF7FEFF 		bl	floorf
 2263 017e 0346     		mov	r3, r0
 2264 0180 1846     		mov	r0, r3
 2265 0182 FFF7FEFF 		bl	__aeabi_f2d
 2266 0186 0446     		mov	r4, r0
 2267 0188 0D46     		mov	r5, r1
 2268 018a FB68     		ldr	r3, [r7, #12]	@ float
 2269 018c 1846     		mov	r0, r3
 2270 018e FFF7FEFF 		bl	__aeabi_f2d
 2271 0192 4FF00002 		mov	r2, #0
 2272 0196 344B     		ldr	r3, .L132+68
 2273 0198 FFF7FEFF 		bl	fmod
 2274 019c 4FF00002 		mov	r2, #0
 2275 01a0 324B     		ldr	r3, .L132+72
 2276 01a2 FFF7FEFF 		bl	__aeabi_ddiv
ARM GAS  C:\Users\HYFI_A~1\AppData\Local\Temp\ccnKJpxh.s 			page 55


 2277 01a6 0246     		mov	r2, r0
 2278 01a8 0B46     		mov	r3, r1
 2279 01aa 2046     		mov	r0, r4
 2280 01ac 2946     		mov	r1, r5
 2281 01ae FFF7FEFF 		bl	__aeabi_dadd
 2282 01b2 0346     		mov	r3, r0
 2283 01b4 0C46     		mov	r4, r1
 2284 01b6 1846     		mov	r0, r3
 2285 01b8 2146     		mov	r1, r4
 2286 01ba FFF7FEFF 		bl	__aeabi_d2f
 2287 01be 0346     		mov	r3, r0
 2288 01c0 83F00043 		eor	r3, r3, #-2147483648
 2289 01c4 FB60     		str	r3, [r7, #12]	@ float
 604:modem.c       ****         gps.altitude = alt;
 2290              		.loc 1 604 0
 2291 01c6 BB68     		ldr	r3, [r7, #8]	@ float
 2292 01c8 FB61     		str	r3, [r7, #28]	@ float
 605:modem.c       ****         gps.latitude = lat;
 2293              		.loc 1 605 0
 2294 01ca 3B69     		ldr	r3, [r7, #16]	@ float
 2295 01cc 7B61     		str	r3, [r7, #20]	@ float
 606:modem.c       ****         gps.longitude = lon;
 2296              		.loc 1 606 0
 2297 01ce FB68     		ldr	r3, [r7, #12]	@ float
 2298 01d0 BB61     		str	r3, [r7, #24]	@ float
 607:modem.c       ****         gps.valid = 1;
 2299              		.loc 1 607 0
 2300 01d2 0123     		movs	r3, #1
 2301 01d4 87F82230 		strb	r3, [r7, #34]
 2302              	.L129:
 608:modem.c       ****     }
 609:modem.c       ****   
 610:modem.c       ****     
 611:modem.c       ****     //disable LDO, just in case
 612:modem.c       ****     at_write_command("AT#GPIO=5,0,1,0\r","OK",DEFAULT_AT_TIMEOUT);
 2303              		.loc 1 612 0
 2304 01d8 4FF4FA62 		mov	r2, #2000
 2305 01dc 1249     		ldr	r1, .L132+4
 2306 01de 2448     		ldr	r0, .L132+76
 2307 01e0 FFF7FEFF 		bl	at_write_command
 613:modem.c       ****     
 614:modem.c       ****     //flush modem's GPS data, just in case
 615:modem.c       ****     at_write_command("AT$GPSR=0\r","OK",DEFAULT_AT_TIMEOUT);
 2308              		.loc 1 615 0
 2309 01e4 4FF4FA62 		mov	r2, #2000
 2310 01e8 0F49     		ldr	r1, .L132+4
 2311 01ea 2248     		ldr	r0, .L132+80
 2312 01ec FFF7FEFF 		bl	at_write_command
 616:modem.c       ****     
 617:modem.c       ****     
 618:modem.c       ****     
 619:modem.c       ****     
 620:modem.c       ****     
 621:modem.c       ****     /*relevant to 3g modem, can ignore
 622:modem.c       ****     
 623:modem.c       ****     //Setthe GPS Quality of Servicep arameters. Inorder,theyare<horiz_accuracy(inmeters)>,<vertical
 624:modem.c       ****     //AT$GPSQOS=50,50,100,0
ARM GAS  C:\Users\HYFI_A~1\AppData\Local\Temp\ccnKJpxh.s 			page 56


 625:modem.c       ****     at_write_command("AT$GPSQOS=50,50,100,0\r","OK",DEFAULT_AT_TIMEOUT);
 626:modem.c       ****     
 627:modem.c       ****     //SettheSUPLLocationPlatform(SLP)addressoftheserverthatwillprovidetheA-GPS data:
 628:modem.c       ****     at_write_command("AT$LCSSLP=1,\"supl.google.com\"\r","OK",DEFAULT_AT_TIMEOUT);
 629:modem.c       ****     
 630:modem.c       ****     //unlock contedt, simnce its being used by modem
 631:modem.c       ****     at_write_command("AT#SGACT=1,0\r\n", "OK",DEFAULT_AT_TIMEOUT);
 632:modem.c       ****     //Lock context 1 for LoCation Services (LCS) use only
 633:modem.c       ****     at_write_command("AT$LCSLK=1,1\r","OK",5000u);
 634:modem.c       ****     
 635:modem.c       ****     //unlock contedt, simnce its being used by modem
 636:modem.c       ****     at_write_command("AT#SGACT=1,1\r\n", "OK",10000u);
 637:modem.c       ****     
 638:modem.c       ****     //EnableunsolicitedNMEAGPSdataintheformatof<NMEASENTENCE><CR>
 639:modem.c       ****     at_write_command("AT$GPSNMUN=2,1,0,0,0,0,0\r","OK",DEFAULT_AT_TIMEOUT);
 640:modem.c       ****     
 641:modem.c       ****     //StartGPSlocationservicerequest.Sendingthiscommandsets$GPSP=1
 642:modem.c       ****    uint8 gps_status = 0;
 643:modem.c       ****     for(uint16 i=0;i<200;i++){
 644:modem.c       ****         gps_status = at_write_command("AT$GPSSLSR=1,1,,,,,0,255\r","N",3000u);
 645:modem.c       ****         if(gps_status){
 646:modem.c       ****             break;   
 647:modem.c       ****         }
 648:modem.c       ****   }
 649:modem.c       ****     
 650:modem.c       ****     //$GPGGA,030307.691,4217.7923,N,08341.3240,W,1,05,2.25,225.0,M,,M,,0000*6E
 651:modem.c       ****     //$GPGGA,213852.000,4600.8755,N,09327.7008,W,1,05,3.00,292.0,M,,M,,0000*6E
 652:modem.c       ****     if(gps_status){
 653:modem.c       ****         float lat,lon,alt = 0;
 654:modem.c       ****         if(sscanf(uart_received_string,"%*s,%f,N,%f,W,%*s",&lat,&lon) > 0){
 655:modem.c       ****             gps.altitude = alt;
 656:modem.c       ****             gps.latitude = lat/60;
 657:modem.c       ****             gps.longitude = lon/60;
 658:modem.c       ****             gps.valid = 1;
 659:modem.c       ****         }
 660:modem.c       ****         
 661:modem.c       ****     }
 662:modem.c       ****     
 663:modem.c       ****     //turn off gps
 664:modem.c       ****     //AT$GPSP=0
 665:modem.c       ****     at_write_command("AT$GPSP=0\r","OK",DEFAULT_AT_TIMEOUT);
 666:modem.c       ****     
 667:modem.c       ****     */
 668:modem.c       **** 
 669:modem.c       ****     
 670:modem.c       ****     lock_time = getTimeStamp() - lock_time;
 2313              		.loc 1 670 0
 2314 01f0 FFF7FEFF 		bl	getTimeStamp
 2315 01f4 0246     		mov	r2, r0
 2316 01f6 3B6B     		ldr	r3, [r7, #48]
 2317 01f8 D31A     		subs	r3, r2, r3
 2318 01fa 3B63     		str	r3, [r7, #48]
 671:modem.c       ****     gps.time_to_lock = lock_time;
 2319              		.loc 1 671 0
 2320 01fc 3B6B     		ldr	r3, [r7, #48]
 2321 01fe 9BB2     		uxth	r3, r3
 2322 0200 3B84     		strh	r3, [r7, #32]	@ movhi
ARM GAS  C:\Users\HYFI_A~1\AppData\Local\Temp\ccnKJpxh.s 			page 57


 672:modem.c       ****     printNotif(NOTIF_TYPE_EVENT,"Time to lock GPS: %d", gps.time_to_lock);
 2323              		.loc 1 672 0
 2324 0202 3B8C     		ldrh	r3, [r7, #32]
 2325 0204 1A46     		mov	r2, r3
 2326 0206 1C49     		ldr	r1, .L132+84
 2327 0208 0020     		movs	r0, #0
 2328 020a FFF7FEFF 		bl	printNotif
 673:modem.c       ****     
 674:modem.c       ****     return gps;
 2329              		.loc 1 674 0
 2330 020e 7B68     		ldr	r3, [r7, #4]
 2331 0210 1C46     		mov	r4, r3
 2332 0212 07F11403 		add	r3, r7, #20
 2333 0216 0FCB     		ldmia	r3, {r0, r1, r2, r3}
 2334 0218 84E80F00 		stmia	r4, {r0, r1, r2, r3}
 2335              	.L122:
 675:modem.c       ****     
 676:modem.c       **** }
 2336              		.loc 1 676 0
 2337 021c 7868     		ldr	r0, [r7, #4]
 2338 021e 3837     		adds	r7, r7, #56
 2339              		.cfi_def_cfa_offset 16
 2340 0220 BD46     		mov	sp, r7
 2341              		.cfi_def_cfa_register 13
 2342              		@ sp needed
 2343 0222 B0BD     		pop	{r4, r5, r7, pc}
 2344              	.L133:
 2345              		.align	2
 2346              	.L132:
 2347 0224 00000000 		.word	modem_state
 2348 0228 00000000 		.word	.LC0
 2349 022c 50040000 		.word	.LC49
 2350 0230 64040000 		.word	.LC50
 2351 0234 74040000 		.word	.LC51
 2352 0238 80040000 		.word	.LC52
 2353 023c 90040000 		.word	.LC53
 2354 0240 B4040000 		.word	.LC54
 2355 0244 C4040000 		.word	.LC55
 2356 0248 D8020000 		.word	.LC26
 2357 024c D4040000 		.word	.LC56
 2358 0250 EC040000 		.word	.LC57
 2359 0254 F0040000 		.word	.LC58
 2360 0258 FC040000 		.word	.LC59
 2361 025c 00000000 		.word	uart_received_string
 2362 0260 08050000 		.word	.LC60
 2363 0264 0000C842 		.word	1120403456
 2364 0268 00005940 		.word	1079574528
 2365 026c 00004E40 		.word	1078853632
 2366 0270 28050000 		.word	.LC61
 2367 0274 3C050000 		.word	.LC62
 2368 0278 48050000 		.word	.LC63
 2369              		.cfi_endproc
 2370              	.LFE85:
 2371              		.size	modem_get_gps_coordinates, .-modem_get_gps_coordinates
 2372              		.text
 2373              	.Letext0:
 2374              		.file 2 "c:\\program files (x86)\\cypress\\psoc creator\\4.3\\psoc creator\\import\\gnu\\arm\\5.4.
ARM GAS  C:\Users\HYFI_A~1\AppData\Local\Temp\ccnKJpxh.s 			page 58


 2375              		.file 3 "c:\\program files (x86)\\cypress\\psoc creator\\4.3\\psoc creator\\import\\gnu\\arm\\5.4.
 2376              		.file 4 "Generated_Source\\PSoC5/cytypes.h"
 2377              		.file 5 "c:\\program files (x86)\\cypress\\psoc creator\\4.3\\psoc creator\\import\\gnu\\arm\\5.4.
 2378              		.file 6 "testing.h"
 2379              		.file 7 "modem.h"
 2380              		.file 8 "data.h"
 2381              		.file 9 "notoriOS.h"
 2382              		.file 10 "Generated_Source\\PSoC5/core_cm3.h"