ARM GAS  C:\Users\HYFI_A~1\AppData\Local\Temp\ccU4tXr0.s 			page 1


   1              		.syntax unified
   2              		.cpu cortex-m3
   3              		.fpu softvfp
   4              		.eabi_attribute 20, 1
   5              		.eabi_attribute 21, 1
   6              		.eabi_attribute 23, 3
   7              		.eabi_attribute 24, 1
   8              		.eabi_attribute 25, 1
   9              		.eabi_attribute 26, 1
  10              		.eabi_attribute 30, 6
  11              		.eabi_attribute 34, 1
  12              		.eabi_attribute 18, 4
  13              		.thumb
  14              		.syntax unified
  15              		.file	"notoriOS.c"
  16              		.text
  17              	.Ltext0:
  18              		.cfi_sections	.debug_frame
  19              		.comm	debug_string,100,4
  20              		.syntax unified
  21              		.global _printf_float
  22              		.thumb
  23              		.syntax unified
  24              		.comm	modem_state,1,1
  25              		.comm	modem_start_time_stamp,4,4
  26              		.comm	modem_info,60,4
  27              		.comm	modem_stats,12,4
  28              		.comm	dataPointsInStack,2,2
  29              		.comm	data,440,4
  30              		.comm	system_info,28,4
  31              		.comm	system_settings,324,4
  32              		.comm	alarmMeasure,6,4
  33              		.comm	timeToMeasure,1,1
  34              		.comm	alarmMeasure2,6,4
  35              		.comm	timeToMeasure2,1,1
  36              		.section	.text.Wakeup_ISR,"ax",%progbits
  37              		.align	2
  38              		.global	Wakeup_ISR
  39              		.thumb
  40              		.thumb_func
  41              		.type	Wakeup_ISR, %function
  42              	Wakeup_ISR:
  43              	.LFB64:
  44              		.file 1 "notoriOS.c"
   1:notoriOS.c    **** /* ========================================
   2:notoriOS.c    ****  *
   3:notoriOS.c    ****  * OPEN-STORM.ORG
   4:notoriOS.c    ****  * notoriOS
   5:notoriOS.c    ****  * A non-premptive operating system for node.
   6:notoriOS.c    ****  *
   7:notoriOS.c    ****  * "To all the teachers that told me I'd never amount to nothin"
   8:notoriOS.c    ****  *      -Notorious BIG (1994)
   9:notoriOS.c    ****  *
  10:notoriOS.c    ****  * ========================================
  11:notoriOS.c    **** */
  12:notoriOS.c    **** 
  13:notoriOS.c    **** #include "notoriOS.h"
ARM GAS  C:\Users\HYFI_A~1\AppData\Local\Temp\ccU4tXr0.s 			page 2


  14:notoriOS.c    **** 
  15:notoriOS.c    **** 
  16:notoriOS.c    **** 
  17:notoriOS.c    **** 
  18:notoriOS.c    **** 
  19:notoriOS.c    **** 
  20:notoriOS.c    **** 
  21:notoriOS.c    **** //global variables
  22:notoriOS.c    **** alarm alarmMeasure;
  23:notoriOS.c    **** uint8 timeToMeasure;
  24:notoriOS.c    **** alarm alarmMeasure2;
  25:notoriOS.c    **** uint8 timeToMeasure2;
  26:notoriOS.c    **** 
  27:notoriOS.c    **** 
  28:notoriOS.c    **** 
  29:notoriOS.c    **** // This function must always be called (when the Sleep Timer's interrupt
  30:notoriOS.c    **** // is disabled or enabled) after wake up to clear the ctw_int status bit.
  31:notoriOS.c    **** // It is required to call SleepTimer_GetStatus() within 1 ms (1 clock cycle
  32:notoriOS.c    **** // of the ILO) after CTW event occurred.
  33:notoriOS.c    **** CY_ISR(Wakeup_ISR) {
  45              		.loc 1 33 0
  46              		.cfi_startproc
  47              		@ args = 0, pretend = 0, frame = 0
  48              		@ frame_needed = 1, uses_anonymous_args = 0
  49 0000 80B5     		push	{r7, lr}
  50              		.cfi_def_cfa_offset 8
  51              		.cfi_offset 7, -8
  52              		.cfi_offset 14, -4
  53 0002 00AF     		add	r7, sp, #0
  54              		.cfi_def_cfa_register 7
  34:notoriOS.c    ****     SleepTimer_GetStatus();
  55              		.loc 1 34 0
  56 0004 FFF7FEFF 		bl	SleepTimer_GetStatus
  35:notoriOS.c    **** }
  57              		.loc 1 35 0
  58 0008 00BF     		nop
  59 000a 80BD     		pop	{r7, pc}
  60              		.cfi_endproc
  61              	.LFE64:
  62              		.size	Wakeup_ISR, .-Wakeup_ISR
  63              		.comm	http_request,1000,4
  64              		.comm	http_body,1600,4
  65              		.section	.rodata
  66              		.align	2
  67              	.LC0:
  68 0000 25582D25 		.ascii	"%X-%X\000"
  68      5800
  69 0006 0000     		.align	2
  70              	.LC1:
  71 0008 64617461 		.ascii	"data.open-storm.org\000"
  71      2E6F7065 
  71      6E2D7374 
  71      6F726D2E 
  71      6F726700 
  72              		.align	2
  73              	.LC2:
  74 001c 67656E65 		.ascii	"generic_node\000"
ARM GAS  C:\Users\HYFI_A~1\AppData\Local\Temp\ccU4tXr0.s 			page 3


  74      7269635F 
  74      6E6F6465 
  74      00
  75 0029 000000   		.align	2
  76              	.LC3:
  77 002c 4D616B65 		.ascii	"MakeFloodsCurrents\000"
  77      466C6F6F 
  77      64734375 
  77      7272656E 
  77      747300
  78 003f 00       		.align	2
  79              	.LC4:
  80 0040 41524200 		.ascii	"ARB\000"
  81              		.align	2
  82              	.LC5:
  83 0044 47474230 		.ascii	"GGB000\000"
  83      303000
  84              		.section	.text.ReadyOrNot,"ax",%progbits
  85              		.align	2
  86              		.global	ReadyOrNot
  87              		.thumb
  88              		.thumb_func
  89              		.type	ReadyOrNot, %function
  90              	ReadyOrNot:
  91              	.LFB65:
  36:notoriOS.c    **** 
  37:notoriOS.c    **** 
  38:notoriOS.c    **** //pre-allocate some memory for the HTTP requests
  39:notoriOS.c    **** #define MAX_HTTP_HEADER_LENFGTH 1000
  40:notoriOS.c    **** char http_request[MAX_HTTP_HEADER_LENFGTH];
  41:notoriOS.c    **** char http_body[DATA_MAX_KEY_LENGTH*DATA_MAX_VALUES*3+MAX_HTTP_HEADER_LENFGTH];
  42:notoriOS.c    **** uint8 syncData();
  43:notoriOS.c    **** 
  44:notoriOS.c    **** 
  45:notoriOS.c    **** // ==============================================
  46:notoriOS.c    **** // Ready or not, here I come, you can't hide
  47:notoriOS.c    **** // Gonna find you and take it slowly
  48:notoriOS.c    **** //      - The Fugees (1996)
  49:notoriOS.c    **** //
  50:notoriOS.c    **** // Initialize and critical hardware or routines 
  51:notoriOS.c    **** // ==============================================
  52:notoriOS.c    **** void ReadyOrNot()
  53:notoriOS.c    **** {
  92              		.loc 1 53 0
  93              		.cfi_startproc
  94              		@ args = 0, pretend = 0, frame = 16
  95              		@ frame_needed = 1, uses_anonymous_args = 0
  96 0000 B0B5     		push	{r4, r5, r7, lr}
  97              		.cfi_def_cfa_offset 16
  98              		.cfi_offset 4, -16
  99              		.cfi_offset 5, -12
 100              		.cfi_offset 7, -8
 101              		.cfi_offset 14, -4
 102 0002 84B0     		sub	sp, sp, #16
 103              		.cfi_def_cfa_offset 32
 104 0004 00AF     		add	r7, sp, #0
 105              		.cfi_def_cfa_register 7
ARM GAS  C:\Users\HYFI_A~1\AppData\Local\Temp\ccU4tXr0.s 			page 4


  54:notoriOS.c    ****     
  55:notoriOS.c    ****     isr_SleepTimer_StartEx(Wakeup_ISR);// Start Sleep ISR
 106              		.loc 1 55 0
 107 0006 2F48     		ldr	r0, .L3
 108 0008 FFF7FEFF 		bl	isr_SleepTimer_StartEx
  56:notoriOS.c    ****     SleepTimer_Start();             // Start SleepTimer Component
 109              		.loc 1 56 0
 110 000c FFF7FEFF 		bl	SleepTimer_Start
  57:notoriOS.c    ****     
  58:notoriOS.c    ****     RTC_WriteIntervalMask(0b11111111);
 111              		.loc 1 58 0
 112 0010 FF20     		movs	r0, #255
 113 0012 FFF7FEFF 		bl	RTC_WriteIntervalMask
  59:notoriOS.c    ****     RTC_Start();
 114              		.loc 1 59 0
 115 0016 FFF7FEFF 		bl	RTC_Start
  60:notoriOS.c    ****     debug_start();
 116              		.loc 1 60 0
 117 001a FFF7FEFF 		bl	debug_start
  61:notoriOS.c    ****     
  62:notoriOS.c    ****     modem_intilize();
 118              		.loc 1 62 0
 119 001e FFF7FEFF 		bl	modem_intilize
  63:notoriOS.c    ****    
  64:notoriOS.c    ****     
  65:notoriOS.c    ****     //collect system info and store in struct (modem ID, silicon ID, etc)
  66:notoriOS.c    ****       /* An array of char elements for the resulting string to be stored */
  67:notoriOS.c    ****     
  68:notoriOS.c    ****     
  69:notoriOS.c    ****     //get unique ID of PSOC chip, this can be concatenated with the MODEM IDs to generate a unique 
  70:notoriOS.c    ****     uint32 uniqueId[2];
  71:notoriOS.c    ****     CyGetUniqueId(uniqueId); 
 120              		.loc 1 71 0
 121 0022 07F10803 		add	r3, r7, #8
 122 0026 1846     		mov	r0, r3
 123 0028 FFF7FEFF 		bl	CyGetUniqueId
  72:notoriOS.c    ****     sprintf(system_info.chip_uniqueId,"%X-%X",(unsigned int)uniqueId[0],(unsigned int)uniqueId[1]);
 124              		.loc 1 72 0
 125 002c BA68     		ldr	r2, [r7, #8]
 126 002e FB68     		ldr	r3, [r7, #12]
 127 0030 2549     		ldr	r1, .L3+4
 128 0032 2648     		ldr	r0, .L3+8
 129 0034 FFF7FEFF 		bl	sprintf
  73:notoriOS.c    ****     //the modem will track/popualte it's own IDs, so just point to them for now
  74:notoriOS.c    ****     system_info.modem_info = &modem_info;
 130              		.loc 1 74 0
 131 0038 254B     		ldr	r3, .L3+12
 132 003a 264A     		ldr	r2, .L3+16
 133 003c 1A60     		str	r2, [r3]
  75:notoriOS.c    ****     
  76:notoriOS.c    ****     //configure server endpoints -- these should obviosuly be provided  remotely by the meta data-b
  77:notoriOS.c    ****     sprintf(system_settings.ep_host,"%s","data.open-storm.org");
 134              		.loc 1 77 0
 135 003e 264A     		ldr	r2, .L3+20
 136 0040 264B     		ldr	r3, .L3+24
 137 0042 1446     		mov	r4, r2
 138 0044 1D46     		mov	r5, r3
ARM GAS  C:\Users\HYFI_A~1\AppData\Local\Temp\ccU4tXr0.s 			page 5


 139 0046 0FCD     		ldmia	r5!, {r0, r1, r2, r3}
 140 0048 0FC4     		stmia	r4!, {r0, r1, r2, r3}
 141 004a 2B68     		ldr	r3, [r5]
 142 004c 2360     		str	r3, [r4]
  78:notoriOS.c    ****     system_settings.ep_port = 8086;
 143              		.loc 1 78 0
 144 004e 244B     		ldr	r3, .L3+28
 145 0050 41F69672 		movw	r2, #8086
 146 0054 9A67     		str	r2, [r3, #120]
  79:notoriOS.c    ****     sprintf(system_settings.ep_user,"%s","generic_node");
 147              		.loc 1 79 0
 148 0056 234A     		ldr	r2, .L3+32
 149 0058 234B     		ldr	r3, .L3+36
 150 005a 1446     		mov	r4, r2
 151 005c 0FCB     		ldmia	r3, {r0, r1, r2, r3}
 152 005e 07C4     		stmia	r4!, {r0, r1, r2}
 153 0060 2370     		strb	r3, [r4]
  80:notoriOS.c    ****     sprintf(system_settings.ep_pswd,"%s","MakeFloodsCurrents");
 154              		.loc 1 80 0
 155 0062 224A     		ldr	r2, .L3+40
 156 0064 224B     		ldr	r3, .L3+44
 157 0066 1546     		mov	r5, r2
 158 0068 1C46     		mov	r4, r3
 159 006a 0FCC     		ldmia	r4!, {r0, r1, r2, r3}
 160 006c 2860     		str	r0, [r5]	@ unaligned
 161 006e 6960     		str	r1, [r5, #4]	@ unaligned
 162 0070 AA60     		str	r2, [r5, #8]	@ unaligned
 163 0072 EB60     		str	r3, [r5, #12]	@ unaligned
 164 0074 2388     		ldrh	r3, [r4]	@ unaligned
 165 0076 A278     		ldrb	r2, [r4, #2]
 166 0078 2B82     		strh	r3, [r5, #16]	@ unaligned
 167 007a 1346     		mov	r3, r2
 168 007c AB74     		strb	r3, [r5, #18]
  81:notoriOS.c    ****     sprintf(system_settings.ep_database,"%s","ARB");
 169              		.loc 1 81 0
 170 007e 1D4B     		ldr	r3, .L3+48
 171 0080 1D4A     		ldr	r2, .L3+52
 172 0082 1068     		ldr	r0, [r2]	@ unaligned
 173 0084 1860     		str	r0, [r3]	@ unaligned
  82:notoriOS.c    ****     sprintf(system_settings.node_id,"%s","GGB000");
 174              		.loc 1 82 0
 175 0086 164B     		ldr	r3, .L3+28
 176 0088 1C4A     		ldr	r2, .L3+56
 177 008a 92E80300 		ldmia	r2, {r0, r1}
 178 008e 1860     		str	r0, [r3]
 179 0090 0433     		adds	r3, r3, #4
 180 0092 1980     		strh	r1, [r3]	@ movhi
 181 0094 0233     		adds	r3, r3, #2
 182 0096 0A0C     		lsrs	r2, r1, #16
 183 0098 1A70     		strb	r2, [r3]
  83:notoriOS.c    ****         
  84:notoriOS.c    ****     
  85:notoriOS.c    ****     
  86:notoriOS.c    ****     alarmMeasure = CreateAlarm(120u,ALARM_TYPE_SECOND,ALARM_TYPE_CONTINUOUS);
 184              		.loc 1 86 0
 185 009a 194C     		ldr	r4, .L3+60
 186 009c 3846     		mov	r0, r7
ARM GAS  C:\Users\HYFI_A~1\AppData\Local\Temp\ccU4tXr0.s 			page 6


 187 009e 0723     		movs	r3, #7
 188 00a0 0022     		movs	r2, #0
 189 00a2 7821     		movs	r1, #120
 190 00a4 FFF7FEFF 		bl	CreateAlarm
 191 00a8 2246     		mov	r2, r4
 192 00aa 3B46     		mov	r3, r7
 193 00ac 1968     		ldr	r1, [r3]	@ unaligned
 194 00ae 1160     		str	r1, [r2]	@ unaligned
 195 00b0 9B88     		ldrh	r3, [r3, #4]	@ unaligned
 196 00b2 9380     		strh	r3, [r2, #4]	@ unaligned
  87:notoriOS.c    ****     timeToMeasure = 1;
 197              		.loc 1 87 0
 198 00b4 134B     		ldr	r3, .L3+64
 199 00b6 0122     		movs	r2, #1
 200 00b8 1A70     		strb	r2, [r3]
  88:notoriOS.c    ****     //alarmMeasure2 = CreateAlarm(10,ALARM_TYPE_SECOND,ALARM_TYPE_CONTINUOUS);
  89:notoriOS.c    ****     //timeToMeasure = 0;
  90:notoriOS.c    ****     
  91:notoriOS.c    ****     
  92:notoriOS.c    **** }
 201              		.loc 1 92 0
 202 00ba 00BF     		nop
 203 00bc 1037     		adds	r7, r7, #16
 204              		.cfi_def_cfa_offset 16
 205 00be BD46     		mov	sp, r7
 206              		.cfi_def_cfa_register 13
 207              		@ sp needed
 208 00c0 B0BD     		pop	{r4, r5, r7, pc}
 209              	.L4:
 210 00c2 00BF     		.align	2
 211              	.L3:
 212 00c4 00000000 		.word	Wakeup_ISR
 213 00c8 00000000 		.word	.LC0
 214 00cc 04000000 		.word	system_info+4
 215 00d0 00000000 		.word	system_info
 216 00d4 00000000 		.word	modem_info
 217 00d8 14000000 		.word	system_settings+20
 218 00dc 08000000 		.word	.LC1
 219 00e0 00000000 		.word	system_settings
 220 00e4 7C000000 		.word	system_settings+124
 221 00e8 1C000000 		.word	.LC2
 222 00ec AE000000 		.word	system_settings+174
 223 00f0 2C000000 		.word	.LC3
 224 00f4 12010000 		.word	system_settings+274
 225 00f8 40000000 		.word	.LC4
 226 00fc 44000000 		.word	.LC5
 227 0100 00000000 		.word	alarmMeasure
 228 0104 00000000 		.word	timeToMeasure
 229              		.cfi_endproc
 230              	.LFE65:
 231              		.size	ReadyOrNot, .-ReadyOrNot
 232              		.section	.text.WorkWorkWorkWorkWorkWork,"ax",%progbits
 233              		.align	2
 234              		.global	WorkWorkWorkWorkWorkWork
 235              		.thumb
 236              		.thumb_func
 237              		.type	WorkWorkWorkWorkWorkWork, %function
ARM GAS  C:\Users\HYFI_A~1\AppData\Local\Temp\ccU4tXr0.s 			page 7


 238              	WorkWorkWorkWorkWorkWork:
 239              	.LFB66:
  93:notoriOS.c    **** 
  94:notoriOS.c    **** 
  95:notoriOS.c    **** // ==============================================
  96:notoriOS.c    **** // You see me I be work, work, work, work, work, work 
  97:notoriOS.c    **** //      - Rhiana, feat Drake (2016)
  98:notoriOS.c    **** //
  99:notoriOS.c    **** // Prorcesses core tasks
 100:notoriOS.c    **** // ==============================================
 101:notoriOS.c    **** int WorkWorkWorkWorkWorkWork()
 102:notoriOS.c    **** {
 240              		.loc 1 102 0
 241              		.cfi_startproc
 242              		@ args = 0, pretend = 0, frame = 8
 243              		@ frame_needed = 1, uses_anonymous_args = 0
 244 0000 80B5     		push	{r7, lr}
 245              		.cfi_def_cfa_offset 8
 246              		.cfi_offset 7, -8
 247              		.cfi_offset 14, -4
 248 0002 82B0     		sub	sp, sp, #8
 249              		.cfi_def_cfa_offset 16
 250 0004 00AF     		add	r7, sp, #0
 251              		.cfi_def_cfa_register 7
 103:notoriOS.c    ****     
 104:notoriOS.c    ****     if(timeToMeasure){
 252              		.loc 1 104 0
 253 0006 094B     		ldr	r3, .L8
 254 0008 1B78     		ldrb	r3, [r3]	@ zero_extendqisi2
 255 000a 002B     		cmp	r3, #0
 256 000c 05D0     		beq	.L6
 105:notoriOS.c    ****         timeToMeasure = syncData();//will return 0 when done sending data
 257              		.loc 1 105 0
 258 000e FFF7FEFF 		bl	syncData
 259 0012 0346     		mov	r3, r0
 260 0014 1A46     		mov	r2, r3
 261 0016 054B     		ldr	r3, .L8
 262 0018 1A70     		strb	r2, [r3]
 263              	.L6:
 106:notoriOS.c    ****     }
 107:notoriOS.c    ****     //if(timeToMeasure2){
 108:notoriOS.c    ****         //dosomething
 109:notoriOS.c    ****     //}
 110:notoriOS.c    ****     
 111:notoriOS.c    ****     //check modem state machine 
 112:notoriOS.c    ****     uint8 modem_status = modem_process_tasks();
 264              		.loc 1 112 0
 265 001a FFF7FEFF 		bl	modem_process_tasks
 266 001e 0346     		mov	r3, r0
 267 0020 FB71     		strb	r3, [r7, #7]
 113:notoriOS.c    ****     
 114:notoriOS.c    ****    
 115:notoriOS.c    ****     return 0u +  modem_status;  
 268              		.loc 1 115 0
 269 0022 FB79     		ldrb	r3, [r7, #7]	@ zero_extendqisi2
 116:notoriOS.c    **** }
 270              		.loc 1 116 0
ARM GAS  C:\Users\HYFI_A~1\AppData\Local\Temp\ccU4tXr0.s 			page 8


 271 0024 1846     		mov	r0, r3
 272 0026 0837     		adds	r7, r7, #8
 273              		.cfi_def_cfa_offset 8
 274 0028 BD46     		mov	sp, r7
 275              		.cfi_def_cfa_register 13
 276              		@ sp needed
 277 002a 80BD     		pop	{r7, pc}
 278              	.L9:
 279              		.align	2
 280              	.L8:
 281 002c 00000000 		.word	timeToMeasure
 282              		.cfi_endproc
 283              	.LFE66:
 284              		.size	WorkWorkWorkWorkWorkWork, .-WorkWorkWorkWorkWorkWork
 285              		.section	.text.LayBack,"ax",%progbits
 286              		.align	2
 287              		.global	LayBack
 288              		.thumb
 289              		.thumb_func
 290              		.type	LayBack, %function
 291              	LayBack:
 292              	.LFB67:
 117:notoriOS.c    **** 
 118:notoriOS.c    **** 
 119:notoriOS.c    **** 
 120:notoriOS.c    **** 
 121:notoriOS.c    **** 
 122:notoriOS.c    **** 
 123:notoriOS.c    **** // ==============================================
 124:notoriOS.c    **** // sippin on gin and juice, Laid back (with my mind on my money and my money on my mind)
 125:notoriOS.c    **** //      - Snoop Dogg (1993)
 126:notoriOS.c    **** //
 127:notoriOS.c    **** // Put all hardware to sleep and go into low power mode to conserve Amps
 128:notoriOS.c    **** // ==============================================
 129:notoriOS.c    **** void LayBack()
 130:notoriOS.c    **** {
 293              		.loc 1 130 0
 294              		.cfi_startproc
 295              		@ args = 0, pretend = 0, frame = 0
 296              		@ frame_needed = 1, uses_anonymous_args = 0
 297 0000 80B5     		push	{r7, lr}
 298              		.cfi_def_cfa_offset 8
 299              		.cfi_offset 7, -8
 300              		.cfi_offset 14, -4
 301 0002 00AF     		add	r7, sp, #0
 302              		.cfi_def_cfa_register 7
 131:notoriOS.c    ****     
 132:notoriOS.c    ****     debug_sleep();
 303              		.loc 1 132 0
 304 0004 FFF7FEFF 		bl	debug_sleep
 133:notoriOS.c    ****     modem_sleep();
 305              		.loc 1 133 0
 306 0008 FFF7FEFF 		bl	modem_sleep
 134:notoriOS.c    ****     // Prepares system clocks for the Sleep mode
 135:notoriOS.c    ****     CyPmSaveClocks();
 307              		.loc 1 135 0
 308 000c FFF7FEFF 		bl	CyPmSaveClocks
ARM GAS  C:\Users\HYFI_A~1\AppData\Local\Temp\ccU4tXr0.s 			page 9


 136:notoriOS.c    ****     
 137:notoriOS.c    ****     // Switch to the Sleep Mode for the other devices:
 138:notoriOS.c    ****     //  - PM_SLEEP_TIME_NONE: wakeup time is defined by Sleep Timer
 139:notoriOS.c    ****     //  - PM_SLEEP_SRC_CTW :  wakeup on CTW sources is allowed
 140:notoriOS.c    ****      //  - If real-time clock is used, it will also wake the device
 141:notoriOS.c    ****     //can also wake up from a pin intterup (PICU). This is useful with the moderm UART
 142:notoriOS.c    ****     //CyPmHibernate();
 143:notoriOS.c    ****     //CyPmSleep(PM_SLEEP_TIME_NONE, PM_SLEEP_SRC_CTW & PM_SLEEP_SRC_PICU);
 144:notoriOS.c    ****     CyPmSleep(PM_SLEEP_TIME_NONE, PM_SLEEP_SRC_CTW);
 309              		.loc 1 144 0
 310 0010 4FF40061 		mov	r1, #2048
 311 0014 0020     		movs	r0, #0
 312 0016 FFF7FEFF 		bl	CyPmSleep
 145:notoriOS.c    ****   
 146:notoriOS.c    ****     // Restore clock configuration
 147:notoriOS.c    ****     CyPmRestoreClocks();
 313              		.loc 1 147 0
 314 001a FFF7FEFF 		bl	CyPmRestoreClocks
 148:notoriOS.c    ****     debug_wakeup();
 315              		.loc 1 148 0
 316 001e FFF7FEFF 		bl	debug_wakeup
 149:notoriOS.c    ****     modem_wakeup();
 317              		.loc 1 149 0
 318 0022 FFF7FEFF 		bl	modem_wakeup
 150:notoriOS.c    ****     
 151:notoriOS.c    **** }
 319              		.loc 1 151 0
 320 0026 00BF     		nop
 321 0028 80BD     		pop	{r7, pc}
 322              		.cfi_endproc
 323              	.LFE67:
 324              		.size	LayBack, .-LayBack
 325 002a 00BF     		.section	.text.AyoItsTime,"ax",%progbits
 326              		.align	2
 327              		.global	AyoItsTime
 328              		.thumb
 329              		.thumb_func
 330              		.type	AyoItsTime, %function
 331              	AyoItsTime:
 332              	.LFB68:
 152:notoriOS.c    **** 
 153:notoriOS.c    **** 
 154:notoriOS.c    **** // ==============================================
 155:notoriOS.c    **** // I never sleep, 'cause sleep is the cousin of death
 156:notoriOS.c    **** //      - NAS (1994)
 157:notoriOS.c    **** //
 158:notoriOS.c    **** // This is the scheduler. It's called from various interrupts and timers,
 159:notoriOS.c    **** // ...in particular from fuctions with in the real-tiem clock interrupts (RTC_INT.c)
 160:notoriOS.c    **** // It will add tasks to the work queue,
 161:notoriOS.c    **** // which will be executed eventually by WorkWorkWorkWorkWorkWork()
 162:notoriOS.c    **** // ==============================================
 163:notoriOS.c    **** void AyoItsTime(uint8 alarmType)
 164:notoriOS.c    **** {
 333              		.loc 1 164 0
 334              		.cfi_startproc
 335              		@ args = 0, pretend = 0, frame = 8
 336              		@ frame_needed = 1, uses_anonymous_args = 0
ARM GAS  C:\Users\HYFI_A~1\AppData\Local\Temp\ccU4tXr0.s 			page 10


 337 0000 80B5     		push	{r7, lr}
 338              		.cfi_def_cfa_offset 8
 339              		.cfi_offset 7, -8
 340              		.cfi_offset 14, -4
 341 0002 82B0     		sub	sp, sp, #8
 342              		.cfi_def_cfa_offset 16
 343 0004 00AF     		add	r7, sp, #0
 344              		.cfi_def_cfa_register 7
 345 0006 0346     		mov	r3, r0
 346 0008 FB71     		strb	r3, [r7, #7]
 165:notoriOS.c    **** 
 166:notoriOS.c    ****     if(AlarmReady(&alarmMeasure,alarmType))
 347              		.loc 1 166 0
 348 000a FB79     		ldrb	r3, [r7, #7]	@ zero_extendqisi2
 349 000c 1946     		mov	r1, r3
 350 000e 0C48     		ldr	r0, .L15
 351 0010 FFF7FEFF 		bl	AlarmReady
 352 0014 0346     		mov	r3, r0
 353 0016 002B     		cmp	r3, #0
 354 0018 02D0     		beq	.L12
 167:notoriOS.c    ****     {
 168:notoriOS.c    ****          //create new task and pass off to workworkworkworkwork()
 169:notoriOS.c    ****         //pass off to work work
 170:notoriOS.c    ****         timeToMeasure = 1u;
 355              		.loc 1 170 0
 356 001a 0A4B     		ldr	r3, .L15+4
 357 001c 0122     		movs	r2, #1
 358 001e 1A70     		strb	r2, [r3]
 359              	.L12:
 171:notoriOS.c    ****     }
 172:notoriOS.c    ****     if(AlarmReady(&alarmMeasure2,alarmType))
 360              		.loc 1 172 0
 361 0020 FB79     		ldrb	r3, [r7, #7]	@ zero_extendqisi2
 362 0022 1946     		mov	r1, r3
 363 0024 0848     		ldr	r0, .L15+8
 364 0026 FFF7FEFF 		bl	AlarmReady
 365 002a 0346     		mov	r3, r0
 366 002c 002B     		cmp	r3, #0
 367 002e 02D0     		beq	.L14
 173:notoriOS.c    ****     {
 174:notoriOS.c    ****          //create new task and pass off to workworkworkworkwork()
 175:notoriOS.c    ****         //pass off to work work
 176:notoriOS.c    ****         timeToMeasure2 = 1u;
 368              		.loc 1 176 0
 369 0030 064B     		ldr	r3, .L15+12
 370 0032 0122     		movs	r2, #1
 371 0034 1A70     		strb	r2, [r3]
 372              	.L14:
 177:notoriOS.c    ****     }
 178:notoriOS.c    ****     
 179:notoriOS.c    **** }
 373              		.loc 1 179 0
 374 0036 00BF     		nop
 375 0038 0837     		adds	r7, r7, #8
 376              		.cfi_def_cfa_offset 8
 377 003a BD46     		mov	sp, r7
 378              		.cfi_def_cfa_register 13
ARM GAS  C:\Users\HYFI_A~1\AppData\Local\Temp\ccU4tXr0.s 			page 11


 379              		@ sp needed
 380 003c 80BD     		pop	{r7, pc}
 381              	.L16:
 382 003e 00BF     		.align	2
 383              	.L15:
 384 0040 00000000 		.word	alarmMeasure
 385 0044 00000000 		.word	timeToMeasure
 386 0048 00000000 		.word	alarmMeasure2
 387 004c 00000000 		.word	timeToMeasure2
 388              		.cfi_endproc
 389              	.LFE68:
 390              		.size	AyoItsTime, .-AyoItsTime
 391              		.section	.text.AlarmReady,"ax",%progbits
 392              		.align	2
 393              		.global	AlarmReady
 394              		.thumb
 395              		.thumb_func
 396              		.type	AlarmReady, %function
 397              	AlarmReady:
 398              	.LFB69:
 180:notoriOS.c    ****         
 181:notoriOS.c    **** uint8 AlarmReady(alarm * alarmToBeUpdated, uint8 alarmType)
 182:notoriOS.c    **** {
 399              		.loc 1 182 0
 400              		.cfi_startproc
 401              		@ args = 0, pretend = 0, frame = 8
 402              		@ frame_needed = 1, uses_anonymous_args = 0
 403 0000 80B5     		push	{r7, lr}
 404              		.cfi_def_cfa_offset 8
 405              		.cfi_offset 7, -8
 406              		.cfi_offset 14, -4
 407 0002 82B0     		sub	sp, sp, #8
 408              		.cfi_def_cfa_offset 16
 409 0004 00AF     		add	r7, sp, #0
 410              		.cfi_def_cfa_register 7
 411 0006 7860     		str	r0, [r7, #4]
 412 0008 0B46     		mov	r3, r1
 413 000a FB70     		strb	r3, [r7, #3]
 183:notoriOS.c    ****     alarmToBeUpdated->currentCountDownValue--;
 414              		.loc 1 183 0
 415 000c 7B68     		ldr	r3, [r7, #4]
 416 000e 5B88     		ldrh	r3, [r3, #2]	@ movhi
 417 0010 9BB2     		uxth	r3, r3
 418 0012 013B     		subs	r3, r3, #1
 419 0014 9AB2     		uxth	r2, r3
 420 0016 7B68     		ldr	r3, [r7, #4]
 421 0018 5A80     		strh	r2, [r3, #2]	@ movhi
 184:notoriOS.c    ****     if(alarmToBeUpdated->currentCountDownValue == 0){
 422              		.loc 1 184 0
 423 001a 7B68     		ldr	r3, [r7, #4]
 424 001c 5B88     		ldrh	r3, [r3, #2]	@ movhi
 425 001e 9BB2     		uxth	r3, r3
 426 0020 002B     		cmp	r3, #0
 427 0022 04D1     		bne	.L18
 185:notoriOS.c    ****         ResetAlarm(alarmToBeUpdated);
 428              		.loc 1 185 0
 429 0024 7868     		ldr	r0, [r7, #4]
ARM GAS  C:\Users\HYFI_A~1\AppData\Local\Temp\ccU4tXr0.s 			page 12


 430 0026 FFF7FEFF 		bl	ResetAlarm
 186:notoriOS.c    ****         return 1u;
 431              		.loc 1 186 0
 432 002a 0123     		movs	r3, #1
 433 002c 09E0     		b	.L19
 434              	.L18:
 187:notoriOS.c    ****     } 
 188:notoriOS.c    ****     else if(alarmToBeUpdated->countDownResetCondition == alarmType){
 435              		.loc 1 188 0
 436 002e 7B68     		ldr	r3, [r7, #4]
 437 0030 5B79     		ldrb	r3, [r3, #5]
 438 0032 DBB2     		uxtb	r3, r3
 439 0034 FA78     		ldrb	r2, [r7, #3]	@ zero_extendqisi2
 440 0036 9A42     		cmp	r2, r3
 441 0038 02D1     		bne	.L20
 189:notoriOS.c    ****         ResetAlarm(alarmToBeUpdated);
 442              		.loc 1 189 0
 443 003a 7868     		ldr	r0, [r7, #4]
 444 003c FFF7FEFF 		bl	ResetAlarm
 445              	.L20:
 190:notoriOS.c    ****     }
 191:notoriOS.c    ****     
 192:notoriOS.c    ****     return 0u;
 446              		.loc 1 192 0
 447 0040 0023     		movs	r3, #0
 448              	.L19:
 193:notoriOS.c    **** }
 449              		.loc 1 193 0
 450 0042 1846     		mov	r0, r3
 451 0044 0837     		adds	r7, r7, #8
 452              		.cfi_def_cfa_offset 8
 453 0046 BD46     		mov	sp, r7
 454              		.cfi_def_cfa_register 13
 455              		@ sp needed
 456 0048 80BD     		pop	{r7, pc}
 457              		.cfi_endproc
 458              	.LFE69:
 459              		.size	AlarmReady, .-AlarmReady
 460 004a 00BF     		.section	.text.ResetAlarm,"ax",%progbits
 461              		.align	2
 462              		.global	ResetAlarm
 463              		.thumb
 464              		.thumb_func
 465              		.type	ResetAlarm, %function
 466              	ResetAlarm:
 467              	.LFB70:
 194:notoriOS.c    **** 
 195:notoriOS.c    **** void ResetAlarm(alarm * alarmToBeReset)
 196:notoriOS.c    **** {
 468              		.loc 1 196 0
 469              		.cfi_startproc
 470              		@ args = 0, pretend = 0, frame = 8
 471              		@ frame_needed = 1, uses_anonymous_args = 0
 472              		@ link register save eliminated.
 473 0000 80B4     		push	{r7}
 474              		.cfi_def_cfa_offset 4
 475              		.cfi_offset 7, -4
ARM GAS  C:\Users\HYFI_A~1\AppData\Local\Temp\ccU4tXr0.s 			page 13


 476 0002 83B0     		sub	sp, sp, #12
 477              		.cfi_def_cfa_offset 16
 478 0004 00AF     		add	r7, sp, #0
 479              		.cfi_def_cfa_register 7
 480 0006 7860     		str	r0, [r7, #4]
 197:notoriOS.c    ****     alarmToBeReset->currentCountDownValue = alarmToBeReset->countDownValue;
 481              		.loc 1 197 0
 482 0008 7B68     		ldr	r3, [r7, #4]
 483 000a 1B88     		ldrh	r3, [r3]	@ movhi
 484 000c 9AB2     		uxth	r2, r3
 485 000e 7B68     		ldr	r3, [r7, #4]
 486 0010 5A80     		strh	r2, [r3, #2]	@ movhi
 198:notoriOS.c    **** }
 487              		.loc 1 198 0
 488 0012 00BF     		nop
 489 0014 0C37     		adds	r7, r7, #12
 490              		.cfi_def_cfa_offset 4
 491 0016 BD46     		mov	sp, r7
 492              		.cfi_def_cfa_register 13
 493              		@ sp needed
 494 0018 80BC     		pop	{r7}
 495              		.cfi_restore 7
 496              		.cfi_def_cfa_offset 0
 497 001a 7047     		bx	lr
 498              		.cfi_endproc
 499              	.LFE70:
 500              		.size	ResetAlarm, .-ResetAlarm
 501              		.section	.text.CreateAlarm,"ax",%progbits
 502              		.align	2
 503              		.global	CreateAlarm
 504              		.thumb
 505              		.thumb_func
 506              		.type	CreateAlarm, %function
 507              	CreateAlarm:
 508              	.LFB71:
 199:notoriOS.c    **** 
 200:notoriOS.c    **** // ==============================================
 201:notoriOS.c    **** // Creates a new alarm, which will be handeled by another cutions
 202:notoriOS.c    **** // ==============================================
 203:notoriOS.c    **** 
 204:notoriOS.c    **** alarm CreateAlarm(uint16 countDownValue, uint8 countDownType,uint8 countDownResetCondition)
 205:notoriOS.c    **** {
 509              		.loc 1 205 0
 510              		.cfi_startproc
 511              		@ args = 0, pretend = 0, frame = 16
 512              		@ frame_needed = 1, uses_anonymous_args = 0
 513              		@ link register save eliminated.
 514 0000 80B4     		push	{r7}
 515              		.cfi_def_cfa_offset 4
 516              		.cfi_offset 7, -4
 517 0002 85B0     		sub	sp, sp, #20
 518              		.cfi_def_cfa_offset 24
 519 0004 00AF     		add	r7, sp, #0
 520              		.cfi_def_cfa_register 7
 521 0006 7860     		str	r0, [r7, #4]
 522 0008 0846     		mov	r0, r1
 523 000a 1146     		mov	r1, r2
ARM GAS  C:\Users\HYFI_A~1\AppData\Local\Temp\ccU4tXr0.s 			page 14


 524 000c 1A46     		mov	r2, r3
 525 000e 0346     		mov	r3, r0	@ movhi
 526 0010 7B80     		strh	r3, [r7, #2]	@ movhi
 527 0012 0B46     		mov	r3, r1
 528 0014 7B70     		strb	r3, [r7, #1]
 529 0016 1346     		mov	r3, r2
 530 0018 3B70     		strb	r3, [r7]
 206:notoriOS.c    ****     alarm newAlarm;
 207:notoriOS.c    ****     
 208:notoriOS.c    ****     newAlarm.countDownValue = countDownValue;
 531              		.loc 1 208 0
 532 001a 7B88     		ldrh	r3, [r7, #2]	@ movhi
 533 001c 3B81     		strh	r3, [r7, #8]	@ movhi
 209:notoriOS.c    ****     newAlarm.countDownType = countDownType;
 534              		.loc 1 209 0
 535 001e 7B78     		ldrb	r3, [r7, #1]
 536 0020 3B73     		strb	r3, [r7, #12]
 210:notoriOS.c    ****     newAlarm.countDownResetCondition = countDownResetCondition;
 537              		.loc 1 210 0
 538 0022 3B78     		ldrb	r3, [r7]
 539 0024 7B73     		strb	r3, [r7, #13]
 211:notoriOS.c    ****     
 212:notoriOS.c    ****     //if you want a reccuring alarm (e.g. resets freshly each hour), then add
 213:notoriOS.c    ****     //account for already exprired time using the RTC. Otherwise, set to the countDownValue
 214:notoriOS.c    ****     newAlarm.currentCountDownValue = countDownValue;
 540              		.loc 1 214 0
 541 0026 7B88     		ldrh	r3, [r7, #2]	@ movhi
 542 0028 7B81     		strh	r3, [r7, #10]	@ movhi
 215:notoriOS.c    ****     
 216:notoriOS.c    ****     return newAlarm;
 543              		.loc 1 216 0
 544 002a 7B68     		ldr	r3, [r7, #4]
 545 002c 1A46     		mov	r2, r3
 546 002e 07F10803 		add	r3, r7, #8
 547 0032 1868     		ldr	r0, [r3]	@ unaligned
 548 0034 1060     		str	r0, [r2]	@ unaligned
 549 0036 9B88     		ldrh	r3, [r3, #4]	@ unaligned
 550 0038 9380     		strh	r3, [r2, #4]	@ unaligned
 217:notoriOS.c    ****     
 218:notoriOS.c    **** }
 551              		.loc 1 218 0
 552 003a 7868     		ldr	r0, [r7, #4]
 553 003c 1437     		adds	r7, r7, #20
 554              		.cfi_def_cfa_offset 4
 555 003e BD46     		mov	sp, r7
 556              		.cfi_def_cfa_register 13
 557              		@ sp needed
 558 0040 80BC     		pop	{r7}
 559              		.cfi_restore 7
 560              		.cfi_def_cfa_offset 0
 561 0042 7047     		bx	lr
 562              		.cfi_endproc
 563              	.LFE71:
 564              		.size	CreateAlarm, .-CreateAlarm
 565              		.section	.text.ChickityCheckYourselfBeforeYouWreckYourself,"ax",%progbits
 566              		.align	2
 567              		.global	ChickityCheckYourselfBeforeYouWreckYourself
ARM GAS  C:\Users\HYFI_A~1\AppData\Local\Temp\ccU4tXr0.s 			page 15


 568              		.thumb
 569              		.thumb_func
 570              		.type	ChickityCheckYourselfBeforeYouWreckYourself, %function
 571              	ChickityCheckYourselfBeforeYouWreckYourself:
 572              	.LFB72:
 219:notoriOS.c    **** 
 220:notoriOS.c    **** // ==============================================
 221:notoriOS.c    **** // Dropping bombs on your moms
 222:notoriOS.c    **** //      - Ice Cube (1992)
 223:notoriOS.c    **** //
 224:notoriOS.c    **** // This is the global testing function, which runs all relevant tests
 225:notoriOS.c    **** // If you make a new components, it could be good to call its tester function here 
 226:notoriOS.c    **** // ==============================================
 227:notoriOS.c    **** void ChickityCheckYourselfBeforeYouWreckYourself(){
 573              		.loc 1 227 0
 574              		.cfi_startproc
 575              		@ args = 0, pretend = 0, frame = 1560
 576              		@ frame_needed = 1, uses_anonymous_args = 0
 577 0000 90B5     		push	{r4, r7, lr}
 578              		.cfi_def_cfa_offset 12
 579              		.cfi_offset 4, -12
 580              		.cfi_offset 7, -8
 581              		.cfi_offset 14, -4
 582 0002 ADF2947D 		subw	sp, sp, #1940
 583              		.cfi_def_cfa_offset 1952
 584 0006 5EAF     		add	r7, sp, #376
 585              		.cfi_def_cfa 7, 1576
 228:notoriOS.c    **** 
 229:notoriOS.c    ****    syncData();
 586              		.loc 1 229 0
 587 0008 FFF7FEFF 		bl	syncData
 230:notoriOS.c    ****     
 231:notoriOS.c    ****     // test_t t_modem = modem_test();
 232:notoriOS.c    ****     test_t t_influx = influx_test();
 588              		.loc 1 232 0
 589 000c 07F59263 		add	r3, r7, #1168
 590 0010 1846     		mov	r0, r3
 591 0012 FFF7FEFF 		bl	influx_test
 233:notoriOS.c    ****     printTestStatus(t_influx);
 592              		.loc 1 233 0
 593 0016 07F59264 		add	r4, r7, #1168
 594 001a 6846     		mov	r0, sp
 595 001c 04F11003 		add	r3, r4, #16
 596 0020 40F27112 		movw	r2, #369
 597 0024 1946     		mov	r1, r3
 598 0026 FFF7FEFF 		bl	memcpy
 599 002a 94E80F00 		ldmia	r4, {r0, r1, r2, r3}
 600 002e FFF7FEFF 		bl	printTestStatus
 234:notoriOS.c    ****     test_t t_level_sensor = level_sensor_test();//test level sensor  
 601              		.loc 1 234 0
 602 0032 07F54373 		add	r3, r7, #780
 603 0036 1846     		mov	r0, r3
 604 0038 FFF7FEFF 		bl	level_sensor_test
 235:notoriOS.c    ****     printTestStatus(t_level_sensor);
 605              		.loc 1 235 0
 606 003c 07F54374 		add	r4, r7, #780
 607 0040 6846     		mov	r0, sp
ARM GAS  C:\Users\HYFI_A~1\AppData\Local\Temp\ccU4tXr0.s 			page 16


 608 0042 04F11003 		add	r3, r4, #16
 609 0046 40F27112 		movw	r2, #369
 610 004a 1946     		mov	r1, r3
 611 004c FFF7FEFF 		bl	memcpy
 612 0050 94E80F00 		ldmia	r4, {r0, r1, r2, r3}
 613 0054 FFF7FEFF 		bl	printTestStatus
 236:notoriOS.c    ****     test_t t_sd_card = SD_card_test();
 614              		.loc 1 236 0
 615 0058 07F5C473 		add	r3, r7, #392
 616 005c 1846     		mov	r0, r3
 617 005e FFF7FEFF 		bl	SD_card_test
 237:notoriOS.c    ****     printTestStatus(t_sd_card);
 618              		.loc 1 237 0
 619 0062 07F5C474 		add	r4, r7, #392
 620 0066 6846     		mov	r0, sp
 621 0068 04F11003 		add	r3, r4, #16
 622 006c 40F27112 		movw	r2, #369
 623 0070 1946     		mov	r1, r3
 624 0072 FFF7FEFF 		bl	memcpy
 625 0076 94E80F00 		ldmia	r4, {r0, r1, r2, r3}
 626 007a FFF7FEFF 		bl	printTestStatus
 238:notoriOS.c    ****     test_t t_voltages = voltages_test();
 627              		.loc 1 238 0
 628 007e 3B1D     		adds	r3, r7, #4
 629 0080 1846     		mov	r0, r3
 630 0082 FFF7FEFF 		bl	voltages_test
 239:notoriOS.c    ****     printTestStatus(t_voltages);
 631              		.loc 1 239 0
 632 0086 3C1D     		adds	r4, r7, #4
 633 0088 6846     		mov	r0, sp
 634 008a 04F11003 		add	r3, r4, #16
 635 008e 40F27112 		movw	r2, #369
 636 0092 1946     		mov	r1, r3
 637 0094 FFF7FEFF 		bl	memcpy
 638 0098 94E80F00 		ldmia	r4, {r0, r1, r2, r3}
 639 009c FFF7FEFF 		bl	printTestStatus
 240:notoriOS.c    ****   
 241:notoriOS.c    ****     int c = 0;
 640              		.loc 1 241 0
 641 00a0 0023     		movs	r3, #0
 642 00a2 C7F81436 		str	r3, [r7, #1556]
 242:notoriOS.c    ****     c++;
 643              		.loc 1 242 0
 644 00a6 D7F81436 		ldr	r3, [r7, #1556]
 645 00aa 0133     		adds	r3, r3, #1
 646 00ac C7F81436 		str	r3, [r7, #1556]
 243:notoriOS.c    ****     //test modem
 244:notoriOS.c    ****     //test SD card
 245:notoriOS.c    ****     //analog: test battery voltage, solar voltage, and solar current
 246:notoriOS.c    ****       
 247:notoriOS.c    ****   
 248:notoriOS.c    **** }
 647              		.loc 1 248 0
 648 00b0 00BF     		nop
 649 00b2 07F21C67 		addw	r7, r7, #1564
 650              		.cfi_def_cfa_offset 12
 651 00b6 BD46     		mov	sp, r7
ARM GAS  C:\Users\HYFI_A~1\AppData\Local\Temp\ccU4tXr0.s 			page 17


 652              		.cfi_def_cfa_register 13
 653              		@ sp needed
 654 00b8 90BD     		pop	{r4, r7, pc}
 655              		.cfi_endproc
 656              	.LFE72:
 657              		.size	ChickityCheckYourselfBeforeYouWreckYourself, .-ChickityCheckYourselfBeforeYouWreckYourself
 658 00ba 00BF     		.section	.text.main,"ax",%progbits
 659              		.align	2
 660              		.global	main
 661              		.thumb
 662              		.thumb_func
 663              		.type	main, %function
 664              	main:
 665              	.LFB73:
 249:notoriOS.c    **** 
 250:notoriOS.c    **** 
 251:notoriOS.c    **** int main(void)
 252:notoriOS.c    **** {
 666              		.loc 1 252 0
 667              		.cfi_startproc
 668              		@ args = 0, pretend = 0, frame = 0
 669              		@ frame_needed = 1, uses_anonymous_args = 0
 670 0000 80B5     		push	{r7, lr}
 671              		.cfi_def_cfa_offset 8
 672              		.cfi_offset 7, -8
 673              		.cfi_offset 14, -4
 674 0002 00AF     		add	r7, sp, #0
 675              		.cfi_def_cfa_register 7
 253:notoriOS.c    ****     CyGlobalIntEnable; /* Enable global interrupts. */
 676              		.loc 1 253 0
 677              		.syntax unified
 678              	@ 253 "notoriOS.c" 1
 679 0004 62B6     		CPSIE   i
 680              	@ 0 "" 2
 254:notoriOS.c    **** 
 255:notoriOS.c    ****     ReadyOrNot();
 681              		.loc 1 255 0
 682              		.thumb
 683              		.syntax unified
 684 0006 FFF7FEFF 		bl	ReadyOrNot
 256:notoriOS.c    ****     
 257:notoriOS.c    ****     //run tests for all components on bootup
 258:notoriOS.c    ****     ChickityCheckYourselfBeforeYouWreckYourself();
 685              		.loc 1 258 0
 686 000a FFF7FEFF 		bl	ChickityCheckYourselfBeforeYouWreckYourself
 687              	.L27:
 259:notoriOS.c    ****    
 260:notoriOS.c    ****     for(;;)
 261:notoriOS.c    ****     {
 262:notoriOS.c    ****        if( ! WorkWorkWorkWorkWorkWork() )
 688              		.loc 1 262 0
 689 000e FFF7FEFF 		bl	WorkWorkWorkWorkWorkWork
 690 0012 0346     		mov	r3, r0
 691 0014 002B     		cmp	r3, #0
 692 0016 FAD1     		bne	.L27
 263:notoriOS.c    ****        {
 264:notoriOS.c    ****             LayBack();
ARM GAS  C:\Users\HYFI_A~1\AppData\Local\Temp\ccU4tXr0.s 			page 18


 693              		.loc 1 264 0
 694 0018 FFF7FEFF 		bl	LayBack
 265:notoriOS.c    ****        }
 266:notoriOS.c    ****     }
 695              		.loc 1 266 0
 696 001c F7E7     		b	.L27
 697              		.cfi_endproc
 698              	.LFE73:
 699              		.size	main, .-main
 700 001e 00BF     		.section	.rodata
 701 004b 00       		.align	2
 702              	.LC6:
 703 004c 4D6F6465 		.ascii	"Modem is ready.\000"
 703      6D206973 
 703      20726561 
 703      64792E00 
 704              		.align	2
 705              	.LC7:
 706 005c 77726974 		.ascii	"write\000"
 706      6500
 707 0062 0000     		.align	2
 708              	.LC8:
 709 0064 32303030 		.ascii	"2000\000"
 709      00
 710 0069 000000   		.align	2
 711              	.LC9:
 712 006c 6D617862 		.ascii	"maxbotix_depth\000"
 712      6F746978 
 712      5F646570 
 712      746800
 713 007b 00       		.align	2
 714              	.LC10:
 715 007c 42656769 		.ascii	"Begin HTTP test.\000"
 715      6E204854 
 715      54502074 
 715      6573742E 
 715      00
 716 008d 000000   		.align	2
 717              	.LC11:
 718 0090 48545450 		.ascii	"HTTP route: %s\000"
 718      20726F75 
 718      74653A20 
 718      257300
 719 009f 00       		.align	2
 720              	.LC12:
 721 00a0 312E3100 		.ascii	"1.1\000"
 722              		.align	2
 723              	.LC13:
 724 00a4 00       		.ascii	"\000"
 725 00a5 000000   		.align	2
 726              	.LC14:
 727 00a8 436C6F73 		.ascii	"Close\000"
 727      6500
 728 00ae 0000     		.align	2
 729              	.LC15:
 730 00b0 504F5354 		.ascii	"POST\000"
 730      00
ARM GAS  C:\Users\HYFI_A~1\AppData\Local\Temp\ccU4tXr0.s 			page 19


 731 00b5 000000   		.align	2
 732              	.LC16:
 733 00b8 46756C6C 		.ascii	"Full HTTP Request: %s\000"
 733      20485454 
 733      50205265 
 733      71756573 
 733      743A2025 
 734              		.section	.text.syncData,"ax",%progbits
 735              		.align	2
 736              		.global	syncData
 737              		.thumb
 738              		.thumb_func
 739              		.type	syncData, %function
 740              	syncData:
 741              	.LFB74:
 267:notoriOS.c    **** }
 268:notoriOS.c    **** 
 269:notoriOS.c    **** 
 270:notoriOS.c    **** 
 271:notoriOS.c    **** uint8 syncData(){
 742              		.loc 1 271 0
 743              		.cfi_startproc
 744              		@ args = 0, pretend = 0, frame = 112
 745              		@ frame_needed = 1, uses_anonymous_args = 0
 746 0000 80B5     		push	{r7, lr}
 747              		.cfi_def_cfa_offset 8
 748              		.cfi_offset 7, -8
 749              		.cfi_offset 14, -4
 750 0002 A2B0     		sub	sp, sp, #136
 751              		.cfi_def_cfa_offset 144
 752 0004 06AF     		add	r7, sp, #24
 753              		.cfi_def_cfa 7, 120
 272:notoriOS.c    ****     
 273:notoriOS.c    ****     /*
 274:notoriOS.c    ****     //at_write_command("AT#SCFG?\r","OK",1000);
 275:notoriOS.c    ****     uint8 check = 0;
 276:notoriOS.c    ****     //"AT#SD=,0,80,\”www.google.com\”,0,0,0\r"
 277:notoriOS.c    ****     check = at_write_command("AT#SD=1,0,8086,\"data.open-storm.org\",0,0,1\r","OK",10000u);
 278:notoriOS.c    ****     check = at_write_command("AT#SSEND=1\r\n",   ">", 1000u);
 279:notoriOS.c    ****     check = at_write_command("POST /write?db=ARB&u=generic_node&p=MakeFloodsCurrents HTTP/1.1\r\nHo
 280:notoriOS.c    ****     */
 281:notoriOS.c    ****     
 282:notoriOS.c    ****     LED_Write(1u);
 754              		.loc 1 282 0
 755 0006 0120     		movs	r0, #1
 756 0008 FFF7FEFF 		bl	LED_Write
 283:notoriOS.c    ****     CyDelay(100u);
 757              		.loc 1 283 0
 758 000c 6420     		movs	r0, #100
 759 000e FFF7FEFF 		bl	CyDelay
 284:notoriOS.c    ****     LED_Write(0u);
 760              		.loc 1 284 0
 761 0012 0020     		movs	r0, #0
 762 0014 FFF7FEFF 		bl	LED_Write
 285:notoriOS.c    ****     
 286:notoriOS.c    ****     //create request body, in this case influx
 287:notoriOS.c    ****     //place body into HTTP request header
ARM GAS  C:\Users\HYFI_A~1\AppData\Local\Temp\ccU4tXr0.s 			page 20


 288:notoriOS.c    ****     //fire up modem and get it out
 289:notoriOS.c    ****        
 290:notoriOS.c    ****      
 291:notoriOS.c    ****      if(modem_get_state() == MODEM_STATE_OFF){
 763              		.loc 1 291 0
 764 0018 FFF7FEFF 		bl	modem_get_state
 765 001c 0346     		mov	r3, r0
 766 001e 002B     		cmp	r3, #0
 767 0020 02D1     		bne	.L29
 292:notoriOS.c    ****             
 293:notoriOS.c    ****             modem_power_up();
 768              		.loc 1 293 0
 769 0022 FFF7FEFF 		bl	modem_power_up
 770 0026 59E0     		b	.L30
 771              	.L29:
 294:notoriOS.c    ****             
 295:notoriOS.c    ****       }else if(modem_get_state() == MODEM_STATE_READY){
 772              		.loc 1 295 0
 773 0028 FFF7FEFF 		bl	modem_get_state
 774 002c 0346     		mov	r3, r0
 775 002e 042B     		cmp	r3, #4
 776 0030 54D1     		bne	.L30
 777              	.LBB2:
 296:notoriOS.c    ****             printNotif(NOTIF_TYPE_EVENT,"Modem is ready.");
 778              		.loc 1 296 0
 779 0032 2D49     		ldr	r1, .L33
 780 0034 0020     		movs	r0, #0
 781 0036 FFF7FEFF 		bl	printNotif
 297:notoriOS.c    ****             
 298:notoriOS.c    ****             
 299:notoriOS.c    ****             http_request[0] = '\0';
 782              		.loc 1 299 0
 783 003a 2C4B     		ldr	r3, .L33+4
 784 003c 0022     		movs	r2, #0
 785 003e 1A70     		strb	r2, [r3]
 300:notoriOS.c    ****             http_body[0] = '\0';
 786              		.loc 1 300 0
 787 0040 2B4B     		ldr	r3, .L33+8
 788 0042 0022     		movs	r2, #0
 789 0044 1A70     		strb	r2, [r3]
 301:notoriOS.c    ****             char *base = "write";
 790              		.loc 1 301 0
 791 0046 2B4B     		ldr	r3, .L33+12
 792 0048 FB66     		str	r3, [r7, #108]
 302:notoriOS.c    ****             char route[100];
 303:notoriOS.c    ****             
 304:notoriOS.c    ****             //push some fake data
 305:notoriOS.c    ****             pushData("maxbotix_depth","2000",12345);
 793              		.loc 1 305 0
 794 004a 43F23902 		movw	r2, #12345
 795 004e 2A49     		ldr	r1, .L33+16
 796 0050 2A48     		ldr	r0, .L33+20
 797 0052 FFF7FEFF 		bl	pushData
 306:notoriOS.c    ****             
 307:notoriOS.c    ****             //construct HTPP request
 308:notoriOS.c    ****             printNotif(NOTIF_TYPE_EVENT,"Begin HTTP test.");
 798              		.loc 1 308 0
ARM GAS  C:\Users\HYFI_A~1\AppData\Local\Temp\ccU4tXr0.s 			page 21


 799 0056 2A49     		ldr	r1, .L33+24
 800 0058 0020     		movs	r0, #0
 801 005a FFF7FEFF 		bl	printNotif
 309:notoriOS.c    ****             
 310:notoriOS.c    ****             construct_influx_route(route,base,system_settings.ep_user,system_settings.ep_pswd,syste
 802              		.loc 1 310 0
 803 005e 3846     		mov	r0, r7
 804 0060 284B     		ldr	r3, .L33+28
 805 0062 0093     		str	r3, [sp]
 806 0064 284B     		ldr	r3, .L33+32
 807 0066 294A     		ldr	r2, .L33+36
 808 0068 F96E     		ldr	r1, [r7, #108]
 809 006a FFF7FEFF 		bl	construct_influx_route
 311:notoriOS.c    ****             printNotif(NOTIF_TYPE_EVENT,"HTTP route: %s", route);
 810              		.loc 1 311 0
 811 006e 3B46     		mov	r3, r7
 812 0070 1A46     		mov	r2, r3
 813 0072 2749     		ldr	r1, .L33+40
 814 0074 0020     		movs	r0, #0
 815 0076 FFF7FEFF 		bl	printNotif
 312:notoriOS.c    ****             
 313:notoriOS.c    ****             construct_influx_write_body(http_body,system_settings.node_id);
 816              		.loc 1 313 0
 817 007a 2649     		ldr	r1, .L33+44
 818 007c 1C48     		ldr	r0, .L33+8
 819 007e FFF7FEFF 		bl	construct_influx_write_body
 314:notoriOS.c    ****             
 315:notoriOS.c    ****             
 316:notoriOS.c    ****             construct_generic_HTTP_request(http_request,http_body,system_settings.ep_host,route,sys
 820              		.loc 1 316 0
 821 0082 244B     		ldr	r3, .L33+44
 822 0084 9B6F     		ldr	r3, [r3, #120]
 823 0086 3946     		mov	r1, r7
 824 0088 234A     		ldr	r2, .L33+48
 825 008a 0592     		str	r2, [sp, #20]
 826 008c 0022     		movs	r2, #0
 827 008e 0492     		str	r2, [sp, #16]
 828 0090 224A     		ldr	r2, .L33+52
 829 0092 0392     		str	r2, [sp, #12]
 830 0094 224A     		ldr	r2, .L33+56
 831 0096 0292     		str	r2, [sp, #8]
 832 0098 224A     		ldr	r2, .L33+60
 833 009a 0192     		str	r2, [sp, #4]
 834 009c 0093     		str	r3, [sp]
 835 009e 0B46     		mov	r3, r1
 836 00a0 214A     		ldr	r2, .L33+64
 837 00a2 1349     		ldr	r1, .L33+8
 838 00a4 1148     		ldr	r0, .L33+4
 839 00a6 FFF7FEFF 		bl	construct_generic_HTTP_request
 317:notoriOS.c    ****             printNotif(NOTIF_TYPE_EVENT,"Full HTTP Request: %s", http_request);
 840              		.loc 1 317 0
 841 00aa 104A     		ldr	r2, .L33+4
 842 00ac 1F49     		ldr	r1, .L33+68
 843 00ae 0020     		movs	r0, #0
 844 00b0 FFF7FEFF 		bl	printNotif
 318:notoriOS.c    ****             
 319:notoriOS.c    ****            
ARM GAS  C:\Users\HYFI_A~1\AppData\Local\Temp\ccU4tXr0.s 			page 22


 320:notoriOS.c    ****             
 321:notoriOS.c    ****             int send_time = (int)(getTimeStamp()-(int32)modem_start_time_stamp);
 845              		.loc 1 321 0
 846 00b4 FFF7FEFF 		bl	getTimeStamp
 847 00b8 0246     		mov	r2, r0
 848 00ba 1D4B     		ldr	r3, .L33+72
 849 00bc 1B68     		ldr	r3, [r3]
 850 00be D31A     		subs	r3, r2, r3
 851 00c0 BB66     		str	r3, [r7, #104]
 322:notoriOS.c    ****              
 323:notoriOS.c    ****             //get time, and if it looks good, set the RTC with it
 324:notoriOS.c    ****             long network_time = modem_get_network_time();
 852              		.loc 1 324 0
 853 00c2 FFF7FEFF 		bl	modem_get_network_time
 854 00c6 7866     		str	r0, [r7, #100]
 325:notoriOS.c    ****             if(network_time != 0){
 855              		.loc 1 325 0
 856 00c8 7B6E     		ldr	r3, [r7, #100]
 857 00ca 002B     		cmp	r3, #0
 858 00cc 02D0     		beq	.L31
 326:notoriOS.c    ****                setTime(network_time);
 859              		.loc 1 326 0
 860 00ce 786E     		ldr	r0, [r7, #100]
 861 00d0 FFF7FEFF 		bl	setTime
 862              	.L31:
 327:notoriOS.c    ****             }
 328:notoriOS.c    ****             
 329:notoriOS.c    ****             modem_power_down();
 863              		.loc 1 329 0
 864 00d4 FFF7FEFF 		bl	modem_power_down
 330:notoriOS.c    ****             return 0u;
 865              		.loc 1 330 0
 866 00d8 0023     		movs	r3, #0
 867 00da 00E0     		b	.L32
 868              	.L30:
 869              	.LBE2:
 331:notoriOS.c    ****       }
 332:notoriOS.c    ****       
 333:notoriOS.c    ****       return 1;//not done yet
 870              		.loc 1 333 0
 871 00dc 0123     		movs	r3, #1
 872              	.L32:
 334:notoriOS.c    **** }
 873              		.loc 1 334 0 discriminator 1
 874 00de 1846     		mov	r0, r3
 875 00e0 7037     		adds	r7, r7, #112
 876              		.cfi_def_cfa_offset 8
 877 00e2 BD46     		mov	sp, r7
 878              		.cfi_def_cfa_register 13
 879              		@ sp needed
 880 00e4 80BD     		pop	{r7, pc}
 881              	.L34:
 882 00e6 00BF     		.align	2
 883              	.L33:
 884 00e8 4C000000 		.word	.LC6
 885 00ec 00000000 		.word	http_request
 886 00f0 00000000 		.word	http_body
ARM GAS  C:\Users\HYFI_A~1\AppData\Local\Temp\ccU4tXr0.s 			page 23


 887 00f4 5C000000 		.word	.LC7
 888 00f8 64000000 		.word	.LC8
 889 00fc 6C000000 		.word	.LC9
 890 0100 7C000000 		.word	.LC10
 891 0104 12010000 		.word	system_settings+274
 892 0108 AE000000 		.word	system_settings+174
 893 010c 7C000000 		.word	system_settings+124
 894 0110 90000000 		.word	.LC11
 895 0114 00000000 		.word	system_settings
 896 0118 A0000000 		.word	.LC12
 897 011c A4000000 		.word	.LC13
 898 0120 A8000000 		.word	.LC14
 899 0124 B0000000 		.word	.LC15
 900 0128 14000000 		.word	system_settings+20
 901 012c B8000000 		.word	.LC16
 902 0130 00000000 		.word	modem_start_time_stamp
 903              		.cfi_endproc
 904              	.LFE74:
 905              		.size	syncData, .-syncData
 906              		.section	.rodata
 907 00ce 0000     		.align	2
 908              	.LC17:
 909 00d0 4572726F 		.ascii	"Error setting sytem time.\000"
 909      72207365 
 909      7474696E 
 909      67207379 
 909      74656D20 
 910              		.section	.text.setTime,"ax",%progbits
 911              		.align	2
 912              		.global	setTime
 913              		.thumb
 914              		.thumb_func
 915              		.type	setTime, %function
 916              	setTime:
 917              	.LFB75:
 335:notoriOS.c    **** 
 336:notoriOS.c    **** 
 337:notoriOS.c    **** uint8 setTime(long timeStamp){
 918              		.loc 1 337 0
 919              		.cfi_startproc
 920              		@ args = 0, pretend = 0, frame = 24
 921              		@ frame_needed = 1, uses_anonymous_args = 0
 922 0000 80B5     		push	{r7, lr}
 923              		.cfi_def_cfa_offset 8
 924              		.cfi_offset 7, -8
 925              		.cfi_offset 14, -4
 926 0002 86B0     		sub	sp, sp, #24
 927              		.cfi_def_cfa_offset 32
 928 0004 00AF     		add	r7, sp, #0
 929              		.cfi_def_cfa_register 7
 930 0006 7860     		str	r0, [r7, #4]
 338:notoriOS.c    ****     
 339:notoriOS.c    ****     if(timeStamp <=0){
 931              		.loc 1 339 0
 932 0008 7B68     		ldr	r3, [r7, #4]
 933 000a 002B     		cmp	r3, #0
 934 000c 05DC     		bgt	.L36
ARM GAS  C:\Users\HYFI_A~1\AppData\Local\Temp\ccU4tXr0.s 			page 24


 340:notoriOS.c    ****         printNotif(NOTIF_TYPE_ERROR,"Error setting sytem time.");
 935              		.loc 1 340 0
 936 000e 1849     		ldr	r1, .L38
 937 0010 0220     		movs	r0, #2
 938 0012 FFF7FEFF 		bl	printNotif
 341:notoriOS.c    ****         return 0;  
 939              		.loc 1 341 0
 940 0016 0023     		movs	r3, #0
 941 0018 25E0     		b	.L37
 942              	.L36:
 342:notoriOS.c    ****     }
 343:notoriOS.c    ****     
 344:notoriOS.c    ****     struct tm * t;
 345:notoriOS.c    ****     //time(&timeStamp);
 346:notoriOS.c    ****     t = gmtime(&timeStamp);
 943              		.loc 1 346 0
 944 001a 3B1D     		adds	r3, r7, #4
 945 001c 1846     		mov	r0, r3
 946 001e FFF7FEFF 		bl	gmtime
 947 0022 7861     		str	r0, [r7, #20]
 347:notoriOS.c    ****     
 348:notoriOS.c    ****     RTC_TIME_DATE localTime;
 349:notoriOS.c    ****     localTime.Sec = t->tm_sec;
 948              		.loc 1 349 0
 949 0024 7B69     		ldr	r3, [r7, #20]
 950 0026 1B68     		ldr	r3, [r3]
 951 0028 DBB2     		uxtb	r3, r3
 952 002a 3B72     		strb	r3, [r7, #8]
 350:notoriOS.c    ****     localTime.Min = t->tm_min;
 953              		.loc 1 350 0
 954 002c 7B69     		ldr	r3, [r7, #20]
 955 002e 5B68     		ldr	r3, [r3, #4]
 956 0030 DBB2     		uxtb	r3, r3
 957 0032 7B72     		strb	r3, [r7, #9]
 351:notoriOS.c    ****     localTime.Hour = t->tm_hour;
 958              		.loc 1 351 0
 959 0034 7B69     		ldr	r3, [r7, #20]
 960 0036 9B68     		ldr	r3, [r3, #8]
 961 0038 DBB2     		uxtb	r3, r3
 962 003a BB72     		strb	r3, [r7, #10]
 352:notoriOS.c    ****     localTime.Year = t->tm_year + 1900;
 963              		.loc 1 352 0
 964 003c 7B69     		ldr	r3, [r7, #20]
 965 003e 5B69     		ldr	r3, [r3, #20]
 966 0040 9BB2     		uxth	r3, r3
 967 0042 03F26C73 		addw	r3, r3, #1900
 968 0046 9BB2     		uxth	r3, r3
 969 0048 7B82     		strh	r3, [r7, #18]	@ movhi
 353:notoriOS.c    ****     localTime.Month = t->tm_mon;
 970              		.loc 1 353 0
 971 004a 7B69     		ldr	r3, [r7, #20]
 972 004c 1B69     		ldr	r3, [r3, #16]
 973 004e DBB2     		uxtb	r3, r3
 974 0050 3B74     		strb	r3, [r7, #16]
 354:notoriOS.c    ****     localTime.DayOfMonth = t->tm_mday;
 975              		.loc 1 354 0
 976 0052 7B69     		ldr	r3, [r7, #20]
ARM GAS  C:\Users\HYFI_A~1\AppData\Local\Temp\ccU4tXr0.s 			page 25


 977 0054 DB68     		ldr	r3, [r3, #12]
 978 0056 DBB2     		uxtb	r3, r3
 979 0058 3B73     		strb	r3, [r7, #12]
 355:notoriOS.c    **** 
 356:notoriOS.c    ****     RTC_WriteTime(&localTime);
 980              		.loc 1 356 0
 981 005a 07F10803 		add	r3, r7, #8
 982 005e 1846     		mov	r0, r3
 983 0060 FFF7FEFF 		bl	RTC_WriteTime
 357:notoriOS.c    ****    
 358:notoriOS.c    ****     return 1;
 984              		.loc 1 358 0
 985 0064 0123     		movs	r3, #1
 986              	.L37:
 359:notoriOS.c    **** }
 987              		.loc 1 359 0
 988 0066 1846     		mov	r0, r3
 989 0068 1837     		adds	r7, r7, #24
 990              		.cfi_def_cfa_offset 8
 991 006a BD46     		mov	sp, r7
 992              		.cfi_def_cfa_register 13
 993              		@ sp needed
 994 006c 80BD     		pop	{r7, pc}
 995              	.L39:
 996 006e 00BF     		.align	2
 997              	.L38:
 998 0070 D0000000 		.word	.LC17
 999              		.cfi_endproc
 1000              	.LFE75:
 1001              		.size	setTime, .-setTime
 1002              		.text
 1003              	.Letext0:
 1004              		.file 2 "c:\\program files (x86)\\cypress\\psoc creator\\4.3\\psoc creator\\import\\gnu\\arm\\5.4.
 1005              		.file 3 "c:\\program files (x86)\\cypress\\psoc creator\\4.3\\psoc creator\\import\\gnu\\arm\\5.4.
 1006              		.file 4 "Generated_Source\\PSoC5/cytypes.h"
 1007              		.file 5 "Generated_Source\\PSoC5/RTC.h"
 1008              		.file 6 "testing.h"
 1009              		.file 7 "c:\\program files (x86)\\cypress\\psoc creator\\4.3\\psoc creator\\import\\gnu\\arm\\5.4.
 1010              		.file 8 "modem.h"
 1011              		.file 9 "data.h"
 1012              		.file 10 "notoriOS.h"
 1013              		.file 11 "Generated_Source\\PSoC5/core_cm3.h"
 1014              		.file 12 "debug.h"