ARM GAS  C:\Users\HYFI_A~1\AppData\Local\Temp\ccb6s9SH.s 			page 1


   1              		.syntax unified
   2              		.cpu cortex-m3
   3              		.fpu softvfp
   4              		.eabi_attribute 20, 1
   5              		.eabi_attribute 21, 1
   6              		.eabi_attribute 23, 3
   7              		.eabi_attribute 24, 1
   8              		.eabi_attribute 25, 1
   9              		.eabi_attribute 26, 1
  10              		.eabi_attribute 30, 6
  11              		.eabi_attribute 34, 1
  12              		.eabi_attribute 18, 4
  13              		.thumb
  14              		.syntax unified
  15              		.file	"notoriOS.c"
  16              		.text
  17              	.Ltext0:
  18              		.cfi_sections	.debug_frame
  19              		.syntax unified
  20              		.global _printf_float
  21              		.thumb
  22              		.syntax unified
  23              		.comm	modem_state,1,1
  24              		.comm	modem_start_time_stamp,4,4
  25              		.comm	modem_info,60,4
  26              		.comm	modem_stats,12,4
  27              		.comm	dataPointsInStack,2,2
  28              		.comm	data,2200,4
  29              		.comm	http_request,4000,4
  30              		.comm	http_body,4000,4
  31              		.comm	http_route,200,4
  32              		.comm	system_info,28,4
  33              		.comm	system_settings,324,4
  34              		.comm	alarmMeasure,6,4
  35              		.comm	timeToMeasure,1,1
  36              		.comm	alarmSync,6,4
  37              		.comm	timeToSync,1,1
  38              		.comm	timeToSycnRemoteParams,1,1
  39              		.section	.text.Wakeup_ISR,"ax",%progbits
  40              		.align	2
  41              		.global	Wakeup_ISR
  42              		.thumb
  43              		.thumb_func
  44              		.type	Wakeup_ISR, %function
  45              	Wakeup_ISR:
  46              	.LFB64:
  47              		.file 1 "notoriOS.c"
   1:notoriOS.c    **** /* ========================================
   2:notoriOS.c    ****  *
   3:notoriOS.c    ****  * OPEN-STORM.ORG
   4:notoriOS.c    ****  * notoriOS
   5:notoriOS.c    ****  * A non-premptive operating system for node.
   6:notoriOS.c    ****  *
   7:notoriOS.c    ****  * "To all the teachers that told me I'd never amount to nothin"
   8:notoriOS.c    ****  *      -Notorious BIG (1994)
   9:notoriOS.c    ****  *
  10:notoriOS.c    ****  * ========================================
ARM GAS  C:\Users\HYFI_A~1\AppData\Local\Temp\ccb6s9SH.s 			page 2


  11:notoriOS.c    **** */
  12:notoriOS.c    **** 
  13:notoriOS.c    **** #include "notoriOS.h"
  14:notoriOS.c    **** 
  15:notoriOS.c    **** //global variables
  16:notoriOS.c    **** alarm alarmMeasure;
  17:notoriOS.c    **** uint8 timeToMeasure;
  18:notoriOS.c    **** alarm alarmSync;
  19:notoriOS.c    **** uint8 timeToSync;
  20:notoriOS.c    **** uint8 timeToSycnRemoteParams;
  21:notoriOS.c    **** 
  22:notoriOS.c    **** 
  23:notoriOS.c    **** // This function must always be called (when the Sleep Timer's interrupt
  24:notoriOS.c    **** // is disabled or enabled) after wake up to clear the ctw_int status bit.
  25:notoriOS.c    **** // It is required to call SleepTimer_GetStatus() within 1 ms (1 clock cycle
  26:notoriOS.c    **** // of the ILO) after CTW event occurred.
  27:notoriOS.c    **** CY_ISR(Wakeup_ISR) {
  48              		.loc 1 27 0
  49              		.cfi_startproc
  50              		@ args = 0, pretend = 0, frame = 0
  51              		@ frame_needed = 1, uses_anonymous_args = 0
  52 0000 80B5     		push	{r7, lr}
  53              		.cfi_def_cfa_offset 8
  54              		.cfi_offset 7, -8
  55              		.cfi_offset 14, -4
  56 0002 00AF     		add	r7, sp, #0
  57              		.cfi_def_cfa_register 7
  28:notoriOS.c    ****     SleepTimer_GetStatus();
  58              		.loc 1 28 0
  59 0004 FFF7FEFF 		bl	SleepTimer_GetStatus
  29:notoriOS.c    **** }
  60              		.loc 1 29 0
  61 0008 00BF     		nop
  62 000a 80BD     		pop	{r7, pc}
  63              		.cfi_endproc
  64              	.LFE64:
  65              		.size	Wakeup_ISR, .-Wakeup_ISR
  66              		.section	.rodata
  67              		.align	2
  68              	.LC0:
  69 0000 25582D25 		.ascii	"%X-%X\000"
  69      5800
  70 0006 0000     		.align	2
  71              	.LC1:
  72 0008 65633263 		.ascii	"ec2co-ecsel-sx2mg1u7m55t-1020078396.us-east-2.elb.a"
  72      6F2D6563 
  72      73656C2D 
  72      7378326D 
  72      67317537 
  73 003b 6D617A6F 		.ascii	"mazonaws.com\000"
  73      6E617773 
  73      2E636F6D 
  73      00
  74              		.align	2
  75              	.LC2:
  76 0048 67656E65 		.ascii	"generic_node\000"
  76      7269635F 
ARM GAS  C:\Users\HYFI_A~1\AppData\Local\Temp\ccb6s9SH.s 			page 3


  76      6E6F6465 
  76      00
  77 0055 000000   		.align	2
  78              	.LC3:
  79 0058 4D616B65 		.ascii	"MakeFloodsCurrents\000"
  79      466C6F6F 
  79      64734375 
  79      7272656E 
  79      747300
  80 006b 00       		.align	2
  81              	.LC4:
  82 006c 41524200 		.ascii	"ARB\000"
  83              		.align	2
  84              	.LC5:
  85 0070 47474230 		.ascii	"GGB000\000"
  85      303000
  86              		.section	.text.ReadyOrNot,"ax",%progbits
  87              		.align	2
  88              		.global	ReadyOrNot
  89              		.thumb
  90              		.thumb_func
  91              		.type	ReadyOrNot, %function
  92              	ReadyOrNot:
  93              	.LFB65:
  30:notoriOS.c    **** 
  31:notoriOS.c    **** 
  32:notoriOS.c    **** 
  33:notoriOS.c    **** uint8 syncData();               //syncs data with server 
  34:notoriOS.c    **** uint8 configureRemoteParams();  //syncs RTC with cell network and obtains meta-DB params
  35:notoriOS.c    **** uint8 makeMeasurements();
  36:notoriOS.c    **** 
  37:notoriOS.c    **** // ==============================================
  38:notoriOS.c    **** // Ready or not, here I come, you can't hide
  39:notoriOS.c    **** // Gonna find you and take it slowly
  40:notoriOS.c    **** //      - The Fugees (1996)
  41:notoriOS.c    **** //
  42:notoriOS.c    **** // Initialize and critical hardware or routines 
  43:notoriOS.c    **** // ==============================================
  44:notoriOS.c    **** void ReadyOrNot()
  45:notoriOS.c    **** {
  94              		.loc 1 45 0
  95              		.cfi_startproc
  96              		@ args = 0, pretend = 0, frame = 16
  97              		@ frame_needed = 1, uses_anonymous_args = 0
  98 0000 B0B5     		push	{r4, r5, r7, lr}
  99              		.cfi_def_cfa_offset 16
 100              		.cfi_offset 4, -16
 101              		.cfi_offset 5, -12
 102              		.cfi_offset 7, -8
 103              		.cfi_offset 14, -4
 104 0002 86B0     		sub	sp, sp, #24
 105              		.cfi_def_cfa_offset 40
 106 0004 02AF     		add	r7, sp, #8
 107              		.cfi_def_cfa 7, 32
  46:notoriOS.c    ****     
  47:notoriOS.c    ****     isr_SleepTimer_StartEx(Wakeup_ISR);// Start Sleep ISR
 108              		.loc 1 47 0
ARM GAS  C:\Users\HYFI_A~1\AppData\Local\Temp\ccb6s9SH.s 			page 4


 109 0006 3D48     		ldr	r0, .L3
 110 0008 FFF7FEFF 		bl	isr_SleepTimer_StartEx
  48:notoriOS.c    ****     SleepTimer_Start();             // Start SleepTimer Component
 111              		.loc 1 48 0
 112 000c FFF7FEFF 		bl	SleepTimer_Start
  49:notoriOS.c    ****     
  50:notoriOS.c    ****     RTC_WriteIntervalMask(0b11111111);
 113              		.loc 1 50 0
 114 0010 FF20     		movs	r0, #255
 115 0012 FFF7FEFF 		bl	RTC_WriteIntervalMask
  51:notoriOS.c    ****     RTC_Start();
 116              		.loc 1 51 0
 117 0016 FFF7FEFF 		bl	RTC_Start
  52:notoriOS.c    ****     debug_start();
 118              		.loc 1 52 0
 119 001a FFF7FEFF 		bl	debug_start
  53:notoriOS.c    ****     
  54:notoriOS.c    ****     modem_intilize();
 120              		.loc 1 54 0
 121 001e FFF7FEFF 		bl	modem_intilize
  55:notoriOS.c    ****    
  56:notoriOS.c    ****     
  57:notoriOS.c    ****     //collect system info and store in struct (modem ID, silicon ID, etc)
  58:notoriOS.c    ****       /* An array of char elements for the resulting string to be stored */
  59:notoriOS.c    ****     
  60:notoriOS.c    ****     
  61:notoriOS.c    ****     //get unique ID of PSOC chip, this can be concatenated with the MODEM IDs to generate a unique 
  62:notoriOS.c    ****     uint32 uniqueId[2];
  63:notoriOS.c    ****     CyGetUniqueId(uniqueId); 
 122              		.loc 1 63 0
 123 0022 07F10803 		add	r3, r7, #8
 124 0026 1846     		mov	r0, r3
 125 0028 FFF7FEFF 		bl	CyGetUniqueId
  64:notoriOS.c    ****     snprintf(system_info.chip_uniqueId,sizeof(system_info.chip_uniqueId),"%X-%X",(unsigned int)uniq
 126              		.loc 1 64 0
 127 002c BA68     		ldr	r2, [r7, #8]
 128 002e FB68     		ldr	r3, [r7, #12]
 129 0030 0093     		str	r3, [sp]
 130 0032 1346     		mov	r3, r2
 131 0034 324A     		ldr	r2, .L3+4
 132 0036 1821     		movs	r1, #24
 133 0038 3248     		ldr	r0, .L3+8
 134 003a FFF7FEFF 		bl	snprintf
  65:notoriOS.c    ****     //the modem will track/popualte it's own IDs, so just point to them for now
  66:notoriOS.c    ****     system_info.modem_info = &modem_info;
 135              		.loc 1 66 0
 136 003e 324B     		ldr	r3, .L3+12
 137 0040 324A     		ldr	r2, .L3+16
 138 0042 1A60     		str	r2, [r3]
  67:notoriOS.c    ****     
  68:notoriOS.c    ****     //configure server endpoints -- these should obviosuly be provided  remotely by the meta data-b
  69:notoriOS.c    ****     snprintf(system_settings.ep_host,sizeof(system_settings.ep_host),"%s","ec2co-ecsel-sx2mg1u7m55t
 139              		.loc 1 69 0
 140 0044 324A     		ldr	r2, .L3+20
 141 0046 334B     		ldr	r3, .L3+24
 142 0048 1446     		mov	r4, r2
 143 004a 1D46     		mov	r5, r3
ARM GAS  C:\Users\HYFI_A~1\AppData\Local\Temp\ccb6s9SH.s 			page 5


 144 004c 0FCD     		ldmia	r5!, {r0, r1, r2, r3}
 145 004e 0FC4     		stmia	r4!, {r0, r1, r2, r3}
 146 0050 0FCD     		ldmia	r5!, {r0, r1, r2, r3}
 147 0052 0FC4     		stmia	r4!, {r0, r1, r2, r3}
 148 0054 0FCD     		ldmia	r5!, {r0, r1, r2, r3}
 149 0056 0FC4     		stmia	r4!, {r0, r1, r2, r3}
 150 0058 95E80F00 		ldmia	r5, {r0, r1, r2, r3}
 151 005c 84E80F00 		stmia	r4, {r0, r1, r2, r3}
  70:notoriOS.c    ****    
  71:notoriOS.c    ****     system_settings.ep_port = 5000;//use 8086 fopr influx
 152              		.loc 1 71 0
 153 0060 2D4B     		ldr	r3, .L3+28
 154 0062 41F28832 		movw	r2, #5000
 155 0066 9A67     		str	r2, [r3, #120]
  72:notoriOS.c    ****     snprintf(system_settings.ep_user,sizeof(system_settings.ep_user),"%s","generic_node");
 156              		.loc 1 72 0
 157 0068 2C4A     		ldr	r2, .L3+32
 158 006a 2D4B     		ldr	r3, .L3+36
 159 006c 1446     		mov	r4, r2
 160 006e 0FCB     		ldmia	r3, {r0, r1, r2, r3}
 161 0070 07C4     		stmia	r4!, {r0, r1, r2}
 162 0072 2370     		strb	r3, [r4]
  73:notoriOS.c    ****     snprintf(system_settings.ep_pswd,sizeof(system_settings.ep_pswd),"%s","MakeFloodsCurrents");
 163              		.loc 1 73 0
 164 0074 2B4A     		ldr	r2, .L3+40
 165 0076 2C4B     		ldr	r3, .L3+44
 166 0078 1546     		mov	r5, r2
 167 007a 1C46     		mov	r4, r3
 168 007c 0FCC     		ldmia	r4!, {r0, r1, r2, r3}
 169 007e 2860     		str	r0, [r5]	@ unaligned
 170 0080 6960     		str	r1, [r5, #4]	@ unaligned
 171 0082 AA60     		str	r2, [r5, #8]	@ unaligned
 172 0084 EB60     		str	r3, [r5, #12]	@ unaligned
 173 0086 2388     		ldrh	r3, [r4]	@ unaligned
 174 0088 A278     		ldrb	r2, [r4, #2]
 175 008a 2B82     		strh	r3, [r5, #16]	@ unaligned
 176 008c 1346     		mov	r3, r2
 177 008e AB74     		strb	r3, [r5, #18]
  74:notoriOS.c    ****     snprintf(system_settings.ep_database,sizeof(system_settings.ep_database),"%s","ARB");
 178              		.loc 1 74 0
 179 0090 264B     		ldr	r3, .L3+48
 180 0092 274A     		ldr	r2, .L3+52
 181 0094 1068     		ldr	r0, [r2]	@ unaligned
 182 0096 1860     		str	r0, [r3]	@ unaligned
  75:notoriOS.c    ****     snprintf(system_settings.node_id,sizeof(system_settings.node_id),"%s","GGB000");
 183              		.loc 1 75 0
 184 0098 1F4B     		ldr	r3, .L3+28
 185 009a 264A     		ldr	r2, .L3+56
 186 009c 92E80300 		ldmia	r2, {r0, r1}
 187 00a0 1860     		str	r0, [r3]
 188 00a2 0433     		adds	r3, r3, #4
 189 00a4 1980     		strh	r1, [r3]	@ movhi
 190 00a6 0233     		adds	r3, r3, #2
 191 00a8 0A0C     		lsrs	r2, r1, #16
 192 00aa 1A70     		strb	r2, [r3]
  76:notoriOS.c    ****         
  77:notoriOS.c    ****     
ARM GAS  C:\Users\HYFI_A~1\AppData\Local\Temp\ccb6s9SH.s 			page 6


  78:notoriOS.c    ****     
  79:notoriOS.c    ****     alarmMeasure = CreateAlarm(10u,ALARM_TYPE_MINUTE,ALARM_TYPE_CONTINUOUS);
 193              		.loc 1 79 0
 194 00ac 224C     		ldr	r4, .L3+60
 195 00ae 3846     		mov	r0, r7
 196 00b0 0723     		movs	r3, #7
 197 00b2 0122     		movs	r2, #1
 198 00b4 0A21     		movs	r1, #10
 199 00b6 FFF7FEFF 		bl	CreateAlarm
 200 00ba 2246     		mov	r2, r4
 201 00bc 3B46     		mov	r3, r7
 202 00be 1968     		ldr	r1, [r3]	@ unaligned
 203 00c0 1160     		str	r1, [r2]	@ unaligned
 204 00c2 9B88     		ldrh	r3, [r3, #4]	@ unaligned
 205 00c4 9380     		strh	r3, [r2, #4]	@ unaligned
  80:notoriOS.c    ****     timeToMeasure = 1u;
 206              		.loc 1 80 0
 207 00c6 1D4B     		ldr	r3, .L3+64
 208 00c8 0122     		movs	r2, #1
 209 00ca 1A70     		strb	r2, [r3]
  81:notoriOS.c    ****     
  82:notoriOS.c    ****     alarmSync = CreateAlarm(60u,ALARM_TYPE_MINUTE,ALARM_TYPE_CONTINUOUS);
 210              		.loc 1 82 0
 211 00cc 1C4C     		ldr	r4, .L3+68
 212 00ce 3846     		mov	r0, r7
 213 00d0 0723     		movs	r3, #7
 214 00d2 0122     		movs	r2, #1
 215 00d4 3C21     		movs	r1, #60
 216 00d6 FFF7FEFF 		bl	CreateAlarm
 217 00da 2246     		mov	r2, r4
 218 00dc 3B46     		mov	r3, r7
 219 00de 1968     		ldr	r1, [r3]	@ unaligned
 220 00e0 1160     		str	r1, [r2]	@ unaligned
 221 00e2 9B88     		ldrh	r3, [r3, #4]	@ unaligned
 222 00e4 9380     		strh	r3, [r2, #4]	@ unaligned
  83:notoriOS.c    ****     timeToSync = 1u;
 223              		.loc 1 83 0
 224 00e6 174B     		ldr	r3, .L3+72
 225 00e8 0122     		movs	r2, #1
 226 00ea 1A70     		strb	r2, [r3]
  84:notoriOS.c    ****     
  85:notoriOS.c    ****     timeToSycnRemoteParams = 0u;//set to 1 if you want to get modem IDs and time -- no need to do t
 227              		.loc 1 85 0
 228 00ec 164B     		ldr	r3, .L3+76
 229 00ee 0022     		movs	r2, #0
 230 00f0 1A70     		strb	r2, [r3]
  86:notoriOS.c    ****     //alarmMeasure2 = CreateAlarm(10,ALARM_TYPE_SECOND,ALARM_TYPE_CONTINUOUS);
  87:notoriOS.c    ****     //timeToMeasure = 0;
  88:notoriOS.c    ****     
  89:notoriOS.c    ****     
  90:notoriOS.c    **** }
 231              		.loc 1 90 0
 232 00f2 00BF     		nop
 233 00f4 1037     		adds	r7, r7, #16
 234              		.cfi_def_cfa_offset 16
 235 00f6 BD46     		mov	sp, r7
 236              		.cfi_def_cfa_register 13
ARM GAS  C:\Users\HYFI_A~1\AppData\Local\Temp\ccb6s9SH.s 			page 7


 237              		@ sp needed
 238 00f8 B0BD     		pop	{r4, r5, r7, pc}
 239              	.L4:
 240 00fa 00BF     		.align	2
 241              	.L3:
 242 00fc 00000000 		.word	Wakeup_ISR
 243 0100 00000000 		.word	.LC0
 244 0104 04000000 		.word	system_info+4
 245 0108 00000000 		.word	system_info
 246 010c 00000000 		.word	modem_info
 247 0110 14000000 		.word	system_settings+20
 248 0114 08000000 		.word	.LC1
 249 0118 00000000 		.word	system_settings
 250 011c 7C000000 		.word	system_settings+124
 251 0120 48000000 		.word	.LC2
 252 0124 AE000000 		.word	system_settings+174
 253 0128 58000000 		.word	.LC3
 254 012c 12010000 		.word	system_settings+274
 255 0130 6C000000 		.word	.LC4
 256 0134 70000000 		.word	.LC5
 257 0138 00000000 		.word	alarmMeasure
 258 013c 00000000 		.word	timeToMeasure
 259 0140 00000000 		.word	alarmSync
 260 0144 00000000 		.word	timeToSync
 261 0148 00000000 		.word	timeToSycnRemoteParams
 262              		.cfi_endproc
 263              	.LFE65:
 264              		.size	ReadyOrNot, .-ReadyOrNot
 265              		.section	.text.WorkWorkWorkWorkWorkWork,"ax",%progbits
 266              		.align	2
 267              		.global	WorkWorkWorkWorkWorkWork
 268              		.thumb
 269              		.thumb_func
 270              		.type	WorkWorkWorkWorkWorkWork, %function
 271              	WorkWorkWorkWorkWorkWork:
 272              	.LFB66:
  91:notoriOS.c    **** 
  92:notoriOS.c    **** 
  93:notoriOS.c    **** // ==============================================
  94:notoriOS.c    **** // You see me I be work, work, work, work, work, work 
  95:notoriOS.c    **** //      - Rhiana, feat Drake (2016)
  96:notoriOS.c    **** //
  97:notoriOS.c    **** // Prorcesses core tasks
  98:notoriOS.c    **** // ==============================================
  99:notoriOS.c    **** int WorkWorkWorkWorkWorkWork()
 100:notoriOS.c    **** {
 273              		.loc 1 100 0
 274              		.cfi_startproc
 275              		@ args = 0, pretend = 0, frame = 8
 276              		@ frame_needed = 1, uses_anonymous_args = 0
 277 0000 80B5     		push	{r7, lr}
 278              		.cfi_def_cfa_offset 8
 279              		.cfi_offset 7, -8
 280              		.cfi_offset 14, -4
 281 0002 82B0     		sub	sp, sp, #8
 282              		.cfi_def_cfa_offset 16
 283 0004 00AF     		add	r7, sp, #0
ARM GAS  C:\Users\HYFI_A~1\AppData\Local\Temp\ccb6s9SH.s 			page 8


 284              		.cfi_def_cfa_register 7
 101:notoriOS.c    ****     
 102:notoriOS.c    ****     //the priority of these tasks is determined by the if statements
 103:notoriOS.c    ****     //for example, taking measurements should always precede data transmisison, even if both fire
 104:notoriOS.c    ****     //getting meta-DB info and system configs precedes all
 105:notoriOS.c    ****     //that said, the modem is always qeried to check if it needs anything
 106:notoriOS.c    ****     
 107:notoriOS.c    ****     if(timeToSycnRemoteParams){
 285              		.loc 1 107 0
 286 0006 144B     		ldr	r3, .L10
 287 0008 1B78     		ldrb	r3, [r3]	@ zero_extendqisi2
 288 000a 002B     		cmp	r3, #0
 289 000c 06D0     		beq	.L6
 108:notoriOS.c    ****         timeToSycnRemoteParams = configureRemoteParams();//will return 0 when done sending data
 290              		.loc 1 108 0
 291 000e FFF7FEFF 		bl	configureRemoteParams
 292 0012 0346     		mov	r3, r0
 293 0014 1A46     		mov	r2, r3
 294 0016 104B     		ldr	r3, .L10
 295 0018 1A70     		strb	r2, [r3]
 296 001a 14E0     		b	.L7
 297              	.L6:
 109:notoriOS.c    ****     }
 110:notoriOS.c    ****     else if(timeToMeasure){
 298              		.loc 1 110 0
 299 001c 0F4B     		ldr	r3, .L10+4
 300 001e 1B78     		ldrb	r3, [r3]	@ zero_extendqisi2
 301 0020 002B     		cmp	r3, #0
 302 0022 06D0     		beq	.L8
 111:notoriOS.c    ****         timeToMeasure = makeMeasurements();//will return 0 when done sending data
 303              		.loc 1 111 0
 304 0024 FFF7FEFF 		bl	makeMeasurements
 305 0028 0346     		mov	r3, r0
 306 002a 1A46     		mov	r2, r3
 307 002c 0B4B     		ldr	r3, .L10+4
 308 002e 1A70     		strb	r2, [r3]
 309 0030 09E0     		b	.L7
 310              	.L8:
 112:notoriOS.c    ****     }else if(timeToSync){
 311              		.loc 1 112 0
 312 0032 0B4B     		ldr	r3, .L10+8
 313 0034 1B78     		ldrb	r3, [r3]	@ zero_extendqisi2
 314 0036 002B     		cmp	r3, #0
 315 0038 05D0     		beq	.L7
 113:notoriOS.c    ****             timeToSync = syncData();
 316              		.loc 1 113 0
 317 003a FFF7FEFF 		bl	syncData
 318 003e 0346     		mov	r3, r0
 319 0040 1A46     		mov	r2, r3
 320 0042 074B     		ldr	r3, .L10+8
 321 0044 1A70     		strb	r2, [r3]
 322              	.L7:
 114:notoriOS.c    ****     }
 115:notoriOS.c    ****     
 116:notoriOS.c    ****     //printNotif(NOTIF_TYPE_EVENT,"Measure CNT %d, Sync CNT %d, Data Wheel CNT %d",alarmMeasure.cur
 117:notoriOS.c    ****     
 118:notoriOS.c    ****     
ARM GAS  C:\Users\HYFI_A~1\AppData\Local\Temp\ccb6s9SH.s 			page 9


 119:notoriOS.c    ****     //check modem state machine on every loop
 120:notoriOS.c    **** 
 121:notoriOS.c    ****     uint8 modem_status = modem_process_tasks();
 323              		.loc 1 121 0
 324 0046 FFF7FEFF 		bl	modem_process_tasks
 325 004a 0346     		mov	r3, r0
 326 004c FB71     		strb	r3, [r7, #7]
 122:notoriOS.c    **** 
 123:notoriOS.c    ****     
 124:notoriOS.c    ****    
 125:notoriOS.c    ****     return 0u +  modem_status;  
 327              		.loc 1 125 0
 328 004e FB79     		ldrb	r3, [r7, #7]	@ zero_extendqisi2
 126:notoriOS.c    **** }
 329              		.loc 1 126 0
 330 0050 1846     		mov	r0, r3
 331 0052 0837     		adds	r7, r7, #8
 332              		.cfi_def_cfa_offset 8
 333 0054 BD46     		mov	sp, r7
 334              		.cfi_def_cfa_register 13
 335              		@ sp needed
 336 0056 80BD     		pop	{r7, pc}
 337              	.L11:
 338              		.align	2
 339              	.L10:
 340 0058 00000000 		.word	timeToSycnRemoteParams
 341 005c 00000000 		.word	timeToMeasure
 342 0060 00000000 		.word	timeToSync
 343              		.cfi_endproc
 344              	.LFE66:
 345              		.size	WorkWorkWorkWorkWorkWork, .-WorkWorkWorkWorkWorkWork
 346              		.section	.text.LayBack,"ax",%progbits
 347              		.align	2
 348              		.global	LayBack
 349              		.thumb
 350              		.thumb_func
 351              		.type	LayBack, %function
 352              	LayBack:
 353              	.LFB67:
 127:notoriOS.c    **** 
 128:notoriOS.c    **** 
 129:notoriOS.c    **** 
 130:notoriOS.c    **** 
 131:notoriOS.c    **** 
 132:notoriOS.c    **** 
 133:notoriOS.c    **** // ==============================================
 134:notoriOS.c    **** // sippin on gin and juice, Laid back (with my mind on my money and my money on my mind)
 135:notoriOS.c    **** //      - Snoop Dogg (1993)
 136:notoriOS.c    **** //
 137:notoriOS.c    **** // Put all hardware to sleep and go into low power mode to conserve Amps
 138:notoriOS.c    **** // ==============================================
 139:notoriOS.c    **** void LayBack()
 140:notoriOS.c    **** {
 354              		.loc 1 140 0
 355              		.cfi_startproc
 356              		@ args = 0, pretend = 0, frame = 0
 357              		@ frame_needed = 1, uses_anonymous_args = 0
ARM GAS  C:\Users\HYFI_A~1\AppData\Local\Temp\ccb6s9SH.s 			page 10


 358 0000 80B5     		push	{r7, lr}
 359              		.cfi_def_cfa_offset 8
 360              		.cfi_offset 7, -8
 361              		.cfi_offset 14, -4
 362 0002 00AF     		add	r7, sp, #0
 363              		.cfi_def_cfa_register 7
 141:notoriOS.c    ****     
 142:notoriOS.c    ****   
 143:notoriOS.c    ****     
 144:notoriOS.c    ****     modem_sleep();
 364              		.loc 1 144 0
 365 0004 FFF7FEFF 		bl	modem_sleep
 145:notoriOS.c    ****     // Prepares system clocks for the Sleep mode
 146:notoriOS.c    **** 
 147:notoriOS.c    ****     
 148:notoriOS.c    ****     //important, call this last because we want to sleep uart before shutting down
 149:notoriOS.c    ****  
 150:notoriOS.c    ****     debug_sleep();
 366              		.loc 1 150 0
 367 0008 FFF7FEFF 		bl	debug_sleep
 151:notoriOS.c    ****     
 152:notoriOS.c    ****     CyPmSaveClocks();
 368              		.loc 1 152 0
 369 000c FFF7FEFF 		bl	CyPmSaveClocks
 153:notoriOS.c    ****     
 154:notoriOS.c    ****     // Switch to the Sleep Mode for the other devices:
 155:notoriOS.c    ****     //  - PM_SLEEP_TIME_NONE: wakeup time is defined by Sleep Timer
 156:notoriOS.c    ****     //  - PM_SLEEP_SRC_CTW :  wakeup on CTW sources is allowed
 157:notoriOS.c    ****      //  - If real-time clock is used, it will also wake the device
 158:notoriOS.c    ****     //can also wake up from a pin intterup (PICU). This is useful with the moderm UART
 159:notoriOS.c    ****     //CyPmHibernate();
 160:notoriOS.c    ****    //CyPmSleep(PM_SLEEP_TIME_NONE, PM_SLEEP_SRC_CTW & PM_SLEEP_SRC_PICU);
 161:notoriOS.c    **** 
 162:notoriOS.c    ****     CyPmSleep(PM_SLEEP_TIME_NONE, PM_SLEEP_SRC_CTW & PM_SLEEP_SRC_ONE_PPS);
 370              		.loc 1 162 0
 371 0010 4FF40061 		mov	r1, #2048
 372 0014 0020     		movs	r0, #0
 373 0016 FFF7FEFF 		bl	CyPmSleep
 163:notoriOS.c    **** 
 164:notoriOS.c    ****   
 165:notoriOS.c    ****     // Restore clock configuration
 166:notoriOS.c    ****     CyPmRestoreClocks();
 374              		.loc 1 166 0
 375 001a FFF7FEFF 		bl	CyPmRestoreClocks
 167:notoriOS.c    **** 
 168:notoriOS.c    ****     debug_wakeup();
 376              		.loc 1 168 0
 377 001e FFF7FEFF 		bl	debug_wakeup
 169:notoriOS.c    ****     modem_wakeup();
 378              		.loc 1 169 0
 379 0022 FFF7FEFF 		bl	modem_wakeup
 170:notoriOS.c    **** 
 171:notoriOS.c    ****     
 172:notoriOS.c    **** }
 380              		.loc 1 172 0
 381 0026 00BF     		nop
 382 0028 80BD     		pop	{r7, pc}
ARM GAS  C:\Users\HYFI_A~1\AppData\Local\Temp\ccb6s9SH.s 			page 11


 383              		.cfi_endproc
 384              	.LFE67:
 385              		.size	LayBack, .-LayBack
 386 002a 00BF     		.section	.text.AyoItsTime,"ax",%progbits
 387              		.align	2
 388              		.global	AyoItsTime
 389              		.thumb
 390              		.thumb_func
 391              		.type	AyoItsTime, %function
 392              	AyoItsTime:
 393              	.LFB68:
 173:notoriOS.c    **** 
 174:notoriOS.c    **** 
 175:notoriOS.c    **** // ==============================================
 176:notoriOS.c    **** // I never sleep, 'cause sleep is the cousin of death
 177:notoriOS.c    **** //      - NAS (1994)
 178:notoriOS.c    **** //
 179:notoriOS.c    **** // This is the scheduler. It's called from various interrupts and timers,
 180:notoriOS.c    **** // ...in particular from fuctions with in the real-tiem clock interrupts (RTC_INT.c)
 181:notoriOS.c    **** // It will add tasks to the work queue,
 182:notoriOS.c    **** // which will be executed eventually by WorkWorkWorkWorkWorkWork()
 183:notoriOS.c    **** // ==============================================
 184:notoriOS.c    **** void AyoItsTime(uint8 alarmType)
 185:notoriOS.c    **** {
 394              		.loc 1 185 0
 395              		.cfi_startproc
 396              		@ args = 0, pretend = 0, frame = 8
 397              		@ frame_needed = 1, uses_anonymous_args = 0
 398 0000 80B5     		push	{r7, lr}
 399              		.cfi_def_cfa_offset 8
 400              		.cfi_offset 7, -8
 401              		.cfi_offset 14, -4
 402 0002 82B0     		sub	sp, sp, #8
 403              		.cfi_def_cfa_offset 16
 404 0004 00AF     		add	r7, sp, #0
 405              		.cfi_def_cfa_register 7
 406 0006 0346     		mov	r3, r0
 407 0008 FB71     		strb	r3, [r7, #7]
 186:notoriOS.c    **** 
 187:notoriOS.c    ****     if(AlarmReady(&alarmMeasure,alarmType))
 408              		.loc 1 187 0
 409 000a FB79     		ldrb	r3, [r7, #7]	@ zero_extendqisi2
 410 000c 1946     		mov	r1, r3
 411 000e 0C48     		ldr	r0, .L17
 412 0010 FFF7FEFF 		bl	AlarmReady
 413 0014 0346     		mov	r3, r0
 414 0016 002B     		cmp	r3, #0
 415 0018 02D0     		beq	.L14
 188:notoriOS.c    ****     {
 189:notoriOS.c    ****          //flag new task as "ready" and pass off to workworkworkworkwork()
 190:notoriOS.c    ****         timeToMeasure = 1u;
 416              		.loc 1 190 0
 417 001a 0A4B     		ldr	r3, .L17+4
 418 001c 0122     		movs	r2, #1
 419 001e 1A70     		strb	r2, [r3]
 420              	.L14:
 191:notoriOS.c    ****         //printNotif(NOTIF_TYPE_EVENT,"Measure Alarm");
ARM GAS  C:\Users\HYFI_A~1\AppData\Local\Temp\ccb6s9SH.s 			page 12


 192:notoriOS.c    ****         
 193:notoriOS.c    ****     }
 194:notoriOS.c    ****     if(AlarmReady(&alarmSync,alarmType))
 421              		.loc 1 194 0
 422 0020 FB79     		ldrb	r3, [r7, #7]	@ zero_extendqisi2
 423 0022 1946     		mov	r1, r3
 424 0024 0848     		ldr	r0, .L17+8
 425 0026 FFF7FEFF 		bl	AlarmReady
 426 002a 0346     		mov	r3, r0
 427 002c 002B     		cmp	r3, #0
 428 002e 02D0     		beq	.L16
 195:notoriOS.c    ****     {
 196:notoriOS.c    ****         //create new task and pass off to workworkworkworkwork()
 197:notoriOS.c    ****         timeToSync = 1u;
 429              		.loc 1 197 0
 430 0030 064B     		ldr	r3, .L17+12
 431 0032 0122     		movs	r2, #1
 432 0034 1A70     		strb	r2, [r3]
 433              	.L16:
 198:notoriOS.c    ****          //printNotif(NOTIF_TYPE_EVENT,"Sync Alarm");
 199:notoriOS.c    ****     }
 200:notoriOS.c    ****     
 201:notoriOS.c    **** }
 434              		.loc 1 201 0
 435 0036 00BF     		nop
 436 0038 0837     		adds	r7, r7, #8
 437              		.cfi_def_cfa_offset 8
 438 003a BD46     		mov	sp, r7
 439              		.cfi_def_cfa_register 13
 440              		@ sp needed
 441 003c 80BD     		pop	{r7, pc}
 442              	.L18:
 443 003e 00BF     		.align	2
 444              	.L17:
 445 0040 00000000 		.word	alarmMeasure
 446 0044 00000000 		.word	timeToMeasure
 447 0048 00000000 		.word	alarmSync
 448 004c 00000000 		.word	timeToSync
 449              		.cfi_endproc
 450              	.LFE68:
 451              		.size	AyoItsTime, .-AyoItsTime
 452              		.section	.text.AlarmReady,"ax",%progbits
 453              		.align	2
 454              		.global	AlarmReady
 455              		.thumb
 456              		.thumb_func
 457              		.type	AlarmReady, %function
 458              	AlarmReady:
 459              	.LFB69:
 202:notoriOS.c    ****         
 203:notoriOS.c    **** uint8 AlarmReady(alarm * alarmToBeUpdated, uint8 alarmType)
 204:notoriOS.c    **** {
 460              		.loc 1 204 0
 461              		.cfi_startproc
 462              		@ args = 0, pretend = 0, frame = 8
 463              		@ frame_needed = 1, uses_anonymous_args = 0
 464 0000 80B5     		push	{r7, lr}
ARM GAS  C:\Users\HYFI_A~1\AppData\Local\Temp\ccb6s9SH.s 			page 13


 465              		.cfi_def_cfa_offset 8
 466              		.cfi_offset 7, -8
 467              		.cfi_offset 14, -4
 468 0002 82B0     		sub	sp, sp, #8
 469              		.cfi_def_cfa_offset 16
 470 0004 00AF     		add	r7, sp, #0
 471              		.cfi_def_cfa_register 7
 472 0006 7860     		str	r0, [r7, #4]
 473 0008 0B46     		mov	r3, r1
 474 000a FB70     		strb	r3, [r7, #3]
 205:notoriOS.c    ****     if(alarmToBeUpdated->countDownType == alarmType){
 475              		.loc 1 205 0
 476 000c 7B68     		ldr	r3, [r7, #4]
 477 000e 1B79     		ldrb	r3, [r3, #4]
 478 0010 DBB2     		uxtb	r3, r3
 479 0012 FA78     		ldrb	r2, [r7, #3]	@ zero_extendqisi2
 480 0014 9A42     		cmp	r2, r3
 481 0016 12D1     		bne	.L20
 206:notoriOS.c    ****        
 207:notoriOS.c    ****        alarmToBeUpdated->currentCountDownValue--;
 482              		.loc 1 207 0
 483 0018 7B68     		ldr	r3, [r7, #4]
 484 001a 5B88     		ldrh	r3, [r3, #2]	@ movhi
 485 001c 1BB2     		sxth	r3, r3
 486 001e 9BB2     		uxth	r3, r3
 487 0020 013B     		subs	r3, r3, #1
 488 0022 9BB2     		uxth	r3, r3
 489 0024 1AB2     		sxth	r2, r3
 490 0026 7B68     		ldr	r3, [r7, #4]
 491 0028 5A80     		strh	r2, [r3, #2]	@ movhi
 208:notoriOS.c    ****        if(alarmToBeUpdated->currentCountDownValue <= 0){
 492              		.loc 1 208 0
 493 002a 7B68     		ldr	r3, [r7, #4]
 494 002c 5B88     		ldrh	r3, [r3, #2]	@ movhi
 495 002e 1BB2     		sxth	r3, r3
 496 0030 002B     		cmp	r3, #0
 497 0032 04DC     		bgt	.L20
 209:notoriOS.c    ****             ResetAlarm(alarmToBeUpdated);
 498              		.loc 1 209 0
 499 0034 7868     		ldr	r0, [r7, #4]
 500 0036 FFF7FEFF 		bl	ResetAlarm
 210:notoriOS.c    ****             return 1u;
 501              		.loc 1 210 0
 502 003a 0123     		movs	r3, #1
 503 003c 00E0     		b	.L21
 504              	.L20:
 211:notoriOS.c    ****         } 
 212:notoriOS.c    ****     }
 213:notoriOS.c    ****     
 214:notoriOS.c    ****     return 0u;
 505              		.loc 1 214 0
 506 003e 0023     		movs	r3, #0
 507              	.L21:
 215:notoriOS.c    **** }
 508              		.loc 1 215 0
 509 0040 1846     		mov	r0, r3
 510 0042 0837     		adds	r7, r7, #8
ARM GAS  C:\Users\HYFI_A~1\AppData\Local\Temp\ccb6s9SH.s 			page 14


 511              		.cfi_def_cfa_offset 8
 512 0044 BD46     		mov	sp, r7
 513              		.cfi_def_cfa_register 13
 514              		@ sp needed
 515 0046 80BD     		pop	{r7, pc}
 516              		.cfi_endproc
 517              	.LFE69:
 518              		.size	AlarmReady, .-AlarmReady
 519              		.section	.text.ResetAlarm,"ax",%progbits
 520              		.align	2
 521              		.global	ResetAlarm
 522              		.thumb
 523              		.thumb_func
 524              		.type	ResetAlarm, %function
 525              	ResetAlarm:
 526              	.LFB70:
 216:notoriOS.c    **** 
 217:notoriOS.c    **** void ResetAlarm(alarm * alarmToBeReset)
 218:notoriOS.c    **** {
 527              		.loc 1 218 0
 528              		.cfi_startproc
 529              		@ args = 0, pretend = 0, frame = 8
 530              		@ frame_needed = 1, uses_anonymous_args = 0
 531              		@ link register save eliminated.
 532 0000 80B4     		push	{r7}
 533              		.cfi_def_cfa_offset 4
 534              		.cfi_offset 7, -4
 535 0002 83B0     		sub	sp, sp, #12
 536              		.cfi_def_cfa_offset 16
 537 0004 00AF     		add	r7, sp, #0
 538              		.cfi_def_cfa_register 7
 539 0006 7860     		str	r0, [r7, #4]
 219:notoriOS.c    ****     alarmToBeReset->currentCountDownValue = alarmToBeReset->countDownValue;
 540              		.loc 1 219 0
 541 0008 7B68     		ldr	r3, [r7, #4]
 542 000a 1B88     		ldrh	r3, [r3]	@ movhi
 543 000c 9BB2     		uxth	r3, r3
 544 000e 1AB2     		sxth	r2, r3
 545 0010 7B68     		ldr	r3, [r7, #4]
 546 0012 5A80     		strh	r2, [r3, #2]	@ movhi
 220:notoriOS.c    **** }
 547              		.loc 1 220 0
 548 0014 00BF     		nop
 549 0016 0C37     		adds	r7, r7, #12
 550              		.cfi_def_cfa_offset 4
 551 0018 BD46     		mov	sp, r7
 552              		.cfi_def_cfa_register 13
 553              		@ sp needed
 554 001a 80BC     		pop	{r7}
 555              		.cfi_restore 7
 556              		.cfi_def_cfa_offset 0
 557 001c 7047     		bx	lr
 558              		.cfi_endproc
 559              	.LFE70:
 560              		.size	ResetAlarm, .-ResetAlarm
 561 001e 00BF     		.section	.text.CreateAlarm,"ax",%progbits
 562              		.align	2
ARM GAS  C:\Users\HYFI_A~1\AppData\Local\Temp\ccb6s9SH.s 			page 15


 563              		.global	CreateAlarm
 564              		.thumb
 565              		.thumb_func
 566              		.type	CreateAlarm, %function
 567              	CreateAlarm:
 568              	.LFB71:
 221:notoriOS.c    **** 
 222:notoriOS.c    **** // ==============================================
 223:notoriOS.c    **** // Creates a new alarm, which will be handeled by another cutions
 224:notoriOS.c    **** // ==============================================
 225:notoriOS.c    **** 
 226:notoriOS.c    **** alarm CreateAlarm(uint16 countDownValue, uint8 countDownType,uint8 countDownResetCondition)
 227:notoriOS.c    **** {
 569              		.loc 1 227 0
 570              		.cfi_startproc
 571              		@ args = 0, pretend = 0, frame = 16
 572              		@ frame_needed = 1, uses_anonymous_args = 0
 573              		@ link register save eliminated.
 574 0000 80B4     		push	{r7}
 575              		.cfi_def_cfa_offset 4
 576              		.cfi_offset 7, -4
 577 0002 85B0     		sub	sp, sp, #20
 578              		.cfi_def_cfa_offset 24
 579 0004 00AF     		add	r7, sp, #0
 580              		.cfi_def_cfa_register 7
 581 0006 7860     		str	r0, [r7, #4]
 582 0008 0846     		mov	r0, r1
 583 000a 1146     		mov	r1, r2
 584 000c 1A46     		mov	r2, r3
 585 000e 0346     		mov	r3, r0	@ movhi
 586 0010 7B80     		strh	r3, [r7, #2]	@ movhi
 587 0012 0B46     		mov	r3, r1
 588 0014 7B70     		strb	r3, [r7, #1]
 589 0016 1346     		mov	r3, r2
 590 0018 3B70     		strb	r3, [r7]
 228:notoriOS.c    ****     alarm newAlarm;
 229:notoriOS.c    ****     
 230:notoriOS.c    ****     newAlarm.countDownValue = countDownValue;
 591              		.loc 1 230 0
 592 001a 7B88     		ldrh	r3, [r7, #2]	@ movhi
 593 001c 3B81     		strh	r3, [r7, #8]	@ movhi
 231:notoriOS.c    ****     newAlarm.countDownType = countDownType;
 594              		.loc 1 231 0
 595 001e 7B78     		ldrb	r3, [r7, #1]
 596 0020 3B73     		strb	r3, [r7, #12]
 232:notoriOS.c    ****     newAlarm.countDownResetCondition = countDownResetCondition;
 597              		.loc 1 232 0
 598 0022 3B78     		ldrb	r3, [r7]
 599 0024 7B73     		strb	r3, [r7, #13]
 233:notoriOS.c    ****     
 234:notoriOS.c    ****     //if you want a reccuring alarm (e.g. resets freshly each hour), then add
 235:notoriOS.c    ****     //account for already exprired time using the RTC. Otherwise, set to the countDownValue
 236:notoriOS.c    ****     newAlarm.currentCountDownValue = countDownValue;
 600              		.loc 1 236 0
 601 0026 B7F90230 		ldrsh	r3, [r7, #2]
 602 002a 7B81     		strh	r3, [r7, #10]	@ movhi
 237:notoriOS.c    ****     
ARM GAS  C:\Users\HYFI_A~1\AppData\Local\Temp\ccb6s9SH.s 			page 16


 238:notoriOS.c    ****     return newAlarm;
 603              		.loc 1 238 0
 604 002c 7B68     		ldr	r3, [r7, #4]
 605 002e 1A46     		mov	r2, r3
 606 0030 07F10803 		add	r3, r7, #8
 607 0034 1868     		ldr	r0, [r3]	@ unaligned
 608 0036 1060     		str	r0, [r2]	@ unaligned
 609 0038 9B88     		ldrh	r3, [r3, #4]	@ unaligned
 610 003a 9380     		strh	r3, [r2, #4]	@ unaligned
 239:notoriOS.c    ****     
 240:notoriOS.c    **** }
 611              		.loc 1 240 0
 612 003c 7868     		ldr	r0, [r7, #4]
 613 003e 1437     		adds	r7, r7, #20
 614              		.cfi_def_cfa_offset 4
 615 0040 BD46     		mov	sp, r7
 616              		.cfi_def_cfa_register 13
 617              		@ sp needed
 618 0042 80BC     		pop	{r7}
 619              		.cfi_restore 7
 620              		.cfi_def_cfa_offset 0
 621 0044 7047     		bx	lr
 622              		.cfi_endproc
 623              	.LFE71:
 624              		.size	CreateAlarm, .-CreateAlarm
 625 0046 00BF     		.section	.rodata
 626 0077 00       		.align	2
 627              	.LC6:
 628 0078 2D2D2D2D 		.ascii	"-------------BEGIN TESTS---------------\012\012\000"
 628      2D2D2D2D 
 628      2D2D2D2D 
 628      2D424547 
 628      494E2054 
 629 00a2 0000     		.align	2
 630              	.LC7:
 631 00a4 4D454944 		.ascii	"MEID=%s, SIMID=%s, DEVICEID=%s\012\000"
 631      3D25732C 
 631      2053494D 
 631      49443D25 
 631      732C2044 
 632              		.align	2
 633              	.LC8:
 634 00c4 0A0A2D2D 		.ascii	"\012\012-------------END TESTS---------------\012\012"
 634      2D2D2D2D 
 634      2D2D2D2D 
 634      2D2D2D45 
 634      4E442054 
 635 00ed 00       		.ascii	"\000"
 636              		.section	.text.ChickityCheckYourselfBeforeYouWreckYourself,"ax",%progbits
 637              		.align	2
 638              		.global	ChickityCheckYourselfBeforeYouWreckYourself
 639              		.thumb
 640              		.thumb_func
 641              		.type	ChickityCheckYourselfBeforeYouWreckYourself, %function
 642              	ChickityCheckYourselfBeforeYouWreckYourself:
 643              	.LFB72:
 241:notoriOS.c    **** 
ARM GAS  C:\Users\HYFI_A~1\AppData\Local\Temp\ccb6s9SH.s 			page 17


 242:notoriOS.c    **** // ==============================================
 243:notoriOS.c    **** // Dropping bombs on your moms
 244:notoriOS.c    **** //      - Ice Cube (1992)
 245:notoriOS.c    **** //
 246:notoriOS.c    **** // This is the global testing function, which runs all relevant tests
 247:notoriOS.c    **** // If you make a new components, it could be good to call its tester function here 
 248:notoriOS.c    **** // ==============================================
 249:notoriOS.c    **** void ChickityCheckYourselfBeforeYouWreckYourself(){
 644              		.loc 1 249 0
 645              		.cfi_startproc
 646              		@ args = 0, pretend = 0, frame = 1552
 647              		@ frame_needed = 1, uses_anonymous_args = 0
 648 0000 90B5     		push	{r4, r7, lr}
 649              		.cfi_def_cfa_offset 12
 650              		.cfi_offset 4, -12
 651              		.cfi_offset 7, -8
 652              		.cfi_offset 14, -4
 653 0002 ADF28C7D 		subw	sp, sp, #1932
 654              		.cfi_def_cfa_offset 1944
 655 0006 5EAF     		add	r7, sp, #376
 656              		.cfi_def_cfa 7, 1568
 250:notoriOS.c    **** 
 251:notoriOS.c    ****     
 252:notoriOS.c    ****     //test_t t_modem = modem_test();
 253:notoriOS.c    ****     //test_t t_influx = influx_test();
 254:notoriOS.c    ****     //printTestStatus(t_influx);
 255:notoriOS.c    ****     
 256:notoriOS.c    ****     test_t t_modem = modem_test();
 657              		.loc 1 256 0
 658 0008 07F28C43 		addw	r3, r7, #1164
 659 000c 1846     		mov	r0, r3
 660 000e FFF7FEFF 		bl	modem_test
 257:notoriOS.c    ****     printNotif(NOTIF_TYPE_EVENT,"-------------BEGIN TESTS---------------\n\n");
 661              		.loc 1 257 0
 662 0012 2D49     		ldr	r1, .L26
 663 0014 0020     		movs	r0, #0
 664 0016 FFF7FEFF 		bl	printNotif
 258:notoriOS.c    ****     printNotif(NOTIF_TYPE_EVENT,"MEID=%s, SIMID=%s, DEVICEID=%s\n",modem_info.imei,modem_info.sim_i
 665              		.loc 1 258 0
 666 001a 2C4B     		ldr	r3, .L26+4
 667 001c 0093     		str	r3, [sp]
 668 001e 2C4B     		ldr	r3, .L26+8
 669 0020 2C4A     		ldr	r2, .L26+12
 670 0022 2D49     		ldr	r1, .L26+16
 671 0024 0020     		movs	r0, #0
 672 0026 FFF7FEFF 		bl	printNotif
 259:notoriOS.c    ****     printTestStatus(t_modem);
 673              		.loc 1 259 0
 674 002a 07F28C44 		addw	r4, r7, #1164
 675 002e 6846     		mov	r0, sp
 676 0030 04F11003 		add	r3, r4, #16
 677 0034 40F27112 		movw	r2, #369
 678 0038 1946     		mov	r1, r3
 679 003a FFF7FEFF 		bl	memcpy
 680 003e 94E80F00 		ldmia	r4, {r0, r1, r2, r3}
 681 0042 FFF7FEFF 		bl	printTestStatus
 260:notoriOS.c    ****     
ARM GAS  C:\Users\HYFI_A~1\AppData\Local\Temp\ccb6s9SH.s 			page 18


 261:notoriOS.c    ****     test_t t_level_sensor = level_sensor_test();//test level sensor  
 682              		.loc 1 261 0
 683 0046 07F54273 		add	r3, r7, #776
 684 004a 1846     		mov	r0, r3
 685 004c FFF7FEFF 		bl	level_sensor_test
 262:notoriOS.c    ****     printTestStatus(t_level_sensor);
 686              		.loc 1 262 0
 687 0050 07F54274 		add	r4, r7, #776
 688 0054 6846     		mov	r0, sp
 689 0056 04F11003 		add	r3, r4, #16
 690 005a 40F27112 		movw	r2, #369
 691 005e 1946     		mov	r1, r3
 692 0060 FFF7FEFF 		bl	memcpy
 693 0064 94E80F00 		ldmia	r4, {r0, r1, r2, r3}
 694 0068 FFF7FEFF 		bl	printTestStatus
 263:notoriOS.c    ****     test_t t_voltages = voltages_test();
 695              		.loc 1 263 0
 696 006c 07F5C273 		add	r3, r7, #388
 697 0070 1846     		mov	r0, r3
 698 0072 FFF7FEFF 		bl	voltages_test
 264:notoriOS.c    ****     printTestStatus(t_voltages);
 699              		.loc 1 264 0
 700 0076 07F5C274 		add	r4, r7, #388
 701 007a 6846     		mov	r0, sp
 702 007c 04F11003 		add	r3, r4, #16
 703 0080 40F27112 		movw	r2, #369
 704 0084 1946     		mov	r1, r3
 705 0086 FFF7FEFF 		bl	memcpy
 706 008a 94E80F00 		ldmia	r4, {r0, r1, r2, r3}
 707 008e FFF7FEFF 		bl	printTestStatus
 265:notoriOS.c    ****     test_t t_sd_card = SD_card_test();
 708              		.loc 1 265 0
 709 0092 3B46     		mov	r3, r7
 710 0094 1846     		mov	r0, r3
 711 0096 FFF7FEFF 		bl	SD_card_test
 266:notoriOS.c    ****     printTestStatus(t_sd_card);
 712              		.loc 1 266 0
 713 009a 3C46     		mov	r4, r7
 714 009c 6846     		mov	r0, sp
 715 009e 04F11003 		add	r3, r4, #16
 716 00a2 40F27112 		movw	r2, #369
 717 00a6 1946     		mov	r1, r3
 718 00a8 FFF7FEFF 		bl	memcpy
 719 00ac 94E80F00 		ldmia	r4, {r0, r1, r2, r3}
 720 00b0 FFF7FEFF 		bl	printTestStatus
 267:notoriOS.c    ****     
 268:notoriOS.c    ****     printNotif(NOTIF_TYPE_EVENT,"\n\n-------------END TESTS---------------\n\n");
 721              		.loc 1 268 0
 722 00b4 0949     		ldr	r1, .L26+20
 723 00b6 0020     		movs	r0, #0
 724 00b8 FFF7FEFF 		bl	printNotif
 269:notoriOS.c    ****   
 270:notoriOS.c    ****     //test modem
 271:notoriOS.c    ****     //test SD card
 272:notoriOS.c    ****     //analog: test battery voltage, solar voltage, and solar current
 273:notoriOS.c    ****       
 274:notoriOS.c    ****   
ARM GAS  C:\Users\HYFI_A~1\AppData\Local\Temp\ccb6s9SH.s 			page 19


 275:notoriOS.c    **** }
 725              		.loc 1 275 0
 726 00bc 00BF     		nop
 727 00be 07F21467 		addw	r7, r7, #1556
 728              		.cfi_def_cfa_offset 12
 729 00c2 BD46     		mov	sp, r7
 730              		.cfi_def_cfa_register 13
 731              		@ sp needed
 732 00c4 90BD     		pop	{r4, r7, pc}
 733              	.L27:
 734 00c6 00BF     		.align	2
 735              	.L26:
 736 00c8 78000000 		.word	.LC6
 737 00cc 04000000 		.word	system_info+4
 738 00d0 00000000 		.word	modem_info
 739 00d4 28000000 		.word	modem_info+40
 740 00d8 A4000000 		.word	.LC7
 741 00dc C4000000 		.word	.LC8
 742              		.cfi_endproc
 743              	.LFE72:
 744              		.size	ChickityCheckYourselfBeforeYouWreckYourself, .-ChickityCheckYourselfBeforeYouWreckYourself
 745              		.section	.text.main,"ax",%progbits
 746              		.align	2
 747              		.global	main
 748              		.thumb
 749              		.thumb_func
 750              		.type	main, %function
 751              	main:
 752              	.LFB73:
 276:notoriOS.c    **** 
 277:notoriOS.c    **** 
 278:notoriOS.c    **** int main(void)
 279:notoriOS.c    **** {
 753              		.loc 1 279 0
 754              		.cfi_startproc
 755              		@ args = 0, pretend = 0, frame = 0
 756              		@ frame_needed = 1, uses_anonymous_args = 0
 757 0000 80B5     		push	{r7, lr}
 758              		.cfi_def_cfa_offset 8
 759              		.cfi_offset 7, -8
 760              		.cfi_offset 14, -4
 761 0002 00AF     		add	r7, sp, #0
 762              		.cfi_def_cfa_register 7
 280:notoriOS.c    ****     CyGlobalIntEnable; /* Enable global interrupts. */
 763              		.loc 1 280 0
 764              		.syntax unified
 765              	@ 280 "notoriOS.c" 1
 766 0004 62B6     		CPSIE   i
 767              	@ 0 "" 2
 281:notoriOS.c    **** 
 282:notoriOS.c    ****     ReadyOrNot();
 768              		.loc 1 282 0
 769              		.thumb
 770              		.syntax unified
 771 0006 FFF7FEFF 		bl	ReadyOrNot
 283:notoriOS.c    ****     
 284:notoriOS.c    ****     //run tests for all components on bootup
ARM GAS  C:\Users\HYFI_A~1\AppData\Local\Temp\ccb6s9SH.s 			page 20


 285:notoriOS.c    ****     ChickityCheckYourselfBeforeYouWreckYourself();
 772              		.loc 1 285 0
 773 000a FFF7FEFF 		bl	ChickityCheckYourselfBeforeYouWreckYourself
 774              	.L30:
 286:notoriOS.c    ****    
 287:notoriOS.c    ****     for(;;)
 288:notoriOS.c    ****     {
 289:notoriOS.c    ****        if( ! WorkWorkWorkWorkWorkWork() )
 775              		.loc 1 289 0
 776 000e FFF7FEFF 		bl	WorkWorkWorkWorkWorkWork
 777 0012 0346     		mov	r3, r0
 778 0014 002B     		cmp	r3, #0
 779 0016 FAD1     		bne	.L30
 290:notoriOS.c    ****        {
 291:notoriOS.c    ****            LayBack();
 780              		.loc 1 291 0
 781 0018 FFF7FEFF 		bl	LayBack
 292:notoriOS.c    ****        }
 293:notoriOS.c    ****     }
 782              		.loc 1 293 0
 783 001c F7E7     		b	.L30
 784              		.cfi_endproc
 785              	.LFE73:
 786              		.size	main, .-main
 787 001e 00BF     		.section	.rodata
 788 00ee 0000     		.align	2
 789              	.LC9:
 790 00f0 4D6F6465 		.ascii	"Modem is ready.\000"
 790      6D206973 
 790      20726561 
 790      64792E00 
 791              		.align	2
 792              	.LC10:
 793 0100 77726974 		.ascii	"write\000"
 793      6500
 794 0106 0000     		.align	2
 795              	.LC11:
 796 0108 256400   		.ascii	"%d\000"
 797 010b 00       		.align	2
 798              	.LC12:
 799 010c 64617461 		.ascii	"data_stack_count\000"
 799      5F737461 
 799      636B5F63 
 799      6F756E74 
 799      00
 800 011d 000000   		.align	2
 801              	.LC13:
 802 0120 42656769 		.ascii	"Begin HTTP post.\000"
 802      6E204854 
 802      54502070 
 802      6F73742E 
 802      00
 803 0131 000000   		.align	2
 804              	.LC14:
 805 0134 424B362D 		.ascii	"BK6-24-MANUAL\000"
 805      32342D4D 
 805      414E5541 
ARM GAS  C:\Users\HYFI_A~1\AppData\Local\Temp\ccb6s9SH.s 			page 21


 805      4C00
 806 0142 0000     		.align	2
 807              	.LC15:
 808 0144 6170692F 		.ascii	"api/v1/write\000"
 808      76312F77 
 808      72697465 
 808      00
 809 0151 000000   		.align	2
 810              	.LC16:
 811 0154 48545450 		.ascii	"HTTP route: %s\000"
 811      20726F75 
 811      74653A20 
 811      257300
 812 0163 00       		.align	2
 813              	.LC17:
 814 0164 312E3100 		.ascii	"1.1\000"
 815              		.align	2
 816              	.LC18:
 817 0168 00       		.ascii	"\000"
 818 0169 000000   		.align	2
 819              	.LC19:
 820 016c 436C6F73 		.ascii	"Close\000"
 820      6500
 821 0172 0000     		.align	2
 822              	.LC20:
 823 0174 504F5354 		.ascii	"POST\000"
 823      00
 824 0179 000000   		.align	2
 825              	.LC21:
 826 017c 46756C6C 		.ascii	"Full HTTP Request: %s\000"
 826      20485454 
 826      50205265 
 826      71756573 
 826      743A2025 
 827 0192 0000     		.align	2
 828              	.LC22:
 829 0194 41542353 		.ascii	"AT#SD=1,0,%d,\"%s\",0,0,1\015\000"
 829      443D312C 
 829      302C2564 
 829      2C222573 
 829      222C302C 
 830 01ad 000000   		.align	2
 831              	.LC23:
 832 01b0 257300   		.ascii	"%s\000"
 833 01b3 00       		.align	2
 834              	.LC24:
 835 01b4 4F4B00   		.ascii	"OK\000"
 836 01b7 00       		.align	2
 837              	.LC25:
 838 01b8 3E00     		.ascii	">\000"
 839 01ba 0000     		.align	2
 840              	.LC26:
 841 01bc 41542353 		.ascii	"AT#SSEND=1\015\012\000"
 841      53454E44 
 841      3D310D0A 
 841      00
 842 01c9 000000   		.align	2
ARM GAS  C:\Users\HYFI_A~1\AppData\Local\Temp\ccb6s9SH.s 			page 22


 843              	.LC27:
 844 01cc 1A00     		.ascii	"\032\000"
 845 01ce 0000     		.align	2
 846              	.LC28:
 847 01d0 5352494E 		.ascii	"SRING\000"
 847      4700
 848 01d6 0000     		.align	2
 849              	.LC29:
 850 01d8 32303420 		.ascii	"204 NO CONTENT\000"
 850      4E4F2043 
 850      4F4E5445 
 850      4E5400
 851 01e7 00       		.align	2
 852              	.LC30:
 853 01e8 41542353 		.ascii	"AT#SRECV=1,1000\015\000"
 853      52454356 
 853      3D312C31 
 853      3030300D 
 853      00
 854 01f9 000000   		.align	2
 855              	.LC31:
 856 01fc 6D6F6465 		.ascii	"modem_tx_time\000"
 856      6D5F7478 
 856      5F74696D 
 856      6500
 857              		.section	.text.syncData,"ax",%progbits
 858              		.align	2
 859              		.global	syncData
 860              		.thumb
 861              		.thumb_func
 862              		.type	syncData, %function
 863              	syncData:
 864              	.LFB74:
 294:notoriOS.c    **** }
 295:notoriOS.c    **** 
 296:notoriOS.c    **** //syncs data with server
 297:notoriOS.c    **** //retunrns zero when done
 298:notoriOS.c    **** uint8 syncData(){
 865              		.loc 1 298 0
 866              		.cfi_startproc
 867              		@ args = 0, pretend = 0, frame = 248
 868              		@ frame_needed = 1, uses_anonymous_args = 0
 869 0000 80B5     		push	{r7, lr}
 870              		.cfi_def_cfa_offset 8
 871              		.cfi_offset 7, -8
 872              		.cfi_offset 14, -4
 873 0002 C4B0     		sub	sp, sp, #272
 874              		.cfi_def_cfa_offset 280
 875 0004 06AF     		add	r7, sp, #24
 876              		.cfi_def_cfa 7, 256
 299:notoriOS.c    ****     
 300:notoriOS.c    ****     /*
 301:notoriOS.c    ****     //at_write_command("AT#SCFG?\r","OK",1000);
 302:notoriOS.c    ****     uint8 check = 0;
 303:notoriOS.c    ****     //"AT#SD=,0,80,\www.google.com\,0,0,0\r"
 304:notoriOS.c    ****     check = at_write_command("AT#SD=1,0,8086,\"data.open-storm.org\",0,0,1\r","OK",10000u);
 305:notoriOS.c    ****     check = at_write_command("AT#SSEND=1\r\n",   ">", 1000u);
ARM GAS  C:\Users\HYFI_A~1\AppData\Local\Temp\ccb6s9SH.s 			page 23


 306:notoriOS.c    ****     check = at_write_command("POST /write?db=ARB&u=generic_node&p=MakeFloodsCurrents HTTP/1.1\r\nHo
 307:notoriOS.c    ****     */
 308:notoriOS.c    ****     
 309:notoriOS.c    ****     LED_Write(1u);
 877              		.loc 1 309 0
 878 0006 0120     		movs	r0, #1
 879 0008 FFF7FEFF 		bl	LED_Write
 310:notoriOS.c    ****     CyDelay(100u);
 880              		.loc 1 310 0
 881 000c 6420     		movs	r0, #100
 882 000e FFF7FEFF 		bl	CyDelay
 311:notoriOS.c    ****     LED_Write(0u);
 883              		.loc 1 311 0
 884 0012 0020     		movs	r0, #0
 885 0014 FFF7FEFF 		bl	LED_Write
 312:notoriOS.c    ****     
 313:notoriOS.c    ****     //if there's no data, not need to do anything
 314:notoriOS.c    ****     if(sizeOfDataStack() == 0){
 886              		.loc 1 314 0
 887 0018 FFF7FEFF 		bl	sizeOfDataStack
 888 001c 0346     		mov	r3, r0
 889 001e 002B     		cmp	r3, #0
 890 0020 01D1     		bne	.L32
 315:notoriOS.c    ****         return 0u;
 891              		.loc 1 315 0
 892 0022 0023     		movs	r3, #0
 893 0024 D1E0     		b	.L33
 894              	.L32:
 316:notoriOS.c    ****     }
 317:notoriOS.c    ****     
 318:notoriOS.c    ****     //create request body, in this case influx
 319:notoriOS.c    ****     //place body into HTTP request header
 320:notoriOS.c    ****     //fire up modem and get it out
 321:notoriOS.c    ****        
 322:notoriOS.c    ****      
 323:notoriOS.c    ****      if(modem_get_state() == MODEM_STATE_OFF){
 895              		.loc 1 323 0
 896 0026 FFF7FEFF 		bl	modem_get_state
 897 002a 0346     		mov	r3, r0
 898 002c 002B     		cmp	r3, #0
 899 002e 02D1     		bne	.L34
 324:notoriOS.c    ****             
 325:notoriOS.c    ****             modem_power_up();
 900              		.loc 1 325 0
 901 0030 FFF7FEFF 		bl	modem_power_up
 902 0034 C8E0     		b	.L35
 903              	.L34:
 326:notoriOS.c    ****             //should put this on a max_try counter, so we don't just keep trying to connect over an
 327:notoriOS.c    ****             
 328:notoriOS.c    ****       }else if(modem_get_state() == MODEM_STATE_READY){
 904              		.loc 1 328 0
 905 0036 FFF7FEFF 		bl	modem_get_state
 906 003a 0346     		mov	r3, r0
 907 003c 042B     		cmp	r3, #4
 908 003e 40F0C380 		bne	.L35
 909              	.LBB2:
 329:notoriOS.c    ****             printNotif(NOTIF_TYPE_EVENT,"Modem is ready.");
ARM GAS  C:\Users\HYFI_A~1\AppData\Local\Temp\ccb6s9SH.s 			page 24


 910              		.loc 1 329 0
 911 0042 6449     		ldr	r1, .L38
 912 0044 0020     		movs	r0, #0
 913 0046 FFF7FEFF 		bl	printNotif
 330:notoriOS.c    ****             
 331:notoriOS.c    ****             
 332:notoriOS.c    ****             http_request[0] = '\0';
 914              		.loc 1 332 0
 915 004a 634B     		ldr	r3, .L38+4
 916 004c 0022     		movs	r2, #0
 917 004e 1A70     		strb	r2, [r3]
 333:notoriOS.c    ****             http_body[0] = '\0';
 918              		.loc 1 333 0
 919 0050 624B     		ldr	r3, .L38+8
 920 0052 0022     		movs	r2, #0
 921 0054 1A70     		strb	r2, [r3]
 334:notoriOS.c    ****             http_route[0] = '\0';
 922              		.loc 1 334 0
 923 0056 624B     		ldr	r3, .L38+12
 924 0058 0022     		movs	r2, #0
 925 005a 1A70     		strb	r2, [r3]
 335:notoriOS.c    ****             char *base = "write";
 926              		.loc 1 335 0
 927 005c 614B     		ldr	r3, .L38+16
 928 005e C7F8F430 		str	r3, [r7, #244]
 336:notoriOS.c    ****        
 337:notoriOS.c    ****             //get size of data stack
 338:notoriOS.c    ****             uint16 data_stack_count = sizeOfDataStack();
 929              		.loc 1 338 0
 930 0062 FFF7FEFF 		bl	sizeOfDataStack
 931 0066 0346     		mov	r3, r0
 932 0068 A7F8F230 		strh	r3, [r7, #242]	@ movhi
 339:notoriOS.c    ****             char c_data_stack_count[20];
 340:notoriOS.c    ****             snprintf(c_data_stack_count,sizeof(c_data_stack_count),"%d",data_stack_count);
 933              		.loc 1 340 0
 934 006c B7F8F230 		ldrh	r3, [r7, #242]
 935 0070 07F1D400 		add	r0, r7, #212
 936 0074 5C4A     		ldr	r2, .L38+20
 937 0076 1421     		movs	r1, #20
 938 0078 FFF7FEFF 		bl	snprintf
 341:notoriOS.c    ****             pushData("data_stack_count",c_data_stack_count,getTimeStamp());
 939              		.loc 1 341 0
 940 007c FFF7FEFF 		bl	getTimeStamp
 941 0080 0246     		mov	r2, r0
 942 0082 07F1D403 		add	r3, r7, #212
 943 0086 1946     		mov	r1, r3
 944 0088 5848     		ldr	r0, .L38+24
 945 008a FFF7FEFF 		bl	pushData
 342:notoriOS.c    ****             
 343:notoriOS.c    ****             
 344:notoriOS.c    ****             //construct HTPP request
 345:notoriOS.c    ****             printNotif(NOTIF_TYPE_EVENT,"Begin HTTP post.");
 946              		.loc 1 345 0
 947 008e 5849     		ldr	r1, .L38+28
 948 0090 0020     		movs	r0, #0
 949 0092 FFF7FEFF 		bl	printNotif
 346:notoriOS.c    ****             
ARM GAS  C:\Users\HYFI_A~1\AppData\Local\Temp\ccb6s9SH.s 			page 25


 347:notoriOS.c    ****             //old influx API
 348:notoriOS.c    ****             //construct_influx_route(http_route,base,system_settings.ep_user,system_settings.ep_psw
 349:notoriOS.c    ****             construct_malcom_route(http_route,"api/v1/write",modem_info.imei,HASH_KEY);
 950              		.loc 1 349 0
 951 0096 574B     		ldr	r3, .L38+32
 952 0098 574A     		ldr	r2, .L38+36
 953 009a 5849     		ldr	r1, .L38+40
 954 009c 5048     		ldr	r0, .L38+12
 955 009e FFF7FEFF 		bl	construct_malcom_route
 350:notoriOS.c    ****             
 351:notoriOS.c    ****             printNotif(NOTIF_TYPE_EVENT,"HTTP route: %s", http_route);
 956              		.loc 1 351 0
 957 00a2 4F4A     		ldr	r2, .L38+12
 958 00a4 5649     		ldr	r1, .L38+44
 959 00a6 0020     		movs	r0, #0
 960 00a8 FFF7FEFF 		bl	printNotif
 352:notoriOS.c    ****             
 353:notoriOS.c    ****             //OLD INFLUX APIE
 354:notoriOS.c    ****             //construct_influx_write_body(http_body,system_settings.node_id);
 355:notoriOS.c    ****             construct_malcom_body(http_body);
 961              		.loc 1 355 0
 962 00ac 4B48     		ldr	r0, .L38+8
 963 00ae FFF7FEFF 		bl	construct_malcom_body
 356:notoriOS.c    ****        
 357:notoriOS.c    ****             construct_generic_HTTP_request(http_request,http_body,system_settings.ep_host,http_rout
 964              		.loc 1 357 0
 965 00b2 544B     		ldr	r3, .L38+48
 966 00b4 9B6F     		ldr	r3, [r3, #120]
 967 00b6 544A     		ldr	r2, .L38+52
 968 00b8 0592     		str	r2, [sp, #20]
 969 00ba 0022     		movs	r2, #0
 970 00bc 0492     		str	r2, [sp, #16]
 971 00be 534A     		ldr	r2, .L38+56
 972 00c0 0392     		str	r2, [sp, #12]
 973 00c2 534A     		ldr	r2, .L38+60
 974 00c4 0292     		str	r2, [sp, #8]
 975 00c6 534A     		ldr	r2, .L38+64
 976 00c8 0192     		str	r2, [sp, #4]
 977 00ca 0093     		str	r3, [sp]
 978 00cc 444B     		ldr	r3, .L38+12
 979 00ce 524A     		ldr	r2, .L38+68
 980 00d0 4249     		ldr	r1, .L38+8
 981 00d2 4148     		ldr	r0, .L38+4
 982 00d4 FFF7FEFF 		bl	construct_generic_HTTP_request
 358:notoriOS.c    ****             
 359:notoriOS.c    ****             printNotif(NOTIF_TYPE_EVENT,"Full HTTP Request: %s", http_request);
 983              		.loc 1 359 0
 984 00d8 3F4A     		ldr	r2, .L38+4
 985 00da 5049     		ldr	r1, .L38+72
 986 00dc 0020     		movs	r0, #0
 987 00de FFF7FEFF 		bl	printNotif
 360:notoriOS.c    ****             
 361:notoriOS.c    ****            
 362:notoriOS.c    ****             //push request to modem and escaope with <ctrl+z> escape sequence
 363:notoriOS.c    ****             //open port and begin command line sequence
 364:notoriOS.c    ****             char portConfig[200];
 365:notoriOS.c    ****             uint8 status = 0u;
ARM GAS  C:\Users\HYFI_A~1\AppData\Local\Temp\ccb6s9SH.s 			page 26


 988              		.loc 1 365 0
 989 00e2 0023     		movs	r3, #0
 990 00e4 87F8F130 		strb	r3, [r7, #241]
 366:notoriOS.c    ****             
 367:notoriOS.c    ****             snprintf(portConfig,sizeof(portConfig),"AT#SD=1,0,%d,\"%s\",0,0,1\r",system_settings.ep
 991              		.loc 1 367 0
 992 00e8 464B     		ldr	r3, .L38+48
 993 00ea 9A6F     		ldr	r2, [r3, #120]
 994 00ec 3846     		mov	r0, r7
 995 00ee 4A4B     		ldr	r3, .L38+68
 996 00f0 0093     		str	r3, [sp]
 997 00f2 1346     		mov	r3, r2
 998 00f4 4A4A     		ldr	r2, .L38+76
 999 00f6 C821     		movs	r1, #200
 1000 00f8 FFF7FEFF 		bl	snprintf
 368:notoriOS.c    ****             printNotif(NOTIF_TYPE_EVENT,"%s",portConfig);
 1001              		.loc 1 368 0
 1002 00fc 3B46     		mov	r3, r7
 1003 00fe 1A46     		mov	r2, r3
 1004 0100 4849     		ldr	r1, .L38+80
 1005 0102 0020     		movs	r0, #0
 1006 0104 FFF7FEFF 		bl	printNotif
 369:notoriOS.c    ****             status = at_write_command(portConfig,"OK",10000u);
 1007              		.loc 1 369 0
 1008 0108 3B46     		mov	r3, r7
 1009 010a 42F21072 		movw	r2, #10000
 1010 010e 4649     		ldr	r1, .L38+84
 1011 0110 1846     		mov	r0, r3
 1012 0112 FFF7FEFF 		bl	at_write_command
 1013 0116 0346     		mov	r3, r0
 1014 0118 87F8F130 		strb	r3, [r7, #241]
 370:notoriOS.c    ****             
 371:notoriOS.c    ****             status = at_write_command("AT#SSEND=1\r\n",   ">", 1000u);
 1015              		.loc 1 371 0
 1016 011c 4FF47A72 		mov	r2, #1000
 1017 0120 4249     		ldr	r1, .L38+88
 1018 0122 4348     		ldr	r0, .L38+92
 1019 0124 FFF7FEFF 		bl	at_write_command
 1020 0128 0346     		mov	r3, r0
 1021 012a 87F8F130 		strb	r3, [r7, #241]
 372:notoriOS.c    ****             //append <ctrl+z> escape sequence to http_request to exit modem command line
 373:notoriOS.c    ****             strncat(http_request, "\032", 1); 
 1022              		.loc 1 373 0
 1023 012e 2A48     		ldr	r0, .L38+4
 1024 0130 FFF7FEFF 		bl	strlen
 1025 0134 0346     		mov	r3, r0
 1026 0136 1A46     		mov	r2, r3
 1027 0138 274B     		ldr	r3, .L38+4
 1028 013a 1344     		add	r3, r3, r2
 1029 013c 3D49     		ldr	r1, .L38+96
 1030 013e 1A46     		mov	r2, r3
 1031 0140 0B46     		mov	r3, r1
 1032 0142 1B88     		ldrh	r3, [r3]	@ unaligned
 1033 0144 1380     		strh	r3, [r2]	@ unaligned
 374:notoriOS.c    ****           
 375:notoriOS.c    ****             status = at_write_command(http_request, "SRING", 5000u);
 1034              		.loc 1 375 0
ARM GAS  C:\Users\HYFI_A~1\AppData\Local\Temp\ccb6s9SH.s 			page 27


 1035 0146 41F28832 		movw	r2, #5000
 1036 014a 3B49     		ldr	r1, .L38+100
 1037 014c 2248     		ldr	r0, .L38+4
 1038 014e FFF7FEFF 		bl	at_write_command
 1039 0152 0346     		mov	r3, r0
 1040 0154 87F8F130 		strb	r3, [r7, #241]
 376:notoriOS.c    ****             
 377:notoriOS.c    ****             //read recevied buyffe
 378:notoriOS.c    ****             //a good write will return code "204 No Content"
 379:notoriOS.c    ****             status = at_write_command("AT#SRECV=1,1000\r","204 NO CONTENT",5000u);
 1041              		.loc 1 379 0
 1042 0158 41F28832 		movw	r2, #5000
 1043 015c 3749     		ldr	r1, .L38+104
 1044 015e 3848     		ldr	r0, .L38+108
 1045 0160 FFF7FEFF 		bl	at_write_command
 1046 0164 0346     		mov	r3, r0
 1047 0166 87F8F130 		strb	r3, [r7, #241]
 380:notoriOS.c    ****             //printNotif(NOTIF_TYPE_EVENT,"Received SRECV: %s",uart_received_string);
 381:notoriOS.c    ****            
 382:notoriOS.c    ****       
 383:notoriOS.c    ****             //if it worked, clear the queue and clock how long the end-to-end tx took
 384:notoriOS.c    ****             if(status == 1u){
 1048              		.loc 1 384 0
 1049 016a 97F8F130 		ldrb	r3, [r7, #241]	@ zero_extendqisi2
 1050 016e 012B     		cmp	r3, #1
 1051 0170 1AD1     		bne	.L36
 1052              	.LBB3:
 385:notoriOS.c    ****                 Clear_Data_Stack();
 1053              		.loc 1 385 0
 1054 0172 FFF7FEFF 		bl	Clear_Data_Stack
 386:notoriOS.c    ****                 int send_time = (int)(getTimeStamp()-(int32)modem_start_time_stamp);
 1055              		.loc 1 386 0
 1056 0176 FFF7FEFF 		bl	getTimeStamp
 1057 017a 0246     		mov	r2, r0
 1058 017c 314B     		ldr	r3, .L38+112
 1059 017e 1B68     		ldr	r3, [r3]
 1060 0180 D31A     		subs	r3, r2, r3
 1061 0182 C7F8EC30 		str	r3, [r7, #236]
 387:notoriOS.c    ****                 char s_send_time[10];
 388:notoriOS.c    ****                 snprintf(s_send_time,sizeof(s_send_time),"%d",send_time);
 1062              		.loc 1 388 0
 1063 0186 07F1C800 		add	r0, r7, #200
 1064 018a D7F8EC30 		ldr	r3, [r7, #236]
 1065 018e 164A     		ldr	r2, .L38+20
 1066 0190 0A21     		movs	r1, #10
 1067 0192 FFF7FEFF 		bl	snprintf
 389:notoriOS.c    ****                 pushData("modem_tx_time",s_send_time,getTimeStamp());
 1068              		.loc 1 389 0
 1069 0196 FFF7FEFF 		bl	getTimeStamp
 1070 019a 0246     		mov	r2, r0
 1071 019c 07F1C803 		add	r3, r7, #200
 1072 01a0 1946     		mov	r1, r3
 1073 01a2 2948     		ldr	r0, .L38+116
 1074 01a4 FFF7FEFF 		bl	pushData
 1075              	.L36:
 1076              	.LBE3:
 390:notoriOS.c    ****             }
ARM GAS  C:\Users\HYFI_A~1\AppData\Local\Temp\ccb6s9SH.s 			page 28


 391:notoriOS.c    ****             
 392:notoriOS.c    ****            
 393:notoriOS.c    ****             
 394:notoriOS.c    ****        
 395:notoriOS.c    ****              
 396:notoriOS.c    ****             //get time, and if it looks good, set the RTC with it
 397:notoriOS.c    ****             long network_time = modem_get_network_time();
 1077              		.loc 1 397 0
 1078 01a8 FFF7FEFF 		bl	modem_get_network_time
 1079 01ac C7F8E800 		str	r0, [r7, #232]
 398:notoriOS.c    ****             if(network_time != 0){
 1080              		.loc 1 398 0
 1081 01b0 D7F8E830 		ldr	r3, [r7, #232]
 1082 01b4 002B     		cmp	r3, #0
 1083 01b6 03D0     		beq	.L37
 399:notoriOS.c    ****                setTime(network_time);
 1084              		.loc 1 399 0
 1085 01b8 D7F8E800 		ldr	r0, [r7, #232]
 1086 01bc FFF7FEFF 		bl	setTime
 1087              	.L37:
 400:notoriOS.c    ****             }
 401:notoriOS.c    ****             
 402:notoriOS.c    ****             //if transmitted, flush the data stack and shut down modem
 403:notoriOS.c    ****             //if not -- keep the statck and try next time
 404:notoriOS.c    **** 
 405:notoriOS.c    ****             
 406:notoriOS.c    ****             modem_power_down();
 1088              		.loc 1 406 0
 1089 01c0 FFF7FEFF 		bl	modem_power_down
 407:notoriOS.c    ****             
 408:notoriOS.c    ****             return 0u;
 1090              		.loc 1 408 0
 1091 01c4 0023     		movs	r3, #0
 1092 01c6 00E0     		b	.L33
 1093              	.L35:
 1094              	.LBE2:
 409:notoriOS.c    ****       }
 410:notoriOS.c    ****       
 411:notoriOS.c    ****       return 1;//not done yet
 1095              		.loc 1 411 0
 1096 01c8 0123     		movs	r3, #1
 1097              	.L33:
 412:notoriOS.c    **** }
 1098              		.loc 1 412 0 discriminator 1
 1099 01ca 1846     		mov	r0, r3
 1100 01cc F837     		adds	r7, r7, #248
 1101              		.cfi_def_cfa_offset 8
 1102 01ce BD46     		mov	sp, r7
 1103              		.cfi_def_cfa_register 13
 1104              		@ sp needed
 1105 01d0 80BD     		pop	{r7, pc}
 1106              	.L39:
 1107 01d2 00BF     		.align	2
 1108              	.L38:
 1109 01d4 F0000000 		.word	.LC9
 1110 01d8 00000000 		.word	http_request
 1111 01dc 00000000 		.word	http_body
ARM GAS  C:\Users\HYFI_A~1\AppData\Local\Temp\ccb6s9SH.s 			page 29


 1112 01e0 00000000 		.word	http_route
 1113 01e4 00010000 		.word	.LC10
 1114 01e8 08010000 		.word	.LC11
 1115 01ec 0C010000 		.word	.LC12
 1116 01f0 20010000 		.word	.LC13
 1117 01f4 34010000 		.word	.LC14
 1118 01f8 28000000 		.word	modem_info+40
 1119 01fc 44010000 		.word	.LC15
 1120 0200 54010000 		.word	.LC16
 1121 0204 00000000 		.word	system_settings
 1122 0208 64010000 		.word	.LC17
 1123 020c 68010000 		.word	.LC18
 1124 0210 6C010000 		.word	.LC19
 1125 0214 74010000 		.word	.LC20
 1126 0218 14000000 		.word	system_settings+20
 1127 021c 7C010000 		.word	.LC21
 1128 0220 94010000 		.word	.LC22
 1129 0224 B0010000 		.word	.LC23
 1130 0228 B4010000 		.word	.LC24
 1131 022c B8010000 		.word	.LC25
 1132 0230 BC010000 		.word	.LC26
 1133 0234 CC010000 		.word	.LC27
 1134 0238 D0010000 		.word	.LC28
 1135 023c D8010000 		.word	.LC29
 1136 0240 E8010000 		.word	.LC30
 1137 0244 00000000 		.word	modem_start_time_stamp
 1138 0248 FC010000 		.word	.LC31
 1139              		.cfi_endproc
 1140              	.LFE74:
 1141              		.size	syncData, .-syncData
 1142              		.section	.text.configureRemoteParams,"ax",%progbits
 1143              		.align	2
 1144              		.global	configureRemoteParams
 1145              		.thumb
 1146              		.thumb_func
 1147              		.type	configureRemoteParams, %function
 1148              	configureRemoteParams:
 1149              	.LFB75:
 413:notoriOS.c    **** 
 414:notoriOS.c    **** //syncs with cell-tower clock and check meta-DB
 415:notoriOS.c    **** //retunrns zero when done
 416:notoriOS.c    **** uint8 configureRemoteParams(){
 1150              		.loc 1 416 0
 1151              		.cfi_startproc
 1152              		@ args = 0, pretend = 0, frame = 8
 1153              		@ frame_needed = 1, uses_anonymous_args = 0
 1154 0000 80B5     		push	{r7, lr}
 1155              		.cfi_def_cfa_offset 8
 1156              		.cfi_offset 7, -8
 1157              		.cfi_offset 14, -4
 1158 0002 82B0     		sub	sp, sp, #8
 1159              		.cfi_def_cfa_offset 16
 1160 0004 00AF     		add	r7, sp, #0
 1161              		.cfi_def_cfa_register 7
 417:notoriOS.c    ****     
 418:notoriOS.c    ****     if(modem_get_state() == MODEM_STATE_OFF){
 1162              		.loc 1 418 0
ARM GAS  C:\Users\HYFI_A~1\AppData\Local\Temp\ccb6s9SH.s 			page 30


 1163 0006 FFF7FEFF 		bl	modem_get_state
 1164 000a 0346     		mov	r3, r0
 1165 000c 002B     		cmp	r3, #0
 1166 000e 02D1     		bne	.L41
 419:notoriOS.c    ****             
 420:notoriOS.c    ****         modem_power_up();
 1167              		.loc 1 420 0
 1168 0010 FFF7FEFF 		bl	modem_power_up
 1169 0014 11E0     		b	.L42
 1170              	.L41:
 421:notoriOS.c    ****             
 422:notoriOS.c    ****     }else if(modem_get_state() == MODEM_STATE_READY){
 1171              		.loc 1 422 0
 1172 0016 FFF7FEFF 		bl	modem_get_state
 1173 001a 0346     		mov	r3, r0
 1174 001c 042B     		cmp	r3, #4
 1175 001e 0CD1     		bne	.L42
 1176              	.LBB4:
 423:notoriOS.c    ****         
 424:notoriOS.c    ****         //this is where we will interfasce with some sort of broker that assings node IDs
 425:notoriOS.c    ****         
 426:notoriOS.c    ****         //get time, and if it looks good, set the RTC with it
 427:notoriOS.c    ****         long network_time = modem_get_network_time();
 1177              		.loc 1 427 0
 1178 0020 FFF7FEFF 		bl	modem_get_network_time
 1179 0024 7860     		str	r0, [r7, #4]
 428:notoriOS.c    ****         if(network_time != 0){
 1180              		.loc 1 428 0
 1181 0026 7B68     		ldr	r3, [r7, #4]
 1182 0028 002B     		cmp	r3, #0
 1183 002a 02D0     		beq	.L43
 429:notoriOS.c    ****             setTime(network_time);
 1184              		.loc 1 429 0
 1185 002c 7868     		ldr	r0, [r7, #4]
 1186 002e FFF7FEFF 		bl	setTime
 1187              	.L43:
 430:notoriOS.c    ****         }
 431:notoriOS.c    ****         
 432:notoriOS.c    ****         //get GPS coordinates
 433:notoriOS.c    ****         //gps_t gps = modem_get_gps_coordinates();
 434:notoriOS.c    ****         
 435:notoriOS.c    ****        modem_power_down();
 1188              		.loc 1 435 0
 1189 0032 FFF7FEFF 		bl	modem_power_down
 436:notoriOS.c    ****         return 0u;
 1190              		.loc 1 436 0
 1191 0036 0023     		movs	r3, #0
 1192 0038 00E0     		b	.L44
 1193              	.L42:
 1194              	.LBE4:
 437:notoriOS.c    ****         
 438:notoriOS.c    ****     }
 439:notoriOS.c    ****     
 440:notoriOS.c    ****     return 1u;
 1195              		.loc 1 440 0
 1196 003a 0123     		movs	r3, #1
 1197              	.L44:
ARM GAS  C:\Users\HYFI_A~1\AppData\Local\Temp\ccb6s9SH.s 			page 31


 441:notoriOS.c    **** }
 1198              		.loc 1 441 0
 1199 003c 1846     		mov	r0, r3
 1200 003e 0837     		adds	r7, r7, #8
 1201              		.cfi_def_cfa_offset 8
 1202 0040 BD46     		mov	sp, r7
 1203              		.cfi_def_cfa_register 13
 1204              		@ sp needed
 1205 0042 80BD     		pop	{r7, pc}
 1206              		.cfi_endproc
 1207              	.LFE75:
 1208              		.size	configureRemoteParams, .-configureRemoteParams
 1209              		.section	.rodata
 1210 020a 0000     		.align	2
 1211              	.LC32:
 1212 020c 6D617862 		.ascii	"maxbotix_depth=%s\000"
 1212      6F746978 
 1212      5F646570 
 1212      74683D25 
 1212      7300
 1213 021e 0000     		.align	2
 1214              	.LC33:
 1215 0220 6D617862 		.ascii	"maxbotix_depth\000"
 1215      6F746978 
 1215      5F646570 
 1215      746800
 1216 022f 00       		.align	2
 1217              	.LC34:
 1218 0230 436F756C 		.ascii	"Could not get valide readings from Maxbotix.\000"
 1218      64206E6F 
 1218      74206765 
 1218      74207661 
 1218      6C696465 
 1219              		.global	__aeabi_f2d
 1220 025d 000000   		.align	2
 1221              	.LC35:
 1222 0260 252E3266 		.ascii	"%.2f\000"
 1222      00
 1223 0265 000000   		.align	2
 1224              	.LC36:
 1225 0268 765F6261 		.ascii	"v_bat=%s\000"
 1225      743D2573 
 1225      00
 1226 0271 000000   		.align	2
 1227              	.LC37:
 1228 0274 765F6261 		.ascii	"v_bat\000"
 1228      7400
 1229 027a 0000     		.align	2
 1230              	.LC38:
 1231 027c 436F756C 		.ascii	"Could not get valide readings from ADC.\000"
 1231      64206E6F 
 1231      74206765 
 1231      74207661 
 1231      6C696465 
 1232              		.section	.text.makeMeasurements,"ax",%progbits
 1233              		.align	2
 1234              		.global	makeMeasurements
ARM GAS  C:\Users\HYFI_A~1\AppData\Local\Temp\ccb6s9SH.s 			page 32


 1235              		.thumb
 1236              		.thumb_func
 1237              		.type	makeMeasurements, %function
 1238              	makeMeasurements:
 1239              	.LFB76:
 442:notoriOS.c    **** 
 443:notoriOS.c    **** //makes sensor measurments 
 444:notoriOS.c    **** //retunrns zero when done
 445:notoriOS.c    **** uint8 makeMeasurements(){
 1240              		.loc 1 445 0
 1241              		.cfi_startproc
 1242              		@ args = 0, pretend = 0, frame = 72
 1243              		@ frame_needed = 1, uses_anonymous_args = 0
 1244 0000 90B5     		push	{r4, r7, lr}
 1245              		.cfi_def_cfa_offset 12
 1246              		.cfi_offset 4, -12
 1247              		.cfi_offset 7, -8
 1248              		.cfi_offset 14, -4
 1249 0002 95B0     		sub	sp, sp, #84
 1250              		.cfi_def_cfa_offset 96
 1251 0004 02AF     		add	r7, sp, #8
 1252              		.cfi_def_cfa 7, 88
 446:notoriOS.c    ****    
 447:notoriOS.c    ****     level_sensor_t m_level_sensor;
 448:notoriOS.c    ****     voltage_t m_voltage;
 449:notoriOS.c    ****     
 450:notoriOS.c    ****     
 451:notoriOS.c    ****     //clock time
 452:notoriOS.c    ****     long timeStamp = getTimeStamp();
 1253              		.loc 1 452 0
 1254 0006 FFF7FEFF 		bl	getTimeStamp
 1255 000a 7864     		str	r0, [r7, #68]
 453:notoriOS.c    ****     //holds string for value that will be written 
 454:notoriOS.c    ****     char value[DATA_MAX_KEY_LENGTH];
 455:notoriOS.c    ****     
 456:notoriOS.c    ****     m_level_sensor = level_sensor_take_reading();
 1256              		.loc 1 456 0
 1257 000c 07F12803 		add	r3, r7, #40
 1258 0010 1846     		mov	r0, r3
 1259 0012 FFF7FEFF 		bl	level_sensor_take_reading
 457:notoriOS.c    ****  
 458:notoriOS.c    ****    
 459:notoriOS.c    ****     if(m_level_sensor.num_valid_readings > 0){
 1260              		.loc 1 459 0
 1261 0016 97F84030 		ldrb	r3, [r7, #64]	@ zero_extendqisi2
 1262 001a 002B     		cmp	r3, #0
 1263 001c 13D0     		beq	.L46
 460:notoriOS.c    ****         snprintf(value,sizeof(value),"%d",m_level_sensor.level_reading);
 1264              		.loc 1 460 0
 1265 001e B7F93E30 		ldrsh	r3, [r7, #62]
 1266 0022 381D     		adds	r0, r7, #4
 1267 0024 204A     		ldr	r2, .L51
 1268 0026 1421     		movs	r1, #20
 1269 0028 FFF7FEFF 		bl	snprintf
 461:notoriOS.c    ****         printNotif(NOTIF_TYPE_EVENT,"maxbotix_depth=%s",value);
 1270              		.loc 1 461 0
 1271 002c 3B1D     		adds	r3, r7, #4
ARM GAS  C:\Users\HYFI_A~1\AppData\Local\Temp\ccb6s9SH.s 			page 33


 1272 002e 1A46     		mov	r2, r3
 1273 0030 1E49     		ldr	r1, .L51+4
 1274 0032 0020     		movs	r0, #0
 1275 0034 FFF7FEFF 		bl	printNotif
 462:notoriOS.c    ****         pushData("maxbotix_depth",value,timeStamp);
 1276              		.loc 1 462 0
 1277 0038 3B1D     		adds	r3, r7, #4
 1278 003a 7A6C     		ldr	r2, [r7, #68]
 1279 003c 1946     		mov	r1, r3
 1280 003e 1C48     		ldr	r0, .L51+8
 1281 0040 FFF7FEFF 		bl	pushData
 1282 0044 03E0     		b	.L47
 1283              	.L46:
 463:notoriOS.c    ****     }else{
 464:notoriOS.c    ****         printNotif(NOTIF_TYPE_ERROR,"Could not get valide readings from Maxbotix.");
 1284              		.loc 1 464 0
 1285 0046 1B49     		ldr	r1, .L51+12
 1286 0048 0220     		movs	r0, #2
 1287 004a FFF7FEFF 		bl	printNotif
 1288              	.L47:
 465:notoriOS.c    ****         //pushData("maxbotix_depth","error",timeStamp);
 466:notoriOS.c    ****     }
 467:notoriOS.c    ****     
 468:notoriOS.c    ****     
 469:notoriOS.c    ****     m_voltage = voltage_take_readings();
 1289              		.loc 1 469 0
 1290 004e 07F11803 		add	r3, r7, #24
 1291 0052 1846     		mov	r0, r3
 1292 0054 FFF7FEFF 		bl	voltage_take_readings
 470:notoriOS.c    ****     if(m_voltage.valid){
 1293              		.loc 1 470 0
 1294 0058 97F82430 		ldrb	r3, [r7, #36]	@ zero_extendqisi2
 1295 005c 002B     		cmp	r3, #0
 1296 005e 19D0     		beq	.L48
 471:notoriOS.c    ****         snprintf(value,sizeof(value),"%.2f",m_voltage.voltage_battery);
 1297              		.loc 1 471 0
 1298 0060 BB69     		ldr	r3, [r7, #24]	@ float
 1299 0062 1846     		mov	r0, r3
 1300 0064 FFF7FEFF 		bl	__aeabi_f2d
 1301 0068 0346     		mov	r3, r0
 1302 006a 0C46     		mov	r4, r1
 1303 006c 381D     		adds	r0, r7, #4
 1304 006e CDE90034 		strd	r3, [sp]
 1305 0072 114A     		ldr	r2, .L51+16
 1306 0074 1421     		movs	r1, #20
 1307 0076 FFF7FEFF 		bl	snprintf
 472:notoriOS.c    ****         printNotif(NOTIF_TYPE_EVENT,"v_bat=%s",value);
 1308              		.loc 1 472 0
 1309 007a 3B1D     		adds	r3, r7, #4
 1310 007c 1A46     		mov	r2, r3
 1311 007e 0F49     		ldr	r1, .L51+20
 1312 0080 0020     		movs	r0, #0
 1313 0082 FFF7FEFF 		bl	printNotif
 473:notoriOS.c    ****         pushData("v_bat",value,timeStamp);
 1314              		.loc 1 473 0
 1315 0086 3B1D     		adds	r3, r7, #4
 1316 0088 7A6C     		ldr	r2, [r7, #68]
ARM GAS  C:\Users\HYFI_A~1\AppData\Local\Temp\ccb6s9SH.s 			page 34


 1317 008a 1946     		mov	r1, r3
 1318 008c 0C48     		ldr	r0, .L51+24
 1319 008e FFF7FEFF 		bl	pushData
 1320 0092 03E0     		b	.L49
 1321              	.L48:
 474:notoriOS.c    ****     }else{
 475:notoriOS.c    ****         //pushData("v_bat","error",timeStamp);
 476:notoriOS.c    ****         printNotif(NOTIF_TYPE_ERROR,"Could not get valide readings from ADC.");
 1322              		.loc 1 476 0
 1323 0094 0B49     		ldr	r1, .L51+28
 1324 0096 0220     		movs	r0, #2
 1325 0098 FFF7FEFF 		bl	printNotif
 1326              	.L49:
 477:notoriOS.c    ****     }
 478:notoriOS.c    ****     
 479:notoriOS.c    ****     return 0u;
 1327              		.loc 1 479 0
 1328 009c 0023     		movs	r3, #0
 480:notoriOS.c    **** }
 1329              		.loc 1 480 0
 1330 009e 1846     		mov	r0, r3
 1331 00a0 4C37     		adds	r7, r7, #76
 1332              		.cfi_def_cfa_offset 12
 1333 00a2 BD46     		mov	sp, r7
 1334              		.cfi_def_cfa_register 13
 1335              		@ sp needed
 1336 00a4 90BD     		pop	{r4, r7, pc}
 1337              	.L52:
 1338 00a6 00BF     		.align	2
 1339              	.L51:
 1340 00a8 08010000 		.word	.LC11
 1341 00ac 0C020000 		.word	.LC32
 1342 00b0 20020000 		.word	.LC33
 1343 00b4 30020000 		.word	.LC34
 1344 00b8 60020000 		.word	.LC35
 1345 00bc 68020000 		.word	.LC36
 1346 00c0 74020000 		.word	.LC37
 1347 00c4 7C020000 		.word	.LC38
 1348              		.cfi_endproc
 1349              	.LFE76:
 1350              		.size	makeMeasurements, .-makeMeasurements
 1351              		.section	.rodata
 1352              		.align	2
 1353              	.LC39:
 1354 02a4 4572726F 		.ascii	"Error setting sytem time.\000"
 1354      72207365 
 1354      7474696E 
 1354      67207379 
 1354      74656D20 
 1355              		.section	.text.setTime,"ax",%progbits
 1356              		.align	2
 1357              		.global	setTime
 1358              		.thumb
 1359              		.thumb_func
 1360              		.type	setTime, %function
 1361              	setTime:
 1362              	.LFB77:
ARM GAS  C:\Users\HYFI_A~1\AppData\Local\Temp\ccb6s9SH.s 			page 35


 481:notoriOS.c    **** 
 482:notoriOS.c    **** 
 483:notoriOS.c    **** uint8 setTime(long timeStamp){
 1363              		.loc 1 483 0
 1364              		.cfi_startproc
 1365              		@ args = 0, pretend = 0, frame = 24
 1366              		@ frame_needed = 1, uses_anonymous_args = 0
 1367 0000 80B5     		push	{r7, lr}
 1368              		.cfi_def_cfa_offset 8
 1369              		.cfi_offset 7, -8
 1370              		.cfi_offset 14, -4
 1371 0002 86B0     		sub	sp, sp, #24
 1372              		.cfi_def_cfa_offset 32
 1373 0004 00AF     		add	r7, sp, #0
 1374              		.cfi_def_cfa_register 7
 1375 0006 7860     		str	r0, [r7, #4]
 484:notoriOS.c    ****     
 485:notoriOS.c    ****     if(timeStamp <=0){
 1376              		.loc 1 485 0
 1377 0008 7B68     		ldr	r3, [r7, #4]
 1378 000a 002B     		cmp	r3, #0
 1379 000c 05DC     		bgt	.L54
 486:notoriOS.c    ****         printNotif(NOTIF_TYPE_ERROR,"Error setting sytem time.");
 1380              		.loc 1 486 0
 1381 000e 1849     		ldr	r1, .L56
 1382 0010 0220     		movs	r0, #2
 1383 0012 FFF7FEFF 		bl	printNotif
 487:notoriOS.c    ****         return 0;  
 1384              		.loc 1 487 0
 1385 0016 0023     		movs	r3, #0
 1386 0018 25E0     		b	.L55
 1387              	.L54:
 488:notoriOS.c    ****     }
 489:notoriOS.c    ****     
 490:notoriOS.c    ****     struct tm * t;
 491:notoriOS.c    ****     //time(&timeStamp);
 492:notoriOS.c    ****     t = gmtime(&timeStamp);
 1388              		.loc 1 492 0
 1389 001a 3B1D     		adds	r3, r7, #4
 1390 001c 1846     		mov	r0, r3
 1391 001e FFF7FEFF 		bl	gmtime
 1392 0022 7861     		str	r0, [r7, #20]
 493:notoriOS.c    ****     
 494:notoriOS.c    ****     RTC_TIME_DATE localTime;
 495:notoriOS.c    ****     localTime.Sec = t->tm_sec;
 1393              		.loc 1 495 0
 1394 0024 7B69     		ldr	r3, [r7, #20]
 1395 0026 1B68     		ldr	r3, [r3]
 1396 0028 DBB2     		uxtb	r3, r3
 1397 002a 3B72     		strb	r3, [r7, #8]
 496:notoriOS.c    ****     localTime.Min = t->tm_min;
 1398              		.loc 1 496 0
 1399 002c 7B69     		ldr	r3, [r7, #20]
 1400 002e 5B68     		ldr	r3, [r3, #4]
 1401 0030 DBB2     		uxtb	r3, r3
 1402 0032 7B72     		strb	r3, [r7, #9]
 497:notoriOS.c    ****     localTime.Hour = t->tm_hour;
ARM GAS  C:\Users\HYFI_A~1\AppData\Local\Temp\ccb6s9SH.s 			page 36


 1403              		.loc 1 497 0
 1404 0034 7B69     		ldr	r3, [r7, #20]
 1405 0036 9B68     		ldr	r3, [r3, #8]
 1406 0038 DBB2     		uxtb	r3, r3
 1407 003a BB72     		strb	r3, [r7, #10]
 498:notoriOS.c    ****     localTime.Year = t->tm_year + 1900;
 1408              		.loc 1 498 0
 1409 003c 7B69     		ldr	r3, [r7, #20]
 1410 003e 5B69     		ldr	r3, [r3, #20]
 1411 0040 9BB2     		uxth	r3, r3
 1412 0042 03F26C73 		addw	r3, r3, #1900
 1413 0046 9BB2     		uxth	r3, r3
 1414 0048 7B82     		strh	r3, [r7, #18]	@ movhi
 499:notoriOS.c    ****     localTime.Month = t->tm_mon;
 1415              		.loc 1 499 0
 1416 004a 7B69     		ldr	r3, [r7, #20]
 1417 004c 1B69     		ldr	r3, [r3, #16]
 1418 004e DBB2     		uxtb	r3, r3
 1419 0050 3B74     		strb	r3, [r7, #16]
 500:notoriOS.c    ****     localTime.DayOfMonth = t->tm_mday;
 1420              		.loc 1 500 0
 1421 0052 7B69     		ldr	r3, [r7, #20]
 1422 0054 DB68     		ldr	r3, [r3, #12]
 1423 0056 DBB2     		uxtb	r3, r3
 1424 0058 3B73     		strb	r3, [r7, #12]
 501:notoriOS.c    **** 
 502:notoriOS.c    ****     RTC_WriteTime(&localTime);
 1425              		.loc 1 502 0
 1426 005a 07F10803 		add	r3, r7, #8
 1427 005e 1846     		mov	r0, r3
 1428 0060 FFF7FEFF 		bl	RTC_WriteTime
 503:notoriOS.c    ****    
 504:notoriOS.c    ****     return 1;
 1429              		.loc 1 504 0
 1430 0064 0123     		movs	r3, #1
 1431              	.L55:
 505:notoriOS.c    **** }
 1432              		.loc 1 505 0
 1433 0066 1846     		mov	r0, r3
 1434 0068 1837     		adds	r7, r7, #24
 1435              		.cfi_def_cfa_offset 8
 1436 006a BD46     		mov	sp, r7
 1437              		.cfi_def_cfa_register 13
 1438              		@ sp needed
 1439 006c 80BD     		pop	{r7, pc}
 1440              	.L57:
 1441 006e 00BF     		.align	2
 1442              	.L56:
 1443 0070 A4020000 		.word	.LC39
 1444              		.cfi_endproc
 1445              	.LFE77:
 1446              		.size	setTime, .-setTime
 1447              		.section	.rodata
 1448 02be 0000     		.align	2
 1449              	.LC41:
 1450 02c0 32303420 		.ascii	"204 No Content\000"
 1450      4E6F2043 
ARM GAS  C:\Users\HYFI_A~1\AppData\Local\Temp\ccb6s9SH.s 			page 37


 1450      6F6E7465 
 1450      6E7400
 1451 02cf 00       		.align	2
 1452              	.LC40:
 1453 02d0 75706772 		.ascii	"upgrade.hex\000"
 1453      6164652E 
 1453      68657800 
 1454              		.section	.text.upgraded,"ax",%progbits
 1455              		.align	2
 1456              		.global	upgraded
 1457              		.thumb
 1458              		.thumb_func
 1459              		.type	upgraded, %function
 1460              	upgraded:
 1461              	.LFB78:
 506:notoriOS.c    **** 
 507:notoriOS.c    **** //downloads and stores files on SD card
 508:notoriOS.c    **** 
 509:notoriOS.c    **** 
 510:notoriOS.c    **** 
 511:notoriOS.c    **** // ==============================================
 512:notoriOS.c    **** // Will they love it, will they hate it
 513:notoriOS.c    **** // Never fade it, I evade it
 514:notoriOS.c    **** // Cause I never really want to complicate it
 515:notoriOS.c    **** //      - Logic, Upgraded (2015)
 516:notoriOS.c    **** //
 517:notoriOS.c    **** // downloads new firmware, stores it on SD card, and reboots the system to allow bootloader 
 518:notoriOS.c    **** // returns 0 if modem is connected, 1 if the file downlaod failed, and does not return otherwise (b
 519:notoriOS.c    **** // ==============================================
 520:notoriOS.c    **** 
 521:notoriOS.c    **** uint8 upgraded(char *host, int port,  char *route){
 1462              		.loc 1 521 0
 1463              		.cfi_startproc
 1464              		@ args = 0, pretend = 0, frame = 232
 1465              		@ frame_needed = 1, uses_anonymous_args = 0
 1466 0000 80B5     		push	{r7, lr}
 1467              		.cfi_def_cfa_offset 8
 1468              		.cfi_offset 7, -8
 1469              		.cfi_offset 14, -4
 1470 0002 C0B0     		sub	sp, sp, #256
 1471              		.cfi_def_cfa_offset 264
 1472 0004 06AF     		add	r7, sp, #24
 1473              		.cfi_def_cfa 7, 240
 1474 0006 F860     		str	r0, [r7, #12]
 1475 0008 B960     		str	r1, [r7, #8]
 1476 000a 7A60     		str	r2, [r7, #4]
 522:notoriOS.c    ****     
 523:notoriOS.c    ****     uint8 upgrade_status = 0;
 1477              		.loc 1 523 0
 1478 000c 0023     		movs	r3, #0
 1479 000e 87F8E730 		strb	r3, [r7, #231]
 524:notoriOS.c    ****     
 525:notoriOS.c    ****    //AGPS will only work if we're connected to network, so don't call this fuction otherwise
 526:notoriOS.c    ****     if(modem_state != MODEM_STATE_READY){
 1480              		.loc 1 526 0
 1481 0012 384B     		ldr	r3, .L62
 1482 0014 1B78     		ldrb	r3, [r3]	@ zero_extendqisi2
ARM GAS  C:\Users\HYFI_A~1\AppData\Local\Temp\ccb6s9SH.s 			page 38


 1483 0016 042B     		cmp	r3, #4
 1484 0018 02D0     		beq	.L59
 527:notoriOS.c    ****         return upgrade_status;//where valid = 0
 1485              		.loc 1 527 0
 1486 001a 97F8E730 		ldrb	r3, [r7, #231]	@ zero_extendqisi2
 1487 001e 65E0     		b	.L61
 1488              	.L59:
 528:notoriOS.c    ****     }
 529:notoriOS.c    ****     
 530:notoriOS.c    ****     char fileName[] = "upgrade.hex";
 1489              		.loc 1 530 0
 1490 0020 354A     		ldr	r2, .L62+4
 1491 0022 07F1D803 		add	r3, r7, #216
 1492 0026 07CA     		ldmia	r2, {r0, r1, r2}
 1493 0028 83E80700 		stmia	r3, {r0, r1, r2}
 531:notoriOS.c    ****     //delete file, if one exisits already
 532:notoriOS.c    ****     SD_rmfile(fileName);
 1494              		.loc 1 532 0
 1495 002c 07F1D803 		add	r3, r7, #216
 1496 0030 1846     		mov	r0, r3
 1497 0032 FFF7FEFF 		bl	SD_rmfile
 533:notoriOS.c    ****     
 534:notoriOS.c    ****     
 535:notoriOS.c    ****     construct_generic_HTTP_request(http_request,http_body,host,route,port,"POST","Close","",0,"1.1"
 1498              		.loc 1 535 0
 1499 0036 314B     		ldr	r3, .L62+8
 1500 0038 0593     		str	r3, [sp, #20]
 1501 003a 0023     		movs	r3, #0
 1502 003c 0493     		str	r3, [sp, #16]
 1503 003e 304B     		ldr	r3, .L62+12
 1504 0040 0393     		str	r3, [sp, #12]
 1505 0042 304B     		ldr	r3, .L62+16
 1506 0044 0293     		str	r3, [sp, #8]
 1507 0046 304B     		ldr	r3, .L62+20
 1508 0048 0193     		str	r3, [sp, #4]
 1509 004a BB68     		ldr	r3, [r7, #8]
 1510 004c 0093     		str	r3, [sp]
 1511 004e 7B68     		ldr	r3, [r7, #4]
 1512 0050 FA68     		ldr	r2, [r7, #12]
 1513 0052 2E49     		ldr	r1, .L62+24
 1514 0054 2E48     		ldr	r0, .L62+28
 1515 0056 FFF7FEFF 		bl	construct_generic_HTTP_request
 536:notoriOS.c    ****     printNotif(NOTIF_TYPE_EVENT,"Full HTTP Request: %s", http_request);
 1516              		.loc 1 536 0
 1517 005a 2D4A     		ldr	r2, .L62+28
 1518 005c 2D49     		ldr	r1, .L62+32
 1519 005e 0020     		movs	r0, #0
 1520 0060 FFF7FEFF 		bl	printNotif
 537:notoriOS.c    ****     
 538:notoriOS.c    ****     char portConfig[200];
 539:notoriOS.c    ****     snprintf(portConfig,sizeof(portConfig),"AT#SD=1,0,%d,\"%s\",0,0,1\r",port,host);
 1521              		.loc 1 539 0
 1522 0064 07F11000 		add	r0, r7, #16
 1523 0068 FB68     		ldr	r3, [r7, #12]
 1524 006a 0093     		str	r3, [sp]
 1525 006c BB68     		ldr	r3, [r7, #8]
 1526 006e 2A4A     		ldr	r2, .L62+36
ARM GAS  C:\Users\HYFI_A~1\AppData\Local\Temp\ccb6s9SH.s 			page 39


 1527 0070 C821     		movs	r1, #200
 1528 0072 FFF7FEFF 		bl	snprintf
 540:notoriOS.c    ****     printNotif(NOTIF_TYPE_EVENT,"%s",portConfig);
 1529              		.loc 1 540 0
 1530 0076 07F11003 		add	r3, r7, #16
 1531 007a 1A46     		mov	r2, r3
 1532 007c 2749     		ldr	r1, .L62+40
 1533 007e 0020     		movs	r0, #0
 1534 0080 FFF7FEFF 		bl	printNotif
 541:notoriOS.c    ****     upgrade_status = at_write_command(portConfig,"OK",10000u);
 1535              		.loc 1 541 0
 1536 0084 07F11003 		add	r3, r7, #16
 1537 0088 42F21072 		movw	r2, #10000
 1538 008c 2449     		ldr	r1, .L62+44
 1539 008e 1846     		mov	r0, r3
 1540 0090 FFF7FEFF 		bl	at_write_command
 1541 0094 0346     		mov	r3, r0
 1542 0096 87F8E730 		strb	r3, [r7, #231]
 542:notoriOS.c    ****     upgrade_status = at_write_command("AT#SSEND=1\r\n",   ">", 1000u);
 1543              		.loc 1 542 0
 1544 009a 4FF47A72 		mov	r2, #1000
 1545 009e 2149     		ldr	r1, .L62+48
 1546 00a0 2148     		ldr	r0, .L62+52
 1547 00a2 FFF7FEFF 		bl	at_write_command
 1548 00a6 0346     		mov	r3, r0
 1549 00a8 87F8E730 		strb	r3, [r7, #231]
 543:notoriOS.c    ****     //append <ctrl+z> escape sequence to http_request to exit modem command line
 544:notoriOS.c    ****     strncat(http_request, "\032", 1); 
 1550              		.loc 1 544 0
 1551 00ac 1848     		ldr	r0, .L62+28
 1552 00ae FFF7FEFF 		bl	strlen
 1553 00b2 0346     		mov	r3, r0
 1554 00b4 1A46     		mov	r2, r3
 1555 00b6 164B     		ldr	r3, .L62+28
 1556 00b8 1344     		add	r3, r3, r2
 1557 00ba 1C49     		ldr	r1, .L62+56
 1558 00bc 1A46     		mov	r2, r3
 1559 00be 0B46     		mov	r3, r1
 1560 00c0 1B88     		ldrh	r3, [r3]	@ unaligned
 1561 00c2 1380     		strh	r3, [r2]	@ unaligned
 545:notoriOS.c    ****     upgrade_status = at_write_command(http_request, "OK", 5000u);
 1562              		.loc 1 545 0
 1563 00c4 41F28832 		movw	r2, #5000
 1564 00c8 1549     		ldr	r1, .L62+44
 1565 00ca 1148     		ldr	r0, .L62+28
 1566 00cc FFF7FEFF 		bl	at_write_command
 1567 00d0 0346     		mov	r3, r0
 1568 00d2 87F8E730 		strb	r3, [r7, #231]
 546:notoriOS.c    ****    
 547:notoriOS.c    ****     upgrade_status = at_write_command("AT#SRECV=1,1000\r","204 No Content",5000u);
 1569              		.loc 1 547 0
 1570 00d6 41F28832 		movw	r2, #5000
 1571 00da 1549     		ldr	r1, .L62+60
 1572 00dc 1548     		ldr	r0, .L62+64
 1573 00de FFF7FEFF 		bl	at_write_command
 1574 00e2 0346     		mov	r3, r0
 1575 00e4 87F8E730 		strb	r3, [r7, #231]
ARM GAS  C:\Users\HYFI_A~1\AppData\Local\Temp\ccb6s9SH.s 			page 40


 548:notoriOS.c    ****     //SD_write(fileName,"w+",uart_received_string);
 549:notoriOS.c    ****     
 550:notoriOS.c    ****     
 551:notoriOS.c    ****     return upgrade_status;
 1576              		.loc 1 551 0
 1577 00e8 97F8E730 		ldrb	r3, [r7, #231]	@ zero_extendqisi2
 1578              	.L61:
 552:notoriOS.c    ****     
 553:notoriOS.c    **** }
 1579              		.loc 1 553 0 discriminator 1
 1580 00ec 1846     		mov	r0, r3
 1581 00ee E837     		adds	r7, r7, #232
 1582              		.cfi_def_cfa_offset 8
 1583 00f0 BD46     		mov	sp, r7
 1584              		.cfi_def_cfa_register 13
 1585              		@ sp needed
 1586 00f2 80BD     		pop	{r7, pc}
 1587              	.L63:
 1588              		.align	2
 1589              	.L62:
 1590 00f4 00000000 		.word	modem_state
 1591 00f8 D0020000 		.word	.LC40
 1592 00fc 64010000 		.word	.LC17
 1593 0100 68010000 		.word	.LC18
 1594 0104 6C010000 		.word	.LC19
 1595 0108 74010000 		.word	.LC20
 1596 010c 00000000 		.word	http_body
 1597 0110 00000000 		.word	http_request
 1598 0114 7C010000 		.word	.LC21
 1599 0118 94010000 		.word	.LC22
 1600 011c B0010000 		.word	.LC23
 1601 0120 B4010000 		.word	.LC24
 1602 0124 B8010000 		.word	.LC25
 1603 0128 BC010000 		.word	.LC26
 1604 012c CC010000 		.word	.LC27
 1605 0130 C0020000 		.word	.LC41
 1606 0134 E8010000 		.word	.LC30
 1607              		.cfi_endproc
 1608              	.LFE78:
 1609              		.size	upgraded, .-upgraded
 1610              		.text
 1611              	.Letext0:
 1612              		.file 2 "c:\\program files (x86)\\cypress\\psoc creator\\4.3\\psoc creator\\import\\gnu\\arm\\5.4.
 1613              		.file 3 "c:\\program files (x86)\\cypress\\psoc creator\\4.3\\psoc creator\\import\\gnu\\arm\\5.4.
 1614              		.file 4 "Generated_Source\\PSoC5/cytypes.h"
 1615              		.file 5 "Generated_Source\\PSoC5/RTC.h"
 1616              		.file 6 "testing.h"
 1617              		.file 7 "level_sensor.h"
 1618              		.file 8 "voltages.h"
 1619              		.file 9 "c:\\program files (x86)\\cypress\\psoc creator\\4.3\\psoc creator\\import\\gnu\\arm\\5.4.
 1620              		.file 10 "modem.h"
 1621              		.file 11 "data.h"
 1622              		.file 12 "notoriOS.h"
 1623              		.file 13 "Generated_Source\\PSoC5/core_cm3.h"
 1624              		.section	.debug_info,"",%progbits
 1625              	.Ldebug_info0:
 1626 0000 BC090000 		.4byte	0x9bc
ARM GAS  C:\Users\HYFI_A~1\AppData\Local\Temp\ccb6s9SH.s 			page 41


 1627 0004 0400     		.2byte	0x4
 1628 0006 00000000 		.4byte	.Ldebug_abbrev0
 1629 000a 04       		.byte	0x4
 1630 000b 01       		.uleb128 0x1
 1631 000c 77000000 		.4byte	.LASF130
 1632 0010 0C       		.byte	0xc
 1633 0011 8A060000 		.4byte	.LASF131
 1634 0015 8F040000 		.4byte	.LASF132
 1635 0019 00000000 		.4byte	.Ldebug_ranges0+0
 1636 001d 00000000 		.4byte	0
 1637 0021 00000000 		.4byte	.Ldebug_line0
 1638 0025 02       		.uleb128 0x2
 1639 0026 01       		.byte	0x1
 1640 0027 06       		.byte	0x6
 1641 0028 48000000 		.4byte	.LASF0
 1642 002c 02       		.uleb128 0x2
 1643 002d 01       		.byte	0x1
 1644 002e 08       		.byte	0x8
 1645 002f ED040000 		.4byte	.LASF1
 1646 0033 02       		.uleb128 0x2
 1647 0034 02       		.byte	0x2
 1648 0035 05       		.byte	0x5
 1649 0036 AC030000 		.4byte	.LASF2
 1650 003a 02       		.uleb128 0x2
 1651 003b 02       		.byte	0x2
 1652 003c 07       		.byte	0x7
 1653 003d 43060000 		.4byte	.LASF3
 1654 0041 03       		.uleb128 0x3
 1655 0042 0B060000 		.4byte	.LASF9
 1656 0046 02       		.byte	0x2
 1657 0047 3F       		.byte	0x3f
 1658 0048 4C000000 		.4byte	0x4c
 1659 004c 02       		.uleb128 0x2
 1660 004d 04       		.byte	0x4
 1661 004e 05       		.byte	0x5
 1662 004f D6010000 		.4byte	.LASF4
 1663 0053 02       		.uleb128 0x2
 1664 0054 04       		.byte	0x4
 1665 0055 07       		.byte	0x7
 1666 0056 F1020000 		.4byte	.LASF5
 1667 005a 02       		.uleb128 0x2
 1668 005b 08       		.byte	0x8
 1669 005c 05       		.byte	0x5
 1670 005d 56010000 		.4byte	.LASF6
 1671 0061 02       		.uleb128 0x2
 1672 0062 08       		.byte	0x8
 1673 0063 07       		.byte	0x7
 1674 0064 05010000 		.4byte	.LASF7
 1675 0068 04       		.uleb128 0x4
 1676 0069 04       		.byte	0x4
 1677 006a 05       		.byte	0x5
 1678 006b 696E7400 		.ascii	"int\000"
 1679 006f 02       		.uleb128 0x2
 1680 0070 04       		.byte	0x4
 1681 0071 07       		.byte	0x7
 1682 0072 A8020000 		.4byte	.LASF8
 1683 0076 03       		.uleb128 0x3
ARM GAS  C:\Users\HYFI_A~1\AppData\Local\Temp\ccb6s9SH.s 			page 42


 1684 0077 E5040000 		.4byte	.LASF10
 1685 007b 03       		.byte	0x3
 1686 007c 2C       		.byte	0x2c
 1687 007d 41000000 		.4byte	0x41
 1688 0081 05       		.uleb128 0x5
 1689 0082 FB010000 		.4byte	.LASF11
 1690 0086 04       		.byte	0x4
 1691 0087 E401     		.2byte	0x1e4
 1692 0089 2C000000 		.4byte	0x2c
 1693 008d 05       		.uleb128 0x5
 1694 008e 08000000 		.4byte	.LASF12
 1695 0092 04       		.byte	0x4
 1696 0093 E501     		.2byte	0x1e5
 1697 0095 3A000000 		.4byte	0x3a
 1698 0099 05       		.uleb128 0x5
 1699 009a 2F020000 		.4byte	.LASF13
 1700 009e 04       		.byte	0x4
 1701 009f E601     		.2byte	0x1e6
 1702 00a1 53000000 		.4byte	0x53
 1703 00a5 05       		.uleb128 0x5
 1704 00a6 AB060000 		.4byte	.LASF14
 1705 00aa 04       		.byte	0x4
 1706 00ab E801     		.2byte	0x1e8
 1707 00ad 33000000 		.4byte	0x33
 1708 00b1 05       		.uleb128 0x5
 1709 00b2 13020000 		.4byte	.LASF15
 1710 00b6 04       		.byte	0x4
 1711 00b7 E901     		.2byte	0x1e9
 1712 00b9 4C000000 		.4byte	0x4c
 1713 00bd 02       		.uleb128 0x2
 1714 00be 04       		.byte	0x4
 1715 00bf 04       		.byte	0x4
 1716 00c0 64040000 		.4byte	.LASF16
 1717 00c4 02       		.uleb128 0x2
 1718 00c5 08       		.byte	0x8
 1719 00c6 04       		.byte	0x4
 1720 00c7 E3060000 		.4byte	.LASF17
 1721 00cb 02       		.uleb128 0x2
 1722 00cc 01       		.byte	0x1
 1723 00cd 08       		.byte	0x8
 1724 00ce D5050000 		.4byte	.LASF18
 1725 00d2 02       		.uleb128 0x2
 1726 00d3 08       		.byte	0x8
 1727 00d4 04       		.byte	0x4
 1728 00d5 C9050000 		.4byte	.LASF19
 1729 00d9 02       		.uleb128 0x2
 1730 00da 04       		.byte	0x4
 1731 00db 07       		.byte	0x7
 1732 00dc FC030000 		.4byte	.LASF20
 1733 00e0 06       		.uleb128 0x6
 1734 00e1 04       		.byte	0x4
 1735 00e2 CB000000 		.4byte	0xcb
 1736 00e6 07       		.uleb128 0x7
 1737 00e7 CB000000 		.4byte	0xcb
 1738 00eb F6000000 		.4byte	0xf6
 1739 00ef 08       		.uleb128 0x8
 1740 00f0 D9000000 		.4byte	0xd9
ARM GAS  C:\Users\HYFI_A~1\AppData\Local\Temp\ccb6s9SH.s 			page 43


 1741 00f4 17       		.byte	0x17
 1742 00f5 00       		.byte	0
 1743 00f6 09       		.uleb128 0x9
 1744 00f7 0C       		.byte	0xc
 1745 00f8 05       		.byte	0x5
 1746 00f9 30       		.byte	0x30
 1747 00fa 5F010000 		.4byte	0x15f
 1748 00fe 0A       		.uleb128 0xa
 1749 00ff 53656300 		.ascii	"Sec\000"
 1750 0103 05       		.byte	0x5
 1751 0104 32       		.byte	0x32
 1752 0105 81000000 		.4byte	0x81
 1753 0109 00       		.byte	0
 1754 010a 0A       		.uleb128 0xa
 1755 010b 4D696E00 		.ascii	"Min\000"
 1756 010f 05       		.byte	0x5
 1757 0110 33       		.byte	0x33
 1758 0111 81000000 		.4byte	0x81
 1759 0115 01       		.byte	0x1
 1760 0116 0B       		.uleb128 0xb
 1761 0117 1C010000 		.4byte	.LASF21
 1762 011b 05       		.byte	0x5
 1763 011c 34       		.byte	0x34
 1764 011d 81000000 		.4byte	0x81
 1765 0121 02       		.byte	0x2
 1766 0122 0B       		.uleb128 0xb
 1767 0123 38050000 		.4byte	.LASF22
 1768 0127 05       		.byte	0x5
 1769 0128 35       		.byte	0x35
 1770 0129 81000000 		.4byte	0x81
 1771 012d 03       		.byte	0x3
 1772 012e 0B       		.uleb128 0xb
 1773 012f 24030000 		.4byte	.LASF23
 1774 0133 05       		.byte	0x5
 1775 0134 36       		.byte	0x36
 1776 0135 81000000 		.4byte	0x81
 1777 0139 04       		.byte	0x4
 1778 013a 0B       		.uleb128 0xb
 1779 013b C9060000 		.4byte	.LASF24
 1780 013f 05       		.byte	0x5
 1781 0140 37       		.byte	0x37
 1782 0141 8D000000 		.4byte	0x8d
 1783 0145 06       		.byte	0x6
 1784 0146 0B       		.uleb128 0xb
 1785 0147 DF040000 		.4byte	.LASF25
 1786 014b 05       		.byte	0x5
 1787 014c 38       		.byte	0x38
 1788 014d 81000000 		.4byte	0x81
 1789 0151 08       		.byte	0x8
 1790 0152 0B       		.uleb128 0xb
 1791 0153 71030000 		.4byte	.LASF26
 1792 0157 05       		.byte	0x5
 1793 0158 39       		.byte	0x39
 1794 0159 8D000000 		.4byte	0x8d
 1795 015d 0A       		.byte	0xa
 1796 015e 00       		.byte	0
 1797 015f 03       		.uleb128 0x3
ARM GAS  C:\Users\HYFI_A~1\AppData\Local\Temp\ccb6s9SH.s 			page 44


 1798 0160 3D040000 		.4byte	.LASF27
 1799 0164 05       		.byte	0x5
 1800 0165 3A       		.byte	0x3a
 1801 0166 6A010000 		.4byte	0x16a
 1802 016a 0C       		.uleb128 0xc
 1803 016b F6000000 		.4byte	0xf6
 1804 016f 0D       		.uleb128 0xd
 1805 0170 8101     		.2byte	0x181
 1806 0172 06       		.byte	0x6
 1807 0173 0A       		.byte	0xa
 1808 0174 9D010000 		.4byte	0x19d
 1809 0178 0B       		.uleb128 0xb
 1810 0179 D5040000 		.4byte	.LASF28
 1811 017d 06       		.byte	0x6
 1812 017e 0B       		.byte	0xb
 1813 017f 9D010000 		.4byte	0x19d
 1814 0183 00       		.byte	0
 1815 0184 0B       		.uleb128 0xb
 1816 0185 83060000 		.4byte	.LASF29
 1817 0189 06       		.byte	0x6
 1818 018a 0C       		.byte	0xc
 1819 018b 81000000 		.4byte	0x81
 1820 018f 80       		.byte	0x80
 1821 0190 0B       		.uleb128 0xb
 1822 0191 5A050000 		.4byte	.LASF30
 1823 0195 06       		.byte	0x6
 1824 0196 0D       		.byte	0xd
 1825 0197 AD010000 		.4byte	0x1ad
 1826 019b 81       		.byte	0x81
 1827 019c 00       		.byte	0
 1828 019d 07       		.uleb128 0x7
 1829 019e CB000000 		.4byte	0xcb
 1830 01a2 AD010000 		.4byte	0x1ad
 1831 01a6 08       		.uleb128 0x8
 1832 01a7 D9000000 		.4byte	0xd9
 1833 01ab 7F       		.byte	0x7f
 1834 01ac 00       		.byte	0
 1835 01ad 07       		.uleb128 0x7
 1836 01ae CB000000 		.4byte	0xcb
 1837 01b2 BD010000 		.4byte	0x1bd
 1838 01b6 08       		.uleb128 0x8
 1839 01b7 D9000000 		.4byte	0xd9
 1840 01bb FF       		.byte	0xff
 1841 01bc 00       		.byte	0
 1842 01bd 03       		.uleb128 0x3
 1843 01be 42050000 		.4byte	.LASF31
 1844 01c2 06       		.byte	0x6
 1845 01c3 0E       		.byte	0xe
 1846 01c4 6F010000 		.4byte	0x16f
 1847 01c8 09       		.uleb128 0x9
 1848 01c9 1A       		.byte	0x1a
 1849 01ca 07       		.byte	0x7
 1850 01cb 0C       		.byte	0xc
 1851 01cc 01020000 		.4byte	0x201
 1852 01d0 0B       		.uleb128 0xb
 1853 01d1 3F020000 		.4byte	.LASF32
 1854 01d5 07       		.byte	0x7
ARM GAS  C:\Users\HYFI_A~1\AppData\Local\Temp\ccb6s9SH.s 			page 45


 1855 01d6 0D       		.byte	0xd
 1856 01d7 01020000 		.4byte	0x201
 1857 01db 00       		.byte	0
 1858 01dc 0B       		.uleb128 0xb
 1859 01dd 2D060000 		.4byte	.LASF33
 1860 01e1 07       		.byte	0x7
 1861 01e2 0E       		.byte	0xe
 1862 01e3 A5000000 		.4byte	0xa5
 1863 01e7 16       		.byte	0x16
 1864 01e8 0B       		.uleb128 0xb
 1865 01e9 D4020000 		.4byte	.LASF34
 1866 01ed 07       		.byte	0x7
 1867 01ee 0F       		.byte	0xf
 1868 01ef 81000000 		.4byte	0x81
 1869 01f3 18       		.byte	0x18
 1870 01f4 0B       		.uleb128 0xb
 1871 01f5 17000000 		.4byte	.LASF35
 1872 01f9 07       		.byte	0x7
 1873 01fa 10       		.byte	0x10
 1874 01fb 81000000 		.4byte	0x81
 1875 01ff 19       		.byte	0x19
 1876 0200 00       		.byte	0
 1877 0201 07       		.uleb128 0x7
 1878 0202 A5000000 		.4byte	0xa5
 1879 0206 11020000 		.4byte	0x211
 1880 020a 08       		.uleb128 0x8
 1881 020b D9000000 		.4byte	0xd9
 1882 020f 0A       		.byte	0xa
 1883 0210 00       		.byte	0
 1884 0211 03       		.uleb128 0x3
 1885 0212 6A040000 		.4byte	.LASF36
 1886 0216 07       		.byte	0x7
 1887 0217 11       		.byte	0x11
 1888 0218 C8010000 		.4byte	0x1c8
 1889 021c 09       		.uleb128 0x9
 1890 021d 10       		.byte	0x10
 1891 021e 08       		.byte	0x8
 1892 021f 0F       		.byte	0xf
 1893 0220 55020000 		.4byte	0x255
 1894 0224 0B       		.uleb128 0xb
 1895 0225 14030000 		.4byte	.LASF37
 1896 0229 08       		.byte	0x8
 1897 022a 10       		.byte	0x10
 1898 022b BD000000 		.4byte	0xbd
 1899 022f 00       		.byte	0
 1900 0230 0B       		.uleb128 0xb
 1901 0231 95010000 		.4byte	.LASF38
 1902 0235 08       		.byte	0x8
 1903 0236 11       		.byte	0x11
 1904 0237 BD000000 		.4byte	0xbd
 1905 023b 04       		.byte	0x4
 1906 023c 0B       		.uleb128 0xb
 1907 023d A3010000 		.4byte	.LASF39
 1908 0241 08       		.byte	0x8
 1909 0242 12       		.byte	0x12
 1910 0243 BD000000 		.4byte	0xbd
 1911 0247 08       		.byte	0x8
ARM GAS  C:\Users\HYFI_A~1\AppData\Local\Temp\ccb6s9SH.s 			page 46


 1912 0248 0B       		.uleb128 0xb
 1913 0249 AA050000 		.4byte	.LASF40
 1914 024d 08       		.byte	0x8
 1915 024e 13       		.byte	0x13
 1916 024f 81000000 		.4byte	0x81
 1917 0253 0C       		.byte	0xc
 1918 0254 00       		.byte	0
 1919 0255 03       		.uleb128 0x3
 1920 0256 EA060000 		.4byte	.LASF41
 1921 025a 08       		.byte	0x8
 1922 025b 14       		.byte	0x14
 1923 025c 1C020000 		.4byte	0x21c
 1924 0260 0E       		.uleb128 0xe
 1925 0261 746D00   		.ascii	"tm\000"
 1926 0264 24       		.byte	0x24
 1927 0265 09       		.byte	0x9
 1928 0266 21       		.byte	0x21
 1929 0267 D8020000 		.4byte	0x2d8
 1930 026b 0B       		.uleb128 0xb
 1931 026c 7C060000 		.4byte	.LASF42
 1932 0270 09       		.byte	0x9
 1933 0271 23       		.byte	0x23
 1934 0272 68000000 		.4byte	0x68
 1935 0276 00       		.byte	0
 1936 0277 0B       		.uleb128 0xb
 1937 0278 EF030000 		.4byte	.LASF43
 1938 027c 09       		.byte	0x9
 1939 027d 24       		.byte	0x24
 1940 027e 68000000 		.4byte	0x68
 1941 0282 04       		.byte	0x4
 1942 0283 0B       		.uleb128 0xb
 1943 0284 0F000000 		.4byte	.LASF44
 1944 0288 09       		.byte	0x9
 1945 0289 25       		.byte	0x25
 1946 028a 68000000 		.4byte	0x68
 1947 028e 08       		.byte	0x8
 1948 028f 0B       		.uleb128 0xb
 1949 0290 6B060000 		.4byte	.LASF45
 1950 0294 09       		.byte	0x9
 1951 0295 26       		.byte	0x26
 1952 0296 68000000 		.4byte	0x68
 1953 029a 0C       		.byte	0xc
 1954 029b 0B       		.uleb128 0xb
 1955 029c 6A020000 		.4byte	.LASF46
 1956 02a0 09       		.byte	0x9
 1957 02a1 27       		.byte	0x27
 1958 02a2 68000000 		.4byte	0x68
 1959 02a6 10       		.byte	0x10
 1960 02a7 0B       		.uleb128 0xb
 1961 02a8 96020000 		.4byte	.LASF47
 1962 02ac 09       		.byte	0x9
 1963 02ad 28       		.byte	0x28
 1964 02ae 68000000 		.4byte	0x68
 1965 02b2 14       		.byte	0x14
 1966 02b3 0B       		.uleb128 0xb
 1967 02b4 B0050000 		.4byte	.LASF48
 1968 02b8 09       		.byte	0x9
ARM GAS  C:\Users\HYFI_A~1\AppData\Local\Temp\ccb6s9SH.s 			page 47


 1969 02b9 29       		.byte	0x29
 1970 02ba 68000000 		.4byte	0x68
 1971 02be 18       		.byte	0x18
 1972 02bf 0B       		.uleb128 0xb
 1973 02c0 05040000 		.4byte	.LASF49
 1974 02c4 09       		.byte	0x9
 1975 02c5 2A       		.byte	0x2a
 1976 02c6 68000000 		.4byte	0x68
 1977 02ca 1C       		.byte	0x1c
 1978 02cb 0B       		.uleb128 0xb
 1979 02cc 55030000 		.4byte	.LASF50
 1980 02d0 09       		.byte	0x9
 1981 02d1 2B       		.byte	0x2b
 1982 02d2 68000000 		.4byte	0x68
 1983 02d6 20       		.byte	0x20
 1984 02d7 00       		.byte	0
 1985 02d8 09       		.uleb128 0x9
 1986 02d9 3C       		.byte	0x3c
 1987 02da 0A       		.byte	0xa
 1988 02db 2C       		.byte	0x2c
 1989 02dc 05030000 		.4byte	0x305
 1990 02e0 0B       		.uleb128 0xb
 1991 02e1 56060000 		.4byte	.LASF51
 1992 02e5 0A       		.byte	0xa
 1993 02e6 2D       		.byte	0x2d
 1994 02e7 05030000 		.4byte	0x305
 1995 02eb 00       		.byte	0
 1996 02ec 0B       		.uleb128 0xb
 1997 02ed 36020000 		.4byte	.LASF52
 1998 02f1 0A       		.byte	0xa
 1999 02f2 2E       		.byte	0x2e
 2000 02f3 05030000 		.4byte	0x305
 2001 02f7 14       		.byte	0x14
 2002 02f8 0B       		.uleb128 0xb
 2003 02f9 55050000 		.4byte	.LASF53
 2004 02fd 0A       		.byte	0xa
 2005 02fe 2F       		.byte	0x2f
 2006 02ff 05030000 		.4byte	0x305
 2007 0303 28       		.byte	0x28
 2008 0304 00       		.byte	0
 2009 0305 07       		.uleb128 0x7
 2010 0306 CB000000 		.4byte	0xcb
 2011 030a 15030000 		.4byte	0x315
 2012 030e 08       		.uleb128 0x8
 2013 030f D9000000 		.4byte	0xd9
 2014 0313 13       		.byte	0x13
 2015 0314 00       		.byte	0
 2016 0315 03       		.uleb128 0x3
 2017 0316 C9010000 		.4byte	.LASF54
 2018 031a 0A       		.byte	0xa
 2019 031b 30       		.byte	0x30
 2020 031c D8020000 		.4byte	0x2d8
 2021 0320 09       		.uleb128 0x9
 2022 0321 0C       		.byte	0xc
 2023 0322 0A       		.byte	0xa
 2024 0323 32       		.byte	0x32
 2025 0324 58030000 		.4byte	0x358
ARM GAS  C:\Users\HYFI_A~1\AppData\Local\Temp\ccb6s9SH.s 			page 48


 2026 0328 0B       		.uleb128 0xb
 2027 0329 DA050000 		.4byte	.LASF55
 2028 032d 0A       		.byte	0xa
 2029 032e 33       		.byte	0x33
 2030 032f 81000000 		.4byte	0x81
 2031 0333 00       		.byte	0
 2032 0334 0A       		.uleb128 0xa
 2033 0335 737100   		.ascii	"sq\000"
 2034 0338 0A       		.byte	0xa
 2035 0339 34       		.byte	0x34
 2036 033a 81000000 		.4byte	0x81
 2037 033e 01       		.byte	0x1
 2038 033f 0B       		.uleb128 0xb
 2039 0340 72010000 		.4byte	.LASF56
 2040 0344 0A       		.byte	0xa
 2041 0345 35       		.byte	0x35
 2042 0346 68000000 		.4byte	0x68
 2043 034a 04       		.byte	0x4
 2044 034b 0B       		.uleb128 0xb
 2045 034c 8F030000 		.4byte	.LASF57
 2046 0350 0A       		.byte	0xa
 2047 0351 36       		.byte	0x36
 2048 0352 68000000 		.4byte	0x68
 2049 0356 08       		.byte	0x8
 2050 0357 00       		.byte	0
 2051 0358 03       		.uleb128 0x3
 2052 0359 9C050000 		.4byte	.LASF58
 2053 035d 0A       		.byte	0xa
 2054 035e 37       		.byte	0x37
 2055 035f 20030000 		.4byte	0x320
 2056 0363 09       		.uleb128 0x9
 2057 0364 2C       		.byte	0x2c
 2058 0365 0B       		.byte	0xb
 2059 0366 0F       		.byte	0xf
 2060 0367 90030000 		.4byte	0x390
 2061 036b 0A       		.uleb128 0xa
 2062 036c 6B657900 		.ascii	"key\000"
 2063 0370 0B       		.byte	0xb
 2064 0371 10       		.byte	0x10
 2065 0372 05030000 		.4byte	0x305
 2066 0376 00       		.byte	0
 2067 0377 0B       		.uleb128 0xb
 2068 0378 8B020000 		.4byte	.LASF59
 2069 037c 0B       		.byte	0xb
 2070 037d 11       		.byte	0x11
 2071 037e 05030000 		.4byte	0x305
 2072 0382 14       		.byte	0x14
 2073 0383 0B       		.uleb128 0xb
 2074 0384 33040000 		.4byte	.LASF60
 2075 0388 0B       		.byte	0xb
 2076 0389 12       		.byte	0x12
 2077 038a B1000000 		.4byte	0xb1
 2078 038e 28       		.byte	0x28
 2079 038f 00       		.byte	0
 2080 0390 03       		.uleb128 0x3
 2081 0391 BD020000 		.4byte	.LASF61
 2082 0395 0B       		.byte	0xb
ARM GAS  C:\Users\HYFI_A~1\AppData\Local\Temp\ccb6s9SH.s 			page 49


 2083 0396 13       		.byte	0x13
 2084 0397 63030000 		.4byte	0x363
 2085 039b 09       		.uleb128 0x9
 2086 039c 06       		.byte	0x6
 2087 039d 0C       		.byte	0xc
 2088 039e 2F       		.byte	0x2f
 2089 039f D4030000 		.4byte	0x3d4
 2090 03a3 0B       		.uleb128 0xb
 2091 03a4 52020000 		.4byte	.LASF62
 2092 03a8 0C       		.byte	0xc
 2093 03a9 31       		.byte	0x31
 2094 03aa 8D000000 		.4byte	0x8d
 2095 03ae 00       		.byte	0
 2096 03af 0B       		.uleb128 0xb
 2097 03b0 DF010000 		.4byte	.LASF63
 2098 03b4 0C       		.byte	0xc
 2099 03b5 32       		.byte	0x32
 2100 03b6 A5000000 		.4byte	0xa5
 2101 03ba 02       		.byte	0x2
 2102 03bb 0B       		.uleb128 0xb
 2103 03bc B1060000 		.4byte	.LASF64
 2104 03c0 0C       		.byte	0xc
 2105 03c1 33       		.byte	0x33
 2106 03c2 81000000 		.4byte	0x81
 2107 03c6 04       		.byte	0x4
 2108 03c7 0B       		.uleb128 0xb
 2109 03c8 54000000 		.4byte	.LASF65
 2110 03cc 0C       		.byte	0xc
 2111 03cd 34       		.byte	0x34
 2112 03ce 81000000 		.4byte	0x81
 2113 03d2 05       		.byte	0x5
 2114 03d3 00       		.byte	0
 2115 03d4 03       		.uleb128 0x3
 2116 03d5 F5010000 		.4byte	.LASF66
 2117 03d9 0C       		.byte	0xc
 2118 03da 37       		.byte	0x37
 2119 03db DF030000 		.4byte	0x3df
 2120 03df 0C       		.uleb128 0xc
 2121 03e0 9B030000 		.4byte	0x39b
 2122 03e4 09       		.uleb128 0x9
 2123 03e5 1C       		.byte	0x1c
 2124 03e6 0C       		.byte	0xc
 2125 03e7 39       		.byte	0x39
 2126 03e8 05040000 		.4byte	0x405
 2127 03ec 0B       		.uleb128 0xb
 2128 03ed 5E030000 		.4byte	.LASF67
 2129 03f1 0C       		.byte	0xc
 2130 03f2 3B       		.byte	0x3b
 2131 03f3 05040000 		.4byte	0x405
 2132 03f7 00       		.byte	0
 2133 03f8 0B       		.uleb128 0xb
 2134 03f9 5D060000 		.4byte	.LASF68
 2135 03fd 0C       		.byte	0xc
 2136 03fe 3C       		.byte	0x3c
 2137 03ff E6000000 		.4byte	0xe6
 2138 0403 04       		.byte	0x4
 2139 0404 00       		.byte	0
ARM GAS  C:\Users\HYFI_A~1\AppData\Local\Temp\ccb6s9SH.s 			page 50


 2140 0405 06       		.uleb128 0x6
 2141 0406 04       		.byte	0x4
 2142 0407 15030000 		.4byte	0x315
 2143 040b 03       		.uleb128 0x3
 2144 040c CD030000 		.4byte	.LASF69
 2145 0410 0C       		.byte	0xc
 2146 0411 3E       		.byte	0x3e
 2147 0412 E4030000 		.4byte	0x3e4
 2148 0416 0D       		.uleb128 0xd
 2149 0417 4401     		.2byte	0x144
 2150 0419 0C       		.byte	0xc
 2151 041a 41       		.byte	0x41
 2152 041b 69040000 		.4byte	0x469
 2153 041f 0B       		.uleb128 0xb
 2154 0420 01020000 		.4byte	.LASF70
 2155 0424 0C       		.byte	0xc
 2156 0425 44       		.byte	0x44
 2157 0426 05030000 		.4byte	0x305
 2158 042a 00       		.byte	0
 2159 042b 0B       		.uleb128 0xb
 2160 042c 69030000 		.4byte	.LASF71
 2161 0430 0C       		.byte	0xc
 2162 0431 46       		.byte	0x46
 2163 0432 69040000 		.4byte	0x469
 2164 0436 14       		.byte	0x14
 2165 0437 0B       		.uleb128 0xb
 2166 0438 4D030000 		.4byte	.LASF72
 2167 043c 0C       		.byte	0xc
 2168 043d 47       		.byte	0x47
 2169 043e 68000000 		.4byte	0x68
 2170 0442 78       		.byte	0x78
 2171 0443 0B       		.uleb128 0xb
 2172 0444 45030000 		.4byte	.LASF73
 2173 0448 0C       		.byte	0xc
 2174 0449 48       		.byte	0x48
 2175 044a 79040000 		.4byte	0x479
 2176 044e 7C       		.byte	0x7c
 2177 044f 0B       		.uleb128 0xb
 2178 0450 71020000 		.4byte	.LASF74
 2179 0454 0C       		.byte	0xc
 2180 0455 49       		.byte	0x49
 2181 0456 69040000 		.4byte	0x469
 2182 045a AE       		.byte	0xae
 2183 045b 0F       		.uleb128 0xf
 2184 045c 9F060000 		.4byte	.LASF75
 2185 0460 0C       		.byte	0xc
 2186 0461 4A       		.byte	0x4a
 2187 0462 79040000 		.4byte	0x479
 2188 0466 1201     		.2byte	0x112
 2189 0468 00       		.byte	0
 2190 0469 07       		.uleb128 0x7
 2191 046a CB000000 		.4byte	0xcb
 2192 046e 79040000 		.4byte	0x479
 2193 0472 08       		.uleb128 0x8
 2194 0473 D9000000 		.4byte	0xd9
 2195 0477 63       		.byte	0x63
 2196 0478 00       		.byte	0
ARM GAS  C:\Users\HYFI_A~1\AppData\Local\Temp\ccb6s9SH.s 			page 51


 2197 0479 07       		.uleb128 0x7
 2198 047a CB000000 		.4byte	0xcb
 2199 047e 89040000 		.4byte	0x489
 2200 0482 08       		.uleb128 0x8
 2201 0483 D9000000 		.4byte	0xd9
 2202 0487 31       		.byte	0x31
 2203 0488 00       		.byte	0
 2204 0489 03       		.uleb128 0x3
 2205 048a 0D040000 		.4byte	.LASF76
 2206 048e 0C       		.byte	0xc
 2207 048f 4D       		.byte	0x4d
 2208 0490 16040000 		.4byte	0x416
 2209 0494 10       		.uleb128 0x10
 2210 0495 6C000000 		.4byte	.LASF133
 2211 0499 01       		.byte	0x1
 2212 049a 1B       		.byte	0x1b
 2213 049b 00000000 		.4byte	.LFB64
 2214 049f 0C000000 		.4byte	.LFE64-.LFB64
 2215 04a3 01       		.uleb128 0x1
 2216 04a4 9C       		.byte	0x9c
 2217 04a5 11       		.uleb128 0x11
 2218 04a6 2D050000 		.4byte	.LASF88
 2219 04aa 01       		.byte	0x1
 2220 04ab 2C       		.byte	0x2c
 2221 04ac 00000000 		.4byte	.LFB65
 2222 04b0 4C010000 		.4byte	.LFE65-.LFB65
 2223 04b4 01       		.uleb128 0x1
 2224 04b5 9C       		.byte	0x9c
 2225 04b6 C9040000 		.4byte	0x4c9
 2226 04ba 12       		.uleb128 0x12
 2227 04bb 15060000 		.4byte	.LASF77
 2228 04bf 01       		.byte	0x1
 2229 04c0 3E       		.byte	0x3e
 2230 04c1 C9040000 		.4byte	0x4c9
 2231 04c5 02       		.uleb128 0x2
 2232 04c6 91       		.byte	0x91
 2233 04c7 68       		.sleb128 -24
 2234 04c8 00       		.byte	0
 2235 04c9 07       		.uleb128 0x7
 2236 04ca 99000000 		.4byte	0x99
 2237 04ce D9040000 		.4byte	0x4d9
 2238 04d2 08       		.uleb128 0x8
 2239 04d3 D9000000 		.4byte	0xd9
 2240 04d7 01       		.byte	0x1
 2241 04d8 00       		.byte	0
 2242 04d9 13       		.uleb128 0x13
 2243 04da 76030000 		.4byte	.LASF79
 2244 04de 01       		.byte	0x1
 2245 04df 63       		.byte	0x63
 2246 04e0 68000000 		.4byte	0x68
 2247 04e4 00000000 		.4byte	.LFB66
 2248 04e8 64000000 		.4byte	.LFE66-.LFB66
 2249 04ec 01       		.uleb128 0x1
 2250 04ed 9C       		.byte	0x9c
 2251 04ee 01050000 		.4byte	0x501
 2252 04f2 12       		.uleb128 0x12
 2253 04f3 79020000 		.4byte	.LASF78
ARM GAS  C:\Users\HYFI_A~1\AppData\Local\Temp\ccb6s9SH.s 			page 52


 2254 04f7 01       		.byte	0x1
 2255 04f8 79       		.byte	0x79
 2256 04f9 81000000 		.4byte	0x81
 2257 04fd 02       		.uleb128 0x2
 2258 04fe 91       		.byte	0x91
 2259 04ff 77       		.sleb128 -9
 2260 0500 00       		.byte	0
 2261 0501 14       		.uleb128 0x14
 2262 0502 3B060000 		.4byte	.LASF134
 2263 0506 01       		.byte	0x1
 2264 0507 8B       		.byte	0x8b
 2265 0508 00000000 		.4byte	.LFB67
 2266 050c 2A000000 		.4byte	.LFE67-.LFB67
 2267 0510 01       		.uleb128 0x1
 2268 0511 9C       		.byte	0x9c
 2269 0512 15       		.uleb128 0x15
 2270 0513 C9020000 		.4byte	.LASF80
 2271 0517 01       		.byte	0x1
 2272 0518 B8       		.byte	0xb8
 2273 0519 00000000 		.4byte	.LFB68
 2274 051d 50000000 		.4byte	.LFE68-.LFB68
 2275 0521 01       		.uleb128 0x1
 2276 0522 9C       		.byte	0x9c
 2277 0523 36050000 		.4byte	0x536
 2278 0527 16       		.uleb128 0x16
 2279 0528 BF060000 		.4byte	.LASF81
 2280 052c 01       		.byte	0x1
 2281 052d B8       		.byte	0xb8
 2282 052e 81000000 		.4byte	0x81
 2283 0532 02       		.uleb128 0x2
 2284 0533 91       		.byte	0x91
 2285 0534 77       		.sleb128 -9
 2286 0535 00       		.byte	0
 2287 0536 17       		.uleb128 0x17
 2288 0537 D3060000 		.4byte	.LASF85
 2289 053b 01       		.byte	0x1
 2290 053c CB       		.byte	0xcb
 2291 053d 81000000 		.4byte	0x81
 2292 0541 00000000 		.4byte	.LFB69
 2293 0545 48000000 		.4byte	.LFE69-.LFB69
 2294 0549 01       		.uleb128 0x1
 2295 054a 9C       		.byte	0x9c
 2296 054b 6C050000 		.4byte	0x56c
 2297 054f 16       		.uleb128 0x16
 2298 0550 03030000 		.4byte	.LASF82
 2299 0554 01       		.byte	0x1
 2300 0555 CB       		.byte	0xcb
 2301 0556 6C050000 		.4byte	0x56c
 2302 055a 02       		.uleb128 0x2
 2303 055b 91       		.byte	0x91
 2304 055c 74       		.sleb128 -12
 2305 055d 16       		.uleb128 0x16
 2306 055e BF060000 		.4byte	.LASF81
 2307 0562 01       		.byte	0x1
 2308 0563 CB       		.byte	0xcb
 2309 0564 81000000 		.4byte	0x81
 2310 0568 02       		.uleb128 0x2
ARM GAS  C:\Users\HYFI_A~1\AppData\Local\Temp\ccb6s9SH.s 			page 53


 2311 0569 91       		.byte	0x91
 2312 056a 73       		.sleb128 -13
 2313 056b 00       		.byte	0
 2314 056c 06       		.uleb128 0x6
 2315 056d 04       		.byte	0x4
 2316 056e D4030000 		.4byte	0x3d4
 2317 0572 18       		.uleb128 0x18
 2318 0573 0B050000 		.4byte	.LASF83
 2319 0577 01       		.byte	0x1
 2320 0578 D9       		.byte	0xd9
 2321 0579 00000000 		.4byte	.LFB70
 2322 057d 1E000000 		.4byte	.LFE70-.LFB70
 2323 0581 01       		.uleb128 0x1
 2324 0582 9C       		.byte	0x9c
 2325 0583 96050000 		.4byte	0x596
 2326 0587 16       		.uleb128 0x16
 2327 0588 61050000 		.4byte	.LASF84
 2328 058c 01       		.byte	0x1
 2329 058d D9       		.byte	0xd9
 2330 058e 6C050000 		.4byte	0x56c
 2331 0592 02       		.uleb128 0x2
 2332 0593 91       		.byte	0x91
 2333 0594 74       		.sleb128 -12
 2334 0595 00       		.byte	0
 2335 0596 19       		.uleb128 0x19
 2336 0597 4B040000 		.4byte	.LASF86
 2337 059b 01       		.byte	0x1
 2338 059c E2       		.byte	0xe2
 2339 059d D4030000 		.4byte	0x3d4
 2340 05a1 00000000 		.4byte	.LFB71
 2341 05a5 46000000 		.4byte	.LFE71-.LFB71
 2342 05a9 01       		.uleb128 0x1
 2343 05aa 9C       		.byte	0x9c
 2344 05ab E8050000 		.4byte	0x5e8
 2345 05af 16       		.uleb128 0x16
 2346 05b0 52020000 		.4byte	.LASF62
 2347 05b4 01       		.byte	0x1
 2348 05b5 E2       		.byte	0xe2
 2349 05b6 8D000000 		.4byte	0x8d
 2350 05ba 02       		.uleb128 0x2
 2351 05bb 91       		.byte	0x91
 2352 05bc 6A       		.sleb128 -22
 2353 05bd 16       		.uleb128 0x16
 2354 05be B1060000 		.4byte	.LASF64
 2355 05c2 01       		.byte	0x1
 2356 05c3 E2       		.byte	0xe2
 2357 05c4 81000000 		.4byte	0x81
 2358 05c8 02       		.uleb128 0x2
 2359 05c9 91       		.byte	0x91
 2360 05ca 69       		.sleb128 -23
 2361 05cb 16       		.uleb128 0x16
 2362 05cc 54000000 		.4byte	.LASF65
 2363 05d0 01       		.byte	0x1
 2364 05d1 E2       		.byte	0xe2
 2365 05d2 81000000 		.4byte	0x81
 2366 05d6 02       		.uleb128 0x2
 2367 05d7 91       		.byte	0x91
ARM GAS  C:\Users\HYFI_A~1\AppData\Local\Temp\ccb6s9SH.s 			page 54


 2368 05d8 68       		.sleb128 -24
 2369 05d9 12       		.uleb128 0x12
 2370 05da 73060000 		.4byte	.LASF87
 2371 05de 01       		.byte	0x1
 2372 05df E4       		.byte	0xe4
 2373 05e0 D4030000 		.4byte	0x3d4
 2374 05e4 02       		.uleb128 0x2
 2375 05e5 91       		.byte	0x91
 2376 05e6 70       		.sleb128 -16
 2377 05e7 00       		.byte	0
 2378 05e8 11       		.uleb128 0x11
 2379 05e9 70050000 		.4byte	.LASF89
 2380 05ed 01       		.byte	0x1
 2381 05ee F9       		.byte	0xf9
 2382 05ef 00000000 		.4byte	.LFB72
 2383 05f3 E0000000 		.4byte	.LFE72-.LFB72
 2384 05f7 01       		.uleb128 0x1
 2385 05f8 9C       		.byte	0x9c
 2386 05f9 3E060000 		.4byte	0x63e
 2387 05fd 1A       		.uleb128 0x1a
 2388 05fe 00000000 		.4byte	.LASF90
 2389 0602 01       		.byte	0x1
 2390 0603 0001     		.2byte	0x100
 2391 0605 BD010000 		.4byte	0x1bd
 2392 0609 03       		.uleb128 0x3
 2393 060a 91       		.byte	0x91
 2394 060b EC7C     		.sleb128 -404
 2395 060d 1A       		.uleb128 0x1a
 2396 060e 47010000 		.4byte	.LASF91
 2397 0612 01       		.byte	0x1
 2398 0613 0501     		.2byte	0x105
 2399 0615 BD010000 		.4byte	0x1bd
 2400 0619 03       		.uleb128 0x3
 2401 061a 91       		.byte	0x91
 2402 061b E879     		.sleb128 -792
 2403 061d 1A       		.uleb128 0x1a
 2404 061e 22050000 		.4byte	.LASF92
 2405 0622 01       		.byte	0x1
 2406 0623 0701     		.2byte	0x107
 2407 0625 BD010000 		.4byte	0x1bd
 2408 0629 03       		.uleb128 0x3
 2409 062a 91       		.byte	0x91
 2410 062b E476     		.sleb128 -1180
 2411 062d 1A       		.uleb128 0x1a
 2412 062e A2030000 		.4byte	.LASF93
 2413 0632 01       		.byte	0x1
 2414 0633 0901     		.2byte	0x109
 2415 0635 BD010000 		.4byte	0x1bd
 2416 0639 03       		.uleb128 0x3
 2417 063a 91       		.byte	0x91
 2418 063b E073     		.sleb128 -1568
 2419 063d 00       		.byte	0
 2420 063e 1B       		.uleb128 0x1b
 2421 063f DE060000 		.4byte	.LASF135
 2422 0643 01       		.byte	0x1
 2423 0644 1601     		.2byte	0x116
 2424 0646 68000000 		.4byte	0x68
ARM GAS  C:\Users\HYFI_A~1\AppData\Local\Temp\ccb6s9SH.s 			page 55


 2425 064a 00000000 		.4byte	.LFB73
 2426 064e 1E000000 		.4byte	.LFE73-.LFB73
 2427 0652 01       		.uleb128 0x1
 2428 0653 9C       		.byte	0x9c
 2429 0654 1C       		.uleb128 0x1c
 2430 0655 19020000 		.4byte	.LASF94
 2431 0659 01       		.byte	0x1
 2432 065a 2A01     		.2byte	0x12a
 2433 065c 81000000 		.4byte	0x81
 2434 0660 00000000 		.4byte	.LFB74
 2435 0664 4C020000 		.4byte	.LFE74-.LFB74
 2436 0668 01       		.uleb128 0x1
 2437 0669 9C       		.byte	0x9c
 2438 066a FC060000 		.4byte	0x6fc
 2439 066e 1D       		.uleb128 0x1d
 2440 066f 42000000 		.4byte	.LBB2
 2441 0673 86010000 		.4byte	.LBE2-.LBB2
 2442 0677 1A       		.uleb128 0x1a
 2443 0678 D8030000 		.4byte	.LASF95
 2444 067c 01       		.byte	0x1
 2445 067d 4F01     		.2byte	0x14f
 2446 067f E0000000 		.4byte	0xe0
 2447 0683 02       		.uleb128 0x2
 2448 0684 91       		.byte	0x91
 2449 0685 74       		.sleb128 -12
 2450 0686 1A       		.uleb128 0x1a
 2451 0687 B8050000 		.4byte	.LASF96
 2452 068b 01       		.byte	0x1
 2453 068c 5201     		.2byte	0x152
 2454 068e 8D000000 		.4byte	0x8d
 2455 0692 02       		.uleb128 0x2
 2456 0693 91       		.byte	0x91
 2457 0694 72       		.sleb128 -14
 2458 0695 1A       		.uleb128 0x1a
 2459 0696 35000000 		.4byte	.LASF97
 2460 069a 01       		.byte	0x1
 2461 069b 5301     		.2byte	0x153
 2462 069d 05030000 		.4byte	0x305
 2463 06a1 02       		.uleb128 0x2
 2464 06a2 91       		.byte	0x91
 2465 06a3 54       		.sleb128 -44
 2466 06a4 1A       		.uleb128 0x1a
 2467 06a5 00060000 		.4byte	.LASF98
 2468 06a9 01       		.byte	0x1
 2469 06aa 6C01     		.2byte	0x16c
 2470 06ac FC060000 		.4byte	0x6fc
 2471 06b0 03       		.uleb128 0x3
 2472 06b1 91       		.byte	0x91
 2473 06b2 807E     		.sleb128 -256
 2474 06b4 1A       		.uleb128 0x1a
 2475 06b5 83060000 		.4byte	.LASF29
 2476 06b9 01       		.byte	0x1
 2477 06ba 6D01     		.2byte	0x16d
 2478 06bc 81000000 		.4byte	0x81
 2479 06c0 02       		.uleb128 0x2
 2480 06c1 91       		.byte	0x91
 2481 06c2 71       		.sleb128 -15
ARM GAS  C:\Users\HYFI_A~1\AppData\Local\Temp\ccb6s9SH.s 			page 56


 2482 06c3 1A       		.uleb128 0x1a
 2483 06c4 22020000 		.4byte	.LASF99
 2484 06c8 01       		.byte	0x1
 2485 06c9 8D01     		.2byte	0x18d
 2486 06cb 4C000000 		.4byte	0x4c
 2487 06cf 02       		.uleb128 0x2
 2488 06d0 91       		.byte	0x91
 2489 06d1 68       		.sleb128 -24
 2490 06d2 1D       		.uleb128 0x1d
 2491 06d3 72010000 		.4byte	.LBB3
 2492 06d7 36000000 		.4byte	.LBE3-.LBB3
 2493 06db 1A       		.uleb128 0x1a
 2494 06dc 09020000 		.4byte	.LASF100
 2495 06e0 01       		.byte	0x1
 2496 06e1 8201     		.2byte	0x182
 2497 06e3 68000000 		.4byte	0x68
 2498 06e7 02       		.uleb128 0x2
 2499 06e8 91       		.byte	0x91
 2500 06e9 6C       		.sleb128 -20
 2501 06ea 1A       		.uleb128 0x1a
 2502 06eb 16050000 		.4byte	.LASF101
 2503 06ef 01       		.byte	0x1
 2504 06f0 8301     		.2byte	0x183
 2505 06f2 0C070000 		.4byte	0x70c
 2506 06f6 02       		.uleb128 0x2
 2507 06f7 91       		.byte	0x91
 2508 06f8 48       		.sleb128 -56
 2509 06f9 00       		.byte	0
 2510 06fa 00       		.byte	0
 2511 06fb 00       		.byte	0
 2512 06fc 07       		.uleb128 0x7
 2513 06fd CB000000 		.4byte	0xcb
 2514 0701 0C070000 		.4byte	0x70c
 2515 0705 08       		.uleb128 0x8
 2516 0706 D9000000 		.4byte	0xd9
 2517 070a C7       		.byte	0xc7
 2518 070b 00       		.byte	0
 2519 070c 07       		.uleb128 0x7
 2520 070d CB000000 		.4byte	0xcb
 2521 0711 1C070000 		.4byte	0x71c
 2522 0715 08       		.uleb128 0x8
 2523 0716 D9000000 		.4byte	0xd9
 2524 071a 09       		.byte	0x9
 2525 071b 00       		.byte	0
 2526 071c 1C       		.uleb128 0x1c
 2527 071d 79040000 		.4byte	.LASF102
 2528 0721 01       		.byte	0x1
 2529 0722 A001     		.2byte	0x1a0
 2530 0724 81000000 		.4byte	0x81
 2531 0728 00000000 		.4byte	.LFB75
 2532 072c 44000000 		.4byte	.LFE75-.LFB75
 2533 0730 01       		.uleb128 0x1
 2534 0731 9C       		.byte	0x9c
 2535 0732 50070000 		.4byte	0x750
 2536 0736 1D       		.uleb128 0x1d
 2537 0737 20000000 		.4byte	.LBB4
 2538 073b 1A000000 		.4byte	.LBE4-.LBB4
ARM GAS  C:\Users\HYFI_A~1\AppData\Local\Temp\ccb6s9SH.s 			page 57


 2539 073f 1A       		.uleb128 0x1a
 2540 0740 22020000 		.4byte	.LASF99
 2541 0744 01       		.byte	0x1
 2542 0745 AB01     		.2byte	0x1ab
 2543 0747 4C000000 		.4byte	0x4c
 2544 074b 02       		.uleb128 0x2
 2545 074c 91       		.byte	0x91
 2546 074d 74       		.sleb128 -12
 2547 074e 00       		.byte	0
 2548 074f 00       		.byte	0
 2549 0750 1C       		.uleb128 0x1c
 2550 0751 2F030000 		.4byte	.LASF103
 2551 0755 01       		.byte	0x1
 2552 0756 BD01     		.2byte	0x1bd
 2553 0758 81000000 		.4byte	0x81
 2554 075c 00000000 		.4byte	.LFB76
 2555 0760 C8000000 		.4byte	.LFE76-.LFB76
 2556 0764 01       		.uleb128 0x1
 2557 0765 9C       		.byte	0x9c
 2558 0766 A8070000 		.4byte	0x7a8
 2559 076a 1A       		.uleb128 0x1a
 2560 076b 1E060000 		.4byte	.LASF104
 2561 076f 01       		.byte	0x1
 2562 0770 BF01     		.2byte	0x1bf
 2563 0772 11020000 		.4byte	0x211
 2564 0776 02       		.uleb128 0x2
 2565 0777 91       		.byte	0x91
 2566 0778 50       		.sleb128 -48
 2567 0779 1A       		.uleb128 0x1a
 2568 077a E7020000 		.4byte	.LASF105
 2569 077e 01       		.byte	0x1
 2570 077f C001     		.2byte	0x1c0
 2571 0781 55020000 		.4byte	0x255
 2572 0785 02       		.uleb128 0x2
 2573 0786 91       		.byte	0x91
 2574 0787 40       		.sleb128 -64
 2575 0788 1A       		.uleb128 0x1a
 2576 0789 33040000 		.4byte	.LASF60
 2577 078d 01       		.byte	0x1
 2578 078e C401     		.2byte	0x1c4
 2579 0790 4C000000 		.4byte	0x4c
 2580 0794 02       		.uleb128 0x2
 2581 0795 91       		.byte	0x91
 2582 0796 6C       		.sleb128 -20
 2583 0797 1A       		.uleb128 0x1a
 2584 0798 8B020000 		.4byte	.LASF59
 2585 079c 01       		.byte	0x1
 2586 079d C601     		.2byte	0x1c6
 2587 079f 05030000 		.4byte	0x305
 2588 07a3 03       		.uleb128 0x3
 2589 07a4 91       		.byte	0x91
 2590 07a5 AC7F     		.sleb128 -84
 2591 07a7 00       		.byte	0
 2592 07a8 1E       		.uleb128 0x1e
 2593 07a9 B5020000 		.4byte	.LASF106
 2594 07ad 01       		.byte	0x1
 2595 07ae E301     		.2byte	0x1e3
ARM GAS  C:\Users\HYFI_A~1\AppData\Local\Temp\ccb6s9SH.s 			page 58


 2596 07b0 81000000 		.4byte	0x81
 2597 07b4 00000000 		.4byte	.LFB77
 2598 07b8 74000000 		.4byte	.LFE77-.LFB77
 2599 07bc 01       		.uleb128 0x1
 2600 07bd 9C       		.byte	0x9c
 2601 07be EE070000 		.4byte	0x7ee
 2602 07c2 1F       		.uleb128 0x1f
 2603 07c3 33040000 		.4byte	.LASF60
 2604 07c7 01       		.byte	0x1
 2605 07c8 E301     		.2byte	0x1e3
 2606 07ca 4C000000 		.4byte	0x4c
 2607 07ce 02       		.uleb128 0x2
 2608 07cf 91       		.byte	0x91
 2609 07d0 64       		.sleb128 -28
 2610 07d1 20       		.uleb128 0x20
 2611 07d2 7400     		.ascii	"t\000"
 2612 07d4 01       		.byte	0x1
 2613 07d5 EA01     		.2byte	0x1ea
 2614 07d7 EE070000 		.4byte	0x7ee
 2615 07db 02       		.uleb128 0x2
 2616 07dc 91       		.byte	0x91
 2617 07dd 74       		.sleb128 -12
 2618 07de 1A       		.uleb128 0x1a
 2619 07df EB050000 		.4byte	.LASF107
 2620 07e3 01       		.byte	0x1
 2621 07e4 EE01     		.2byte	0x1ee
 2622 07e6 5F010000 		.4byte	0x15f
 2623 07ea 02       		.uleb128 0x2
 2624 07eb 91       		.byte	0x91
 2625 07ec 68       		.sleb128 -24
 2626 07ed 00       		.byte	0
 2627 07ee 06       		.uleb128 0x6
 2628 07ef 04       		.byte	0x4
 2629 07f0 60020000 		.4byte	0x260
 2630 07f4 1E       		.uleb128 0x1e
 2631 07f5 61020000 		.4byte	.LASF108
 2632 07f9 01       		.byte	0x1
 2633 07fa 0902     		.2byte	0x209
 2634 07fc 81000000 		.4byte	0x81
 2635 0800 00000000 		.4byte	.LFB78
 2636 0804 38010000 		.4byte	.LFE78-.LFB78
 2637 0808 01       		.uleb128 0x1
 2638 0809 9C       		.byte	0x9c
 2639 080a 6D080000 		.4byte	0x86d
 2640 080e 1F       		.uleb128 0x1f
 2641 080f 91020000 		.4byte	.LASF109
 2642 0813 01       		.byte	0x1
 2643 0814 0902     		.2byte	0x209
 2644 0816 E0000000 		.4byte	0xe0
 2645 081a 03       		.uleb128 0x3
 2646 081b 91       		.byte	0x91
 2647 081c 9C7E     		.sleb128 -228
 2648 081e 1F       		.uleb128 0x1f
 2649 081f 86020000 		.4byte	.LASF110
 2650 0823 01       		.byte	0x1
 2651 0824 0902     		.2byte	0x209
 2652 0826 68000000 		.4byte	0x68
ARM GAS  C:\Users\HYFI_A~1\AppData\Local\Temp\ccb6s9SH.s 			page 59


 2653 082a 03       		.uleb128 0x3
 2654 082b 91       		.byte	0x91
 2655 082c 987E     		.sleb128 -232
 2656 082e 1F       		.uleb128 0x1f
 2657 082f F6030000 		.4byte	.LASF111
 2658 0833 01       		.byte	0x1
 2659 0834 0902     		.2byte	0x209
 2660 0836 E0000000 		.4byte	0xe0
 2661 083a 03       		.uleb128 0x3
 2662 083b 91       		.byte	0x91
 2663 083c 947E     		.sleb128 -236
 2664 083e 1A       		.uleb128 0x1a
 2665 083f BA010000 		.4byte	.LASF112
 2666 0843 01       		.byte	0x1
 2667 0844 0B02     		.2byte	0x20b
 2668 0846 81000000 		.4byte	0x81
 2669 084a 02       		.uleb128 0x2
 2670 084b 91       		.byte	0x91
 2671 084c 77       		.sleb128 -9
 2672 084d 1A       		.uleb128 0x1a
 2673 084e 2C000000 		.4byte	.LASF113
 2674 0852 01       		.byte	0x1
 2675 0853 1202     		.2byte	0x212
 2676 0855 6D080000 		.4byte	0x86d
 2677 0859 02       		.uleb128 0x2
 2678 085a 91       		.byte	0x91
 2679 085b 68       		.sleb128 -24
 2680 085c 1A       		.uleb128 0x1a
 2681 085d 00060000 		.4byte	.LASF98
 2682 0861 01       		.byte	0x1
 2683 0862 1A02     		.2byte	0x21a
 2684 0864 FC060000 		.4byte	0x6fc
 2685 0868 03       		.uleb128 0x3
 2686 0869 91       		.byte	0x91
 2687 086a A07E     		.sleb128 -224
 2688 086c 00       		.byte	0
 2689 086d 07       		.uleb128 0x7
 2690 086e CB000000 		.4byte	0xcb
 2691 0872 7D080000 		.4byte	0x87d
 2692 0876 08       		.uleb128 0x8
 2693 0877 D9000000 		.4byte	0xd9
 2694 087b 0B       		.byte	0xb
 2695 087c 00       		.byte	0
 2696 087d 21       		.uleb128 0x21
 2697 087e 3A010000 		.4byte	.LASF114
 2698 0882 0D       		.byte	0xd
 2699 0883 1207     		.2byte	0x712
 2700 0885 89080000 		.4byte	0x889
 2701 0889 0C       		.uleb128 0xc
 2702 088a 76000000 		.4byte	0x76
 2703 088e 22       		.uleb128 0x22
 2704 088f 21010000 		.4byte	.LASF115
 2705 0893 0A       		.byte	0xa
 2706 0894 15       		.byte	0x15
 2707 0895 81000000 		.4byte	0x81
 2708 0899 05       		.uleb128 0x5
 2709 089a 03       		.byte	0x3
ARM GAS  C:\Users\HYFI_A~1\AppData\Local\Temp\ccb6s9SH.s 			page 60


 2710 089b 00000000 		.4byte	modem_state
 2711 089f 22       		.uleb128 0x22
 2712 08a0 B6030000 		.4byte	.LASF116
 2713 08a4 0A       		.byte	0xa
 2714 08a5 45       		.byte	0x45
 2715 08a6 B1000000 		.4byte	0xb1
 2716 08aa 05       		.uleb128 0x5
 2717 08ab 03       		.byte	0x3
 2718 08ac 00000000 		.4byte	modem_start_time_stamp
 2719 08b0 22       		.uleb128 0x22
 2720 08b1 5E030000 		.4byte	.LASF67
 2721 08b5 0A       		.byte	0xa
 2722 08b6 46       		.byte	0x46
 2723 08b7 15030000 		.4byte	0x315
 2724 08bb 05       		.uleb128 0x5
 2725 08bc 03       		.byte	0x3
 2726 08bd 00000000 		.4byte	modem_info
 2727 08c1 22       		.uleb128 0x22
 2728 08c2 DF050000 		.4byte	.LASF117
 2729 08c6 0A       		.byte	0xa
 2730 08c7 47       		.byte	0x47
 2731 08c8 58030000 		.4byte	0x358
 2732 08cc 05       		.uleb128 0x5
 2733 08cd 03       		.byte	0x3
 2734 08ce 00000000 		.4byte	modem_stats
 2735 08d2 22       		.uleb128 0x22
 2736 08d3 DD030000 		.4byte	.LASF118
 2737 08d7 0B       		.byte	0xb
 2738 08d8 1D       		.byte	0x1d
 2739 08d9 8D000000 		.4byte	0x8d
 2740 08dd 05       		.uleb128 0x5
 2741 08de 03       		.byte	0x3
 2742 08df 00000000 		.4byte	dataPointsInStack
 2743 08e3 07       		.uleb128 0x7
 2744 08e4 90030000 		.4byte	0x390
 2745 08e8 F3080000 		.4byte	0x8f3
 2746 08ec 08       		.uleb128 0x8
 2747 08ed D9000000 		.4byte	0xd9
 2748 08f1 31       		.byte	0x31
 2749 08f2 00       		.byte	0
 2750 08f3 22       		.uleb128 0x22
 2751 08f4 40030000 		.4byte	.LASF119
 2752 08f8 0B       		.byte	0xb
 2753 08f9 1E       		.byte	0x1e
 2754 08fa E3080000 		.4byte	0x8e3
 2755 08fe 05       		.uleb128 0x5
 2756 08ff 03       		.byte	0x3
 2757 0900 00000000 		.4byte	data
 2758 0904 07       		.uleb128 0x7
 2759 0905 CB000000 		.4byte	0xcb
 2760 0909 15090000 		.4byte	0x915
 2761 090d 23       		.uleb128 0x23
 2762 090e D9000000 		.4byte	0xd9
 2763 0912 9F0F     		.2byte	0xf9f
 2764 0914 00       		.byte	0
 2765 0915 22       		.uleb128 0x22
 2766 0916 57040000 		.4byte	.LASF120
ARM GAS  C:\Users\HYFI_A~1\AppData\Local\Temp\ccb6s9SH.s 			page 61


 2767 091a 0C       		.byte	0xc
 2768 091b 18       		.byte	0x18
 2769 091c 04090000 		.4byte	0x904
 2770 0920 05       		.uleb128 0x5
 2771 0921 03       		.byte	0x3
 2772 0922 00000000 		.4byte	http_request
 2773 0926 22       		.uleb128 0x22
 2774 0927 95060000 		.4byte	.LASF121
 2775 092b 0C       		.byte	0xc
 2776 092c 19       		.byte	0x19
 2777 092d 04090000 		.4byte	0x904
 2778 0931 05       		.uleb128 0x5
 2779 0932 03       		.byte	0x3
 2780 0933 00000000 		.4byte	http_body
 2781 0937 22       		.uleb128 0x22
 2782 0938 F5050000 		.4byte	.LASF122
 2783 093c 0C       		.byte	0xc
 2784 093d 1A       		.byte	0x1a
 2785 093e FC060000 		.4byte	0x6fc
 2786 0942 05       		.uleb128 0x5
 2787 0943 03       		.byte	0x3
 2788 0944 00000000 		.4byte	http_route
 2789 0948 22       		.uleb128 0x22
 2790 0949 49050000 		.4byte	.LASF123
 2791 094d 0C       		.byte	0xc
 2792 094e 3F       		.byte	0x3f
 2793 094f 0B040000 		.4byte	0x40b
 2794 0953 05       		.uleb128 0x5
 2795 0954 03       		.byte	0x3
 2796 0955 00000000 		.4byte	system_info
 2797 0959 22       		.uleb128 0x22
 2798 095a FB040000 		.4byte	.LASF124
 2799 095e 0C       		.byte	0xc
 2800 095f 4E       		.byte	0x4e
 2801 0960 89040000 		.4byte	0x489
 2802 0964 05       		.uleb128 0x5
 2803 0965 03       		.byte	0x3
 2804 0966 00000000 		.4byte	system_settings
 2805 096a 22       		.uleb128 0x22
 2806 096b 2D010000 		.4byte	.LASF125
 2807 096f 01       		.byte	0x1
 2808 0970 10       		.byte	0x10
 2809 0971 D4030000 		.4byte	0x3d4
 2810 0975 05       		.uleb128 0x5
 2811 0976 03       		.byte	0x3
 2812 0977 00000000 		.4byte	alarmMeasure
 2813 097b 22       		.uleb128 0x22
 2814 097c 64010000 		.4byte	.LASF126
 2815 0980 01       		.byte	0x1
 2816 0981 11       		.byte	0x11
 2817 0982 81000000 		.4byte	0x81
 2818 0986 05       		.uleb128 0x5
 2819 0987 03       		.byte	0x3
 2820 0988 00000000 		.4byte	timeToMeasure
 2821 098c 22       		.uleb128 0x22
 2822 098d 9E020000 		.4byte	.LASF127
 2823 0991 01       		.byte	0x1
ARM GAS  C:\Users\HYFI_A~1\AppData\Local\Temp\ccb6s9SH.s 			page 62


 2824 0992 12       		.byte	0x12
 2825 0993 D4030000 		.4byte	0x3d4
 2826 0997 05       		.uleb128 0x5
 2827 0998 03       		.byte	0x3
 2828 0999 00000000 		.4byte	alarmSync
 2829 099d 22       		.uleb128 0x22
 2830 099e 8A010000 		.4byte	.LASF128
 2831 09a2 01       		.byte	0x1
 2832 09a3 13       		.byte	0x13
 2833 09a4 81000000 		.4byte	0x81
 2834 09a8 05       		.uleb128 0x5
 2835 09a9 03       		.byte	0x3
 2836 09aa 00000000 		.4byte	timeToSync
 2837 09ae 22       		.uleb128 0x22
 2838 09af 1C040000 		.4byte	.LASF129
 2839 09b3 01       		.byte	0x1
 2840 09b4 14       		.byte	0x14
 2841 09b5 81000000 		.4byte	0x81
 2842 09b9 05       		.uleb128 0x5
 2843 09ba 03       		.byte	0x3
 2844 09bb 00000000 		.4byte	timeToSycnRemoteParams
 2845 09bf 00       		.byte	0
 2846              		.section	.debug_abbrev,"",%progbits
 2847              	.Ldebug_abbrev0:
 2848 0000 01       		.uleb128 0x1
 2849 0001 11       		.uleb128 0x11
 2850 0002 01       		.byte	0x1
 2851 0003 25       		.uleb128 0x25
 2852 0004 0E       		.uleb128 0xe
 2853 0005 13       		.uleb128 0x13
 2854 0006 0B       		.uleb128 0xb
 2855 0007 03       		.uleb128 0x3
 2856 0008 0E       		.uleb128 0xe
 2857 0009 1B       		.uleb128 0x1b
 2858 000a 0E       		.uleb128 0xe
 2859 000b 55       		.uleb128 0x55
 2860 000c 17       		.uleb128 0x17
 2861 000d 11       		.uleb128 0x11
 2862 000e 01       		.uleb128 0x1
 2863 000f 10       		.uleb128 0x10
 2864 0010 17       		.uleb128 0x17
 2865 0011 00       		.byte	0
 2866 0012 00       		.byte	0
 2867 0013 02       		.uleb128 0x2
 2868 0014 24       		.uleb128 0x24
 2869 0015 00       		.byte	0
 2870 0016 0B       		.uleb128 0xb
 2871 0017 0B       		.uleb128 0xb
 2872 0018 3E       		.uleb128 0x3e
 2873 0019 0B       		.uleb128 0xb
 2874 001a 03       		.uleb128 0x3
 2875 001b 0E       		.uleb128 0xe
 2876 001c 00       		.byte	0
 2877 001d 00       		.byte	0
 2878 001e 03       		.uleb128 0x3
 2879 001f 16       		.uleb128 0x16
 2880 0020 00       		.byte	0
ARM GAS  C:\Users\HYFI_A~1\AppData\Local\Temp\ccb6s9SH.s 			page 63


 2881 0021 03       		.uleb128 0x3
 2882 0022 0E       		.uleb128 0xe
 2883 0023 3A       		.uleb128 0x3a
 2884 0024 0B       		.uleb128 0xb
 2885 0025 3B       		.uleb128 0x3b
 2886 0026 0B       		.uleb128 0xb
 2887 0027 49       		.uleb128 0x49
 2888 0028 13       		.uleb128 0x13
 2889 0029 00       		.byte	0
 2890 002a 00       		.byte	0
 2891 002b 04       		.uleb128 0x4
 2892 002c 24       		.uleb128 0x24
 2893 002d 00       		.byte	0
 2894 002e 0B       		.uleb128 0xb
 2895 002f 0B       		.uleb128 0xb
 2896 0030 3E       		.uleb128 0x3e
 2897 0031 0B       		.uleb128 0xb
 2898 0032 03       		.uleb128 0x3
 2899 0033 08       		.uleb128 0x8
 2900 0034 00       		.byte	0
 2901 0035 00       		.byte	0
 2902 0036 05       		.uleb128 0x5
 2903 0037 16       		.uleb128 0x16
 2904 0038 00       		.byte	0
 2905 0039 03       		.uleb128 0x3
 2906 003a 0E       		.uleb128 0xe
 2907 003b 3A       		.uleb128 0x3a
 2908 003c 0B       		.uleb128 0xb
 2909 003d 3B       		.uleb128 0x3b
 2910 003e 05       		.uleb128 0x5
 2911 003f 49       		.uleb128 0x49
 2912 0040 13       		.uleb128 0x13
 2913 0041 00       		.byte	0
 2914 0042 00       		.byte	0
 2915 0043 06       		.uleb128 0x6
 2916 0044 0F       		.uleb128 0xf
 2917 0045 00       		.byte	0
 2918 0046 0B       		.uleb128 0xb
 2919 0047 0B       		.uleb128 0xb
 2920 0048 49       		.uleb128 0x49
 2921 0049 13       		.uleb128 0x13
 2922 004a 00       		.byte	0
 2923 004b 00       		.byte	0
 2924 004c 07       		.uleb128 0x7
 2925 004d 01       		.uleb128 0x1
 2926 004e 01       		.byte	0x1
 2927 004f 49       		.uleb128 0x49
 2928 0050 13       		.uleb128 0x13
 2929 0051 01       		.uleb128 0x1
 2930 0052 13       		.uleb128 0x13
 2931 0053 00       		.byte	0
 2932 0054 00       		.byte	0
 2933 0055 08       		.uleb128 0x8
 2934 0056 21       		.uleb128 0x21
 2935 0057 00       		.byte	0
 2936 0058 49       		.uleb128 0x49
 2937 0059 13       		.uleb128 0x13
ARM GAS  C:\Users\HYFI_A~1\AppData\Local\Temp\ccb6s9SH.s 			page 64


 2938 005a 2F       		.uleb128 0x2f
 2939 005b 0B       		.uleb128 0xb
 2940 005c 00       		.byte	0
 2941 005d 00       		.byte	0
 2942 005e 09       		.uleb128 0x9
 2943 005f 13       		.uleb128 0x13
 2944 0060 01       		.byte	0x1
 2945 0061 0B       		.uleb128 0xb
 2946 0062 0B       		.uleb128 0xb
 2947 0063 3A       		.uleb128 0x3a
 2948 0064 0B       		.uleb128 0xb
 2949 0065 3B       		.uleb128 0x3b
 2950 0066 0B       		.uleb128 0xb
 2951 0067 01       		.uleb128 0x1
 2952 0068 13       		.uleb128 0x13
 2953 0069 00       		.byte	0
 2954 006a 00       		.byte	0
 2955 006b 0A       		.uleb128 0xa
 2956 006c 0D       		.uleb128 0xd
 2957 006d 00       		.byte	0
 2958 006e 03       		.uleb128 0x3
 2959 006f 08       		.uleb128 0x8
 2960 0070 3A       		.uleb128 0x3a
 2961 0071 0B       		.uleb128 0xb
 2962 0072 3B       		.uleb128 0x3b
 2963 0073 0B       		.uleb128 0xb
 2964 0074 49       		.uleb128 0x49
 2965 0075 13       		.uleb128 0x13
 2966 0076 38       		.uleb128 0x38
 2967 0077 0B       		.uleb128 0xb
 2968 0078 00       		.byte	0
 2969 0079 00       		.byte	0
 2970 007a 0B       		.uleb128 0xb
 2971 007b 0D       		.uleb128 0xd
 2972 007c 00       		.byte	0
 2973 007d 03       		.uleb128 0x3
 2974 007e 0E       		.uleb128 0xe
 2975 007f 3A       		.uleb128 0x3a
 2976 0080 0B       		.uleb128 0xb
 2977 0081 3B       		.uleb128 0x3b
 2978 0082 0B       		.uleb128 0xb
 2979 0083 49       		.uleb128 0x49
 2980 0084 13       		.uleb128 0x13
 2981 0085 38       		.uleb128 0x38
 2982 0086 0B       		.uleb128 0xb
 2983 0087 00       		.byte	0
 2984 0088 00       		.byte	0
 2985 0089 0C       		.uleb128 0xc
 2986 008a 35       		.uleb128 0x35
 2987 008b 00       		.byte	0
 2988 008c 49       		.uleb128 0x49
 2989 008d 13       		.uleb128 0x13
 2990 008e 00       		.byte	0
 2991 008f 00       		.byte	0
 2992 0090 0D       		.uleb128 0xd
 2993 0091 13       		.uleb128 0x13
 2994 0092 01       		.byte	0x1
ARM GAS  C:\Users\HYFI_A~1\AppData\Local\Temp\ccb6s9SH.s 			page 65


 2995 0093 0B       		.uleb128 0xb
 2996 0094 05       		.uleb128 0x5
 2997 0095 3A       		.uleb128 0x3a
 2998 0096 0B       		.uleb128 0xb
 2999 0097 3B       		.uleb128 0x3b
 3000 0098 0B       		.uleb128 0xb
 3001 0099 01       		.uleb128 0x1
 3002 009a 13       		.uleb128 0x13
 3003 009b 00       		.byte	0
 3004 009c 00       		.byte	0
 3005 009d 0E       		.uleb128 0xe
 3006 009e 13       		.uleb128 0x13
 3007 009f 01       		.byte	0x1
 3008 00a0 03       		.uleb128 0x3
 3009 00a1 08       		.uleb128 0x8
 3010 00a2 0B       		.uleb128 0xb
 3011 00a3 0B       		.uleb128 0xb
 3012 00a4 3A       		.uleb128 0x3a
 3013 00a5 0B       		.uleb128 0xb
 3014 00a6 3B       		.uleb128 0x3b
 3015 00a7 0B       		.uleb128 0xb
 3016 00a8 01       		.uleb128 0x1
 3017 00a9 13       		.uleb128 0x13
 3018 00aa 00       		.byte	0
 3019 00ab 00       		.byte	0
 3020 00ac 0F       		.uleb128 0xf
 3021 00ad 0D       		.uleb128 0xd
 3022 00ae 00       		.byte	0
 3023 00af 03       		.uleb128 0x3
 3024 00b0 0E       		.uleb128 0xe
 3025 00b1 3A       		.uleb128 0x3a
 3026 00b2 0B       		.uleb128 0xb
 3027 00b3 3B       		.uleb128 0x3b
 3028 00b4 0B       		.uleb128 0xb
 3029 00b5 49       		.uleb128 0x49
 3030 00b6 13       		.uleb128 0x13
 3031 00b7 38       		.uleb128 0x38
 3032 00b8 05       		.uleb128 0x5
 3033 00b9 00       		.byte	0
 3034 00ba 00       		.byte	0
 3035 00bb 10       		.uleb128 0x10
 3036 00bc 2E       		.uleb128 0x2e
 3037 00bd 00       		.byte	0
 3038 00be 3F       		.uleb128 0x3f
 3039 00bf 19       		.uleb128 0x19
 3040 00c0 03       		.uleb128 0x3
 3041 00c1 0E       		.uleb128 0xe
 3042 00c2 3A       		.uleb128 0x3a
 3043 00c3 0B       		.uleb128 0xb
 3044 00c4 3B       		.uleb128 0x3b
 3045 00c5 0B       		.uleb128 0xb
 3046 00c6 27       		.uleb128 0x27
 3047 00c7 19       		.uleb128 0x19
 3048 00c8 11       		.uleb128 0x11
 3049 00c9 01       		.uleb128 0x1
 3050 00ca 12       		.uleb128 0x12
 3051 00cb 06       		.uleb128 0x6
ARM GAS  C:\Users\HYFI_A~1\AppData\Local\Temp\ccb6s9SH.s 			page 66


 3052 00cc 40       		.uleb128 0x40
 3053 00cd 18       		.uleb128 0x18
 3054 00ce 9642     		.uleb128 0x2116
 3055 00d0 19       		.uleb128 0x19
 3056 00d1 00       		.byte	0
 3057 00d2 00       		.byte	0
 3058 00d3 11       		.uleb128 0x11
 3059 00d4 2E       		.uleb128 0x2e
 3060 00d5 01       		.byte	0x1
 3061 00d6 3F       		.uleb128 0x3f
 3062 00d7 19       		.uleb128 0x19
 3063 00d8 03       		.uleb128 0x3
 3064 00d9 0E       		.uleb128 0xe
 3065 00da 3A       		.uleb128 0x3a
 3066 00db 0B       		.uleb128 0xb
 3067 00dc 3B       		.uleb128 0x3b
 3068 00dd 0B       		.uleb128 0xb
 3069 00de 11       		.uleb128 0x11
 3070 00df 01       		.uleb128 0x1
 3071 00e0 12       		.uleb128 0x12
 3072 00e1 06       		.uleb128 0x6
 3073 00e2 40       		.uleb128 0x40
 3074 00e3 18       		.uleb128 0x18
 3075 00e4 9642     		.uleb128 0x2116
 3076 00e6 19       		.uleb128 0x19
 3077 00e7 01       		.uleb128 0x1
 3078 00e8 13       		.uleb128 0x13
 3079 00e9 00       		.byte	0
 3080 00ea 00       		.byte	0
 3081 00eb 12       		.uleb128 0x12
 3082 00ec 34       		.uleb128 0x34
 3083 00ed 00       		.byte	0
 3084 00ee 03       		.uleb128 0x3
 3085 00ef 0E       		.uleb128 0xe
 3086 00f0 3A       		.uleb128 0x3a
 3087 00f1 0B       		.uleb128 0xb
 3088 00f2 3B       		.uleb128 0x3b
 3089 00f3 0B       		.uleb128 0xb
 3090 00f4 49       		.uleb128 0x49
 3091 00f5 13       		.uleb128 0x13
 3092 00f6 02       		.uleb128 0x2
 3093 00f7 18       		.uleb128 0x18
 3094 00f8 00       		.byte	0
 3095 00f9 00       		.byte	0
 3096 00fa 13       		.uleb128 0x13
 3097 00fb 2E       		.uleb128 0x2e
 3098 00fc 01       		.byte	0x1
 3099 00fd 3F       		.uleb128 0x3f
 3100 00fe 19       		.uleb128 0x19
 3101 00ff 03       		.uleb128 0x3
 3102 0100 0E       		.uleb128 0xe
 3103 0101 3A       		.uleb128 0x3a
 3104 0102 0B       		.uleb128 0xb
 3105 0103 3B       		.uleb128 0x3b
 3106 0104 0B       		.uleb128 0xb
 3107 0105 49       		.uleb128 0x49
 3108 0106 13       		.uleb128 0x13
ARM GAS  C:\Users\HYFI_A~1\AppData\Local\Temp\ccb6s9SH.s 			page 67


 3109 0107 11       		.uleb128 0x11
 3110 0108 01       		.uleb128 0x1
 3111 0109 12       		.uleb128 0x12
 3112 010a 06       		.uleb128 0x6
 3113 010b 40       		.uleb128 0x40
 3114 010c 18       		.uleb128 0x18
 3115 010d 9642     		.uleb128 0x2116
 3116 010f 19       		.uleb128 0x19
 3117 0110 01       		.uleb128 0x1
 3118 0111 13       		.uleb128 0x13
 3119 0112 00       		.byte	0
 3120 0113 00       		.byte	0
 3121 0114 14       		.uleb128 0x14
 3122 0115 2E       		.uleb128 0x2e
 3123 0116 00       		.byte	0
 3124 0117 3F       		.uleb128 0x3f
 3125 0118 19       		.uleb128 0x19
 3126 0119 03       		.uleb128 0x3
 3127 011a 0E       		.uleb128 0xe
 3128 011b 3A       		.uleb128 0x3a
 3129 011c 0B       		.uleb128 0xb
 3130 011d 3B       		.uleb128 0x3b
 3131 011e 0B       		.uleb128 0xb
 3132 011f 11       		.uleb128 0x11
 3133 0120 01       		.uleb128 0x1
 3134 0121 12       		.uleb128 0x12
 3135 0122 06       		.uleb128 0x6
 3136 0123 40       		.uleb128 0x40
 3137 0124 18       		.uleb128 0x18
 3138 0125 9642     		.uleb128 0x2116
 3139 0127 19       		.uleb128 0x19
 3140 0128 00       		.byte	0
 3141 0129 00       		.byte	0
 3142 012a 15       		.uleb128 0x15
 3143 012b 2E       		.uleb128 0x2e
 3144 012c 01       		.byte	0x1
 3145 012d 3F       		.uleb128 0x3f
 3146 012e 19       		.uleb128 0x19
 3147 012f 03       		.uleb128 0x3
 3148 0130 0E       		.uleb128 0xe
 3149 0131 3A       		.uleb128 0x3a
 3150 0132 0B       		.uleb128 0xb
 3151 0133 3B       		.uleb128 0x3b
 3152 0134 0B       		.uleb128 0xb
 3153 0135 27       		.uleb128 0x27
 3154 0136 19       		.uleb128 0x19
 3155 0137 11       		.uleb128 0x11
 3156 0138 01       		.uleb128 0x1
 3157 0139 12       		.uleb128 0x12
 3158 013a 06       		.uleb128 0x6
 3159 013b 40       		.uleb128 0x40
 3160 013c 18       		.uleb128 0x18
 3161 013d 9642     		.uleb128 0x2116
 3162 013f 19       		.uleb128 0x19
 3163 0140 01       		.uleb128 0x1
 3164 0141 13       		.uleb128 0x13
 3165 0142 00       		.byte	0
ARM GAS  C:\Users\HYFI_A~1\AppData\Local\Temp\ccb6s9SH.s 			page 68


 3166 0143 00       		.byte	0
 3167 0144 16       		.uleb128 0x16
 3168 0145 05       		.uleb128 0x5
 3169 0146 00       		.byte	0
 3170 0147 03       		.uleb128 0x3
 3171 0148 0E       		.uleb128 0xe
 3172 0149 3A       		.uleb128 0x3a
 3173 014a 0B       		.uleb128 0xb
 3174 014b 3B       		.uleb128 0x3b
 3175 014c 0B       		.uleb128 0xb
 3176 014d 49       		.uleb128 0x49
 3177 014e 13       		.uleb128 0x13
 3178 014f 02       		.uleb128 0x2
 3179 0150 18       		.uleb128 0x18
 3180 0151 00       		.byte	0
 3181 0152 00       		.byte	0
 3182 0153 17       		.uleb128 0x17
 3183 0154 2E       		.uleb128 0x2e
 3184 0155 01       		.byte	0x1
 3185 0156 3F       		.uleb128 0x3f
 3186 0157 19       		.uleb128 0x19
 3187 0158 03       		.uleb128 0x3
 3188 0159 0E       		.uleb128 0xe
 3189 015a 3A       		.uleb128 0x3a
 3190 015b 0B       		.uleb128 0xb
 3191 015c 3B       		.uleb128 0x3b
 3192 015d 0B       		.uleb128 0xb
 3193 015e 27       		.uleb128 0x27
 3194 015f 19       		.uleb128 0x19
 3195 0160 49       		.uleb128 0x49
 3196 0161 13       		.uleb128 0x13
 3197 0162 11       		.uleb128 0x11
 3198 0163 01       		.uleb128 0x1
 3199 0164 12       		.uleb128 0x12
 3200 0165 06       		.uleb128 0x6
 3201 0166 40       		.uleb128 0x40
 3202 0167 18       		.uleb128 0x18
 3203 0168 9642     		.uleb128 0x2116
 3204 016a 19       		.uleb128 0x19
 3205 016b 01       		.uleb128 0x1
 3206 016c 13       		.uleb128 0x13
 3207 016d 00       		.byte	0
 3208 016e 00       		.byte	0
 3209 016f 18       		.uleb128 0x18
 3210 0170 2E       		.uleb128 0x2e
 3211 0171 01       		.byte	0x1
 3212 0172 3F       		.uleb128 0x3f
 3213 0173 19       		.uleb128 0x19
 3214 0174 03       		.uleb128 0x3
 3215 0175 0E       		.uleb128 0xe
 3216 0176 3A       		.uleb128 0x3a
 3217 0177 0B       		.uleb128 0xb
 3218 0178 3B       		.uleb128 0x3b
 3219 0179 0B       		.uleb128 0xb
 3220 017a 27       		.uleb128 0x27
 3221 017b 19       		.uleb128 0x19
 3222 017c 11       		.uleb128 0x11
ARM GAS  C:\Users\HYFI_A~1\AppData\Local\Temp\ccb6s9SH.s 			page 69


 3223 017d 01       		.uleb128 0x1
 3224 017e 12       		.uleb128 0x12
 3225 017f 06       		.uleb128 0x6
 3226 0180 40       		.uleb128 0x40
 3227 0181 18       		.uleb128 0x18
 3228 0182 9742     		.uleb128 0x2117
 3229 0184 19       		.uleb128 0x19
 3230 0185 01       		.uleb128 0x1
 3231 0186 13       		.uleb128 0x13
 3232 0187 00       		.byte	0
 3233 0188 00       		.byte	0
 3234 0189 19       		.uleb128 0x19
 3235 018a 2E       		.uleb128 0x2e
 3236 018b 01       		.byte	0x1
 3237 018c 3F       		.uleb128 0x3f
 3238 018d 19       		.uleb128 0x19
 3239 018e 03       		.uleb128 0x3
 3240 018f 0E       		.uleb128 0xe
 3241 0190 3A       		.uleb128 0x3a
 3242 0191 0B       		.uleb128 0xb
 3243 0192 3B       		.uleb128 0x3b
 3244 0193 0B       		.uleb128 0xb
 3245 0194 27       		.uleb128 0x27
 3246 0195 19       		.uleb128 0x19
 3247 0196 49       		.uleb128 0x49
 3248 0197 13       		.uleb128 0x13
 3249 0198 11       		.uleb128 0x11
 3250 0199 01       		.uleb128 0x1
 3251 019a 12       		.uleb128 0x12
 3252 019b 06       		.uleb128 0x6
 3253 019c 40       		.uleb128 0x40
 3254 019d 18       		.uleb128 0x18
 3255 019e 9742     		.uleb128 0x2117
 3256 01a0 19       		.uleb128 0x19
 3257 01a1 01       		.uleb128 0x1
 3258 01a2 13       		.uleb128 0x13
 3259 01a3 00       		.byte	0
 3260 01a4 00       		.byte	0
 3261 01a5 1A       		.uleb128 0x1a
 3262 01a6 34       		.uleb128 0x34
 3263 01a7 00       		.byte	0
 3264 01a8 03       		.uleb128 0x3
 3265 01a9 0E       		.uleb128 0xe
 3266 01aa 3A       		.uleb128 0x3a
 3267 01ab 0B       		.uleb128 0xb
 3268 01ac 3B       		.uleb128 0x3b
 3269 01ad 05       		.uleb128 0x5
 3270 01ae 49       		.uleb128 0x49
 3271 01af 13       		.uleb128 0x13
 3272 01b0 02       		.uleb128 0x2
 3273 01b1 18       		.uleb128 0x18
 3274 01b2 00       		.byte	0
 3275 01b3 00       		.byte	0
 3276 01b4 1B       		.uleb128 0x1b
 3277 01b5 2E       		.uleb128 0x2e
 3278 01b6 00       		.byte	0
 3279 01b7 3F       		.uleb128 0x3f
ARM GAS  C:\Users\HYFI_A~1\AppData\Local\Temp\ccb6s9SH.s 			page 70


 3280 01b8 19       		.uleb128 0x19
 3281 01b9 03       		.uleb128 0x3
 3282 01ba 0E       		.uleb128 0xe
 3283 01bb 3A       		.uleb128 0x3a
 3284 01bc 0B       		.uleb128 0xb
 3285 01bd 3B       		.uleb128 0x3b
 3286 01be 05       		.uleb128 0x5
 3287 01bf 27       		.uleb128 0x27
 3288 01c0 19       		.uleb128 0x19
 3289 01c1 49       		.uleb128 0x49
 3290 01c2 13       		.uleb128 0x13
 3291 01c3 11       		.uleb128 0x11
 3292 01c4 01       		.uleb128 0x1
 3293 01c5 12       		.uleb128 0x12
 3294 01c6 06       		.uleb128 0x6
 3295 01c7 40       		.uleb128 0x40
 3296 01c8 18       		.uleb128 0x18
 3297 01c9 9642     		.uleb128 0x2116
 3298 01cb 19       		.uleb128 0x19
 3299 01cc 00       		.byte	0
 3300 01cd 00       		.byte	0
 3301 01ce 1C       		.uleb128 0x1c
 3302 01cf 2E       		.uleb128 0x2e
 3303 01d0 01       		.byte	0x1
 3304 01d1 3F       		.uleb128 0x3f
 3305 01d2 19       		.uleb128 0x19
 3306 01d3 03       		.uleb128 0x3
 3307 01d4 0E       		.uleb128 0xe
 3308 01d5 3A       		.uleb128 0x3a
 3309 01d6 0B       		.uleb128 0xb
 3310 01d7 3B       		.uleb128 0x3b
 3311 01d8 05       		.uleb128 0x5
 3312 01d9 49       		.uleb128 0x49
 3313 01da 13       		.uleb128 0x13
 3314 01db 11       		.uleb128 0x11
 3315 01dc 01       		.uleb128 0x1
 3316 01dd 12       		.uleb128 0x12
 3317 01de 06       		.uleb128 0x6
 3318 01df 40       		.uleb128 0x40
 3319 01e0 18       		.uleb128 0x18
 3320 01e1 9642     		.uleb128 0x2116
 3321 01e3 19       		.uleb128 0x19
 3322 01e4 01       		.uleb128 0x1
 3323 01e5 13       		.uleb128 0x13
 3324 01e6 00       		.byte	0
 3325 01e7 00       		.byte	0
 3326 01e8 1D       		.uleb128 0x1d
 3327 01e9 0B       		.uleb128 0xb
 3328 01ea 01       		.byte	0x1
 3329 01eb 11       		.uleb128 0x11
 3330 01ec 01       		.uleb128 0x1
 3331 01ed 12       		.uleb128 0x12
 3332 01ee 06       		.uleb128 0x6
 3333 01ef 00       		.byte	0
 3334 01f0 00       		.byte	0
 3335 01f1 1E       		.uleb128 0x1e
 3336 01f2 2E       		.uleb128 0x2e
ARM GAS  C:\Users\HYFI_A~1\AppData\Local\Temp\ccb6s9SH.s 			page 71


 3337 01f3 01       		.byte	0x1
 3338 01f4 3F       		.uleb128 0x3f
 3339 01f5 19       		.uleb128 0x19
 3340 01f6 03       		.uleb128 0x3
 3341 01f7 0E       		.uleb128 0xe
 3342 01f8 3A       		.uleb128 0x3a
 3343 01f9 0B       		.uleb128 0xb
 3344 01fa 3B       		.uleb128 0x3b
 3345 01fb 05       		.uleb128 0x5
 3346 01fc 27       		.uleb128 0x27
 3347 01fd 19       		.uleb128 0x19
 3348 01fe 49       		.uleb128 0x49
 3349 01ff 13       		.uleb128 0x13
 3350 0200 11       		.uleb128 0x11
 3351 0201 01       		.uleb128 0x1
 3352 0202 12       		.uleb128 0x12
 3353 0203 06       		.uleb128 0x6
 3354 0204 40       		.uleb128 0x40
 3355 0205 18       		.uleb128 0x18
 3356 0206 9642     		.uleb128 0x2116
 3357 0208 19       		.uleb128 0x19
 3358 0209 01       		.uleb128 0x1
 3359 020a 13       		.uleb128 0x13
 3360 020b 00       		.byte	0
 3361 020c 00       		.byte	0
 3362 020d 1F       		.uleb128 0x1f
 3363 020e 05       		.uleb128 0x5
 3364 020f 00       		.byte	0
 3365 0210 03       		.uleb128 0x3
 3366 0211 0E       		.uleb128 0xe
 3367 0212 3A       		.uleb128 0x3a
 3368 0213 0B       		.uleb128 0xb
 3369 0214 3B       		.uleb128 0x3b
 3370 0215 05       		.uleb128 0x5
 3371 0216 49       		.uleb128 0x49
 3372 0217 13       		.uleb128 0x13
 3373 0218 02       		.uleb128 0x2
 3374 0219 18       		.uleb128 0x18
 3375 021a 00       		.byte	0
 3376 021b 00       		.byte	0
 3377 021c 20       		.uleb128 0x20
 3378 021d 34       		.uleb128 0x34
 3379 021e 00       		.byte	0
 3380 021f 03       		.uleb128 0x3
 3381 0220 08       		.uleb128 0x8
 3382 0221 3A       		.uleb128 0x3a
 3383 0222 0B       		.uleb128 0xb
 3384 0223 3B       		.uleb128 0x3b
 3385 0224 05       		.uleb128 0x5
 3386 0225 49       		.uleb128 0x49
 3387 0226 13       		.uleb128 0x13
 3388 0227 02       		.uleb128 0x2
 3389 0228 18       		.uleb128 0x18
 3390 0229 00       		.byte	0
 3391 022a 00       		.byte	0
 3392 022b 21       		.uleb128 0x21
 3393 022c 34       		.uleb128 0x34
ARM GAS  C:\Users\HYFI_A~1\AppData\Local\Temp\ccb6s9SH.s 			page 72


 3394 022d 00       		.byte	0
 3395 022e 03       		.uleb128 0x3
 3396 022f 0E       		.uleb128 0xe
 3397 0230 3A       		.uleb128 0x3a
 3398 0231 0B       		.uleb128 0xb
 3399 0232 3B       		.uleb128 0x3b
 3400 0233 05       		.uleb128 0x5
 3401 0234 49       		.uleb128 0x49
 3402 0235 13       		.uleb128 0x13
 3403 0236 3F       		.uleb128 0x3f
 3404 0237 19       		.uleb128 0x19
 3405 0238 3C       		.uleb128 0x3c
 3406 0239 19       		.uleb128 0x19
 3407 023a 00       		.byte	0
 3408 023b 00       		.byte	0
 3409 023c 22       		.uleb128 0x22
 3410 023d 34       		.uleb128 0x34
 3411 023e 00       		.byte	0
 3412 023f 03       		.uleb128 0x3
 3413 0240 0E       		.uleb128 0xe
 3414 0241 3A       		.uleb128 0x3a
 3415 0242 0B       		.uleb128 0xb
 3416 0243 3B       		.uleb128 0x3b
 3417 0244 0B       		.uleb128 0xb
 3418 0245 49       		.uleb128 0x49
 3419 0246 13       		.uleb128 0x13
 3420 0247 3F       		.uleb128 0x3f
 3421 0248 19       		.uleb128 0x19
 3422 0249 02       		.uleb128 0x2
 3423 024a 18       		.uleb128 0x18
 3424 024b 00       		.byte	0
 3425 024c 00       		.byte	0
 3426 024d 23       		.uleb128 0x23
 3427 024e 21       		.uleb128 0x21
 3428 024f 00       		.byte	0
 3429 0250 49       		.uleb128 0x49
 3430 0251 13       		.uleb128 0x13
 3431 0252 2F       		.uleb128 0x2f
 3432 0253 05       		.uleb128 0x5
 3433 0254 00       		.byte	0
 3434 0255 00       		.byte	0
 3435 0256 00       		.byte	0
 3436              		.section	.debug_aranges,"",%progbits
 3437 0000 8C000000 		.4byte	0x8c
 3438 0004 0200     		.2byte	0x2
 3439 0006 00000000 		.4byte	.Ldebug_info0
 3440 000a 04       		.byte	0x4
 3441 000b 00       		.byte	0
 3442 000c 0000     		.2byte	0
 3443 000e 0000     		.2byte	0
 3444 0010 00000000 		.4byte	.LFB64
 3445 0014 0C000000 		.4byte	.LFE64-.LFB64
 3446 0018 00000000 		.4byte	.LFB65
 3447 001c 4C010000 		.4byte	.LFE65-.LFB65
 3448 0020 00000000 		.4byte	.LFB66
 3449 0024 64000000 		.4byte	.LFE66-.LFB66
 3450 0028 00000000 		.4byte	.LFB67
ARM GAS  C:\Users\HYFI_A~1\AppData\Local\Temp\ccb6s9SH.s 			page 73


 3451 002c 2A000000 		.4byte	.LFE67-.LFB67
 3452 0030 00000000 		.4byte	.LFB68
 3453 0034 50000000 		.4byte	.LFE68-.LFB68
 3454 0038 00000000 		.4byte	.LFB69
 3455 003c 48000000 		.4byte	.LFE69-.LFB69
 3456 0040 00000000 		.4byte	.LFB70
 3457 0044 1E000000 		.4byte	.LFE70-.LFB70
 3458 0048 00000000 		.4byte	.LFB71
 3459 004c 46000000 		.4byte	.LFE71-.LFB71
 3460 0050 00000000 		.4byte	.LFB72
 3461 0054 E0000000 		.4byte	.LFE72-.LFB72
 3462 0058 00000000 		.4byte	.LFB73
 3463 005c 1E000000 		.4byte	.LFE73-.LFB73
 3464 0060 00000000 		.4byte	.LFB74
 3465 0064 4C020000 		.4byte	.LFE74-.LFB74
 3466 0068 00000000 		.4byte	.LFB75
 3467 006c 44000000 		.4byte	.LFE75-.LFB75
 3468 0070 00000000 		.4byte	.LFB76
 3469 0074 C8000000 		.4byte	.LFE76-.LFB76
 3470 0078 00000000 		.4byte	.LFB77
 3471 007c 74000000 		.4byte	.LFE77-.LFB77
 3472 0080 00000000 		.4byte	.LFB78
 3473 0084 38010000 		.4byte	.LFE78-.LFB78
 3474 0088 00000000 		.4byte	0
 3475 008c 00000000 		.4byte	0
 3476              		.section	.debug_ranges,"",%progbits
 3477              	.Ldebug_ranges0:
 3478 0000 00000000 		.4byte	.LFB64
 3479 0004 0C000000 		.4byte	.LFE64
 3480 0008 00000000 		.4byte	.LFB65
 3481 000c 4C010000 		.4byte	.LFE65
 3482 0010 00000000 		.4byte	.LFB66
 3483 0014 64000000 		.4byte	.LFE66
 3484 0018 00000000 		.4byte	.LFB67
 3485 001c 2A000000 		.4byte	.LFE67
 3486 0020 00000000 		.4byte	.LFB68
 3487 0024 50000000 		.4byte	.LFE68
 3488 0028 00000000 		.4byte	.LFB69
 3489 002c 48000000 		.4byte	.LFE69
 3490 0030 00000000 		.4byte	.LFB70
 3491 0034 1E000000 		.4byte	.LFE70
 3492 0038 00000000 		.4byte	.LFB71
 3493 003c 46000000 		.4byte	.LFE71
 3494 0040 00000000 		.4byte	.LFB72
 3495 0044 E0000000 		.4byte	.LFE72
 3496 0048 00000000 		.4byte	.LFB73
 3497 004c 1E000000 		.4byte	.LFE73
 3498 0050 00000000 		.4byte	.LFB74
 3499 0054 4C020000 		.4byte	.LFE74
 3500 0058 00000000 		.4byte	.LFB75
 3501 005c 44000000 		.4byte	.LFE75
 3502 0060 00000000 		.4byte	.LFB76
 3503 0064 C8000000 		.4byte	.LFE76
 3504 0068 00000000 		.4byte	.LFB77
 3505 006c 74000000 		.4byte	.LFE77
 3506 0070 00000000 		.4byte	.LFB78
 3507 0074 38010000 		.4byte	.LFE78
ARM GAS  C:\Users\HYFI_A~1\AppData\Local\Temp\ccb6s9SH.s 			page 74


 3508 0078 00000000 		.4byte	0
 3509 007c 00000000 		.4byte	0
 3510              		.section	.debug_line,"",%progbits
 3511              	.Ldebug_line0:
 3512 0000 CD030000 		.section	.debug_str,"MS",%progbits,1
 3512      02001B02 
 3512      00000201 
 3512      FB0E0D00 
 3512      01010101 
 3513              	.LASF90:
 3514 0000 745F6D6F 		.ascii	"t_modem\000"
 3514      64656D00 
 3515              	.LASF12:
 3516 0008 75696E74 		.ascii	"uint16\000"
 3516      313600
 3517              	.LASF44:
 3518 000f 746D5F68 		.ascii	"tm_hour\000"
 3518      6F757200 
 3519              	.LASF35:
 3520 0017 6E756D5F 		.ascii	"num_invalid_readings\000"
 3520      696E7661 
 3520      6C69645F 
 3520      72656164 
 3520      696E6773 
 3521              	.LASF113:
 3522 002c 66696C65 		.ascii	"fileName\000"
 3522      4E616D65 
 3522      00
 3523              	.LASF97:
 3524 0035 635F6461 		.ascii	"c_data_stack_count\000"
 3524      74615F73 
 3524      7461636B 
 3524      5F636F75 
 3524      6E7400
 3525              	.LASF0:
 3526 0048 7369676E 		.ascii	"signed char\000"
 3526      65642063 
 3526      68617200 
 3527              	.LASF65:
 3528 0054 636F756E 		.ascii	"countDownResetCondition\000"
 3528      74446F77 
 3528      6E526573 
 3528      6574436F 
 3528      6E646974 
 3529              	.LASF133:
 3530 006c 57616B65 		.ascii	"Wakeup_ISR\000"
 3530      75705F49 
 3530      535200
 3531              	.LASF130:
 3532 0077 474E5520 		.ascii	"GNU C11 5.4.1 20160609 (release) [ARM/embedded-5-br"
 3532      43313120 
 3532      352E342E 
 3532      31203230 
 3532      31363036 
 3533 00aa 616E6368 		.ascii	"anch revision 237715] -mcpu=cortex-m3 -mthumb -g -O"
 3533      20726576 
 3533      6973696F 
ARM GAS  C:\Users\HYFI_A~1\AppData\Local\Temp\ccb6s9SH.s 			page 75


 3533      6E203233 
 3533      37373135 
 3534 00dd 30202D66 		.ascii	"0 -ffunction-sections -ffat-lto-objects\000"
 3534      66756E63 
 3534      74696F6E 
 3534      2D736563 
 3534      74696F6E 
 3535              	.LASF7:
 3536 0105 6C6F6E67 		.ascii	"long long unsigned int\000"
 3536      206C6F6E 
 3536      6720756E 
 3536      7369676E 
 3536      65642069 
 3537              	.LASF21:
 3538 011c 486F7572 		.ascii	"Hour\000"
 3538      00
 3539              	.LASF115:
 3540 0121 6D6F6465 		.ascii	"modem_state\000"
 3540      6D5F7374 
 3540      61746500 
 3541              	.LASF125:
 3542 012d 616C6172 		.ascii	"alarmMeasure\000"
 3542      6D4D6561 
 3542      73757265 
 3542      00
 3543              	.LASF114:
 3544 013a 49544D5F 		.ascii	"ITM_RxBuffer\000"
 3544      52784275 
 3544      66666572 
 3544      00
 3545              	.LASF91:
 3546 0147 745F6C65 		.ascii	"t_level_sensor\000"
 3546      76656C5F 
 3546      73656E73 
 3546      6F7200
 3547              	.LASF6:
 3548 0156 6C6F6E67 		.ascii	"long long int\000"
 3548      206C6F6E 
 3548      6720696E 
 3548      7400
 3549              	.LASF126:
 3550 0164 74696D65 		.ascii	"timeToMeasure\000"
 3550      546F4D65 
 3550      61737572 
 3550      6500
 3551              	.LASF56:
 3552 0172 74696D65 		.ascii	"time_to_network_connect\000"
 3552      5F746F5F 
 3552      6E657477 
 3552      6F726B5F 
 3552      636F6E6E 
 3553              	.LASF128:
 3554 018a 74696D65 		.ascii	"timeToSync\000"
 3554      546F5379 
 3554      6E6300
 3555              	.LASF38:
 3556 0195 766F6C74 		.ascii	"voltage_solar\000"
ARM GAS  C:\Users\HYFI_A~1\AppData\Local\Temp\ccb6s9SH.s 			page 76


 3556      6167655F 
 3556      736F6C61 
 3556      7200
 3557              	.LASF39:
 3558 01a3 766F6C74 		.ascii	"voltage_charge_current\000"
 3558      6167655F 
 3558      63686172 
 3558      67655F63 
 3558      75727265 
 3559              	.LASF112:
 3560 01ba 75706772 		.ascii	"upgrade_status\000"
 3560      6164655F 
 3560      73746174 
 3560      757300
 3561              	.LASF54:
 3562 01c9 6D6F6465 		.ascii	"modem_info_t\000"
 3562      6D5F696E 
 3562      666F5F74 
 3562      00
 3563              	.LASF4:
 3564 01d6 6C6F6E67 		.ascii	"long int\000"
 3564      20696E74 
 3564      00
 3565              	.LASF63:
 3566 01df 63757272 		.ascii	"currentCountDownValue\000"
 3566      656E7443 
 3566      6F756E74 
 3566      446F776E 
 3566      56616C75 
 3567              	.LASF66:
 3568 01f5 616C6172 		.ascii	"alarm\000"
 3568      6D00
 3569              	.LASF11:
 3570 01fb 75696E74 		.ascii	"uint8\000"
 3570      3800
 3571              	.LASF70:
 3572 0201 6E6F6465 		.ascii	"node_id\000"
 3572      5F696400 
 3573              	.LASF100:
 3574 0209 73656E64 		.ascii	"send_time\000"
 3574      5F74696D 
 3574      6500
 3575              	.LASF15:
 3576 0213 696E7433 		.ascii	"int32\000"
 3576      3200
 3577              	.LASF94:
 3578 0219 73796E63 		.ascii	"syncData\000"
 3578      44617461 
 3578      00
 3579              	.LASF99:
 3580 0222 6E657477 		.ascii	"network_time\000"
 3580      6F726B5F 
 3580      74696D65 
 3580      00
 3581              	.LASF13:
 3582 022f 75696E74 		.ascii	"uint32\000"
 3582      333200
ARM GAS  C:\Users\HYFI_A~1\AppData\Local\Temp\ccb6s9SH.s 			page 77


 3583              	.LASF52:
 3584 0236 6D6F6465 		.ascii	"model_id\000"
 3584      6C5F6964 
 3584      00
 3585              	.LASF32:
 3586 023f 616C6C5F 		.ascii	"all_level_readings\000"
 3586      6C657665 
 3586      6C5F7265 
 3586      6164696E 
 3586      677300
 3587              	.LASF62:
 3588 0252 636F756E 		.ascii	"countDownValue\000"
 3588      74446F77 
 3588      6E56616C 
 3588      756500
 3589              	.LASF108:
 3590 0261 75706772 		.ascii	"upgraded\000"
 3590      61646564 
 3590      00
 3591              	.LASF46:
 3592 026a 746D5F6D 		.ascii	"tm_mon\000"
 3592      6F6E00
 3593              	.LASF74:
 3594 0271 65705F70 		.ascii	"ep_pswd\000"
 3594      73776400 
 3595              	.LASF78:
 3596 0279 6D6F6465 		.ascii	"modem_status\000"
 3596      6D5F7374 
 3596      61747573 
 3596      00
 3597              	.LASF110:
 3598 0286 706F7274 		.ascii	"port\000"
 3598      00
 3599              	.LASF59:
 3600 028b 76616C75 		.ascii	"value\000"
 3600      6500
 3601              	.LASF109:
 3602 0291 686F7374 		.ascii	"host\000"
 3602      00
 3603              	.LASF47:
 3604 0296 746D5F79 		.ascii	"tm_year\000"
 3604      65617200 
 3605              	.LASF127:
 3606 029e 616C6172 		.ascii	"alarmSync\000"
 3606      6D53796E 
 3606      6300
 3607              	.LASF8:
 3608 02a8 756E7369 		.ascii	"unsigned int\000"
 3608      676E6564 
 3608      20696E74 
 3608      00
 3609              	.LASF106:
 3610 02b5 73657454 		.ascii	"setTime\000"
 3610      696D6500 
 3611              	.LASF61:
 3612 02bd 6B65795F 		.ascii	"key_value_t\000"
 3612      76616C75 
ARM GAS  C:\Users\HYFI_A~1\AppData\Local\Temp\ccb6s9SH.s 			page 78


 3612      655F7400 
 3613              	.LASF80:
 3614 02c9 41796F49 		.ascii	"AyoItsTime\000"
 3614      74735469 
 3614      6D6500
 3615              	.LASF34:
 3616 02d4 6E756D5F 		.ascii	"num_valid_readings\000"
 3616      76616C69 
 3616      645F7265 
 3616      6164696E 
 3616      677300
 3617              	.LASF105:
 3618 02e7 6D5F766F 		.ascii	"m_voltage\000"
 3618      6C746167 
 3618      6500
 3619              	.LASF5:
 3620 02f1 6C6F6E67 		.ascii	"long unsigned int\000"
 3620      20756E73 
 3620      69676E65 
 3620      6420696E 
 3620      7400
 3621              	.LASF82:
 3622 0303 616C6172 		.ascii	"alarmToBeUpdated\000"
 3622      6D546F42 
 3622      65557064 
 3622      61746564 
 3622      00
 3623              	.LASF37:
 3624 0314 766F6C74 		.ascii	"voltage_battery\000"
 3624      6167655F 
 3624      62617474 
 3624      65727900 
 3625              	.LASF23:
 3626 0324 4461794F 		.ascii	"DayOfMonth\000"
 3626      664D6F6E 
 3626      746800
 3627              	.LASF103:
 3628 032f 6D616B65 		.ascii	"makeMeasurements\000"
 3628      4D656173 
 3628      7572656D 
 3628      656E7473 
 3628      00
 3629              	.LASF119:
 3630 0340 64617461 		.ascii	"data\000"
 3630      00
 3631              	.LASF73:
 3632 0345 65705F75 		.ascii	"ep_user\000"
 3632      73657200 
 3633              	.LASF72:
 3634 034d 65705F70 		.ascii	"ep_port\000"
 3634      6F727400 
 3635              	.LASF50:
 3636 0355 746D5F69 		.ascii	"tm_isdst\000"
 3636      73647374 
 3636      00
 3637              	.LASF67:
 3638 035e 6D6F6465 		.ascii	"modem_info\000"
ARM GAS  C:\Users\HYFI_A~1\AppData\Local\Temp\ccb6s9SH.s 			page 79


 3638      6D5F696E 
 3638      666F00
 3639              	.LASF71:
 3640 0369 65705F68 		.ascii	"ep_host\000"
 3640      6F737400 
 3641              	.LASF26:
 3642 0371 59656172 		.ascii	"Year\000"
 3642      00
 3643              	.LASF79:
 3644 0376 576F726B 		.ascii	"WorkWorkWorkWorkWorkWork\000"
 3644      576F726B 
 3644      576F726B 
 3644      576F726B 
 3644      576F726B 
 3645              	.LASF57:
 3646 038f 74696D65 		.ascii	"time_to_acquire_ip\000"
 3646      5F746F5F 
 3646      61637175 
 3646      6972655F 
 3646      697000
 3647              	.LASF93:
 3648 03a2 745F7364 		.ascii	"t_sd_card\000"
 3648      5F636172 
 3648      6400
 3649              	.LASF2:
 3650 03ac 73686F72 		.ascii	"short int\000"
 3650      7420696E 
 3650      7400
 3651              	.LASF116:
 3652 03b6 6D6F6465 		.ascii	"modem_start_time_stamp\000"
 3652      6D5F7374 
 3652      6172745F 
 3652      74696D65 
 3652      5F737461 
 3653              	.LASF69:
 3654 03cd 7379735F 		.ascii	"sys_info_t\000"
 3654      696E666F 
 3654      5F7400
 3655              	.LASF95:
 3656 03d8 62617365 		.ascii	"base\000"
 3656      00
 3657              	.LASF118:
 3658 03dd 64617461 		.ascii	"dataPointsInStack\000"
 3658      506F696E 
 3658      7473496E 
 3658      53746163 
 3658      6B00
 3659              	.LASF43:
 3660 03ef 746D5F6D 		.ascii	"tm_min\000"
 3660      696E00
 3661              	.LASF111:
 3662 03f6 726F7574 		.ascii	"route\000"
 3662      6500
 3663              	.LASF20:
 3664 03fc 73697A65 		.ascii	"sizetype\000"
 3664      74797065 
 3664      00
ARM GAS  C:\Users\HYFI_A~1\AppData\Local\Temp\ccb6s9SH.s 			page 80


 3665              	.LASF49:
 3666 0405 746D5F79 		.ascii	"tm_yday\000"
 3666      64617900 
 3667              	.LASF76:
 3668 040d 7379735F 		.ascii	"sys_settings_t\000"
 3668      73657474 
 3668      696E6773 
 3668      5F7400
 3669              	.LASF129:
 3670 041c 74696D65 		.ascii	"timeToSycnRemoteParams\000"
 3670      546F5379 
 3670      636E5265 
 3670      6D6F7465 
 3670      50617261 
 3671              	.LASF60:
 3672 0433 74696D65 		.ascii	"timeStamp\000"
 3672      5374616D 
 3672      7000
 3673              	.LASF27:
 3674 043d 5254435F 		.ascii	"RTC_TIME_DATE\000"
 3674      54494D45 
 3674      5F444154 
 3674      4500
 3675              	.LASF86:
 3676 044b 43726561 		.ascii	"CreateAlarm\000"
 3676      7465416C 
 3676      61726D00 
 3677              	.LASF120:
 3678 0457 68747470 		.ascii	"http_request\000"
 3678      5F726571 
 3678      75657374 
 3678      00
 3679              	.LASF16:
 3680 0464 666C6F61 		.ascii	"float\000"
 3680      7400
 3681              	.LASF36:
 3682 046a 6C657665 		.ascii	"level_sensor_t\000"
 3682      6C5F7365 
 3682      6E736F72 
 3682      5F7400
 3683              	.LASF102:
 3684 0479 636F6E66 		.ascii	"configureRemoteParams\000"
 3684      69677572 
 3684      6552656D 
 3684      6F746550 
 3684      6172616D 
 3685              	.LASF132:
 3686 048f 433A5C55 		.ascii	"C:\\Users\\hyfi_admin\\Documents\\GitHub\\notoriOS\\"
 3686      73657273 
 3686      5C687966 
 3686      695F6164 
 3686      6D696E5C 
 3687 04bd 6E6F746F 		.ascii	"notoriOS\\notoriOS.cydsn\000"
 3687      72694F53 
 3687      5C6E6F74 
 3687      6F72694F 
 3687      532E6379 
ARM GAS  C:\Users\HYFI_A~1\AppData\Local\Temp\ccb6s9SH.s 			page 81


 3688              	.LASF28:
 3689 04d5 74657374 		.ascii	"test_name\000"
 3689      5F6E616D 
 3689      6500
 3690              	.LASF25:
 3691 04df 4D6F6E74 		.ascii	"Month\000"
 3691      6800
 3692              	.LASF10:
 3693 04e5 696E7433 		.ascii	"int32_t\000"
 3693      325F7400 
 3694              	.LASF1:
 3695 04ed 756E7369 		.ascii	"unsigned char\000"
 3695      676E6564 
 3695      20636861 
 3695      7200
 3696              	.LASF124:
 3697 04fb 73797374 		.ascii	"system_settings\000"
 3697      656D5F73 
 3697      65747469 
 3697      6E677300 
 3698              	.LASF83:
 3699 050b 52657365 		.ascii	"ResetAlarm\000"
 3699      74416C61 
 3699      726D00
 3700              	.LASF101:
 3701 0516 735F7365 		.ascii	"s_send_time\000"
 3701      6E645F74 
 3701      696D6500 
 3702              	.LASF92:
 3703 0522 745F766F 		.ascii	"t_voltages\000"
 3703      6C746167 
 3703      657300
 3704              	.LASF88:
 3705 052d 52656164 		.ascii	"ReadyOrNot\000"
 3705      794F724E 
 3705      6F7400
 3706              	.LASF22:
 3707 0538 4461794F 		.ascii	"DayOfWeek\000"
 3707      66576565 
 3707      6B00
 3708              	.LASF31:
 3709 0542 74657374 		.ascii	"test_t\000"
 3709      5F7400
 3710              	.LASF123:
 3711 0549 73797374 		.ascii	"system_info\000"
 3711      656D5F69 
 3711      6E666F00 
 3712              	.LASF53:
 3713 0555 696D6569 		.ascii	"imei\000"
 3713      00
 3714              	.LASF30:
 3715 055a 72656173 		.ascii	"reason\000"
 3715      6F6E00
 3716              	.LASF84:
 3717 0561 616C6172 		.ascii	"alarmToBeReset\000"
 3717      6D546F42 
 3717      65526573 
ARM GAS  C:\Users\HYFI_A~1\AppData\Local\Temp\ccb6s9SH.s 			page 82


 3717      657400
 3718              	.LASF89:
 3719 0570 43686963 		.ascii	"ChickityCheckYourselfBeforeYouWreckYourself\000"
 3719      6B697479 
 3719      43686563 
 3719      6B596F75 
 3719      7273656C 
 3720              	.LASF58:
 3721 059c 6D6F6465 		.ascii	"modem_stats_t\000"
 3721      6D5F7374 
 3721      6174735F 
 3721      7400
 3722              	.LASF40:
 3723 05aa 76616C69 		.ascii	"valid\000"
 3723      6400
 3724              	.LASF48:
 3725 05b0 746D5F77 		.ascii	"tm_wday\000"
 3725      64617900 
 3726              	.LASF96:
 3727 05b8 64617461 		.ascii	"data_stack_count\000"
 3727      5F737461 
 3727      636B5F63 
 3727      6F756E74 
 3727      00
 3728              	.LASF19:
 3729 05c9 6C6F6E67 		.ascii	"long double\000"
 3729      20646F75 
 3729      626C6500 
 3730              	.LASF18:
 3731 05d5 63686172 		.ascii	"char\000"
 3731      00
 3732              	.LASF55:
 3733 05da 72737369 		.ascii	"rssi\000"
 3733      00
 3734              	.LASF117:
 3735 05df 6D6F6465 		.ascii	"modem_stats\000"
 3735      6D5F7374 
 3735      61747300 
 3736              	.LASF107:
 3737 05eb 6C6F6361 		.ascii	"localTime\000"
 3737      6C54696D 
 3737      6500
 3738              	.LASF122:
 3739 05f5 68747470 		.ascii	"http_route\000"
 3739      5F726F75 
 3739      746500
 3740              	.LASF98:
 3741 0600 706F7274 		.ascii	"portConfig\000"
 3741      436F6E66 
 3741      696700
 3742              	.LASF9:
 3743 060b 5F5F696E 		.ascii	"__int32_t\000"
 3743      7433325F 
 3743      7400
 3744              	.LASF77:
 3745 0615 756E6971 		.ascii	"uniqueId\000"
 3745      75654964 
ARM GAS  C:\Users\HYFI_A~1\AppData\Local\Temp\ccb6s9SH.s 			page 83


 3745      00
 3746              	.LASF104:
 3747 061e 6D5F6C65 		.ascii	"m_level_sensor\000"
 3747      76656C5F 
 3747      73656E73 
 3747      6F7200
 3748              	.LASF33:
 3749 062d 6C657665 		.ascii	"level_reading\000"
 3749      6C5F7265 
 3749      6164696E 
 3749      6700
 3750              	.LASF134:
 3751 063b 4C617942 		.ascii	"LayBack\000"
 3751      61636B00 
 3752              	.LASF3:
 3753 0643 73686F72 		.ascii	"short unsigned int\000"
 3753      7420756E 
 3753      7369676E 
 3753      65642069 
 3753      6E7400
 3754              	.LASF51:
 3755 0656 73696D5F 		.ascii	"sim_id\000"
 3755      696400
 3756              	.LASF68:
 3757 065d 63686970 		.ascii	"chip_uniqueId\000"
 3757      5F756E69 
 3757      71756549 
 3757      6400
 3758              	.LASF45:
 3759 066b 746D5F6D 		.ascii	"tm_mday\000"
 3759      64617900 
 3760              	.LASF87:
 3761 0673 6E657741 		.ascii	"newAlarm\000"
 3761      6C61726D 
 3761      00
 3762              	.LASF42:
 3763 067c 746D5F73 		.ascii	"tm_sec\000"
 3763      656300
 3764              	.LASF29:
 3765 0683 73746174 		.ascii	"status\000"
 3765      757300
 3766              	.LASF131:
 3767 068a 6E6F746F 		.ascii	"notoriOS.c\000"
 3767      72694F53 
 3767      2E6300
 3768              	.LASF121:
 3769 0695 68747470 		.ascii	"http_body\000"
 3769      5F626F64 
 3769      7900
 3770              	.LASF75:
 3771 069f 65705F64 		.ascii	"ep_database\000"
 3771      61746162 
 3771      61736500 
 3772              	.LASF14:
 3773 06ab 696E7431 		.ascii	"int16\000"
 3773      3600
 3774              	.LASF64:
ARM GAS  C:\Users\HYFI_A~1\AppData\Local\Temp\ccb6s9SH.s 			page 84


 3775 06b1 636F756E 		.ascii	"countDownType\000"
 3775      74446F77 
 3775      6E547970 
 3775      6500
 3776              	.LASF81:
 3777 06bf 616C6172 		.ascii	"alarmType\000"
 3777      6D547970 
 3777      6500
 3778              	.LASF24:
 3779 06c9 4461794F 		.ascii	"DayOfYear\000"
 3779      66596561 
 3779      7200
 3780              	.LASF85:
 3781 06d3 416C6172 		.ascii	"AlarmReady\000"
 3781      6D526561 
 3781      647900
 3782              	.LASF135:
 3783 06de 6D61696E 		.ascii	"main\000"
 3783      00
 3784              	.LASF17:
 3785 06e3 646F7562 		.ascii	"double\000"
 3785      6C6500
 3786              	.LASF41:
 3787 06ea 766F6C74 		.ascii	"voltage_t\000"
 3787      6167655F 
 3787      7400
 3788              		.ident	"GCC: (GNU Tools for ARM Embedded Processors) 5.4.1 20160609 (release) [ARM/embedded-5-bran
