ARM GAS  C:\Users\bk\AppData\Local\Temp\ccCCRMv3.s 			page 1


   1              		.syntax unified
   2              		.cpu cortex-m3
   3              		.fpu softvfp
   4              		.eabi_attribute 20, 1
   5              		.eabi_attribute 21, 1
   6              		.eabi_attribute 23, 3
   7              		.eabi_attribute 24, 1
   8              		.eabi_attribute 25, 1
   9              		.eabi_attribute 26, 1
  10              		.eabi_attribute 30, 1
  11              		.eabi_attribute 34, 1
  12              		.eabi_attribute 18, 4
  13              		.thumb
  14              		.syntax unified
  15              		.file	"SleepTimer.c"
  16              		.text
  17              	.Ltext0:
  18              		.cfi_sections	.debug_frame
  19              		.section	.text.SleepTimer_Enable,"ax",%progbits
  20              		.align	2
  21              		.global	SleepTimer_Enable
  22              		.thumb
  23              		.thumb_func
  24              		.type	SleepTimer_Enable, %function
  25              	SleepTimer_Enable:
  26              	.LFB2:
  27              		.file 1 "Generated_Source\\PSoC5\\SleepTimer.c"
   1:Generated_Source\PSoC5/SleepTimer.c **** /*******************************************************************************
   2:Generated_Source\PSoC5/SleepTimer.c **** * File Name: SleepTimer.c
   3:Generated_Source\PSoC5/SleepTimer.c **** * Version 3.20
   4:Generated_Source\PSoC5/SleepTimer.c **** *
   5:Generated_Source\PSoC5/SleepTimer.c **** * Description:
   6:Generated_Source\PSoC5/SleepTimer.c **** *  This file provides the source code to API for the Sleep Timer.
   7:Generated_Source\PSoC5/SleepTimer.c **** *
   8:Generated_Source\PSoC5/SleepTimer.c **** ********************************************************************************
   9:Generated_Source\PSoC5/SleepTimer.c **** * Copyright 2008-2012, Cypress Semiconductor Corporation.  All rights reserved.
  10:Generated_Source\PSoC5/SleepTimer.c **** * You may use this file only in accordance with the license, terms, conditions,
  11:Generated_Source\PSoC5/SleepTimer.c **** * disclaimers, and limitations in the end user license agreement accompanying
  12:Generated_Source\PSoC5/SleepTimer.c **** * the software package with which this file was provided.
  13:Generated_Source\PSoC5/SleepTimer.c **** *******************************************************************************/
  14:Generated_Source\PSoC5/SleepTimer.c **** 
  15:Generated_Source\PSoC5/SleepTimer.c **** #include "SleepTimer.h"
  16:Generated_Source\PSoC5/SleepTimer.c **** #include "CyLib.h"
  17:Generated_Source\PSoC5/SleepTimer.c **** 
  18:Generated_Source\PSoC5/SleepTimer.c **** /* Variables were not initialized */
  19:Generated_Source\PSoC5/SleepTimer.c **** uint8 SleepTimer_initVar = 0u;
  20:Generated_Source\PSoC5/SleepTimer.c **** 
  21:Generated_Source\PSoC5/SleepTimer.c **** 
  22:Generated_Source\PSoC5/SleepTimer.c **** /*******************************************************************************
  23:Generated_Source\PSoC5/SleepTimer.c **** * Function Name: SleepTimer_Start
  24:Generated_Source\PSoC5/SleepTimer.c **** ********************************************************************************
  25:Generated_Source\PSoC5/SleepTimer.c **** *
  26:Generated_Source\PSoC5/SleepTimer.c **** * Summary:
  27:Generated_Source\PSoC5/SleepTimer.c **** *  This is the preferred method to begin component operation. SleepTimer_Start()
  28:Generated_Source\PSoC5/SleepTimer.c **** *  sets the initVar variable, calls the SleepTimer_Init() function, and then
  29:Generated_Source\PSoC5/SleepTimer.c **** *  calls the SleepTimer_Enable() function. It enables the 1-kHz ILO clock and
  30:Generated_Source\PSoC5/SleepTimer.c **** *  leaves it enabled after the Sleep Timer component is stopped.
ARM GAS  C:\Users\bk\AppData\Local\Temp\ccCCRMv3.s 			page 2


  31:Generated_Source\PSoC5/SleepTimer.c **** *
  32:Generated_Source\PSoC5/SleepTimer.c **** * Parameters:
  33:Generated_Source\PSoC5/SleepTimer.c **** *  None
  34:Generated_Source\PSoC5/SleepTimer.c **** *
  35:Generated_Source\PSoC5/SleepTimer.c **** * Return:
  36:Generated_Source\PSoC5/SleepTimer.c **** *  None
  37:Generated_Source\PSoC5/SleepTimer.c **** *
  38:Generated_Source\PSoC5/SleepTimer.c **** * Global variables:
  39:Generated_Source\PSoC5/SleepTimer.c **** *  The SleepTimer_initVar variable is used to indicate initial
  40:Generated_Source\PSoC5/SleepTimer.c **** *  configuration of this component.  The variable is initialized to zero and
  41:Generated_Source\PSoC5/SleepTimer.c **** *  set to 1 the first time SleepTimer_Start() is called. This allows for
  42:Generated_Source\PSoC5/SleepTimer.c **** *  component initialization without re-initialization in all subsequent calls
  43:Generated_Source\PSoC5/SleepTimer.c **** *  to the SleepTimer_Start() routine.
  44:Generated_Source\PSoC5/SleepTimer.c **** *
  45:Generated_Source\PSoC5/SleepTimer.c **** * Reentrant:
  46:Generated_Source\PSoC5/SleepTimer.c **** *  No
  47:Generated_Source\PSoC5/SleepTimer.c **** *
  48:Generated_Source\PSoC5/SleepTimer.c **** * Side Effects:
  49:Generated_Source\PSoC5/SleepTimer.c **** *  If the initVar variable is already set, this function only calls the
  50:Generated_Source\PSoC5/SleepTimer.c **** *  SleepTimer_Enable() function.
  51:Generated_Source\PSoC5/SleepTimer.c **** *
  52:Generated_Source\PSoC5/SleepTimer.c **** *******************************************************************************/
  53:Generated_Source\PSoC5/SleepTimer.c **** void SleepTimer_Start(void) 
  54:Generated_Source\PSoC5/SleepTimer.c **** {
  55:Generated_Source\PSoC5/SleepTimer.c ****     /* Execute once in normal flow */
  56:Generated_Source\PSoC5/SleepTimer.c ****     if (0u == SleepTimer_initVar)
  57:Generated_Source\PSoC5/SleepTimer.c ****     {
  58:Generated_Source\PSoC5/SleepTimer.c ****         SleepTimer_Init();
  59:Generated_Source\PSoC5/SleepTimer.c ****         SleepTimer_initVar = 1u;
  60:Generated_Source\PSoC5/SleepTimer.c ****     }
  61:Generated_Source\PSoC5/SleepTimer.c **** 
  62:Generated_Source\PSoC5/SleepTimer.c ****     /* Enables the component operation */
  63:Generated_Source\PSoC5/SleepTimer.c ****     SleepTimer_Enable();
  64:Generated_Source\PSoC5/SleepTimer.c **** }
  65:Generated_Source\PSoC5/SleepTimer.c **** 
  66:Generated_Source\PSoC5/SleepTimer.c **** 
  67:Generated_Source\PSoC5/SleepTimer.c **** /*******************************************************************************
  68:Generated_Source\PSoC5/SleepTimer.c **** * Function Name: SleepTimer_Init
  69:Generated_Source\PSoC5/SleepTimer.c **** ********************************************************************************
  70:Generated_Source\PSoC5/SleepTimer.c **** *
  71:Generated_Source\PSoC5/SleepTimer.c **** * Summary:
  72:Generated_Source\PSoC5/SleepTimer.c **** *  This function initializes or restores the component according to the
  73:Generated_Source\PSoC5/SleepTimer.c **** *  customizer Configure dialog settings. It is not necessary to call
  74:Generated_Source\PSoC5/SleepTimer.c **** *  SleepTimer_Init() because the SleepTimer_Start() API calls this function and
  75:Generated_Source\PSoC5/SleepTimer.c **** *  is the preferred method to begin component operation. Sets CTW interval
  76:Generated_Source\PSoC5/SleepTimer.c **** *  period and enables or disables CTW interrupt (according to the customizer's
  77:Generated_Source\PSoC5/SleepTimer.c **** *  settings).
  78:Generated_Source\PSoC5/SleepTimer.c **** *
  79:Generated_Source\PSoC5/SleepTimer.c **** * Parameters:
  80:Generated_Source\PSoC5/SleepTimer.c **** *  None
  81:Generated_Source\PSoC5/SleepTimer.c **** *
  82:Generated_Source\PSoC5/SleepTimer.c **** * Return:
  83:Generated_Source\PSoC5/SleepTimer.c **** *  None
  84:Generated_Source\PSoC5/SleepTimer.c **** *
  85:Generated_Source\PSoC5/SleepTimer.c **** *******************************************************************************/
  86:Generated_Source\PSoC5/SleepTimer.c **** void SleepTimer_Init(void)  
  87:Generated_Source\PSoC5/SleepTimer.c **** {
ARM GAS  C:\Users\bk\AppData\Local\Temp\ccCCRMv3.s 			page 3


  88:Generated_Source\PSoC5/SleepTimer.c ****     /* Sets default (passed from customizer) interval */
  89:Generated_Source\PSoC5/SleepTimer.c ****     SleepTimer_SetInterval(SleepTimer_INTERVAL);
  90:Generated_Source\PSoC5/SleepTimer.c **** 
  91:Generated_Source\PSoC5/SleepTimer.c ****     /* Check if user sets to issue an interrupt in customizer */
  92:Generated_Source\PSoC5/SleepTimer.c ****     #if (1u == SleepTimer_ENABLE_INTERRUPT)
  93:Generated_Source\PSoC5/SleepTimer.c ****     {
  94:Generated_Source\PSoC5/SleepTimer.c ****         /* Enable interrupt */
  95:Generated_Source\PSoC5/SleepTimer.c ****         SleepTimer_EnableInt();
  96:Generated_Source\PSoC5/SleepTimer.c ****     }
  97:Generated_Source\PSoC5/SleepTimer.c ****     #else /* interrupt should be disabled */
  98:Generated_Source\PSoC5/SleepTimer.c ****     {
  99:Generated_Source\PSoC5/SleepTimer.c ****         /* Disable interrupt */
 100:Generated_Source\PSoC5/SleepTimer.c ****         SleepTimer_DisableInt();
 101:Generated_Source\PSoC5/SleepTimer.c ****     }   /* Interrupt is disabled  */
 102:Generated_Source\PSoC5/SleepTimer.c ****     #endif  /* (1u == SleepTimer_ENABLE_INTERRUPT) */
 103:Generated_Source\PSoC5/SleepTimer.c **** }
 104:Generated_Source\PSoC5/SleepTimer.c **** 
 105:Generated_Source\PSoC5/SleepTimer.c **** 
 106:Generated_Source\PSoC5/SleepTimer.c **** /*******************************************************************************
 107:Generated_Source\PSoC5/SleepTimer.c **** * Function Name: SleepTimer_Enable
 108:Generated_Source\PSoC5/SleepTimer.c **** ********************************************************************************
 109:Generated_Source\PSoC5/SleepTimer.c **** * Summary:
 110:Generated_Source\PSoC5/SleepTimer.c **** *  This function activates the 1-kHz ILO and the CTW and begins component
 111:Generated_Source\PSoC5/SleepTimer.c **** *  operation. It is not necessary to call SleepTimer_Enable() because the
 112:Generated_Source\PSoC5/SleepTimer.c **** *  SleepTimer_Start() API calls this function, which is the preferred method to
 113:Generated_Source\PSoC5/SleepTimer.c **** *  begin component operation.
 114:Generated_Source\PSoC5/SleepTimer.c **** *
 115:Generated_Source\PSoC5/SleepTimer.c **** * Parameters:
 116:Generated_Source\PSoC5/SleepTimer.c **** *  None
 117:Generated_Source\PSoC5/SleepTimer.c **** *
 118:Generated_Source\PSoC5/SleepTimer.c **** * Return:
 119:Generated_Source\PSoC5/SleepTimer.c **** *  None
 120:Generated_Source\PSoC5/SleepTimer.c **** *
 121:Generated_Source\PSoC5/SleepTimer.c **** * Side Effects:
 122:Generated_Source\PSoC5/SleepTimer.c **** *  Enables 1 kHz ILO clocks and leaves it enabled after Sleep Time component
 123:Generated_Source\PSoC5/SleepTimer.c **** *  is stopped.
 124:Generated_Source\PSoC5/SleepTimer.c **** *
 125:Generated_Source\PSoC5/SleepTimer.c **** *******************************************************************************/
 126:Generated_Source\PSoC5/SleepTimer.c **** void SleepTimer_Enable(void) 
 127:Generated_Source\PSoC5/SleepTimer.c **** {
  28              		.loc 1 127 0
  29              		.cfi_startproc
  30              		@ args = 0, pretend = 0, frame = 0
  31              		@ frame_needed = 0, uses_anonymous_args = 0
  32 0000 08B5     		push	{r3, lr}
  33              		.cfi_def_cfa_offset 8
  34              		.cfi_offset 3, -8
  35              		.cfi_offset 14, -4
 128:Generated_Source\PSoC5/SleepTimer.c ****     uint8 interruptState;
 129:Generated_Source\PSoC5/SleepTimer.c **** 
 130:Generated_Source\PSoC5/SleepTimer.c ****     /* If 1kHz ILO is disabled */
 131:Generated_Source\PSoC5/SleepTimer.c ****     if(0u == (SleepTimer_ILO_CFG_REG & SleepTimer_ILO_1KHZ_EN))
  36              		.loc 1 131 0
  37 0002 0F4B     		ldr	r3, .L5
  38 0004 1B78     		ldrb	r3, [r3]	@ zero_extendqisi2
  39 0006 13F0020F 		tst	r3, #2
  40 000a 0ED1     		bne	.L2
ARM GAS  C:\Users\bk\AppData\Local\Temp\ccCCRMv3.s 			page 4


 132:Generated_Source\PSoC5/SleepTimer.c ****     {
 133:Generated_Source\PSoC5/SleepTimer.c ****         /* Enter critical section */
 134:Generated_Source\PSoC5/SleepTimer.c ****         interruptState = CyEnterCriticalSection();
  41              		.loc 1 134 0
  42 000c FFF7FEFF 		bl	CyEnterCriticalSection
  43              	.LVL0:
 135:Generated_Source\PSoC5/SleepTimer.c **** 
 136:Generated_Source\PSoC5/SleepTimer.c ****         /* Enable 1kHz ILO */
 137:Generated_Source\PSoC5/SleepTimer.c ****         SleepTimer_ILO_CFG_REG |=SleepTimer_ILO_1KHZ_EN;
  44              		.loc 1 137 0
  45 0010 0B4A     		ldr	r2, .L5
  46 0012 1378     		ldrb	r3, [r2]	@ zero_extendqisi2
  47 0014 43F00203 		orr	r3, r3, #2
  48 0018 1370     		strb	r3, [r2]
 138:Generated_Source\PSoC5/SleepTimer.c **** 
 139:Generated_Source\PSoC5/SleepTimer.c ****         /* Enable the CTW counter */
 140:Generated_Source\PSoC5/SleepTimer.c ****         SleepTimer_TW_CFG_REG |= SleepTimer_CTW_EN;
  49              		.loc 1 140 0
  50 001a 8232     		adds	r2, r2, #130
  51 001c 1378     		ldrb	r3, [r2]	@ zero_extendqisi2
  52 001e 43F00403 		orr	r3, r3, #4
  53 0022 1370     		strb	r3, [r2]
 141:Generated_Source\PSoC5/SleepTimer.c **** 
 142:Generated_Source\PSoC5/SleepTimer.c ****         /* Exit critical section */
 143:Generated_Source\PSoC5/SleepTimer.c ****         CyExitCriticalSection(interruptState);
  54              		.loc 1 143 0
  55 0024 FFF7FEFF 		bl	CyExitCriticalSection
  56              	.LVL1:
  57 0028 08BD     		pop	{r3, pc}
  58              	.L2:
 144:Generated_Source\PSoC5/SleepTimer.c ****     }
 145:Generated_Source\PSoC5/SleepTimer.c ****     else /* If 1kHz ILO is enabled - enable CTW counter */
 146:Generated_Source\PSoC5/SleepTimer.c ****     {
 147:Generated_Source\PSoC5/SleepTimer.c ****         /* Enter critical section */
 148:Generated_Source\PSoC5/SleepTimer.c ****         interruptState = CyEnterCriticalSection();
  59              		.loc 1 148 0
  60 002a FFF7FEFF 		bl	CyEnterCriticalSection
  61              	.LVL2:
 149:Generated_Source\PSoC5/SleepTimer.c **** 
 150:Generated_Source\PSoC5/SleepTimer.c ****         /* Enable the CTW counter */
 151:Generated_Source\PSoC5/SleepTimer.c ****         SleepTimer_TW_CFG_REG |= SleepTimer_CTW_EN;
  62              		.loc 1 151 0
  63 002e 054A     		ldr	r2, .L5+4
  64 0030 1378     		ldrb	r3, [r2]	@ zero_extendqisi2
  65 0032 43F00403 		orr	r3, r3, #4
  66 0036 1370     		strb	r3, [r2]
 152:Generated_Source\PSoC5/SleepTimer.c **** 
 153:Generated_Source\PSoC5/SleepTimer.c ****         /* Exit critical section */
 154:Generated_Source\PSoC5/SleepTimer.c ****         CyExitCriticalSection(interruptState);
  67              		.loc 1 154 0
  68 0038 FFF7FEFF 		bl	CyExitCriticalSection
  69              	.LVL3:
  70 003c 08BD     		pop	{r3, pc}
  71              	.L6:
  72 003e 00BF     		.align	2
  73              	.L5:
  74 0040 00430040 		.word	1073758976
ARM GAS  C:\Users\bk\AppData\Local\Temp\ccCCRMv3.s 			page 5


  75 0044 82430040 		.word	1073759106
  76              		.cfi_endproc
  77              	.LFE2:
  78              		.size	SleepTimer_Enable, .-SleepTimer_Enable
  79              		.section	.text.SleepTimer_Stop,"ax",%progbits
  80              		.align	2
  81              		.global	SleepTimer_Stop
  82              		.thumb
  83              		.thumb_func
  84              		.type	SleepTimer_Stop, %function
  85              	SleepTimer_Stop:
  86              	.LFB3:
 155:Generated_Source\PSoC5/SleepTimer.c ****     }
 156:Generated_Source\PSoC5/SleepTimer.c **** }
 157:Generated_Source\PSoC5/SleepTimer.c **** 
 158:Generated_Source\PSoC5/SleepTimer.c **** 
 159:Generated_Source\PSoC5/SleepTimer.c **** /*******************************************************************************
 160:Generated_Source\PSoC5/SleepTimer.c **** * Function Name: SleepTimer_Stop
 161:Generated_Source\PSoC5/SleepTimer.c **** ********************************************************************************
 162:Generated_Source\PSoC5/SleepTimer.c **** *
 163:Generated_Source\PSoC5/SleepTimer.c **** * Summary:
 164:Generated_Source\PSoC5/SleepTimer.c **** *  This function stops Sleep Timer operation and disables wakeup and interrupt.
 165:Generated_Source\PSoC5/SleepTimer.c **** *  The device does not wake up when the CTW counter reaches terminal count, and
 166:Generated_Source\PSoC5/SleepTimer.c **** *  an interrupt is not issued.
 167:Generated_Source\PSoC5/SleepTimer.c **** *
 168:Generated_Source\PSoC5/SleepTimer.c **** * Parameters:
 169:Generated_Source\PSoC5/SleepTimer.c **** *  None
 170:Generated_Source\PSoC5/SleepTimer.c **** *
 171:Generated_Source\PSoC5/SleepTimer.c **** * Return:
 172:Generated_Source\PSoC5/SleepTimer.c **** *  None
 173:Generated_Source\PSoC5/SleepTimer.c **** *
 174:Generated_Source\PSoC5/SleepTimer.c **** * Side Effects:
 175:Generated_Source\PSoC5/SleepTimer.c **** *  Leaves the 1 kHz ILO clock enabled after Sleep Time component is stopped.
 176:Generated_Source\PSoC5/SleepTimer.c **** *
 177:Generated_Source\PSoC5/SleepTimer.c **** *******************************************************************************/
 178:Generated_Source\PSoC5/SleepTimer.c **** void SleepTimer_Stop(void) 
 179:Generated_Source\PSoC5/SleepTimer.c **** {
  87              		.loc 1 179 0
  88              		.cfi_startproc
  89              		@ args = 0, pretend = 0, frame = 0
  90              		@ frame_needed = 0, uses_anonymous_args = 0
  91 0000 08B5     		push	{r3, lr}
  92              		.cfi_def_cfa_offset 8
  93              		.cfi_offset 3, -8
  94              		.cfi_offset 14, -4
 180:Generated_Source\PSoC5/SleepTimer.c ****     uint8 interruptState;
 181:Generated_Source\PSoC5/SleepTimer.c **** 
 182:Generated_Source\PSoC5/SleepTimer.c ****     /* Enter critical section */
 183:Generated_Source\PSoC5/SleepTimer.c ****     interruptState = CyEnterCriticalSection();
  95              		.loc 1 183 0
  96 0002 FFF7FEFF 		bl	CyEnterCriticalSection
  97              	.LVL4:
 184:Generated_Source\PSoC5/SleepTimer.c **** 
 185:Generated_Source\PSoC5/SleepTimer.c ****     /* Disable CTW counter */
 186:Generated_Source\PSoC5/SleepTimer.c ****     SleepTimer_TW_CFG_REG &= (uint8)(~SleepTimer_CTW_EN);
  98              		.loc 1 186 0
  99 0006 044A     		ldr	r2, .L9
ARM GAS  C:\Users\bk\AppData\Local\Temp\ccCCRMv3.s 			page 6


 100 0008 1378     		ldrb	r3, [r2]	@ zero_extendqisi2
 101 000a 03F0FB03 		and	r3, r3, #251
 102 000e 1370     		strb	r3, [r2]
 187:Generated_Source\PSoC5/SleepTimer.c **** 
 188:Generated_Source\PSoC5/SleepTimer.c ****     /* Exit critical section */
 189:Generated_Source\PSoC5/SleepTimer.c ****     CyExitCriticalSection(interruptState);
 103              		.loc 1 189 0
 104 0010 FFF7FEFF 		bl	CyExitCriticalSection
 105              	.LVL5:
 106 0014 08BD     		pop	{r3, pc}
 107              	.L10:
 108 0016 00BF     		.align	2
 109              	.L9:
 110 0018 82430040 		.word	1073759106
 111              		.cfi_endproc
 112              	.LFE3:
 113              		.size	SleepTimer_Stop, .-SleepTimer_Stop
 114              		.section	.text.SleepTimer_EnableInt,"ax",%progbits
 115              		.align	2
 116              		.global	SleepTimer_EnableInt
 117              		.thumb
 118              		.thumb_func
 119              		.type	SleepTimer_EnableInt, %function
 120              	SleepTimer_EnableInt:
 121              	.LFB4:
 190:Generated_Source\PSoC5/SleepTimer.c **** }
 191:Generated_Source\PSoC5/SleepTimer.c **** 
 192:Generated_Source\PSoC5/SleepTimer.c **** 
 193:Generated_Source\PSoC5/SleepTimer.c **** /*******************************************************************************
 194:Generated_Source\PSoC5/SleepTimer.c **** * Function Name: SleepTimer_EnableInt
 195:Generated_Source\PSoC5/SleepTimer.c **** ********************************************************************************
 196:Generated_Source\PSoC5/SleepTimer.c **** *
 197:Generated_Source\PSoC5/SleepTimer.c **** * Summary:
 198:Generated_Source\PSoC5/SleepTimer.c **** *  This function enables the CTW terminal count interrupt.
 199:Generated_Source\PSoC5/SleepTimer.c **** *
 200:Generated_Source\PSoC5/SleepTimer.c **** * Parameters:
 201:Generated_Source\PSoC5/SleepTimer.c **** *  None
 202:Generated_Source\PSoC5/SleepTimer.c **** *
 203:Generated_Source\PSoC5/SleepTimer.c **** * Return:
 204:Generated_Source\PSoC5/SleepTimer.c **** *  None
 205:Generated_Source\PSoC5/SleepTimer.c **** *
 206:Generated_Source\PSoC5/SleepTimer.c **** *******************************************************************************/
 207:Generated_Source\PSoC5/SleepTimer.c **** void SleepTimer_EnableInt(void) 
 208:Generated_Source\PSoC5/SleepTimer.c **** {
 122              		.loc 1 208 0
 123              		.cfi_startproc
 124              		@ args = 0, pretend = 0, frame = 0
 125              		@ frame_needed = 0, uses_anonymous_args = 0
 126 0000 08B5     		push	{r3, lr}
 127              		.cfi_def_cfa_offset 8
 128              		.cfi_offset 3, -8
 129              		.cfi_offset 14, -4
 209:Generated_Source\PSoC5/SleepTimer.c ****     uint8 interruptState;
 210:Generated_Source\PSoC5/SleepTimer.c **** 
 211:Generated_Source\PSoC5/SleepTimer.c ****     /* Enter critical section */
 212:Generated_Source\PSoC5/SleepTimer.c ****     interruptState = CyEnterCriticalSection();
 130              		.loc 1 212 0
ARM GAS  C:\Users\bk\AppData\Local\Temp\ccCCRMv3.s 			page 7


 131 0002 FFF7FEFF 		bl	CyEnterCriticalSection
 132              	.LVL6:
 213:Generated_Source\PSoC5/SleepTimer.c **** 
 214:Generated_Source\PSoC5/SleepTimer.c ****      /* Enable interrupt on wake up */
 215:Generated_Source\PSoC5/SleepTimer.c ****     SleepTimer_TW_CFG_REG |= SleepTimer_CTW_IE;
 133              		.loc 1 215 0
 134 0006 044A     		ldr	r2, .L13
 135 0008 1378     		ldrb	r3, [r2]	@ zero_extendqisi2
 136 000a 43F00803 		orr	r3, r3, #8
 137 000e 1370     		strb	r3, [r2]
 216:Generated_Source\PSoC5/SleepTimer.c **** 
 217:Generated_Source\PSoC5/SleepTimer.c ****     /* Exit critical section */
 218:Generated_Source\PSoC5/SleepTimer.c ****     CyExitCriticalSection(interruptState);
 138              		.loc 1 218 0
 139 0010 FFF7FEFF 		bl	CyExitCriticalSection
 140              	.LVL7:
 141 0014 08BD     		pop	{r3, pc}
 142              	.L14:
 143 0016 00BF     		.align	2
 144              	.L13:
 145 0018 82430040 		.word	1073759106
 146              		.cfi_endproc
 147              	.LFE4:
 148              		.size	SleepTimer_EnableInt, .-SleepTimer_EnableInt
 149              		.section	.text.SleepTimer_DisableInt,"ax",%progbits
 150              		.align	2
 151              		.global	SleepTimer_DisableInt
 152              		.thumb
 153              		.thumb_func
 154              		.type	SleepTimer_DisableInt, %function
 155              	SleepTimer_DisableInt:
 156              	.LFB5:
 219:Generated_Source\PSoC5/SleepTimer.c **** }
 220:Generated_Source\PSoC5/SleepTimer.c **** 
 221:Generated_Source\PSoC5/SleepTimer.c **** 
 222:Generated_Source\PSoC5/SleepTimer.c **** /*******************************************************************************
 223:Generated_Source\PSoC5/SleepTimer.c **** * Function Name: SleepTimer_DisableInt
 224:Generated_Source\PSoC5/SleepTimer.c **** ********************************************************************************
 225:Generated_Source\PSoC5/SleepTimer.c **** *
 226:Generated_Source\PSoC5/SleepTimer.c **** * Summary:
 227:Generated_Source\PSoC5/SleepTimer.c **** *  This function disables the CTW terminal count interrupt.
 228:Generated_Source\PSoC5/SleepTimer.c **** *
 229:Generated_Source\PSoC5/SleepTimer.c **** * Parameters:
 230:Generated_Source\PSoC5/SleepTimer.c **** *  None
 231:Generated_Source\PSoC5/SleepTimer.c **** *
 232:Generated_Source\PSoC5/SleepTimer.c **** * Return:
 233:Generated_Source\PSoC5/SleepTimer.c **** *  None
 234:Generated_Source\PSoC5/SleepTimer.c **** *
 235:Generated_Source\PSoC5/SleepTimer.c **** *******************************************************************************/
 236:Generated_Source\PSoC5/SleepTimer.c **** void SleepTimer_DisableInt(void) 
 237:Generated_Source\PSoC5/SleepTimer.c **** {
 157              		.loc 1 237 0
 158              		.cfi_startproc
 159              		@ args = 0, pretend = 0, frame = 0
 160              		@ frame_needed = 0, uses_anonymous_args = 0
 161 0000 08B5     		push	{r3, lr}
 162              		.cfi_def_cfa_offset 8
ARM GAS  C:\Users\bk\AppData\Local\Temp\ccCCRMv3.s 			page 8


 163              		.cfi_offset 3, -8
 164              		.cfi_offset 14, -4
 238:Generated_Source\PSoC5/SleepTimer.c ****     uint8 interruptState;
 239:Generated_Source\PSoC5/SleepTimer.c **** 
 240:Generated_Source\PSoC5/SleepTimer.c ****     /* Enter critical section */
 241:Generated_Source\PSoC5/SleepTimer.c ****     interruptState = CyEnterCriticalSection();
 165              		.loc 1 241 0
 166 0002 FFF7FEFF 		bl	CyEnterCriticalSection
 167              	.LVL8:
 242:Generated_Source\PSoC5/SleepTimer.c **** 
 243:Generated_Source\PSoC5/SleepTimer.c ****     /* Disable interrupt on wake up */
 244:Generated_Source\PSoC5/SleepTimer.c ****     SleepTimer_TW_CFG_REG &= (uint8)(~SleepTimer_CTW_IE);
 168              		.loc 1 244 0
 169 0006 044A     		ldr	r2, .L17
 170 0008 1378     		ldrb	r3, [r2]	@ zero_extendqisi2
 171 000a 03F0F703 		and	r3, r3, #247
 172 000e 1370     		strb	r3, [r2]
 245:Generated_Source\PSoC5/SleepTimer.c **** 
 246:Generated_Source\PSoC5/SleepTimer.c ****     /* Exit critical section */
 247:Generated_Source\PSoC5/SleepTimer.c ****     CyExitCriticalSection(interruptState);
 173              		.loc 1 247 0
 174 0010 FFF7FEFF 		bl	CyExitCriticalSection
 175              	.LVL9:
 176 0014 08BD     		pop	{r3, pc}
 177              	.L18:
 178 0016 00BF     		.align	2
 179              	.L17:
 180 0018 82430040 		.word	1073759106
 181              		.cfi_endproc
 182              	.LFE5:
 183              		.size	SleepTimer_DisableInt, .-SleepTimer_DisableInt
 184              		.section	.text.SleepTimer_SetInterval,"ax",%progbits
 185              		.align	2
 186              		.global	SleepTimer_SetInterval
 187              		.thumb
 188              		.thumb_func
 189              		.type	SleepTimer_SetInterval, %function
 190              	SleepTimer_SetInterval:
 191              	.LFB6:
 248:Generated_Source\PSoC5/SleepTimer.c **** }
 249:Generated_Source\PSoC5/SleepTimer.c **** 
 250:Generated_Source\PSoC5/SleepTimer.c **** 
 251:Generated_Source\PSoC5/SleepTimer.c **** /*******************************************************************************
 252:Generated_Source\PSoC5/SleepTimer.c **** * Function Name: SleepTimer_SetInterval
 253:Generated_Source\PSoC5/SleepTimer.c **** ********************************************************************************
 254:Generated_Source\PSoC5/SleepTimer.c **** *
 255:Generated_Source\PSoC5/SleepTimer.c **** * Summary:
 256:Generated_Source\PSoC5/SleepTimer.c **** *  This function sets the CTW interval period. The first interval can range
 257:Generated_Source\PSoC5/SleepTimer.c **** *  from 1 to (period + 1) milliseconds. Additional intervals occur at the
 258:Generated_Source\PSoC5/SleepTimer.c **** *  nominal period. You can only change the interval value when CTW is disabled,
 259:Generated_Source\PSoC5/SleepTimer.c **** *  which you do by stopping the component.
 260:Generated_Source\PSoC5/SleepTimer.c **** *
 261:Generated_Source\PSoC5/SleepTimer.c **** * Parameters:
 262:Generated_Source\PSoC5/SleepTimer.c **** *  uint8 interval: interval?s value for the CTW.
 263:Generated_Source\PSoC5/SleepTimer.c **** *
 264:Generated_Source\PSoC5/SleepTimer.c **** *  PSoC 5:
 265:Generated_Source\PSoC5/SleepTimer.c **** *  Only the 4-, 8-, 16-, 32-, 64-, 128-, and 256-ms selections are supported.
ARM GAS  C:\Users\bk\AppData\Local\Temp\ccCCRMv3.s 			page 9


 266:Generated_Source\PSoC5/SleepTimer.c **** *
 267:Generated_Source\PSoC5/SleepTimer.c **** *           Name                    Value        Period
 268:Generated_Source\PSoC5/SleepTimer.c **** *   SleepTimer__CTW_2_MS      4'b0001        2 ms
 269:Generated_Source\PSoC5/SleepTimer.c **** *   SleepTimer__CTW_4_MS      4'b0010        4 ms
 270:Generated_Source\PSoC5/SleepTimer.c **** *   SleepTimer__CTW_8_MS      4'b0011        8 ms
 271:Generated_Source\PSoC5/SleepTimer.c **** *   SleepTimer__CTW_16_MS     4'b0100        16 ms
 272:Generated_Source\PSoC5/SleepTimer.c **** *   SleepTimer__CTW_32_MS     4'b0101        32 ms
 273:Generated_Source\PSoC5/SleepTimer.c **** *   SleepTimer__CTW_64_MS     4'b0110        64 ms
 274:Generated_Source\PSoC5/SleepTimer.c **** *   SleepTimer__CTW_128_MS    4'b0111        128 ms
 275:Generated_Source\PSoC5/SleepTimer.c **** *   SleepTimer__CTW_256_MS    4'b1000        256 ms
 276:Generated_Source\PSoC5/SleepTimer.c **** *   SleepTimer__CTW_512_MS    4'b1001        512 ms
 277:Generated_Source\PSoC5/SleepTimer.c **** *   SleepTimer__CTW_1024_MS   4'b1010        1024 ms
 278:Generated_Source\PSoC5/SleepTimer.c **** *   SleepTimer__CTW_2048_MS   4'b1011        2048 ms
 279:Generated_Source\PSoC5/SleepTimer.c **** *   SleepTimer__CTW_4096_MS   4'b1100        4096 ms
 280:Generated_Source\PSoC5/SleepTimer.c **** *
 281:Generated_Source\PSoC5/SleepTimer.c **** * Return:
 282:Generated_Source\PSoC5/SleepTimer.c **** *  None
 283:Generated_Source\PSoC5/SleepTimer.c **** *
 284:Generated_Source\PSoC5/SleepTimer.c **** * Side Effects:
 285:Generated_Source\PSoC5/SleepTimer.c **** *  Interval value can be only changed when component is stopped (CTW is
 286:Generated_Source\PSoC5/SleepTimer.c **** *  disabled).
 287:Generated_Source\PSoC5/SleepTimer.c **** *
 288:Generated_Source\PSoC5/SleepTimer.c **** *******************************************************************************/
 289:Generated_Source\PSoC5/SleepTimer.c **** void SleepTimer_SetInterval(uint8 interval) 
 290:Generated_Source\PSoC5/SleepTimer.c **** {
 192              		.loc 1 290 0
 193              		.cfi_startproc
 194              		@ args = 0, pretend = 0, frame = 0
 195              		@ frame_needed = 0, uses_anonymous_args = 0
 196              		@ link register save eliminated.
 197              	.LVL10:
 291:Generated_Source\PSoC5/SleepTimer.c ****     /* Check if CTW is disabled */
 292:Generated_Source\PSoC5/SleepTimer.c ****     if (0u == (SleepTimer_TW_CFG_REG & SleepTimer_CTW_EN))
 198              		.loc 1 292 0
 199 0000 064B     		ldr	r3, .L21
 200 0002 1B78     		ldrb	r3, [r3]	@ zero_extendqisi2
 201 0004 13F0040F 		tst	r3, #4
 202 0008 07D1     		bne	.L19
 293:Generated_Source\PSoC5/SleepTimer.c ****     {
 294:Generated_Source\PSoC5/SleepTimer.c ****         #if(CY_PSOC5A)
 295:Generated_Source\PSoC5/SleepTimer.c **** 
 296:Generated_Source\PSoC5/SleepTimer.c ****             CYASSERT((SleepTimer__CTW_4_MS   == interval) ||
 297:Generated_Source\PSoC5/SleepTimer.c ****                      (SleepTimer__CTW_8_MS   == interval) ||
 298:Generated_Source\PSoC5/SleepTimer.c ****                      (SleepTimer__CTW_16_MS  == interval) ||
 299:Generated_Source\PSoC5/SleepTimer.c ****                      (SleepTimer__CTW_32_MS  == interval) ||
 300:Generated_Source\PSoC5/SleepTimer.c ****                      (SleepTimer__CTW_64_MS  == interval) ||
 301:Generated_Source\PSoC5/SleepTimer.c ****                      (SleepTimer__CTW_128_MS == interval) ||
 302:Generated_Source\PSoC5/SleepTimer.c ****                      (SleepTimer__CTW_256_MS == interval));
 303:Generated_Source\PSoC5/SleepTimer.c **** 
 304:Generated_Source\PSoC5/SleepTimer.c ****         #endif  /* (CY_PSOC5A) */
 305:Generated_Source\PSoC5/SleepTimer.c **** 
 306:Generated_Source\PSoC5/SleepTimer.c ****         /* Set CTW interval */
 307:Generated_Source\PSoC5/SleepTimer.c ****         SleepTimer_CTW_INTERVAL_REG = \
 308:Generated_Source\PSoC5/SleepTimer.c ****             (SleepTimer_CTW_INTERVAL_REG & ((uint8)~SleepTimer_INTERVAL_MASK)) | \
 203              		.loc 1 308 0
 204 000a 054A     		ldr	r2, .L21+4
 205 000c 1378     		ldrb	r3, [r2]	@ zero_extendqisi2
ARM GAS  C:\Users\bk\AppData\Local\Temp\ccCCRMv3.s 			page 10


 307:Generated_Source\PSoC5/SleepTimer.c ****             (SleepTimer_CTW_INTERVAL_REG & ((uint8)~SleepTimer_INTERVAL_MASK)) | \
 206              		.loc 1 307 0
 207 000e 03F0F003 		and	r3, r3, #240
 208 0012 00F00F00 		and	r0, r0, #15
 209              	.LVL11:
 210 0016 1843     		orrs	r0, r0, r3
 211 0018 1070     		strb	r0, [r2]
 212              	.L19:
 213 001a 7047     		bx	lr
 214              	.L22:
 215              		.align	2
 216              	.L21:
 217 001c 82430040 		.word	1073759106
 218 0020 81430040 		.word	1073759105
 219              		.cfi_endproc
 220              	.LFE6:
 221              		.size	SleepTimer_SetInterval, .-SleepTimer_SetInterval
 222              		.section	.text.SleepTimer_Init,"ax",%progbits
 223              		.align	2
 224              		.global	SleepTimer_Init
 225              		.thumb
 226              		.thumb_func
 227              		.type	SleepTimer_Init, %function
 228              	SleepTimer_Init:
 229              	.LFB1:
  87:Generated_Source\PSoC5/SleepTimer.c ****     /* Sets default (passed from customizer) interval */
 230              		.loc 1 87 0
 231              		.cfi_startproc
 232              		@ args = 0, pretend = 0, frame = 0
 233              		@ frame_needed = 0, uses_anonymous_args = 0
 234 0000 08B5     		push	{r3, lr}
 235              		.cfi_def_cfa_offset 8
 236              		.cfi_offset 3, -8
 237              		.cfi_offset 14, -4
  89:Generated_Source\PSoC5/SleepTimer.c **** 
 238              		.loc 1 89 0
 239 0002 0A20     		movs	r0, #10
 240 0004 FFF7FEFF 		bl	SleepTimer_SetInterval
 241              	.LVL12:
  95:Generated_Source\PSoC5/SleepTimer.c ****     }
 242              		.loc 1 95 0
 243 0008 FFF7FEFF 		bl	SleepTimer_EnableInt
 244              	.LVL13:
 245 000c 08BD     		pop	{r3, pc}
 246              		.cfi_endproc
 247              	.LFE1:
 248              		.size	SleepTimer_Init, .-SleepTimer_Init
 249 000e 00BF     		.section	.text.SleepTimer_Start,"ax",%progbits
 250              		.align	2
 251              		.global	SleepTimer_Start
 252              		.thumb
 253              		.thumb_func
 254              		.type	SleepTimer_Start, %function
 255              	SleepTimer_Start:
 256              	.LFB0:
  54:Generated_Source\PSoC5/SleepTimer.c ****     /* Execute once in normal flow */
 257              		.loc 1 54 0
ARM GAS  C:\Users\bk\AppData\Local\Temp\ccCCRMv3.s 			page 11


 258              		.cfi_startproc
 259              		@ args = 0, pretend = 0, frame = 0
 260              		@ frame_needed = 0, uses_anonymous_args = 0
 261 0000 08B5     		push	{r3, lr}
 262              		.cfi_def_cfa_offset 8
 263              		.cfi_offset 3, -8
 264              		.cfi_offset 14, -4
  56:Generated_Source\PSoC5/SleepTimer.c ****     {
 265              		.loc 1 56 0
 266 0002 054B     		ldr	r3, .L28
 267 0004 1B78     		ldrb	r3, [r3]	@ zero_extendqisi2
 268 0006 23B9     		cbnz	r3, .L26
  58:Generated_Source\PSoC5/SleepTimer.c ****         SleepTimer_initVar = 1u;
 269              		.loc 1 58 0
 270 0008 FFF7FEFF 		bl	SleepTimer_Init
 271              	.LVL14:
  59:Generated_Source\PSoC5/SleepTimer.c ****     }
 272              		.loc 1 59 0
 273 000c 0122     		movs	r2, #1
 274 000e 024B     		ldr	r3, .L28
 275 0010 1A70     		strb	r2, [r3]
 276              	.L26:
  63:Generated_Source\PSoC5/SleepTimer.c **** }
 277              		.loc 1 63 0
 278 0012 FFF7FEFF 		bl	SleepTimer_Enable
 279              	.LVL15:
 280 0016 08BD     		pop	{r3, pc}
 281              	.L29:
 282              		.align	2
 283              	.L28:
 284 0018 00000000 		.word	.LANCHOR0
 285              		.cfi_endproc
 286              	.LFE0:
 287              		.size	SleepTimer_Start, .-SleepTimer_Start
 288              		.section	.text.SleepTimer_GetStatus,"ax",%progbits
 289              		.align	2
 290              		.global	SleepTimer_GetStatus
 291              		.thumb
 292              		.thumb_func
 293              		.type	SleepTimer_GetStatus, %function
 294              	SleepTimer_GetStatus:
 295              	.LFB7:
 309:Generated_Source\PSoC5/SleepTimer.c ****             (interval & SleepTimer_INTERVAL_MASK);
 310:Generated_Source\PSoC5/SleepTimer.c ****     }
 311:Generated_Source\PSoC5/SleepTimer.c ****     /* Do nothing if CTW is enabled. */
 312:Generated_Source\PSoC5/SleepTimer.c **** }
 313:Generated_Source\PSoC5/SleepTimer.c **** 
 314:Generated_Source\PSoC5/SleepTimer.c **** 
 315:Generated_Source\PSoC5/SleepTimer.c **** /*******************************************************************************
 316:Generated_Source\PSoC5/SleepTimer.c **** * Function Name: SleepTimer_GetStatus
 317:Generated_Source\PSoC5/SleepTimer.c **** ********************************************************************************
 318:Generated_Source\PSoC5/SleepTimer.c **** *
 319:Generated_Source\PSoC5/SleepTimer.c **** * Summary:
 320:Generated_Source\PSoC5/SleepTimer.c **** *  This function returns the state of the Sleep Timer's status register, and
 321:Generated_Source\PSoC5/SleepTimer.c **** *  clears the pending interrupt status bit. The application code must always
 322:Generated_Source\PSoC5/SleepTimer.c **** *  call this function after wakeup to clear the ctw_int status bit. The code
 323:Generated_Source\PSoC5/SleepTimer.c **** *  must call this function whether the Sleep Timer's interrupt is disabled or
ARM GAS  C:\Users\bk\AppData\Local\Temp\ccCCRMv3.s 			page 12


 324:Generated_Source\PSoC5/SleepTimer.c **** *  enabled.
 325:Generated_Source\PSoC5/SleepTimer.c **** *
 326:Generated_Source\PSoC5/SleepTimer.c **** * Parameters:
 327:Generated_Source\PSoC5/SleepTimer.c **** *  None
 328:Generated_Source\PSoC5/SleepTimer.c **** *
 329:Generated_Source\PSoC5/SleepTimer.c **** * Return:
 330:Generated_Source\PSoC5/SleepTimer.c **** *  Returns an 8-bit value (uint8) with bits set if a corresponding event has
 331:Generated_Source\PSoC5/SleepTimer.c **** *  occurred. The constants shown in the following table describe the two-bit
 332:Generated_Source\PSoC5/SleepTimer.c **** *  masks for the two events that this return value can contain.
 333:Generated_Source\PSoC5/SleepTimer.c **** *
 334:Generated_Source\PSoC5/SleepTimer.c **** *            Name                             Description
 335:Generated_Source\PSoC5/SleepTimer.c **** *  SleepTimer_PM_INT_SR_ONEPPSP  A onepps event has occured
 336:Generated_Source\PSoC5/SleepTimer.c **** *  SleepTimer_PM_INT_SR_CTW      A central timewheel event occured
 337:Generated_Source\PSoC5/SleepTimer.c **** *  SleepTimer_PM_INT_SR_FTW      A fast timewheel event occured
 338:Generated_Source\PSoC5/SleepTimer.c **** *
 339:Generated_Source\PSoC5/SleepTimer.c **** * Side Effects:
 340:Generated_Source\PSoC5/SleepTimer.c **** *  If the SleepTimer_GetStatus() function is not called in an interrupt
 341:Generated_Source\PSoC5/SleepTimer.c **** *  associated with the SleepTimer, the interrupt is not cleared and as soon as
 342:Generated_Source\PSoC5/SleepTimer.c **** *  the interrupt is exited it is re-entered.
 343:Generated_Source\PSoC5/SleepTimer.c **** *
 344:Generated_Source\PSoC5/SleepTimer.c **** *  After the Sleep Timer has expired, the sleep interval is functionally 0 ms,
 345:Generated_Source\PSoC5/SleepTimer.c **** *  because the interrupt is called until the ctw_int flag is cleared by the
 346:Generated_Source\PSoC5/SleepTimer.c **** *  SleepTimer_GetStatus() function.
 347:Generated_Source\PSoC5/SleepTimer.c **** *
 348:Generated_Source\PSoC5/SleepTimer.c **** *  If an interrupt is generated at the same time as a register read/clear, the
 349:Generated_Source\PSoC5/SleepTimer.c **** *  bit remains set (which causes another interrupt).
 350:Generated_Source\PSoC5/SleepTimer.c **** *
 351:Generated_Source\PSoC5/SleepTimer.c **** *  Reports and then clears all interrupt status bits in the Power Manager
 352:Generated_Source\PSoC5/SleepTimer.c **** *  Interrupt Status register. Some of the bits are not relevant to this
 353:Generated_Source\PSoC5/SleepTimer.c **** *  component's operation.
 354:Generated_Source\PSoC5/SleepTimer.c **** *
 355:Generated_Source\PSoC5/SleepTimer.c **** *  The application code must always call this function (when the Sleep Timer's
 356:Generated_Source\PSoC5/SleepTimer.c **** *  interrupt is disabled or enabled) after wakeup to clear the ctw_int status
 357:Generated_Source\PSoC5/SleepTimer.c **** *  bit. The code must call SleepTimer_GetStatus() within 1 ms (1 clock cycle of
 358:Generated_Source\PSoC5/SleepTimer.c **** *  the ILO) after the CTW event occurred.
 359:Generated_Source\PSoC5/SleepTimer.c **** *
 360:Generated_Source\PSoC5/SleepTimer.c **** *******************************************************************************/
 361:Generated_Source\PSoC5/SleepTimer.c **** uint8 SleepTimer_GetStatus(void) 
 362:Generated_Source\PSoC5/SleepTimer.c **** {
 296              		.loc 1 362 0
 297              		.cfi_startproc
 298              		@ args = 0, pretend = 0, frame = 0
 299              		@ frame_needed = 0, uses_anonymous_args = 0
 300 0000 08B5     		push	{r3, lr}
 301              		.cfi_def_cfa_offset 8
 302              		.cfi_offset 3, -8
 303              		.cfi_offset 14, -4
 363:Generated_Source\PSoC5/SleepTimer.c ****     /* Read to clear  */
 364:Generated_Source\PSoC5/SleepTimer.c ****     return CyPmReadStatus(CY_PM_CTW_INT);
 304              		.loc 1 364 0
 305 0002 0220     		movs	r0, #2
 306 0004 FFF7FEFF 		bl	CyPmReadStatus
 307              	.LVL16:
 365:Generated_Source\PSoC5/SleepTimer.c **** }
 308              		.loc 1 365 0
 309 0008 08BD     		pop	{r3, pc}
 310              		.cfi_endproc
ARM GAS  C:\Users\bk\AppData\Local\Temp\ccCCRMv3.s 			page 13


 311              	.LFE7:
 312              		.size	SleepTimer_GetStatus, .-SleepTimer_GetStatus
 313              		.global	SleepTimer_initVar
 314 000a 00BF     		.bss
 315              		.set	.LANCHOR0,. + 0
 316              		.type	SleepTimer_initVar, %object
 317              		.size	SleepTimer_initVar, 1
 318              	SleepTimer_initVar:
 319 0000 00       		.space	1
 320              		.text
 321              	.Letext0:
 322              		.file 2 "Generated_Source\\PSoC5\\cytypes.h"
 323              		.file 3 "Generated_Source\\PSoC5\\CyLib.h"
 324              		.file 4 "Generated_Source\\PSoC5\\cyPm.h"