ARM GAS  C:\Users\bk\AppData\Local\Temp\ccq38zU3.s 			page 1


   1              		.syntax unified
   2              		.cpu cortex-m3
   3              		.fpu softvfp
   4              		.eabi_attribute 20, 1
   5              		.eabi_attribute 21, 1
   6              		.eabi_attribute 23, 3
   7              		.eabi_attribute 24, 1
   8              		.eabi_attribute 25, 1
   9              		.eabi_attribute 26, 1
  10              		.eabi_attribute 30, 6
  11              		.eabi_attribute 34, 1
  12              		.eabi_attribute 18, 4
  13              		.thumb
  14              		.syntax unified
  15              		.file	"telit.c"
  16              		.text
  17              	.Ltext0:
  18              		.cfi_sections	.debug_frame
  19              		.comm	debug_string,100,4
  20              		.syntax unified
  21              		.global _printf_float
  22              		.thumb
  23              		.syntax unified
  24              		.global	main_host
  25              		.data
  26              		.align	2
  27              		.type	main_host, %object
  28              		.size	main_host, 15
  29              	main_host:
  30 0000 35322E32 		.ascii	"52.205.129.200\000"
  30      30352E31 
  30      32392E32 
  30      303000
  31              		.global	main_port
  32 000f 00       		.align	1
  33              		.type	main_port, %object
  34              		.size	main_port, 2
  35              	main_port:
  36 0010 961F     		.short	8086
  37              		.global	database
  38 0012 0000     		.align	2
  39              		.type	database, %object
  40              		.size	database, 4
  41              	database:
  42 0014 4D504D00 		.ascii	"MPM\000"
  43              		.comm	uart_received_string,1024,4
  44              		.global	uart_string_index
  45              		.bss
  46              		.type	uart_string_index, %object
  47              		.size	uart_string_index, 1
  48              	uart_string_index:
  49 0000 00       		.space	1
  50              		.global	device_index
  51 0001 000000   		.align	2
  52              		.type	device_index, %object
  53              		.size	device_index, 3
  54              	device_index:
ARM GAS  C:\Users\bk\AppData\Local\Temp\ccq38zU3.s 			page 2


  55 0004 000000   		.space	3
  56              		.global	MEID
  57 0007 00       		.align	2
  58              		.type	MEID, %object
  59              		.size	MEID, 16
  60              	MEID:
  61 0008 00000000 		.space	16
  61      00000000 
  61      00000000 
  61      00000000 
  62              		.global	modem
  63              		.data
  64              		.align	2
  65              		.type	modem, %object
  66              		.size	modem, 14
  67              	modem:
  68 0018 00       		.byte	0
  69 0019 01       		.byte	1
  70 001a 02       		.byte	2
  71 001b 00       		.byte	0
  72 001c 00       		.byte	0
  73 001d 00       		.ascii	"\000"
  74 001e 00000000 		.space	7
  74      000000
  75 0025 00       		.byte	0
  76              		.global	EVENT_NODE_LIST
  77 0026 0000     		.align	2
  78              		.type	EVENT_NODE_LIST, %object
  79              		.size	EVENT_NODE_LIST, 81
  80              	EVENT_NODE_LIST:
  81 0028 00       		.byte	0
  82 0029 01       		.byte	1
  83 002a 02       		.byte	2
  84 002b 01       		.byte	1
  85 002c 01       		.byte	1
  86 002d 00       		.byte	0
  87 002e 01       		.byte	1
  88 002f 03       		.byte	3
  89 0030 02       		.byte	2
  90 0031 05       		.byte	5
  91 0032 01       		.byte	1
  92 0033 01       		.byte	1
  93 0034 05       		.byte	5
  94 0035 03       		.byte	3
  95 0036 00       		.byte	0
  96 0037 06       		.byte	6
  97 0038 01       		.byte	1
  98 0039 03       		.byte	3
  99 003a 02       		.byte	2
 100 003b 01       		.byte	1
 101 003c 0A       		.byte	10
 102 003d 02       		.byte	2
 103 003e 03       		.byte	3
 104 003f 04       		.byte	4
 105 0040 03       		.byte	3
 106 0041 01       		.byte	1
 107 0042 0A       		.byte	10
ARM GAS  C:\Users\bk\AppData\Local\Temp\ccq38zU3.s 			page 3


 108 0043 03       		.byte	3
 109 0044 03       		.byte	3
 110 0045 02       		.byte	2
 111 0046 04       		.byte	4
 112 0047 01       		.byte	1
 113 0048 08       		.byte	8
 114 0049 04       		.byte	4
 115 004a 03       		.byte	3
 116 004b 09       		.byte	9
 117 004c 07       		.byte	7
 118 004d 01       		.byte	1
 119 004e 0B       		.byte	11
 120 004f 07       		.byte	7
 121 0050 03       		.byte	3
 122 0051 06       		.byte	6
 123 0052 08       		.byte	8
 124 0053 01       		.byte	1
 125 0054 07       		.byte	7
 126 0055 08       		.byte	8
 127 0056 03       		.byte	3
 128 0057 02       		.byte	2
 129 0058 09       		.byte	9
 130 0059 01       		.byte	1
 131 005a 0B       		.byte	11
 132 005b 09       		.byte	9
 133 005c 03       		.byte	3
 134 005d 05       		.byte	5
 135 005e 0A       		.byte	10
 136 005f 01       		.byte	1
 137 0060 0C       		.byte	12
 138 0061 0A       		.byte	10
 139 0062 03       		.byte	3
 140 0063 02       		.byte	2
 141 0064 0B       		.byte	11
 142 0065 01       		.byte	1
 143 0066 0D       		.byte	13
 144 0067 0B       		.byte	11
 145 0068 03       		.byte	3
 146 0069 0D       		.byte	13
 147 006a 0C       		.byte	12
 148 006b 01       		.byte	1
 149 006c 0E       		.byte	14
 150 006d 0C       		.byte	12
 151 006e 03       		.byte	3
 152 006f 0E       		.byte	14
 153 0070 0D       		.byte	13
 154 0071 01       		.byte	1
 155 0072 0F       		.byte	15
 156 0073 0E       		.byte	14
 157 0074 01       		.byte	1
 158 0075 00       		.byte	0
 159 0076 0E       		.byte	14
 160 0077 03       		.byte	3
 161 0078 0F       		.byte	15
 162              		.section	.text.isr_telit_rx,"ax",%progbits
 163              		.align	2
 164              		.global	isr_telit_rx
ARM GAS  C:\Users\bk\AppData\Local\Temp\ccq38zU3.s 			page 4


 165              		.thumb
 166              		.thumb_func
 167              		.type	isr_telit_rx, %function
 168              	isr_telit_rx:
 169              	.LFB64:
 170              		.file 1 "telit.c"
   1:telit.c       **** /* ========================================
   2:telit.c       **** 
   3:telit.c       ****  * ========================================
   4:telit.c       **** */
   5:telit.c       **** 
   6:telit.c       **** #include <telit.h>
   7:telit.c       **** #include <stdlib.h>
   8:telit.c       **** #include <stdio.h>
   9:telit.c       **** #include <string.h>
  10:telit.c       **** #include "debug.h"
  11:telit.c       **** 
  12:telit.c       **** char main_host[]="52.205.129.200";
  13:telit.c       **** uint16_t main_port=8086;
  14:telit.c       **** char database[]="MPM";
  15:telit.c       **** char uart_received_string[1024];
  16:telit.c       **** uint8_t uart_string_index=0;
  17:telit.c       **** char device_index[3]={"\0"};
  18:telit.c       **** char MEID[16]={"\0"};
  19:telit.c       **** MODEM_DESCRIPTOR_T modem={EVENT_CHECK_UART,STATE_ECHO_CORRECT,ACTION_CHECK_NETWORK,0,0,"",0};
  20:telit.c       **** 
  21:telit.c       **** /* This matrix describes what action to execute when the modem returns the
  22:telit.c       ****  * the right response STATE_ECHO_CORRECT, or when the modem never returns the
  23:telit.c       ****  * the right response STATE_ECHO_TIMEOUT, given the current EVENT.
  24:telit.c       ****  * When the modem is at STATE_CMD_SENT or STATE_ECHO_WRONG, it will wait till
  25:telit.c       ****  * the correct response is received or timeout.*/
  26:telit.c       **** EVENT_NODE_T EVENT_NODE_LIST[]={
  27:telit.c       ****        
  28:telit.c       ****     {EVENT_CHECK_UART,STATE_ECHO_CORRECT,ACTION_CHECK_NETWORK},     
  29:telit.c       ****             
  30:telit.c       ****     {EVENT_CHECK_NETWORK,STATE_ECHO_CORRECT,ACTION_REQUEST_TIME},
  31:telit.c       ****     {EVENT_CHECK_NETWORK,STATE_ECHO_TIMEOUT,ACTION_CHECK_NETWORK},     
  32:telit.c       ****     
  33:telit.c       ****     {EVENT_REQUEST_TIME,STATE_ECHO_CORRECT,ACTION_PARSE_TIME},
  34:telit.c       ****     //{EVENT_REQUEST_TIME,STATE_ECHO_TIMEOUT,ACTION_CHECK_NETWORK},
  35:telit.c       ****     {EVENT_REQUEST_TIME,STATE_ECHO_TIMEOUT,ACTION_REQUEST_TIME}, // BPW
  36:telit.c       ****     
  37:telit.c       ****     /* this process doesn't have reponse, so echo is set to CORRECT*/
  38:telit.c       ****     {EVENT_PARSE_TIME,STATE_ECHO_CORRECT,ACTION_CHECK_PDP},   
  39:telit.c       ****     
  40:telit.c       ****     {EVENT_CHECK_PDP,STATE_ECHO_CORRECT,ACTION_CHECK_DEVICE_INDEX},
  41:telit.c       ****     {EVENT_CHECK_PDP,STATE_ECHO_TIMEOUT,ACTION_ACTIVATE_PDP},
  42:telit.c       ****     
  43:telit.c       ****     {EVENT_ACTIVATE_PDP,STATE_ECHO_CORRECT,ACTION_CHECK_DEVICE_INDEX},
  44:telit.c       ****     {EVENT_ACTIVATE_PDP,STATE_ECHO_TIMEOUT,ACTION_CHECK_NETWORK},         
  45:telit.c       ****     
  46:telit.c       ****     {EVENT_REQUEST_MEID,STATE_ECHO_CORRECT,ACTION_INQUIRE_INDEX},
  47:telit.c       ****     {EVENT_REQUEST_MEID,STATE_ECHO_TIMEOUT,ACTION_REQUEST_MEID},    
  48:telit.c       ****     
  49:telit.c       ****     {EVENT_OPEN_SOCKET,STATE_ECHO_CORRECT,ACTION_INIT_SEND},
  50:telit.c       ****     {EVENT_OPEN_SOCKET,STATE_ECHO_TIMEOUT,ACTION_REQUEST_SOCKET_STATUS},
  51:telit.c       ****     
ARM GAS  C:\Users\bk\AppData\Local\Temp\ccq38zU3.s 			page 5


  52:telit.c       ****     {EVENT_REQUEST_SOCKET_STATUS,STATE_ECHO_CORRECT,ACTION_PARSE_SOCKET_STATUS},
  53:telit.c       ****     {EVENT_REQUEST_SOCKET_STATUS,STATE_ECHO_TIMEOUT,ACTION_CHECK_NETWORK},
  54:telit.c       ****     
  55:telit.c       ****     {EVENT_PARSE_SOCKET_STATUS,STATE_ECHO_CORRECT,ACTION_INIT_SEND},
  56:telit.c       ****     {EVENT_PARSE_SOCKET_STATUS,STATE_ECHO_TIMEOUT,ACTION_SOCKET_DIAL},
  57:telit.c       ****     
  58:telit.c       ****     {EVENT_INIT_SEND,STATE_ECHO_CORRECT,ACTION_SEND_STRING},
  59:telit.c       ****     {EVENT_INIT_SEND,STATE_ECHO_TIMEOUT,ACTION_CHECK_NETWORK},
  60:telit.c       ****         
  61:telit.c       ****     /* proceed to receive messages from server regardless of send status*/
  62:telit.c       ****     {EVENT_SEND_MESSAGE,STATE_ECHO_CORRECT,ACTION_RECEIVE_MESSAGE},
  63:telit.c       ****     {EVENT_SEND_MESSAGE,STATE_ECHO_TIMEOUT,ACTION_RECEIVE_MESSAGE},
  64:telit.c       ****     
  65:telit.c       ****     /* if no message is received, i.e. TIMEOUT, the empty message will
  66:telit.c       ****      * also be parsed as communication error*/    
  67:telit.c       ****     {EVENT_RECEIVE_MESSAGE,STATE_ECHO_CORRECT,ACTION_PARSE_MESSAGE},
  68:telit.c       ****     {EVENT_RECEIVE_MESSAGE,STATE_ECHO_TIMEOUT,ACTION_PARSE_MESSAGE},
  69:telit.c       ****     
  70:telit.c       ****     /* this process doesn't have reponse, so echo is set to correct*/
  71:telit.c       ****     {EVENT_PARSE_MESSAGE,STATE_ECHO_CORRECT,ACTION_CLOSE_SOCKET},
  72:telit.c       ****     
  73:telit.c       ****     {EVENT_CLOSE_SOCKET,STATE_ECHO_CORRECT,ACTION_REQUEST_TIME},
  74:telit.c       ****     {EVENT_CLOSE_SOCKET,STATE_ECHO_TIMEOUT,ACTION_CLOSE_SOCKET}        
  75:telit.c       ****     
  76:telit.c       **** };
  77:telit.c       **** 
  78:telit.c       **** CY_ISR(isr_telit_rx){      
 171              		.loc 1 78 0
 172              		.cfi_startproc
 173              		@ args = 0, pretend = 0, frame = 0
 174              		@ frame_needed = 1, uses_anonymous_args = 0
 175 0000 98B5     		push	{r3, r4, r7, lr}
 176              		.cfi_def_cfa_offset 16
 177              		.cfi_offset 3, -16
 178              		.cfi_offset 4, -12
 179              		.cfi_offset 7, -8
 180              		.cfi_offset 14, -4
 181 0002 00AF     		add	r7, sp, #0
 182              		.cfi_def_cfa_register 7
  79:telit.c       ****     while(UART_Telit_GetRxBufferSize()==1){
 183              		.loc 1 79 0
 184 0004 0EE0     		b	.L2
 185              	.L3:
  80:telit.c       ****         uart_received_string[uart_string_index]=UART_Telit_GetChar();
 186              		.loc 1 80 0
 187 0006 0B4B     		ldr	r3, .L4
 188 0008 1B78     		ldrb	r3, [r3]	@ zero_extendqisi2
 189 000a 1C46     		mov	r4, r3
 190 000c FFF7FEFF 		bl	UART_Telit_GetChar
 191 0010 0346     		mov	r3, r0
 192 0012 1A46     		mov	r2, r3
 193 0014 084B     		ldr	r3, .L4+4
 194 0016 1A55     		strb	r2, [r3, r4]
  81:telit.c       ****         uart_string_index++;
 195              		.loc 1 81 0
 196 0018 064B     		ldr	r3, .L4
 197 001a 1B78     		ldrb	r3, [r3]	@ zero_extendqisi2
ARM GAS  C:\Users\bk\AppData\Local\Temp\ccq38zU3.s 			page 6


 198 001c 0133     		adds	r3, r3, #1
 199 001e DAB2     		uxtb	r2, r3
 200 0020 044B     		ldr	r3, .L4
 201 0022 1A70     		strb	r2, [r3]
 202              	.L2:
  79:telit.c       ****     while(UART_Telit_GetRxBufferSize()==1){
 203              		.loc 1 79 0
 204 0024 FFF7FEFF 		bl	UART_Telit_GetRxBufferSize
 205 0028 0346     		mov	r3, r0
 206 002a 012B     		cmp	r3, #1
 207 002c EBD0     		beq	.L3
  82:telit.c       ****     }       
  83:telit.c       **** }
 208              		.loc 1 83 0
 209 002e 00BF     		nop
 210 0030 98BD     		pop	{r3, r4, r7, pc}
 211              	.L5:
 212 0032 00BF     		.align	2
 213              	.L4:
 214 0034 00000000 		.word	uart_string_index
 215 0038 00000000 		.word	uart_received_string
 216              		.cfi_endproc
 217              	.LFE64:
 218              		.size	isr_telit_rx, .-isr_telit_rx
 219              		.section	.rodata
 220              		.align	2
 221              	.LC0:
 222 0000 2343434C 		.ascii	"#CCLK: \000"
 222      4B3A2000 
 223              		.section	.text.adjust_time,"ax",%progbits
 224              		.align	2
 225              		.global	adjust_time
 226              		.thumb
 227              		.thumb_func
 228              		.type	adjust_time, %function
 229              	adjust_time:
 230              	.LFB65:
  84:telit.c       **** 
  85:telit.c       **** void adjust_time(){
 231              		.loc 1 85 0
 232              		.cfi_startproc
 233              		@ args = 0, pretend = 0, frame = 16
 234              		@ frame_needed = 1, uses_anonymous_args = 0
 235 0000 80B5     		push	{r7, lr}
 236              		.cfi_def_cfa_offset 8
 237              		.cfi_offset 7, -8
 238              		.cfi_offset 14, -4
 239 0002 84B0     		sub	sp, sp, #16
 240              		.cfi_def_cfa_offset 24
 241 0004 00AF     		add	r7, sp, #0
 242              		.cfi_def_cfa_register 7
  86:telit.c       ****     char  num[10] = {'\0'};
 243              		.loc 1 86 0
 244 0006 3B46     		mov	r3, r7
 245 0008 0022     		movs	r2, #0
 246 000a 1A60     		str	r2, [r3]
 247 000c 5A60     		str	r2, [r3, #4]
ARM GAS  C:\Users\bk\AppData\Local\Temp\ccq38zU3.s 			page 7


 248 000e 1A81     		strh	r2, [r3, #8]	@ movhi
  87:telit.c       ****     char *ptr=strstr(uart_received_string,"#CCLK: ");
 249              		.loc 1 87 0
 250 0010 0449     		ldr	r1, .L7
 251 0012 0548     		ldr	r0, .L7+4
 252 0014 FFF7FEFF 		bl	strstr
 253 0018 F860     		str	r0, [r7, #12]
  88:telit.c       ****     /*if(ptr!=NULL){
  89:telit.c       ****         
  90:telit.c       ****         ptr+=sizeof("#CCLK: ");
  91:telit.c       ****         
  92:telit.c       ****         strncpy(num,ptr,2);
  93:telit.c       ****         *(num+2)='\0';
  94:telit.c       ****         time.year=atoi(num)+2000;
  95:telit.c       ****         
  96:telit.c       ****         ptr=ptr+3;
  97:telit.c       ****         strncpy(num,ptr,2);
  98:telit.c       ****         *(num+2)='\0';
  99:telit.c       ****         time.month=atoi(num);
 100:telit.c       ****         
 101:telit.c       ****         ptr=ptr+3; 
 102:telit.c       ****         strncpy(num,ptr,2);
 103:telit.c       ****         *(num+2)='\0';
 104:telit.c       ****         time.day=atoi(num);
 105:telit.c       ****         
 106:telit.c       ****         ptr=ptr+3; 
 107:telit.c       ****         strncpy(num,ptr,2);
 108:telit.c       ****         *(num+2)='\0';
 109:telit.c       ****         time.hour=atoi(num);
 110:telit.c       ****         
 111:telit.c       ****         ptr=ptr+3; 
 112:telit.c       ****         strncpy(num,ptr,2);
 113:telit.c       ****         *(num+2)='\0';
 114:telit.c       ****         time.min=atoi(num);
 115:telit.c       ****         
 116:telit.c       ****         ptr=ptr+3; 
 117:telit.c       ****         strncpy(num,ptr,2);
 118:telit.c       ****         *(num+2)='\0';
 119:telit.c       ****         time.sec=atoi(num);
 120:telit.c       ****         memset(uart_received_string,'\0',sizeof(uart_received_string));
 121:telit.c       ****     }*/   
 122:telit.c       **** }
 254              		.loc 1 122 0
 255 001a 00BF     		nop
 256 001c 1037     		adds	r7, r7, #16
 257              		.cfi_def_cfa_offset 8
 258 001e BD46     		mov	sp, r7
 259              		.cfi_def_cfa_register 13
 260              		@ sp needed
 261 0020 80BD     		pop	{r7, pc}
 262              	.L8:
 263 0022 00BF     		.align	2
 264              	.L7:
 265 0024 00000000 		.word	.LC0
 266 0028 00000000 		.word	uart_received_string
 267              		.cfi_endproc
 268              	.LFE65:
ARM GAS  C:\Users\bk\AppData\Local\Temp\ccq38zU3.s 			page 8


 269              		.size	adjust_time, .-adjust_time
 270              		.section	.text.modem_scheduler_adjust_system_time,"ax",%progbits
 271              		.align	2
 272              		.global	modem_scheduler_adjust_system_time
 273              		.thumb
 274              		.thumb_func
 275              		.type	modem_scheduler_adjust_system_time, %function
 276              	modem_scheduler_adjust_system_time:
 277              	.LFB66:
 123:telit.c       **** 
 124:telit.c       **** void modem_scheduler_adjust_system_time(){
 278              		.loc 1 124 0
 279              		.cfi_startproc
 280              		@ args = 0, pretend = 0, frame = 0
 281              		@ frame_needed = 1, uses_anonymous_args = 0
 282 0000 80B5     		push	{r7, lr}
 283              		.cfi_def_cfa_offset 8
 284              		.cfi_offset 7, -8
 285              		.cfi_offset 14, -4
 286 0002 00AF     		add	r7, sp, #0
 287              		.cfi_def_cfa_register 7
 125:telit.c       ****     modem.modem_event=EVENT_PARSE_TIME;
 288              		.loc 1 125 0
 289 0004 044B     		ldr	r3, .L10
 290 0006 0622     		movs	r2, #6
 291 0008 1A70     		strb	r2, [r3]
 126:telit.c       ****     modem.modem_state=STATE_ECHO_CORRECT;
 292              		.loc 1 126 0
 293 000a 034B     		ldr	r3, .L10
 294 000c 0122     		movs	r2, #1
 295 000e 5A70     		strb	r2, [r3, #1]
 127:telit.c       ****     adjust_time();      
 296              		.loc 1 127 0
 297 0010 FFF7FEFF 		bl	adjust_time
 128:telit.c       **** }
 298              		.loc 1 128 0
 299 0014 00BF     		nop
 300 0016 80BD     		pop	{r7, pc}
 301              	.L11:
 302              		.align	2
 303              	.L10:
 304 0018 00000000 		.word	modem
 305              		.cfi_endproc
 306              	.LFE66:
 307              		.size	modem_scheduler_adjust_system_time, .-modem_scheduler_adjust_system_time
 308              		.section	.text.uart_string_reset,"ax",%progbits
 309              		.align	2
 310              		.global	uart_string_reset
 311              		.thumb
 312              		.thumb_func
 313              		.type	uart_string_reset, %function
 314              	uart_string_reset:
 315              	.LFB67:
 129:telit.c       **** 
 130:telit.c       **** void uart_string_reset(){
 316              		.loc 1 130 0
 317              		.cfi_startproc
ARM GAS  C:\Users\bk\AppData\Local\Temp\ccq38zU3.s 			page 9


 318              		@ args = 0, pretend = 0, frame = 0
 319              		@ frame_needed = 1, uses_anonymous_args = 0
 320 0000 80B5     		push	{r7, lr}
 321              		.cfi_def_cfa_offset 8
 322              		.cfi_offset 7, -8
 323              		.cfi_offset 14, -4
 324 0002 00AF     		add	r7, sp, #0
 325              		.cfi_def_cfa_register 7
 131:telit.c       ****     uart_string_index=0;
 326              		.loc 1 131 0
 327 0004 064B     		ldr	r3, .L13
 328 0006 0022     		movs	r2, #0
 329 0008 1A70     		strb	r2, [r3]
 132:telit.c       ****     memset(uart_received_string,'\0',sizeof(uart_received_string));
 330              		.loc 1 132 0
 331 000a 4FF48062 		mov	r2, #1024
 332 000e 0021     		movs	r1, #0
 333 0010 0448     		ldr	r0, .L13+4
 334 0012 FFF7FEFF 		bl	memset
 133:telit.c       ****     UART_Telit_ClearRxBuffer();
 335              		.loc 1 133 0
 336 0016 FFF7FEFF 		bl	UART_Telit_ClearRxBuffer
 134:telit.c       **** }
 337              		.loc 1 134 0
 338 001a 00BF     		nop
 339 001c 80BD     		pop	{r7, pc}
 340              	.L14:
 341 001e 00BF     		.align	2
 342              	.L13:
 343 0020 00000000 		.word	uart_string_index
 344 0024 00000000 		.word	uart_received_string
 345              		.cfi_endproc
 346              	.LFE67:
 347              		.size	uart_string_reset, .-uart_string_reset
 348              		.section	.text.modem_send_at_command,"ax",%progbits
 349              		.align	2
 350              		.global	modem_send_at_command
 351              		.thumb
 352              		.thumb_func
 353              		.type	modem_send_at_command, %function
 354              	modem_send_at_command:
 355              	.LFB68:
 135:telit.c       **** 
 136:telit.c       **** // --------------------------------------------
 137:telit.c       **** //
 138:telit.c       **** //
 139:telit.c       **** void modem_send_at_command(char * cmd){
 356              		.loc 1 139 0
 357              		.cfi_startproc
 358              		@ args = 0, pretend = 0, frame = 8
 359              		@ frame_needed = 1, uses_anonymous_args = 0
 360 0000 80B5     		push	{r7, lr}
 361              		.cfi_def_cfa_offset 8
 362              		.cfi_offset 7, -8
 363              		.cfi_offset 14, -4
 364 0002 82B0     		sub	sp, sp, #8
 365              		.cfi_def_cfa_offset 16
ARM GAS  C:\Users\bk\AppData\Local\Temp\ccq38zU3.s 			page 10


 366 0004 00AF     		add	r7, sp, #0
 367              		.cfi_def_cfa_register 7
 368 0006 7860     		str	r0, [r7, #4]
 140:telit.c       ****     uart_string_reset();
 369              		.loc 1 140 0
 370 0008 FFF7FEFF 		bl	uart_string_reset
 141:telit.c       ****     UART_Telit_PutString(cmd);    
 371              		.loc 1 141 0
 372 000c 7868     		ldr	r0, [r7, #4]
 373 000e FFF7FEFF 		bl	UART_Telit_PutString
 142:telit.c       ****     modem.modem_state=STATE_AT_CMD_SENT;
 374              		.loc 1 142 0
 375 0012 054B     		ldr	r3, .L16
 376 0014 0022     		movs	r2, #0
 377 0016 5A70     		strb	r2, [r3, #1]
 143:telit.c       ****     modem.echo_counter=0;
 378              		.loc 1 143 0
 379 0018 034B     		ldr	r3, .L16
 380 001a 0022     		movs	r2, #0
 381 001c DA70     		strb	r2, [r3, #3]
 144:telit.c       **** }
 382              		.loc 1 144 0
 383 001e 00BF     		nop
 384 0020 0837     		adds	r7, r7, #8
 385              		.cfi_def_cfa_offset 8
 386 0022 BD46     		mov	sp, r7
 387              		.cfi_def_cfa_register 13
 388              		@ sp needed
 389 0024 80BD     		pop	{r7, pc}
 390              	.L17:
 391 0026 00BF     		.align	2
 392              	.L16:
 393 0028 00000000 		.word	modem
 394              		.cfi_endproc
 395              	.LFE68:
 396              		.size	modem_send_at_command, .-modem_send_at_command
 397              		.section	.text.modem_compare_echo,"ax",%progbits
 398              		.align	2
 399              		.global	modem_compare_echo
 400              		.thumb
 401              		.thumb_func
 402              		.type	modem_compare_echo, %function
 403              	modem_compare_echo:
 404              	.LFB69:
 145:telit.c       **** //
 146:telit.c       **** //
 147:telit.c       **** // --------------------------------------------
 148:telit.c       **** 
 149:telit.c       **** void modem_compare_echo(){
 405              		.loc 1 149 0
 406              		.cfi_startproc
 407              		@ args = 0, pretend = 0, frame = 8
 408              		@ frame_needed = 1, uses_anonymous_args = 0
 409 0000 80B5     		push	{r7, lr}
 410              		.cfi_def_cfa_offset 8
 411              		.cfi_offset 7, -8
 412              		.cfi_offset 14, -4
ARM GAS  C:\Users\bk\AppData\Local\Temp\ccq38zU3.s 			page 11


 413 0002 82B0     		sub	sp, sp, #8
 414              		.cfi_def_cfa_offset 16
 415 0004 00AF     		add	r7, sp, #0
 416              		.cfi_def_cfa_register 7
 150:telit.c       ****     char* compare_location;
 151:telit.c       ****     compare_location=strstr(uart_received_string,modem.expected_response);
 417              		.loc 1 151 0
 418 0006 1049     		ldr	r1, .L22
 419 0008 1048     		ldr	r0, .L22+4
 420 000a FFF7FEFF 		bl	strstr
 421 000e 7860     		str	r0, [r7, #4]
 152:telit.c       ****     if(compare_location!=NULL)modem.modem_state=STATE_ECHO_CORRECT;
 422              		.loc 1 152 0
 423 0010 7B68     		ldr	r3, [r7, #4]
 424 0012 002B     		cmp	r3, #0
 425 0014 03D0     		beq	.L19
 426              		.loc 1 152 0 is_stmt 0 discriminator 1
 427 0016 0E4B     		ldr	r3, .L22+8
 428 0018 0122     		movs	r2, #1
 429 001a 5A70     		strb	r2, [r3, #1]
 153:telit.c       ****     else {
 154:telit.c       ****         modem.modem_state=STATE_ECHO_NOT_FOUND;
 155:telit.c       ****         modem.echo_counter++;
 156:telit.c       ****         if(modem.echo_counter>=MAX_ECHO_COUNT)modem.modem_state=STATE_ECHO_TIMEOUT;
 157:telit.c       ****     }    
 158:telit.c       **** }
 430              		.loc 1 158 0 is_stmt 1 discriminator 1
 431 001c 0FE0     		b	.L21
 432              	.L19:
 154:telit.c       ****         modem.echo_counter++;
 433              		.loc 1 154 0
 434 001e 0C4B     		ldr	r3, .L22+8
 435 0020 0222     		movs	r2, #2
 436 0022 5A70     		strb	r2, [r3, #1]
 155:telit.c       ****         if(modem.echo_counter>=MAX_ECHO_COUNT)modem.modem_state=STATE_ECHO_TIMEOUT;
 437              		.loc 1 155 0
 438 0024 0A4B     		ldr	r3, .L22+8
 439 0026 DB78     		ldrb	r3, [r3, #3]	@ zero_extendqisi2
 440 0028 0133     		adds	r3, r3, #1
 441 002a DAB2     		uxtb	r2, r3
 442 002c 084B     		ldr	r3, .L22+8
 443 002e DA70     		strb	r2, [r3, #3]
 156:telit.c       ****     }    
 444              		.loc 1 156 0
 445 0030 074B     		ldr	r3, .L22+8
 446 0032 DB78     		ldrb	r3, [r3, #3]	@ zero_extendqisi2
 447 0034 F92B     		cmp	r3, #249
 448 0036 02D9     		bls	.L21
 156:telit.c       ****     }    
 449              		.loc 1 156 0 is_stmt 0 discriminator 1
 450 0038 054B     		ldr	r3, .L22+8
 451 003a 0322     		movs	r2, #3
 452 003c 5A70     		strb	r2, [r3, #1]
 453              	.L21:
 454              		.loc 1 158 0 is_stmt 1
 455 003e 00BF     		nop
 456 0040 0837     		adds	r7, r7, #8
ARM GAS  C:\Users\bk\AppData\Local\Temp\ccq38zU3.s 			page 12


 457              		.cfi_def_cfa_offset 8
 458 0042 BD46     		mov	sp, r7
 459              		.cfi_def_cfa_register 13
 460              		@ sp needed
 461 0044 80BD     		pop	{r7, pc}
 462              	.L23:
 463 0046 00BF     		.align	2
 464              	.L22:
 465 0048 05000000 		.word	modem+5
 466 004c 00000000 		.word	uart_received_string
 467 0050 00000000 		.word	modem
 468              		.cfi_endproc
 469              	.LFE69:
 470              		.size	modem_compare_echo, .-modem_compare_echo
 471              		.section	.rodata
 472              		.align	2
 473              	.LC1:
 474 0008 41542B47 		.ascii	"AT+GSN=1\015\000"
 474      534E3D31 
 474      0D00
 475 0012 0000     		.align	2
 476              	.LC2:
 477 0014 4F4B00   		.ascii	"OK\000"
 478              		.section	.text.modem_scheduler_request_meid,"ax",%progbits
 479              		.align	2
 480              		.global	modem_scheduler_request_meid
 481              		.thumb
 482              		.thumb_func
 483              		.type	modem_scheduler_request_meid, %function
 484              	modem_scheduler_request_meid:
 485              	.LFB70:
 159:telit.c       **** 
 160:telit.c       **** void modem_scheduler_request_meid(){
 486              		.loc 1 160 0
 487              		.cfi_startproc
 488              		@ args = 0, pretend = 0, frame = 0
 489              		@ frame_needed = 1, uses_anonymous_args = 0
 490 0000 80B5     		push	{r7, lr}
 491              		.cfi_def_cfa_offset 8
 492              		.cfi_offset 7, -8
 493              		.cfi_offset 14, -4
 494 0002 00AF     		add	r7, sp, #0
 495              		.cfi_def_cfa_register 7
 161:telit.c       ****     modem_send_at_command("AT+GSN=1\r");
 496              		.loc 1 161 0
 497 0004 0648     		ldr	r0, .L25
 498 0006 FFF7FEFF 		bl	modem_send_at_command
 162:telit.c       ****     sprintf(modem.expected_response,"OK");
 499              		.loc 1 162 0
 500 000a 064B     		ldr	r3, .L25+4
 501 000c 064A     		ldr	r2, .L25+8
 502 000e 1188     		ldrh	r1, [r2]	@ unaligned
 503 0010 9278     		ldrb	r2, [r2, #2]
 504 0012 1980     		strh	r1, [r3]	@ unaligned
 505 0014 9A70     		strb	r2, [r3, #2]
 163:telit.c       ****     modem.modem_event=EVENT_REQUEST_MEID;
 506              		.loc 1 163 0
ARM GAS  C:\Users\bk\AppData\Local\Temp\ccq38zU3.s 			page 13


 507 0016 054B     		ldr	r3, .L25+12
 508 0018 0422     		movs	r2, #4
 509 001a 1A70     		strb	r2, [r3]
 164:telit.c       **** }
 510              		.loc 1 164 0
 511 001c 00BF     		nop
 512 001e 80BD     		pop	{r7, pc}
 513              	.L26:
 514              		.align	2
 515              	.L25:
 516 0020 08000000 		.word	.LC1
 517 0024 05000000 		.word	modem+5
 518 0028 14000000 		.word	.LC2
 519 002c 00000000 		.word	modem
 520              		.cfi_endproc
 521              	.LFE70:
 522              		.size	modem_scheduler_request_meid, .-modem_scheduler_request_meid
 523              		.section	.text.modem_scheduler_init_index,"ax",%progbits
 524              		.align	2
 525              		.global	modem_scheduler_init_index
 526              		.thumb
 527              		.thumb_func
 528              		.type	modem_scheduler_init_index, %function
 529              	modem_scheduler_init_index:
 530              	.LFB71:
 165:telit.c       **** 
 166:telit.c       **** void modem_scheduler_init_index(){
 531              		.loc 1 166 0
 532              		.cfi_startproc
 533              		@ args = 0, pretend = 0, frame = 0
 534              		@ frame_needed = 1, uses_anonymous_args = 0
 535 0000 80B5     		push	{r7, lr}
 536              		.cfi_def_cfa_offset 8
 537              		.cfi_offset 7, -8
 538              		.cfi_offset 14, -4
 539 0002 00AF     		add	r7, sp, #0
 540              		.cfi_def_cfa_register 7
 167:telit.c       ****     if(parse_meid(MEID)==1)modem_scheduler_socket_dial();
 541              		.loc 1 167 0
 542 0004 0648     		ldr	r0, .L31
 543 0006 FFF7FEFF 		bl	parse_meid
 544 000a 0346     		mov	r3, r0
 545 000c 012B     		cmp	r3, #1
 546 000e 02D1     		bne	.L28
 547              		.loc 1 167 0 is_stmt 0 discriminator 1
 548 0010 FFF7FEFF 		bl	modem_scheduler_socket_dial
 168:telit.c       ****     else modem_scheduler_request_meid();    
 169:telit.c       **** }
 549              		.loc 1 169 0 is_stmt 1 discriminator 1
 550 0014 01E0     		b	.L30
 551              	.L28:
 168:telit.c       ****     else modem_scheduler_request_meid();    
 552              		.loc 1 168 0
 553 0016 FFF7FEFF 		bl	modem_scheduler_request_meid
 554              	.L30:
 555              		.loc 1 169 0
 556 001a 00BF     		nop
ARM GAS  C:\Users\bk\AppData\Local\Temp\ccq38zU3.s 			page 14


 557 001c 80BD     		pop	{r7, pc}
 558              	.L32:
 559 001e 00BF     		.align	2
 560              	.L31:
 561 0020 00000000 		.word	MEID
 562              		.cfi_endproc
 563              	.LFE71:
 564              		.size	modem_scheduler_init_index, .-modem_scheduler_init_index
 565              		.section	.text.modem_check_device_index,"ax",%progbits
 566              		.align	2
 567              		.global	modem_check_device_index
 568              		.thumb
 569              		.thumb_func
 570              		.type	modem_check_device_index, %function
 571              	modem_check_device_index:
 572              	.LFB72:
 170:telit.c       **** 
 171:telit.c       **** void modem_check_device_index(){
 573              		.loc 1 171 0
 574              		.cfi_startproc
 575              		@ args = 0, pretend = 0, frame = 0
 576              		@ frame_needed = 1, uses_anonymous_args = 0
 577 0000 80B5     		push	{r7, lr}
 578              		.cfi_def_cfa_offset 8
 579              		.cfi_offset 7, -8
 580              		.cfi_offset 14, -4
 581 0002 00AF     		add	r7, sp, #0
 582              		.cfi_def_cfa_register 7
 172:telit.c       ****     modem.connection=1;
 583              		.loc 1 172 0
 584 0004 064B     		ldr	r3, .L37
 585 0006 0122     		movs	r2, #1
 586 0008 5A73     		strb	r2, [r3, #13]
 173:telit.c       ****     if(device_index[0]=='\0'){
 587              		.loc 1 173 0
 588 000a 064B     		ldr	r3, .L37+4
 589 000c 1B78     		ldrb	r3, [r3]	@ zero_extendqisi2
 590 000e 002B     		cmp	r3, #0
 591 0010 02D1     		bne	.L34
 174:telit.c       ****         modem_scheduler_request_meid();
 592              		.loc 1 174 0
 593 0012 FFF7FEFF 		bl	modem_scheduler_request_meid
 175:telit.c       ****     }
 176:telit.c       ****     else modem_scheduler_socket_dial();
 177:telit.c       **** }
 594              		.loc 1 177 0
 595 0016 01E0     		b	.L36
 596              	.L34:
 176:telit.c       **** }
 597              		.loc 1 176 0
 598 0018 FFF7FEFF 		bl	modem_scheduler_socket_dial
 599              	.L36:
 600              		.loc 1 177 0
 601 001c 00BF     		nop
 602 001e 80BD     		pop	{r7, pc}
 603              	.L38:
 604              		.align	2
ARM GAS  C:\Users\bk\AppData\Local\Temp\ccq38zU3.s 			page 15


 605              	.L37:
 606 0020 00000000 		.word	modem
 607 0024 00000000 		.word	device_index
 608              		.cfi_endproc
 609              	.LFE72:
 610              		.size	modem_check_device_index, .-modem_check_device_index
 611              		.section	.rodata
 612 0017 00       		.align	2
 613              	.LC3:
 614 0018 41542343 		.ascii	"AT#CCLK?\015\000"
 614      434C4B3F 
 614      0D00
 615              		.section	.text.modem_scheduler_request_time,"ax",%progbits
 616              		.align	2
 617              		.global	modem_scheduler_request_time
 618              		.thumb
 619              		.thumb_func
 620              		.type	modem_scheduler_request_time, %function
 621              	modem_scheduler_request_time:
 622              	.LFB73:
 178:telit.c       **** 
 179:telit.c       **** //
 180:telit.c       **** // #######################################
 181:telit.c       **** //
 182:telit.c       **** void modem_scheduler_request_time(){ 
 623              		.loc 1 182 0
 624              		.cfi_startproc
 625              		@ args = 0, pretend = 0, frame = 0
 626              		@ frame_needed = 1, uses_anonymous_args = 0
 627 0000 80B5     		push	{r7, lr}
 628              		.cfi_def_cfa_offset 8
 629              		.cfi_offset 7, -8
 630              		.cfi_offset 14, -4
 631 0002 00AF     		add	r7, sp, #0
 632              		.cfi_def_cfa_register 7
 183:telit.c       ****     modem_send_at_command("AT#CCLK?\r");
 633              		.loc 1 183 0
 634 0004 0648     		ldr	r0, .L40
 635 0006 FFF7FEFF 		bl	modem_send_at_command
 184:telit.c       ****     sprintf(modem.expected_response,"OK");
 636              		.loc 1 184 0
 637 000a 064B     		ldr	r3, .L40+4
 638 000c 064A     		ldr	r2, .L40+8
 639 000e 1188     		ldrh	r1, [r2]	@ unaligned
 640 0010 9278     		ldrb	r2, [r2, #2]
 641 0012 1980     		strh	r1, [r3]	@ unaligned
 642 0014 9A70     		strb	r2, [r3, #2]
 185:telit.c       ****     modem.modem_event=EVENT_REQUEST_TIME;
 643              		.loc 1 185 0
 644 0016 054B     		ldr	r3, .L40+12
 645 0018 0522     		movs	r2, #5
 646 001a 1A70     		strb	r2, [r3]
 186:telit.c       **** }
 647              		.loc 1 186 0
 648 001c 00BF     		nop
 649 001e 80BD     		pop	{r7, pc}
 650              	.L41:
ARM GAS  C:\Users\bk\AppData\Local\Temp\ccq38zU3.s 			page 16


 651              		.align	2
 652              	.L40:
 653 0020 18000000 		.word	.LC3
 654 0024 05000000 		.word	modem+5
 655 0028 14000000 		.word	.LC2
 656 002c 00000000 		.word	modem
 657              		.cfi_endproc
 658              	.LFE73:
 659              		.size	modem_scheduler_request_time, .-modem_scheduler_request_time
 660              		.section	.rodata
 661 0022 0000     		.align	2
 662              	.LC4:
 663 0024 41542B43 		.ascii	"AT+CGREG?\015\000"
 663      47524547 
 663      3F0D00
 664 002f 00       		.align	2
 665              	.LC5:
 666 0030 2C3100   		.ascii	",1\000"
 667              		.section	.text.modem_scheduler_check_network,"ax",%progbits
 668              		.align	2
 669              		.global	modem_scheduler_check_network
 670              		.thumb
 671              		.thumb_func
 672              		.type	modem_scheduler_check_network, %function
 673              	modem_scheduler_check_network:
 674              	.LFB74:
 187:telit.c       **** 
 188:telit.c       **** 
 189:telit.c       **** void modem_scheduler_check_network(){
 675              		.loc 1 189 0
 676              		.cfi_startproc
 677              		@ args = 0, pretend = 0, frame = 0
 678              		@ frame_needed = 1, uses_anonymous_args = 0
 679 0000 80B5     		push	{r7, lr}
 680              		.cfi_def_cfa_offset 8
 681              		.cfi_offset 7, -8
 682              		.cfi_offset 14, -4
 683 0002 00AF     		add	r7, sp, #0
 684              		.cfi_def_cfa_register 7
 190:telit.c       ****     modem_send_at_command("AT+CGREG?\r");
 685              		.loc 1 190 0
 686 0004 0648     		ldr	r0, .L43
 687 0006 FFF7FEFF 		bl	modem_send_at_command
 191:telit.c       ****     sprintf(modem.expected_response,",1");  
 688              		.loc 1 191 0
 689 000a 064B     		ldr	r3, .L43+4
 690 000c 064A     		ldr	r2, .L43+8
 691 000e 1188     		ldrh	r1, [r2]	@ unaligned
 692 0010 9278     		ldrb	r2, [r2, #2]
 693 0012 1980     		strh	r1, [r3]	@ unaligned
 694 0014 9A70     		strb	r2, [r3, #2]
 192:telit.c       ****     modem.modem_event=EVENT_CHECK_NETWORK;
 695              		.loc 1 192 0
 696 0016 054B     		ldr	r3, .L43+12
 697 0018 0122     		movs	r2, #1
 698 001a 1A70     		strb	r2, [r3]
 193:telit.c       **** }
ARM GAS  C:\Users\bk\AppData\Local\Temp\ccq38zU3.s 			page 17


 699              		.loc 1 193 0
 700 001c 00BF     		nop
 701 001e 80BD     		pop	{r7, pc}
 702              	.L44:
 703              		.align	2
 704              	.L43:
 705 0020 24000000 		.word	.LC4
 706 0024 05000000 		.word	modem+5
 707 0028 30000000 		.word	.LC5
 708 002c 00000000 		.word	modem
 709              		.cfi_endproc
 710              	.LFE74:
 711              		.size	modem_scheduler_check_network, .-modem_scheduler_check_network
 712              		.section	.rodata
 713 0033 00       		.align	2
 714              	.LC6:
 715 0034 41542353 		.ascii	"AT#SGACT?\015\000"
 715      47414354 
 715      3F0D00
 716              		.section	.text.modem_scheduler_check_PDP,"ax",%progbits
 717              		.align	2
 718              		.global	modem_scheduler_check_PDP
 719              		.thumb
 720              		.thumb_func
 721              		.type	modem_scheduler_check_PDP, %function
 722              	modem_scheduler_check_PDP:
 723              	.LFB75:
 194:telit.c       **** //
 195:telit.c       **** // #######################################
 196:telit.c       **** //
 197:telit.c       **** void modem_scheduler_check_PDP(){
 724              		.loc 1 197 0
 725              		.cfi_startproc
 726              		@ args = 0, pretend = 0, frame = 0
 727              		@ frame_needed = 1, uses_anonymous_args = 0
 728 0000 80B5     		push	{r7, lr}
 729              		.cfi_def_cfa_offset 8
 730              		.cfi_offset 7, -8
 731              		.cfi_offset 14, -4
 732 0002 00AF     		add	r7, sp, #0
 733              		.cfi_def_cfa_register 7
 198:telit.c       ****     modem_send_at_command("AT#SGACT?\r");
 734              		.loc 1 198 0
 735 0004 0648     		ldr	r0, .L46
 736 0006 FFF7FEFF 		bl	modem_send_at_command
 199:telit.c       ****     sprintf(modem.expected_response,",1");   
 737              		.loc 1 199 0
 738 000a 064B     		ldr	r3, .L46+4
 739 000c 064A     		ldr	r2, .L46+8
 740 000e 1188     		ldrh	r1, [r2]	@ unaligned
 741 0010 9278     		ldrb	r2, [r2, #2]
 742 0012 1980     		strh	r1, [r3]	@ unaligned
 743 0014 9A70     		strb	r2, [r3, #2]
 200:telit.c       ****     modem.modem_event=EVENT_CHECK_PDP;
 744              		.loc 1 200 0
 745 0016 054B     		ldr	r3, .L46+12
 746 0018 0222     		movs	r2, #2
ARM GAS  C:\Users\bk\AppData\Local\Temp\ccq38zU3.s 			page 18


 747 001a 1A70     		strb	r2, [r3]
 201:telit.c       **** }
 748              		.loc 1 201 0
 749 001c 00BF     		nop
 750 001e 80BD     		pop	{r7, pc}
 751              	.L47:
 752              		.align	2
 753              	.L46:
 754 0020 34000000 		.word	.LC6
 755 0024 05000000 		.word	modem+5
 756 0028 30000000 		.word	.LC5
 757 002c 00000000 		.word	modem
 758              		.cfi_endproc
 759              	.LFE75:
 760              		.size	modem_scheduler_check_PDP, .-modem_scheduler_check_PDP
 761              		.section	.rodata
 762 003f 00       		.align	2
 763              	.LC7:
 764 0040 41542353 		.ascii	"AT#SGACT=3,1\015\000"
 764      47414354 
 764      3D332C31 
 764      0D00
 765              		.section	.text.modem_scheduler_activate_PDP,"ax",%progbits
 766              		.align	2
 767              		.global	modem_scheduler_activate_PDP
 768              		.thumb
 769              		.thumb_func
 770              		.type	modem_scheduler_activate_PDP, %function
 771              	modem_scheduler_activate_PDP:
 772              	.LFB76:
 202:telit.c       **** 
 203:telit.c       **** void modem_scheduler_activate_PDP(){
 773              		.loc 1 203 0
 774              		.cfi_startproc
 775              		@ args = 0, pretend = 0, frame = 0
 776              		@ frame_needed = 1, uses_anonymous_args = 0
 777 0000 80B5     		push	{r7, lr}
 778              		.cfi_def_cfa_offset 8
 779              		.cfi_offset 7, -8
 780              		.cfi_offset 14, -4
 781 0002 00AF     		add	r7, sp, #0
 782              		.cfi_def_cfa_register 7
 204:telit.c       ****     modem_send_at_command("AT#SGACT=3,1\r");
 783              		.loc 1 204 0
 784 0004 0648     		ldr	r0, .L49
 785 0006 FFF7FEFF 		bl	modem_send_at_command
 205:telit.c       ****     sprintf(modem.expected_response,"OK"); 
 786              		.loc 1 205 0
 787 000a 064B     		ldr	r3, .L49+4
 788 000c 064A     		ldr	r2, .L49+8
 789 000e 1188     		ldrh	r1, [r2]	@ unaligned
 790 0010 9278     		ldrb	r2, [r2, #2]
 791 0012 1980     		strh	r1, [r3]	@ unaligned
 792 0014 9A70     		strb	r2, [r3, #2]
 206:telit.c       ****     modem.modem_event=EVENT_ACTIVATE_PDP;
 793              		.loc 1 206 0
 794 0016 054B     		ldr	r3, .L49+12
ARM GAS  C:\Users\bk\AppData\Local\Temp\ccq38zU3.s 			page 19


 795 0018 0322     		movs	r2, #3
 796 001a 1A70     		strb	r2, [r3]
 207:telit.c       **** }
 797              		.loc 1 207 0
 798 001c 00BF     		nop
 799 001e 80BD     		pop	{r7, pc}
 800              	.L50:
 801              		.align	2
 802              	.L49:
 803 0020 40000000 		.word	.LC7
 804 0024 05000000 		.word	modem+5
 805 0028 14000000 		.word	.LC2
 806 002c 00000000 		.word	modem
 807              		.cfi_endproc
 808              	.LFE76:
 809              		.size	modem_scheduler_activate_PDP, .-modem_scheduler_activate_PDP
 810              		.section	.rodata
 811 004e 0000     		.align	2
 812              	.LC8:
 813 0050 41542353 		.ascii	"AT#SD=3,0,%d,%s,0,0,1\015\000"
 813      443D332C 
 813      302C2564 
 813      2C25732C 
 813      302C302C 
 814              		.section	.text.modem_scheduler_socket_dial,"ax",%progbits
 815              		.align	2
 816              		.global	modem_scheduler_socket_dial
 817              		.thumb
 818              		.thumb_func
 819              		.type	modem_scheduler_socket_dial, %function
 820              	modem_scheduler_socket_dial:
 821              	.LFB77:
 208:telit.c       **** 
 209:telit.c       **** void modem_scheduler_socket_dial(){
 822              		.loc 1 209 0
 823              		.cfi_startproc
 824              		@ args = 0, pretend = 0, frame = 128
 825              		@ frame_needed = 1, uses_anonymous_args = 0
 826 0000 80B5     		push	{r7, lr}
 827              		.cfi_def_cfa_offset 8
 828              		.cfi_offset 7, -8
 829              		.cfi_offset 14, -4
 830 0002 A0B0     		sub	sp, sp, #128
 831              		.cfi_def_cfa_offset 136
 832 0004 00AF     		add	r7, sp, #0
 833              		.cfi_def_cfa_register 7
 210:telit.c       ****     /* if no averaged data are available to be sent, return directly*/
 211:telit.c       ****     /*if(avg_data_body.data_avg_status!=1){
 212:telit.c       ****         memset(uart_received_string,'\0',sizeof(uart_received_string));
 213:telit.c       ****         return;
 214:telit.c       ****     }poipoi*/
 215:telit.c       ****     char socket_dial_str[128];
 216:telit.c       ****     /* port and ip address are defined in data.c*/
 217:telit.c       ****     sprintf(socket_dial_str,"AT#SD=3,0,%d,%s,0,0,1\r",main_port,main_host);                    
 834              		.loc 1 217 0
 835 0006 0C4B     		ldr	r3, .L52
 836 0008 1B88     		ldrh	r3, [r3]
ARM GAS  C:\Users\bk\AppData\Local\Temp\ccq38zU3.s 			page 20


 837 000a 1A46     		mov	r2, r3
 838 000c 3846     		mov	r0, r7
 839 000e 0B4B     		ldr	r3, .L52+4
 840 0010 0B49     		ldr	r1, .L52+8
 841 0012 FFF7FEFF 		bl	sprintf
 218:telit.c       ****         modem_send_at_command(socket_dial_str); 
 842              		.loc 1 218 0
 843 0016 3B46     		mov	r3, r7
 844 0018 1846     		mov	r0, r3
 845 001a FFF7FEFF 		bl	modem_send_at_command
 219:telit.c       ****     sprintf(modem.expected_response,"OK");    
 846              		.loc 1 219 0
 847 001e 094B     		ldr	r3, .L52+12
 848 0020 094A     		ldr	r2, .L52+16
 849 0022 1188     		ldrh	r1, [r2]	@ unaligned
 850 0024 9278     		ldrb	r2, [r2, #2]
 851 0026 1980     		strh	r1, [r3]	@ unaligned
 852 0028 9A70     		strb	r2, [r3, #2]
 220:telit.c       ****     modem.modem_event=EVENT_OPEN_SOCKET;
 853              		.loc 1 220 0
 854 002a 084B     		ldr	r3, .L52+20
 855 002c 0722     		movs	r2, #7
 856 002e 1A70     		strb	r2, [r3]
 221:telit.c       **** }
 857              		.loc 1 221 0
 858 0030 00BF     		nop
 859 0032 8037     		adds	r7, r7, #128
 860              		.cfi_def_cfa_offset 8
 861 0034 BD46     		mov	sp, r7
 862              		.cfi_def_cfa_register 13
 863              		@ sp needed
 864 0036 80BD     		pop	{r7, pc}
 865              	.L53:
 866              		.align	2
 867              	.L52:
 868 0038 00000000 		.word	main_port
 869 003c 00000000 		.word	main_host
 870 0040 50000000 		.word	.LC8
 871 0044 05000000 		.word	modem+5
 872 0048 14000000 		.word	.LC2
 873 004c 00000000 		.word	modem
 874              		.cfi_endproc
 875              	.LFE77:
 876              		.size	modem_scheduler_socket_dial, .-modem_scheduler_socket_dial
 877              		.section	.rodata
 878 0067 00       		.align	2
 879              	.LC9:
 880 0068 41542353 		.ascii	"AT#SS=3\015\000"
 880      533D330D 
 880      00
 881              		.section	.text.modem_scheduler_socket_status,"ax",%progbits
 882              		.align	2
 883              		.global	modem_scheduler_socket_status
 884              		.thumb
 885              		.thumb_func
 886              		.type	modem_scheduler_socket_status, %function
 887              	modem_scheduler_socket_status:
ARM GAS  C:\Users\bk\AppData\Local\Temp\ccq38zU3.s 			page 21


 888              	.LFB78:
 222:telit.c       **** 
 223:telit.c       **** void modem_scheduler_socket_status(){
 889              		.loc 1 223 0
 890              		.cfi_startproc
 891              		@ args = 0, pretend = 0, frame = 0
 892              		@ frame_needed = 1, uses_anonymous_args = 0
 893 0000 80B5     		push	{r7, lr}
 894              		.cfi_def_cfa_offset 8
 895              		.cfi_offset 7, -8
 896              		.cfi_offset 14, -4
 897 0002 00AF     		add	r7, sp, #0
 898              		.cfi_def_cfa_register 7
 224:telit.c       ****     modem_send_at_command("AT#SS=3\r");
 899              		.loc 1 224 0
 900 0004 0648     		ldr	r0, .L55
 901 0006 FFF7FEFF 		bl	modem_send_at_command
 225:telit.c       ****     sprintf(modem.expected_response,"OK");
 902              		.loc 1 225 0
 903 000a 064B     		ldr	r3, .L55+4
 904 000c 064A     		ldr	r2, .L55+8
 905 000e 1188     		ldrh	r1, [r2]	@ unaligned
 906 0010 9278     		ldrb	r2, [r2, #2]
 907 0012 1980     		strh	r1, [r3]	@ unaligned
 908 0014 9A70     		strb	r2, [r3, #2]
 226:telit.c       ****     modem.modem_event=EVENT_REQUEST_SOCKET_STATUS;
 909              		.loc 1 226 0
 910 0016 054B     		ldr	r3, .L55+12
 911 0018 0822     		movs	r2, #8
 912 001a 1A70     		strb	r2, [r3]
 227:telit.c       **** }
 913              		.loc 1 227 0
 914 001c 00BF     		nop
 915 001e 80BD     		pop	{r7, pc}
 916              	.L56:
 917              		.align	2
 918              	.L55:
 919 0020 68000000 		.word	.LC9
 920 0024 05000000 		.word	modem+5
 921 0028 14000000 		.word	.LC2
 922 002c 00000000 		.word	modem
 923              		.cfi_endproc
 924              	.LFE78:
 925              		.size	modem_scheduler_socket_status, .-modem_scheduler_socket_status
 926              		.section	.rodata
 927 0071 000000   		.align	2
 928              	.LC10:
 929 0074 2353533A 		.ascii	"#SS: 3,\000"
 929      20332C00 
 930              		.section	.text.parse_socket_status,"ax",%progbits
 931              		.align	2
 932              		.global	parse_socket_status
 933              		.thumb
 934              		.thumb_func
 935              		.type	parse_socket_status, %function
 936              	parse_socket_status:
 937              	.LFB79:
ARM GAS  C:\Users\bk\AppData\Local\Temp\ccq38zU3.s 			page 22


 228:telit.c       **** 
 229:telit.c       **** void parse_socket_status(){
 938              		.loc 1 229 0
 939              		.cfi_startproc
 940              		@ args = 0, pretend = 0, frame = 8
 941              		@ frame_needed = 1, uses_anonymous_args = 0
 942 0000 80B5     		push	{r7, lr}
 943              		.cfi_def_cfa_offset 8
 944              		.cfi_offset 7, -8
 945              		.cfi_offset 14, -4
 946 0002 82B0     		sub	sp, sp, #8
 947              		.cfi_def_cfa_offset 16
 948 0004 00AF     		add	r7, sp, #0
 949              		.cfi_def_cfa_register 7
 230:telit.c       ****     modem.modem_event=EVENT_PARSE_SOCKET_STATUS;
 950              		.loc 1 230 0
 951 0006 114B     		ldr	r3, .L61
 952 0008 0922     		movs	r2, #9
 953 000a 1A70     		strb	r2, [r3]
 231:telit.c       ****     char *a;
 232:telit.c       ****     uint8_t ss;    
 233:telit.c       ****     // Expect the UART to contain something like "\r\n#SS: 1,0\r\n"
 234:telit.c       ****     // - Search for "#SS:".  Place the starting pointer, a, at the resulting index
 235:telit.c       ****     a = strstr(uart_received_string,"#SS: 3,");
 954              		.loc 1 235 0
 955 000c 1049     		ldr	r1, .L61+4
 956 000e 1148     		ldr	r0, .L61+8
 957 0010 FFF7FEFF 		bl	strstr
 958 0014 7860     		str	r0, [r7, #4]
 236:telit.c       ****     if (a == NULL) {
 959              		.loc 1 236 0
 960 0016 7B68     		ldr	r3, [r7, #4]
 961 0018 002B     		cmp	r3, #0
 962 001a 03D1     		bne	.L58
 237:telit.c       ****         modem.modem_state=STATE_ECHO_TIMEOUT;
 963              		.loc 1 237 0
 964 001c 0B4B     		ldr	r3, .L61
 965 001e 0322     		movs	r2, #3
 966 0020 5A70     		strb	r2, [r3, #1]
 238:telit.c       ****         return;
 967              		.loc 1 238 0
 968 0022 0FE0     		b	.L57
 969              	.L58:
 239:telit.c       ****     }
 240:telit.c       ****     a += strlen("#SS: 3,");
 970              		.loc 1 240 0
 971 0024 7B68     		ldr	r3, [r7, #4]
 972 0026 0733     		adds	r3, r3, #7
 973 0028 7B60     		str	r3, [r7, #4]
 241:telit.c       **** 
 242:telit.c       ****     ss = *a-'0';
 974              		.loc 1 242 0
 975 002a 7B68     		ldr	r3, [r7, #4]
 976 002c 1B78     		ldrb	r3, [r3]	@ zero_extendqisi2
 977 002e 303B     		subs	r3, r3, #48
 978 0030 FB70     		strb	r3, [r7, #3]
 243:telit.c       ****     if(ss!=2)modem.modem_state=STATE_ECHO_TIMEOUT;
ARM GAS  C:\Users\bk\AppData\Local\Temp\ccq38zU3.s 			page 23


 979              		.loc 1 243 0
 980 0032 FB78     		ldrb	r3, [r7, #3]	@ zero_extendqisi2
 981 0034 022B     		cmp	r3, #2
 982 0036 02D0     		beq	.L60
 983              		.loc 1 243 0 is_stmt 0 discriminator 1
 984 0038 044B     		ldr	r3, .L61
 985 003a 0322     		movs	r2, #3
 986 003c 5A70     		strb	r2, [r3, #1]
 987              	.L60:
 244:telit.c       ****     modem.modem_state=STATE_ECHO_CORRECT;
 988              		.loc 1 244 0 is_stmt 1
 989 003e 034B     		ldr	r3, .L61
 990 0040 0122     		movs	r2, #1
 991 0042 5A70     		strb	r2, [r3, #1]
 992              	.L57:
 245:telit.c       **** }
 993              		.loc 1 245 0
 994 0044 0837     		adds	r7, r7, #8
 995              		.cfi_def_cfa_offset 8
 996 0046 BD46     		mov	sp, r7
 997              		.cfi_def_cfa_register 13
 998              		@ sp needed
 999 0048 80BD     		pop	{r7, pc}
 1000              	.L62:
 1001 004a 00BF     		.align	2
 1002              	.L61:
 1003 004c 00000000 		.word	modem
 1004 0050 74000000 		.word	.LC10
 1005 0054 00000000 		.word	uart_received_string
 1006              		.cfi_endproc
 1007              	.LFE79:
 1008              		.size	parse_socket_status, .-parse_socket_status
 1009              		.section	.rodata
 1010              		.align	2
 1011              	.LC11:
 1012 007c 41542353 		.ascii	"AT#SSEND=3\015\000"
 1012      53454E44 
 1012      3D330D00 
 1013              		.align	2
 1014              	.LC12:
 1015 0088 3E00     		.ascii	">\000"
 1016              		.section	.text.modem_scheduler_init_send,"ax",%progbits
 1017              		.align	2
 1018              		.global	modem_scheduler_init_send
 1019              		.thumb
 1020              		.thumb_func
 1021              		.type	modem_scheduler_init_send, %function
 1022              	modem_scheduler_init_send:
 1023              	.LFB80:
 246:telit.c       **** 
 247:telit.c       **** void modem_scheduler_init_send(){    
 1024              		.loc 1 247 0
 1025              		.cfi_startproc
 1026              		@ args = 0, pretend = 0, frame = 0
 1027              		@ frame_needed = 1, uses_anonymous_args = 0
 1028 0000 80B5     		push	{r7, lr}
 1029              		.cfi_def_cfa_offset 8
ARM GAS  C:\Users\bk\AppData\Local\Temp\ccq38zU3.s 			page 24


 1030              		.cfi_offset 7, -8
 1031              		.cfi_offset 14, -4
 1032 0002 00AF     		add	r7, sp, #0
 1033              		.cfi_def_cfa_register 7
 248:telit.c       ****     modem_send_at_command("AT#SSEND=3\r");
 1034              		.loc 1 248 0
 1035 0004 0548     		ldr	r0, .L64
 1036 0006 FFF7FEFF 		bl	modem_send_at_command
 249:telit.c       ****     sprintf(modem.expected_response,">");
 1037              		.loc 1 249 0
 1038 000a 054A     		ldr	r2, .L64+4
 1039 000c 054B     		ldr	r3, .L64+8
 1040 000e 1B88     		ldrh	r3, [r3]	@ unaligned
 1041 0010 1380     		strh	r3, [r2]	@ unaligned
 250:telit.c       ****     modem.modem_event=EVENT_INIT_SEND;
 1042              		.loc 1 250 0
 1043 0012 054B     		ldr	r3, .L64+12
 1044 0014 0A22     		movs	r2, #10
 1045 0016 1A70     		strb	r2, [r3]
 251:telit.c       **** }
 1046              		.loc 1 251 0
 1047 0018 00BF     		nop
 1048 001a 80BD     		pop	{r7, pc}
 1049              	.L65:
 1050              		.align	2
 1051              	.L64:
 1052 001c 7C000000 		.word	.LC11
 1053 0020 05000000 		.word	modem+5
 1054 0024 88000000 		.word	.LC12
 1055 0028 00000000 		.word	modem
 1056              		.cfi_endproc
 1057              	.LFE80:
 1058              		.size	modem_scheduler_init_send, .-modem_scheduler_init_send
 1059              		.section	.rodata
 1060 008a 0000     		.align	2
 1061              	.LC13:
 1062 008c 71756572 		.ascii	"query?db=%s&q=SELECT index from device where MEID='"
 1062      793F6462 
 1062      3D257326 
 1062      713D5345 
 1062      4C454354 
 1063 00bf 25732700 		.ascii	"%s'\000"
 1064 00c3 00       		.align	2
 1065              	.LC14:
 1066 00c4 00       		.ascii	"\000"
 1067 00c5 000000   		.align	2
 1068              	.LC15:
 1069 00c8 312E3100 		.ascii	"1.1\000"
 1070              		.align	2
 1071              	.LC16:
 1072 00cc 436C6F73 		.ascii	"Close\000"
 1072      6500
 1073 00d2 0000     		.align	2
 1074              	.LC17:
 1075 00d4 47455400 		.ascii	"GET\000"
 1076              		.align	2
 1077              	.LC18:
ARM GAS  C:\Users\bk\AppData\Local\Temp\ccq38zU3.s 			page 25


 1078 00d8 77726974 		.ascii	"write?db=%s\000"
 1078      653F6462 
 1078      3D257300 
 1079              		.align	2
 1080              	.LC19:
 1081 00e4 504F5354 		.ascii	"POST\000"
 1081      00
 1082 00e9 000000   		.align	2
 1083              	.LC20:
 1084 00ec 5352494E 		.ascii	"SRING: 1\000"
 1084      473A2031 
 1084      00
 1085              		.section	.text.modem_scheduler_send_message,"ax",%progbits
 1086              		.align	2
 1087              		.global	modem_scheduler_send_message
 1088              		.thumb
 1089              		.thumb_func
 1090              		.type	modem_scheduler_send_message, %function
 1091              	modem_scheduler_send_message:
 1092              	.LFB81:
 252:telit.c       **** 
 253:telit.c       **** void modem_scheduler_send_message(){
 1093              		.loc 1 253 0
 1094              		.cfi_startproc
 1095              		@ args = 0, pretend = 0, frame = 2088
 1096              		@ frame_needed = 1, uses_anonymous_args = 0
 1097 0000 90B5     		push	{r4, r7, lr}
 1098              		.cfi_def_cfa_offset 12
 1099              		.cfi_offset 4, -12
 1100              		.cfi_offset 7, -8
 1101              		.cfi_offset 14, -4
 1102 0002 ADF6440D 		subw	sp, sp, #2116
 1103              		.cfi_def_cfa_offset 2128
 1104 0006 06AF     		add	r7, sp, #24
 1105              		.cfi_def_cfa 7, 2104
 254:telit.c       ****     char send_str[1024]={'\0'};
 1106              		.loc 1 254 0
 1107 0008 07F22443 		addw	r3, r7, #1060
 1108 000c 1846     		mov	r0, r3
 1109 000e 4FF48063 		mov	r3, #1024
 1110 0012 1A46     		mov	r2, r3
 1111 0014 0021     		movs	r1, #0
 1112 0016 FFF7FEFF 		bl	memset
 255:telit.c       ****     
 256:telit.c       ****     /*this message is to get device index*/
 257:telit.c       ****     if(device_index[0]=='\0'){        
 1113              		.loc 1 257 0
 1114 001a 394B     		ldr	r3, .L69
 1115 001c 1B78     		ldrb	r3, [r3]	@ zero_extendqisi2
 1116 001e 002B     		cmp	r3, #0
 1117 0020 2CD1     		bne	.L67
 1118              	.LBB2:
 258:telit.c       ****         char main_query[128]={'\0'};
 1119              		.loc 1 258 0
 1120 0022 07F12403 		add	r3, r7, #36
 1121 0026 1846     		mov	r0, r3
 1122 0028 8023     		movs	r3, #128
ARM GAS  C:\Users\bk\AppData\Local\Temp\ccq38zU3.s 			page 26


 1123 002a 1A46     		mov	r2, r3
 1124 002c 0021     		movs	r1, #0
 1125 002e FFF7FEFF 		bl	memset
 259:telit.c       ****         sprintf(main_query,"query?db=%s&q="
 1126              		.loc 1 259 0
 1127 0032 07F12400 		add	r0, r7, #36
 1128 0036 334B     		ldr	r3, .L69+4
 1129 0038 334A     		ldr	r2, .L69+8
 1130 003a 3449     		ldr	r1, .L69+12
 1131 003c FFF7FEFF 		bl	sprintf
 260:telit.c       ****                 "SELECT index from device where MEID=\'%s\'",database,MEID);
 261:telit.c       ****         char *query_encoded=url_encode(main_query);
 1132              		.loc 1 261 0
 1133 0040 07F12403 		add	r3, r7, #36
 1134 0044 1846     		mov	r0, r3
 1135 0046 FFF7FEFF 		bl	url_encode
 1136 004a C7F82408 		str	r0, [r7, #2084]
 262:telit.c       ****         construct_generic_request(send_str,"",main_host,query_encoded,main_port,
 1137              		.loc 1 262 0
 1138 004e 304B     		ldr	r3, .L69+16
 1139 0050 1B88     		ldrh	r3, [r3]
 1140 0052 1A46     		mov	r2, r3
 1141 0054 07F22440 		addw	r0, r7, #1060
 1142 0058 2E4B     		ldr	r3, .L69+20
 1143 005a 0593     		str	r3, [sp, #20]
 1144 005c 0023     		movs	r3, #0
 1145 005e 0493     		str	r3, [sp, #16]
 1146 0060 2D4B     		ldr	r3, .L69+24
 1147 0062 0393     		str	r3, [sp, #12]
 1148 0064 2D4B     		ldr	r3, .L69+28
 1149 0066 0293     		str	r3, [sp, #8]
 1150 0068 2D4B     		ldr	r3, .L69+32
 1151 006a 0193     		str	r3, [sp, #4]
 1152 006c 0092     		str	r2, [sp]
 1153 006e D7F82438 		ldr	r3, [r7, #2084]
 1154 0072 2C4A     		ldr	r2, .L69+36
 1155 0074 2849     		ldr	r1, .L69+24
 1156 0076 FFF7FEFF 		bl	construct_generic_request
 1157              	.LBE2:
 1158 007a 2CE0     		b	.L68
 1159              	.L67:
 1160              	.LBB3:
 263:telit.c       ****             "GET","Close","",0,"1.1");  
 264:telit.c       ****     }
 265:telit.c       ****     else {
 266:telit.c       ****         char body[1024]={'\0'};
 1161              		.loc 1 266 0
 1162 007c 07F12403 		add	r3, r7, #36
 1163 0080 1846     		mov	r0, r3
 1164 0082 4FF48063 		mov	r3, #1024
 1165 0086 1A46     		mov	r2, r3
 1166 0088 0021     		movs	r1, #0
 1167 008a FFF7FEFF 		bl	memset
 267:telit.c       ****         char write_route[32]={'\0'};
 1168              		.loc 1 267 0
 1169 008e 3B1D     		adds	r3, r7, #4
 1170 0090 1846     		mov	r0, r3
ARM GAS  C:\Users\bk\AppData\Local\Temp\ccq38zU3.s 			page 27


 1171 0092 2023     		movs	r3, #32
 1172 0094 1A46     		mov	r2, r3
 1173 0096 0021     		movs	r1, #0
 1174 0098 FFF7FEFF 		bl	memset
 268:telit.c       ****         sprintf(write_route,"write?db=%s",database);    
 1175              		.loc 1 268 0
 1176 009c 3B1D     		adds	r3, r7, #4
 1177 009e 1A4A     		ldr	r2, .L69+8
 1178 00a0 2149     		ldr	r1, .L69+40
 1179 00a2 1846     		mov	r0, r3
 1180 00a4 FFF7FEFF 		bl	sprintf
 269:telit.c       ****         construct_generic_request(send_str,body,main_host,write_route,main_port,
 1181              		.loc 1 269 0
 1182 00a8 194B     		ldr	r3, .L69+16
 1183 00aa 1B88     		ldrh	r3, [r3]
 1184 00ac 1C46     		mov	r4, r3
 1185 00ae 3A1D     		adds	r2, r7, #4
 1186 00b0 07F12401 		add	r1, r7, #36
 1187 00b4 07F22440 		addw	r0, r7, #1060
 1188 00b8 164B     		ldr	r3, .L69+20
 1189 00ba 0593     		str	r3, [sp, #20]
 1190 00bc 0023     		movs	r3, #0
 1191 00be 0493     		str	r3, [sp, #16]
 1192 00c0 154B     		ldr	r3, .L69+24
 1193 00c2 0393     		str	r3, [sp, #12]
 1194 00c4 154B     		ldr	r3, .L69+28
 1195 00c6 0293     		str	r3, [sp, #8]
 1196 00c8 184B     		ldr	r3, .L69+44
 1197 00ca 0193     		str	r3, [sp, #4]
 1198 00cc 0094     		str	r4, [sp]
 1199 00ce 1346     		mov	r3, r2
 1200 00d0 144A     		ldr	r2, .L69+36
 1201 00d2 FFF7FEFF 		bl	construct_generic_request
 1202              	.L68:
 1203              	.LBE3:
 270:telit.c       ****             "POST","Close","",0,"1.1");
 271:telit.c       ****         //avg_data_body.data_avg_status=0;        
 272:telit.c       ****     }
 273:telit.c       ****     sprintf(modem.expected_response,"SRING: 1");
 1204              		.loc 1 273 0
 1205 00d6 164A     		ldr	r2, .L69+48
 1206 00d8 164B     		ldr	r3, .L69+52
 1207 00da 03CB     		ldmia	r3!, {r0, r1}
 1208 00dc 1060     		str	r0, [r2]	@ unaligned
 1209 00de 5160     		str	r1, [r2, #4]	@ unaligned
 1210 00e0 1B78     		ldrb	r3, [r3]
 1211 00e2 1372     		strb	r3, [r2, #8]
 274:telit.c       ****     modem_send_at_command(send_str);    
 1212              		.loc 1 274 0
 1213 00e4 07F22443 		addw	r3, r7, #1060
 1214 00e8 1846     		mov	r0, r3
 1215 00ea FFF7FEFF 		bl	modem_send_at_command
 275:telit.c       ****     modem.modem_event=EVENT_SEND_MESSAGE;    
 1216              		.loc 1 275 0
 1217 00ee 124B     		ldr	r3, .L69+56
 1218 00f0 0B22     		movs	r2, #11
 1219 00f2 1A70     		strb	r2, [r3]
ARM GAS  C:\Users\bk\AppData\Local\Temp\ccq38zU3.s 			page 28


 276:telit.c       **** }
 1220              		.loc 1 276 0
 1221 00f4 00BF     		nop
 1222 00f6 07F62C07 		addw	r7, r7, #2092
 1223              		.cfi_def_cfa_offset 12
 1224 00fa BD46     		mov	sp, r7
 1225              		.cfi_def_cfa_register 13
 1226              		@ sp needed
 1227 00fc 90BD     		pop	{r4, r7, pc}
 1228              	.L70:
 1229 00fe 00BF     		.align	2
 1230              	.L69:
 1231 0100 00000000 		.word	device_index
 1232 0104 00000000 		.word	MEID
 1233 0108 00000000 		.word	database
 1234 010c 8C000000 		.word	.LC13
 1235 0110 00000000 		.word	main_port
 1236 0114 C8000000 		.word	.LC15
 1237 0118 C4000000 		.word	.LC14
 1238 011c CC000000 		.word	.LC16
 1239 0120 D4000000 		.word	.LC17
 1240 0124 00000000 		.word	main_host
 1241 0128 D8000000 		.word	.LC18
 1242 012c E4000000 		.word	.LC19
 1243 0130 05000000 		.word	modem+5
 1244 0134 EC000000 		.word	.LC20
 1245 0138 00000000 		.word	modem
 1246              		.cfi_endproc
 1247              	.LFE81:
 1248              		.size	modem_scheduler_send_message, .-modem_scheduler_send_message
 1249              		.section	.rodata
 1250 00f5 000000   		.align	2
 1251              	.LC21:
 1252 00f8 41542353 		.ascii	"AT#SRECV=3,1500\015\000"
 1252      52454356 
 1252      3D332C31 
 1252      3530300D 
 1252      00
 1253 0109 000000   		.align	2
 1254              	.LC22:
 1255 010c 76616C75 		.ascii	"values\000"
 1255      657300
 1256              		.section	.text.modem_scheduler_receive_send_echo,"ax",%progbits
 1257              		.align	2
 1258              		.global	modem_scheduler_receive_send_echo
 1259              		.thumb
 1260              		.thumb_func
 1261              		.type	modem_scheduler_receive_send_echo, %function
 1262              	modem_scheduler_receive_send_echo:
 1263              	.LFB82:
 277:telit.c       **** 
 278:telit.c       **** void modem_scheduler_receive_send_echo(){
 1264              		.loc 1 278 0
 1265              		.cfi_startproc
 1266              		@ args = 0, pretend = 0, frame = 0
 1267              		@ frame_needed = 1, uses_anonymous_args = 0
 1268 0000 80B5     		push	{r7, lr}
ARM GAS  C:\Users\bk\AppData\Local\Temp\ccq38zU3.s 			page 29


 1269              		.cfi_def_cfa_offset 8
 1270              		.cfi_offset 7, -8
 1271              		.cfi_offset 14, -4
 1272 0002 00AF     		add	r7, sp, #0
 1273              		.cfi_def_cfa_register 7
 279:telit.c       ****     modem_send_at_command("AT#SRECV=3,1500\r");
 1274              		.loc 1 279 0
 1275 0004 0D48     		ldr	r0, .L74
 1276 0006 FFF7FEFF 		bl	modem_send_at_command
 280:telit.c       ****     if(device_index[0]=='\0') sprintf(modem.expected_response,"values");
 1277              		.loc 1 280 0
 1278 000a 0D4B     		ldr	r3, .L74+4
 1279 000c 1B78     		ldrb	r3, [r3]	@ zero_extendqisi2
 1280 000e 002B     		cmp	r3, #0
 1281 0010 08D1     		bne	.L72
 1282              		.loc 1 280 0 is_stmt 0 discriminator 1
 1283 0012 0C4B     		ldr	r3, .L74+8
 1284 0014 0C4A     		ldr	r2, .L74+12
 1285 0016 1068     		ldr	r0, [r2]	@ unaligned
 1286 0018 1860     		str	r0, [r3]	@ unaligned
 1287 001a 9188     		ldrh	r1, [r2, #4]	@ unaligned
 1288 001c 9279     		ldrb	r2, [r2, #6]
 1289 001e 9980     		strh	r1, [r3, #4]	@ unaligned
 1290 0020 9A71     		strb	r2, [r3, #6]
 1291 0022 05E0     		b	.L73
 1292              	.L72:
 281:telit.c       ****     else sprintf(modem.expected_response,"OK");
 1293              		.loc 1 281 0 is_stmt 1
 1294 0024 074B     		ldr	r3, .L74+8
 1295 0026 094A     		ldr	r2, .L74+16
 1296 0028 1188     		ldrh	r1, [r2]	@ unaligned
 1297 002a 9278     		ldrb	r2, [r2, #2]
 1298 002c 1980     		strh	r1, [r3]	@ unaligned
 1299 002e 9A70     		strb	r2, [r3, #2]
 1300              	.L73:
 282:telit.c       ****     modem.modem_event=EVENT_RECEIVE_MESSAGE;
 1301              		.loc 1 282 0
 1302 0030 074B     		ldr	r3, .L74+20
 1303 0032 0C22     		movs	r2, #12
 1304 0034 1A70     		strb	r2, [r3]
 283:telit.c       **** }
 1305              		.loc 1 283 0
 1306 0036 00BF     		nop
 1307 0038 80BD     		pop	{r7, pc}
 1308              	.L75:
 1309 003a 00BF     		.align	2
 1310              	.L74:
 1311 003c F8000000 		.word	.LC21
 1312 0040 00000000 		.word	device_index
 1313 0044 05000000 		.word	modem+5
 1314 0048 0C010000 		.word	.LC22
 1315 004c 14000000 		.word	.LC2
 1316 0050 00000000 		.word	modem
 1317              		.cfi_endproc
 1318              	.LFE82:
 1319              		.size	modem_scheduler_receive_send_echo, .-modem_scheduler_receive_send_echo
 1320              		.section	.rodata
ARM GAS  C:\Users\bk\AppData\Local\Temp\ccq38zU3.s 			page 30


 1321 0113 00       		.align	2
 1322              	.LC23:
 1323 0114 5D5D00   		.ascii	"]]\000"
 1324              		.section	.text.modem_scheduler_parse_http_response,"ax",%progbits
 1325              		.align	2
 1326              		.global	modem_scheduler_parse_http_response
 1327              		.thumb
 1328              		.thumb_func
 1329              		.type	modem_scheduler_parse_http_response, %function
 1330              	modem_scheduler_parse_http_response:
 1331              	.LFB83:
 284:telit.c       **** 
 285:telit.c       **** void modem_scheduler_parse_http_response(){
 1332              		.loc 1 285 0
 1333              		.cfi_startproc
 1334              		@ args = 0, pretend = 0, frame = 16
 1335              		@ frame_needed = 1, uses_anonymous_args = 0
 1336 0000 80B5     		push	{r7, lr}
 1337              		.cfi_def_cfa_offset 8
 1338              		.cfi_offset 7, -8
 1339              		.cfi_offset 14, -4
 1340 0002 84B0     		sub	sp, sp, #16
 1341              		.cfi_def_cfa_offset 24
 1342 0004 00AF     		add	r7, sp, #0
 1343              		.cfi_def_cfa_register 7
 286:telit.c       ****     modem.modem_event=EVENT_PARSE_MESSAGE;
 1344              		.loc 1 286 0
 1345 0006 294B     		ldr	r3, .L83
 1346 0008 0D22     		movs	r2, #13
 1347 000a 1A70     		strb	r2, [r3]
 287:telit.c       ****     if(device_index[0]=='\0'){
 1348              		.loc 1 287 0
 1349 000c 284B     		ldr	r3, .L83+4
 1350 000e 1B78     		ldrb	r3, [r3]	@ zero_extendqisi2
 1351 0010 002B     		cmp	r3, #0
 1352 0012 22D1     		bne	.L77
 1353              	.LBB4:
 288:telit.c       ****         char * pend=strstr(uart_received_string,"]]"),*pstart=pend;
 1354              		.loc 1 288 0
 1355 0014 2749     		ldr	r1, .L83+8
 1356 0016 2848     		ldr	r0, .L83+12
 1357 0018 FFF7FEFF 		bl	strstr
 1358 001c B860     		str	r0, [r7, #8]
 1359 001e BB68     		ldr	r3, [r7, #8]
 1360 0020 FB60     		str	r3, [r7, #12]
 289:telit.c       ****         while(*pstart!=',')pstart--;            
 1361              		.loc 1 289 0
 1362 0022 02E0     		b	.L78
 1363              	.L79:
 1364              		.loc 1 289 0 is_stmt 0 discriminator 2
 1365 0024 FB68     		ldr	r3, [r7, #12]
 1366 0026 013B     		subs	r3, r3, #1
 1367 0028 FB60     		str	r3, [r7, #12]
 1368              	.L78:
 1369              		.loc 1 289 0 discriminator 1
 1370 002a FB68     		ldr	r3, [r7, #12]
 1371 002c 1B78     		ldrb	r3, [r3]	@ zero_extendqisi2
ARM GAS  C:\Users\bk\AppData\Local\Temp\ccq38zU3.s 			page 31


 1372 002e 2C2B     		cmp	r3, #44
 1373 0030 F8D1     		bne	.L79
 290:telit.c       ****         pstart++;
 1374              		.loc 1 290 0 is_stmt 1
 1375 0032 FB68     		ldr	r3, [r7, #12]
 1376 0034 0133     		adds	r3, r3, #1
 1377 0036 FB60     		str	r3, [r7, #12]
 291:telit.c       ****         *pend='\0';            
 1378              		.loc 1 291 0
 1379 0038 BB68     		ldr	r3, [r7, #8]
 1380 003a 0022     		movs	r2, #0
 1381 003c 1A70     		strb	r2, [r3]
 292:telit.c       ****         sprintf(device_index,"%s",pstart);
 1382              		.loc 1 292 0
 1383 003e F968     		ldr	r1, [r7, #12]
 1384 0040 1B48     		ldr	r0, .L83+4
 1385 0042 FFF7FEFF 		bl	strcpy
 293:telit.c       ****         modem.modem_state=STATE_ECHO_CORRECT;
 1386              		.loc 1 293 0
 1387 0046 194B     		ldr	r3, .L83
 1388 0048 0122     		movs	r2, #1
 1389 004a 5A70     		strb	r2, [r3, #1]
 294:telit.c       ****         memset(uart_received_string,'\0',sizeof(uart_received_string));
 1390              		.loc 1 294 0
 1391 004c 4FF48062 		mov	r2, #1024
 1392 0050 0021     		movs	r1, #0
 1393 0052 1948     		ldr	r0, .L83+12
 1394 0054 FFF7FEFF 		bl	memset
 295:telit.c       ****         return;
 1395              		.loc 1 295 0
 1396 0058 25E0     		b	.L76
 1397              	.L77:
 1398              	.LBE4:
 296:telit.c       ****     }
 297:telit.c       ****       
 298:telit.c       ****     char status_code[5]={'\0'};
 1399              		.loc 1 298 0
 1400 005a 3B46     		mov	r3, r7
 1401 005c 0022     		movs	r2, #0
 1402 005e 1A60     		str	r2, [r3]
 1403 0060 1A71     		strb	r2, [r3, #4]
 299:telit.c       ****     parse_http_status(uart_received_string, (char*) NULL, status_code, (char*) NULL);
 1404              		.loc 1 299 0
 1405 0062 3A46     		mov	r2, r7
 1406 0064 0023     		movs	r3, #0
 1407 0066 0021     		movs	r1, #0
 1408 0068 1348     		ldr	r0, .L83+12
 1409 006a FFF7FEFF 		bl	parse_http_status
 300:telit.c       ****     if(status_code[0]!='2'){
 1410              		.loc 1 300 0
 1411 006e 3B78     		ldrb	r3, [r7]	@ zero_extendqisi2
 1412 0070 322B     		cmp	r3, #50
 1413 0072 0FD0     		beq	.L81
 301:telit.c       ****         modem.transaction_error_counter++; 
 1414              		.loc 1 301 0
 1415 0074 0D4B     		ldr	r3, .L83
 1416 0076 1B79     		ldrb	r3, [r3, #4]	@ zero_extendqisi2
ARM GAS  C:\Users\bk\AppData\Local\Temp\ccq38zU3.s 			page 32


 1417 0078 0133     		adds	r3, r3, #1
 1418 007a DAB2     		uxtb	r2, r3
 1419 007c 0B4B     		ldr	r3, .L83
 1420 007e 1A71     		strb	r2, [r3, #4]
 302:telit.c       ****         if(modem.transaction_error_counter>=3){
 1421              		.loc 1 302 0
 1422 0080 0A4B     		ldr	r3, .L83
 1423 0082 1B79     		ldrb	r3, [r3, #4]	@ zero_extendqisi2
 1424 0084 022B     		cmp	r3, #2
 1425 0086 05D9     		bls	.L81
 303:telit.c       ****             modem.transaction_error_counter=0;
 1426              		.loc 1 303 0
 1427 0088 084B     		ldr	r3, .L83
 1428 008a 0022     		movs	r2, #0
 1429 008c 1A71     		strb	r2, [r3, #4]
 304:telit.c       ****             modem.modem_event=EVENT_CHECK_UART;/* check network again*/
 1430              		.loc 1 304 0
 1431 008e 074B     		ldr	r3, .L83
 1432 0090 0022     		movs	r2, #0
 1433 0092 1A70     		strb	r2, [r3]
 1434              	.L81:
 305:telit.c       ****         }
 306:telit.c       ****     }
 307:telit.c       ****     modem.modem_state=STATE_ECHO_CORRECT;
 1435              		.loc 1 307 0
 1436 0094 054B     		ldr	r3, .L83
 1437 0096 0122     		movs	r2, #1
 1438 0098 5A70     		strb	r2, [r3, #1]
 308:telit.c       ****     memset(uart_received_string,'\0',sizeof(uart_received_string));
 1439              		.loc 1 308 0
 1440 009a 4FF48062 		mov	r2, #1024
 1441 009e 0021     		movs	r1, #0
 1442 00a0 0548     		ldr	r0, .L83+12
 1443 00a2 FFF7FEFF 		bl	memset
 1444              	.L76:
 309:telit.c       **** }
 1445              		.loc 1 309 0
 1446 00a6 1037     		adds	r7, r7, #16
 1447              		.cfi_def_cfa_offset 8
 1448 00a8 BD46     		mov	sp, r7
 1449              		.cfi_def_cfa_register 13
 1450              		@ sp needed
 1451 00aa 80BD     		pop	{r7, pc}
 1452              	.L84:
 1453              		.align	2
 1454              	.L83:
 1455 00ac 00000000 		.word	modem
 1456 00b0 00000000 		.word	device_index
 1457 00b4 14010000 		.word	.LC23
 1458 00b8 00000000 		.word	uart_received_string
 1459              		.cfi_endproc
 1460              	.LFE83:
 1461              		.size	modem_scheduler_parse_http_response, .-modem_scheduler_parse_http_response
 1462              		.section	.rodata
 1463 0117 00       		.align	2
 1464              	.LC24:
 1465 0118 41542353 		.ascii	"AT#SH=3\015\000"
ARM GAS  C:\Users\bk\AppData\Local\Temp\ccq38zU3.s 			page 33


 1465      483D330D 
 1465      00
 1466              		.section	.text.modem_scheduler_close_socket,"ax",%progbits
 1467              		.align	2
 1468              		.global	modem_scheduler_close_socket
 1469              		.thumb
 1470              		.thumb_func
 1471              		.type	modem_scheduler_close_socket, %function
 1472              	modem_scheduler_close_socket:
 1473              	.LFB84:
 310:telit.c       **** 
 311:telit.c       **** void modem_scheduler_close_socket(){
 1474              		.loc 1 311 0
 1475              		.cfi_startproc
 1476              		@ args = 0, pretend = 0, frame = 0
 1477              		@ frame_needed = 1, uses_anonymous_args = 0
 1478 0000 80B5     		push	{r7, lr}
 1479              		.cfi_def_cfa_offset 8
 1480              		.cfi_offset 7, -8
 1481              		.cfi_offset 14, -4
 1482 0002 00AF     		add	r7, sp, #0
 1483              		.cfi_def_cfa_register 7
 312:telit.c       ****     modem_send_at_command("AT#SH=3\r");
 1484              		.loc 1 312 0
 1485 0004 0B48     		ldr	r0, .L88
 1486 0006 FFF7FEFF 		bl	modem_send_at_command
 313:telit.c       ****     sprintf(modem.expected_response,"OK");
 1487              		.loc 1 313 0
 1488 000a 0B4B     		ldr	r3, .L88+4
 1489 000c 0B4A     		ldr	r2, .L88+8
 1490 000e 1188     		ldrh	r1, [r2]	@ unaligned
 1491 0010 9278     		ldrb	r2, [r2, #2]
 1492 0012 1980     		strh	r1, [r3]	@ unaligned
 1493 0014 9A70     		strb	r2, [r3, #2]
 314:telit.c       ****     modem.modem_event=EVENT_CLOSE_SOCKET;
 1494              		.loc 1 314 0
 1495 0016 0A4B     		ldr	r3, .L88+12
 1496 0018 0E22     		movs	r2, #14
 1497 001a 1A70     		strb	r2, [r3]
 315:telit.c       ****     
 316:telit.c       ****     if(modem.transaction_error_counter>=3){
 1498              		.loc 1 316 0
 1499 001c 084B     		ldr	r3, .L88+12
 1500 001e 1B79     		ldrb	r3, [r3, #4]	@ zero_extendqisi2
 1501 0020 022B     		cmp	r3, #2
 1502 0022 05D9     		bls	.L87
 317:telit.c       ****         modem.transaction_error_counter=0;
 1503              		.loc 1 317 0
 1504 0024 064B     		ldr	r3, .L88+12
 1505 0026 0022     		movs	r2, #0
 1506 0028 1A71     		strb	r2, [r3, #4]
 318:telit.c       ****         modem.modem_event=EVENT_CHECK_NETWORK;       
 1507              		.loc 1 318 0
 1508 002a 054B     		ldr	r3, .L88+12
 1509 002c 0122     		movs	r2, #1
 1510 002e 1A70     		strb	r2, [r3]
 1511              	.L87:
ARM GAS  C:\Users\bk\AppData\Local\Temp\ccq38zU3.s 			page 34


 319:telit.c       ****     }
 320:telit.c       ****     
 321:telit.c       **** }
 1512              		.loc 1 321 0
 1513 0030 00BF     		nop
 1514 0032 80BD     		pop	{r7, pc}
 1515              	.L89:
 1516              		.align	2
 1517              	.L88:
 1518 0034 18010000 		.word	.LC24
 1519 0038 05000000 		.word	modem+5
 1520 003c 14000000 		.word	.LC2
 1521 0040 00000000 		.word	modem
 1522              		.cfi_endproc
 1523              	.LFE84:
 1524              		.size	modem_scheduler_close_socket, .-modem_scheduler_close_socket
 1525              		.section	.text.modem_check_action,"ax",%progbits
 1526              		.align	2
 1527              		.global	modem_check_action
 1528              		.thumb
 1529              		.thumb_func
 1530              		.type	modem_check_action, %function
 1531              	modem_check_action:
 1532              	.LFB85:
 322:telit.c       **** 
 323:telit.c       **** void modem_check_action(){    
 1533              		.loc 1 323 0
 1534              		.cfi_startproc
 1535              		@ args = 0, pretend = 0, frame = 8
 1536              		@ frame_needed = 1, uses_anonymous_args = 0
 1537              		@ link register save eliminated.
 1538 0000 80B4     		push	{r7}
 1539              		.cfi_def_cfa_offset 4
 1540              		.cfi_offset 7, -4
 1541 0002 83B0     		sub	sp, sp, #12
 1542              		.cfi_def_cfa_offset 16
 1543 0004 00AF     		add	r7, sp, #0
 1544              		.cfi_def_cfa_register 7
 324:telit.c       ****     uint8_t i=0;    
 1545              		.loc 1 324 0
 1546 0006 0023     		movs	r3, #0
 1547 0008 FB71     		strb	r3, [r7, #7]
 325:telit.c       ****     while((modem.modem_event!=EVENT_NODE_LIST[i].modem_event)
 1548              		.loc 1 325 0
 1549 000a 02E0     		b	.L91
 1550              	.L92:
 326:telit.c       ****     ||(modem.modem_state!=EVENT_NODE_LIST[i].modem_state))i++;
 1551              		.loc 1 326 0 discriminator 1
 1552 000c FB79     		ldrb	r3, [r7, #7]	@ zero_extendqisi2
 1553 000e 0133     		adds	r3, r3, #1
 1554 0010 FB71     		strb	r3, [r7, #7]
 1555              	.L91:
 325:telit.c       ****     while((modem.modem_event!=EVENT_NODE_LIST[i].modem_event)
 1556              		.loc 1 325 0
 1557 0012 134B     		ldr	r3, .L93
 1558 0014 1978     		ldrb	r1, [r3]	@ zero_extendqisi2
 1559 0016 FA79     		ldrb	r2, [r7, #7]	@ zero_extendqisi2
ARM GAS  C:\Users\bk\AppData\Local\Temp\ccq38zU3.s 			page 35


 1560 0018 1248     		ldr	r0, .L93+4
 1561 001a 1346     		mov	r3, r2
 1562 001c 5B00     		lsls	r3, r3, #1
 1563 001e 1344     		add	r3, r3, r2
 1564 0020 0344     		add	r3, r3, r0
 1565 0022 1B78     		ldrb	r3, [r3]	@ zero_extendqisi2
 1566 0024 9942     		cmp	r1, r3
 1567 0026 F1D1     		bne	.L92
 1568              		.loc 1 326 0
 1569 0028 0D4B     		ldr	r3, .L93
 1570 002a 5978     		ldrb	r1, [r3, #1]	@ zero_extendqisi2
 1571 002c FA79     		ldrb	r2, [r7, #7]	@ zero_extendqisi2
 1572 002e 0D48     		ldr	r0, .L93+4
 1573 0030 1346     		mov	r3, r2
 1574 0032 5B00     		lsls	r3, r3, #1
 1575 0034 1344     		add	r3, r3, r2
 1576 0036 0344     		add	r3, r3, r0
 1577 0038 0133     		adds	r3, r3, #1
 1578 003a 1B78     		ldrb	r3, [r3]	@ zero_extendqisi2
 1579 003c 9942     		cmp	r1, r3
 1580 003e E5D1     		bne	.L92
 327:telit.c       ****     modem.modem_action=EVENT_NODE_LIST[i].modem_action;    
 1581              		.loc 1 327 0
 1582 0040 FA79     		ldrb	r2, [r7, #7]	@ zero_extendqisi2
 1583 0042 0849     		ldr	r1, .L93+4
 1584 0044 1346     		mov	r3, r2
 1585 0046 5B00     		lsls	r3, r3, #1
 1586 0048 1344     		add	r3, r3, r2
 1587 004a 0B44     		add	r3, r3, r1
 1588 004c 0233     		adds	r3, r3, #2
 1589 004e 1A78     		ldrb	r2, [r3]	@ zero_extendqisi2
 1590 0050 034B     		ldr	r3, .L93
 1591 0052 9A70     		strb	r2, [r3, #2]
 328:telit.c       **** }
 1592              		.loc 1 328 0
 1593 0054 00BF     		nop
 1594 0056 0C37     		adds	r7, r7, #12
 1595              		.cfi_def_cfa_offset 4
 1596 0058 BD46     		mov	sp, r7
 1597              		.cfi_def_cfa_register 13
 1598              		@ sp needed
 1599 005a 80BC     		pop	{r7}
 1600              		.cfi_restore 7
 1601              		.cfi_def_cfa_offset 0
 1602 005c 7047     		bx	lr
 1603              	.L94:
 1604 005e 00BF     		.align	2
 1605              	.L93:
 1606 0060 00000000 		.word	modem
 1607 0064 00000000 		.word	EVENT_NODE_LIST
 1608              		.cfi_endproc
 1609              	.LFE85:
 1610              		.size	modem_check_action, .-modem_check_action
 1611              		.section	.text.modem_select_action,"ax",%progbits
 1612              		.align	2
 1613              		.global	modem_select_action
 1614              		.thumb
ARM GAS  C:\Users\bk\AppData\Local\Temp\ccq38zU3.s 			page 36


 1615              		.thumb_func
 1616              		.type	modem_select_action, %function
 1617              	modem_select_action:
 1618              	.LFB86:
 329:telit.c       **** 
 330:telit.c       **** void modem_select_action(){
 1619              		.loc 1 330 0
 1620              		.cfi_startproc
 1621              		@ args = 0, pretend = 0, frame = 0
 1622              		@ frame_needed = 1, uses_anonymous_args = 0
 1623 0000 80B5     		push	{r7, lr}
 1624              		.cfi_def_cfa_offset 8
 1625              		.cfi_offset 7, -8
 1626              		.cfi_offset 14, -4
 1627 0002 00AF     		add	r7, sp, #0
 1628              		.cfi_def_cfa_register 7
 331:telit.c       ****     modem_check_action();
 1629              		.loc 1 331 0
 1630 0004 FFF7FEFF 		bl	modem_check_action
 332:telit.c       ****     switch(modem.modem_action){
 1631              		.loc 1 332 0
 1632 0008 2C4B     		ldr	r3, .L115
 1633 000a 9B78     		ldrb	r3, [r3, #2]	@ zero_extendqisi2
 1634 000c 0F2B     		cmp	r3, #15
 1635 000e 53D8     		bhi	.L114
 1636 0010 01A2     		adr	r2, .L98
 1637 0012 52F823F0 		ldr	pc, [r2, r3, lsl #2]
 1638 0016 00BF     		.p2align 2
 1639              	.L98:
 1640 0018 6B000000 		.word	.L97+1
 1641 001c 71000000 		.word	.L99+1
 1642 0020 77000000 		.word	.L100+1
 1643 0024 7D000000 		.word	.L101+1
 1644 0028 83000000 		.word	.L102+1
 1645 002c 89000000 		.word	.L103+1
 1646 0030 8F000000 		.word	.L104+1
 1647 0034 95000000 		.word	.L105+1
 1648 0038 65000000 		.word	.L106+1
 1649 003c 5F000000 		.word	.L107+1
 1650 0040 59000000 		.word	.L108+1
 1651 0044 9B000000 		.word	.L109+1
 1652 0048 A1000000 		.word	.L110+1
 1653 004c A7000000 		.word	.L111+1
 1654 0050 AD000000 		.word	.L112+1
 1655 0054 B3000000 		.word	.L113+1
 1656              		.p2align 1
 1657              	.L108:
 333:telit.c       ****         
 334:telit.c       ****         case ACTION_CHECK_DEVICE_INDEX:
 335:telit.c       ****         modem_check_device_index();
 1658              		.loc 1 335 0
 1659 0058 FFF7FEFF 		bl	modem_check_device_index
 336:telit.c       ****         break;
 1660              		.loc 1 336 0
 1661 005c 2CE0     		b	.L96
 1662              	.L107:
 337:telit.c       ****         
ARM GAS  C:\Users\bk\AppData\Local\Temp\ccq38zU3.s 			page 37


 338:telit.c       ****         case ACTION_REQUEST_MEID:
 339:telit.c       ****         modem_scheduler_request_meid();
 1663              		.loc 1 339 0
 1664 005e FFF7FEFF 		bl	modem_scheduler_request_meid
 340:telit.c       ****         break;
 1665              		.loc 1 340 0
 1666 0062 29E0     		b	.L96
 1667              	.L106:
 341:telit.c       ****             
 342:telit.c       ****         case ACTION_INQUIRE_INDEX:
 343:telit.c       ****         modem_scheduler_init_index();
 1668              		.loc 1 343 0
 1669 0064 FFF7FEFF 		bl	modem_scheduler_init_index
 344:telit.c       ****         break;
 1670              		.loc 1 344 0
 1671 0068 26E0     		b	.L96
 1672              	.L97:
 345:telit.c       ****         
 346:telit.c       ****         case ACTION_REQUEST_TIME:
 347:telit.c       ****         modem_scheduler_request_time();
 1673              		.loc 1 347 0
 1674 006a FFF7FEFF 		bl	modem_scheduler_request_time
 348:telit.c       ****         break;
 1675              		.loc 1 348 0
 1676 006e 23E0     		b	.L96
 1677              	.L99:
 349:telit.c       ****         
 350:telit.c       ****         case ACTION_PARSE_TIME:
 351:telit.c       ****         modem_scheduler_adjust_system_time();
 1678              		.loc 1 351 0
 1679 0070 FFF7FEFF 		bl	modem_scheduler_adjust_system_time
 352:telit.c       ****         break;
 1680              		.loc 1 352 0
 1681 0074 20E0     		b	.L96
 1682              	.L100:
 353:telit.c       ****         
 354:telit.c       ****         case ACTION_CHECK_NETWORK:
 355:telit.c       ****         modem_scheduler_check_network();
 1683              		.loc 1 355 0
 1684 0076 FFF7FEFF 		bl	modem_scheduler_check_network
 356:telit.c       ****         break;
 1685              		.loc 1 356 0
 1686 007a 1DE0     		b	.L96
 1687              	.L101:
 357:telit.c       ****         
 358:telit.c       ****         case ACTION_CHECK_PDP:
 359:telit.c       ****         modem_scheduler_check_PDP();
 1688              		.loc 1 359 0
 1689 007c FFF7FEFF 		bl	modem_scheduler_check_PDP
 360:telit.c       ****         break;
 1690              		.loc 1 360 0
 1691 0080 1AE0     		b	.L96
 1692              	.L102:
 361:telit.c       ****      
 362:telit.c       ****         case ACTION_ACTIVATE_PDP:
 363:telit.c       ****         modem_scheduler_activate_PDP();
 1693              		.loc 1 363 0
ARM GAS  C:\Users\bk\AppData\Local\Temp\ccq38zU3.s 			page 38


 1694 0082 FFF7FEFF 		bl	modem_scheduler_activate_PDP
 364:telit.c       ****         break;                
 1695              		.loc 1 364 0
 1696 0086 17E0     		b	.L96
 1697              	.L103:
 365:telit.c       ****         
 366:telit.c       ****         case ACTION_SOCKET_DIAL:
 367:telit.c       ****         modem_scheduler_socket_dial();
 1698              		.loc 1 367 0
 1699 0088 FFF7FEFF 		bl	modem_scheduler_socket_dial
 368:telit.c       ****         break;
 1700              		.loc 1 368 0
 1701 008c 14E0     		b	.L96
 1702              	.L104:
 369:telit.c       ****         
 370:telit.c       ****         case ACTION_REQUEST_SOCKET_STATUS:
 371:telit.c       ****         modem_scheduler_socket_status();
 1703              		.loc 1 371 0
 1704 008e FFF7FEFF 		bl	modem_scheduler_socket_status
 372:telit.c       ****         break;
 1705              		.loc 1 372 0
 1706 0092 11E0     		b	.L96
 1707              	.L105:
 373:telit.c       ****         
 374:telit.c       ****         case ACTION_PARSE_SOCKET_STATUS:
 375:telit.c       ****         parse_socket_status();
 1708              		.loc 1 375 0
 1709 0094 FFF7FEFF 		bl	parse_socket_status
 376:telit.c       ****         break;
 1710              		.loc 1 376 0
 1711 0098 0EE0     		b	.L96
 1712              	.L109:
 377:telit.c       ****                 
 378:telit.c       ****         case ACTION_INIT_SEND:
 379:telit.c       ****         modem_scheduler_init_send();
 1713              		.loc 1 379 0
 1714 009a FFF7FEFF 		bl	modem_scheduler_init_send
 380:telit.c       ****         break;
 1715              		.loc 1 380 0
 1716 009e 0BE0     		b	.L96
 1717              	.L110:
 381:telit.c       ****         
 382:telit.c       ****         case ACTION_SEND_STRING:
 383:telit.c       ****         modem_scheduler_send_message();
 1718              		.loc 1 383 0
 1719 00a0 FFF7FEFF 		bl	modem_scheduler_send_message
 384:telit.c       ****         break;
 1720              		.loc 1 384 0
 1721 00a4 08E0     		b	.L96
 1722              	.L111:
 385:telit.c       ****         
 386:telit.c       ****         case ACTION_RECEIVE_MESSAGE:
 387:telit.c       ****         modem_scheduler_receive_send_echo();
 1723              		.loc 1 387 0
 1724 00a6 FFF7FEFF 		bl	modem_scheduler_receive_send_echo
 388:telit.c       ****         break;
 1725              		.loc 1 388 0
ARM GAS  C:\Users\bk\AppData\Local\Temp\ccq38zU3.s 			page 39


 1726 00aa 05E0     		b	.L96
 1727              	.L112:
 389:telit.c       ****         
 390:telit.c       ****         case ACTION_PARSE_MESSAGE:
 391:telit.c       ****         modem_scheduler_parse_http_response();
 1728              		.loc 1 391 0
 1729 00ac FFF7FEFF 		bl	modem_scheduler_parse_http_response
 392:telit.c       ****         break;
 1730              		.loc 1 392 0
 1731 00b0 02E0     		b	.L96
 1732              	.L113:
 393:telit.c       ****         
 394:telit.c       ****         case ACTION_CLOSE_SOCKET:
 395:telit.c       ****         modem_scheduler_close_socket();
 1733              		.loc 1 395 0
 1734 00b2 FFF7FEFF 		bl	modem_scheduler_close_socket
 396:telit.c       ****         break;                
 1735              		.loc 1 396 0
 1736 00b6 00BF     		nop
 1737              	.L96:
 1738              	.L114:
 397:telit.c       ****     }
 398:telit.c       **** }
 1739              		.loc 1 398 0
 1740 00b8 00BF     		nop
 1741 00ba 80BD     		pop	{r7, pc}
 1742              	.L116:
 1743              		.align	2
 1744              	.L115:
 1745 00bc 00000000 		.word	modem
 1746              		.cfi_endproc
 1747              	.LFE86:
 1748              		.size	modem_select_action, .-modem_select_action
 1749              		.section	.text.modem_check_state,"ax",%progbits
 1750              		.align	2
 1751              		.global	modem_check_state
 1752              		.thumb
 1753              		.thumb_func
 1754              		.type	modem_check_state, %function
 1755              	modem_check_state:
 1756              	.LFB87:
 399:telit.c       **** 
 400:telit.c       **** void modem_check_state(){
 1757              		.loc 1 400 0
 1758              		.cfi_startproc
 1759              		@ args = 0, pretend = 0, frame = 0
 1760              		@ frame_needed = 1, uses_anonymous_args = 0
 1761 0000 80B5     		push	{r7, lr}
 1762              		.cfi_def_cfa_offset 8
 1763              		.cfi_offset 7, -8
 1764              		.cfi_offset 14, -4
 1765 0002 00AF     		add	r7, sp, #0
 1766              		.cfi_def_cfa_register 7
 401:telit.c       ****     switch(modem.modem_state){
 1767              		.loc 1 401 0
 1768 0004 0E4B     		ldr	r3, .L125
 1769 0006 5B78     		ldrb	r3, [r3, #1]	@ zero_extendqisi2
ARM GAS  C:\Users\bk\AppData\Local\Temp\ccq38zU3.s 			page 40


 1770 0008 032B     		cmp	r3, #3
 1771 000a 17D8     		bhi	.L124
 1772 000c 01A2     		adr	r2, .L120
 1773 000e 52F823F0 		ldr	pc, [r2, r3, lsl #2]
 1774 0012 00BF     		.p2align 2
 1775              	.L120:
 1776 0014 25000000 		.word	.L119+1
 1777 0018 37000000 		.word	.L121+1
 1778 001c 2B000000 		.word	.L122+1
 1779 0020 31000000 		.word	.L123+1
 1780              		.p2align 1
 1781              	.L119:
 402:telit.c       ****         case STATE_AT_CMD_SENT:
 403:telit.c       ****         modem_compare_echo();
 1782              		.loc 1 403 0
 1783 0024 FFF7FEFF 		bl	modem_compare_echo
 404:telit.c       ****         break;
 1784              		.loc 1 404 0
 1785 0028 08E0     		b	.L118
 1786              	.L122:
 405:telit.c       ****         
 406:telit.c       ****         case STATE_ECHO_NOT_FOUND:
 407:telit.c       ****         modem_compare_echo();
 1787              		.loc 1 407 0
 1788 002a FFF7FEFF 		bl	modem_compare_echo
 408:telit.c       ****         break;
 1789              		.loc 1 408 0
 1790 002e 05E0     		b	.L118
 1791              	.L123:
 409:telit.c       ****         
 410:telit.c       ****         case STATE_ECHO_TIMEOUT:
 411:telit.c       ****         //sprintf(SD_Buffer,"%s%s",SD_Buffer,uart_received_string);          
 412:telit.c       ****         modem_select_action();
 1792              		.loc 1 412 0
 1793 0030 FFF7FEFF 		bl	modem_select_action
 413:telit.c       ****         break;
 1794              		.loc 1 413 0
 1795 0034 02E0     		b	.L118
 1796              	.L121:
 414:telit.c       ****         
 415:telit.c       ****         case STATE_ECHO_CORRECT:
 416:telit.c       ****         //sprintf(SD_Buffer,"%s%s",SD_Buffer,uart_received_string); 
 417:telit.c       ****         modem_select_action();
 1797              		.loc 1 417 0
 1798 0036 FFF7FEFF 		bl	modem_select_action
 418:telit.c       ****         break;        
 1799              		.loc 1 418 0
 1800 003a 00BF     		nop
 1801              	.L118:
 1802              	.L124:
 419:telit.c       ****     }
 420:telit.c       **** }
 1803              		.loc 1 420 0
 1804 003c 00BF     		nop
 1805 003e 80BD     		pop	{r7, pc}
 1806              	.L126:
 1807              		.align	2
ARM GAS  C:\Users\bk\AppData\Local\Temp\ccq38zU3.s 			page 41


 1808              	.L125:
 1809 0040 00000000 		.word	modem
 1810              		.cfi_endproc
 1811              	.LFE87:
 1812              		.size	modem_check_state, .-modem_check_state
 1813              		.section	.rodata
 1814 0121 000000   		.align	2
 1815              	.LC25:
 1816 0124 4D6F6465 		.ascii	"Modem Received expected AT Response on first Try: %"
 1816      6D205265 
 1816      63656976 
 1816      65642065 
 1816      78706563 
 1817 0157 730D0A00 		.ascii	"s\015\012\000"
 1818 015b 00       		.align	2
 1819              	.LC26:
 1820 015c 4D6F6465 		.ascii	"Modem required %d tries to receive AT Response: %s\015"
 1820      6D207265 
 1820      71756972 
 1820      65642025 
 1820      64207472 
 1821 018f 0A00     		.ascii	"\012\000"
 1822 0191 000000   		.align	2
 1823              	.LC27:
 1824 0194 4D6F6465 		.ascii	"Modem AT response timeout: %s\015\012\000"
 1824      6D204154 
 1824      20726573 
 1824      706F6E73 
 1824      65207469 
 1825              		.section	.text.at_write_command,"ax",%progbits
 1826              		.align	2
 1827              		.global	at_write_command
 1828              		.thumb
 1829              		.thumb_func
 1830              		.type	at_write_command, %function
 1831              	at_write_command:
 1832              	.LFB88:
 421:telit.c       **** 
 422:telit.c       **** uint8_t at_write_command(char* commands, char* expected_response,uint32_t timeout){
 1833              		.loc 1 422 0
 1834              		.cfi_startproc
 1835              		@ args = 0, pretend = 0, frame = 40
 1836              		@ frame_needed = 1, uses_anonymous_args = 0
 1837 0000 80B5     		push	{r7, lr}
 1838              		.cfi_def_cfa_offset 8
 1839              		.cfi_offset 7, -8
 1840              		.cfi_offset 14, -4
 1841 0002 8AB0     		sub	sp, sp, #40
 1842              		.cfi_def_cfa_offset 48
 1843 0004 00AF     		add	r7, sp, #0
 1844              		.cfi_def_cfa_register 7
 1845 0006 F860     		str	r0, [r7, #12]
 1846 0008 B960     		str	r1, [r7, #8]
 1847 000a 7A60     		str	r2, [r7, #4]
 423:telit.c       **** 
 424:telit.c       ****     uint32 at_attempt = 0;
 1848              		.loc 1 424 0
ARM GAS  C:\Users\bk\AppData\Local\Temp\ccq38zU3.s 			page 42


 1849 000c 0023     		movs	r3, #0
 1850 000e 7B62     		str	r3, [r7, #36]
 425:telit.c       ****     
 426:telit.c       ****     for(at_attempt = 0; at_attempt < 3; at_attempt++) {
 1851              		.loc 1 426 0
 1852 0010 0023     		movs	r3, #0
 1853 0012 7B62     		str	r3, [r7, #36]
 1854 0014 38E0     		b	.L128
 1855              	.L135:
 1856              	.LBB5:
 427:telit.c       ****         
 428:telit.c       ****         char* compare_location;
 429:telit.c       ****         uint32_t delay=10;
 1857              		.loc 1 429 0
 1858 0016 0A23     		movs	r3, #10
 1859 0018 FB61     		str	r3, [r7, #28]
 430:telit.c       ****         uint32_t i, interval=timeout/delay;        
 1860              		.loc 1 430 0
 1861 001a 7A68     		ldr	r2, [r7, #4]
 1862 001c FB69     		ldr	r3, [r7, #28]
 1863 001e B2FBF3F3 		udiv	r3, r2, r3
 1864 0022 BB61     		str	r3, [r7, #24]
 431:telit.c       ****         
 432:telit.c       ****         uart_string_reset();
 1865              		.loc 1 432 0
 1866 0024 FFF7FEFF 		bl	uart_string_reset
 433:telit.c       ****         UART_Telit_PutString(commands);
 1867              		.loc 1 433 0
 1868 0028 F868     		ldr	r0, [r7, #12]
 1869 002a FFF7FEFF 		bl	UART_Telit_PutString
 434:telit.c       ****       
 435:telit.c       ****        
 436:telit.c       ****         for(i=0;i<interval;i++){        
 1870              		.loc 1 436 0
 1871 002e 0023     		movs	r3, #0
 1872 0030 3B62     		str	r3, [r7, #32]
 1873 0032 1FE0     		b	.L129
 1874              	.L134:
 437:telit.c       ****             compare_location=strstr(uart_received_string,expected_response);        
 1875              		.loc 1 437 0
 1876 0034 B968     		ldr	r1, [r7, #8]
 1877 0036 1B48     		ldr	r0, .L136
 1878 0038 FFF7FEFF 		bl	strstr
 1879 003c 7861     		str	r0, [r7, #20]
 438:telit.c       ****             if(compare_location!=NULL) {
 1880              		.loc 1 438 0
 1881 003e 7B69     		ldr	r3, [r7, #20]
 1882 0040 002B     		cmp	r3, #0
 1883 0042 11D0     		beq	.L130
 439:telit.c       ****                 //sprintf(SD_Buffer,"%s%s",SD_Buffer,uart_received_string); 
 440:telit.c       ****                 //strip newline characters and other stuff
 441:telit.c       ****                 //stripEscapeCharacters(uart_received_string);
 442:telit.c       ****                 //printNotif("Modem Sent %d/3: %s\r\n", (at_attempt+1), commands);
 443:telit.c       ****                 if (at_attempt == 0){
 1884              		.loc 1 443 0
 1885 0044 7B6A     		ldr	r3, [r7, #36]
 1886 0046 002B     		cmp	r3, #0
ARM GAS  C:\Users\bk\AppData\Local\Temp\ccq38zU3.s 			page 43


 1887 0048 05D1     		bne	.L131
 444:telit.c       ****                     printNotif(NOTIF_TYPE_EVENT,"Modem Received expected AT Response on first Try: 
 1888              		.loc 1 444 0
 1889 004a 164A     		ldr	r2, .L136
 1890 004c 1649     		ldr	r1, .L136+4
 1891 004e 0020     		movs	r0, #0
 1892 0050 FFF7FEFF 		bl	printNotif
 1893 0054 06E0     		b	.L132
 1894              	.L131:
 445:telit.c       ****                 }else{
 446:telit.c       ****                    printNotif(NOTIF_TYPE_WARNING,"Modem required %d tries to receive AT Response: %
 1895              		.loc 1 446 0
 1896 0056 7B6A     		ldr	r3, [r7, #36]
 1897 0058 5A1C     		adds	r2, r3, #1
 1898 005a 124B     		ldr	r3, .L136
 1899 005c 1349     		ldr	r1, .L136+8
 1900 005e 0120     		movs	r0, #1
 1901 0060 FFF7FEFF 		bl	printNotif
 1902              	.L132:
 447:telit.c       ****                  
 448:telit.c       ****                 }
 449:telit.c       ****                  return(1);
 1903              		.loc 1 449 0
 1904 0064 0123     		movs	r3, #1
 1905 0066 18E0     		b	.L133
 1906              	.L130:
 450:telit.c       ****             }
 451:telit.c       ****             CyDelay((uint32) delay);
 1907              		.loc 1 451 0 discriminator 2
 1908 0068 F869     		ldr	r0, [r7, #28]
 1909 006a FFF7FEFF 		bl	CyDelay
 436:telit.c       ****             compare_location=strstr(uart_received_string,expected_response);        
 1910              		.loc 1 436 0 discriminator 2
 1911 006e 3B6A     		ldr	r3, [r7, #32]
 1912 0070 0133     		adds	r3, r3, #1
 1913 0072 3B62     		str	r3, [r7, #32]
 1914              	.L129:
 436:telit.c       ****             compare_location=strstr(uart_received_string,expected_response);        
 1915              		.loc 1 436 0 is_stmt 0 discriminator 1
 1916 0074 3A6A     		ldr	r2, [r7, #32]
 1917 0076 BB69     		ldr	r3, [r7, #24]
 1918 0078 9A42     		cmp	r2, r3
 1919 007a DBD3     		bcc	.L134
 452:telit.c       ****         }   
 453:telit.c       ****         CyDelay((uint32) delay);
 1920              		.loc 1 453 0 is_stmt 1 discriminator 2
 1921 007c F869     		ldr	r0, [r7, #28]
 1922 007e FFF7FEFF 		bl	CyDelay
 1923              	.LBE5:
 426:telit.c       ****         
 1924              		.loc 1 426 0 discriminator 2
 1925 0082 7B6A     		ldr	r3, [r7, #36]
 1926 0084 0133     		adds	r3, r3, #1
 1927 0086 7B62     		str	r3, [r7, #36]
 1928              	.L128:
 426:telit.c       ****         
 1929              		.loc 1 426 0 is_stmt 0 discriminator 1
ARM GAS  C:\Users\bk\AppData\Local\Temp\ccq38zU3.s 			page 44


 1930 0088 7B6A     		ldr	r3, [r7, #36]
 1931 008a 022B     		cmp	r3, #2
 1932 008c C3D9     		bls	.L135
 454:telit.c       ****         //sprintf(SD_Buffer,"%s%s",SD_Buffer,uart_received_string);
 455:telit.c       ****     }
 456:telit.c       ****     printNotif(NOTIF_TYPE_ERROR,"Modem AT response timeout: %s\r\n", commands);
 1933              		.loc 1 456 0 is_stmt 1
 1934 008e FA68     		ldr	r2, [r7, #12]
 1935 0090 0749     		ldr	r1, .L136+12
 1936 0092 0220     		movs	r0, #2
 1937 0094 FFF7FEFF 		bl	printNotif
 457:telit.c       ****           
 458:telit.c       ****     return(0);    
 1938              		.loc 1 458 0
 1939 0098 0023     		movs	r3, #0
 1940              	.L133:
 459:telit.c       **** }
 1941              		.loc 1 459 0
 1942 009a 1846     		mov	r0, r3
 1943 009c 2837     		adds	r7, r7, #40
 1944              		.cfi_def_cfa_offset 8
 1945 009e BD46     		mov	sp, r7
 1946              		.cfi_def_cfa_register 13
 1947              		@ sp needed
 1948 00a0 80BD     		pop	{r7, pc}
 1949              	.L137:
 1950 00a2 00BF     		.align	2
 1951              	.L136:
 1952 00a4 00000000 		.word	uart_received_string
 1953 00a8 24010000 		.word	.LC25
 1954 00ac 5C010000 		.word	.LC26
 1955 00b0 94010000 		.word	.LC27
 1956              		.cfi_endproc
 1957              	.LFE88:
 1958              		.size	at_write_command, .-at_write_command
 1959              		.section	.text.write_modem_echo,"ax",%progbits
 1960              		.align	2
 1961              		.global	write_modem_echo
 1962              		.thumb
 1963              		.thumb_func
 1964              		.type	write_modem_echo, %function
 1965              	write_modem_echo:
 1966              	.LFB89:
 460:telit.c       **** 
 461:telit.c       **** uint8_t write_modem_echo(){
 1967              		.loc 1 461 0
 1968              		.cfi_startproc
 1969              		@ args = 0, pretend = 0, frame = 8
 1970              		@ frame_needed = 1, uses_anonymous_args = 0
 1971 0000 80B5     		push	{r7, lr}
 1972              		.cfi_def_cfa_offset 8
 1973              		.cfi_offset 7, -8
 1974              		.cfi_offset 14, -4
 1975 0002 82B0     		sub	sp, sp, #8
 1976              		.cfi_def_cfa_offset 16
 1977 0004 00AF     		add	r7, sp, #0
 1978              		.cfi_def_cfa_register 7
ARM GAS  C:\Users\bk\AppData\Local\Temp\ccq38zU3.s 			page 45


 462:telit.c       ****     if(uart_received_string[0]=='\0') return 0;
 1979              		.loc 1 462 0
 1980 0006 0F4B     		ldr	r3, .L142
 1981 0008 1B78     		ldrb	r3, [r3]	@ zero_extendqisi2
 1982 000a 002B     		cmp	r3, #0
 1983 000c 01D1     		bne	.L139
 1984              		.loc 1 462 0 is_stmt 0 discriminator 1
 1985 000e 0023     		movs	r3, #0
 1986 0010 13E0     		b	.L140
 1987              	.L139:
 463:telit.c       ****     char* compare_location=strstr(uart_received_string,"W");
 1988              		.loc 1 463 0 is_stmt 1
 1989 0012 5721     		movs	r1, #87
 1990 0014 0B48     		ldr	r0, .L142
 1991 0016 FFF7FEFF 		bl	strchr
 1992 001a 7860     		str	r0, [r7, #4]
 464:telit.c       ****     uart_string_index=0;
 1993              		.loc 1 464 0
 1994 001c 0A4B     		ldr	r3, .L142+4
 1995 001e 0022     		movs	r2, #0
 1996 0020 1A70     		strb	r2, [r3]
 465:telit.c       ****     memset(uart_received_string,'\0',sizeof(uart_received_string));
 1997              		.loc 1 465 0
 1998 0022 4FF48062 		mov	r2, #1024
 1999 0026 0021     		movs	r1, #0
 2000 0028 0648     		ldr	r0, .L142
 2001 002a FFF7FEFF 		bl	memset
 466:telit.c       ****     if(compare_location!=NULL) return 1; 
 2002              		.loc 1 466 0
 2003 002e 7B68     		ldr	r3, [r7, #4]
 2004 0030 002B     		cmp	r3, #0
 2005 0032 01D0     		beq	.L141
 2006              		.loc 1 466 0 is_stmt 0 discriminator 1
 2007 0034 0123     		movs	r3, #1
 2008 0036 00E0     		b	.L140
 2009              	.L141:
 467:telit.c       ****     else return 0;
 2010              		.loc 1 467 0 is_stmt 1
 2011 0038 0023     		movs	r3, #0
 2012              	.L140:
 468:telit.c       **** }
 2013              		.loc 1 468 0
 2014 003a 1846     		mov	r0, r3
 2015 003c 0837     		adds	r7, r7, #8
 2016              		.cfi_def_cfa_offset 8
 2017 003e BD46     		mov	sp, r7
 2018              		.cfi_def_cfa_register 13
 2019              		@ sp needed
 2020 0040 80BD     		pop	{r7, pc}
 2021              	.L143:
 2022 0042 00BF     		.align	2
 2023              	.L142:
 2024 0044 00000000 		.word	uart_received_string
 2025 0048 00000000 		.word	uart_string_index
 2026              		.cfi_endproc
 2027              	.LFE89:
 2028              		.size	write_modem_echo, .-write_modem_echo
ARM GAS  C:\Users\bk\AppData\Local\Temp\ccq38zU3.s 			page 46


 2029              		.section	.text.url_encode,"ax",%progbits
 2030              		.align	2
 2031              		.global	url_encode
 2032              		.thumb
 2033              		.thumb_func
 2034              		.type	url_encode, %function
 2035              	url_encode:
 2036              	.LFB90:
 469:telit.c       **** 
 470:telit.c       **** /* Returns a url-encoded version of str */
 471:telit.c       **** /* IMPORTANT: be sure to free() the returned string after use */
 472:telit.c       **** char *url_encode(char *str) {
 2037              		.loc 1 472 0
 2038              		.cfi_startproc
 2039              		@ args = 0, pretend = 0, frame = 24
 2040              		@ frame_needed = 1, uses_anonymous_args = 0
 2041 0000 80B5     		push	{r7, lr}
 2042              		.cfi_def_cfa_offset 8
 2043              		.cfi_offset 7, -8
 2044              		.cfi_offset 14, -4
 2045 0002 86B0     		sub	sp, sp, #24
 2046              		.cfi_def_cfa_offset 32
 2047 0004 00AF     		add	r7, sp, #0
 2048              		.cfi_def_cfa_register 7
 2049 0006 7860     		str	r0, [r7, #4]
 473:telit.c       ****     char *pstr, *buf = (char*) malloc(strlen(str) * 3 + 1), *pbuf = buf;
 2050              		.loc 1 473 0
 2051 0008 7868     		ldr	r0, [r7, #4]
 2052 000a FFF7FEFF 		bl	strlen
 2053 000e 0246     		mov	r2, r0
 2054 0010 1346     		mov	r3, r2
 2055 0012 5B00     		lsls	r3, r3, #1
 2056 0014 1344     		add	r3, r3, r2
 2057 0016 0133     		adds	r3, r3, #1
 2058 0018 1846     		mov	r0, r3
 2059 001a FFF7FEFF 		bl	malloc
 2060 001e 0346     		mov	r3, r0
 2061 0020 FB60     		str	r3, [r7, #12]
 2062 0022 FB68     		ldr	r3, [r7, #12]
 2063 0024 3B61     		str	r3, [r7, #16]
 474:telit.c       ****     for (pstr = str; *pstr != '\0'; pstr++) {
 2064              		.loc 1 474 0
 2065 0026 7B68     		ldr	r3, [r7, #4]
 2066 0028 7B61     		str	r3, [r7, #20]
 2067 002a 1CE0     		b	.L145
 2068              	.L148:
 475:telit.c       ****         if (*pstr == ' ') {
 2069              		.loc 1 475 0
 2070 002c 7B69     		ldr	r3, [r7, #20]
 2071 002e 1B78     		ldrb	r3, [r3]	@ zero_extendqisi2
 2072 0030 202B     		cmp	r3, #32
 2073 0032 0FD1     		bne	.L146
 476:telit.c       ****             *pbuf++ = '%', *pbuf++ = '2', *pbuf++ = '0';
 2074              		.loc 1 476 0
 2075 0034 3B69     		ldr	r3, [r7, #16]
 2076 0036 5A1C     		adds	r2, r3, #1
 2077 0038 3A61     		str	r2, [r7, #16]
ARM GAS  C:\Users\bk\AppData\Local\Temp\ccq38zU3.s 			page 47


 2078 003a 2522     		movs	r2, #37
 2079 003c 1A70     		strb	r2, [r3]
 2080 003e 3B69     		ldr	r3, [r7, #16]
 2081 0040 5A1C     		adds	r2, r3, #1
 2082 0042 3A61     		str	r2, [r7, #16]
 2083 0044 3222     		movs	r2, #50
 2084 0046 1A70     		strb	r2, [r3]
 2085 0048 3B69     		ldr	r3, [r7, #16]
 2086 004a 5A1C     		adds	r2, r3, #1
 2087 004c 3A61     		str	r2, [r7, #16]
 2088 004e 3022     		movs	r2, #48
 2089 0050 1A70     		strb	r2, [r3]
 2090 0052 05E0     		b	.L147
 2091              	.L146:
 477:telit.c       ****         } else {
 478:telit.c       ****             *pbuf++ = *pstr;
 2092              		.loc 1 478 0
 2093 0054 3B69     		ldr	r3, [r7, #16]
 2094 0056 5A1C     		adds	r2, r3, #1
 2095 0058 3A61     		str	r2, [r7, #16]
 2096 005a 7A69     		ldr	r2, [r7, #20]
 2097 005c 1278     		ldrb	r2, [r2]	@ zero_extendqisi2
 2098 005e 1A70     		strb	r2, [r3]
 2099              	.L147:
 474:telit.c       ****         if (*pstr == ' ') {
 2100              		.loc 1 474 0 discriminator 2
 2101 0060 7B69     		ldr	r3, [r7, #20]
 2102 0062 0133     		adds	r3, r3, #1
 2103 0064 7B61     		str	r3, [r7, #20]
 2104              	.L145:
 474:telit.c       ****         if (*pstr == ' ') {
 2105              		.loc 1 474 0 is_stmt 0 discriminator 1
 2106 0066 7B69     		ldr	r3, [r7, #20]
 2107 0068 1B78     		ldrb	r3, [r3]	@ zero_extendqisi2
 2108 006a 002B     		cmp	r3, #0
 2109 006c DED1     		bne	.L148
 479:telit.c       ****         }
 480:telit.c       ****     }
 481:telit.c       ****     *pbuf = '\0';
 2110              		.loc 1 481 0 is_stmt 1
 2111 006e 3B69     		ldr	r3, [r7, #16]
 2112 0070 0022     		movs	r2, #0
 2113 0072 1A70     		strb	r2, [r3]
 482:telit.c       ****     return buf;
 2114              		.loc 1 482 0
 2115 0074 FB68     		ldr	r3, [r7, #12]
 483:telit.c       **** }                   
 2116              		.loc 1 483 0
 2117 0076 1846     		mov	r0, r3
 2118 0078 1837     		adds	r7, r7, #24
 2119              		.cfi_def_cfa_offset 8
 2120 007a BD46     		mov	sp, r7
 2121              		.cfi_def_cfa_register 13
 2122              		@ sp needed
 2123 007c 80BD     		pop	{r7, pc}
 2124              		.cfi_endproc
 2125              	.LFE90:
ARM GAS  C:\Users\bk\AppData\Local\Temp\ccq38zU3.s 			page 48


 2126              		.size	url_encode, .-url_encode
 2127 007e 00BF     		.section	.rodata
 2128              		.align	2
 2129              	.LC28:
 2130 01b4 2B47534E 		.ascii	"+GSN: \000"
 2130      3A2000
 2131              		.section	.text.parse_meid,"ax",%progbits
 2132              		.align	2
 2133              		.global	parse_meid
 2134              		.thumb
 2135              		.thumb_func
 2136              		.type	parse_meid, %function
 2137              	parse_meid:
 2138              	.LFB91:
 484:telit.c       **** 
 485:telit.c       **** 
 486:telit.c       **** uint8_t parse_meid(char* meid) {
 2139              		.loc 1 486 0
 2140              		.cfi_startproc
 2141              		@ args = 0, pretend = 0, frame = 16
 2142              		@ frame_needed = 1, uses_anonymous_args = 0
 2143 0000 90B5     		push	{r4, r7, lr}
 2144              		.cfi_def_cfa_offset 12
 2145              		.cfi_offset 4, -12
 2146              		.cfi_offset 7, -8
 2147              		.cfi_offset 14, -4
 2148 0002 85B0     		sub	sp, sp, #20
 2149              		.cfi_def_cfa_offset 32
 2150 0004 00AF     		add	r7, sp, #0
 2151              		.cfi_def_cfa_register 7
 2152 0006 7860     		str	r0, [r7, #4]
 487:telit.c       **** /*
 488:telit.c       **** int modem_get_meid(char* meid)
 489:telit.c       **** 
 490:telit.c       **** Return the MEID of the cell module
 491:telit.c       **** - Tested for CC864-DUAL and DE910-DUAL
 492:telit.c       **** 
 493:telit.c       **** Example CC864-DUAL Conversation:
 494:telit.c       **** [Board] AT#MEID?
 495:telit.c       **** [Modem] #MEID: A10000,32B9F1C0
 496:telit.c       **** 
 497:telit.c       ****         OK
 498:telit.c       **** 
 499:telit.c       **** Example DE910-DUAL Conversation:
 500:telit.c       **** [Board] AT#MEID?
 501:telit.c       **** [Modem] #MEID: A1000049AB9082
 502:telit.c       **** 
 503:telit.c       ****         OK
 504:telit.c       **** */
 505:telit.c       ****     
 506:telit.c       ****     // If successful, parse the string received over uart for the meid
 507:telit.c       ****     char *a, *b;
 508:telit.c       ****     
 509:telit.c       ****     // Test case:
 510:telit.c       ****     //char str1[] = "AT#MEID?\r\r\n#MEID: A10000,32B9F1C0\r\n\r\nOK";
 511:telit.c       ****     //strcpy(uart_received_string,str1);
 512:telit.c       **** 
ARM GAS  C:\Users\bk\AppData\Local\Temp\ccq38zU3.s 			page 49


 513:telit.c       ****     // Expect the UART to contain something like "\r\n#MEID: A10000,32B9F1C0\r\n\r\nOK"
 514:telit.c       ****     // - Search for "#MEID:".  Place the starting pointer, a, at the resulting index
 515:telit.c       ****     
 516:telit.c       ****     a = strstr(uart_received_string,"+GSN: ");
 2153              		.loc 1 516 0
 2154 0008 2249     		ldr	r1, .L155
 2155 000a 2348     		ldr	r0, .L155+4
 2156 000c FFF7FEFF 		bl	strstr
 2157 0010 F860     		str	r0, [r7, #12]
 517:telit.c       ****     if (a == NULL) {
 2158              		.loc 1 517 0
 2159 0012 FB68     		ldr	r3, [r7, #12]
 2160 0014 002B     		cmp	r3, #0
 2161 0016 01D1     		bne	.L151
 518:telit.c       **** 
 519:telit.c       ****         //puts("#MEID: not found in uart_received_string");
 520:telit.c       ****         return 0u;
 2162              		.loc 1 520 0
 2163 0018 0023     		movs	r3, #0
 2164 001a 37E0     		b	.L152
 2165              	.L151:
 521:telit.c       ****     }
 522:telit.c       ****     // - Shift the pointer to the beginning of the MEID, i.e. "A10000,32B9F1C0\r\n\r\nOK"
 523:telit.c       ****     a += strlen("+GSN: ");
 2166              		.loc 1 523 0
 2167 001c FB68     		ldr	r3, [r7, #12]
 2168 001e 0633     		adds	r3, r3, #6
 2169 0020 FB60     		str	r3, [r7, #12]
 524:telit.c       ****     
 525:telit.c       ****     // - Find the carriage return marking after "#MEID: " that follows the MEID
 526:telit.c       ****     b = strstr(a,"\r");
 2170              		.loc 1 526 0
 2171 0022 0D21     		movs	r1, #13
 2172 0024 F868     		ldr	r0, [r7, #12]
 2173 0026 FFF7FEFF 		bl	strchr
 2174 002a B860     		str	r0, [r7, #8]
 527:telit.c       ****     if (b == NULL) {
 2175              		.loc 1 527 0
 2176 002c BB68     		ldr	r3, [r7, #8]
 2177 002e 002B     		cmp	r3, #0
 2178 0030 01D1     		bne	.L153
 528:telit.c       **** 
 529:telit.c       ****         //puts("Carriage return not found in uart_received_string");
 530:telit.c       ****         return 0u;
 2179              		.loc 1 530 0
 2180 0032 0023     		movs	r3, #0
 2181 0034 2AE0     		b	.L152
 2182              	.L153:
 531:telit.c       ****     }
 532:telit.c       ****     
 533:telit.c       ****     // Parse the strings and store the MEID in *meid
 534:telit.c       ****     strncpy(meid,a,b-a);
 2183              		.loc 1 534 0
 2184 0036 BA68     		ldr	r2, [r7, #8]
 2185 0038 FB68     		ldr	r3, [r7, #12]
 2186 003a D31A     		subs	r3, r2, r3
 2187 003c 1A46     		mov	r2, r3
ARM GAS  C:\Users\bk\AppData\Local\Temp\ccq38zU3.s 			page 50


 2188 003e F968     		ldr	r1, [r7, #12]
 2189 0040 7868     		ldr	r0, [r7, #4]
 2190 0042 FFF7FEFF 		bl	strncpy
 535:telit.c       ****     meid[b-a] = '\0';
 2191              		.loc 1 535 0
 2192 0046 BA68     		ldr	r2, [r7, #8]
 2193 0048 FB68     		ldr	r3, [r7, #12]
 2194 004a D31A     		subs	r3, r2, r3
 2195 004c 1A46     		mov	r2, r3
 2196 004e 7B68     		ldr	r3, [r7, #4]
 2197 0050 1344     		add	r3, r3, r2
 2198 0052 0022     		movs	r2, #0
 2199 0054 1A70     		strb	r2, [r3]
 536:telit.c       ****     
 537:telit.c       ****     // In the case for modules like CC864-DUAL where "," is in the middle of the MEID,
 538:telit.c       ****     // remove the comma
 539:telit.c       ****     // * Assume only 1 comma needs to be removed
 540:telit.c       ****     a = strstr(meid,",");
 2200              		.loc 1 540 0
 2201 0056 2C21     		movs	r1, #44
 2202 0058 7868     		ldr	r0, [r7, #4]
 2203 005a FFF7FEFF 		bl	strchr
 2204 005e F860     		str	r0, [r7, #12]
 541:telit.c       ****     if (a != NULL) {
 2205              		.loc 1 541 0
 2206 0060 FB68     		ldr	r3, [r7, #12]
 2207 0062 002B     		cmp	r3, #0
 2208 0064 0BD0     		beq	.L154
 542:telit.c       ****         memmove(a,a+1,strlen(meid)-1);
 2209              		.loc 1 542 0
 2210 0066 FB68     		ldr	r3, [r7, #12]
 2211 0068 5C1C     		adds	r4, r3, #1
 2212 006a 7868     		ldr	r0, [r7, #4]
 2213 006c FFF7FEFF 		bl	strlen
 2214 0070 0346     		mov	r3, r0
 2215 0072 013B     		subs	r3, r3, #1
 2216 0074 1A46     		mov	r2, r3
 2217 0076 2146     		mov	r1, r4
 2218 0078 F868     		ldr	r0, [r7, #12]
 2219 007a FFF7FEFF 		bl	memmove
 2220              	.L154:
 543:telit.c       ****     } 
 544:telit.c       **** 
 545:telit.c       ****     memset(uart_received_string,'\0',sizeof(uart_received_string));        
 2221              		.loc 1 545 0
 2222 007e 4FF48062 		mov	r2, #1024
 2223 0082 0021     		movs	r1, #0
 2224 0084 0448     		ldr	r0, .L155+4
 2225 0086 FFF7FEFF 		bl	memset
 546:telit.c       ****     return 1;    
 2226              		.loc 1 546 0
 2227 008a 0123     		movs	r3, #1
 2228              	.L152:
 547:telit.c       **** }
 2229              		.loc 1 547 0
 2230 008c 1846     		mov	r0, r3
 2231 008e 1437     		adds	r7, r7, #20
ARM GAS  C:\Users\bk\AppData\Local\Temp\ccq38zU3.s 			page 51


 2232              		.cfi_def_cfa_offset 12
 2233 0090 BD46     		mov	sp, r7
 2234              		.cfi_def_cfa_register 13
 2235              		@ sp needed
 2236 0092 90BD     		pop	{r4, r7, pc}
 2237              	.L156:
 2238              		.align	2
 2239              	.L155:
 2240 0094 B4010000 		.word	.LC28
 2241 0098 00000000 		.word	uart_received_string
 2242              		.cfi_endproc
 2243              	.LFE91:
 2244              		.size	parse_meid, .-parse_meid
 2245              		.section	.rodata
 2246 01bb 00       		.align	2
 2247              	.LC29:
 2248 01bc 41542B43 		.ascii	"AT+CGMR\015\000"
 2248      474D520D 
 2248      00
 2249              		.section	.text.modem_report_software_version,"ax",%progbits
 2250              		.align	2
 2251              		.global	modem_report_software_version
 2252              		.thumb
 2253              		.thumb_func
 2254              		.type	modem_report_software_version, %function
 2255              	modem_report_software_version:
 2256              	.LFB92:
 548:telit.c       **** 
 549:telit.c       **** uint8_t modem_report_software_version(){
 2257              		.loc 1 549 0
 2258              		.cfi_startproc
 2259              		@ args = 0, pretend = 0, frame = 0
 2260              		@ frame_needed = 1, uses_anonymous_args = 0
 2261 0000 80B5     		push	{r7, lr}
 2262              		.cfi_def_cfa_offset 8
 2263              		.cfi_offset 7, -8
 2264              		.cfi_offset 14, -4
 2265 0002 00AF     		add	r7, sp, #0
 2266              		.cfi_def_cfa_register 7
 550:telit.c       ****     return(at_write_command("AT+CGMR\r","OK",1000));
 2267              		.loc 1 550 0
 2268 0004 4FF47A72 		mov	r2, #1000
 2269 0008 0349     		ldr	r1, .L159
 2270 000a 0448     		ldr	r0, .L159+4
 2271 000c FFF7FEFF 		bl	at_write_command
 2272 0010 0346     		mov	r3, r0
 551:telit.c       **** }
 2273              		.loc 1 551 0
 2274 0012 1846     		mov	r0, r3
 2275 0014 80BD     		pop	{r7, pc}
 2276              	.L160:
 2277 0016 00BF     		.align	2
 2278              	.L159:
 2279 0018 14000000 		.word	.LC2
 2280 001c BC010000 		.word	.LC29
 2281              		.cfi_endproc
 2282              	.LFE92:
ARM GAS  C:\Users\bk\AppData\Local\Temp\ccq38zU3.s 			page 52


 2283              		.size	modem_report_software_version, .-modem_report_software_version
 2284              		.section	.rodata
 2285 01c5 000000   		.align	2
 2286              	.LC30:
 2287 01c8 41542B43 		.ascii	"AT+CGMM\015\000"
 2287      474D4D0D 
 2287      00
 2288              		.section	.text.modem_report_hardware_identification,"ax",%progbits
 2289              		.align	2
 2290              		.global	modem_report_hardware_identification
 2291              		.thumb
 2292              		.thumb_func
 2293              		.type	modem_report_hardware_identification, %function
 2294              	modem_report_hardware_identification:
 2295              	.LFB93:
 552:telit.c       **** 
 553:telit.c       **** uint8_t modem_report_hardware_identification(){
 2296              		.loc 1 553 0
 2297              		.cfi_startproc
 2298              		@ args = 0, pretend = 0, frame = 0
 2299              		@ frame_needed = 1, uses_anonymous_args = 0
 2300 0000 80B5     		push	{r7, lr}
 2301              		.cfi_def_cfa_offset 8
 2302              		.cfi_offset 7, -8
 2303              		.cfi_offset 14, -4
 2304 0002 00AF     		add	r7, sp, #0
 2305              		.cfi_def_cfa_register 7
 554:telit.c       ****     return(at_write_command("AT+CGMM\r","OK",1000));
 2306              		.loc 1 554 0
 2307 0004 4FF47A72 		mov	r2, #1000
 2308 0008 0349     		ldr	r1, .L163
 2309 000a 0448     		ldr	r0, .L163+4
 2310 000c FFF7FEFF 		bl	at_write_command
 2311 0010 0346     		mov	r3, r0
 555:telit.c       **** }
 2312              		.loc 1 555 0
 2313 0012 1846     		mov	r0, r3
 2314 0014 80BD     		pop	{r7, pc}
 2315              	.L164:
 2316 0016 00BF     		.align	2
 2317              	.L163:
 2318 0018 14000000 		.word	.LC2
 2319 001c C8010000 		.word	.LC30
 2320              		.cfi_endproc
 2321              	.LFE93:
 2322              		.size	modem_report_hardware_identification, .-modem_report_hardware_identification
 2323              		.section	.text.modem_report_product_identification,"ax",%progbits
 2324              		.align	2
 2325              		.global	modem_report_product_identification
 2326              		.thumb
 2327              		.thumb_func
 2328              		.type	modem_report_product_identification, %function
 2329              	modem_report_product_identification:
 2330              	.LFB94:
 556:telit.c       **** 
 557:telit.c       **** uint8_t modem_report_product_identification(){
 2331              		.loc 1 557 0
ARM GAS  C:\Users\bk\AppData\Local\Temp\ccq38zU3.s 			page 53


 2332              		.cfi_startproc
 2333              		@ args = 0, pretend = 0, frame = 0
 2334              		@ frame_needed = 1, uses_anonymous_args = 0
 2335 0000 80B5     		push	{r7, lr}
 2336              		.cfi_def_cfa_offset 8
 2337              		.cfi_offset 7, -8
 2338              		.cfi_offset 14, -4
 2339 0002 00AF     		add	r7, sp, #0
 2340              		.cfi_def_cfa_register 7
 558:telit.c       ****     return(at_write_command("AT+GSN=1\r","OK",1000));
 2341              		.loc 1 558 0
 2342 0004 4FF47A72 		mov	r2, #1000
 2343 0008 0349     		ldr	r1, .L167
 2344 000a 0448     		ldr	r0, .L167+4
 2345 000c FFF7FEFF 		bl	at_write_command
 2346 0010 0346     		mov	r3, r0
 559:telit.c       **** }
 2347              		.loc 1 559 0
 2348 0012 1846     		mov	r0, r3
 2349 0014 80BD     		pop	{r7, pc}
 2350              	.L168:
 2351 0016 00BF     		.align	2
 2352              	.L167:
 2353 0018 14000000 		.word	.LC2
 2354 001c 08000000 		.word	.LC1
 2355              		.cfi_endproc
 2356              	.LFE94:
 2357              		.size	modem_report_product_identification, .-modem_report_product_identification
 2358              		.section	.rodata
 2359 01d1 000000   		.align	2
 2360              	.LC31:
 2361 01d4 41542B43 		.ascii	"AT+CSQ\015\000"
 2361      53510D00 
 2362              		.align	2
 2363              	.LC32:
 2364 01dc 2B435351 		.ascii	"+CSQ: \000"
 2364      3A2000
 2365              		.section	.text.modem_check_signal_quality,"ax",%progbits
 2366              		.align	2
 2367              		.global	modem_check_signal_quality
 2368              		.thumb
 2369              		.thumb_func
 2370              		.type	modem_check_signal_quality, %function
 2371              	modem_check_signal_quality:
 2372              	.LFB95:
 560:telit.c       **** 
 561:telit.c       **** uint8 modem_check_signal_quality(int *rssi, int *fer){
 2373              		.loc 1 561 0
 2374              		.cfi_startproc
 2375              		@ args = 0, pretend = 0, frame = 40
 2376              		@ frame_needed = 1, uses_anonymous_args = 0
 2377 0000 80B5     		push	{r7, lr}
 2378              		.cfi_def_cfa_offset 8
 2379              		.cfi_offset 7, -8
 2380              		.cfi_offset 14, -4
 2381 0002 8AB0     		sub	sp, sp, #40
 2382              		.cfi_def_cfa_offset 48
ARM GAS  C:\Users\bk\AppData\Local\Temp\ccq38zU3.s 			page 54


 2383 0004 00AF     		add	r7, sp, #0
 2384              		.cfi_def_cfa_register 7
 2385 0006 7860     		str	r0, [r7, #4]
 2386 0008 3960     		str	r1, [r7]
 562:telit.c       **** /* 
 563:telit.c       **** 
 564:telit.c       **** uint8 modem_check_signal_quality(uint8 *rssi)
 565:telit.c       **** 
 566:telit.c       **** Returns the received signal strength indication (rssi) of the modem
 567:telit.c       **** This value ranges from 0-31, or is 99 if unknown/undetectable
 568:telit.c       **** 
 569:telit.c       **** Also returns the frame rate error (fer) of the modem.  
 570:telit.c       **** This value ranges from 0-7, or is 99 if unknown/undetectable.
 571:telit.c       **** (From experience, fer is almost always 99)
 572:telit.c       **** 
 573:telit.c       **** Example conversation:
 574:telit.c       **** [Board] AT+CSQ
 575:telit.c       **** [Modem] +CSQ: 17,99
 576:telit.c       **** 
 577:telit.c       ****         OK
 578:telit.c       **** */
 579:telit.c       ****     
 580:telit.c       ****     // Check for valid response from cellular module
 581:telit.c       ****     if(at_write_command("AT+CSQ\r","OK",1000u) == 1u){                  
 2387              		.loc 1 581 0
 2388 000a 4FF47A72 		mov	r2, #1000
 2389 000e 3C49     		ldr	r1, .L176
 2390 0010 3C48     		ldr	r0, .L176+4
 2391 0012 FFF7FEFF 		bl	at_write_command
 2392 0016 0346     		mov	r3, r0
 2393 0018 012B     		cmp	r3, #1
 2394 001a 6CD1     		bne	.L170
 2395              	.LBB6:
 582:telit.c       ****         
 583:telit.c       ****         // If successful, parse the string received over uart for the rssi value
 584:telit.c       ****         char *a, *b, *c;
 585:telit.c       ****         char rssi_str[5] = {'\0'}, fer_str[5] = {'\0'};
 2396              		.loc 1 585 0
 2397 001c 07F11403 		add	r3, r7, #20
 2398 0020 0022     		movs	r2, #0
 2399 0022 1A60     		str	r2, [r3]
 2400 0024 1A71     		strb	r2, [r3, #4]
 2401 0026 07F10C03 		add	r3, r7, #12
 2402 002a 0022     		movs	r2, #0
 2403 002c 1A60     		str	r2, [r3]
 2404 002e 1A71     		strb	r2, [r3, #4]
 586:telit.c       **** 
 587:telit.c       ****         // Expect the UART to contain something like "+CSQ: 17,99\r\n\r\nOK"
 588:telit.c       ****         // - Search for "+CSQ: ".  Place the starting pointer, a, at the resulting index
 589:telit.c       ****         a = strstr(uart_received_string,"+CSQ: ");
 2405              		.loc 1 589 0
 2406 0030 3549     		ldr	r1, .L176+8
 2407 0032 3648     		ldr	r0, .L176+12
 2408 0034 FFF7FEFF 		bl	strstr
 2409 0038 7862     		str	r0, [r7, #36]
 590:telit.c       ****         if (a == NULL) {
 2410              		.loc 1 590 0
ARM GAS  C:\Users\bk\AppData\Local\Temp\ccq38zU3.s 			page 55


 2411 003a 7B6A     		ldr	r3, [r7, #36]
 2412 003c 002B     		cmp	r3, #0
 2413 003e 01D1     		bne	.L171
 591:telit.c       ****             //puts("+CSQ: not found in uart_received_string");
 592:telit.c       ****             return 0u;
 2414              		.loc 1 592 0
 2415 0040 0023     		movs	r3, #0
 2416 0042 59E0     		b	.L175
 2417              	.L171:
 593:telit.c       ****         }
 594:telit.c       ****         // - Shift the pointer to the beginning of the rssi value, i.e. "17,99\r\n\r\n\OK"
 595:telit.c       ****         a += strlen("+CSQ: ");
 2418              		.loc 1 595 0
 2419 0044 7B6A     		ldr	r3, [r7, #36]
 2420 0046 0633     		adds	r3, r3, #6
 2421 0048 7B62     		str	r3, [r7, #36]
 596:telit.c       ****         
 597:telit.c       ****         // - Find the comma marking after "+CSQ: " that follows the rssi value
 598:telit.c       ****         b = strstr(a,",");
 2422              		.loc 1 598 0
 2423 004a 2C21     		movs	r1, #44
 2424 004c 786A     		ldr	r0, [r7, #36]
 2425 004e FFF7FEFF 		bl	strchr
 2426 0052 3862     		str	r0, [r7, #32]
 599:telit.c       ****         if (b == NULL) {
 2427              		.loc 1 599 0
 2428 0054 3B6A     		ldr	r3, [r7, #32]
 2429 0056 002B     		cmp	r3, #0
 2430 0058 01D1     		bne	.L173
 600:telit.c       ****             //puts("Comma not found in uart_received_string");
 601:telit.c       ****             return 0u;
 2431              		.loc 1 601 0
 2432 005a 0023     		movs	r3, #0
 2433 005c 4CE0     		b	.L175
 2434              	.L173:
 602:telit.c       ****         }        
 603:telit.c       **** 
 604:telit.c       ****         // - Find the carriage return after the comma that follows the fer value
 605:telit.c       ****         c = strstr(b + strlen(","),"\r");
 2435              		.loc 1 605 0
 2436 005e 3B6A     		ldr	r3, [r7, #32]
 2437 0060 0133     		adds	r3, r3, #1
 2438 0062 0D21     		movs	r1, #13
 2439 0064 1846     		mov	r0, r3
 2440 0066 FFF7FEFF 		bl	strchr
 2441 006a F861     		str	r0, [r7, #28]
 606:telit.c       ****         if (c == NULL) {
 2442              		.loc 1 606 0
 2443 006c FB69     		ldr	r3, [r7, #28]
 2444 006e 002B     		cmp	r3, #0
 2445 0070 01D1     		bne	.L174
 607:telit.c       ****             //puts("\r not found in uart_received_string");
 608:telit.c       ****             return 0u;
 2446              		.loc 1 608 0
 2447 0072 0023     		movs	r3, #0
 2448 0074 40E0     		b	.L175
 2449              	.L174:
ARM GAS  C:\Users\bk\AppData\Local\Temp\ccq38zU3.s 			page 56


 609:telit.c       ****         }
 610:telit.c       ****         
 611:telit.c       ****         // Parse the strings and store the respective rssi and fer values
 612:telit.c       ****         strncpy(rssi_str,a,b-a);
 2450              		.loc 1 612 0
 2451 0076 3A6A     		ldr	r2, [r7, #32]
 2452 0078 7B6A     		ldr	r3, [r7, #36]
 2453 007a D31A     		subs	r3, r2, r3
 2454 007c 1A46     		mov	r2, r3
 2455 007e 07F11403 		add	r3, r7, #20
 2456 0082 796A     		ldr	r1, [r7, #36]
 2457 0084 1846     		mov	r0, r3
 2458 0086 FFF7FEFF 		bl	strncpy
 613:telit.c       ****         rssi_str[b-a] = '\0';
 2459              		.loc 1 613 0
 2460 008a 3A6A     		ldr	r2, [r7, #32]
 2461 008c 7B6A     		ldr	r3, [r7, #36]
 2462 008e D31A     		subs	r3, r2, r3
 2463 0090 07F12802 		add	r2, r7, #40
 2464 0094 1344     		add	r3, r3, r2
 2465 0096 0022     		movs	r2, #0
 2466 0098 03F8142C 		strb	r2, [r3, #-20]
 614:telit.c       ****         // - Store the rssi value in *rssi
 615:telit.c       ****         *rssi = (uint8) strtol(rssi_str,(char **) NULL, 10); // Base 10
 2467              		.loc 1 615 0
 2468 009c 07F11403 		add	r3, r7, #20
 2469 00a0 0A22     		movs	r2, #10
 2470 00a2 0021     		movs	r1, #0
 2471 00a4 1846     		mov	r0, r3
 2472 00a6 FFF7FEFF 		bl	strtol
 2473 00aa 0346     		mov	r3, r0
 2474 00ac DAB2     		uxtb	r2, r3
 2475 00ae 7B68     		ldr	r3, [r7, #4]
 2476 00b0 1A60     		str	r2, [r3]
 616:telit.c       **** 
 617:telit.c       ****         strncpy(fer_str,b+strlen(","),c-b+strlen(","));
 2477              		.loc 1 617 0
 2478 00b2 3B6A     		ldr	r3, [r7, #32]
 2479 00b4 591C     		adds	r1, r3, #1
 2480 00b6 FA69     		ldr	r2, [r7, #28]
 2481 00b8 3B6A     		ldr	r3, [r7, #32]
 2482 00ba D31A     		subs	r3, r2, r3
 2483 00bc 5A1C     		adds	r2, r3, #1
 2484 00be 07F10C03 		add	r3, r7, #12
 2485 00c2 1846     		mov	r0, r3
 2486 00c4 FFF7FEFF 		bl	strncpy
 618:telit.c       ****         fer_str[c-b+strlen(",")] = '\0';
 2487              		.loc 1 618 0
 2488 00c8 FA69     		ldr	r2, [r7, #28]
 2489 00ca 3B6A     		ldr	r3, [r7, #32]
 2490 00cc D31A     		subs	r3, r2, r3
 2491 00ce 0133     		adds	r3, r3, #1
 2492 00d0 07F12802 		add	r2, r7, #40
 2493 00d4 1344     		add	r3, r3, r2
 2494 00d6 0022     		movs	r2, #0
 2495 00d8 03F81C2C 		strb	r2, [r3, #-28]
 619:telit.c       ****         // - Store the fer value in *fer
ARM GAS  C:\Users\bk\AppData\Local\Temp\ccq38zU3.s 			page 57


 620:telit.c       ****         *fer = (uint8) strtol(fer_str,(char **) NULL, 10); // Base 10
 2496              		.loc 1 620 0
 2497 00dc 07F10C03 		add	r3, r7, #12
 2498 00e0 0A22     		movs	r2, #10
 2499 00e2 0021     		movs	r1, #0
 2500 00e4 1846     		mov	r0, r3
 2501 00e6 FFF7FEFF 		bl	strtol
 2502 00ea 0346     		mov	r3, r0
 2503 00ec DAB2     		uxtb	r2, r3
 2504 00ee 3B68     		ldr	r3, [r7]
 2505 00f0 1A60     		str	r2, [r3]
 621:telit.c       ****         
 622:telit.c       ****         //printf("rssi: %d\r\n",rssi);
 623:telit.c       ****         //printf("fer: %d\r\n",fer);
 624:telit.c       **** 
 625:telit.c       ****         return 1u;
 2506              		.loc 1 625 0
 2507 00f2 0123     		movs	r3, #1
 2508 00f4 00E0     		b	.L175
 2509              	.L170:
 2510              	.LBE6:
 626:telit.c       ****     }    
 627:telit.c       ****     
 628:telit.c       ****     return 0u;  
 2511              		.loc 1 628 0
 2512 00f6 0023     		movs	r3, #0
 2513              	.L175:
 629:telit.c       **** }
 2514              		.loc 1 629 0 discriminator 1
 2515 00f8 1846     		mov	r0, r3
 2516 00fa 2837     		adds	r7, r7, #40
 2517              		.cfi_def_cfa_offset 8
 2518 00fc BD46     		mov	sp, r7
 2519              		.cfi_def_cfa_register 13
 2520              		@ sp needed
 2521 00fe 80BD     		pop	{r7, pc}
 2522              	.L177:
 2523              		.align	2
 2524              	.L176:
 2525 0100 14000000 		.word	.LC2
 2526 0104 D4010000 		.word	.LC31
 2527 0108 DC010000 		.word	.LC32
 2528 010c 00000000 		.word	uart_received_string
 2529              		.cfi_endproc
 2530              	.LFE95:
 2531              		.size	modem_check_signal_quality, .-modem_check_signal_quality
 2532              		.section	.rodata
 2533 01e3 00       		.align	2
 2534              	.LC33:
 2535 01e4 41542B43 		.ascii	"AT+CGDCONT=3,\"IP\",\"n.ispsn\"\015\000"
 2535      4744434F 
 2535      4E543D33 
 2535      2C224950 
 2535      222C226E 
 2536              		.section	.text.modem_define_PDP,"ax",%progbits
 2537              		.align	2
 2538              		.global	modem_define_PDP
ARM GAS  C:\Users\bk\AppData\Local\Temp\ccq38zU3.s 			page 58


 2539              		.thumb
 2540              		.thumb_func
 2541              		.type	modem_define_PDP, %function
 2542              	modem_define_PDP:
 2543              	.LFB96:
 630:telit.c       **** 
 631:telit.c       **** uint8_t modem_define_PDP(){
 2544              		.loc 1 631 0
 2545              		.cfi_startproc
 2546              		@ args = 0, pretend = 0, frame = 0
 2547              		@ frame_needed = 1, uses_anonymous_args = 0
 2548 0000 80B5     		push	{r7, lr}
 2549              		.cfi_def_cfa_offset 8
 2550              		.cfi_offset 7, -8
 2551              		.cfi_offset 14, -4
 2552 0002 00AF     		add	r7, sp, #0
 2553              		.cfi_def_cfa_register 7
 632:telit.c       ****     return(at_write_command("AT+CGDCONT=3,\"IP\",\"n.ispsn\"\r","OK",2000)); // BPW
 2554              		.loc 1 632 0
 2555 0004 4FF4FA62 		mov	r2, #2000
 2556 0008 0349     		ldr	r1, .L180
 2557 000a 0448     		ldr	r0, .L180+4
 2558 000c FFF7FEFF 		bl	at_write_command
 2559 0010 0346     		mov	r3, r0
 633:telit.c       ****     //return(at_write_command("AT+CGDCONT=1,\"IPV4V6\",\"wholesale\"\r","OK",60000));
 634:telit.c       **** }
 2560              		.loc 1 634 0
 2561 0012 1846     		mov	r0, r3
 2562 0014 80BD     		pop	{r7, pc}
 2563              	.L181:
 2564 0016 00BF     		.align	2
 2565              	.L180:
 2566 0018 14000000 		.word	.LC2
 2567 001c E4010000 		.word	.LC33
 2568              		.cfi_endproc
 2569              	.LFE96:
 2570              		.size	modem_define_PDP, .-modem_define_PDP
 2571              		.section	.rodata
 2572 0201 000000   		.align	2
 2573              	.LC34:
 2574 0204 4154264B 		.ascii	"AT&K%u\015\000"
 2574      25750D00 
 2575              		.section	.text.modem_set_flow_control,"ax",%progbits
 2576              		.align	2
 2577              		.global	modem_set_flow_control
 2578              		.thumb
 2579              		.thumb_func
 2580              		.type	modem_set_flow_control, %function
 2581              	modem_set_flow_control:
 2582              	.LFB97:
 635:telit.c       **** 
 636:telit.c       **** uint8 modem_set_flow_control(uint8 param){
 2583              		.loc 1 636 0
 2584              		.cfi_startproc
 2585              		@ args = 0, pretend = 0, frame = 112
 2586              		@ frame_needed = 1, uses_anonymous_args = 0
 2587 0000 80B5     		push	{r7, lr}
ARM GAS  C:\Users\bk\AppData\Local\Temp\ccq38zU3.s 			page 59


 2588              		.cfi_def_cfa_offset 8
 2589              		.cfi_offset 7, -8
 2590              		.cfi_offset 14, -4
 2591 0002 9CB0     		sub	sp, sp, #112
 2592              		.cfi_def_cfa_offset 120
 2593 0004 00AF     		add	r7, sp, #0
 2594              		.cfi_def_cfa_register 7
 2595 0006 0346     		mov	r3, r0
 2596 0008 FB71     		strb	r3, [r7, #7]
 637:telit.c       ****     char cmd[100]={'\0'};   
 2597              		.loc 1 637 0
 2598 000a 07F10C03 		add	r3, r7, #12
 2599 000e 6422     		movs	r2, #100
 2600 0010 0021     		movs	r1, #0
 2601 0012 1846     		mov	r0, r3
 2602 0014 FFF7FEFF 		bl	memset
 638:telit.c       ****     sprintf(cmd,"AT&K%u\r",param);
 2603              		.loc 1 638 0
 2604 0018 FA79     		ldrb	r2, [r7, #7]	@ zero_extendqisi2
 2605 001a 07F10C03 		add	r3, r7, #12
 2606 001e 0849     		ldr	r1, .L184
 2607 0020 1846     		mov	r0, r3
 2608 0022 FFF7FEFF 		bl	sprintf
 639:telit.c       ****     return(at_write_command(cmd,"OK",1000u));
 2609              		.loc 1 639 0
 2610 0026 07F10C03 		add	r3, r7, #12
 2611 002a 4FF47A72 		mov	r2, #1000
 2612 002e 0549     		ldr	r1, .L184+4
 2613 0030 1846     		mov	r0, r3
 2614 0032 FFF7FEFF 		bl	at_write_command
 2615 0036 0346     		mov	r3, r0
 640:telit.c       ****     //return(at_write_command("AT&K0\r","OK",1000u));
 641:telit.c       **** }
 2616              		.loc 1 641 0
 2617 0038 1846     		mov	r0, r3
 2618 003a 7037     		adds	r7, r7, #112
 2619              		.cfi_def_cfa_offset 8
 2620 003c BD46     		mov	sp, r7
 2621              		.cfi_def_cfa_register 13
 2622              		@ sp needed
 2623 003e 80BD     		pop	{r7, pc}
 2624              	.L185:
 2625              		.align	2
 2626              	.L184:
 2627 0040 04020000 		.word	.LC34
 2628 0044 14000000 		.word	.LC2
 2629              		.cfi_endproc
 2630              	.LFE97:
 2631              		.size	modem_set_flow_control, .-modem_set_flow_control
 2632              		.section	.rodata
 2633              		.align	2
 2634              	.LC35:
 2635 020c 41542B43 		.ascii	"AT+CMEE=%u\015\000"
 2635      4D45453D 
 2635      25750D00 
 2636              		.section	.text.modem_set_error_reports,"ax",%progbits
 2637              		.align	2
ARM GAS  C:\Users\bk\AppData\Local\Temp\ccq38zU3.s 			page 60


 2638              		.global	modem_set_error_reports
 2639              		.thumb
 2640              		.thumb_func
 2641              		.type	modem_set_error_reports, %function
 2642              	modem_set_error_reports:
 2643              	.LFB98:
 642:telit.c       **** 
 643:telit.c       **** uint8 modem_set_error_reports(uint8 param){	
 2644              		.loc 1 643 0
 2645              		.cfi_startproc
 2646              		@ args = 0, pretend = 0, frame = 112
 2647              		@ frame_needed = 1, uses_anonymous_args = 0
 2648 0000 80B5     		push	{r7, lr}
 2649              		.cfi_def_cfa_offset 8
 2650              		.cfi_offset 7, -8
 2651              		.cfi_offset 14, -4
 2652 0002 9CB0     		sub	sp, sp, #112
 2653              		.cfi_def_cfa_offset 120
 2654 0004 00AF     		add	r7, sp, #0
 2655              		.cfi_def_cfa_register 7
 2656 0006 0346     		mov	r3, r0
 2657 0008 FB71     		strb	r3, [r7, #7]
 644:telit.c       ****     char cmd[100]={'\0'};    
 2658              		.loc 1 644 0
 2659 000a 07F10C03 		add	r3, r7, #12
 2660 000e 6422     		movs	r2, #100
 2661 0010 0021     		movs	r1, #0
 2662 0012 1846     		mov	r0, r3
 2663 0014 FFF7FEFF 		bl	memset
 645:telit.c       ****     sprintf(cmd,"AT+CMEE=%u\r",param);
 2664              		.loc 1 645 0
 2665 0018 FA79     		ldrb	r2, [r7, #7]	@ zero_extendqisi2
 2666 001a 07F10C03 		add	r3, r7, #12
 2667 001e 0849     		ldr	r1, .L188
 2668 0020 1846     		mov	r0, r3
 2669 0022 FFF7FEFF 		bl	sprintf
 646:telit.c       ****     return(at_write_command(cmd,"OK",1000u));
 2670              		.loc 1 646 0
 2671 0026 07F10C03 		add	r3, r7, #12
 2672 002a 4FF47A72 		mov	r2, #1000
 2673 002e 0549     		ldr	r1, .L188+4
 2674 0030 1846     		mov	r0, r3
 2675 0032 FFF7FEFF 		bl	at_write_command
 2676 0036 0346     		mov	r3, r0
 647:telit.c       ****     //return(at_write_command("AT+CMEE=2\r","OK",1000u));
 648:telit.c       **** }
 2677              		.loc 1 648 0
 2678 0038 1846     		mov	r0, r3
 2679 003a 7037     		adds	r7, r7, #112
 2680              		.cfi_def_cfa_offset 8
 2681 003c BD46     		mov	sp, r7
 2682              		.cfi_def_cfa_register 13
 2683              		@ sp needed
 2684 003e 80BD     		pop	{r7, pc}
 2685              	.L189:
 2686              		.align	2
 2687              	.L188:
ARM GAS  C:\Users\bk\AppData\Local\Temp\ccq38zU3.s 			page 61


 2688 0040 0C020000 		.word	.LC35
 2689 0044 14000000 		.word	.LC2
 2690              		.cfi_endproc
 2691              	.LFE98:
 2692              		.size	modem_set_error_reports, .-modem_set_error_reports
 2693              		.section	.text.modem_setup,"ax",%progbits
 2694              		.align	2
 2695              		.global	modem_setup
 2696              		.thumb
 2697              		.thumb_func
 2698              		.type	modem_setup, %function
 2699              	modem_setup:
 2700              	.LFB99:
 649:telit.c       **** 
 650:telit.c       **** uint8 modem_setup() {
 2701              		.loc 1 650 0
 2702              		.cfi_startproc
 2703              		@ args = 0, pretend = 0, frame = 0
 2704              		@ frame_needed = 1, uses_anonymous_args = 0
 2705 0000 80B5     		push	{r7, lr}
 2706              		.cfi_def_cfa_offset 8
 2707              		.cfi_offset 7, -8
 2708              		.cfi_offset 14, -4
 2709 0002 00AF     		add	r7, sp, #0
 2710              		.cfi_def_cfa_register 7
 651:telit.c       **** /* Initialize configurations for the modem */
 652:telit.c       **** 	// Set Error Reports to verbose mode
 653:telit.c       **** 	return(modem_set_error_reports(2u));
 2711              		.loc 1 653 0
 2712 0004 0220     		movs	r0, #2
 2713 0006 FFF7FEFF 		bl	modem_set_error_reports
 2714 000a 0346     		mov	r3, r0
 654:telit.c       **** 
 655:telit.c       **** }
 2715              		.loc 1 655 0
 2716 000c 1846     		mov	r0, r3
 2717 000e 80BD     		pop	{r7, pc}
 2718              		.cfi_endproc
 2719              	.LFE99:
 2720              		.size	modem_setup, .-modem_setup
 2721              		.section	.text.modem_check_network,"ax",%progbits
 2722              		.align	2
 2723              		.global	modem_check_network
 2724              		.thumb
 2725              		.thumb_func
 2726              		.type	modem_check_network, %function
 2727              	modem_check_network:
 2728              	.LFB100:
 656:telit.c       **** 
 657:telit.c       **** uint8_t modem_check_network(){
 2729              		.loc 1 657 0
 2730              		.cfi_startproc
 2731              		@ args = 0, pretend = 0, frame = 0
 2732              		@ frame_needed = 1, uses_anonymous_args = 0
 2733 0000 80B5     		push	{r7, lr}
 2734              		.cfi_def_cfa_offset 8
 2735              		.cfi_offset 7, -8
ARM GAS  C:\Users\bk\AppData\Local\Temp\ccq38zU3.s 			page 62


 2736              		.cfi_offset 14, -4
 2737 0002 00AF     		add	r7, sp, #0
 2738              		.cfi_def_cfa_register 7
 658:telit.c       ****     return(at_write_command("AT+CGREG?\r",",1",1000));
 2739              		.loc 1 658 0
 2740 0004 4FF47A72 		mov	r2, #1000
 2741 0008 0349     		ldr	r1, .L194
 2742 000a 0448     		ldr	r0, .L194+4
 2743 000c FFF7FEFF 		bl	at_write_command
 2744 0010 0346     		mov	r3, r0
 659:telit.c       ****    
 660:telit.c       **** }
 2745              		.loc 1 660 0
 2746 0012 1846     		mov	r0, r3
 2747 0014 80BD     		pop	{r7, pc}
 2748              	.L195:
 2749 0016 00BF     		.align	2
 2750              	.L194:
 2751 0018 30000000 		.word	.LC5
 2752 001c 24000000 		.word	.LC4
 2753              		.cfi_endproc
 2754              	.LFE100:
 2755              		.size	modem_check_network, .-modem_check_network
 2756              		.section	.text.modem_activate_pdp_context,"ax",%progbits
 2757              		.align	2
 2758              		.global	modem_activate_pdp_context
 2759              		.thumb
 2760              		.thumb_func
 2761              		.type	modem_activate_pdp_context, %function
 2762              	modem_activate_pdp_context:
 2763              	.LFB101:
 661:telit.c       **** 
 662:telit.c       **** uint8_t modem_activate_pdp_context(){
 2764              		.loc 1 662 0
 2765              		.cfi_startproc
 2766              		@ args = 0, pretend = 0, frame = 8
 2767              		@ frame_needed = 1, uses_anonymous_args = 0
 2768 0000 80B5     		push	{r7, lr}
 2769              		.cfi_def_cfa_offset 8
 2770              		.cfi_offset 7, -8
 2771              		.cfi_offset 14, -4
 2772 0002 82B0     		sub	sp, sp, #8
 2773              		.cfi_def_cfa_offset 16
 2774 0004 00AF     		add	r7, sp, #0
 2775              		.cfi_def_cfa_register 7
 663:telit.c       ****     
 664:telit.c       ****     uint8_t status=at_write_command("AT#SGACT?\r",",1",1000u);
 2776              		.loc 1 664 0
 2777 0006 4FF47A72 		mov	r2, #1000
 2778 000a 0B49     		ldr	r1, .L199
 2779 000c 0B48     		ldr	r0, .L199+4
 2780 000e FFF7FEFF 		bl	at_write_command
 2781 0012 0346     		mov	r3, r0
 2782 0014 FB71     		strb	r3, [r7, #7]
 665:telit.c       ****     if(status==1) return(1);
 2783              		.loc 1 665 0
 2784 0016 FB79     		ldrb	r3, [r7, #7]	@ zero_extendqisi2
ARM GAS  C:\Users\bk\AppData\Local\Temp\ccq38zU3.s 			page 63


 2785 0018 012B     		cmp	r3, #1
 2786 001a 01D1     		bne	.L197
 2787              		.loc 1 665 0 is_stmt 0 discriminator 1
 2788 001c 0123     		movs	r3, #1
 2789 001e 06E0     		b	.L198
 2790              	.L197:
 666:telit.c       ****     else return(at_write_command("AT#SGACT=3,1\r","OK",2000u));        
 2791              		.loc 1 666 0 is_stmt 1
 2792 0020 4FF4FA62 		mov	r2, #2000
 2793 0024 0649     		ldr	r1, .L199+8
 2794 0026 0748     		ldr	r0, .L199+12
 2795 0028 FFF7FEFF 		bl	at_write_command
 2796 002c 0346     		mov	r3, r0
 2797              	.L198:
 667:telit.c       **** }
 2798              		.loc 1 667 0
 2799 002e 1846     		mov	r0, r3
 2800 0030 0837     		adds	r7, r7, #8
 2801              		.cfi_def_cfa_offset 8
 2802 0032 BD46     		mov	sp, r7
 2803              		.cfi_def_cfa_register 13
 2804              		@ sp needed
 2805 0034 80BD     		pop	{r7, pc}
 2806              	.L200:
 2807 0036 00BF     		.align	2
 2808              	.L199:
 2809 0038 30000000 		.word	.LC5
 2810 003c 34000000 		.word	.LC6
 2811 0040 14000000 		.word	.LC2
 2812 0044 40000000 		.word	.LC7
 2813              		.cfi_endproc
 2814              	.LFE101:
 2815              		.size	modem_activate_pdp_context, .-modem_activate_pdp_context
 2816              		.section	.text.modem_connect,"ax",%progbits
 2817              		.align	2
 2818              		.global	modem_connect
 2819              		.thumb
 2820              		.thumb_func
 2821              		.type	modem_connect, %function
 2822              	modem_connect:
 2823              	.LFB102:
 668:telit.c       **** 
 669:telit.c       **** 
 670:telit.c       **** uint8_t modem_connect(){
 2824              		.loc 1 670 0
 2825              		.cfi_startproc
 2826              		@ args = 0, pretend = 0, frame = 8
 2827              		@ frame_needed = 1, uses_anonymous_args = 0
 2828 0000 80B5     		push	{r7, lr}
 2829              		.cfi_def_cfa_offset 8
 2830              		.cfi_offset 7, -8
 2831              		.cfi_offset 14, -4
 2832 0002 82B0     		sub	sp, sp, #8
 2833              		.cfi_def_cfa_offset 16
 2834 0004 00AF     		add	r7, sp, #0
 2835              		.cfi_def_cfa_register 7
 671:telit.c       ****     /* check registration*/
ARM GAS  C:\Users\bk\AppData\Local\Temp\ccq38zU3.s 			page 64


 672:telit.c       ****     uint8_t network_status,counter=0;
 2836              		.loc 1 672 0
 2837 0006 0023     		movs	r3, #0
 2838 0008 FB71     		strb	r3, [r7, #7]
 2839              	.L204:
 673:telit.c       ****     do{
 674:telit.c       ****         network_status=modem_check_network();        
 2840              		.loc 1 674 0
 2841 000a FFF7FEFF 		bl	modem_check_network
 2842 000e 0346     		mov	r3, r0
 2843 0010 BB71     		strb	r3, [r7, #6]
 675:telit.c       ****         if(network_status==1) break;
 2844              		.loc 1 675 0
 2845 0012 BB79     		ldrb	r3, [r7, #6]	@ zero_extendqisi2
 2846 0014 012B     		cmp	r3, #1
 2847 0016 0AD0     		beq	.L209
 676:telit.c       ****         CyDelay(1000);
 2848              		.loc 1 676 0
 2849 0018 4FF47A70 		mov	r0, #1000
 2850 001c FFF7FEFF 		bl	CyDelay
 677:telit.c       ****         counter++;
 2851              		.loc 1 677 0
 2852 0020 FB79     		ldrb	r3, [r7, #7]	@ zero_extendqisi2
 2853 0022 0133     		adds	r3, r3, #1
 2854 0024 FB71     		strb	r3, [r7, #7]
 678:telit.c       ****     }while(counter<3);
 2855              		.loc 1 678 0
 2856 0026 FB79     		ldrb	r3, [r7, #7]	@ zero_extendqisi2
 2857 0028 022B     		cmp	r3, #2
 2858 002a EED9     		bls	.L204
 2859 002c 00E0     		b	.L203
 2860              	.L209:
 675:telit.c       ****         CyDelay(1000);
 2861              		.loc 1 675 0
 2862 002e 00BF     		nop
 2863              	.L203:
 679:telit.c       ****     
 680:telit.c       ****     counter=0;
 2864              		.loc 1 680 0
 2865 0030 0023     		movs	r3, #0
 2866 0032 FB71     		strb	r3, [r7, #7]
 681:telit.c       ****     
 682:telit.c       ****     /* check or activate PDP context*/
 683:telit.c       ****     if(network_status==1){
 2867              		.loc 1 683 0
 2868 0034 BB79     		ldrb	r3, [r7, #6]	@ zero_extendqisi2
 2869 0036 012B     		cmp	r3, #1
 2870 0038 12D1     		bne	.L205
 2871              	.L208:
 684:telit.c       ****         do{
 685:telit.c       ****             network_status=modem_activate_pdp_context();
 2872              		.loc 1 685 0
 2873 003a FFF7FEFF 		bl	modem_activate_pdp_context
 2874 003e 0346     		mov	r3, r0
 2875 0040 BB71     		strb	r3, [r7, #6]
 686:telit.c       ****            if(network_status==1)return(1);           
 2876              		.loc 1 686 0
ARM GAS  C:\Users\bk\AppData\Local\Temp\ccq38zU3.s 			page 65


 2877 0042 BB79     		ldrb	r3, [r7, #6]	@ zero_extendqisi2
 2878 0044 012B     		cmp	r3, #1
 2879 0046 01D1     		bne	.L206
 2880              		.loc 1 686 0 is_stmt 0 discriminator 1
 2881 0048 0123     		movs	r3, #1
 2882 004a 0AE0     		b	.L207
 2883              	.L206:
 687:telit.c       ****             CyDelay(1000);
 2884              		.loc 1 687 0 is_stmt 1
 2885 004c 4FF47A70 		mov	r0, #1000
 2886 0050 FFF7FEFF 		bl	CyDelay
 688:telit.c       ****             counter++;
 2887              		.loc 1 688 0
 2888 0054 FB79     		ldrb	r3, [r7, #7]	@ zero_extendqisi2
 2889 0056 0133     		adds	r3, r3, #1
 2890 0058 FB71     		strb	r3, [r7, #7]
 689:telit.c       ****         }while(counter<3);      
 2891              		.loc 1 689 0
 2892 005a FB79     		ldrb	r3, [r7, #7]	@ zero_extendqisi2
 2893 005c 022B     		cmp	r3, #2
 2894 005e ECD9     		bls	.L208
 2895              	.L205:
 690:telit.c       ****     }
 691:telit.c       ****     return(0);   
 2896              		.loc 1 691 0
 2897 0060 0023     		movs	r3, #0
 2898              	.L207:
 692:telit.c       **** }
 2899              		.loc 1 692 0
 2900 0062 1846     		mov	r0, r3
 2901 0064 0837     		adds	r7, r7, #8
 2902              		.cfi_def_cfa_offset 8
 2903 0066 BD46     		mov	sp, r7
 2904              		.cfi_def_cfa_register 13
 2905              		@ sp needed
 2906 0068 80BD     		pop	{r7, pc}
 2907              		.cfi_endproc
 2908              	.LFE102:
 2909              		.size	modem_connect, .-modem_connect
 2910 006a 00BF     		.section	.rodata
 2911              		.align	2
 2912              	.LC36:
 2913 0218 48545450 		.ascii	"HTTP/\000"
 2913      2F00
 2914 021e 0000     		.align	2
 2915              	.LC37:
 2916 0220 0D0A00   		.ascii	"\015\012\000"
 2917              		.section	.text.parse_http_status,"ax",%progbits
 2918              		.align	2
 2919              		.global	parse_http_status
 2920              		.thumb
 2921              		.thumb_func
 2922              		.type	parse_http_status, %function
 2923              	parse_http_status:
 2924              	.LFB103:
 693:telit.c       **** 
 694:telit.c       **** 
ARM GAS  C:\Users\bk\AppData\Local\Temp\ccq38zU3.s 			page 66


 695:telit.c       **** /*
 696:telit.c       **** Searches a string "http_status" for and attempts to parse the status line.
 697:telit.c       **** Leverages Status-Line protocol for HTTP/1.0 and HTTP/1.1
 698:telit.c       **** 
 699:telit.c       ****     Status-Line = HTTP-Version SP Status-Code SP Reason-Phrase CRLF
 700:telit.c       **** 
 701:telit.c       **** (See https://www.w3.org/Protocols/HTTP/1.0/spec.html#Status-Line.
 702:telit.c       ****  SP is a space, CRLF is carriage return line feed)
 703:telit.c       **** 
 704:telit.c       **** Stores the results in "version", "status_code", and "phrase"
 705:telit.c       **** */
 706:telit.c       **** uint8 parse_http_status(char* http_status, char* version, char* status_code, char* phrase) {
 2925              		.loc 1 706 0
 2926              		.cfi_startproc
 2927              		@ args = 0, pretend = 0, frame = 24
 2928              		@ frame_needed = 1, uses_anonymous_args = 0
 2929 0000 80B5     		push	{r7, lr}
 2930              		.cfi_def_cfa_offset 8
 2931              		.cfi_offset 7, -8
 2932              		.cfi_offset 14, -4
 2933 0002 86B0     		sub	sp, sp, #24
 2934              		.cfi_def_cfa_offset 32
 2935 0004 00AF     		add	r7, sp, #0
 2936              		.cfi_def_cfa_register 7
 2937 0006 F860     		str	r0, [r7, #12]
 2938 0008 B960     		str	r1, [r7, #8]
 2939 000a 7A60     		str	r2, [r7, #4]
 2940 000c 3B60     		str	r3, [r7]
 707:telit.c       ****     char *a, *b;
 708:telit.c       ****     
 709:telit.c       ****     // Find the version and copy to "version"
 710:telit.c       ****     a = strstr(http_status,"HTTP/");
 2941              		.loc 1 710 0
 2942 000e 2749     		ldr	r1, .L216
 2943 0010 F868     		ldr	r0, [r7, #12]
 2944 0012 FFF7FEFF 		bl	strstr
 2945 0016 7861     		str	r0, [r7, #20]
 711:telit.c       ****     if (a == NULL) {
 2946              		.loc 1 711 0
 2947 0018 7B69     		ldr	r3, [r7, #20]
 2948 001a 002B     		cmp	r3, #0
 2949 001c 01D1     		bne	.L211
 712:telit.c       ****         return 0u;
 2950              		.loc 1 712 0
 2951 001e 0023     		movs	r3, #0
 2952 0020 3FE0     		b	.L212
 2953              	.L211:
 713:telit.c       ****     }
 714:telit.c       ****     a += strlen("HTTP/");
 2954              		.loc 1 714 0
 2955 0022 7B69     		ldr	r3, [r7, #20]
 2956 0024 0533     		adds	r3, r3, #5
 2957 0026 7B61     		str	r3, [r7, #20]
 715:telit.c       ****     b = strstr(a," ");
 2958              		.loc 1 715 0
 2959 0028 2021     		movs	r1, #32
 2960 002a 7869     		ldr	r0, [r7, #20]
ARM GAS  C:\Users\bk\AppData\Local\Temp\ccq38zU3.s 			page 67


 2961 002c FFF7FEFF 		bl	strchr
 2962 0030 3861     		str	r0, [r7, #16]
 716:telit.c       ****     if (b == NULL) {
 2963              		.loc 1 716 0
 2964 0032 3B69     		ldr	r3, [r7, #16]
 2965 0034 002B     		cmp	r3, #0
 2966 0036 01D1     		bne	.L213
 717:telit.c       ****         return 0u;
 2967              		.loc 1 717 0
 2968 0038 0023     		movs	r3, #0
 2969 003a 32E0     		b	.L212
 2970              	.L213:
 718:telit.c       ****     }
 719:telit.c       ****     strncpy(version,a,b-a);
 2971              		.loc 1 719 0
 2972 003c 3A69     		ldr	r2, [r7, #16]
 2973 003e 7B69     		ldr	r3, [r7, #20]
 2974 0040 D31A     		subs	r3, r2, r3
 2975 0042 1A46     		mov	r2, r3
 2976 0044 7969     		ldr	r1, [r7, #20]
 2977 0046 B868     		ldr	r0, [r7, #8]
 2978 0048 FFF7FEFF 		bl	strncpy
 720:telit.c       ****     
 721:telit.c       ****     // Find the status code and copy to "status_code"
 722:telit.c       ****     a = b+1;
 2979              		.loc 1 722 0
 2980 004c 3B69     		ldr	r3, [r7, #16]
 2981 004e 0133     		adds	r3, r3, #1
 2982 0050 7B61     		str	r3, [r7, #20]
 723:telit.c       ****     b = strstr(a," ");
 2983              		.loc 1 723 0
 2984 0052 2021     		movs	r1, #32
 2985 0054 7869     		ldr	r0, [r7, #20]
 2986 0056 FFF7FEFF 		bl	strchr
 2987 005a 3861     		str	r0, [r7, #16]
 724:telit.c       ****     if (b == NULL) {
 2988              		.loc 1 724 0
 2989 005c 3B69     		ldr	r3, [r7, #16]
 2990 005e 002B     		cmp	r3, #0
 2991 0060 01D1     		bne	.L214
 725:telit.c       ****         return 0u;
 2992              		.loc 1 725 0
 2993 0062 0023     		movs	r3, #0
 2994 0064 1DE0     		b	.L212
 2995              	.L214:
 726:telit.c       ****     }
 727:telit.c       ****     strncpy(status_code,a,b-a);
 2996              		.loc 1 727 0
 2997 0066 3A69     		ldr	r2, [r7, #16]
 2998 0068 7B69     		ldr	r3, [r7, #20]
 2999 006a D31A     		subs	r3, r2, r3
 3000 006c 1A46     		mov	r2, r3
 3001 006e 7969     		ldr	r1, [r7, #20]
 3002 0070 7868     		ldr	r0, [r7, #4]
 3003 0072 FFF7FEFF 		bl	strncpy
 728:telit.c       ****     //*status_code = (int) strtol(tmp_code,(char **) NULL, 10); 
 729:telit.c       ****     
ARM GAS  C:\Users\bk\AppData\Local\Temp\ccq38zU3.s 			page 68


 730:telit.c       ****     // Find the status phrase and copy to "phrase"
 731:telit.c       ****     a = b+1;
 3004              		.loc 1 731 0
 3005 0076 3B69     		ldr	r3, [r7, #16]
 3006 0078 0133     		adds	r3, r3, #1
 3007 007a 7B61     		str	r3, [r7, #20]
 732:telit.c       ****     b = strstr(a,"\r\n");
 3008              		.loc 1 732 0
 3009 007c 0C49     		ldr	r1, .L216+4
 3010 007e 7869     		ldr	r0, [r7, #20]
 3011 0080 FFF7FEFF 		bl	strstr
 3012 0084 3861     		str	r0, [r7, #16]
 733:telit.c       ****     if (b == NULL) {
 3013              		.loc 1 733 0
 3014 0086 3B69     		ldr	r3, [r7, #16]
 3015 0088 002B     		cmp	r3, #0
 3016 008a 01D1     		bne	.L215
 734:telit.c       ****         return 0u;
 3017              		.loc 1 734 0
 3018 008c 0023     		movs	r3, #0
 3019 008e 08E0     		b	.L212
 3020              	.L215:
 735:telit.c       ****     }
 736:telit.c       ****     strncpy(phrase,a,b-a);
 3021              		.loc 1 736 0
 3022 0090 3A69     		ldr	r2, [r7, #16]
 3023 0092 7B69     		ldr	r3, [r7, #20]
 3024 0094 D31A     		subs	r3, r2, r3
 3025 0096 1A46     		mov	r2, r3
 3026 0098 7969     		ldr	r1, [r7, #20]
 3027 009a 3868     		ldr	r0, [r7]
 3028 009c FFF7FEFF 		bl	strncpy
 737:telit.c       ****     
 738:telit.c       ****     return 1u;
 3029              		.loc 1 738 0
 3030 00a0 0123     		movs	r3, #1
 3031              	.L212:
 739:telit.c       **** }
 3032              		.loc 1 739 0
 3033 00a2 1846     		mov	r0, r3
 3034 00a4 1837     		adds	r7, r7, #24
 3035              		.cfi_def_cfa_offset 8
 3036 00a6 BD46     		mov	sp, r7
 3037              		.cfi_def_cfa_register 13
 3038              		@ sp needed
 3039 00a8 80BD     		pop	{r7, pc}
 3040              	.L217:
 3041 00aa 00BF     		.align	2
 3042              	.L216:
 3043 00ac 18020000 		.word	.LC36
 3044 00b0 20020000 		.word	.LC37
 3045              		.cfi_endproc
 3046              	.LFE103:
 3047              		.size	parse_http_status, .-parse_http_status
 3048              		.section	.rodata
 3049 0223 00       		.align	2
 3050              	.LC38:
ARM GAS  C:\Users\bk\AppData\Local\Temp\ccq38zU3.s 			page 69


 3051 0224 2573202F 		.ascii	"%s /%s HTTP/%s\015\012\000"
 3051      25732048 
 3051      5454502F 
 3051      25730D0A 
 3051      00
 3052 0235 000000   		.align	2
 3053              	.LC39:
 3054 0238 486F7374 		.ascii	"Host: \000"
 3054      3A2000
 3055 023f 00       		.align	2
 3056              	.LC40:
 3057 0240 25732573 		.ascii	"%s%s%s%s%d%s%s%s%s\000"
 3057      25732573 
 3057      25642573 
 3057      25732573 
 3057      257300
 3058 0253 00       		.align	2
 3059              	.LC41:
 3060 0254 436F6E6E 		.ascii	"Connection: \000"
 3060      65637469 
 3060      6F6E3A20 
 3060      00
 3061 0261 000000   		.align	2
 3062              	.LC42:
 3063 0264 3A00     		.ascii	":\000"
 3064 0266 0000     		.align	2
 3065              	.LC43:
 3066 0268 25732573 		.ascii	"%s%s\000"
 3066      00
 3067 026d 000000   		.align	2
 3068              	.LC44:
 3069 0270 436F6E74 		.ascii	"Content-Type: text/plain\015\012\000"
 3069      656E742D 
 3069      54797065 
 3069      3A207465 
 3069      78742F70 
 3070 028b 00       		.align	2
 3071              	.LC45:
 3072 028c 25732573 		.ascii	"%s%s%s%d%s%s\000"
 3072      25732564 
 3072      25732573 
 3072      00
 3073 0299 000000   		.align	2
 3074              	.LC46:
 3075 029c 0D0A0D0A 		.ascii	"\015\012\015\012\000"
 3075      00
 3076 02a1 000000   		.align	2
 3077              	.LC47:
 3078 02a4 436F6E74 		.ascii	"Content-Length: \000"
 3078      656E742D 
 3078      4C656E67 
 3078      74683A20 
 3078      00
 3079 02b5 000000   		.align	2
 3080              	.LC48:
 3081 02b8 0D0A1A00 		.ascii	"\015\012\032\000"
 3082              		.section	.text.construct_generic_request,"ax",%progbits
ARM GAS  C:\Users\bk\AppData\Local\Temp\ccq38zU3.s 			page 70


 3083              		.align	2
 3084              		.global	construct_generic_request
 3085              		.thumb
 3086              		.thumb_func
 3087              		.type	construct_generic_request, %function
 3088              	construct_generic_request:
 3089              	.LFB104:
 740:telit.c       **** 
 741:telit.c       **** void construct_generic_request(char* send_str, char* body, char* host, char* route,
 742:telit.c       ****                                int port, char* method, char* connection_type,
 743:telit.c       **** 	                           char *extra_headers, int extra_len, char* http_protocol){
 3090              		.loc 1 743 0
 3091              		.cfi_startproc
 3092              		@ args = 24, pretend = 0, frame = 16
 3093              		@ frame_needed = 1, uses_anonymous_args = 0
 3094 0000 80B5     		push	{r7, lr}
 3095              		.cfi_def_cfa_offset 8
 3096              		.cfi_offset 7, -8
 3097              		.cfi_offset 14, -4
 3098 0002 8CB0     		sub	sp, sp, #48
 3099              		.cfi_def_cfa_offset 56
 3100 0004 08AF     		add	r7, sp, #32
 3101              		.cfi_def_cfa 7, 24
 3102 0006 F860     		str	r0, [r7, #12]
 3103 0008 B960     		str	r1, [r7, #8]
 3104 000a 7A60     		str	r2, [r7, #4]
 3105 000c 3B60     		str	r3, [r7]
 744:telit.c       **** 
 745:telit.c       ****     sprintf(send_str,"%s /%s HTTP/%s\r\n", method, route, http_protocol);
 3106              		.loc 1 745 0
 3107 000e FB6A     		ldr	r3, [r7, #44]
 3108 0010 0093     		str	r3, [sp]
 3109 0012 3B68     		ldr	r3, [r7]
 3110 0014 FA69     		ldr	r2, [r7, #28]
 3111 0016 2449     		ldr	r1, .L221
 3112 0018 F868     		ldr	r0, [r7, #12]
 3113 001a FFF7FEFF 		bl	sprintf
 746:telit.c       ****     sprintf(send_str,"%s%s%s%s%d%s%s%s%s",
 3114              		.loc 1 746 0
 3115 001e 234B     		ldr	r3, .L221+4
 3116 0020 0693     		str	r3, [sp, #24]
 3117 0022 3B6A     		ldr	r3, [r7, #32]
 3118 0024 0593     		str	r3, [sp, #20]
 3119 0026 224B     		ldr	r3, .L221+8
 3120 0028 0493     		str	r3, [sp, #16]
 3121 002a 204B     		ldr	r3, .L221+4
 3122 002c 0393     		str	r3, [sp, #12]
 3123 002e BB69     		ldr	r3, [r7, #24]
 3124 0030 0293     		str	r3, [sp, #8]
 3125 0032 204B     		ldr	r3, .L221+12
 3126 0034 0193     		str	r3, [sp, #4]
 3127 0036 7B68     		ldr	r3, [r7, #4]
 3128 0038 0093     		str	r3, [sp]
 3129 003a 1F4B     		ldr	r3, .L221+16
 3130 003c FA68     		ldr	r2, [r7, #12]
 3131 003e 1F49     		ldr	r1, .L221+20
 3132 0040 F868     		ldr	r0, [r7, #12]
ARM GAS  C:\Users\bk\AppData\Local\Temp\ccq38zU3.s 			page 71


 3133 0042 FFF7FEFF 		bl	sprintf
 747:telit.c       ****             send_str, // 1
 748:telit.c       ****             "Host: ", host, ":", port, "\r\n", // 2 3 4 5 6
 749:telit.c       ****             "Connection: ", connection_type, "\r\n"); // 7 8 9
 750:telit.c       **** 	if (extra_headers && strlen(extra_headers) > 0){
 3134              		.loc 1 750 0
 3135 0046 7B6A     		ldr	r3, [r7, #36]
 3136 0048 002B     		cmp	r3, #0
 3137 004a 09D0     		beq	.L219
 3138              		.loc 1 750 0 is_stmt 0 discriminator 1
 3139 004c 7B6A     		ldr	r3, [r7, #36]
 3140 004e 1B78     		ldrb	r3, [r3]	@ zero_extendqisi2
 3141 0050 002B     		cmp	r3, #0
 3142 0052 05D0     		beq	.L219
 751:telit.c       **** 		sprintf(send_str, "%s%s", send_str, extra_headers);
 3143              		.loc 1 751 0 is_stmt 1
 3144 0054 7B6A     		ldr	r3, [r7, #36]
 3145 0056 FA68     		ldr	r2, [r7, #12]
 3146 0058 1949     		ldr	r1, .L221+24
 3147 005a F868     		ldr	r0, [r7, #12]
 3148 005c FFF7FEFF 		bl	sprintf
 3149              	.L219:
 752:telit.c       **** 	}
 753:telit.c       **** 	if (strcmp(method, "GET") != 0){
 3150              		.loc 1 753 0
 3151 0060 1849     		ldr	r1, .L221+28
 3152 0062 F869     		ldr	r0, [r7, #28]
 3153 0064 FFF7FEFF 		bl	strcmp
 3154 0068 0346     		mov	r3, r0
 3155 006a 002B     		cmp	r3, #0
 3156 006c 12D0     		beq	.L220
 754:telit.c       **** 		sprintf(send_str, "%s%s%s%d%s%s",
 755:telit.c       **** 			send_str,
 756:telit.c       ****             "Content-Type: text/plain\r\n", // 10
 757:telit.c       ****             "Content-Length: ", (extra_len + strlen(body)), //11 12 (Extra len should be 2 for flas
 3157              		.loc 1 757 0
 3158 006e B868     		ldr	r0, [r7, #8]
 3159 0070 FFF7FEFF 		bl	strlen
 3160 0074 0246     		mov	r2, r0
 754:telit.c       **** 		sprintf(send_str, "%s%s%s%d%s%s",
 3161              		.loc 1 754 0
 3162 0076 BB6A     		ldr	r3, [r7, #40]
 3163 0078 1344     		add	r3, r3, r2
 3164 007a BA68     		ldr	r2, [r7, #8]
 3165 007c 0392     		str	r2, [sp, #12]
 3166 007e 124A     		ldr	r2, .L221+32
 3167 0080 0292     		str	r2, [sp, #8]
 3168 0082 0193     		str	r3, [sp, #4]
 3169 0084 114B     		ldr	r3, .L221+36
 3170 0086 0093     		str	r3, [sp]
 3171 0088 114B     		ldr	r3, .L221+40
 3172 008a FA68     		ldr	r2, [r7, #12]
 3173 008c 1149     		ldr	r1, .L221+44
 3174 008e F868     		ldr	r0, [r7, #12]
 3175 0090 FFF7FEFF 		bl	sprintf
 3176              	.L220:
 758:telit.c       ****             "\r\n\r\n", body); // 13 14 15
ARM GAS  C:\Users\bk\AppData\Local\Temp\ccq38zU3.s 			page 72


 759:telit.c       **** 	}
 760:telit.c       **** 	sprintf(send_str, "%s%s", send_str, "\r\n\032"); 
 3177              		.loc 1 760 0
 3178 0094 104B     		ldr	r3, .L221+48
 3179 0096 FA68     		ldr	r2, [r7, #12]
 3180 0098 0949     		ldr	r1, .L221+24
 3181 009a F868     		ldr	r0, [r7, #12]
 3182 009c FFF7FEFF 		bl	sprintf
 761:telit.c       **** }
 3183              		.loc 1 761 0
 3184 00a0 00BF     		nop
 3185 00a2 1037     		adds	r7, r7, #16
 3186              		.cfi_def_cfa_offset 8
 3187 00a4 BD46     		mov	sp, r7
 3188              		.cfi_def_cfa_register 13
 3189              		@ sp needed
 3190 00a6 80BD     		pop	{r7, pc}
 3191              	.L222:
 3192              		.align	2
 3193              	.L221:
 3194 00a8 24020000 		.word	.LC38
 3195 00ac 20020000 		.word	.LC37
 3196 00b0 54020000 		.word	.LC41
 3197 00b4 64020000 		.word	.LC42
 3198 00b8 38020000 		.word	.LC39
 3199 00bc 40020000 		.word	.LC40
 3200 00c0 68020000 		.word	.LC43
 3201 00c4 D4000000 		.word	.LC17
 3202 00c8 9C020000 		.word	.LC46
 3203 00cc A4020000 		.word	.LC47
 3204 00d0 70020000 		.word	.LC44
 3205 00d4 8C020000 		.word	.LC45
 3206 00d8 B8020000 		.word	.LC48
 3207              		.cfi_endproc
 3208              	.LFE104:
 3209              		.size	construct_generic_request, .-construct_generic_request
 3210              		.section	.text.modem_start,"ax",%progbits
 3211              		.align	2
 3212              		.global	modem_start
 3213              		.thumb
 3214              		.thumb_func
 3215              		.type	modem_start, %function
 3216              	modem_start:
 3217              	.LFB105:
 762:telit.c       ****   
 763:telit.c       **** void modem_start(){    
 3218              		.loc 1 763 0
 3219              		.cfi_startproc
 3220              		@ args = 0, pretend = 0, frame = 0
 3221              		@ frame_needed = 1, uses_anonymous_args = 0
 3222 0000 80B5     		push	{r7, lr}
 3223              		.cfi_def_cfa_offset 8
 3224              		.cfi_offset 7, -8
 3225              		.cfi_offset 14, -4
 3226 0002 00AF     		add	r7, sp, #0
 3227              		.cfi_def_cfa_register 7
 764:telit.c       ****     /*enable UART and interrupts to receive data from the cell module*/ 
ARM GAS  C:\Users\bk\AppData\Local\Temp\ccq38zU3.s 			page 73


 765:telit.c       ****     UART_Telit_Start();
 3228              		.loc 1 765 0
 3229 0004 FFF7FEFF 		bl	UART_Telit_Start
 766:telit.c       ****     isr_telit_rx_StartEx(isr_telit_rx);
 3230              		.loc 1 766 0
 3231 0008 0248     		ldr	r0, .L224
 3232 000a FFF7FEFF 		bl	isr_telit_rx_StartEx
 767:telit.c       ****    
 768:telit.c       ****     
 769:telit.c       **** }
 3233              		.loc 1 769 0
 3234 000e 00BF     		nop
 3235 0010 80BD     		pop	{r7, pc}
 3236              	.L225:
 3237 0012 00BF     		.align	2
 3238              	.L224:
 3239 0014 00000000 		.word	isr_telit_rx
 3240              		.cfi_endproc
 3241              	.LFE105:
 3242              		.size	modem_start, .-modem_start
 3243              		.section	.rodata
 3244              		.align	2
 3245              	.LC49:
 3246 02bc 41542353 		.ascii	"AT#SHDN\015\000"
 3246      48444E0D 
 3246      00
 3247              		.section	.text.modem_stop,"ax",%progbits
 3248              		.align	2
 3249              		.global	modem_stop
 3250              		.thumb
 3251              		.thumb_func
 3252              		.type	modem_stop, %function
 3253              	modem_stop:
 3254              	.LFB106:
 770:telit.c       **** 
 771:telit.c       **** // deinitialize modem
 772:telit.c       **** uint8 modem_stop(){
 3255              		.loc 1 772 0
 3256              		.cfi_startproc
 3257              		@ args = 0, pretend = 0, frame = 8
 3258              		@ frame_needed = 1, uses_anonymous_args = 0
 3259 0000 80B5     		push	{r7, lr}
 3260              		.cfi_def_cfa_offset 8
 3261              		.cfi_offset 7, -8
 3262              		.cfi_offset 14, -4
 3263 0002 82B0     		sub	sp, sp, #8
 3264              		.cfi_def_cfa_offset 16
 3265 0004 00AF     		add	r7, sp, #0
 3266              		.cfi_def_cfa_register 7
 773:telit.c       ****     
 774:telit.c       ****     uint8 status = 0;
 3267              		.loc 1 774 0
 3268 0006 0023     		movs	r3, #0
 3269 0008 FB71     		strb	r3, [r7, #7]
 775:telit.c       ****     if(at_write_command("AT#SHDN\r","OK",1000u) != 1){
 3270              		.loc 1 775 0
 3271 000a 4FF47A72 		mov	r2, #1000
ARM GAS  C:\Users\bk\AppData\Local\Temp\ccq38zU3.s 			page 74


 3272 000e 1149     		ldr	r1, .L229
 3273 0010 1148     		ldr	r0, .L229+4
 3274 0012 FFF7FEFF 		bl	at_write_command
 3275 0016 0346     		mov	r3, r0
 3276 0018 012B     		cmp	r3, #1
 3277 001a 08D0     		beq	.L227
 776:telit.c       ****         Pin_Telit_ONOFF_Write(1u); /*power off telit cell module*/
 3278              		.loc 1 776 0
 3279 001c 0120     		movs	r0, #1
 3280 001e FFF7FEFF 		bl	Pin_Telit_ONOFF_Write
 777:telit.c       ****         CyDelay(2500); 
 3281              		.loc 1 777 0
 3282 0022 40F6C410 		movw	r0, #2500
 3283 0026 FFF7FEFF 		bl	CyDelay
 778:telit.c       ****         status = 1;
 3284              		.loc 1 778 0
 3285 002a 0123     		movs	r3, #1
 3286 002c FB71     		strb	r3, [r7, #7]
 3287              	.L227:
 779:telit.c       ****     }  
 780:telit.c       ****     
 781:telit.c       ****     /* it takes >=15s for the unit to shut down completely*/
 782:telit.c       ****     CyDelay(15000);
 3288              		.loc 1 782 0
 3289 002e 43F69820 		movw	r0, #15000
 3290 0032 FFF7FEFF 		bl	CyDelay
 783:telit.c       **** 	Pin_Telit_ONOFF_Write(0u);			// Save energy by pulling down "push button"
 3291              		.loc 1 783 0
 3292 0036 0020     		movs	r0, #0
 3293 0038 FFF7FEFF 		bl	Pin_Telit_ONOFF_Write
 784:telit.c       ****     Pin_Telit_pwr_Write(0u);
 3294              		.loc 1 784 0
 3295 003c 0020     		movs	r0, #0
 3296 003e FFF7FEFF 		bl	Pin_Telit_pwr_Write
 785:telit.c       **** 	//Pin_Telit_SHDN_Write(0u);		// Save energy by pulling down "push button"
 786:telit.c       ****     UART_Telit_Stop();
 3297              		.loc 1 786 0
 3298 0042 FFF7FEFF 		bl	UART_Telit_Stop
 787:telit.c       ****     isr_telit_rx_Stop();
 3299              		.loc 1 787 0
 3300 0046 FFF7FEFF 		bl	isr_telit_rx_Stop
 788:telit.c       **** 
 789:telit.c       ****     return status;
 3301              		.loc 1 789 0
 3302 004a FB79     		ldrb	r3, [r7, #7]	@ zero_extendqisi2
 790:telit.c       **** 
 791:telit.c       **** }
 3303              		.loc 1 791 0
 3304 004c 1846     		mov	r0, r3
 3305 004e 0837     		adds	r7, r7, #8
 3306              		.cfi_def_cfa_offset 8
 3307 0050 BD46     		mov	sp, r7
 3308              		.cfi_def_cfa_register 13
 3309              		@ sp needed
 3310 0052 80BD     		pop	{r7, pc}
 3311              	.L230:
 3312              		.align	2
ARM GAS  C:\Users\bk\AppData\Local\Temp\ccq38zU3.s 			page 75


 3313              	.L229:
 3314 0054 14000000 		.word	.LC2
 3315 0058 BC020000 		.word	.LC49
 3316              		.cfi_endproc
 3317              	.LFE106:
 3318              		.size	modem_stop, .-modem_stop
 3319              		.section	.rodata
 3320 02c5 000000   		.align	2
 3321              	.LC50:
 3322 02c8 41540D00 		.ascii	"AT\015\000"
 3323              		.section	.text.modem_power_on,"ax",%progbits
 3324              		.align	2
 3325              		.global	modem_power_on
 3326              		.thumb
 3327              		.thumb_func
 3328              		.type	modem_power_on, %function
 3329              	modem_power_on:
 3330              	.LFB107:
 792:telit.c       **** 
 793:telit.c       **** uint8_t modem_power_on(){
 3331              		.loc 1 793 0
 3332              		.cfi_startproc
 3333              		@ args = 0, pretend = 0, frame = 8
 3334              		@ frame_needed = 1, uses_anonymous_args = 0
 3335 0000 80B5     		push	{r7, lr}
 3336              		.cfi_def_cfa_offset 8
 3337              		.cfi_offset 7, -8
 3338              		.cfi_offset 14, -4
 3339 0002 82B0     		sub	sp, sp, #8
 3340              		.cfi_def_cfa_offset 16
 3341 0004 00AF     		add	r7, sp, #0
 3342              		.cfi_def_cfa_register 7
 794:telit.c       ****        
 795:telit.c       ****     uint8_t counter=0;
 3343              		.loc 1 795 0
 3344 0006 0023     		movs	r3, #0
 3345 0008 FB71     		strb	r3, [r7, #7]
 796:telit.c       ****     Pin_Telit_ONOFF_Write(0u);
 3346              		.loc 1 796 0
 3347 000a 0020     		movs	r0, #0
 3348 000c FFF7FEFF 		bl	Pin_Telit_ONOFF_Write
 797:telit.c       ****     Pin_Telit_pwr_Write(1u);
 3349              		.loc 1 797 0
 3350 0010 0120     		movs	r0, #1
 3351 0012 FFF7FEFF 		bl	Pin_Telit_pwr_Write
 798:telit.c       ****     CyDelay(1000u);
 3352              		.loc 1 798 0
 3353 0016 4FF47A70 		mov	r0, #1000
 3354 001a FFF7FEFF 		bl	CyDelay
 799:telit.c       ****     Pin_Telit_ONOFF_Write(1u);
 3355              		.loc 1 799 0
 3356 001e 0120     		movs	r0, #1
 3357 0020 FFF7FEFF 		bl	Pin_Telit_ONOFF_Write
 800:telit.c       ****     CyDelay(2500u);
 3358              		.loc 1 800 0
 3359 0024 40F6C410 		movw	r0, #2500
 3360 0028 FFF7FEFF 		bl	CyDelay
ARM GAS  C:\Users\bk\AppData\Local\Temp\ccq38zU3.s 			page 76


 801:telit.c       ****     Pin_Telit_ONOFF_Write(0u);
 3361              		.loc 1 801 0
 3362 002c 0020     		movs	r0, #0
 3363 002e FFF7FEFF 		bl	Pin_Telit_ONOFF_Write
 802:telit.c       ****  
 803:telit.c       ****     
 804:telit.c       ****     
 805:telit.c       ****     //ideally, PIN18 on the module is configured a a GPIO
 806:telit.c       ****     //This GPIO should pull low when the modem is pwoered up and ready
 807:telit.c       ****     //This will save time, otherwise, we need to wait for two full seconds
 808:telit.c       ****     /*if(Pin_Telit_SWRDY_Read()){
 809:telit.c       ****         
 810:telit.c       ****         Pin_Telit_ONOFF_Write(0u);
 811:telit.c       ****                     
 812:telit.c       ****       
 813:telit.c       ****         do{
 814:telit.c       ****             CyDelay(200);
 815:telit.c       ****             counter++;       
 816:telit.c       ****             if(counter>=255)return 0;                
 817:telit.c       ****         }while(Pin_Telit_SWRDY_Read());
 818:telit.c       ****         
 819:telit.c       ****         Pin_Telit_ONOFF_Write(1u); 
 820:telit.c       ****             
 821:telit.c       ****     }else{
 822:telit.c       ****          //if the GPIO feature was not configured, wait for 2 full secs and try to enable it for ne
 823:telit.c       ****          Pin_Telit_ONOFF_Write(0u); 
 824:telit.c       ****          CyDelay(2000); 
 825:telit.c       ****          Pin_Telit_ONOFF_Write(1u);
 826:telit.c       ****          at_write_command("AT#GPIO=2,1,1,1\r","OK",1000u);
 827:telit.c       ****     }*/
 828:telit.c       ****     
 829:telit.c       ****     
 830:telit.c       ****    
 831:telit.c       ****     for(counter=0;counter<3;counter++){            
 3364              		.loc 1 831 0
 3365 0032 0023     		movs	r3, #0
 3366 0034 FB71     		strb	r3, [r7, #7]
 3367 0036 13E0     		b	.L232
 3368              	.L235:
 832:telit.c       ****     	if(at_write_command("AT\r","OK",1000u)==1){
 3369              		.loc 1 832 0
 3370 0038 4FF47A72 		mov	r2, #1000
 3371 003c 0C49     		ldr	r1, .L236
 3372 003e 0D48     		ldr	r0, .L236+4
 3373 0040 FFF7FEFF 		bl	at_write_command
 3374 0044 0346     		mov	r3, r0
 3375 0046 012B     		cmp	r3, #1
 3376 0048 07D1     		bne	.L233
 833:telit.c       ****             
 834:telit.c       ****             /* set proper parameters for modem 
 835:telit.c       ****              * so it will check network registration next*/
 836:telit.c       ****             modem.modem_event=EVENT_CHECK_UART;
 3377              		.loc 1 836 0
 3378 004a 0B4B     		ldr	r3, .L236+8
 3379 004c 0022     		movs	r2, #0
 3380 004e 1A70     		strb	r2, [r3]
 837:telit.c       ****             modem.modem_state=STATE_ECHO_CORRECT;
ARM GAS  C:\Users\bk\AppData\Local\Temp\ccq38zU3.s 			page 77


 3381              		.loc 1 837 0
 3382 0050 094B     		ldr	r3, .L236+8
 3383 0052 0122     		movs	r2, #1
 3384 0054 5A70     		strb	r2, [r3, #1]
 838:telit.c       ****             return 1;
 3385              		.loc 1 838 0
 3386 0056 0123     		movs	r3, #1
 3387 0058 06E0     		b	.L234
 3388              	.L233:
 831:telit.c       ****     	if(at_write_command("AT\r","OK",1000u)==1){
 3389              		.loc 1 831 0 discriminator 2
 3390 005a FB79     		ldrb	r3, [r7, #7]	@ zero_extendqisi2
 3391 005c 0133     		adds	r3, r3, #1
 3392 005e FB71     		strb	r3, [r7, #7]
 3393              	.L232:
 831:telit.c       ****     	if(at_write_command("AT\r","OK",1000u)==1){
 3394              		.loc 1 831 0 is_stmt 0 discriminator 1
 3395 0060 FB79     		ldrb	r3, [r7, #7]	@ zero_extendqisi2
 3396 0062 022B     		cmp	r3, #2
 3397 0064 E8D9     		bls	.L235
 839:telit.c       ****         }
 840:telit.c       ****     }
 841:telit.c       ****     
 842:telit.c       ****     return 0;
 3398              		.loc 1 842 0 is_stmt 1
 3399 0066 0023     		movs	r3, #0
 3400              	.L234:
 843:telit.c       **** }
 3401              		.loc 1 843 0
 3402 0068 1846     		mov	r0, r3
 3403 006a 0837     		adds	r7, r7, #8
 3404              		.cfi_def_cfa_offset 8
 3405 006c BD46     		mov	sp, r7
 3406              		.cfi_def_cfa_register 13
 3407              		@ sp needed
 3408 006e 80BD     		pop	{r7, pc}
 3409              	.L237:
 3410              		.align	2
 3411              	.L236:
 3412 0070 14000000 		.word	.LC2
 3413 0074 C8020000 		.word	.LC50
 3414 0078 00000000 		.word	modem
 3415              		.cfi_endproc
 3416              	.LFE107:
 3417              		.size	modem_power_on, .-modem_power_on
 3418              		.section	.text.modem_power_off,"ax",%progbits
 3419              		.align	2
 3420              		.global	modem_power_off
 3421              		.thumb
 3422              		.thumb_func
 3423              		.type	modem_power_off, %function
 3424              	modem_power_off:
 3425              	.LFB108:
 844:telit.c       **** 
 845:telit.c       **** void modem_power_off(){
 3426              		.loc 1 845 0
 3427              		.cfi_startproc
ARM GAS  C:\Users\bk\AppData\Local\Temp\ccq38zU3.s 			page 78


 3428              		@ args = 0, pretend = 0, frame = 0
 3429              		@ frame_needed = 1, uses_anonymous_args = 0
 3430 0000 80B5     		push	{r7, lr}
 3431              		.cfi_def_cfa_offset 8
 3432              		.cfi_offset 7, -8
 3433              		.cfi_offset 14, -4
 3434 0002 00AF     		add	r7, sp, #0
 3435              		.cfi_def_cfa_register 7
 846:telit.c       ****    
 847:telit.c       ****     if(at_write_command("AT#SHDN\r","OK",1000u) != 1){
 3436              		.loc 1 847 0
 3437 0004 4FF47A72 		mov	r2, #1000
 3438 0008 0C49     		ldr	r1, .L240
 3439 000a 0D48     		ldr	r0, .L240+4
 3440 000c FFF7FEFF 		bl	at_write_command
 3441 0010 0346     		mov	r3, r0
 3442 0012 012B     		cmp	r3, #1
 3443 0014 09D0     		beq	.L239
 848:telit.c       ****         Pin_Telit_ONOFF_Write(1u); /*power off telit cell module*/
 3444              		.loc 1 848 0
 3445 0016 0120     		movs	r0, #1
 3446 0018 FFF7FEFF 		bl	Pin_Telit_ONOFF_Write
 849:telit.c       ****         CyDelay(2500);
 3447              		.loc 1 849 0
 3448 001c 40F6C410 		movw	r0, #2500
 3449 0020 FFF7FEFF 		bl	CyDelay
 850:telit.c       ****         Pin_Telit_ONOFF_Write(0u);        
 3450              		.loc 1 850 0
 3451 0024 0020     		movs	r0, #0
 3452 0026 FFF7FEFF 		bl	Pin_Telit_ONOFF_Write
 3453              	.L239:
 851:telit.c       ****     }   
 852:telit.c       ****     
 853:telit.c       ****     /* it takes >=15s for the unit to shut down completely*/
 854:telit.c       ****     CyDelay(15000);
 3454              		.loc 1 854 0
 3455 002a 43F69820 		movw	r0, #15000
 3456 002e FFF7FEFF 		bl	CyDelay
 855:telit.c       ****     Pin_Telit_pwr_Write(0u);
 3457              		.loc 1 855 0
 3458 0032 0020     		movs	r0, #0
 3459 0034 FFF7FEFF 		bl	Pin_Telit_pwr_Write
 856:telit.c       **** 
 857:telit.c       **** }
 3460              		.loc 1 857 0
 3461 0038 00BF     		nop
 3462 003a 80BD     		pop	{r7, pc}
 3463              	.L241:
 3464              		.align	2
 3465              	.L240:
 3466 003c 14000000 		.word	.LC2
 3467 0040 BC020000 		.word	.LC49
 3468              		.cfi_endproc
 3469              	.LFE108:
 3470              		.size	modem_power_off, .-modem_power_off
 3471              		.section	.rodata
 3472              		.align	2
ARM GAS  C:\Users\bk\AppData\Local\Temp\ccq38zU3.s 			page 79


 3473              	.LC51:
 3474 02cc 41542353 		.ascii	"AT#SELINT=2\015\000"
 3474      454C494E 
 3474      543D320D 
 3474      00
 3475              		.section	.text.modem_set_interface_style,"ax",%progbits
 3476              		.align	2
 3477              		.global	modem_set_interface_style
 3478              		.thumb
 3479              		.thumb_func
 3480              		.type	modem_set_interface_style, %function
 3481              	modem_set_interface_style:
 3482              	.LFB109:
 858:telit.c       **** 
 859:telit.c       **** uint8_t modem_set_interface_style(){
 3483              		.loc 1 859 0
 3484              		.cfi_startproc
 3485              		@ args = 0, pretend = 0, frame = 0
 3486              		@ frame_needed = 1, uses_anonymous_args = 0
 3487 0000 80B5     		push	{r7, lr}
 3488              		.cfi_def_cfa_offset 8
 3489              		.cfi_offset 7, -8
 3490              		.cfi_offset 14, -4
 3491 0002 00AF     		add	r7, sp, #0
 3492              		.cfi_def_cfa_register 7
 860:telit.c       ****     return(at_write_command("AT#SELINT=2\r","OK",1000));
 3493              		.loc 1 860 0
 3494 0004 4FF47A72 		mov	r2, #1000
 3495 0008 0349     		ldr	r1, .L244
 3496 000a 0448     		ldr	r0, .L244+4
 3497 000c FFF7FEFF 		bl	at_write_command
 3498 0010 0346     		mov	r3, r0
 861:telit.c       **** }
 3499              		.loc 1 861 0
 3500 0012 1846     		mov	r0, r3
 3501 0014 80BD     		pop	{r7, pc}
 3502              	.L245:
 3503 0016 00BF     		.align	2
 3504              	.L244:
 3505 0018 14000000 		.word	.LC2
 3506 001c CC020000 		.word	.LC51
 3507              		.cfi_endproc
 3508              	.LFE109:
 3509              		.size	modem_set_interface_style, .-modem_set_interface_style
 3510              		.section	.rodata
 3511 02d9 000000   		.align	2
 3512              	.LC52:
 3513 02dc 41542347 		.ascii	"AT#GPIO=1,0,2\015\000"
 3513      50494F3D 
 3513      312C302C 
 3513      320D00
 3514              		.section	.text.modem_set_LED,"ax",%progbits
 3515              		.align	2
 3516              		.global	modem_set_LED
 3517              		.thumb
 3518              		.thumb_func
 3519              		.type	modem_set_LED, %function
ARM GAS  C:\Users\bk\AppData\Local\Temp\ccq38zU3.s 			page 80


 3520              	modem_set_LED:
 3521              	.LFB110:
 862:telit.c       **** 
 863:telit.c       **** uint8_t modem_set_LED(){
 3522              		.loc 1 863 0
 3523              		.cfi_startproc
 3524              		@ args = 0, pretend = 0, frame = 0
 3525              		@ frame_needed = 1, uses_anonymous_args = 0
 3526 0000 80B5     		push	{r7, lr}
 3527              		.cfi_def_cfa_offset 8
 3528              		.cfi_offset 7, -8
 3529              		.cfi_offset 14, -4
 3530 0002 00AF     		add	r7, sp, #0
 3531              		.cfi_def_cfa_register 7
 864:telit.c       ****     if(at_write_command("AT#GPIO=1,0,2\r","OK",1000u)==1)return(1);
 3532              		.loc 1 864 0
 3533 0004 4FF47A72 		mov	r2, #1000
 3534 0008 0549     		ldr	r1, .L249
 3535 000a 0648     		ldr	r0, .L249+4
 3536 000c FFF7FEFF 		bl	at_write_command
 3537 0010 0346     		mov	r3, r0
 3538 0012 012B     		cmp	r3, #1
 3539 0014 01D1     		bne	.L247
 3540              		.loc 1 864 0 is_stmt 0 discriminator 1
 3541 0016 0123     		movs	r3, #1
 3542 0018 00E0     		b	.L248
 3543              	.L247:
 865:telit.c       ****     return(2);
 3544              		.loc 1 865 0 is_stmt 1
 3545 001a 0223     		movs	r3, #2
 3546              	.L248:
 866:telit.c       **** }
 3547              		.loc 1 866 0
 3548 001c 1846     		mov	r0, r3
 3549 001e 80BD     		pop	{r7, pc}
 3550              	.L250:
 3551              		.align	2
 3552              	.L249:
 3553 0020 14000000 		.word	.LC2
 3554 0024 DC020000 		.word	.LC52
 3555              		.cfi_endproc
 3556              	.LFE110:
 3557              		.size	modem_set_LED, .-modem_set_LED
 3558              		.section	.rodata
 3559 02eb 00       		.align	2
 3560              	.LC53:
 3561 02ec 41542343 		.ascii	"AT#CIMI\015\000"
 3561      494D490D 
 3561      00
 3562              		.section	.text.modem_report_IMSI,"ax",%progbits
 3563              		.align	2
 3564              		.global	modem_report_IMSI
 3565              		.thumb
 3566              		.thumb_func
 3567              		.type	modem_report_IMSI, %function
 3568              	modem_report_IMSI:
 3569              	.LFB111:
ARM GAS  C:\Users\bk\AppData\Local\Temp\ccq38zU3.s 			page 81


 867:telit.c       **** 
 868:telit.c       **** uint8_t modem_report_IMSI(){
 3570              		.loc 1 868 0
 3571              		.cfi_startproc
 3572              		@ args = 0, pretend = 0, frame = 0
 3573              		@ frame_needed = 1, uses_anonymous_args = 0
 3574 0000 80B5     		push	{r7, lr}
 3575              		.cfi_def_cfa_offset 8
 3576              		.cfi_offset 7, -8
 3577              		.cfi_offset 14, -4
 3578 0002 00AF     		add	r7, sp, #0
 3579              		.cfi_def_cfa_register 7
 869:telit.c       ****     return(at_write_command("AT#CIMI\r","OK",1000u));
 3580              		.loc 1 869 0
 3581 0004 4FF47A72 		mov	r2, #1000
 3582 0008 0349     		ldr	r1, .L253
 3583 000a 0448     		ldr	r0, .L253+4
 3584 000c FFF7FEFF 		bl	at_write_command
 3585 0010 0346     		mov	r3, r0
 870:telit.c       **** }
 3586              		.loc 1 870 0
 3587 0012 1846     		mov	r0, r3
 3588 0014 80BD     		pop	{r7, pc}
 3589              	.L254:
 3590 0016 00BF     		.align	2
 3591              	.L253:
 3592 0018 14000000 		.word	.LC2
 3593 001c EC020000 		.word	.LC53
 3594              		.cfi_endproc
 3595              	.LFE111:
 3596              		.size	modem_report_IMSI, .-modem_report_IMSI
 3597              		.section	.rodata
 3598 02f5 000000   		.align	2
 3599              	.LC54:
 3600 02f8 3D3D3D3D 		.ascii	"==========================Start Modem Test========="
 3600      3D3D3D3D 
 3600      3D3D3D3D 
 3600      3D3D3D3D 
 3600      3D3D3D3D 
 3601 032b 3D3D3D3D 		.ascii	"=============\000"
 3601      3D3D3D3D 
 3601      3D3D3D3D 
 3601      3D00
 3602 0339 000000   		.align	2
 3603              	.LC55:
 3604 033c 5475726E 		.ascii	"Turn Modem On\000"
 3604      204D6F64 
 3604      656D204F 
 3604      6E00
 3605 034a 0000     		.align	2
 3606              	.LC56:
 3607 034c 4D6F6465 		.ascii	"Modem turned on after %d tries\000"
 3607      6D207475 
 3607      726E6564 
 3607      206F6E20 
 3607      61667465 
 3608 036b 00       		.align	2
ARM GAS  C:\Users\bk\AppData\Local\Temp\ccq38zU3.s 			page 82


 3609              	.LC57:
 3610 036c 4D6F6465 		.ascii	"Modem turned on as expected.\000"
 3610      6D207475 
 3610      726E6564 
 3610      206F6E20 
 3610      61732065 
 3611 0389 000000   		.align	2
 3612              	.LC58:
 3613 038c 41542343 		.ascii	"AT#CGMM\015\000"
 3613      474D4D0D 
 3613      00
 3614 0395 000000   		.align	2
 3615              	.LC59:
 3616 0398 41542B43 		.ascii	"AT+CGSN\015\000"
 3616      47534E0D 
 3616      00
 3617 03a1 000000   		.align	2
 3618              	.LC60:
 3619 03a4 53494D5F 		.ascii	"SIM_ID=%s\000"
 3619      49443D25 
 3619      7300
 3620 03ae 0000     		.align	2
 3621              	.LC61:
 3622 03b0 41542B43 		.ascii	"AT+CMEE=2\015\012\000"
 3622      4D45453D 
 3622      320D0A00 
 3623              		.align	2
 3624              	.LC62:
 3625 03bc 41542B43 		.ascii	"AT+CGDCONT=1,\"IP\",\"wireless.twilio.com\"\015\012"
 3625      4744434F 
 3625      4E543D31 
 3625      2C224950 
 3625      222C2277 
 3626 03e5 00       		.ascii	"\000"
 3627 03e6 0000     		.align	2
 3628              	.LC63:
 3629 03e8 41542B43 		.ascii	"AT+CCLK?\015\000"
 3629      434C4B3F 
 3629      0D00
 3630 03f2 0000     		.align	2
 3631              	.LC64:
 3632 03f4 2B43434C 		.ascii	"+CCLK: \000"
 3632      4B3A2000 
 3633              		.align	2
 3634              	.LC65:
 3635 03fc 4D6F6465 		.ascii	"Modem Time Recevied: %s\000"
 3635      6D205469 
 3635      6D652052 
 3635      65636576 
 3635      6965643A 
 3636              		.align	2
 3637              	.LC66:
 3638 0414 2C00     		.ascii	",\000"
 3639 0416 0000     		.align	2
 3640              	.LC67:
 3641 0418 5369676E 		.ascii	"Signal Strength Recevied on %d/3 tries: %s\000"
 3641      616C2053 
ARM GAS  C:\Users\bk\AppData\Local\Temp\ccq38zU3.s 			page 83


 3641      7472656E 
 3641      67746820 
 3641      52656365 
 3642              		.section	.text.modem_startup,"ax",%progbits
 3643              		.align	2
 3644              		.global	modem_startup
 3645              		.thumb
 3646              		.thumb_func
 3647              		.type	modem_startup, %function
 3648              	modem_startup:
 3649              	.LFB112:
 871:telit.c       **** 
 872:telit.c       **** uint8_t modem_startup(){
 3650              		.loc 1 872 0
 3651              		.cfi_startproc
 3652              		@ args = 0, pretend = 0, frame = 328
 3653              		@ frame_needed = 1, uses_anonymous_args = 0
 3654 0000 80B5     		push	{r7, lr}
 3655              		.cfi_def_cfa_offset 8
 3656              		.cfi_offset 7, -8
 3657              		.cfi_offset 14, -4
 3658 0002 D2B0     		sub	sp, sp, #328
 3659              		.cfi_def_cfa_offset 336
 3660 0004 00AF     		add	r7, sp, #0
 3661              		.cfi_def_cfa_register 7
 873:telit.c       ****     
 874:telit.c       ****     printNotif(NOTIF_TYPE_EVENT,"==========================Start Modem Test======================")
 3662              		.loc 1 874 0
 3663 0006 5C49     		ldr	r1, .L271
 3664 0008 0020     		movs	r0, #0
 3665 000a FFF7FEFF 		bl	printNotif
 875:telit.c       ****     int rssi = 0, fer = 0;
 3666              		.loc 1 875 0
 3667 000e 0023     		movs	r3, #0
 3668 0010 C7F83C31 		str	r3, [r7, #316]
 3669 0014 0023     		movs	r3, #0
 3670 0016 C7F83831 		str	r3, [r7, #312]
 876:telit.c       ****     uint8_t ready=0, iter=0;
 3671              		.loc 1 876 0
 3672 001a 0023     		movs	r3, #0
 3673 001c 87F84731 		strb	r3, [r7, #327]
 3674 0020 0023     		movs	r3, #0
 3675 0022 87F84631 		strb	r3, [r7, #326]
 877:telit.c       ****     
 878:telit.c       ****     /*enable UART communication with Telit module*/
 879:telit.c       ****     printNotif(NOTIF_TYPE_EVENT,"Turn Modem On");
 3676              		.loc 1 879 0
 3677 0026 5549     		ldr	r1, .L271+4
 3678 0028 0020     		movs	r0, #0
 3679 002a FFF7FEFF 		bl	printNotif
 880:telit.c       ****     modem_start();
 3680              		.loc 1 880 0
 3681 002e FFF7FEFF 		bl	modem_start
 881:telit.c       ****     
 882:telit.c       ****     while(iter<3){
 3682              		.loc 1 882 0
 3683 0032 0FE0     		b	.L256
ARM GAS  C:\Users\bk\AppData\Local\Temp\ccq38zU3.s 			page 84


 3684              	.L259:
 883:telit.c       ****         ready=modem_power_on();
 3685              		.loc 1 883 0
 3686 0034 FFF7FEFF 		bl	modem_power_on
 3687 0038 0346     		mov	r3, r0
 3688 003a 87F84731 		strb	r3, [r7, #327]
 884:telit.c       ****         if(ready) break;
 3689              		.loc 1 884 0
 3690 003e 97F84731 		ldrb	r3, [r7, #327]	@ zero_extendqisi2
 3691 0042 002B     		cmp	r3, #0
 3692 0044 0BD1     		bne	.L270
 885:telit.c       ****         modem_power_off();
 3693              		.loc 1 885 0
 3694 0046 FFF7FEFF 		bl	modem_power_off
 886:telit.c       ****         iter++;
 3695              		.loc 1 886 0
 3696 004a 97F84631 		ldrb	r3, [r7, #326]	@ zero_extendqisi2
 3697 004e 0133     		adds	r3, r3, #1
 3698 0050 87F84631 		strb	r3, [r7, #326]
 3699              	.L256:
 882:telit.c       ****         ready=modem_power_on();
 3700              		.loc 1 882 0
 3701 0054 97F84631 		ldrb	r3, [r7, #326]	@ zero_extendqisi2
 3702 0058 022B     		cmp	r3, #2
 3703 005a EBD9     		bls	.L259
 3704 005c 00E0     		b	.L258
 3705              	.L270:
 884:telit.c       ****         modem_power_off();
 3706              		.loc 1 884 0
 3707 005e 00BF     		nop
 3708              	.L258:
 887:telit.c       ****     }
 888:telit.c       ****     
 889:telit.c       ****     if (iter > 0){
 3709              		.loc 1 889 0
 3710 0060 97F84631 		ldrb	r3, [r7, #326]	@ zero_extendqisi2
 3711 0064 002B     		cmp	r3, #0
 3712 0066 07D0     		beq	.L260
 890:telit.c       ****         printNotif(NOTIF_TYPE_WARNING,"Modem turned on after %d tries", iter);
 3713              		.loc 1 890 0
 3714 0068 97F84631 		ldrb	r3, [r7, #326]	@ zero_extendqisi2
 3715 006c 1A46     		mov	r2, r3
 3716 006e 4449     		ldr	r1, .L271+8
 3717 0070 0120     		movs	r0, #1
 3718 0072 FFF7FEFF 		bl	printNotif
 3719 0076 03E0     		b	.L261
 3720              	.L260:
 891:telit.c       ****     }else{
 892:telit.c       ****         printNotif(NOTIF_TYPE_EVENT,"Modem turned on as expected.");
 3721              		.loc 1 892 0
 3722 0078 4249     		ldr	r1, .L271+12
 3723 007a 0020     		movs	r0, #0
 3724 007c FFF7FEFF 		bl	printNotif
 3725              	.L261:
 893:telit.c       ****     }
 894:telit.c       ****     
 895:telit.c       ****     if(!ready) return 0;
ARM GAS  C:\Users\bk\AppData\Local\Temp\ccq38zU3.s 			page 85


 3726              		.loc 1 895 0
 3727 0080 97F84731 		ldrb	r3, [r7, #327]	@ zero_extendqisi2
 3728 0084 002B     		cmp	r3, #0
 3729 0086 01D1     		bne	.L262
 3730              		.loc 1 895 0 is_stmt 0 discriminator 1
 3731 0088 0023     		movs	r3, #0
 3732 008a 70E0     		b	.L269
 3733              	.L262:
 896:telit.c       ****     
 897:telit.c       ****     modem_set_flow_control(0);
 3734              		.loc 1 897 0 is_stmt 1
 3735 008c 0020     		movs	r0, #0
 3736 008e FFF7FEFF 		bl	modem_set_flow_control
 898:telit.c       ****    
 899:telit.c       ****     at_write_command("AT#CGMM\r","OK",1000u); //modem model
 3737              		.loc 1 899 0
 3738 0092 4FF47A72 		mov	r2, #1000
 3739 0096 3C49     		ldr	r1, .L271+16
 3740 0098 3C48     		ldr	r0, .L271+20
 3741 009a FFF7FEFF 		bl	at_write_command
 900:telit.c       ****     at_write_command("AT+CGSN\r","OK",1000u); //IMEI
 3742              		.loc 1 900 0
 3743 009e 4FF47A72 		mov	r2, #1000
 3744 00a2 3949     		ldr	r1, .L271+16
 3745 00a4 3A48     		ldr	r0, .L271+24
 3746 00a6 FFF7FEFF 		bl	at_write_command
 901:telit.c       ****     char SIM[200];
 902:telit.c       ****     modem_get_ccid(SIM);
 3747              		.loc 1 902 0
 3748 00aa 07F16803 		add	r3, r7, #104
 3749 00ae 1846     		mov	r0, r3
 3750 00b0 FFF7FEFF 		bl	modem_get_ccid
 903:telit.c       ****     printNotif(NOTIF_TYPE_EVENT,"SIM_ID=%s",SIM);
 3751              		.loc 1 903 0
 3752 00b4 07F16803 		add	r3, r7, #104
 3753 00b8 1A46     		mov	r2, r3
 3754 00ba 3649     		ldr	r1, .L271+28
 3755 00bc 0020     		movs	r0, #0
 3756 00be FFF7FEFF 		bl	printNotif
 904:telit.c       ****     
 905:telit.c       ****     
 906:telit.c       ****     // Enable verbose error reporting by the cell module
 907:telit.c       ****     // Fully write out the errors as opposed to sending an error code
 908:telit.c       ****     at_write_command("AT+CMEE=2\r\n", "OK", 1000u);
 3757              		.loc 1 908 0
 3758 00c2 4FF47A72 		mov	r2, #1000
 3759 00c6 3049     		ldr	r1, .L271+16
 3760 00c8 3348     		ldr	r0, .L271+32
 3761 00ca FFF7FEFF 		bl	at_write_command
 909:telit.c       ****     
 910:telit.c       ****     at_write_command("AT+CMEE=2\r\n", "OK", 1000u);
 3762              		.loc 1 910 0
 3763 00ce 4FF47A72 		mov	r2, #1000
 3764 00d2 2D49     		ldr	r1, .L271+16
 3765 00d4 3048     		ldr	r0, .L271+32
 3766 00d6 FFF7FEFF 		bl	at_write_command
 911:telit.c       ****     
ARM GAS  C:\Users\bk\AppData\Local\Temp\ccq38zU3.s 			page 86


 912:telit.c       **** 
 913:telit.c       ****     
 914:telit.c       ****     
 915:telit.c       ****     
 916:telit.c       ****     
 917:telit.c       ****     
 918:telit.c       ****         // Configure the APN settings
 919:telit.c       ****     at_write_command("AT+CGDCONT=1,\"IP\",\"wireless.twilio.com\"\r\n", "OK", 1000u); 
 3767              		.loc 1 919 0
 3768 00da 4FF47A72 		mov	r2, #1000
 3769 00de 2A49     		ldr	r1, .L271+16
 3770 00e0 2E48     		ldr	r0, .L271+36
 3771 00e2 FFF7FEFF 		bl	at_write_command
 920:telit.c       ****         //at_write_command(usr_command, "OK", 1000u);
 921:telit.c       ****         //at_write_command( pw_command, "OK", 1000u);
 922:telit.c       ****         //at_write_command(bnd_command, "OK", 1000u);
 923:telit.c       ****         
 924:telit.c       ****         // Get CCID of SIM
 925:telit.c       ****         //modem_get_ccid(CCID);
 926:telit.c       ****                
 927:telit.c       ****         // Get the current time from the modem
 928:telit.c       ****         //gettime
 929:telit.c       ****          // Check for valid response from cellular module
 930:telit.c       ****         if (at_write_command("AT+CCLK?\r", "OK", 1000u) == 1u) {
 3772              		.loc 1 930 0
 3773 00e6 4FF47A72 		mov	r2, #1000
 3774 00ea 2749     		ldr	r1, .L271+16
 3775 00ec 2C48     		ldr	r0, .L271+40
 3776 00ee FFF7FEFF 		bl	at_write_command
 3777 00f2 0346     		mov	r3, r0
 3778 00f4 012B     		cmp	r3, #1
 3779 00f6 0DD1     		bne	.L264
 3780              	.LBB7:
 931:telit.c       ****         // Expect the UART to contain something like
 932:telit.c       ****         // "#CCLK: "00/01/01,00:00:55+00"\r\n\r\nOK"
 933:telit.c       ****             char time[100];
 934:telit.c       ****                 char *terminator =
 3781              		.loc 1 934 0
 3782 00f8 391D     		adds	r1, r7, #4
 3783 00fa 2A4B     		ldr	r3, .L271+44
 3784 00fc 2A4A     		ldr	r2, .L271+48
 3785 00fe 2B48     		ldr	r0, .L271+52
 3786 0100 FFF7FEFF 		bl	strextract
 3787 0104 C7F83401 		str	r0, [r7, #308]
 935:telit.c       ****             strextract(uart_received_string, time, "+CCLK: ", "\r\n");
 936:telit.c       ****             printNotif(NOTIF_TYPE_EVENT,"Modem Time Recevied: %s", time);
 3788              		.loc 1 936 0
 3789 0108 3B1D     		adds	r3, r7, #4
 3790 010a 1A46     		mov	r2, r3
 3791 010c 2849     		ldr	r1, .L271+56
 3792 010e 0020     		movs	r0, #0
 3793 0110 FFF7FEFF 		bl	printNotif
 3794              	.L264:
 3795              	.LBE7:
 3796              	.LBB8:
 937:telit.c       ****         }
 938:telit.c       **** 
ARM GAS  C:\Users\bk\AppData\Local\Temp\ccq38zU3.s 			page 87


 939:telit.c       ****         
 940:telit.c       **** 
 941:telit.c       ****         // Get the signal strength from the modem
 942:telit.c       ****         for (int n_csq = 0; n_csq < 3; n_csq++) {
 3797              		.loc 1 942 0
 3798 0114 0023     		movs	r3, #0
 3799 0116 C7F84031 		str	r3, [r7, #320]
 3800 011a 23E0     		b	.L265
 3801              	.L268:
 943:telit.c       ****              // Check for valid response from cellular module
 944:telit.c       ****             if (at_write_command("AT+CSQ\r", "OK", 1000u) == 1u) {
 3802              		.loc 1 944 0
 3803 011c 4FF47A72 		mov	r2, #1000
 3804 0120 1949     		ldr	r1, .L271+16
 3805 0122 2448     		ldr	r0, .L271+60
 3806 0124 FFF7FEFF 		bl	at_write_command
 3807 0128 0346     		mov	r3, r0
 3808 012a 012B     		cmp	r3, #1
 3809 012c 11D1     		bne	.L266
 3810              	.LBB9:
 945:telit.c       ****                 // Expect the UART to contain something like
 946:telit.c       ****                 // "\r\n+CSQ: 8,4\r\n\r\nOK"
 947:telit.c       ****                 char strength[100];
 948:telit.c       ****                 char *terminator =
 3811              		.loc 1 948 0
 3812 012e 391D     		adds	r1, r7, #4
 3813 0130 214B     		ldr	r3, .L271+64
 3814 0132 224A     		ldr	r2, .L271+68
 3815 0134 1D48     		ldr	r0, .L271+52
 3816 0136 FFF7FEFF 		bl	strextract
 3817 013a C7F83001 		str	r0, [r7, #304]
 949:telit.c       ****                     strextract(uart_received_string, strength, "+CSQ: ", ",");
 950:telit.c       ****                      printNotif(NOTIF_TYPE_EVENT,"Signal Strength Recevied on %d/3 tries: %s",(n_cs
 3818              		.loc 1 950 0
 3819 013e D7F84031 		ldr	r3, [r7, #320]
 3820 0142 5A1C     		adds	r2, r3, #1
 3821 0144 3B1D     		adds	r3, r7, #4
 3822 0146 1E49     		ldr	r1, .L271+72
 3823 0148 0020     		movs	r0, #0
 3824 014a FFF7FEFF 		bl	printNotif
 951:telit.c       ****                     break;
 3825              		.loc 1 951 0
 3826 014e 00BF     		nop
 3827 0150 0CE0     		b	.L267
 3828              	.L266:
 3829              	.LBE9:
 952:telit.c       ****             }
 953:telit.c       ****             CyDelay(1000u);
 3830              		.loc 1 953 0 discriminator 2
 3831 0152 4FF47A70 		mov	r0, #1000
 3832 0156 FFF7FEFF 		bl	CyDelay
 942:telit.c       ****              // Check for valid response from cellular module
 3833              		.loc 1 942 0 discriminator 2
 3834 015a D7F84031 		ldr	r3, [r7, #320]
 3835 015e 0133     		adds	r3, r3, #1
 3836 0160 C7F84031 		str	r3, [r7, #320]
 3837              	.L265:
ARM GAS  C:\Users\bk\AppData\Local\Temp\ccq38zU3.s 			page 88


 942:telit.c       ****              // Check for valid response from cellular module
 3838              		.loc 1 942 0 is_stmt 0 discriminator 1
 3839 0164 D7F84031 		ldr	r3, [r7, #320]
 3840 0168 022B     		cmp	r3, #2
 3841 016a D7DD     		ble	.L268
 3842              	.L267:
 3843              	.LBE8:
 954:telit.c       ****         }
 955:telit.c       ****         
 956:telit.c       ****             // Send the data to InfluxDB\// Get CCID of SIM
 957:telit.c       **** 
 958:telit.c       ****         
 959:telit.c       ****         //modem_post_to_influxdb("TEST");
 960:telit.c       ****         
 961:telit.c       **** 
 962:telit.c       **** 
 963:telit.c       ****     //  END  configure the modem APN
 964:telit.c       ****     
 965:telit.c       ****     
 966:telit.c       ****     
 967:telit.c       ****     
 968:telit.c       **** 
 969:telit.c       ****      /*at_write_command("AT#SIMDET=0\r","OK",1000);
 970:telit.c       **** 
 971:telit.c       ****     
 972:telit.c       ****      the SIM card connector doesn't have the SIMIN pin.
 973:telit.c       ****      * hence, the SIM card presence status is manually set to ignore
 974:telit.c       ****      * SIMIN pin, and act as "SIM inserted"    
 975:telit.c       ****   
 976:telit.c       ****      at_write_command("AT#SIMDET=1\r","OK",1000);
 977:telit.c       ****    
 978:telit.c       ****     
 979:telit.c       ****     modem_define_PDP();                       //modem_define_PDP(); 
 980:telit.c       ****     
 981:telit.c       ****     at_write_command("AT#SCFG=1,3,300,90,600,50\r","OK",1000);
 982:telit.c       ****          
 983:telit.c       ****     modem_check_network();
 984:telit.c       ****                                 // BPW: Appears the modem either doesn't receive or respond every o
 985:telit.c       ****                                 //      First I tried repeating each command,
 986:telit.c       ****                                 //      then I edited at_write_command and added an outer loop.
 987:telit.c       ****                                 //      It appears to be a bandaid that fixes the problem, but perh
 988:telit.c       ****                                 //      not the best solution for the long term
 989:telit.c       ****                                 //
 990:telit.c       ****                                 //      The state machine currently relies on each
 991:telit.c       ****                                 //      response successfully being transmitted back from the modem
 992:telit.c       ****                                 //      It may be a hardware issue?
 993:telit.c       ****                                 //
 994:telit.c       ****                                 //      The bandaid fix could be to update EVENT_NODE_LIST[]
 995:telit.c       ****                                 //      so that the state machine doesn't always go back to the sta
 996:telit.c       ****                                 //      whenever it received a blank response instead of the expect
 997:telit.c       ****                                 //      - Related functions to the state machine are:
 998:telit.c       ****                                 //        modem_check_action(), modem_select_action(), and modem_ch
 999:telit.c       ****     modem_set_LED();            //modem_set_LED();
1000:telit.c       ****     modem_set_flow_control(0);  //modem_set_flow_control(0);
1001:telit.c       ****     modem_setup();              //modem_setup();
1002:telit.c       ****     modem_set_interface_style();//modem_set_interface_style();
1003:telit.c       ****     //modem_report_hardware_identification();
ARM GAS  C:\Users\bk\AppData\Local\Temp\ccq38zU3.s 			page 89


1004:telit.c       ****     modem_report_product_identification(); //modem_report_product_identification();
1005:telit.c       ****     
1006:telit.c       ****     parse_meid(MEID);
1007:telit.c       ****   
1008:telit.c       ****     //modem_report_software_version();
1009:telit.c       ****        
1010:telit.c       ****      it usually takes two queries to the SIM card before
1011:telit.c       ****      * its existence is acknowledged
1012:telit.c       ****     //for(i=0;i<3;i++){
1013:telit.c       ****        modem_report_IMSI();
1014:telit.c       ****     //}     
1015:telit.c       ****     
1016:telit.c       ****     at_write_command("AT#AUTOATT=0\r","OK",1000);
1017:telit.c       ****     at_write_command("AT+CGATT=1\r","",1000); // doesn't respond
1018:telit.c       ****     
1019:telit.c       ****     rssi = 0;
1020:telit.c       ****     fer = 0;
1021:telit.c       ****     modem_check_signal_quality(&rssi,&fer);
1022:telit.c       ****    // printNotif("Modem RSSI %d, FER %d: %s", rssi, fer);
1023:telit.c       ****     
1024:telit.c       ****     
1025:telit.c       ****     uint8 status = 0;
1026:telit.c       ****     status = modem_check_network();                    //modem_check_network(); 
1027:telit.c       ****     //printNotif("Network Check: Status=%d", status);
1028:telit.c       ****     
1029:telit.c       ****     at_write_command("AT#CCLK?\r","OK",1000); //at_write_command("AT#CCLK?\r","OK",1000);
1030:telit.c       ****     //at_write_command("AT#GPRS=1\r","OK",1000);
1031:telit.c       ****     if (at_write_command("AT#SGACT?\r",",0",1000)){
1032:telit.c       ****         at_write_command("AT#SCFG?\r","OK",1000);
1033:telit.c       ****         at_write_command("AT#SGACT=3,1\r","OK",1000);   
1034:telit.c       ****     }
1035:telit.c       ****     //at_write_command("AT#SCFG?\r","OK",1000);
1036:telit.c       ****     
1037:telit.c       ****     
1038:telit.c       ****     status = at_write_command("AT#SD=3,0,8086,\"data.open-storm.org\",0,0,1\r","OK",5000);
1039:telit.c       ****     //printNotif("Connect to Open Storm: Status=%d", status);
1040:telit.c       ****     
1041:telit.c       ****     status = at_write_command("AT#SSEND=3\r\n",   ">", 1000);
1042:telit.c       ****     
1043:telit.c       ****     status = at_write_command("POST /write?db=ARB&u=generic_node&p=MakeFloodsCurrents HTTP/1.1\r\nH
1044:telit.c       ****     
1045:telit.c       ****     //printNotif("End Modem Test: Status=%d", status);
1046:telit.c       ****     //at_write_command("AT#SRECV=3,1000","OK",1000);
1047:telit.c       **** 
1048:telit.c       **** 
1049:telit.c       ****     
1050:telit.c       ****     adjust_time();*/
1051:telit.c       ****     
1052:telit.c       ****     return 1;           
 3844              		.loc 1 1052 0 is_stmt 1
 3845 016c 0123     		movs	r3, #1
 3846              	.L269:
1053:telit.c       **** }
 3847              		.loc 1 1053 0 discriminator 1
 3848 016e 1846     		mov	r0, r3
 3849 0170 07F5A477 		add	r7, r7, #328
 3850              		.cfi_def_cfa_offset 8
ARM GAS  C:\Users\bk\AppData\Local\Temp\ccq38zU3.s 			page 90


 3851 0174 BD46     		mov	sp, r7
 3852              		.cfi_def_cfa_register 13
 3853              		@ sp needed
 3854 0176 80BD     		pop	{r7, pc}
 3855              	.L272:
 3856              		.align	2
 3857              	.L271:
 3858 0178 F8020000 		.word	.LC54
 3859 017c 3C030000 		.word	.LC55
 3860 0180 4C030000 		.word	.LC56
 3861 0184 6C030000 		.word	.LC57
 3862 0188 14000000 		.word	.LC2
 3863 018c 8C030000 		.word	.LC58
 3864 0190 98030000 		.word	.LC59
 3865 0194 A4030000 		.word	.LC60
 3866 0198 B0030000 		.word	.LC61
 3867 019c BC030000 		.word	.LC62
 3868 01a0 E8030000 		.word	.LC63
 3869 01a4 20020000 		.word	.LC37
 3870 01a8 F4030000 		.word	.LC64
 3871 01ac 00000000 		.word	uart_received_string
 3872 01b0 FC030000 		.word	.LC65
 3873 01b4 D4010000 		.word	.LC31
 3874 01b8 14040000 		.word	.LC66
 3875 01bc DC010000 		.word	.LC32
 3876 01c0 18040000 		.word	.LC67
 3877              		.cfi_endproc
 3878              	.LFE112:
 3879              		.size	modem_startup, .-modem_startup
 3880              		.section	.rodata
 3881 0443 00       		.align	2
 3882              	.LC73:
 3883 0444 504F5354 		.ascii	"POST /write?db=%s&u=%s&p=%s HTTP/1.1\015\012Host: %"
 3883      202F7772 
 3883      6974653F 
 3883      64623D25 
 3883      7326753D 
 3884 0471 733A2573 		.ascii	"s:%s\015\012Connection: close\015\012Content-Length"
 3884      0D0A436F 
 3884      6E6E6563 
 3884      74696F6E 
 3884      3A20636C 
 3885 0498 3A202564 		.ascii	": %d\015\012\015\012%s\015\012\015\012\032\000"
 3885      0D0A0D0A 
 3885      25730D0A 
 3885      0D0A1A00 
 3886              		.align	2
 3887              	.LC74:
 3888 04a8 4D4F4445 		.ascii	"MODEM Register try %d/10\000"
 3888      4D205265 
 3888      67697374 
 3888      65722074 
 3888      72792025 
 3889 04c1 000000   		.align	2
 3890              	.LC75:
 3891 04c4 41542B43 		.ascii	"AT+CREG?\015\000"
 3891      5245473F 
ARM GAS  C:\Users\bk\AppData\Local\Temp\ccq38zU3.s 			page 91


 3891      0D00
 3892 04ce 0000     		.align	2
 3893              	.LC76:
 3894 04d0 41542353 		.ascii	"AT#SGACT=1,1\015\012\000"
 3894      47414354 
 3894      3D312C31 
 3894      0D0A00
 3895 04df 00       		.align	2
 3896              	.LC77:
 3897 04e0 41542353 		.ascii	"AT#SD=1,0,%s,\"%s\",0,0,1\015\012\000"
 3897      443D312C 
 3897      302C2573 
 3897      2C222573 
 3897      222C302C 
 3898 04fa 0000     		.align	2
 3899              	.LC78:
 3900 04fc 41542353 		.ascii	"AT#SSEND=1\015\012\000"
 3900      53454E44 
 3900      3D310D0A 
 3900      00
 3901 0509 000000   		.align	2
 3902              	.LC79:
 3903 050c 48545450 		.ascii	"HTTP/1.1 204\000"
 3903      2F312E31 
 3903      20323034 
 3903      00
 3904 0519 000000   		.align	2
 3905              	.LC80:
 3906 051c 41542353 		.ascii	"AT#SH=1\015\012\000"
 3906      483D310D 
 3906      0A00
 3907 0526 0000     		.align	2
 3908              	.LC68:
 3909 0528 47474230 		.ascii	"GGB004\000"
 3909      303400
 3910 052f 00000000 		.space	13
 3910      00000000 
 3910      00000000 
 3910      00
 3911              		.align	2
 3912              	.LC69:
 3913 053c 67656E65 		.ascii	"generic_node\000"
 3913      7269635F 
 3913      6E6F6465 
 3913      00
 3914 0549 00000000 		.space	7
 3914      000000
 3915              		.align	2
 3916              	.LC70:
 3917 0550 4D616B65 		.ascii	"MakeFloodsCurrents\000"
 3917      466C6F6F 
 3917      64734375 
 3917      7272656E 
 3917      747300
 3918 0563 00       		.space	1
 3919              		.align	2
 3920              	.LC71:
ARM GAS  C:\Users\bk\AppData\Local\Temp\ccq38zU3.s 			page 92


 3921 0564 64617461 		.ascii	"data.open-storm.org\000"
 3921      2E6F7065 
 3921      6E2D7374 
 3921      6F726D2E 
 3921      6F726700 
 3922              		.align	2
 3923              	.LC72:
 3924 0578 38303836 		.ascii	"8086\000"
 3924      00
 3925 057d 00000000 		.space	15
 3925      00000000 
 3925      00000000 
 3925      000000
 3926              		.section	.text.modem_post_to_influxdb,"ax",%progbits
 3927              		.align	2
 3928              		.global	modem_post_to_influxdb
 3929              		.thumb
 3930              		.thumb_func
 3931              		.type	modem_post_to_influxdb, %function
 3932              	modem_post_to_influxdb:
 3933              	.LFB113:
1054:telit.c       **** 
1055:telit.c       **** 
1056:telit.c       **** uint8 modem_post_to_influxdb(char *body) {
 3934              		.loc 1 1056 0
 3935              		.cfi_startproc
 3936              		@ args = 0, pretend = 0, frame = 6136
 3937              		@ frame_needed = 1, uses_anonymous_args = 0
 3938 0000 F0B5     		push	{r4, r5, r6, r7, lr}
 3939              		.cfi_def_cfa_offset 20
 3940              		.cfi_offset 4, -20
 3941              		.cfi_offset 5, -16
 3942              		.cfi_offset 6, -12
 3943              		.cfi_offset 7, -8
 3944              		.cfi_offset 14, -4
 3945 0002 ADF5C05D 		sub	sp, sp, #6144
 3946              		.cfi_def_cfa_offset 6164
 3947 0006 85B0     		sub	sp, sp, #20
 3948              		.cfi_def_cfa_offset 6184
 3949 0008 06AF     		add	r7, sp, #24
 3950              		.cfi_def_cfa 7, 6160
 3951 000a 07F11803 		add	r3, r7, #24
 3952 000e 143B     		subs	r3, r3, #20
 3953 0010 1860     		str	r0, [r3]
1057:telit.c       ****     
1058:telit.c       ****     uint8 status = 100;
 3954              		.loc 1 1058 0
 3955 0012 6423     		movs	r3, #100
 3956 0014 07F5BF52 		add	r2, r7, #6112
 3957 0018 02F11302 		add	r2, r2, #19
 3958 001c 1370     		strb	r3, [r2]
1059:telit.c       ****     
1060:telit.c       ****     // Construct the HTTP request:
1061:telit.c       ****     // POST /write?db=<db>&u=<user>&p<pass> HTTP/1.1
1062:telit.c       ****     // Host: <host>:<port>
1063:telit.c       ****     // Connection: Keep-Alive
1064:telit.c       ****     // Content-Length: <strlen(body)>
ARM GAS  C:\Users\bk\AppData\Local\Temp\ccq38zU3.s 			page 93


1065:telit.c       ****     // 
1066:telit.c       ****     // <body>
1067:telit.c       ****     
1068:telit.c       ****     // InfluxDB values
1069:telit.c       ****    char  request[3000]; 
1070:telit.c       **** char  at_command[3000]; 
1071:telit.c       **** char node_id[20]    = "GGB004";
 3959              		.loc 1 1071 0
 3960 001e 07F17802 		add	r2, r7, #120
 3961 0022 0C3A     		subs	r2, r2, #12
 3962 0024 7149     		ldr	r1, .L280
 3963 0026 1346     		mov	r3, r2
 3964 0028 03C9     		ldmia	r1, {r0, r1}
 3965 002a 1860     		str	r0, [r3]
 3966 002c 0433     		adds	r3, r3, #4
 3967 002e 1980     		strh	r1, [r3]	@ movhi
 3968 0030 0233     		adds	r3, r3, #2
 3969 0032 090C     		lsrs	r1, r1, #16
 3970 0034 1970     		strb	r1, [r3]
 3971 0036 D31D     		adds	r3, r2, #7
 3972 0038 0022     		movs	r2, #0
 3973 003a 1A60     		str	r2, [r3]	@ unaligned
 3974 003c 5A60     		str	r2, [r3, #4]	@ unaligned
 3975 003e 9A60     		str	r2, [r3, #8]	@ unaligned
 3976 0040 1A73     		strb	r2, [r3, #12]
1072:telit.c       **** char db[20]         = "ARB"; 
 3977              		.loc 1 1072 0
 3978 0042 07F15803 		add	r3, r7, #88
 3979 0046 6A4A     		ldr	r2, .L280+4
 3980 0048 1A60     		str	r2, [r3]
 3981 004a 0433     		adds	r3, r3, #4
 3982 004c 0022     		movs	r2, #0
 3983 004e 1A60     		str	r2, [r3]
 3984 0050 5A60     		str	r2, [r3, #4]
 3985 0052 9A60     		str	r2, [r3, #8]
 3986 0054 DA60     		str	r2, [r3, #12]
1073:telit.c       **** char user[20]       = "generic_node";
 3987              		.loc 1 1073 0
 3988 0056 07F15805 		add	r5, r7, #88
 3989 005a 143D     		subs	r5, r5, #20
 3990 005c 654B     		ldr	r3, .L280+8
 3991 005e 2C46     		mov	r4, r5
 3992 0060 0FCB     		ldmia	r3, {r0, r1, r2, r3}
 3993 0062 07C4     		stmia	r4!, {r0, r1, r2}
 3994 0064 2370     		strb	r3, [r4]
 3995 0066 05F10D03 		add	r3, r5, #13
 3996 006a 0022     		movs	r2, #0
 3997 006c 1A60     		str	r2, [r3]	@ unaligned
 3998 006e C3F80320 		str	r2, [r3, #3]	@ unaligned
1074:telit.c       **** char pass[20]       = "MakeFloodsCurrents";
 3999              		.loc 1 1074 0
 4000 0072 07F13806 		add	r6, r7, #56
 4001 0076 083E     		subs	r6, r6, #8
 4002 0078 5F4B     		ldr	r3, .L280+12
 4003 007a 3446     		mov	r4, r6
 4004 007c 1D46     		mov	r5, r3
 4005 007e 0FCD     		ldmia	r5!, {r0, r1, r2, r3}
ARM GAS  C:\Users\bk\AppData\Local\Temp\ccq38zU3.s 			page 94


 4006 0080 0FC4     		stmia	r4!, {r0, r1, r2, r3}
 4007 0082 2B68     		ldr	r3, [r5]
 4008 0084 1A46     		mov	r2, r3	@ movhi
 4009 0086 2280     		strh	r2, [r4]	@ movhi
 4010 0088 0234     		adds	r4, r4, #2
 4011 008a 1B0C     		lsrs	r3, r3, #16
 4012 008c 2370     		strb	r3, [r4]
 4013 008e 0023     		movs	r3, #0
 4014 0090 F374     		strb	r3, [r6, #19]
1075:telit.c       **** char host[20]       = "data.open-storm.org";
 4015              		.loc 1 1075 0
 4016 0092 07F13803 		add	r3, r7, #56
 4017 0096 1C3B     		subs	r3, r3, #28
 4018 0098 584A     		ldr	r2, .L280+16
 4019 009a 1C46     		mov	r4, r3
 4020 009c 1546     		mov	r5, r2
 4021 009e 0FCD     		ldmia	r5!, {r0, r1, r2, r3}
 4022 00a0 0FC4     		stmia	r4!, {r0, r1, r2, r3}
 4023 00a2 2B68     		ldr	r3, [r5]
 4024 00a4 2360     		str	r3, [r4]
1076:telit.c       **** char port[20]       = "8086";   
 4025              		.loc 1 1076 0
 4026 00a6 07F11803 		add	r3, r7, #24
 4027 00aa 103B     		subs	r3, r3, #16
 4028 00ac 5449     		ldr	r1, .L280+20
 4029 00ae 1A46     		mov	r2, r3
 4030 00b0 03C9     		ldmia	r1, {r0, r1}
 4031 00b2 1060     		str	r0, [r2]
 4032 00b4 0432     		adds	r2, r2, #4
 4033 00b6 1170     		strb	r1, [r2]
 4034 00b8 0533     		adds	r3, r3, #5
 4035 00ba 0022     		movs	r2, #0
 4036 00bc 1A60     		str	r2, [r3]	@ unaligned
 4037 00be 5A60     		str	r2, [r3, #4]	@ unaligned
 4038 00c0 9A60     		str	r2, [r3, #8]	@ unaligned
 4039 00c2 C3F80B20 		str	r2, [r3, #11]	@ unaligned
1077:telit.c       **** 
1078:telit.c       ****     
1079:telit.c       ****     //sprintf(request,"POST /write?db=%s&u=%s&p=%s HTTP/1.1\r\nHost: %s:%s\r\nConnection: Keep-Aliv
1080:telit.c       ****     //    db,user,pass,host,port,strlen(body),body);
1081:telit.c       ****     sprintf(request,"POST /write?db=%s&u=%s&p=%s HTTP/1.1\r\nHost: %s:%s\r\nConnection: close\r\nCo
 4040              		.loc 1 1081 0
 4041 00c6 07F11803 		add	r3, r7, #24
 4042 00ca 143B     		subs	r3, r3, #20
 4043 00cc 1868     		ldr	r0, [r3]
 4044 00ce FFF7FEFF 		bl	strlen
 4045 00d2 0446     		mov	r4, r0
 4046 00d4 07F15802 		add	r2, r7, #88
 4047 00d8 143A     		subs	r2, r2, #20
 4048 00da 07F15801 		add	r1, r7, #88
 4049 00de 07F63840 		addw	r0, r7, #3128
 4050 00e2 07F11803 		add	r3, r7, #24
 4051 00e6 143B     		subs	r3, r3, #20
 4052 00e8 1B68     		ldr	r3, [r3]
 4053 00ea 0493     		str	r3, [sp, #16]
 4054 00ec 0394     		str	r4, [sp, #12]
 4055 00ee 07F11803 		add	r3, r7, #24
ARM GAS  C:\Users\bk\AppData\Local\Temp\ccq38zU3.s 			page 95


 4056 00f2 103B     		subs	r3, r3, #16
 4057 00f4 0293     		str	r3, [sp, #8]
 4058 00f6 07F13803 		add	r3, r7, #56
 4059 00fa 1C3B     		subs	r3, r3, #28
 4060 00fc 0193     		str	r3, [sp, #4]
 4061 00fe 07F13803 		add	r3, r7, #56
 4062 0102 083B     		subs	r3, r3, #8
 4063 0104 0093     		str	r3, [sp]
 4064 0106 1346     		mov	r3, r2
 4065 0108 0A46     		mov	r2, r1
 4066 010a 3E49     		ldr	r1, .L280+24
 4067 010c FFF7FEFF 		bl	sprintf
 4068              	.LBB10:
1082:telit.c       ****         db,user,pass,host,port,strlen(body),body);
1083:telit.c       ****     // /!\ may need to replace spaces with %20 -- import url_encode from perfect-cell
1084:telit.c       ****     
1085:telit.c       ****     // Construct the Socket Dial AT command: 
1086:telit.c       ****     // AT#SD=1,0,<port>,"<host>",0,0,1
1087:telit.c       **** 
1088:telit.c       ****      // Construct the Socket Dial AT command: 
1089:telit.c       ****     // AT#SD=1,0,<port>,"<host>",0,0,1
1090:telit.c       ****     
1091:telit.c       ****     for (int i = 0; i<10; i++){
 4069              		.loc 1 1091 0
 4070 0110 0023     		movs	r3, #0
 4071 0112 07F5BF52 		add	r2, r7, #6112
 4072 0116 02F11402 		add	r2, r2, #20
 4073 011a 1360     		str	r3, [r2]
 4074 011c 1CE0     		b	.L274
 4075              	.L277:
1092:telit.c       ****         printNotif(NOTIF_TYPE_EVENT,"MODEM Register try %d/10",i);
 4076              		.loc 1 1092 0
 4077 011e 07F5BF53 		add	r3, r7, #6112
 4078 0122 03F11403 		add	r3, r3, #20
 4079 0126 1A68     		ldr	r2, [r3]
 4080 0128 3749     		ldr	r1, .L280+28
 4081 012a 0020     		movs	r0, #0
 4082 012c FFF7FEFF 		bl	printNotif
1093:telit.c       ****         if(at_write_command("AT+CREG?\r",",1",1000u)){
 4083              		.loc 1 1093 0
 4084 0130 4FF47A72 		mov	r2, #1000
 4085 0134 3549     		ldr	r1, .L280+32
 4086 0136 3648     		ldr	r0, .L280+36
 4087 0138 FFF7FEFF 		bl	at_write_command
 4088 013c 0346     		mov	r3, r0
 4089 013e 002B     		cmp	r3, #0
 4090 0140 12D1     		bne	.L279
1091:telit.c       ****         printNotif(NOTIF_TYPE_EVENT,"MODEM Register try %d/10",i);
 4091              		.loc 1 1091 0 discriminator 2
 4092 0142 07F5BF53 		add	r3, r7, #6112
 4093 0146 03F11403 		add	r3, r3, #20
 4094 014a 1B68     		ldr	r3, [r3]
 4095 014c 0133     		adds	r3, r3, #1
 4096 014e 07F5BF52 		add	r2, r7, #6112
 4097 0152 02F11402 		add	r2, r2, #20
 4098 0156 1360     		str	r3, [r2]
 4099              	.L274:
ARM GAS  C:\Users\bk\AppData\Local\Temp\ccq38zU3.s 			page 96


1091:telit.c       ****         printNotif(NOTIF_TYPE_EVENT,"MODEM Register try %d/10",i);
 4100              		.loc 1 1091 0 is_stmt 0 discriminator 1
 4101 0158 07F5BF53 		add	r3, r7, #6112
 4102 015c 03F11403 		add	r3, r3, #20
 4103 0160 1B68     		ldr	r3, [r3]
 4104 0162 092B     		cmp	r3, #9
 4105 0164 DBDD     		ble	.L277
 4106 0166 00E0     		b	.L276
 4107              	.L279:
1094:telit.c       ****             break; 
 4108              		.loc 1 1094 0 is_stmt 1
 4109 0168 00BF     		nop
 4110              	.L276:
 4111              	.LBE10:
1095:telit.c       ****         }
1096:telit.c       ****     }
1097:telit.c       ****     
1098:telit.c       ****     at_write_command("AT#SGACT=1,1\r\n","OK",10000u);
 4112              		.loc 1 1098 0
 4113 016a 42F21072 		movw	r2, #10000
 4114 016e 2949     		ldr	r1, .L280+40
 4115 0170 2948     		ldr	r0, .L280+44
 4116 0172 FFF7FEFF 		bl	at_write_command
1099:telit.c       ****     sprintf(at_command,"AT#SD=1,0,%s,\"%s\",0,0,1\r\n",port,host);
 4117              		.loc 1 1099 0
 4118 0176 07F13803 		add	r3, r7, #56
 4119 017a 1C3B     		subs	r3, r3, #28
 4120 017c 07F11802 		add	r2, r7, #24
 4121 0180 103A     		subs	r2, r2, #16
 4122 0182 07F19800 		add	r0, r7, #152
 4123 0186 1838     		subs	r0, r0, #24
 4124 0188 2449     		ldr	r1, .L280+48
 4125 018a FFF7FEFF 		bl	sprintf
1100:telit.c       ****     at_write_command( at_command,   "OK",10000u);
 4126              		.loc 1 1100 0
 4127 018e 07F19803 		add	r3, r7, #152
 4128 0192 183B     		subs	r3, r3, #24
 4129 0194 42F21072 		movw	r2, #10000
 4130 0198 1E49     		ldr	r1, .L280+40
 4131 019a 1846     		mov	r0, r3
 4132 019c FFF7FEFF 		bl	at_write_command
1101:telit.c       ****     at_write_command("AT#SSEND=1\r\n",   ">", 1000u);
 4133              		.loc 1 1101 0
 4134 01a0 4FF47A72 		mov	r2, #1000
 4135 01a4 1E49     		ldr	r1, .L280+52
 4136 01a6 1F48     		ldr	r0, .L280+56
 4137 01a8 FFF7FEFF 		bl	at_write_command
1102:telit.c       ****     
1103:telit.c       ****     status = at_write_command(request, "HTTP/1.1 204", 1000u);
 4138              		.loc 1 1103 0
 4139 01ac 07F63843 		addw	r3, r7, #3128
 4140 01b0 4FF47A72 		mov	r2, #1000
 4141 01b4 1C49     		ldr	r1, .L280+60
 4142 01b6 1846     		mov	r0, r3
 4143 01b8 FFF7FEFF 		bl	at_write_command
 4144 01bc 0346     		mov	r3, r0
 4145 01be 07F5BF52 		add	r2, r7, #6112
ARM GAS  C:\Users\bk\AppData\Local\Temp\ccq38zU3.s 			page 97


 4146 01c2 02F11302 		add	r2, r2, #19
 4147 01c6 1370     		strb	r3, [r2]
1104:telit.c       ****     at_write_command("AT#SH=1\r\n", "OK", 1000u);
 4148              		.loc 1 1104 0
 4149 01c8 4FF47A72 		mov	r2, #1000
 4150 01cc 1149     		ldr	r1, .L280+40
 4151 01ce 1748     		ldr	r0, .L280+64
 4152 01d0 FFF7FEFF 		bl	at_write_command
1105:telit.c       ****     return status;
 4153              		.loc 1 1105 0
 4154 01d4 07F5BF53 		add	r3, r7, #6112
 4155 01d8 03F11303 		add	r3, r3, #19
 4156 01dc 1B78     		ldrb	r3, [r3]	@ zero_extendqisi2
1106:telit.c       **** }
 4157              		.loc 1 1106 0
 4158 01de 1846     		mov	r0, r3
 4159 01e0 07F5BF57 		add	r7, r7, #6112
 4160 01e4 1C37     		adds	r7, r7, #28
 4161              		.cfi_def_cfa_offset 20
 4162 01e6 BD46     		mov	sp, r7
 4163              		.cfi_def_cfa_register 13
 4164              		@ sp needed
 4165 01e8 F0BD     		pop	{r4, r5, r6, r7, pc}
 4166              	.L281:
 4167 01ea 00BF     		.align	2
 4168              	.L280:
 4169 01ec 28050000 		.word	.LC68
 4170 01f0 41524200 		.word	4346433
 4171 01f4 3C050000 		.word	.LC69
 4172 01f8 50050000 		.word	.LC70
 4173 01fc 64050000 		.word	.LC71
 4174 0200 78050000 		.word	.LC72
 4175 0204 44040000 		.word	.LC73
 4176 0208 A8040000 		.word	.LC74
 4177 020c 30000000 		.word	.LC5
 4178 0210 C4040000 		.word	.LC75
 4179 0214 14000000 		.word	.LC2
 4180 0218 D0040000 		.word	.LC76
 4181 021c E0040000 		.word	.LC77
 4182 0220 88000000 		.word	.LC12
 4183 0224 FC040000 		.word	.LC78
 4184 0228 0C050000 		.word	.LC79
 4185 022c 1C050000 		.word	.LC80
 4186              		.cfi_endproc
 4187              	.LFE113:
 4188              		.size	modem_post_to_influxdb, .-modem_post_to_influxdb
 4189              		.section	.rodata
 4190              		.align	2
 4191              	.LC81:
 4192 058c 41542343 		.ascii	"AT#CCID\015\000"
 4192      4349440D 
 4192      00
 4193 0595 000000   		.align	2
 4194              	.LC82:
 4195 0598 23434349 		.ascii	"#CCID: \000"
 4195      443A2000 
 4196              		.section	.text.modem_get_ccid,"ax",%progbits
ARM GAS  C:\Users\bk\AppData\Local\Temp\ccq38zU3.s 			page 98


 4197              		.align	2
 4198              		.global	modem_get_ccid
 4199              		.thumb
 4200              		.thumb_func
 4201              		.type	modem_get_ccid, %function
 4202              	modem_get_ccid:
 4203              	.LFB114:
1107:telit.c       **** 
1108:telit.c       **** uint8 modem_get_ccid(char *ccid) {
 4204              		.loc 1 1108 0
 4205              		.cfi_startproc
 4206              		@ args = 0, pretend = 0, frame = 16
 4207              		@ frame_needed = 1, uses_anonymous_args = 0
 4208 0000 80B5     		push	{r7, lr}
 4209              		.cfi_def_cfa_offset 8
 4210              		.cfi_offset 7, -8
 4211              		.cfi_offset 14, -4
 4212 0002 84B0     		sub	sp, sp, #16
 4213              		.cfi_def_cfa_offset 24
 4214 0004 00AF     		add	r7, sp, #0
 4215              		.cfi_def_cfa_register 7
 4216 0006 7860     		str	r0, [r7, #4]
1109:telit.c       ****     /*
1110:telit.c       ****     int modem_get_meid(char* ccid)
1111:telit.c       **** 
1112:telit.c       ****     Return the CCID of the cell module
1113:telit.c       **** 
1114:telit.c       ****     Example HE910/NL-SW-HSPA Conversation:
1115:telit.c       ****     [Board] AT+CCID
1116:telit.c       ****     [Modem] AT+CCID\r\n+CCID: 89014103279069593771\r\n\r\nOK
1117:telit.c       ****     */
1118:telit.c       **** 
1119:telit.c       ****     // Check for valid response from cellular module
1120:telit.c       ****     if (at_write_command("AT#CCID\r", "OK", 1000u) == 1u) {
 4217              		.loc 1 1120 0
 4218 0008 4FF47A72 		mov	r2, #1000
 4219 000c 0C49     		ldr	r1, .L285
 4220 000e 0D48     		ldr	r0, .L285+4
 4221 0010 FFF7FEFF 		bl	at_write_command
 4222 0014 0346     		mov	r3, r0
 4223 0016 012B     		cmp	r3, #1
 4224 0018 0DD1     		bne	.L283
 4225              	.LBB11:
1121:telit.c       ****         // Expect the UART to contain something like
1122:telit.c       ****         // "\r\n+CCID: 89014103279069593771\r\n\r\nOK"
1123:telit.c       ****         char *terminator =
 4226              		.loc 1 1123 0
 4227 001a 0B4B     		ldr	r3, .L285+8
 4228 001c 0B4A     		ldr	r2, .L285+12
 4229 001e 7968     		ldr	r1, [r7, #4]
 4230 0020 0B48     		ldr	r0, .L285+16
 4231 0022 FFF7FEFF 		bl	strextract
 4232 0026 F860     		str	r0, [r7, #12]
1124:telit.c       ****             strextract(uart_received_string, ccid, "#CCID: ", "\r\n");
1125:telit.c       **** 
1126:telit.c       ****         return terminator != NULL;
 4233              		.loc 1 1126 0
ARM GAS  C:\Users\bk\AppData\Local\Temp\ccq38zU3.s 			page 99


 4234 0028 FB68     		ldr	r3, [r7, #12]
 4235 002a 002B     		cmp	r3, #0
 4236 002c 14BF     		ite	ne
 4237 002e 0123     		movne	r3, #1
 4238 0030 0023     		moveq	r3, #0
 4239 0032 DBB2     		uxtb	r3, r3
 4240 0034 00E0     		b	.L284
 4241              	.L283:
 4242              	.LBE11:
1127:telit.c       ****     }
1128:telit.c       **** 
1129:telit.c       ****     return 0u;
 4243              		.loc 1 1129 0
 4244 0036 0023     		movs	r3, #0
 4245              	.L284:
1130:telit.c       **** }
 4246              		.loc 1 1130 0
 4247 0038 1846     		mov	r0, r3
 4248 003a 1037     		adds	r7, r7, #16
 4249              		.cfi_def_cfa_offset 8
 4250 003c BD46     		mov	sp, r7
 4251              		.cfi_def_cfa_register 13
 4252              		@ sp needed
 4253 003e 80BD     		pop	{r7, pc}
 4254              	.L286:
 4255              		.align	2
 4256              	.L285:
 4257 0040 14000000 		.word	.LC2
 4258 0044 8C050000 		.word	.LC81
 4259 0048 20020000 		.word	.LC37
 4260 004c 98050000 		.word	.LC82
 4261 0050 00000000 		.word	uart_received_string
 4262              		.cfi_endproc
 4263              	.LFE114:
 4264              		.size	modem_get_ccid, .-modem_get_ccid
 4265              		.text
 4266              	.Letext0:
 4267              		.file 2 "c:\\program files (x86)\\cypress\\psoc creator\\4.3\\psoc creator\\import\\gnu\\arm\\5.4.
 4268              		.file 3 "c:\\program files (x86)\\cypress\\psoc creator\\4.3\\psoc creator\\import\\gnu\\arm\\5.4.
 4269              		.file 4 "Generated_Source\\PSoC5/cytypes.h"
 4270              		.file 5 "./telit.h"
 4271              		.file 6 "Generated_Source\\PSoC5/core_cm3.h"
 4272              		.file 7 "debug.h"
 4273              		.section	.debug_info,"",%progbits
 4274              	.Ldebug_info0:
 4275 0000 440E0000 		.4byte	0xe44
 4276 0004 0400     		.2byte	0x4
 4277 0006 00000000 		.4byte	.Ldebug_abbrev0
 4278 000a 04       		.byte	0x4
 4279 000b 01       		.uleb128 0x1
 4280 000c 54010000 		.4byte	.LASF181
 4281 0010 0C       		.byte	0xc
 4282 0011 12050000 		.4byte	.LASF182
 4283 0015 AF060000 		.4byte	.LASF183
 4284 0019 00000000 		.4byte	.Ldebug_ranges0+0
 4285 001d 00000000 		.4byte	0
 4286 0021 00000000 		.4byte	.Ldebug_line0
ARM GAS  C:\Users\bk\AppData\Local\Temp\ccq38zU3.s 			page 100


 4287 0025 02       		.uleb128 0x2
 4288 0026 01       		.byte	0x1
 4289 0027 06       		.byte	0x6
 4290 0028 960A0000 		.4byte	.LASF0
 4291 002c 03       		.uleb128 0x3
 4292 002d 0D080000 		.4byte	.LASF3
 4293 0031 02       		.byte	0x2
 4294 0032 1D       		.byte	0x1d
 4295 0033 37000000 		.4byte	0x37
 4296 0037 02       		.uleb128 0x2
 4297 0038 01       		.byte	0x1
 4298 0039 08       		.byte	0x8
 4299 003a 6A090000 		.4byte	.LASF1
 4300 003e 02       		.uleb128 0x2
 4301 003f 02       		.byte	0x2
 4302 0040 05       		.byte	0x5
 4303 0041 77070000 		.4byte	.LASF2
 4304 0045 03       		.uleb128 0x3
 4305 0046 FE030000 		.4byte	.LASF4
 4306 004a 02       		.byte	0x2
 4307 004b 2B       		.byte	0x2b
 4308 004c 50000000 		.4byte	0x50
 4309 0050 02       		.uleb128 0x2
 4310 0051 02       		.byte	0x2
 4311 0052 07       		.byte	0x7
 4312 0053 C20A0000 		.4byte	.LASF5
 4313 0057 03       		.uleb128 0x3
 4314 0058 EE000000 		.4byte	.LASF6
 4315 005c 02       		.byte	0x2
 4316 005d 3F       		.byte	0x3f
 4317 005e 62000000 		.4byte	0x62
 4318 0062 02       		.uleb128 0x2
 4319 0063 04       		.byte	0x4
 4320 0064 05       		.byte	0x5
 4321 0065 91070000 		.4byte	.LASF7
 4322 0069 03       		.uleb128 0x3
 4323 006a 84090000 		.4byte	.LASF8
 4324 006e 02       		.byte	0x2
 4325 006f 41       		.byte	0x41
 4326 0070 74000000 		.4byte	0x74
 4327 0074 02       		.uleb128 0x2
 4328 0075 04       		.byte	0x4
 4329 0076 07       		.byte	0x7
 4330 0077 8D080000 		.4byte	.LASF9
 4331 007b 02       		.uleb128 0x2
 4332 007c 08       		.byte	0x8
 4333 007d 05       		.byte	0x5
 4334 007e 25060000 		.4byte	.LASF10
 4335 0082 02       		.uleb128 0x2
 4336 0083 08       		.byte	0x8
 4337 0084 07       		.byte	0x7
 4338 0085 92030000 		.4byte	.LASF11
 4339 0089 04       		.uleb128 0x4
 4340 008a 04       		.byte	0x4
 4341 008b 05       		.byte	0x5
 4342 008c 696E7400 		.ascii	"int\000"
 4343 0090 02       		.uleb128 0x2
ARM GAS  C:\Users\bk\AppData\Local\Temp\ccq38zU3.s 			page 101


 4344 0091 04       		.byte	0x4
 4345 0092 07       		.byte	0x7
 4346 0093 C9000000 		.4byte	.LASF12
 4347 0097 03       		.uleb128 0x3
 4348 0098 E5050000 		.4byte	.LASF13
 4349 009c 03       		.byte	0x3
 4350 009d 18       		.byte	0x18
 4351 009e 2C000000 		.4byte	0x2c
 4352 00a2 03       		.uleb128 0x3
 4353 00a3 45070000 		.4byte	.LASF14
 4354 00a7 03       		.byte	0x3
 4355 00a8 24       		.byte	0x24
 4356 00a9 45000000 		.4byte	0x45
 4357 00ad 03       		.uleb128 0x3
 4358 00ae D1080000 		.4byte	.LASF15
 4359 00b2 03       		.byte	0x3
 4360 00b3 2C       		.byte	0x2c
 4361 00b4 57000000 		.4byte	0x57
 4362 00b8 03       		.uleb128 0x3
 4363 00b9 18030000 		.4byte	.LASF16
 4364 00bd 03       		.byte	0x3
 4365 00be 30       		.byte	0x30
 4366 00bf 69000000 		.4byte	0x69
 4367 00c3 05       		.uleb128 0x5
 4368 00c4 420B0000 		.4byte	.LASF17
 4369 00c8 04       		.byte	0x4
 4370 00c9 E401     		.2byte	0x1e4
 4371 00cb 37000000 		.4byte	0x37
 4372 00cf 05       		.uleb128 0x5
 4373 00d0 A8060000 		.4byte	.LASF18
 4374 00d4 04       		.byte	0x4
 4375 00d5 E601     		.2byte	0x1e6
 4376 00d7 74000000 		.4byte	0x74
 4377 00db 02       		.uleb128 0x2
 4378 00dc 04       		.byte	0x4
 4379 00dd 04       		.byte	0x4
 4380 00de 53030000 		.4byte	.LASF19
 4381 00e2 02       		.uleb128 0x2
 4382 00e3 08       		.byte	0x8
 4383 00e4 04       		.byte	0x4
 4384 00e5 480B0000 		.4byte	.LASF20
 4385 00e9 02       		.uleb128 0x2
 4386 00ea 01       		.byte	0x1
 4387 00eb 08       		.byte	0x8
 4388 00ec 76050000 		.4byte	.LASF21
 4389 00f0 02       		.uleb128 0x2
 4390 00f1 08       		.byte	0x8
 4391 00f2 04       		.byte	0x4
 4392 00f3 39070000 		.4byte	.LASF22
 4393 00f7 02       		.uleb128 0x2
 4394 00f8 04       		.byte	0x4
 4395 00f9 07       		.byte	0x7
 4396 00fa 84080000 		.4byte	.LASF23
 4397 00fe 06       		.uleb128 0x6
 4398 00ff 04       		.byte	0x4
 4399 0100 E9000000 		.4byte	0xe9
 4400 0104 07       		.uleb128 0x7
ARM GAS  C:\Users\bk\AppData\Local\Temp\ccq38zU3.s 			page 102


 4401 0105 E9000000 		.4byte	0xe9
 4402 0109 14010000 		.4byte	0x114
 4403 010d 08       		.uleb128 0x8
 4404 010e F7000000 		.4byte	0xf7
 4405 0112 07       		.byte	0x7
 4406 0113 00       		.byte	0
 4407 0114 09       		.uleb128 0x9
 4408 0115 01       		.byte	0x1
 4409 0116 37000000 		.4byte	0x37
 4410 011a 05       		.byte	0x5
 4411 011b 0A       		.byte	0xa
 4412 011c 7B010000 		.4byte	0x17b
 4413 0120 0A       		.uleb128 0xa
 4414 0121 0C010000 		.4byte	.LASF24
 4415 0125 00       		.byte	0
 4416 0126 0A       		.uleb128 0xa
 4417 0127 8F090000 		.4byte	.LASF25
 4418 012b 01       		.byte	0x1
 4419 012c 0A       		.uleb128 0xa
 4420 012d 5B020000 		.4byte	.LASF26
 4421 0131 02       		.byte	0x2
 4422 0132 0A       		.uleb128 0xa
 4423 0133 F4050000 		.4byte	.LASF27
 4424 0137 03       		.byte	0x3
 4425 0138 0A       		.uleb128 0xa
 4426 0139 6B020000 		.4byte	.LASF28
 4427 013d 04       		.byte	0x4
 4428 013e 0A       		.uleb128 0xa
 4429 013f 4E000000 		.4byte	.LASF29
 4430 0143 05       		.byte	0x5
 4431 0144 0A       		.uleb128 0xa
 4432 0145 30050000 		.4byte	.LASF30
 4433 0149 06       		.byte	0x6
 4434 014a 0A       		.uleb128 0xa
 4435 014b 44090000 		.4byte	.LASF31
 4436 014f 07       		.byte	0x7
 4437 0150 0A       		.uleb128 0xa
 4438 0151 FE0A0000 		.4byte	.LASF32
 4439 0155 08       		.byte	0x8
 4440 0156 0A       		.uleb128 0xa
 4441 0157 B1040000 		.4byte	.LASF33
 4442 015b 09       		.byte	0x9
 4443 015c 0A       		.uleb128 0xa
 4444 015d AF0B0000 		.4byte	.LASF34
 4445 0161 0A       		.byte	0xa
 4446 0162 0A       		.uleb128 0xa
 4447 0163 A3090000 		.4byte	.LASF35
 4448 0167 0B       		.byte	0xb
 4449 0168 0A       		.uleb128 0xa
 4450 0169 510A0000 		.4byte	.LASF36
 4451 016d 0C       		.byte	0xc
 4452 016e 0A       		.uleb128 0xa
 4453 016f F8000000 		.4byte	.LASF37
 4454 0173 0D       		.byte	0xd
 4455 0174 0A       		.uleb128 0xa
 4456 0175 F8060000 		.4byte	.LASF38
 4457 0179 0E       		.byte	0xe
ARM GAS  C:\Users\bk\AppData\Local\Temp\ccq38zU3.s 			page 103


 4458 017a 00       		.byte	0
 4459 017b 03       		.uleb128 0x3
 4460 017c 120A0000 		.4byte	.LASF39
 4461 0180 05       		.byte	0x5
 4462 0181 1A       		.byte	0x1a
 4463 0182 14010000 		.4byte	0x114
 4464 0186 09       		.uleb128 0x9
 4465 0187 01       		.byte	0x1
 4466 0188 37000000 		.4byte	0x37
 4467 018c 05       		.byte	0x5
 4468 018d 1C       		.byte	0x1c
 4469 018e AB010000 		.4byte	0x1ab
 4470 0192 0A       		.uleb128 0xa
 4471 0193 D2020000 		.4byte	.LASF40
 4472 0197 00       		.byte	0
 4473 0198 0A       		.uleb128 0xa
 4474 0199 72040000 		.4byte	.LASF41
 4475 019d 01       		.byte	0x1
 4476 019e 0A       		.uleb128 0xa
 4477 019f D90B0000 		.4byte	.LASF42
 4478 01a3 02       		.byte	0x2
 4479 01a4 0A       		.uleb128 0xa
 4480 01a5 90060000 		.4byte	.LASF43
 4481 01a9 03       		.byte	0x3
 4482 01aa 00       		.byte	0
 4483 01ab 03       		.uleb128 0x3
 4484 01ac BB000000 		.4byte	.LASF44
 4485 01b0 05       		.byte	0x5
 4486 01b1 21       		.byte	0x21
 4487 01b2 86010000 		.4byte	0x186
 4488 01b6 09       		.uleb128 0x9
 4489 01b7 01       		.byte	0x1
 4490 01b8 37000000 		.4byte	0x37
 4491 01bc 05       		.byte	0x5
 4492 01bd 23       		.byte	0x23
 4493 01be 23020000 		.4byte	0x223
 4494 01c2 0A       		.uleb128 0xa
 4495 01c3 1D090000 		.4byte	.LASF45
 4496 01c7 00       		.byte	0
 4497 01c8 0A       		.uleb128 0xa
 4498 01c9 E7040000 		.4byte	.LASF46
 4499 01cd 01       		.byte	0x1
 4500 01ce 0A       		.uleb128 0xa
 4501 01cf 1D010000 		.4byte	.LASF47
 4502 01d3 02       		.byte	0x2
 4503 01d4 0A       		.uleb128 0xa
 4504 01d5 00000000 		.4byte	.LASF48
 4505 01d9 03       		.byte	0x3
 4506 01da 0A       		.uleb128 0xa
 4507 01db A9030000 		.4byte	.LASF49
 4508 01df 04       		.byte	0x4
 4509 01e0 0A       		.uleb128 0xa
 4510 01e1 07060000 		.4byte	.LASF50
 4511 01e5 05       		.byte	0x5
 4512 01e6 0A       		.uleb128 0xa
 4513 01e7 41050000 		.4byte	.LASF51
 4514 01eb 06       		.byte	0x6
ARM GAS  C:\Users\bk\AppData\Local\Temp\ccq38zU3.s 			page 104


 4515 01ec 0A       		.uleb128 0xa
 4516 01ed 61000000 		.4byte	.LASF52
 4517 01f1 07       		.byte	0x7
 4518 01f2 0A       		.uleb128 0xa
 4519 01f3 72030000 		.4byte	.LASF53
 4520 01f7 08       		.byte	0x8
 4521 01f8 0A       		.uleb128 0xa
 4522 01f9 EA0A0000 		.4byte	.LASF54
 4523 01fd 09       		.byte	0x9
 4524 01fe 0A       		.uleb128 0xa
 4525 01ff BF0B0000 		.4byte	.LASF55
 4526 0203 0A       		.byte	0xa
 4527 0204 0A       		.uleb128 0xa
 4528 0205 790A0000 		.4byte	.LASF56
 4529 0209 0B       		.byte	0xb
 4530 020a 0A       		.uleb128 0xa
 4531 020b BC050000 		.4byte	.LASF57
 4532 020f 0C       		.byte	0xc
 4533 0210 0A       		.uleb128 0xa
 4534 0211 1F020000 		.4byte	.LASF58
 4535 0215 0D       		.byte	0xd
 4536 0216 0A       		.uleb128 0xa
 4537 0217 0A020000 		.4byte	.LASF59
 4538 021b 0E       		.byte	0xe
 4539 021c 0A       		.uleb128 0xa
 4540 021d 51060000 		.4byte	.LASF60
 4541 0221 0F       		.byte	0xf
 4542 0222 00       		.byte	0
 4543 0223 03       		.uleb128 0x3
 4544 0224 0E090000 		.4byte	.LASF61
 4545 0228 05       		.byte	0x5
 4546 0229 34       		.byte	0x34
 4547 022a B6010000 		.4byte	0x1b6
 4548 022e 0B       		.uleb128 0xb
 4549 022f 0E       		.byte	0xe
 4550 0230 05       		.byte	0x5
 4551 0231 37       		.byte	0x37
 4552 0232 8B020000 		.4byte	0x28b
 4553 0236 0C       		.uleb128 0xc
 4554 0237 0C030000 		.4byte	.LASF62
 4555 023b 05       		.byte	0x5
 4556 023c 38       		.byte	0x38
 4557 023d 7B010000 		.4byte	0x17b
 4558 0241 00       		.byte	0
 4559 0242 0C       		.uleb128 0xc
 4560 0243 4F0B0000 		.4byte	.LASF63
 4561 0247 05       		.byte	0x5
 4562 0248 39       		.byte	0x39
 4563 0249 AB010000 		.4byte	0x1ab
 4564 024d 01       		.byte	0x1
 4565 024e 0C       		.uleb128 0xc
 4566 024f 4E070000 		.4byte	.LASF64
 4567 0253 05       		.byte	0x5
 4568 0254 3A       		.byte	0x3a
 4569 0255 23020000 		.4byte	0x223
 4570 0259 02       		.byte	0x2
 4571 025a 0C       		.uleb128 0xc
ARM GAS  C:\Users\bk\AppData\Local\Temp\ccq38zU3.s 			page 105


 4572 025b 65040000 		.4byte	.LASF65
 4573 025f 05       		.byte	0x5
 4574 0260 3B       		.byte	0x3b
 4575 0261 97000000 		.4byte	0x97
 4576 0265 03       		.byte	0x3
 4577 0266 0C       		.uleb128 0xc
 4578 0267 34000000 		.4byte	.LASF66
 4579 026b 05       		.byte	0x5
 4580 026c 3C       		.byte	0x3c
 4581 026d 97000000 		.4byte	0x97
 4582 0271 04       		.byte	0x4
 4583 0272 0C       		.uleb128 0xc
 4584 0273 19000000 		.4byte	.LASF67
 4585 0277 05       		.byte	0x5
 4586 0278 3D       		.byte	0x3d
 4587 0279 04010000 		.4byte	0x104
 4588 027d 05       		.byte	0x5
 4589 027e 0C       		.uleb128 0xc
 4590 027f 1A060000 		.4byte	.LASF68
 4591 0283 05       		.byte	0x5
 4592 0284 3E       		.byte	0x3e
 4593 0285 97000000 		.4byte	0x97
 4594 0289 0D       		.byte	0xd
 4595 028a 00       		.byte	0
 4596 028b 03       		.uleb128 0x3
 4597 028c 7C0B0000 		.4byte	.LASF69
 4598 0290 05       		.byte	0x5
 4599 0291 3F       		.byte	0x3f
 4600 0292 2E020000 		.4byte	0x22e
 4601 0296 0B       		.uleb128 0xb
 4602 0297 03       		.byte	0x3
 4603 0298 05       		.byte	0x5
 4604 0299 41       		.byte	0x41
 4605 029a C3020000 		.4byte	0x2c3
 4606 029e 0C       		.uleb128 0xc
 4607 029f 0C030000 		.4byte	.LASF62
 4608 02a3 05       		.byte	0x5
 4609 02a4 42       		.byte	0x42
 4610 02a5 7B010000 		.4byte	0x17b
 4611 02a9 00       		.byte	0
 4612 02aa 0C       		.uleb128 0xc
 4613 02ab 4F0B0000 		.4byte	.LASF63
 4614 02af 05       		.byte	0x5
 4615 02b0 43       		.byte	0x43
 4616 02b1 AB010000 		.4byte	0x1ab
 4617 02b5 01       		.byte	0x1
 4618 02b6 0C       		.uleb128 0xc
 4619 02b7 4E070000 		.4byte	.LASF64
 4620 02bb 05       		.byte	0x5
 4621 02bc 44       		.byte	0x44
 4622 02bd 23020000 		.4byte	0x223
 4623 02c1 02       		.byte	0x2
 4624 02c2 00       		.byte	0
 4625 02c3 03       		.uleb128 0x3
 4626 02c4 69050000 		.4byte	.LASF70
 4627 02c8 05       		.byte	0x5
 4628 02c9 45       		.byte	0x45
ARM GAS  C:\Users\bk\AppData\Local\Temp\ccq38zU3.s 			page 106


 4629 02ca 96020000 		.4byte	0x296
 4630 02ce 07       		.uleb128 0x7
 4631 02cf E9000000 		.4byte	0xe9
 4632 02d3 DE020000 		.4byte	0x2de
 4633 02d7 08       		.uleb128 0x8
 4634 02d8 F7000000 		.4byte	0xf7
 4635 02dc 7F       		.byte	0x7f
 4636 02dd 00       		.byte	0
 4637 02de 0D       		.uleb128 0xd
 4638 02df 3D080000 		.4byte	.LASF116
 4639 02e3 01       		.byte	0x1
 4640 02e4 4E       		.byte	0x4e
 4641 02e5 00000000 		.4byte	.LFB64
 4642 02e9 3C000000 		.4byte	.LFE64-.LFB64
 4643 02ed 01       		.uleb128 0x1
 4644 02ee 9C       		.byte	0x9c
 4645 02ef 0E       		.uleb128 0xe
 4646 02f0 AD070000 		.4byte	.LASF73
 4647 02f4 01       		.byte	0x1
 4648 02f5 55       		.byte	0x55
 4649 02f6 00000000 		.4byte	.LFB65
 4650 02fa 2C000000 		.4byte	.LFE65-.LFB65
 4651 02fe 01       		.uleb128 0x1
 4652 02ff 9C       		.byte	0x9c
 4653 0300 21030000 		.4byte	0x321
 4654 0304 0F       		.uleb128 0xf
 4655 0305 6E756D00 		.ascii	"num\000"
 4656 0309 01       		.byte	0x1
 4657 030a 56       		.byte	0x56
 4658 030b 21030000 		.4byte	0x321
 4659 030f 02       		.uleb128 0x2
 4660 0310 91       		.byte	0x91
 4661 0311 68       		.sleb128 -24
 4662 0312 0F       		.uleb128 0xf
 4663 0313 70747200 		.ascii	"ptr\000"
 4664 0317 01       		.byte	0x1
 4665 0318 57       		.byte	0x57
 4666 0319 FE000000 		.4byte	0xfe
 4667 031d 02       		.uleb128 0x2
 4668 031e 91       		.byte	0x91
 4669 031f 74       		.sleb128 -12
 4670 0320 00       		.byte	0
 4671 0321 07       		.uleb128 0x7
 4672 0322 E9000000 		.4byte	0xe9
 4673 0326 31030000 		.4byte	0x331
 4674 032a 08       		.uleb128 0x8
 4675 032b F7000000 		.4byte	0xf7
 4676 032f 09       		.byte	0x9
 4677 0330 00       		.byte	0
 4678 0331 10       		.uleb128 0x10
 4679 0332 30030000 		.4byte	.LASF71
 4680 0336 01       		.byte	0x1
 4681 0337 7C       		.byte	0x7c
 4682 0338 00000000 		.4byte	.LFB66
 4683 033c 1C000000 		.4byte	.LFE66-.LFB66
 4684 0340 01       		.uleb128 0x1
 4685 0341 9C       		.byte	0x9c
ARM GAS  C:\Users\bk\AppData\Local\Temp\ccq38zU3.s 			page 107


 4686 0342 10       		.uleb128 0x10
 4687 0343 33060000 		.4byte	.LASF72
 4688 0347 01       		.byte	0x1
 4689 0348 82       		.byte	0x82
 4690 0349 00000000 		.4byte	.LFB67
 4691 034d 28000000 		.4byte	.LFE67-.LFB67
 4692 0351 01       		.uleb128 0x1
 4693 0352 9C       		.byte	0x9c
 4694 0353 11       		.uleb128 0x11
 4695 0354 B6090000 		.4byte	.LASF108
 4696 0358 01       		.byte	0x1
 4697 0359 8B       		.byte	0x8b
 4698 035a 00000000 		.4byte	.LFB68
 4699 035e 2C000000 		.4byte	.LFE68-.LFB68
 4700 0362 01       		.uleb128 0x1
 4701 0363 9C       		.byte	0x9c
 4702 0364 77030000 		.4byte	0x377
 4703 0368 12       		.uleb128 0x12
 4704 0369 636D6400 		.ascii	"cmd\000"
 4705 036d 01       		.byte	0x1
 4706 036e 8B       		.byte	0x8b
 4707 036f FE000000 		.4byte	0xfe
 4708 0373 02       		.uleb128 0x2
 4709 0374 91       		.byte	0x91
 4710 0375 74       		.sleb128 -12
 4711 0376 00       		.byte	0
 4712 0377 0E       		.uleb128 0xe
 4713 0378 2A0B0000 		.4byte	.LASF74
 4714 037c 01       		.byte	0x1
 4715 037d 95       		.byte	0x95
 4716 037e 00000000 		.4byte	.LFB69
 4717 0382 54000000 		.4byte	.LFE69-.LFB69
 4718 0386 01       		.uleb128 0x1
 4719 0387 9C       		.byte	0x9c
 4720 0388 9B030000 		.4byte	0x39b
 4721 038c 13       		.uleb128 0x13
 4722 038d FB020000 		.4byte	.LASF75
 4723 0391 01       		.byte	0x1
 4724 0392 96       		.byte	0x96
 4725 0393 FE000000 		.4byte	0xfe
 4726 0397 02       		.uleb128 0x2
 4727 0398 91       		.byte	0x91
 4728 0399 74       		.sleb128 -12
 4729 039a 00       		.byte	0
 4730 039b 10       		.uleb128 0x10
 4731 039c CE030000 		.4byte	.LASF76
 4732 03a0 01       		.byte	0x1
 4733 03a1 A0       		.byte	0xa0
 4734 03a2 00000000 		.4byte	.LFB70
 4735 03a6 30000000 		.4byte	.LFE70-.LFB70
 4736 03aa 01       		.uleb128 0x1
 4737 03ab 9C       		.byte	0x9c
 4738 03ac 10       		.uleb128 0x10
 4739 03ad 1E070000 		.4byte	.LASF77
 4740 03b1 01       		.byte	0x1
 4741 03b2 A6       		.byte	0xa6
 4742 03b3 00000000 		.4byte	.LFB71
ARM GAS  C:\Users\bk\AppData\Local\Temp\ccq38zU3.s 			page 108


 4743 03b7 24000000 		.4byte	.LFE71-.LFB71
 4744 03bb 01       		.uleb128 0x1
 4745 03bc 9C       		.byte	0x9c
 4746 03bd 10       		.uleb128 0x10
 4747 03be 59030000 		.4byte	.LASF78
 4748 03c2 01       		.byte	0x1
 4749 03c3 AB       		.byte	0xab
 4750 03c4 00000000 		.4byte	.LFB72
 4751 03c8 28000000 		.4byte	.LFE72-.LFB72
 4752 03cc 01       		.uleb128 0x1
 4753 03cd 9C       		.byte	0x9c
 4754 03ce 10       		.uleb128 0x10
 4755 03cf A9020000 		.4byte	.LASF79
 4756 03d3 01       		.byte	0x1
 4757 03d4 B6       		.byte	0xb6
 4758 03d5 00000000 		.4byte	.LFB73
 4759 03d9 30000000 		.4byte	.LFE73-.LFB73
 4760 03dd 01       		.uleb128 0x1
 4761 03de 9C       		.byte	0x9c
 4762 03df 10       		.uleb128 0x10
 4763 03e0 9F080000 		.4byte	.LASF80
 4764 03e4 01       		.byte	0x1
 4765 03e5 BD       		.byte	0xbd
 4766 03e6 00000000 		.4byte	.LFB74
 4767 03ea 30000000 		.4byte	.LFE74-.LFB74
 4768 03ee 01       		.uleb128 0x1
 4769 03ef 9C       		.byte	0x9c
 4770 03f0 10       		.uleb128 0x10
 4771 03f1 E7070000 		.4byte	.LASF81
 4772 03f5 01       		.byte	0x1
 4773 03f6 C5       		.byte	0xc5
 4774 03f7 00000000 		.4byte	.LFB75
 4775 03fb 30000000 		.4byte	.LFE75-.LFB75
 4776 03ff 01       		.uleb128 0x1
 4777 0400 9C       		.byte	0x9c
 4778 0401 10       		.uleb128 0x10
 4779 0402 86000000 		.4byte	.LASF82
 4780 0406 01       		.byte	0x1
 4781 0407 CB       		.byte	0xcb
 4782 0408 00000000 		.4byte	.LFB76
 4783 040c 30000000 		.4byte	.LFE76-.LFB76
 4784 0410 01       		.uleb128 0x1
 4785 0411 9C       		.byte	0x9c
 4786 0412 0E       		.uleb128 0xe
 4787 0413 D9080000 		.4byte	.LASF83
 4788 0417 01       		.byte	0x1
 4789 0418 D1       		.byte	0xd1
 4790 0419 00000000 		.4byte	.LFB77
 4791 041d 50000000 		.4byte	.LFE77-.LFB77
 4792 0421 01       		.uleb128 0x1
 4793 0422 9C       		.byte	0x9c
 4794 0423 37040000 		.4byte	0x437
 4795 0427 13       		.uleb128 0x13
 4796 0428 DE000000 		.4byte	.LASF84
 4797 042c 01       		.byte	0x1
 4798 042d D7       		.byte	0xd7
 4799 042e CE020000 		.4byte	0x2ce
ARM GAS  C:\Users\bk\AppData\Local\Temp\ccq38zU3.s 			page 109


 4800 0432 03       		.uleb128 0x3
 4801 0433 91       		.byte	0x91
 4802 0434 F87E     		.sleb128 -136
 4803 0436 00       		.byte	0
 4804 0437 10       		.uleb128 0x10
 4805 0438 ED090000 		.4byte	.LASF85
 4806 043c 01       		.byte	0x1
 4807 043d DF       		.byte	0xdf
 4808 043e 00000000 		.4byte	.LFB78
 4809 0442 30000000 		.4byte	.LFE78-.LFB78
 4810 0446 01       		.uleb128 0x1
 4811 0447 9C       		.byte	0x9c
 4812 0448 0E       		.uleb128 0xe
 4813 0449 85040000 		.4byte	.LASF86
 4814 044d 01       		.byte	0x1
 4815 044e E5       		.byte	0xe5
 4816 044f 00000000 		.4byte	.LFB79
 4817 0453 58000000 		.4byte	.LFE79-.LFB79
 4818 0457 01       		.uleb128 0x1
 4819 0458 9C       		.byte	0x9c
 4820 0459 77040000 		.4byte	0x477
 4821 045d 0F       		.uleb128 0xf
 4822 045e 6100     		.ascii	"a\000"
 4823 0460 01       		.byte	0x1
 4824 0461 E7       		.byte	0xe7
 4825 0462 FE000000 		.4byte	0xfe
 4826 0466 02       		.uleb128 0x2
 4827 0467 91       		.byte	0x91
 4828 0468 74       		.sleb128 -12
 4829 0469 0F       		.uleb128 0xf
 4830 046a 737300   		.ascii	"ss\000"
 4831 046d 01       		.byte	0x1
 4832 046e E8       		.byte	0xe8
 4833 046f 97000000 		.4byte	0x97
 4834 0473 02       		.uleb128 0x2
 4835 0474 91       		.byte	0x91
 4836 0475 73       		.sleb128 -13
 4837 0476 00       		.byte	0
 4838 0477 10       		.uleb128 0x10
 4839 0478 B9070000 		.4byte	.LASF87
 4840 047c 01       		.byte	0x1
 4841 047d F7       		.byte	0xf7
 4842 047e 00000000 		.4byte	.LFB80
 4843 0482 2C000000 		.4byte	.LFE80-.LFB80
 4844 0486 01       		.uleb128 0x1
 4845 0487 9C       		.byte	0x9c
 4846 0488 0E       		.uleb128 0xe
 4847 0489 ED010000 		.4byte	.LASF88
 4848 048d 01       		.byte	0x1
 4849 048e FD       		.byte	0xfd
 4850 048f 00000000 		.4byte	.LFB81
 4851 0493 3C010000 		.4byte	.LFE81-.LFB81
 4852 0497 01       		.uleb128 0x1
 4853 0498 9C       		.byte	0x9c
 4854 0499 04050000 		.4byte	0x504
 4855 049d 13       		.uleb128 0x13
 4856 049e 7B050000 		.4byte	.LASF89
ARM GAS  C:\Users\bk\AppData\Local\Temp\ccq38zU3.s 			page 110


 4857 04a2 01       		.byte	0x1
 4858 04a3 FE       		.byte	0xfe
 4859 04a4 04050000 		.4byte	0x504
 4860 04a8 03       		.uleb128 0x3
 4861 04a9 91       		.byte	0x91
 4862 04aa EC77     		.sleb128 -1044
 4863 04ac 14       		.uleb128 0x14
 4864 04ad 22000000 		.4byte	.LBB2
 4865 04b1 58000000 		.4byte	.LBE2-.LBB2
 4866 04b5 D9040000 		.4byte	0x4d9
 4867 04b9 15       		.uleb128 0x15
 4868 04ba 86070000 		.4byte	.LASF90
 4869 04be 01       		.byte	0x1
 4870 04bf 0201     		.2byte	0x102
 4871 04c1 CE020000 		.4byte	0x2ce
 4872 04c5 03       		.uleb128 0x3
 4873 04c6 91       		.byte	0x91
 4874 04c7 EC6F     		.sleb128 -2068
 4875 04c9 15       		.uleb128 0x15
 4876 04ca 36090000 		.4byte	.LASF91
 4877 04ce 01       		.byte	0x1
 4878 04cf 0501     		.2byte	0x105
 4879 04d1 FE000000 		.4byte	0xfe
 4880 04d5 02       		.uleb128 0x2
 4881 04d6 91       		.byte	0x91
 4882 04d7 6C       		.sleb128 -20
 4883 04d8 00       		.byte	0
 4884 04d9 16       		.uleb128 0x16
 4885 04da 7C000000 		.4byte	.LBB3
 4886 04de 5A000000 		.4byte	.LBE3-.LBB3
 4887 04e2 15       		.uleb128 0x15
 4888 04e3 31090000 		.4byte	.LASF92
 4889 04e7 01       		.byte	0x1
 4890 04e8 0A01     		.2byte	0x10a
 4891 04ea 04050000 		.4byte	0x504
 4892 04ee 03       		.uleb128 0x3
 4893 04ef 91       		.byte	0x91
 4894 04f0 EC6F     		.sleb128 -2068
 4895 04f2 15       		.uleb128 0x15
 4896 04f3 01080000 		.4byte	.LASF93
 4897 04f7 01       		.byte	0x1
 4898 04f8 0B01     		.2byte	0x10b
 4899 04fa 15050000 		.4byte	0x515
 4900 04fe 03       		.uleb128 0x3
 4901 04ff 91       		.byte	0x91
 4902 0500 CC6F     		.sleb128 -2100
 4903 0502 00       		.byte	0
 4904 0503 00       		.byte	0
 4905 0504 07       		.uleb128 0x7
 4906 0505 E9000000 		.4byte	0xe9
 4907 0509 15050000 		.4byte	0x515
 4908 050d 17       		.uleb128 0x17
 4909 050e F7000000 		.4byte	0xf7
 4910 0512 FF03     		.2byte	0x3ff
 4911 0514 00       		.byte	0
 4912 0515 07       		.uleb128 0x7
 4913 0516 E9000000 		.4byte	0xe9
ARM GAS  C:\Users\bk\AppData\Local\Temp\ccq38zU3.s 			page 111


 4914 051a 25050000 		.4byte	0x525
 4915 051e 08       		.uleb128 0x8
 4916 051f F7000000 		.4byte	0xf7
 4917 0523 1F       		.byte	0x1f
 4918 0524 00       		.byte	0
 4919 0525 18       		.uleb128 0x18
 4920 0526 32010000 		.4byte	.LASF94
 4921 052a 01       		.byte	0x1
 4922 052b 1601     		.2byte	0x116
 4923 052d 00000000 		.4byte	.LFB82
 4924 0531 54000000 		.4byte	.LFE82-.LFB82
 4925 0535 01       		.uleb128 0x1
 4926 0536 9C       		.byte	0x9c
 4927 0537 19       		.uleb128 0x19
 4928 0538 3C040000 		.4byte	.LASF95
 4929 053c 01       		.byte	0x1
 4930 053d 1D01     		.2byte	0x11d
 4931 053f 00000000 		.4byte	.LFB83
 4932 0543 BC000000 		.4byte	.LFE83-.LFB83
 4933 0547 01       		.uleb128 0x1
 4934 0548 9C       		.byte	0x9c
 4935 0549 85050000 		.4byte	0x585
 4936 054d 15       		.uleb128 0x15
 4937 054e 8A0A0000 		.4byte	.LASF96
 4938 0552 01       		.byte	0x1
 4939 0553 2A01     		.2byte	0x12a
 4940 0555 85050000 		.4byte	0x585
 4941 0559 02       		.uleb128 0x2
 4942 055a 91       		.byte	0x91
 4943 055b 68       		.sleb128 -24
 4944 055c 16       		.uleb128 0x16
 4945 055d 14000000 		.4byte	.LBB4
 4946 0561 46000000 		.4byte	.LBE4-.LBB4
 4947 0565 15       		.uleb128 0x15
 4948 0566 A3060000 		.4byte	.LASF97
 4949 056a 01       		.byte	0x1
 4950 056b 2001     		.2byte	0x120
 4951 056d FE000000 		.4byte	0xfe
 4952 0571 02       		.uleb128 0x2
 4953 0572 91       		.byte	0x91
 4954 0573 70       		.sleb128 -16
 4955 0574 15       		.uleb128 0x15
 4956 0575 4A060000 		.4byte	.LASF98
 4957 0579 01       		.byte	0x1
 4958 057a 2001     		.2byte	0x120
 4959 057c FE000000 		.4byte	0xfe
 4960 0580 02       		.uleb128 0x2
 4961 0581 91       		.byte	0x91
 4962 0582 74       		.sleb128 -12
 4963 0583 00       		.byte	0
 4964 0584 00       		.byte	0
 4965 0585 07       		.uleb128 0x7
 4966 0586 E9000000 		.4byte	0xe9
 4967 058a 95050000 		.4byte	0x595
 4968 058e 08       		.uleb128 0x8
 4969 058f F7000000 		.4byte	0xf7
 4970 0593 04       		.byte	0x4
ARM GAS  C:\Users\bk\AppData\Local\Temp\ccq38zU3.s 			page 112


 4971 0594 00       		.byte	0
 4972 0595 18       		.uleb128 0x18
 4973 0596 17080000 		.4byte	.LASF99
 4974 059a 01       		.byte	0x1
 4975 059b 3701     		.2byte	0x137
 4976 059d 00000000 		.4byte	.LFB84
 4977 05a1 44000000 		.4byte	.LFE84-.LFB84
 4978 05a5 01       		.uleb128 0x1
 4979 05a6 9C       		.byte	0x9c
 4980 05a7 1A       		.uleb128 0x1a
 4981 05a8 EB030000 		.4byte	.LASF100
 4982 05ac 01       		.byte	0x1
 4983 05ad 4301     		.2byte	0x143
 4984 05af 00000000 		.4byte	.LFB85
 4985 05b3 68000000 		.4byte	.LFE85-.LFB85
 4986 05b7 01       		.uleb128 0x1
 4987 05b8 9C       		.byte	0x9c
 4988 05b9 CB050000 		.4byte	0x5cb
 4989 05bd 1B       		.uleb128 0x1b
 4990 05be 6900     		.ascii	"i\000"
 4991 05c0 01       		.byte	0x1
 4992 05c1 4401     		.2byte	0x144
 4993 05c3 97000000 		.4byte	0x97
 4994 05c7 02       		.uleb128 0x2
 4995 05c8 91       		.byte	0x91
 4996 05c9 77       		.sleb128 -9
 4997 05ca 00       		.byte	0
 4998 05cb 18       		.uleb128 0x18
 4999 05cc 56090000 		.4byte	.LASF101
 5000 05d0 01       		.byte	0x1
 5001 05d1 4A01     		.2byte	0x14a
 5002 05d3 00000000 		.4byte	.LFB86
 5003 05d7 C0000000 		.4byte	.LFE86-.LFB86
 5004 05db 01       		.uleb128 0x1
 5005 05dc 9C       		.byte	0x9c
 5006 05dd 18       		.uleb128 0x18
 5007 05de 5B070000 		.4byte	.LASF102
 5008 05e2 01       		.byte	0x1
 5009 05e3 9001     		.2byte	0x190
 5010 05e5 00000000 		.4byte	.LFB87
 5011 05e9 44000000 		.4byte	.LFE87-.LFB87
 5012 05ed 01       		.uleb128 0x1
 5013 05ee 9C       		.byte	0x9c
 5014 05ef 1C       		.uleb128 0x1c
 5015 05f0 8D020000 		.4byte	.LASF110
 5016 05f4 01       		.byte	0x1
 5017 05f5 A601     		.2byte	0x1a6
 5018 05f7 97000000 		.4byte	0x97
 5019 05fb 00000000 		.4byte	.LFB88
 5020 05ff B4000000 		.4byte	.LFE88-.LFB88
 5021 0603 01       		.uleb128 0x1
 5022 0604 9C       		.byte	0x9c
 5023 0605 8A060000 		.4byte	0x68a
 5024 0609 1D       		.uleb128 0x1d
 5025 060a 10070000 		.4byte	.LASF103
 5026 060e 01       		.byte	0x1
 5027 060f A601     		.2byte	0x1a6
ARM GAS  C:\Users\bk\AppData\Local\Temp\ccq38zU3.s 			page 113


 5028 0611 FE000000 		.4byte	0xfe
 5029 0615 02       		.uleb128 0x2
 5030 0616 91       		.byte	0x91
 5031 0617 5C       		.sleb128 -36
 5032 0618 1D       		.uleb128 0x1d
 5033 0619 19000000 		.4byte	.LASF67
 5034 061d 01       		.byte	0x1
 5035 061e A601     		.2byte	0x1a6
 5036 0620 FE000000 		.4byte	0xfe
 5037 0624 02       		.uleb128 0x2
 5038 0625 91       		.byte	0x91
 5039 0626 58       		.sleb128 -40
 5040 0627 1D       		.uleb128 0x1d
 5041 0628 CC090000 		.4byte	.LASF104
 5042 062c 01       		.byte	0x1
 5043 062d A601     		.2byte	0x1a6
 5044 062f B8000000 		.4byte	0xb8
 5045 0633 02       		.uleb128 0x2
 5046 0634 91       		.byte	0x91
 5047 0635 54       		.sleb128 -44
 5048 0636 15       		.uleb128 0x15
 5049 0637 E2090000 		.4byte	.LASF105
 5050 063b 01       		.byte	0x1
 5051 063c A801     		.2byte	0x1a8
 5052 063e CF000000 		.4byte	0xcf
 5053 0642 02       		.uleb128 0x2
 5054 0643 91       		.byte	0x91
 5055 0644 74       		.sleb128 -12
 5056 0645 16       		.uleb128 0x16
 5057 0646 16000000 		.4byte	.LBB5
 5058 064a 6C000000 		.4byte	.LBE5-.LBB5
 5059 064e 15       		.uleb128 0x15
 5060 064f FB020000 		.4byte	.LASF75
 5061 0653 01       		.byte	0x1
 5062 0654 AC01     		.2byte	0x1ac
 5063 0656 FE000000 		.4byte	0xfe
 5064 065a 02       		.uleb128 0x2
 5065 065b 91       		.byte	0x91
 5066 065c 64       		.sleb128 -28
 5067 065d 15       		.uleb128 0x15
 5068 065e A7070000 		.4byte	.LASF106
 5069 0662 01       		.byte	0x1
 5070 0663 AD01     		.2byte	0x1ad
 5071 0665 B8000000 		.4byte	0xb8
 5072 0669 02       		.uleb128 0x2
 5073 066a 91       		.byte	0x91
 5074 066b 6C       		.sleb128 -20
 5075 066c 1B       		.uleb128 0x1b
 5076 066d 6900     		.ascii	"i\000"
 5077 066f 01       		.byte	0x1
 5078 0670 AE01     		.2byte	0x1ae
 5079 0672 B8000000 		.4byte	0xb8
 5080 0676 02       		.uleb128 0x2
 5081 0677 91       		.byte	0x91
 5082 0678 70       		.sleb128 -16
 5083 0679 15       		.uleb128 0x15
 5084 067a 2B000000 		.4byte	.LASF107
ARM GAS  C:\Users\bk\AppData\Local\Temp\ccq38zU3.s 			page 114


 5085 067e 01       		.byte	0x1
 5086 067f AE01     		.2byte	0x1ae
 5087 0681 B8000000 		.4byte	0xb8
 5088 0685 02       		.uleb128 0x2
 5089 0686 91       		.byte	0x91
 5090 0687 68       		.sleb128 -24
 5091 0688 00       		.byte	0
 5092 0689 00       		.byte	0
 5093 068a 1E       		.uleb128 0x1e
 5094 068b 4A080000 		.4byte	.LASF109
 5095 068f 01       		.byte	0x1
 5096 0690 CD01     		.2byte	0x1cd
 5097 0692 97000000 		.4byte	0x97
 5098 0696 00000000 		.4byte	.LFB89
 5099 069a 4C000000 		.4byte	.LFE89-.LFB89
 5100 069e 01       		.uleb128 0x1
 5101 069f 9C       		.byte	0x9c
 5102 06a0 B4060000 		.4byte	0x6b4
 5103 06a4 15       		.uleb128 0x15
 5104 06a5 FB020000 		.4byte	.LASF75
 5105 06a9 01       		.byte	0x1
 5106 06aa CF01     		.2byte	0x1cf
 5107 06ac FE000000 		.4byte	0xfe
 5108 06b0 02       		.uleb128 0x2
 5109 06b1 91       		.byte	0x91
 5110 06b2 74       		.sleb128 -12
 5111 06b3 00       		.byte	0
 5112 06b4 1C       		.uleb128 0x1c
 5113 06b5 DA050000 		.4byte	.LASF111
 5114 06b9 01       		.byte	0x1
 5115 06ba D801     		.2byte	0x1d8
 5116 06bc FE000000 		.4byte	0xfe
 5117 06c0 00000000 		.4byte	.LFB90
 5118 06c4 7E000000 		.4byte	.LFE90-.LFB90
 5119 06c8 01       		.uleb128 0x1
 5120 06c9 9C       		.byte	0x9c
 5121 06ca 0B070000 		.4byte	0x70b
 5122 06ce 1F       		.uleb128 0x1f
 5123 06cf 73747200 		.ascii	"str\000"
 5124 06d3 01       		.byte	0x1
 5125 06d4 D801     		.2byte	0x1d8
 5126 06d6 FE000000 		.4byte	0xfe
 5127 06da 02       		.uleb128 0x2
 5128 06db 91       		.byte	0x91
 5129 06dc 64       		.sleb128 -28
 5130 06dd 15       		.uleb128 0x15
 5131 06de 65060000 		.4byte	.LASF112
 5132 06e2 01       		.byte	0x1
 5133 06e3 D901     		.2byte	0x1d9
 5134 06e5 FE000000 		.4byte	0xfe
 5135 06e9 02       		.uleb128 0x2
 5136 06ea 91       		.byte	0x91
 5137 06eb 74       		.sleb128 -12
 5138 06ec 1B       		.uleb128 0x1b
 5139 06ed 62756600 		.ascii	"buf\000"
 5140 06f1 01       		.byte	0x1
 5141 06f2 D901     		.2byte	0x1d9
ARM GAS  C:\Users\bk\AppData\Local\Temp\ccq38zU3.s 			page 115


 5142 06f4 FE000000 		.4byte	0xfe
 5143 06f8 02       		.uleb128 0x2
 5144 06f9 91       		.byte	0x91
 5145 06fa 6C       		.sleb128 -20
 5146 06fb 15       		.uleb128 0x15
 5147 06fc 07050000 		.4byte	.LASF113
 5148 0700 01       		.byte	0x1
 5149 0701 D901     		.2byte	0x1d9
 5150 0703 FE000000 		.4byte	0xfe
 5151 0707 02       		.uleb128 0x2
 5152 0708 91       		.byte	0x91
 5153 0709 70       		.sleb128 -16
 5154 070a 00       		.byte	0
 5155 070b 1C       		.uleb128 0x1c
 5156 070c E2010000 		.4byte	.LASF114
 5157 0710 01       		.byte	0x1
 5158 0711 E601     		.2byte	0x1e6
 5159 0713 97000000 		.4byte	0x97
 5160 0717 00000000 		.4byte	.LFB91
 5161 071b 9C000000 		.4byte	.LFE91-.LFB91
 5162 071f 01       		.uleb128 0x1
 5163 0720 9C       		.byte	0x9c
 5164 0721 4F070000 		.4byte	0x74f
 5165 0725 1D       		.uleb128 0x1d
 5166 0726 45060000 		.4byte	.LASF115
 5167 072a 01       		.byte	0x1
 5168 072b E601     		.2byte	0x1e6
 5169 072d FE000000 		.4byte	0xfe
 5170 0731 02       		.uleb128 0x2
 5171 0732 91       		.byte	0x91
 5172 0733 64       		.sleb128 -28
 5173 0734 1B       		.uleb128 0x1b
 5174 0735 6100     		.ascii	"a\000"
 5175 0737 01       		.byte	0x1
 5176 0738 FB01     		.2byte	0x1fb
 5177 073a FE000000 		.4byte	0xfe
 5178 073e 02       		.uleb128 0x2
 5179 073f 91       		.byte	0x91
 5180 0740 6C       		.sleb128 -20
 5181 0741 1B       		.uleb128 0x1b
 5182 0742 6200     		.ascii	"b\000"
 5183 0744 01       		.byte	0x1
 5184 0745 FB01     		.2byte	0x1fb
 5185 0747 FE000000 		.4byte	0xfe
 5186 074b 02       		.uleb128 0x2
 5187 074c 91       		.byte	0x91
 5188 074d 68       		.sleb128 -24
 5189 074e 00       		.byte	0
 5190 074f 20       		.uleb128 0x20
 5191 0750 9E050000 		.4byte	.LASF117
 5192 0754 01       		.byte	0x1
 5193 0755 2502     		.2byte	0x225
 5194 0757 97000000 		.4byte	0x97
 5195 075b 00000000 		.4byte	.LFB92
 5196 075f 20000000 		.4byte	.LFE92-.LFB92
 5197 0763 01       		.uleb128 0x1
 5198 0764 9C       		.byte	0x9c
ARM GAS  C:\Users\bk\AppData\Local\Temp\ccq38zU3.s 			page 116


 5199 0765 20       		.uleb128 0x20
 5200 0766 36020000 		.4byte	.LASF118
 5201 076a 01       		.byte	0x1
 5202 076b 2902     		.2byte	0x229
 5203 076d 97000000 		.4byte	0x97
 5204 0771 00000000 		.4byte	.LFB93
 5205 0775 20000000 		.4byte	.LFE93-.LFB93
 5206 0779 01       		.uleb128 0x1
 5207 077a 9C       		.byte	0x9c
 5208 077b 20       		.uleb128 0x20
 5209 077c 09040000 		.4byte	.LASF119
 5210 0780 01       		.byte	0x1
 5211 0781 2D02     		.2byte	0x22d
 5212 0783 97000000 		.4byte	0x97
 5213 0787 00000000 		.4byte	.LFB94
 5214 078b 20000000 		.4byte	.LFE94-.LFB94
 5215 078f 01       		.uleb128 0x1
 5216 0790 9C       		.byte	0x9c
 5217 0791 1C       		.uleb128 0x1c
 5218 0792 210A0000 		.4byte	.LASF120
 5219 0796 01       		.byte	0x1
 5220 0797 3102     		.2byte	0x231
 5221 0799 C3000000 		.4byte	0xc3
 5222 079d 00000000 		.4byte	.LFB95
 5223 07a1 10010000 		.4byte	.LFE95-.LFB95
 5224 07a5 01       		.uleb128 0x1
 5225 07a6 9C       		.byte	0x9c
 5226 07a7 19080000 		.4byte	0x819
 5227 07ab 1D       		.uleb128 0x1d
 5228 07ac 0B070000 		.4byte	.LASF121
 5229 07b0 01       		.byte	0x1
 5230 07b1 3102     		.2byte	0x231
 5231 07b3 19080000 		.4byte	0x819
 5232 07b7 02       		.uleb128 0x2
 5233 07b8 91       		.byte	0x91
 5234 07b9 54       		.sleb128 -44
 5235 07ba 1F       		.uleb128 0x1f
 5236 07bb 66657200 		.ascii	"fer\000"
 5237 07bf 01       		.byte	0x1
 5238 07c0 3102     		.2byte	0x231
 5239 07c2 19080000 		.4byte	0x819
 5240 07c6 02       		.uleb128 0x2
 5241 07c7 91       		.byte	0x91
 5242 07c8 50       		.sleb128 -48
 5243 07c9 16       		.uleb128 0x16
 5244 07ca 1C000000 		.4byte	.LBB6
 5245 07ce DA000000 		.4byte	.LBE6-.LBB6
 5246 07d2 1B       		.uleb128 0x1b
 5247 07d3 6100     		.ascii	"a\000"
 5248 07d5 01       		.byte	0x1
 5249 07d6 4802     		.2byte	0x248
 5250 07d8 FE000000 		.4byte	0xfe
 5251 07dc 02       		.uleb128 0x2
 5252 07dd 91       		.byte	0x91
 5253 07de 74       		.sleb128 -12
 5254 07df 1B       		.uleb128 0x1b
 5255 07e0 6200     		.ascii	"b\000"
ARM GAS  C:\Users\bk\AppData\Local\Temp\ccq38zU3.s 			page 117


 5256 07e2 01       		.byte	0x1
 5257 07e3 4802     		.2byte	0x248
 5258 07e5 FE000000 		.4byte	0xfe
 5259 07e9 02       		.uleb128 0x2
 5260 07ea 91       		.byte	0x91
 5261 07eb 70       		.sleb128 -16
 5262 07ec 1B       		.uleb128 0x1b
 5263 07ed 6300     		.ascii	"c\000"
 5264 07ef 01       		.byte	0x1
 5265 07f0 4802     		.2byte	0x248
 5266 07f2 FE000000 		.4byte	0xfe
 5267 07f6 02       		.uleb128 0x2
 5268 07f7 91       		.byte	0x91
 5269 07f8 6C       		.sleb128 -20
 5270 07f9 15       		.uleb128 0x15
 5271 07fa F5080000 		.4byte	.LASF122
 5272 07fe 01       		.byte	0x1
 5273 07ff 4902     		.2byte	0x249
 5274 0801 85050000 		.4byte	0x585
 5275 0805 02       		.uleb128 0x2
 5276 0806 91       		.byte	0x91
 5277 0807 64       		.sleb128 -28
 5278 0808 15       		.uleb128 0x15
 5279 0809 E20A0000 		.4byte	.LASF123
 5280 080d 01       		.byte	0x1
 5281 080e 4902     		.2byte	0x249
 5282 0810 85050000 		.4byte	0x585
 5283 0814 02       		.uleb128 0x2
 5284 0815 91       		.byte	0x91
 5285 0816 5C       		.sleb128 -36
 5286 0817 00       		.byte	0
 5287 0818 00       		.byte	0
 5288 0819 06       		.uleb128 0x6
 5289 081a 04       		.byte	0x4
 5290 081b 89000000 		.4byte	0x89
 5291 081f 20       		.uleb128 0x20
 5292 0820 BD030000 		.4byte	.LASF124
 5293 0824 01       		.byte	0x1
 5294 0825 7702     		.2byte	0x277
 5295 0827 97000000 		.4byte	0x97
 5296 082b 00000000 		.4byte	.LFB96
 5297 082f 20000000 		.4byte	.LFE96-.LFB96
 5298 0833 01       		.uleb128 0x1
 5299 0834 9C       		.byte	0x9c
 5300 0835 1C       		.uleb128 0x1c
 5301 0836 E4020000 		.4byte	.LASF125
 5302 083a 01       		.byte	0x1
 5303 083b 7C02     		.2byte	0x27c
 5304 083d C3000000 		.4byte	0xc3
 5305 0841 00000000 		.4byte	.LFB97
 5306 0845 48000000 		.4byte	.LFE97-.LFB97
 5307 0849 01       		.uleb128 0x1
 5308 084a 9C       		.byte	0x9c
 5309 084b 70080000 		.4byte	0x870
 5310 084f 1D       		.uleb128 0x1d
 5311 0850 7C060000 		.4byte	.LASF126
 5312 0854 01       		.byte	0x1
ARM GAS  C:\Users\bk\AppData\Local\Temp\ccq38zU3.s 			page 118


 5313 0855 7C02     		.2byte	0x27c
 5314 0857 C3000000 		.4byte	0xc3
 5315 085b 03       		.uleb128 0x3
 5316 085c 91       		.byte	0x91
 5317 085d 8F7F     		.sleb128 -113
 5318 085f 1B       		.uleb128 0x1b
 5319 0860 636D6400 		.ascii	"cmd\000"
 5320 0864 01       		.byte	0x1
 5321 0865 7D02     		.2byte	0x27d
 5322 0867 70080000 		.4byte	0x870
 5323 086b 03       		.uleb128 0x3
 5324 086c 91       		.byte	0x91
 5325 086d 947F     		.sleb128 -108
 5326 086f 00       		.byte	0
 5327 0870 07       		.uleb128 0x7
 5328 0871 E9000000 		.4byte	0xe9
 5329 0875 80080000 		.4byte	0x880
 5330 0879 08       		.uleb128 0x8
 5331 087a F7000000 		.4byte	0xf7
 5332 087e 63       		.byte	0x63
 5333 087f 00       		.byte	0
 5334 0880 1C       		.uleb128 0x1c
 5335 0881 99040000 		.4byte	.LASF127
 5336 0885 01       		.byte	0x1
 5337 0886 8302     		.2byte	0x283
 5338 0888 C3000000 		.4byte	0xc3
 5339 088c 00000000 		.4byte	.LFB98
 5340 0890 48000000 		.4byte	.LFE98-.LFB98
 5341 0894 01       		.uleb128 0x1
 5342 0895 9C       		.byte	0x9c
 5343 0896 BB080000 		.4byte	0x8bb
 5344 089a 1D       		.uleb128 0x1d
 5345 089b 7C060000 		.4byte	.LASF126
 5346 089f 01       		.byte	0x1
 5347 08a0 8302     		.2byte	0x283
 5348 08a2 C3000000 		.4byte	0xc3
 5349 08a6 03       		.uleb128 0x3
 5350 08a7 91       		.byte	0x91
 5351 08a8 8F7F     		.sleb128 -113
 5352 08aa 1B       		.uleb128 0x1b
 5353 08ab 636D6400 		.ascii	"cmd\000"
 5354 08af 01       		.byte	0x1
 5355 08b0 8402     		.2byte	0x284
 5356 08b2 70080000 		.4byte	0x870
 5357 08b6 03       		.uleb128 0x3
 5358 08b7 91       		.byte	0x91
 5359 08b8 947F     		.sleb128 -108
 5360 08ba 00       		.byte	0
 5361 08bb 20       		.uleb128 0x20
 5362 08bc 24050000 		.4byte	.LASF128
 5363 08c0 01       		.byte	0x1
 5364 08c1 8A02     		.2byte	0x28a
 5365 08c3 C3000000 		.4byte	0xc3
 5366 08c7 00000000 		.4byte	.LFB99
 5367 08cb 10000000 		.4byte	.LFE99-.LFB99
 5368 08cf 01       		.uleb128 0x1
 5369 08d0 9C       		.byte	0x9c
ARM GAS  C:\Users\bk\AppData\Local\Temp\ccq38zU3.s 			page 119


 5370 08d1 20       		.uleb128 0x20
 5371 08d2 BD080000 		.4byte	.LASF129
 5372 08d6 01       		.byte	0x1
 5373 08d7 9102     		.2byte	0x291
 5374 08d9 97000000 		.4byte	0x97
 5375 08dd 00000000 		.4byte	.LFB100
 5376 08e1 20000000 		.4byte	.LFE100-.LFB100
 5377 08e5 01       		.uleb128 0x1
 5378 08e6 9C       		.byte	0x9c
 5379 08e7 1E       		.uleb128 0x1e
 5380 08e8 940B0000 		.4byte	.LASF130
 5381 08ec 01       		.byte	0x1
 5382 08ed 9602     		.2byte	0x296
 5383 08ef 97000000 		.4byte	0x97
 5384 08f3 00000000 		.4byte	.LFB101
 5385 08f7 48000000 		.4byte	.LFE101-.LFB101
 5386 08fb 01       		.uleb128 0x1
 5387 08fc 9C       		.byte	0x9c
 5388 08fd 11090000 		.4byte	0x911
 5389 0901 15       		.uleb128 0x15
 5390 0902 ED050000 		.4byte	.LASF131
 5391 0906 01       		.byte	0x1
 5392 0907 9802     		.2byte	0x298
 5393 0909 97000000 		.4byte	0x97
 5394 090d 02       		.uleb128 0x2
 5395 090e 91       		.byte	0x91
 5396 090f 77       		.sleb128 -9
 5397 0910 00       		.byte	0
 5398 0911 1E       		.uleb128 0x1e
 5399 0912 D9070000 		.4byte	.LASF132
 5400 0916 01       		.byte	0x1
 5401 0917 9E02     		.2byte	0x29e
 5402 0919 97000000 		.4byte	0x97
 5403 091d 00000000 		.4byte	.LFB102
 5404 0921 6A000000 		.4byte	.LFE102-.LFB102
 5405 0925 01       		.uleb128 0x1
 5406 0926 9C       		.byte	0x9c
 5407 0927 4A090000 		.4byte	0x94a
 5408 092b 15       		.uleb128 0x15
 5409 092c 21030000 		.4byte	.LASF133
 5410 0930 01       		.byte	0x1
 5411 0931 A002     		.2byte	0x2a0
 5412 0933 97000000 		.4byte	0x97
 5413 0937 02       		.uleb128 0x2
 5414 0938 91       		.byte	0x91
 5415 0939 76       		.sleb128 -10
 5416 093a 15       		.uleb128 0x15
 5417 093b DA040000 		.4byte	.LASF134
 5418 093f 01       		.byte	0x1
 5419 0940 A002     		.2byte	0x2a0
 5420 0942 97000000 		.4byte	0x97
 5421 0946 02       		.uleb128 0x2
 5422 0947 91       		.byte	0x91
 5423 0948 77       		.sleb128 -9
 5424 0949 00       		.byte	0
 5425 094a 1C       		.uleb128 0x1c
 5426 094b 5B080000 		.4byte	.LASF135
ARM GAS  C:\Users\bk\AppData\Local\Temp\ccq38zU3.s 			page 120


 5427 094f 01       		.byte	0x1
 5428 0950 C202     		.2byte	0x2c2
 5429 0952 C3000000 		.4byte	0xc3
 5430 0956 00000000 		.4byte	.LFB103
 5431 095a B4000000 		.4byte	.LFE103-.LFB103
 5432 095e 01       		.uleb128 0x1
 5433 095f 9C       		.byte	0x9c
 5434 0960 BB090000 		.4byte	0x9bb
 5435 0964 1D       		.uleb128 0x1d
 5436 0965 C6020000 		.4byte	.LASF136
 5437 0969 01       		.byte	0x1
 5438 096a C202     		.2byte	0x2c2
 5439 096c FE000000 		.4byte	0xfe
 5440 0970 02       		.uleb128 0x2
 5441 0971 91       		.byte	0x91
 5442 0972 6C       		.sleb128 -20
 5443 0973 1D       		.uleb128 0x1d
 5444 0974 D6000000 		.4byte	.LASF137
 5445 0978 01       		.byte	0x1
 5446 0979 C202     		.2byte	0x2c2
 5447 097b FE000000 		.4byte	0xfe
 5448 097f 02       		.uleb128 0x2
 5449 0980 91       		.byte	0x91
 5450 0981 68       		.sleb128 -24
 5451 0982 1D       		.uleb128 0x1d
 5452 0983 8A0A0000 		.4byte	.LASF96
 5453 0987 01       		.byte	0x1
 5454 0988 C202     		.2byte	0x2c2
 5455 098a FE000000 		.4byte	0xfe
 5456 098e 02       		.uleb128 0x2
 5457 098f 91       		.byte	0x91
 5458 0990 64       		.sleb128 -28
 5459 0991 1D       		.uleb128 0x1d
 5460 0992 750B0000 		.4byte	.LASF138
 5461 0996 01       		.byte	0x1
 5462 0997 C202     		.2byte	0x2c2
 5463 0999 FE000000 		.4byte	0xfe
 5464 099d 02       		.uleb128 0x2
 5465 099e 91       		.byte	0x91
 5466 099f 60       		.sleb128 -32
 5467 09a0 1B       		.uleb128 0x1b
 5468 09a1 6100     		.ascii	"a\000"
 5469 09a3 01       		.byte	0x1
 5470 09a4 C302     		.2byte	0x2c3
 5471 09a6 FE000000 		.4byte	0xfe
 5472 09aa 02       		.uleb128 0x2
 5473 09ab 91       		.byte	0x91
 5474 09ac 74       		.sleb128 -12
 5475 09ad 1B       		.uleb128 0x1b
 5476 09ae 6200     		.ascii	"b\000"
 5477 09b0 01       		.byte	0x1
 5478 09b1 C302     		.2byte	0x2c3
 5479 09b3 FE000000 		.4byte	0xfe
 5480 09b7 02       		.uleb128 0x2
 5481 09b8 91       		.byte	0x91
 5482 09b9 70       		.sleb128 -16
 5483 09ba 00       		.byte	0
ARM GAS  C:\Users\bk\AppData\Local\Temp\ccq38zU3.s 			page 121


 5484 09bb 21       		.uleb128 0x21
 5485 09bc 5B0B0000 		.4byte	.LASF139
 5486 09c0 01       		.byte	0x1
 5487 09c1 E502     		.2byte	0x2e5
 5488 09c3 00000000 		.4byte	.LFB104
 5489 09c7 DC000000 		.4byte	.LFE104-.LFB104
 5490 09cb 01       		.uleb128 0x1
 5491 09cc 9C       		.byte	0x9c
 5492 09cd 680A0000 		.4byte	0xa68
 5493 09d1 1D       		.uleb128 0x1d
 5494 09d2 7B050000 		.4byte	.LASF89
 5495 09d6 01       		.byte	0x1
 5496 09d7 E502     		.2byte	0x2e5
 5497 09d9 FE000000 		.4byte	0xfe
 5498 09dd 02       		.uleb128 0x2
 5499 09de 91       		.byte	0x91
 5500 09df 74       		.sleb128 -12
 5501 09e0 1D       		.uleb128 0x1d
 5502 09e1 31090000 		.4byte	.LASF92
 5503 09e5 01       		.byte	0x1
 5504 09e6 E502     		.2byte	0x2e5
 5505 09e8 FE000000 		.4byte	0xfe
 5506 09ec 02       		.uleb128 0x2
 5507 09ed 91       		.byte	0x91
 5508 09ee 70       		.sleb128 -16
 5509 09ef 1D       		.uleb128 0x1d
 5510 09f0 81070000 		.4byte	.LASF140
 5511 09f4 01       		.byte	0x1
 5512 09f5 E502     		.2byte	0x2e5
 5513 09f7 FE000000 		.4byte	0xfe
 5514 09fb 02       		.uleb128 0x2
 5515 09fc 91       		.byte	0x91
 5516 09fd 6C       		.sleb128 -20
 5517 09fe 1D       		.uleb128 0x1d
 5518 09ff 2D040000 		.4byte	.LASF141
 5519 0a03 01       		.byte	0x1
 5520 0a04 E502     		.2byte	0x2e5
 5521 0a06 FE000000 		.4byte	0xfe
 5522 0a0a 02       		.uleb128 0x2
 5523 0a0b 91       		.byte	0x91
 5524 0a0c 68       		.sleb128 -24
 5525 0a0d 1D       		.uleb128 0x1d
 5526 0a0e 5E050000 		.4byte	.LASF142
 5527 0a12 01       		.byte	0x1
 5528 0a13 E602     		.2byte	0x2e6
 5529 0a15 89000000 		.4byte	0x89
 5530 0a19 02       		.uleb128 0x2
 5531 0a1a 91       		.byte	0x91
 5532 0a1b 00       		.sleb128 0
 5533 0a1c 1D       		.uleb128 0x1d
 5534 0a1d 0B0A0000 		.4byte	.LASF143
 5535 0a21 01       		.byte	0x1
 5536 0a22 E602     		.2byte	0x2e6
 5537 0a24 FE000000 		.4byte	0xfe
 5538 0a28 02       		.uleb128 0x2
 5539 0a29 91       		.byte	0x91
 5540 0a2a 04       		.sleb128 4
ARM GAS  C:\Users\bk\AppData\Local\Temp\ccq38zU3.s 			page 122


 5541 0a2b 1D       		.uleb128 0x1d
 5542 0a2c AB000000 		.4byte	.LASF144
 5543 0a30 01       		.byte	0x1
 5544 0a31 E602     		.2byte	0x2e6
 5545 0a33 FE000000 		.4byte	0xfe
 5546 0a37 02       		.uleb128 0x2
 5547 0a38 91       		.byte	0x91
 5548 0a39 08       		.sleb128 8
 5549 0a3a 1D       		.uleb128 0x1d
 5550 0a3b F9040000 		.4byte	.LASF145
 5551 0a3f 01       		.byte	0x1
 5552 0a40 E702     		.2byte	0x2e7
 5553 0a42 FE000000 		.4byte	0xfe
 5554 0a46 02       		.uleb128 0x2
 5555 0a47 91       		.byte	0x91
 5556 0a48 0C       		.sleb128 12
 5557 0a49 1D       		.uleb128 0x1d
 5558 0a4a 6D070000 		.4byte	.LASF146
 5559 0a4e 01       		.byte	0x1
 5560 0a4f E702     		.2byte	0x2e7
 5561 0a51 89000000 		.4byte	0x89
 5562 0a55 02       		.uleb128 0x2
 5563 0a56 91       		.byte	0x91
 5564 0a57 10       		.sleb128 16
 5565 0a58 1D       		.uleb128 0x1d
 5566 0a59 D4090000 		.4byte	.LASF147
 5567 0a5d 01       		.byte	0x1
 5568 0a5e E702     		.2byte	0x2e7
 5569 0a60 FE000000 		.4byte	0xfe
 5570 0a64 02       		.uleb128 0x2
 5571 0a65 91       		.byte	0x91
 5572 0a66 14       		.sleb128 20
 5573 0a67 00       		.byte	0
 5574 0a68 18       		.uleb128 0x18
 5575 0a69 78090000 		.4byte	.LASF148
 5576 0a6d 01       		.byte	0x1
 5577 0a6e FB02     		.2byte	0x2fb
 5578 0a70 00000000 		.4byte	.LFB105
 5579 0a74 18000000 		.4byte	.LFE105-.LFB105
 5580 0a78 01       		.uleb128 0x1
 5581 0a79 9C       		.byte	0x9c
 5582 0a7a 1E       		.uleb128 0x1e
 5583 0a7b 87030000 		.4byte	.LASF149
 5584 0a7f 01       		.byte	0x1
 5585 0a80 0403     		.2byte	0x304
 5586 0a82 97000000 		.4byte	0x97
 5587 0a86 00000000 		.4byte	.LFB106
 5588 0a8a 5C000000 		.4byte	.LFE106-.LFB106
 5589 0a8e 01       		.uleb128 0x1
 5590 0a8f 9C       		.byte	0x9c
 5591 0a90 A40A0000 		.4byte	0xaa4
 5592 0a94 15       		.uleb128 0x15
 5593 0a95 ED050000 		.4byte	.LASF131
 5594 0a99 01       		.byte	0x1
 5595 0a9a 0603     		.2byte	0x306
 5596 0a9c C3000000 		.4byte	0xc3
 5597 0aa0 02       		.uleb128 0x2
ARM GAS  C:\Users\bk\AppData\Local\Temp\ccq38zU3.s 			page 123


 5598 0aa1 91       		.byte	0x91
 5599 0aa2 77       		.sleb128 -9
 5600 0aa3 00       		.byte	0
 5601 0aa4 1E       		.uleb128 0x1e
 5602 0aa5 CB040000 		.4byte	.LASF150
 5603 0aa9 01       		.byte	0x1
 5604 0aaa 1903     		.2byte	0x319
 5605 0aac 97000000 		.4byte	0x97
 5606 0ab0 00000000 		.4byte	.LFB107
 5607 0ab4 7C000000 		.4byte	.LFE107-.LFB107
 5608 0ab8 01       		.uleb128 0x1
 5609 0ab9 9C       		.byte	0x9c
 5610 0aba CE0A0000 		.4byte	0xace
 5611 0abe 15       		.uleb128 0x15
 5612 0abf DA040000 		.4byte	.LASF134
 5613 0ac3 01       		.byte	0x1
 5614 0ac4 1B03     		.2byte	0x31b
 5615 0ac6 97000000 		.4byte	0x97
 5616 0aca 02       		.uleb128 0x2
 5617 0acb 91       		.byte	0x91
 5618 0acc 77       		.sleb128 -9
 5619 0acd 00       		.byte	0
 5620 0ace 18       		.uleb128 0x18
 5621 0acf 1A0B0000 		.4byte	.LASF151
 5622 0ad3 01       		.byte	0x1
 5623 0ad4 4D03     		.2byte	0x34d
 5624 0ad6 00000000 		.4byte	.LFB108
 5625 0ada 44000000 		.4byte	.LFE108-.LFB108
 5626 0ade 01       		.uleb128 0x1
 5627 0adf 9C       		.byte	0x9c
 5628 0ae0 20       		.uleb128 0x20
 5629 0ae1 84050000 		.4byte	.LASF152
 5630 0ae5 01       		.byte	0x1
 5631 0ae6 5B03     		.2byte	0x35b
 5632 0ae8 97000000 		.4byte	0x97
 5633 0aec 00000000 		.4byte	.LFB109
 5634 0af0 20000000 		.4byte	.LFE109-.LFB109
 5635 0af4 01       		.uleb128 0x1
 5636 0af5 9C       		.byte	0x9c
 5637 0af6 20       		.uleb128 0x20
 5638 0af7 B40A0000 		.4byte	.LASF153
 5639 0afb 01       		.byte	0x1
 5640 0afc 5F03     		.2byte	0x35f
 5641 0afe 97000000 		.4byte	0x97
 5642 0b02 00000000 		.4byte	.LFB110
 5643 0b06 28000000 		.4byte	.LFE110-.LFB110
 5644 0b0a 01       		.uleb128 0x1
 5645 0b0b 9C       		.byte	0x9c
 5646 0b0c 20       		.uleb128 0x20
 5647 0b0d 6A060000 		.4byte	.LASF154
 5648 0b11 01       		.byte	0x1
 5649 0b12 6403     		.2byte	0x364
 5650 0b14 97000000 		.4byte	0x97
 5651 0b18 00000000 		.4byte	.LFB111
 5652 0b1c 20000000 		.4byte	.LFE111-.LFB111
 5653 0b20 01       		.uleb128 0x1
 5654 0b21 9C       		.byte	0x9c
ARM GAS  C:\Users\bk\AppData\Local\Temp\ccq38zU3.s 			page 124


 5655 0b22 1E       		.uleb128 0x1e
 5656 0b23 82060000 		.4byte	.LASF155
 5657 0b27 01       		.byte	0x1
 5658 0b28 6803     		.2byte	0x368
 5659 0b2a 97000000 		.4byte	0x97
 5660 0b2e 00000000 		.4byte	.LFB112
 5661 0b32 C4010000 		.4byte	.LFE112-.LFB112
 5662 0b36 01       		.uleb128 0x1
 5663 0b37 9C       		.byte	0x9c
 5664 0b38 F80B0000 		.4byte	0xbf8
 5665 0b3c 15       		.uleb128 0x15
 5666 0b3d 0B070000 		.4byte	.LASF121
 5667 0b41 01       		.byte	0x1
 5668 0b42 6B03     		.2byte	0x36b
 5669 0b44 89000000 		.4byte	0x89
 5670 0b48 02       		.uleb128 0x2
 5671 0b49 91       		.byte	0x91
 5672 0b4a 6C       		.sleb128 -20
 5673 0b4b 1B       		.uleb128 0x1b
 5674 0b4c 66657200 		.ascii	"fer\000"
 5675 0b50 01       		.byte	0x1
 5676 0b51 6B03     		.2byte	0x36b
 5677 0b53 89000000 		.4byte	0x89
 5678 0b57 02       		.uleb128 0x2
 5679 0b58 91       		.byte	0x91
 5680 0b59 68       		.sleb128 -24
 5681 0b5a 15       		.uleb128 0x15
 5682 0b5b D3070000 		.4byte	.LASF156
 5683 0b5f 01       		.byte	0x1
 5684 0b60 6C03     		.2byte	0x36c
 5685 0b62 97000000 		.4byte	0x97
 5686 0b66 02       		.uleb128 0x2
 5687 0b67 91       		.byte	0x91
 5688 0b68 77       		.sleb128 -9
 5689 0b69 15       		.uleb128 0x15
 5690 0b6a 740A0000 		.4byte	.LASF157
 5691 0b6e 01       		.byte	0x1
 5692 0b6f 6C03     		.2byte	0x36c
 5693 0b71 97000000 		.4byte	0x97
 5694 0b75 02       		.uleb128 0x2
 5695 0b76 91       		.byte	0x91
 5696 0b77 76       		.sleb128 -10
 5697 0b78 1B       		.uleb128 0x1b
 5698 0b79 53494D00 		.ascii	"SIM\000"
 5699 0b7d 01       		.byte	0x1
 5700 0b7e 8503     		.2byte	0x385
 5701 0b80 F80B0000 		.4byte	0xbf8
 5702 0b84 03       		.uleb128 0x3
 5703 0b85 91       		.byte	0x91
 5704 0b86 987E     		.sleb128 -232
 5705 0b88 14       		.uleb128 0x14
 5706 0b89 F8000000 		.4byte	.LBB7
 5707 0b8d 1C000000 		.4byte	.LBE7-.LBB7
 5708 0b91 B50B0000 		.4byte	0xbb5
 5709 0b95 15       		.uleb128 0x15
 5710 0b96 60040000 		.4byte	.LASF158
 5711 0b9a 01       		.byte	0x1
ARM GAS  C:\Users\bk\AppData\Local\Temp\ccq38zU3.s 			page 125


 5712 0b9b A503     		.2byte	0x3a5
 5713 0b9d 70080000 		.4byte	0x870
 5714 0ba1 03       		.uleb128 0x3
 5715 0ba2 91       		.byte	0x91
 5716 0ba3 B47D     		.sleb128 -332
 5717 0ba5 15       		.uleb128 0x15
 5718 0ba6 CF050000 		.4byte	.LASF159
 5719 0baa 01       		.byte	0x1
 5720 0bab A603     		.2byte	0x3a6
 5721 0bad FE000000 		.4byte	0xfe
 5722 0bb1 02       		.uleb128 0x2
 5723 0bb2 91       		.byte	0x91
 5724 0bb3 64       		.sleb128 -28
 5725 0bb4 00       		.byte	0
 5726 0bb5 16       		.uleb128 0x16
 5727 0bb6 14010000 		.4byte	.LBB8
 5728 0bba 58000000 		.4byte	.LBE8-.LBB8
 5729 0bbe 15       		.uleb128 0x15
 5730 0bbf 0C050000 		.4byte	.LASF160
 5731 0bc3 01       		.byte	0x1
 5732 0bc4 AE03     		.2byte	0x3ae
 5733 0bc6 89000000 		.4byte	0x89
 5734 0bca 02       		.uleb128 0x2
 5735 0bcb 91       		.byte	0x91
 5736 0bcc 70       		.sleb128 -16
 5737 0bcd 16       		.uleb128 0x16
 5738 0bce 2E010000 		.4byte	.LBB9
 5739 0bd2 24000000 		.4byte	.LBE9-.LBB9
 5740 0bd6 15       		.uleb128 0x15
 5741 0bd7 34080000 		.4byte	.LASF161
 5742 0bdb 01       		.byte	0x1
 5743 0bdc B303     		.2byte	0x3b3
 5744 0bde 70080000 		.4byte	0x870
 5745 0be2 03       		.uleb128 0x3
 5746 0be3 91       		.byte	0x91
 5747 0be4 B47D     		.sleb128 -332
 5748 0be6 15       		.uleb128 0x15
 5749 0be7 CF050000 		.4byte	.LASF159
 5750 0beb 01       		.byte	0x1
 5751 0bec B403     		.2byte	0x3b4
 5752 0bee FE000000 		.4byte	0xfe
 5753 0bf2 02       		.uleb128 0x2
 5754 0bf3 91       		.byte	0x91
 5755 0bf4 60       		.sleb128 -32
 5756 0bf5 00       		.byte	0
 5757 0bf6 00       		.byte	0
 5758 0bf7 00       		.byte	0
 5759 0bf8 07       		.uleb128 0x7
 5760 0bf9 E9000000 		.4byte	0xe9
 5761 0bfd 080C0000 		.4byte	0xc08
 5762 0c01 08       		.uleb128 0x8
 5763 0c02 F7000000 		.4byte	0xf7
 5764 0c06 C7       		.byte	0xc7
 5765 0c07 00       		.byte	0
 5766 0c08 1C       		.uleb128 0x1c
 5767 0c09 6D080000 		.4byte	.LASF162
 5768 0c0d 01       		.byte	0x1
ARM GAS  C:\Users\bk\AppData\Local\Temp\ccq38zU3.s 			page 126


 5769 0c0e 2004     		.2byte	0x420
 5770 0c10 C3000000 		.4byte	0xc3
 5771 0c14 00000000 		.4byte	.LFB113
 5772 0c18 30020000 		.4byte	.LFE113-.LFB113
 5773 0c1c 01       		.uleb128 0x1
 5774 0c1d 9C       		.byte	0x9c
 5775 0c1e D80C0000 		.4byte	0xcd8
 5776 0c22 1D       		.uleb128 0x1d
 5777 0c23 31090000 		.4byte	.LASF92
 5778 0c27 01       		.byte	0x1
 5779 0c28 2004     		.2byte	0x420
 5780 0c2a FE000000 		.4byte	0xfe
 5781 0c2e 03       		.uleb128 0x3
 5782 0c2f 91       		.byte	0x91
 5783 0c30 F44F     		.sleb128 -6156
 5784 0c32 15       		.uleb128 0x15
 5785 0c33 ED050000 		.4byte	.LASF131
 5786 0c37 01       		.byte	0x1
 5787 0c38 2204     		.2byte	0x422
 5788 0c3a C3000000 		.4byte	0xc3
 5789 0c3e 02       		.uleb128 0x2
 5790 0c3f 91       		.byte	0x91
 5791 0c40 63       		.sleb128 -29
 5792 0c41 15       		.uleb128 0x15
 5793 0c42 11000000 		.4byte	.LASF163
 5794 0c46 01       		.byte	0x1
 5795 0c47 2D04     		.2byte	0x42d
 5796 0c49 D80C0000 		.4byte	0xcd8
 5797 0c4d 03       		.uleb128 0x3
 5798 0c4e 91       		.byte	0x91
 5799 0c4f A868     		.sleb128 -3032
 5800 0c51 15       		.uleb128 0x15
 5801 0c52 9E020000 		.4byte	.LASF164
 5802 0c56 01       		.byte	0x1
 5803 0c57 2E04     		.2byte	0x42e
 5804 0c59 D80C0000 		.4byte	0xcd8
 5805 0c5d 03       		.uleb128 0x3
 5806 0c5e 91       		.byte	0x91
 5807 0c5f F050     		.sleb128 -6032
 5808 0c61 15       		.uleb128 0x15
 5809 0c62 A3000000 		.4byte	.LASF165
 5810 0c66 01       		.byte	0x1
 5811 0c67 2F04     		.2byte	0x42f
 5812 0c69 E90C0000 		.4byte	0xce9
 5813 0c6d 03       		.uleb128 0x3
 5814 0c6e 91       		.byte	0x91
 5815 0c6f DC50     		.sleb128 -6052
 5816 0c71 1B       		.uleb128 0x1b
 5817 0c72 646200   		.ascii	"db\000"
 5818 0c75 01       		.byte	0x1
 5819 0c76 3004     		.2byte	0x430
 5820 0c78 E90C0000 		.4byte	0xce9
 5821 0c7c 03       		.uleb128 0x3
 5822 0c7d 91       		.byte	0x91
 5823 0c7e C850     		.sleb128 -6072
 5824 0c80 15       		.uleb128 0x15
 5825 0c81 8F0B0000 		.4byte	.LASF166
ARM GAS  C:\Users\bk\AppData\Local\Temp\ccq38zU3.s 			page 127


 5826 0c85 01       		.byte	0x1
 5827 0c86 3104     		.2byte	0x431
 5828 0c88 E90C0000 		.4byte	0xce9
 5829 0c8c 03       		.uleb128 0x3
 5830 0c8d 91       		.byte	0x91
 5831 0c8e B450     		.sleb128 -6092
 5832 0c90 15       		.uleb128 0x15
 5833 0c91 E2040000 		.4byte	.LASF167
 5834 0c95 01       		.byte	0x1
 5835 0c96 3204     		.2byte	0x432
 5836 0c98 E90C0000 		.4byte	0xce9
 5837 0c9c 03       		.uleb128 0x3
 5838 0c9d 91       		.byte	0x91
 5839 0c9e A050     		.sleb128 -6112
 5840 0ca0 15       		.uleb128 0x15
 5841 0ca1 81070000 		.4byte	.LASF140
 5842 0ca5 01       		.byte	0x1
 5843 0ca6 3304     		.2byte	0x433
 5844 0ca8 E90C0000 		.4byte	0xce9
 5845 0cac 03       		.uleb128 0x3
 5846 0cad 91       		.byte	0x91
 5847 0cae 8C50     		.sleb128 -6132
 5848 0cb0 15       		.uleb128 0x15
 5849 0cb1 5E050000 		.4byte	.LASF142
 5850 0cb5 01       		.byte	0x1
 5851 0cb6 3404     		.2byte	0x434
 5852 0cb8 E90C0000 		.4byte	0xce9
 5853 0cbc 03       		.uleb128 0x3
 5854 0cbd 91       		.byte	0x91
 5855 0cbe F84F     		.sleb128 -6152
 5856 0cc0 16       		.uleb128 0x16
 5857 0cc1 10010000 		.4byte	.LBB10
 5858 0cc5 5A000000 		.4byte	.LBE10-.LBB10
 5859 0cc9 1B       		.uleb128 0x1b
 5860 0cca 6900     		.ascii	"i\000"
 5861 0ccc 01       		.byte	0x1
 5862 0ccd 4304     		.2byte	0x443
 5863 0ccf 89000000 		.4byte	0x89
 5864 0cd3 02       		.uleb128 0x2
 5865 0cd4 91       		.byte	0x91
 5866 0cd5 64       		.sleb128 -28
 5867 0cd6 00       		.byte	0
 5868 0cd7 00       		.byte	0
 5869 0cd8 07       		.uleb128 0x7
 5870 0cd9 E9000000 		.4byte	0xe9
 5871 0cdd E90C0000 		.4byte	0xce9
 5872 0ce1 17       		.uleb128 0x17
 5873 0ce2 F7000000 		.4byte	0xf7
 5874 0ce6 B70B     		.2byte	0xbb7
 5875 0ce8 00       		.byte	0
 5876 0ce9 07       		.uleb128 0x7
 5877 0cea E9000000 		.4byte	0xe9
 5878 0cee F90C0000 		.4byte	0xcf9
 5879 0cf2 08       		.uleb128 0x8
 5880 0cf3 F7000000 		.4byte	0xf7
 5881 0cf7 13       		.byte	0x13
 5882 0cf8 00       		.byte	0
ARM GAS  C:\Users\bk\AppData\Local\Temp\ccq38zU3.s 			page 128


 5883 0cf9 1C       		.uleb128 0x1c
 5884 0cfa 7E020000 		.4byte	.LASF168
 5885 0cfe 01       		.byte	0x1
 5886 0cff 5404     		.2byte	0x454
 5887 0d01 C3000000 		.4byte	0xc3
 5888 0d05 00000000 		.4byte	.LFB114
 5889 0d09 54000000 		.4byte	.LFE114-.LFB114
 5890 0d0d 01       		.uleb128 0x1
 5891 0d0e 9C       		.byte	0x9c
 5892 0d0f 3C0D0000 		.4byte	0xd3c
 5893 0d13 1D       		.uleb128 0x1d
 5894 0d14 3D0B0000 		.4byte	.LASF169
 5895 0d18 01       		.byte	0x1
 5896 0d19 5404     		.2byte	0x454
 5897 0d1b FE000000 		.4byte	0xfe
 5898 0d1f 02       		.uleb128 0x2
 5899 0d20 91       		.byte	0x91
 5900 0d21 6C       		.sleb128 -20
 5901 0d22 16       		.uleb128 0x16
 5902 0d23 1A000000 		.4byte	.LBB11
 5903 0d27 1C000000 		.4byte	.LBE11-.LBB11
 5904 0d2b 15       		.uleb128 0x15
 5905 0d2c CF050000 		.4byte	.LASF159
 5906 0d30 01       		.byte	0x1
 5907 0d31 6304     		.2byte	0x463
 5908 0d33 FE000000 		.4byte	0xfe
 5909 0d37 02       		.uleb128 0x2
 5910 0d38 91       		.byte	0x91
 5911 0d39 74       		.sleb128 -12
 5912 0d3a 00       		.byte	0
 5913 0d3b 00       		.byte	0
 5914 0d3c 22       		.uleb128 0x22
 5915 0d3d 9A070000 		.4byte	.LASF170
 5916 0d41 06       		.byte	0x6
 5917 0d42 1207     		.2byte	0x712
 5918 0d44 480D0000 		.4byte	0xd48
 5919 0d48 23       		.uleb128 0x23
 5920 0d49 AD000000 		.4byte	0xad
 5921 0d4d 24       		.uleb128 0x24
 5922 0d4e 670A0000 		.4byte	.LASF171
 5923 0d52 07       		.byte	0x7
 5924 0d53 17       		.byte	0x17
 5925 0d54 70080000 		.4byte	0x870
 5926 0d58 05       		.uleb128 0x5
 5927 0d59 03       		.byte	0x3
 5928 0d5a 00000000 		.4byte	debug_string
 5929 0d5e 07       		.uleb128 0x7
 5930 0d5f E9000000 		.4byte	0xe9
 5931 0d63 6E0D0000 		.4byte	0xd6e
 5932 0d67 08       		.uleb128 0x8
 5933 0d68 F7000000 		.4byte	0xf7
 5934 0d6c 0E       		.byte	0xe
 5935 0d6d 00       		.byte	0
 5936 0d6e 24       		.uleb128 0x24
 5937 0d6f 1A050000 		.4byte	.LASF172
 5938 0d73 01       		.byte	0x1
 5939 0d74 0C       		.byte	0xc
ARM GAS  C:\Users\bk\AppData\Local\Temp\ccq38zU3.s 			page 129


 5940 0d75 5E0D0000 		.4byte	0xd5e
 5941 0d79 05       		.uleb128 0x5
 5942 0d7a 03       		.byte	0x3
 5943 0d7b 00000000 		.4byte	main_host
 5944 0d7f 24       		.uleb128 0x24
 5945 0d80 7C000000 		.4byte	.LASF173
 5946 0d84 01       		.byte	0x1
 5947 0d85 0D       		.byte	0xd
 5948 0d86 A2000000 		.4byte	0xa2
 5949 0d8a 05       		.uleb128 0x5
 5950 0d8b 03       		.byte	0x3
 5951 0d8c 00000000 		.4byte	main_port
 5952 0d90 07       		.uleb128 0x7
 5953 0d91 E9000000 		.4byte	0xe9
 5954 0d95 A00D0000 		.4byte	0xda0
 5955 0d99 08       		.uleb128 0x8
 5956 0d9a F7000000 		.4byte	0xf7
 5957 0d9e 03       		.byte	0x3
 5958 0d9f 00       		.byte	0
 5959 0da0 24       		.uleb128 0x24
 5960 0da1 33040000 		.4byte	.LASF174
 5961 0da5 01       		.byte	0x1
 5962 0da6 0E       		.byte	0xe
 5963 0da7 900D0000 		.4byte	0xd90
 5964 0dab 05       		.uleb128 0x5
 5965 0dac 03       		.byte	0x3
 5966 0dad 00000000 		.4byte	database
 5967 0db1 24       		.uleb128 0x24
 5968 0db2 3C0A0000 		.4byte	.LASF175
 5969 0db6 01       		.byte	0x1
 5970 0db7 0F       		.byte	0xf
 5971 0db8 04050000 		.4byte	0x504
 5972 0dbc 05       		.uleb128 0x5
 5973 0dbd 03       		.byte	0x3
 5974 0dbe 00000000 		.4byte	uart_received_string
 5975 0dc2 24       		.uleb128 0x24
 5976 0dc3 A20A0000 		.4byte	.LASF176
 5977 0dc7 01       		.byte	0x1
 5978 0dc8 10       		.byte	0x10
 5979 0dc9 97000000 		.4byte	0x97
 5980 0dcd 05       		.uleb128 0x5
 5981 0dce 03       		.byte	0x3
 5982 0dcf 00000000 		.4byte	uart_string_index
 5983 0dd3 07       		.uleb128 0x7
 5984 0dd4 E9000000 		.4byte	0xe9
 5985 0dd8 E30D0000 		.4byte	0xde3
 5986 0ddc 08       		.uleb128 0x8
 5987 0ddd F7000000 		.4byte	0xf7
 5988 0de1 02       		.byte	0x2
 5989 0de2 00       		.byte	0
 5990 0de3 24       		.uleb128 0x24
 5991 0de4 D50A0000 		.4byte	.LASF177
 5992 0de8 01       		.byte	0x1
 5993 0de9 11       		.byte	0x11
 5994 0dea D30D0000 		.4byte	0xdd3
 5995 0dee 05       		.uleb128 0x5
 5996 0def 03       		.byte	0x3
ARM GAS  C:\Users\bk\AppData\Local\Temp\ccq38zU3.s 			page 130


 5997 0df0 00000000 		.4byte	device_index
 5998 0df4 07       		.uleb128 0x7
 5999 0df5 E9000000 		.4byte	0xe9
 6000 0df9 040E0000 		.4byte	0xe04
 6001 0dfd 08       		.uleb128 0x8
 6002 0dfe F7000000 		.4byte	0xf7
 6003 0e02 0F       		.byte	0xf
 6004 0e03 00       		.byte	0
 6005 0e04 24       		.uleb128 0x24
 6006 0e05 19070000 		.4byte	.LASF178
 6007 0e09 01       		.byte	0x1
 6008 0e0a 12       		.byte	0x12
 6009 0e0b F40D0000 		.4byte	0xdf4
 6010 0e0f 05       		.uleb128 0x5
 6011 0e10 03       		.byte	0x3
 6012 0e11 00000000 		.4byte	MEID
 6013 0e15 24       		.uleb128 0x24
 6014 0e16 63050000 		.4byte	.LASF179
 6015 0e1a 01       		.byte	0x1
 6016 0e1b 13       		.byte	0x13
 6017 0e1c 8B020000 		.4byte	0x28b
 6018 0e20 05       		.uleb128 0x5
 6019 0e21 03       		.byte	0x3
 6020 0e22 00000000 		.4byte	modem
 6021 0e26 07       		.uleb128 0x7
 6022 0e27 C3020000 		.4byte	0x2c3
 6023 0e2b 360E0000 		.4byte	0xe36
 6024 0e2f 08       		.uleb128 0x8
 6025 0e30 F7000000 		.4byte	0xf7
 6026 0e34 1A       		.byte	0x1a
 6027 0e35 00       		.byte	0
 6028 0e36 24       		.uleb128 0x24
 6029 0e37 FE080000 		.4byte	.LASF180
 6030 0e3b 01       		.byte	0x1
 6031 0e3c 1A       		.byte	0x1a
 6032 0e3d 260E0000 		.4byte	0xe26
 6033 0e41 05       		.uleb128 0x5
 6034 0e42 03       		.byte	0x3
 6035 0e43 00000000 		.4byte	EVENT_NODE_LIST
 6036 0e47 00       		.byte	0
 6037              		.section	.debug_abbrev,"",%progbits
 6038              	.Ldebug_abbrev0:
 6039 0000 01       		.uleb128 0x1
 6040 0001 11       		.uleb128 0x11
 6041 0002 01       		.byte	0x1
 6042 0003 25       		.uleb128 0x25
 6043 0004 0E       		.uleb128 0xe
 6044 0005 13       		.uleb128 0x13
 6045 0006 0B       		.uleb128 0xb
 6046 0007 03       		.uleb128 0x3
 6047 0008 0E       		.uleb128 0xe
 6048 0009 1B       		.uleb128 0x1b
 6049 000a 0E       		.uleb128 0xe
 6050 000b 55       		.uleb128 0x55
 6051 000c 17       		.uleb128 0x17
 6052 000d 11       		.uleb128 0x11
 6053 000e 01       		.uleb128 0x1
ARM GAS  C:\Users\bk\AppData\Local\Temp\ccq38zU3.s 			page 131


 6054 000f 10       		.uleb128 0x10
 6055 0010 17       		.uleb128 0x17
 6056 0011 00       		.byte	0
 6057 0012 00       		.byte	0
 6058 0013 02       		.uleb128 0x2
 6059 0014 24       		.uleb128 0x24
 6060 0015 00       		.byte	0
 6061 0016 0B       		.uleb128 0xb
 6062 0017 0B       		.uleb128 0xb
 6063 0018 3E       		.uleb128 0x3e
 6064 0019 0B       		.uleb128 0xb
 6065 001a 03       		.uleb128 0x3
 6066 001b 0E       		.uleb128 0xe
 6067 001c 00       		.byte	0
 6068 001d 00       		.byte	0
 6069 001e 03       		.uleb128 0x3
 6070 001f 16       		.uleb128 0x16
 6071 0020 00       		.byte	0
 6072 0021 03       		.uleb128 0x3
 6073 0022 0E       		.uleb128 0xe
 6074 0023 3A       		.uleb128 0x3a
 6075 0024 0B       		.uleb128 0xb
 6076 0025 3B       		.uleb128 0x3b
 6077 0026 0B       		.uleb128 0xb
 6078 0027 49       		.uleb128 0x49
 6079 0028 13       		.uleb128 0x13
 6080 0029 00       		.byte	0
 6081 002a 00       		.byte	0
 6082 002b 04       		.uleb128 0x4
 6083 002c 24       		.uleb128 0x24
 6084 002d 00       		.byte	0
 6085 002e 0B       		.uleb128 0xb
 6086 002f 0B       		.uleb128 0xb
 6087 0030 3E       		.uleb128 0x3e
 6088 0031 0B       		.uleb128 0xb
 6089 0032 03       		.uleb128 0x3
 6090 0033 08       		.uleb128 0x8
 6091 0034 00       		.byte	0
 6092 0035 00       		.byte	0
 6093 0036 05       		.uleb128 0x5
 6094 0037 16       		.uleb128 0x16
 6095 0038 00       		.byte	0
 6096 0039 03       		.uleb128 0x3
 6097 003a 0E       		.uleb128 0xe
 6098 003b 3A       		.uleb128 0x3a
 6099 003c 0B       		.uleb128 0xb
 6100 003d 3B       		.uleb128 0x3b
 6101 003e 05       		.uleb128 0x5
 6102 003f 49       		.uleb128 0x49
 6103 0040 13       		.uleb128 0x13
 6104 0041 00       		.byte	0
 6105 0042 00       		.byte	0
 6106 0043 06       		.uleb128 0x6
 6107 0044 0F       		.uleb128 0xf
 6108 0045 00       		.byte	0
 6109 0046 0B       		.uleb128 0xb
 6110 0047 0B       		.uleb128 0xb
ARM GAS  C:\Users\bk\AppData\Local\Temp\ccq38zU3.s 			page 132


 6111 0048 49       		.uleb128 0x49
 6112 0049 13       		.uleb128 0x13
 6113 004a 00       		.byte	0
 6114 004b 00       		.byte	0
 6115 004c 07       		.uleb128 0x7
 6116 004d 01       		.uleb128 0x1
 6117 004e 01       		.byte	0x1
 6118 004f 49       		.uleb128 0x49
 6119 0050 13       		.uleb128 0x13
 6120 0051 01       		.uleb128 0x1
 6121 0052 13       		.uleb128 0x13
 6122 0053 00       		.byte	0
 6123 0054 00       		.byte	0
 6124 0055 08       		.uleb128 0x8
 6125 0056 21       		.uleb128 0x21
 6126 0057 00       		.byte	0
 6127 0058 49       		.uleb128 0x49
 6128 0059 13       		.uleb128 0x13
 6129 005a 2F       		.uleb128 0x2f
 6130 005b 0B       		.uleb128 0xb
 6131 005c 00       		.byte	0
 6132 005d 00       		.byte	0
 6133 005e 09       		.uleb128 0x9
 6134 005f 04       		.uleb128 0x4
 6135 0060 01       		.byte	0x1
 6136 0061 0B       		.uleb128 0xb
 6137 0062 0B       		.uleb128 0xb
 6138 0063 49       		.uleb128 0x49
 6139 0064 13       		.uleb128 0x13
 6140 0065 3A       		.uleb128 0x3a
 6141 0066 0B       		.uleb128 0xb
 6142 0067 3B       		.uleb128 0x3b
 6143 0068 0B       		.uleb128 0xb
 6144 0069 01       		.uleb128 0x1
 6145 006a 13       		.uleb128 0x13
 6146 006b 00       		.byte	0
 6147 006c 00       		.byte	0
 6148 006d 0A       		.uleb128 0xa
 6149 006e 28       		.uleb128 0x28
 6150 006f 00       		.byte	0
 6151 0070 03       		.uleb128 0x3
 6152 0071 0E       		.uleb128 0xe
 6153 0072 1C       		.uleb128 0x1c
 6154 0073 0B       		.uleb128 0xb
 6155 0074 00       		.byte	0
 6156 0075 00       		.byte	0
 6157 0076 0B       		.uleb128 0xb
 6158 0077 13       		.uleb128 0x13
 6159 0078 01       		.byte	0x1
 6160 0079 0B       		.uleb128 0xb
 6161 007a 0B       		.uleb128 0xb
 6162 007b 3A       		.uleb128 0x3a
 6163 007c 0B       		.uleb128 0xb
 6164 007d 3B       		.uleb128 0x3b
 6165 007e 0B       		.uleb128 0xb
 6166 007f 01       		.uleb128 0x1
 6167 0080 13       		.uleb128 0x13
ARM GAS  C:\Users\bk\AppData\Local\Temp\ccq38zU3.s 			page 133


 6168 0081 00       		.byte	0
 6169 0082 00       		.byte	0
 6170 0083 0C       		.uleb128 0xc
 6171 0084 0D       		.uleb128 0xd
 6172 0085 00       		.byte	0
 6173 0086 03       		.uleb128 0x3
 6174 0087 0E       		.uleb128 0xe
 6175 0088 3A       		.uleb128 0x3a
 6176 0089 0B       		.uleb128 0xb
 6177 008a 3B       		.uleb128 0x3b
 6178 008b 0B       		.uleb128 0xb
 6179 008c 49       		.uleb128 0x49
 6180 008d 13       		.uleb128 0x13
 6181 008e 38       		.uleb128 0x38
 6182 008f 0B       		.uleb128 0xb
 6183 0090 00       		.byte	0
 6184 0091 00       		.byte	0
 6185 0092 0D       		.uleb128 0xd
 6186 0093 2E       		.uleb128 0x2e
 6187 0094 00       		.byte	0
 6188 0095 3F       		.uleb128 0x3f
 6189 0096 19       		.uleb128 0x19
 6190 0097 03       		.uleb128 0x3
 6191 0098 0E       		.uleb128 0xe
 6192 0099 3A       		.uleb128 0x3a
 6193 009a 0B       		.uleb128 0xb
 6194 009b 3B       		.uleb128 0x3b
 6195 009c 0B       		.uleb128 0xb
 6196 009d 27       		.uleb128 0x27
 6197 009e 19       		.uleb128 0x19
 6198 009f 11       		.uleb128 0x11
 6199 00a0 01       		.uleb128 0x1
 6200 00a1 12       		.uleb128 0x12
 6201 00a2 06       		.uleb128 0x6
 6202 00a3 40       		.uleb128 0x40
 6203 00a4 18       		.uleb128 0x18
 6204 00a5 9642     		.uleb128 0x2116
 6205 00a7 19       		.uleb128 0x19
 6206 00a8 00       		.byte	0
 6207 00a9 00       		.byte	0
 6208 00aa 0E       		.uleb128 0xe
 6209 00ab 2E       		.uleb128 0x2e
 6210 00ac 01       		.byte	0x1
 6211 00ad 3F       		.uleb128 0x3f
 6212 00ae 19       		.uleb128 0x19
 6213 00af 03       		.uleb128 0x3
 6214 00b0 0E       		.uleb128 0xe
 6215 00b1 3A       		.uleb128 0x3a
 6216 00b2 0B       		.uleb128 0xb
 6217 00b3 3B       		.uleb128 0x3b
 6218 00b4 0B       		.uleb128 0xb
 6219 00b5 11       		.uleb128 0x11
 6220 00b6 01       		.uleb128 0x1
 6221 00b7 12       		.uleb128 0x12
 6222 00b8 06       		.uleb128 0x6
 6223 00b9 40       		.uleb128 0x40
 6224 00ba 18       		.uleb128 0x18
ARM GAS  C:\Users\bk\AppData\Local\Temp\ccq38zU3.s 			page 134


 6225 00bb 9642     		.uleb128 0x2116
 6226 00bd 19       		.uleb128 0x19
 6227 00be 01       		.uleb128 0x1
 6228 00bf 13       		.uleb128 0x13
 6229 00c0 00       		.byte	0
 6230 00c1 00       		.byte	0
 6231 00c2 0F       		.uleb128 0xf
 6232 00c3 34       		.uleb128 0x34
 6233 00c4 00       		.byte	0
 6234 00c5 03       		.uleb128 0x3
 6235 00c6 08       		.uleb128 0x8
 6236 00c7 3A       		.uleb128 0x3a
 6237 00c8 0B       		.uleb128 0xb
 6238 00c9 3B       		.uleb128 0x3b
 6239 00ca 0B       		.uleb128 0xb
 6240 00cb 49       		.uleb128 0x49
 6241 00cc 13       		.uleb128 0x13
 6242 00cd 02       		.uleb128 0x2
 6243 00ce 18       		.uleb128 0x18
 6244 00cf 00       		.byte	0
 6245 00d0 00       		.byte	0
 6246 00d1 10       		.uleb128 0x10
 6247 00d2 2E       		.uleb128 0x2e
 6248 00d3 00       		.byte	0
 6249 00d4 3F       		.uleb128 0x3f
 6250 00d5 19       		.uleb128 0x19
 6251 00d6 03       		.uleb128 0x3
 6252 00d7 0E       		.uleb128 0xe
 6253 00d8 3A       		.uleb128 0x3a
 6254 00d9 0B       		.uleb128 0xb
 6255 00da 3B       		.uleb128 0x3b
 6256 00db 0B       		.uleb128 0xb
 6257 00dc 11       		.uleb128 0x11
 6258 00dd 01       		.uleb128 0x1
 6259 00de 12       		.uleb128 0x12
 6260 00df 06       		.uleb128 0x6
 6261 00e0 40       		.uleb128 0x40
 6262 00e1 18       		.uleb128 0x18
 6263 00e2 9642     		.uleb128 0x2116
 6264 00e4 19       		.uleb128 0x19
 6265 00e5 00       		.byte	0
 6266 00e6 00       		.byte	0
 6267 00e7 11       		.uleb128 0x11
 6268 00e8 2E       		.uleb128 0x2e
 6269 00e9 01       		.byte	0x1
 6270 00ea 3F       		.uleb128 0x3f
 6271 00eb 19       		.uleb128 0x19
 6272 00ec 03       		.uleb128 0x3
 6273 00ed 0E       		.uleb128 0xe
 6274 00ee 3A       		.uleb128 0x3a
 6275 00ef 0B       		.uleb128 0xb
 6276 00f0 3B       		.uleb128 0x3b
 6277 00f1 0B       		.uleb128 0xb
 6278 00f2 27       		.uleb128 0x27
 6279 00f3 19       		.uleb128 0x19
 6280 00f4 11       		.uleb128 0x11
 6281 00f5 01       		.uleb128 0x1
ARM GAS  C:\Users\bk\AppData\Local\Temp\ccq38zU3.s 			page 135


 6282 00f6 12       		.uleb128 0x12
 6283 00f7 06       		.uleb128 0x6
 6284 00f8 40       		.uleb128 0x40
 6285 00f9 18       		.uleb128 0x18
 6286 00fa 9642     		.uleb128 0x2116
 6287 00fc 19       		.uleb128 0x19
 6288 00fd 01       		.uleb128 0x1
 6289 00fe 13       		.uleb128 0x13
 6290 00ff 00       		.byte	0
 6291 0100 00       		.byte	0
 6292 0101 12       		.uleb128 0x12
 6293 0102 05       		.uleb128 0x5
 6294 0103 00       		.byte	0
 6295 0104 03       		.uleb128 0x3
 6296 0105 08       		.uleb128 0x8
 6297 0106 3A       		.uleb128 0x3a
 6298 0107 0B       		.uleb128 0xb
 6299 0108 3B       		.uleb128 0x3b
 6300 0109 0B       		.uleb128 0xb
 6301 010a 49       		.uleb128 0x49
 6302 010b 13       		.uleb128 0x13
 6303 010c 02       		.uleb128 0x2
 6304 010d 18       		.uleb128 0x18
 6305 010e 00       		.byte	0
 6306 010f 00       		.byte	0
 6307 0110 13       		.uleb128 0x13
 6308 0111 34       		.uleb128 0x34
 6309 0112 00       		.byte	0
 6310 0113 03       		.uleb128 0x3
 6311 0114 0E       		.uleb128 0xe
 6312 0115 3A       		.uleb128 0x3a
 6313 0116 0B       		.uleb128 0xb
 6314 0117 3B       		.uleb128 0x3b
 6315 0118 0B       		.uleb128 0xb
 6316 0119 49       		.uleb128 0x49
 6317 011a 13       		.uleb128 0x13
 6318 011b 02       		.uleb128 0x2
 6319 011c 18       		.uleb128 0x18
 6320 011d 00       		.byte	0
 6321 011e 00       		.byte	0
 6322 011f 14       		.uleb128 0x14
 6323 0120 0B       		.uleb128 0xb
 6324 0121 01       		.byte	0x1
 6325 0122 11       		.uleb128 0x11
 6326 0123 01       		.uleb128 0x1
 6327 0124 12       		.uleb128 0x12
 6328 0125 06       		.uleb128 0x6
 6329 0126 01       		.uleb128 0x1
 6330 0127 13       		.uleb128 0x13
 6331 0128 00       		.byte	0
 6332 0129 00       		.byte	0
 6333 012a 15       		.uleb128 0x15
 6334 012b 34       		.uleb128 0x34
 6335 012c 00       		.byte	0
 6336 012d 03       		.uleb128 0x3
 6337 012e 0E       		.uleb128 0xe
 6338 012f 3A       		.uleb128 0x3a
ARM GAS  C:\Users\bk\AppData\Local\Temp\ccq38zU3.s 			page 136


 6339 0130 0B       		.uleb128 0xb
 6340 0131 3B       		.uleb128 0x3b
 6341 0132 05       		.uleb128 0x5
 6342 0133 49       		.uleb128 0x49
 6343 0134 13       		.uleb128 0x13
 6344 0135 02       		.uleb128 0x2
 6345 0136 18       		.uleb128 0x18
 6346 0137 00       		.byte	0
 6347 0138 00       		.byte	0
 6348 0139 16       		.uleb128 0x16
 6349 013a 0B       		.uleb128 0xb
 6350 013b 01       		.byte	0x1
 6351 013c 11       		.uleb128 0x11
 6352 013d 01       		.uleb128 0x1
 6353 013e 12       		.uleb128 0x12
 6354 013f 06       		.uleb128 0x6
 6355 0140 00       		.byte	0
 6356 0141 00       		.byte	0
 6357 0142 17       		.uleb128 0x17
 6358 0143 21       		.uleb128 0x21
 6359 0144 00       		.byte	0
 6360 0145 49       		.uleb128 0x49
 6361 0146 13       		.uleb128 0x13
 6362 0147 2F       		.uleb128 0x2f
 6363 0148 05       		.uleb128 0x5
 6364 0149 00       		.byte	0
 6365 014a 00       		.byte	0
 6366 014b 18       		.uleb128 0x18
 6367 014c 2E       		.uleb128 0x2e
 6368 014d 00       		.byte	0
 6369 014e 3F       		.uleb128 0x3f
 6370 014f 19       		.uleb128 0x19
 6371 0150 03       		.uleb128 0x3
 6372 0151 0E       		.uleb128 0xe
 6373 0152 3A       		.uleb128 0x3a
 6374 0153 0B       		.uleb128 0xb
 6375 0154 3B       		.uleb128 0x3b
 6376 0155 05       		.uleb128 0x5
 6377 0156 11       		.uleb128 0x11
 6378 0157 01       		.uleb128 0x1
 6379 0158 12       		.uleb128 0x12
 6380 0159 06       		.uleb128 0x6
 6381 015a 40       		.uleb128 0x40
 6382 015b 18       		.uleb128 0x18
 6383 015c 9642     		.uleb128 0x2116
 6384 015e 19       		.uleb128 0x19
 6385 015f 00       		.byte	0
 6386 0160 00       		.byte	0
 6387 0161 19       		.uleb128 0x19
 6388 0162 2E       		.uleb128 0x2e
 6389 0163 01       		.byte	0x1
 6390 0164 3F       		.uleb128 0x3f
 6391 0165 19       		.uleb128 0x19
 6392 0166 03       		.uleb128 0x3
 6393 0167 0E       		.uleb128 0xe
 6394 0168 3A       		.uleb128 0x3a
 6395 0169 0B       		.uleb128 0xb
ARM GAS  C:\Users\bk\AppData\Local\Temp\ccq38zU3.s 			page 137


 6396 016a 3B       		.uleb128 0x3b
 6397 016b 05       		.uleb128 0x5
 6398 016c 11       		.uleb128 0x11
 6399 016d 01       		.uleb128 0x1
 6400 016e 12       		.uleb128 0x12
 6401 016f 06       		.uleb128 0x6
 6402 0170 40       		.uleb128 0x40
 6403 0171 18       		.uleb128 0x18
 6404 0172 9642     		.uleb128 0x2116
 6405 0174 19       		.uleb128 0x19
 6406 0175 01       		.uleb128 0x1
 6407 0176 13       		.uleb128 0x13
 6408 0177 00       		.byte	0
 6409 0178 00       		.byte	0
 6410 0179 1A       		.uleb128 0x1a
 6411 017a 2E       		.uleb128 0x2e
 6412 017b 01       		.byte	0x1
 6413 017c 3F       		.uleb128 0x3f
 6414 017d 19       		.uleb128 0x19
 6415 017e 03       		.uleb128 0x3
 6416 017f 0E       		.uleb128 0xe
 6417 0180 3A       		.uleb128 0x3a
 6418 0181 0B       		.uleb128 0xb
 6419 0182 3B       		.uleb128 0x3b
 6420 0183 05       		.uleb128 0x5
 6421 0184 11       		.uleb128 0x11
 6422 0185 01       		.uleb128 0x1
 6423 0186 12       		.uleb128 0x12
 6424 0187 06       		.uleb128 0x6
 6425 0188 40       		.uleb128 0x40
 6426 0189 18       		.uleb128 0x18
 6427 018a 9742     		.uleb128 0x2117
 6428 018c 19       		.uleb128 0x19
 6429 018d 01       		.uleb128 0x1
 6430 018e 13       		.uleb128 0x13
 6431 018f 00       		.byte	0
 6432 0190 00       		.byte	0
 6433 0191 1B       		.uleb128 0x1b
 6434 0192 34       		.uleb128 0x34
 6435 0193 00       		.byte	0
 6436 0194 03       		.uleb128 0x3
 6437 0195 08       		.uleb128 0x8
 6438 0196 3A       		.uleb128 0x3a
 6439 0197 0B       		.uleb128 0xb
 6440 0198 3B       		.uleb128 0x3b
 6441 0199 05       		.uleb128 0x5
 6442 019a 49       		.uleb128 0x49
 6443 019b 13       		.uleb128 0x13
 6444 019c 02       		.uleb128 0x2
 6445 019d 18       		.uleb128 0x18
 6446 019e 00       		.byte	0
 6447 019f 00       		.byte	0
 6448 01a0 1C       		.uleb128 0x1c
 6449 01a1 2E       		.uleb128 0x2e
 6450 01a2 01       		.byte	0x1
 6451 01a3 3F       		.uleb128 0x3f
 6452 01a4 19       		.uleb128 0x19
ARM GAS  C:\Users\bk\AppData\Local\Temp\ccq38zU3.s 			page 138


 6453 01a5 03       		.uleb128 0x3
 6454 01a6 0E       		.uleb128 0xe
 6455 01a7 3A       		.uleb128 0x3a
 6456 01a8 0B       		.uleb128 0xb
 6457 01a9 3B       		.uleb128 0x3b
 6458 01aa 05       		.uleb128 0x5
 6459 01ab 27       		.uleb128 0x27
 6460 01ac 19       		.uleb128 0x19
 6461 01ad 49       		.uleb128 0x49
 6462 01ae 13       		.uleb128 0x13
 6463 01af 11       		.uleb128 0x11
 6464 01b0 01       		.uleb128 0x1
 6465 01b1 12       		.uleb128 0x12
 6466 01b2 06       		.uleb128 0x6
 6467 01b3 40       		.uleb128 0x40
 6468 01b4 18       		.uleb128 0x18
 6469 01b5 9642     		.uleb128 0x2116
 6470 01b7 19       		.uleb128 0x19
 6471 01b8 01       		.uleb128 0x1
 6472 01b9 13       		.uleb128 0x13
 6473 01ba 00       		.byte	0
 6474 01bb 00       		.byte	0
 6475 01bc 1D       		.uleb128 0x1d
 6476 01bd 05       		.uleb128 0x5
 6477 01be 00       		.byte	0
 6478 01bf 03       		.uleb128 0x3
 6479 01c0 0E       		.uleb128 0xe
 6480 01c1 3A       		.uleb128 0x3a
 6481 01c2 0B       		.uleb128 0xb
 6482 01c3 3B       		.uleb128 0x3b
 6483 01c4 05       		.uleb128 0x5
 6484 01c5 49       		.uleb128 0x49
 6485 01c6 13       		.uleb128 0x13
 6486 01c7 02       		.uleb128 0x2
 6487 01c8 18       		.uleb128 0x18
 6488 01c9 00       		.byte	0
 6489 01ca 00       		.byte	0
 6490 01cb 1E       		.uleb128 0x1e
 6491 01cc 2E       		.uleb128 0x2e
 6492 01cd 01       		.byte	0x1
 6493 01ce 3F       		.uleb128 0x3f
 6494 01cf 19       		.uleb128 0x19
 6495 01d0 03       		.uleb128 0x3
 6496 01d1 0E       		.uleb128 0xe
 6497 01d2 3A       		.uleb128 0x3a
 6498 01d3 0B       		.uleb128 0xb
 6499 01d4 3B       		.uleb128 0x3b
 6500 01d5 05       		.uleb128 0x5
 6501 01d6 49       		.uleb128 0x49
 6502 01d7 13       		.uleb128 0x13
 6503 01d8 11       		.uleb128 0x11
 6504 01d9 01       		.uleb128 0x1
 6505 01da 12       		.uleb128 0x12
 6506 01db 06       		.uleb128 0x6
 6507 01dc 40       		.uleb128 0x40
 6508 01dd 18       		.uleb128 0x18
 6509 01de 9642     		.uleb128 0x2116
ARM GAS  C:\Users\bk\AppData\Local\Temp\ccq38zU3.s 			page 139


 6510 01e0 19       		.uleb128 0x19
 6511 01e1 01       		.uleb128 0x1
 6512 01e2 13       		.uleb128 0x13
 6513 01e3 00       		.byte	0
 6514 01e4 00       		.byte	0
 6515 01e5 1F       		.uleb128 0x1f
 6516 01e6 05       		.uleb128 0x5
 6517 01e7 00       		.byte	0
 6518 01e8 03       		.uleb128 0x3
 6519 01e9 08       		.uleb128 0x8
 6520 01ea 3A       		.uleb128 0x3a
 6521 01eb 0B       		.uleb128 0xb
 6522 01ec 3B       		.uleb128 0x3b
 6523 01ed 05       		.uleb128 0x5
 6524 01ee 49       		.uleb128 0x49
 6525 01ef 13       		.uleb128 0x13
 6526 01f0 02       		.uleb128 0x2
 6527 01f1 18       		.uleb128 0x18
 6528 01f2 00       		.byte	0
 6529 01f3 00       		.byte	0
 6530 01f4 20       		.uleb128 0x20
 6531 01f5 2E       		.uleb128 0x2e
 6532 01f6 00       		.byte	0
 6533 01f7 3F       		.uleb128 0x3f
 6534 01f8 19       		.uleb128 0x19
 6535 01f9 03       		.uleb128 0x3
 6536 01fa 0E       		.uleb128 0xe
 6537 01fb 3A       		.uleb128 0x3a
 6538 01fc 0B       		.uleb128 0xb
 6539 01fd 3B       		.uleb128 0x3b
 6540 01fe 05       		.uleb128 0x5
 6541 01ff 49       		.uleb128 0x49
 6542 0200 13       		.uleb128 0x13
 6543 0201 11       		.uleb128 0x11
 6544 0202 01       		.uleb128 0x1
 6545 0203 12       		.uleb128 0x12
 6546 0204 06       		.uleb128 0x6
 6547 0205 40       		.uleb128 0x40
 6548 0206 18       		.uleb128 0x18
 6549 0207 9642     		.uleb128 0x2116
 6550 0209 19       		.uleb128 0x19
 6551 020a 00       		.byte	0
 6552 020b 00       		.byte	0
 6553 020c 21       		.uleb128 0x21
 6554 020d 2E       		.uleb128 0x2e
 6555 020e 01       		.byte	0x1
 6556 020f 3F       		.uleb128 0x3f
 6557 0210 19       		.uleb128 0x19
 6558 0211 03       		.uleb128 0x3
 6559 0212 0E       		.uleb128 0xe
 6560 0213 3A       		.uleb128 0x3a
 6561 0214 0B       		.uleb128 0xb
 6562 0215 3B       		.uleb128 0x3b
 6563 0216 05       		.uleb128 0x5
 6564 0217 27       		.uleb128 0x27
 6565 0218 19       		.uleb128 0x19
 6566 0219 11       		.uleb128 0x11
ARM GAS  C:\Users\bk\AppData\Local\Temp\ccq38zU3.s 			page 140


 6567 021a 01       		.uleb128 0x1
 6568 021b 12       		.uleb128 0x12
 6569 021c 06       		.uleb128 0x6
 6570 021d 40       		.uleb128 0x40
 6571 021e 18       		.uleb128 0x18
 6572 021f 9642     		.uleb128 0x2116
 6573 0221 19       		.uleb128 0x19
 6574 0222 01       		.uleb128 0x1
 6575 0223 13       		.uleb128 0x13
 6576 0224 00       		.byte	0
 6577 0225 00       		.byte	0
 6578 0226 22       		.uleb128 0x22
 6579 0227 34       		.uleb128 0x34
 6580 0228 00       		.byte	0
 6581 0229 03       		.uleb128 0x3
 6582 022a 0E       		.uleb128 0xe
 6583 022b 3A       		.uleb128 0x3a
 6584 022c 0B       		.uleb128 0xb
 6585 022d 3B       		.uleb128 0x3b
 6586 022e 05       		.uleb128 0x5
 6587 022f 49       		.uleb128 0x49
 6588 0230 13       		.uleb128 0x13
 6589 0231 3F       		.uleb128 0x3f
 6590 0232 19       		.uleb128 0x19
 6591 0233 3C       		.uleb128 0x3c
 6592 0234 19       		.uleb128 0x19
 6593 0235 00       		.byte	0
 6594 0236 00       		.byte	0
 6595 0237 23       		.uleb128 0x23
 6596 0238 35       		.uleb128 0x35
 6597 0239 00       		.byte	0
 6598 023a 49       		.uleb128 0x49
 6599 023b 13       		.uleb128 0x13
 6600 023c 00       		.byte	0
 6601 023d 00       		.byte	0
 6602 023e 24       		.uleb128 0x24
 6603 023f 34       		.uleb128 0x34
 6604 0240 00       		.byte	0
 6605 0241 03       		.uleb128 0x3
 6606 0242 0E       		.uleb128 0xe
 6607 0243 3A       		.uleb128 0x3a
 6608 0244 0B       		.uleb128 0xb
 6609 0245 3B       		.uleb128 0x3b
 6610 0246 0B       		.uleb128 0xb
 6611 0247 49       		.uleb128 0x49
 6612 0248 13       		.uleb128 0x13
 6613 0249 3F       		.uleb128 0x3f
 6614 024a 19       		.uleb128 0x19
 6615 024b 02       		.uleb128 0x2
 6616 024c 18       		.uleb128 0x18
 6617 024d 00       		.byte	0
 6618 024e 00       		.byte	0
 6619 024f 00       		.byte	0
 6620              		.section	.debug_aranges,"",%progbits
 6621 0000 AC010000 		.4byte	0x1ac
 6622 0004 0200     		.2byte	0x2
 6623 0006 00000000 		.4byte	.Ldebug_info0
ARM GAS  C:\Users\bk\AppData\Local\Temp\ccq38zU3.s 			page 141


 6624 000a 04       		.byte	0x4
 6625 000b 00       		.byte	0
 6626 000c 0000     		.2byte	0
 6627 000e 0000     		.2byte	0
 6628 0010 00000000 		.4byte	.LFB64
 6629 0014 3C000000 		.4byte	.LFE64-.LFB64
 6630 0018 00000000 		.4byte	.LFB65
 6631 001c 2C000000 		.4byte	.LFE65-.LFB65
 6632 0020 00000000 		.4byte	.LFB66
 6633 0024 1C000000 		.4byte	.LFE66-.LFB66
 6634 0028 00000000 		.4byte	.LFB67
 6635 002c 28000000 		.4byte	.LFE67-.LFB67
 6636 0030 00000000 		.4byte	.LFB68
 6637 0034 2C000000 		.4byte	.LFE68-.LFB68
 6638 0038 00000000 		.4byte	.LFB69
 6639 003c 54000000 		.4byte	.LFE69-.LFB69
 6640 0040 00000000 		.4byte	.LFB70
 6641 0044 30000000 		.4byte	.LFE70-.LFB70
 6642 0048 00000000 		.4byte	.LFB71
 6643 004c 24000000 		.4byte	.LFE71-.LFB71
 6644 0050 00000000 		.4byte	.LFB72
 6645 0054 28000000 		.4byte	.LFE72-.LFB72
 6646 0058 00000000 		.4byte	.LFB73
 6647 005c 30000000 		.4byte	.LFE73-.LFB73
 6648 0060 00000000 		.4byte	.LFB74
 6649 0064 30000000 		.4byte	.LFE74-.LFB74
 6650 0068 00000000 		.4byte	.LFB75
 6651 006c 30000000 		.4byte	.LFE75-.LFB75
 6652 0070 00000000 		.4byte	.LFB76
 6653 0074 30000000 		.4byte	.LFE76-.LFB76
 6654 0078 00000000 		.4byte	.LFB77
 6655 007c 50000000 		.4byte	.LFE77-.LFB77
 6656 0080 00000000 		.4byte	.LFB78
 6657 0084 30000000 		.4byte	.LFE78-.LFB78
 6658 0088 00000000 		.4byte	.LFB79
 6659 008c 58000000 		.4byte	.LFE79-.LFB79
 6660 0090 00000000 		.4byte	.LFB80
 6661 0094 2C000000 		.4byte	.LFE80-.LFB80
 6662 0098 00000000 		.4byte	.LFB81
 6663 009c 3C010000 		.4byte	.LFE81-.LFB81
 6664 00a0 00000000 		.4byte	.LFB82
 6665 00a4 54000000 		.4byte	.LFE82-.LFB82
 6666 00a8 00000000 		.4byte	.LFB83
 6667 00ac BC000000 		.4byte	.LFE83-.LFB83
 6668 00b0 00000000 		.4byte	.LFB84
 6669 00b4 44000000 		.4byte	.LFE84-.LFB84
 6670 00b8 00000000 		.4byte	.LFB85
 6671 00bc 68000000 		.4byte	.LFE85-.LFB85
 6672 00c0 00000000 		.4byte	.LFB86
 6673 00c4 C0000000 		.4byte	.LFE86-.LFB86
 6674 00c8 00000000 		.4byte	.LFB87
 6675 00cc 44000000 		.4byte	.LFE87-.LFB87
 6676 00d0 00000000 		.4byte	.LFB88
 6677 00d4 B4000000 		.4byte	.LFE88-.LFB88
 6678 00d8 00000000 		.4byte	.LFB89
 6679 00dc 4C000000 		.4byte	.LFE89-.LFB89
 6680 00e0 00000000 		.4byte	.LFB90
ARM GAS  C:\Users\bk\AppData\Local\Temp\ccq38zU3.s 			page 142


 6681 00e4 7E000000 		.4byte	.LFE90-.LFB90
 6682 00e8 00000000 		.4byte	.LFB91
 6683 00ec 9C000000 		.4byte	.LFE91-.LFB91
 6684 00f0 00000000 		.4byte	.LFB92
 6685 00f4 20000000 		.4byte	.LFE92-.LFB92
 6686 00f8 00000000 		.4byte	.LFB93
 6687 00fc 20000000 		.4byte	.LFE93-.LFB93
 6688 0100 00000000 		.4byte	.LFB94
 6689 0104 20000000 		.4byte	.LFE94-.LFB94
 6690 0108 00000000 		.4byte	.LFB95
 6691 010c 10010000 		.4byte	.LFE95-.LFB95
 6692 0110 00000000 		.4byte	.LFB96
 6693 0114 20000000 		.4byte	.LFE96-.LFB96
 6694 0118 00000000 		.4byte	.LFB97
 6695 011c 48000000 		.4byte	.LFE97-.LFB97
 6696 0120 00000000 		.4byte	.LFB98
 6697 0124 48000000 		.4byte	.LFE98-.LFB98
 6698 0128 00000000 		.4byte	.LFB99
 6699 012c 10000000 		.4byte	.LFE99-.LFB99
 6700 0130 00000000 		.4byte	.LFB100
 6701 0134 20000000 		.4byte	.LFE100-.LFB100
 6702 0138 00000000 		.4byte	.LFB101
 6703 013c 48000000 		.4byte	.LFE101-.LFB101
 6704 0140 00000000 		.4byte	.LFB102
 6705 0144 6A000000 		.4byte	.LFE102-.LFB102
 6706 0148 00000000 		.4byte	.LFB103
 6707 014c B4000000 		.4byte	.LFE103-.LFB103
 6708 0150 00000000 		.4byte	.LFB104
 6709 0154 DC000000 		.4byte	.LFE104-.LFB104
 6710 0158 00000000 		.4byte	.LFB105
 6711 015c 18000000 		.4byte	.LFE105-.LFB105
 6712 0160 00000000 		.4byte	.LFB106
 6713 0164 5C000000 		.4byte	.LFE106-.LFB106
 6714 0168 00000000 		.4byte	.LFB107
 6715 016c 7C000000 		.4byte	.LFE107-.LFB107
 6716 0170 00000000 		.4byte	.LFB108
 6717 0174 44000000 		.4byte	.LFE108-.LFB108
 6718 0178 00000000 		.4byte	.LFB109
 6719 017c 20000000 		.4byte	.LFE109-.LFB109
 6720 0180 00000000 		.4byte	.LFB110
 6721 0184 28000000 		.4byte	.LFE110-.LFB110
 6722 0188 00000000 		.4byte	.LFB111
 6723 018c 20000000 		.4byte	.LFE111-.LFB111
 6724 0190 00000000 		.4byte	.LFB112
 6725 0194 C4010000 		.4byte	.LFE112-.LFB112
 6726 0198 00000000 		.4byte	.LFB113
 6727 019c 30020000 		.4byte	.LFE113-.LFB113
 6728 01a0 00000000 		.4byte	.LFB114
 6729 01a4 54000000 		.4byte	.LFE114-.LFB114
 6730 01a8 00000000 		.4byte	0
 6731 01ac 00000000 		.4byte	0
 6732              		.section	.debug_ranges,"",%progbits
 6733              	.Ldebug_ranges0:
 6734 0000 00000000 		.4byte	.LFB64
 6735 0004 3C000000 		.4byte	.LFE64
 6736 0008 00000000 		.4byte	.LFB65
 6737 000c 2C000000 		.4byte	.LFE65
ARM GAS  C:\Users\bk\AppData\Local\Temp\ccq38zU3.s 			page 143


 6738 0010 00000000 		.4byte	.LFB66
 6739 0014 1C000000 		.4byte	.LFE66
 6740 0018 00000000 		.4byte	.LFB67
 6741 001c 28000000 		.4byte	.LFE67
 6742 0020 00000000 		.4byte	.LFB68
 6743 0024 2C000000 		.4byte	.LFE68
 6744 0028 00000000 		.4byte	.LFB69
 6745 002c 54000000 		.4byte	.LFE69
 6746 0030 00000000 		.4byte	.LFB70
 6747 0034 30000000 		.4byte	.LFE70
 6748 0038 00000000 		.4byte	.LFB71
 6749 003c 24000000 		.4byte	.LFE71
 6750 0040 00000000 		.4byte	.LFB72
 6751 0044 28000000 		.4byte	.LFE72
 6752 0048 00000000 		.4byte	.LFB73
 6753 004c 30000000 		.4byte	.LFE73
 6754 0050 00000000 		.4byte	.LFB74
 6755 0054 30000000 		.4byte	.LFE74
 6756 0058 00000000 		.4byte	.LFB75
 6757 005c 30000000 		.4byte	.LFE75
 6758 0060 00000000 		.4byte	.LFB76
 6759 0064 30000000 		.4byte	.LFE76
 6760 0068 00000000 		.4byte	.LFB77
 6761 006c 50000000 		.4byte	.LFE77
 6762 0070 00000000 		.4byte	.LFB78
 6763 0074 30000000 		.4byte	.LFE78
 6764 0078 00000000 		.4byte	.LFB79
 6765 007c 58000000 		.4byte	.LFE79
 6766 0080 00000000 		.4byte	.LFB80
 6767 0084 2C000000 		.4byte	.LFE80
 6768 0088 00000000 		.4byte	.LFB81
 6769 008c 3C010000 		.4byte	.LFE81
 6770 0090 00000000 		.4byte	.LFB82
 6771 0094 54000000 		.4byte	.LFE82
 6772 0098 00000000 		.4byte	.LFB83
 6773 009c BC000000 		.4byte	.LFE83
 6774 00a0 00000000 		.4byte	.LFB84
 6775 00a4 44000000 		.4byte	.LFE84
 6776 00a8 00000000 		.4byte	.LFB85
 6777 00ac 68000000 		.4byte	.LFE85
 6778 00b0 00000000 		.4byte	.LFB86
 6779 00b4 C0000000 		.4byte	.LFE86
 6780 00b8 00000000 		.4byte	.LFB87
 6781 00bc 44000000 		.4byte	.LFE87
 6782 00c0 00000000 		.4byte	.LFB88
 6783 00c4 B4000000 		.4byte	.LFE88
 6784 00c8 00000000 		.4byte	.LFB89
 6785 00cc 4C000000 		.4byte	.LFE89
 6786 00d0 00000000 		.4byte	.LFB90
 6787 00d4 7E000000 		.4byte	.LFE90
 6788 00d8 00000000 		.4byte	.LFB91
 6789 00dc 9C000000 		.4byte	.LFE91
 6790 00e0 00000000 		.4byte	.LFB92
 6791 00e4 20000000 		.4byte	.LFE92
 6792 00e8 00000000 		.4byte	.LFB93
 6793 00ec 20000000 		.4byte	.LFE93
 6794 00f0 00000000 		.4byte	.LFB94
ARM GAS  C:\Users\bk\AppData\Local\Temp\ccq38zU3.s 			page 144


 6795 00f4 20000000 		.4byte	.LFE94
 6796 00f8 00000000 		.4byte	.LFB95
 6797 00fc 10010000 		.4byte	.LFE95
 6798 0100 00000000 		.4byte	.LFB96
 6799 0104 20000000 		.4byte	.LFE96
 6800 0108 00000000 		.4byte	.LFB97
 6801 010c 48000000 		.4byte	.LFE97
 6802 0110 00000000 		.4byte	.LFB98
 6803 0114 48000000 		.4byte	.LFE98
 6804 0118 00000000 		.4byte	.LFB99
 6805 011c 10000000 		.4byte	.LFE99
 6806 0120 00000000 		.4byte	.LFB100
 6807 0124 20000000 		.4byte	.LFE100
 6808 0128 00000000 		.4byte	.LFB101
 6809 012c 48000000 		.4byte	.LFE101
 6810 0130 00000000 		.4byte	.LFB102
 6811 0134 6A000000 		.4byte	.LFE102
 6812 0138 00000000 		.4byte	.LFB103
 6813 013c B4000000 		.4byte	.LFE103
 6814 0140 00000000 		.4byte	.LFB104
 6815 0144 DC000000 		.4byte	.LFE104
 6816 0148 00000000 		.4byte	.LFB105
 6817 014c 18000000 		.4byte	.LFE105
 6818 0150 00000000 		.4byte	.LFB106
 6819 0154 5C000000 		.4byte	.LFE106
 6820 0158 00000000 		.4byte	.LFB107
 6821 015c 7C000000 		.4byte	.LFE107
 6822 0160 00000000 		.4byte	.LFB108
 6823 0164 44000000 		.4byte	.LFE108
 6824 0168 00000000 		.4byte	.LFB109
 6825 016c 20000000 		.4byte	.LFE109
 6826 0170 00000000 		.4byte	.LFB110
 6827 0174 28000000 		.4byte	.LFE110
 6828 0178 00000000 		.4byte	.LFB111
 6829 017c 20000000 		.4byte	.LFE111
 6830 0180 00000000 		.4byte	.LFB112
 6831 0184 C4010000 		.4byte	.LFE112
 6832 0188 00000000 		.4byte	.LFB113
 6833 018c 30020000 		.4byte	.LFE113
 6834 0190 00000000 		.4byte	.LFB114
 6835 0194 54000000 		.4byte	.LFE114
 6836 0198 00000000 		.4byte	0
 6837 019c 00000000 		.4byte	0
 6838              		.section	.debug_line,"",%progbits
 6839              	.Ldebug_line0:
 6840 0000 32070000 		.section	.debug_str,"MS",%progbits,1
 6840      02006501 
 6840      00000201 
 6840      FB0E0D00 
 6840      01010101 
 6841              	.LASF48:
 6842 0000 41435449 		.ascii	"ACTION_CHECK_PDP\000"
 6842      4F4E5F43 
 6842      4845434B 
 6842      5F504450 
 6842      00
 6843              	.LASF163:
ARM GAS  C:\Users\bk\AppData\Local\Temp\ccq38zU3.s 			page 145


 6844 0011 72657175 		.ascii	"request\000"
 6844      65737400 
 6845              	.LASF67:
 6846 0019 65787065 		.ascii	"expected_response\000"
 6846      63746564 
 6846      5F726573 
 6846      706F6E73 
 6846      6500
 6847              	.LASF107:
 6848 002b 696E7465 		.ascii	"interval\000"
 6848      7276616C 
 6848      00
 6849              	.LASF66:
 6850 0034 7472616E 		.ascii	"transaction_error_counter\000"
 6850      73616374 
 6850      696F6E5F 
 6850      6572726F 
 6850      725F636F 
 6851              	.LASF29:
 6852 004e 4556454E 		.ascii	"EVENT_REQUEST_TIME\000"
 6852      545F5245 
 6852      51554553 
 6852      545F5449 
 6852      4D4500
 6853              	.LASF52:
 6854 0061 41435449 		.ascii	"ACTION_PARSE_SOCKET_STATUS\000"
 6854      4F4E5F50 
 6854      41525345 
 6854      5F534F43 
 6854      4B45545F 
 6855              	.LASF173:
 6856 007c 6D61696E 		.ascii	"main_port\000"
 6856      5F706F72 
 6856      7400
 6857              	.LASF82:
 6858 0086 6D6F6465 		.ascii	"modem_scheduler_activate_PDP\000"
 6858      6D5F7363 
 6858      68656475 
 6858      6C65725F 
 6858      61637469 
 6859              	.LASF165:
 6860 00a3 6E6F6465 		.ascii	"node_id\000"
 6860      5F696400 
 6861              	.LASF144:
 6862 00ab 636F6E6E 		.ascii	"connection_type\000"
 6862      65637469 
 6862      6F6E5F74 
 6862      79706500 
 6863              	.LASF44:
 6864 00bb 4D4F4445 		.ascii	"MODEM_STATE_T\000"
 6864      4D5F5354 
 6864      4154455F 
 6864      5400
 6865              	.LASF12:
 6866 00c9 756E7369 		.ascii	"unsigned int\000"
 6866      676E6564 
 6866      20696E74 
ARM GAS  C:\Users\bk\AppData\Local\Temp\ccq38zU3.s 			page 146


 6866      00
 6867              	.LASF137:
 6868 00d6 76657273 		.ascii	"version\000"
 6868      696F6E00 
 6869              	.LASF84:
 6870 00de 736F636B 		.ascii	"socket_dial_str\000"
 6870      65745F64 
 6870      69616C5F 
 6870      73747200 
 6871              	.LASF6:
 6872 00ee 5F5F696E 		.ascii	"__int32_t\000"
 6872      7433325F 
 6872      7400
 6873              	.LASF37:
 6874 00f8 4556454E 		.ascii	"EVENT_PARSE_MESSAGE\000"
 6874      545F5041 
 6874      5253455F 
 6874      4D455353 
 6874      41474500 
 6875              	.LASF24:
 6876 010c 4556454E 		.ascii	"EVENT_CHECK_UART\000"
 6876      545F4348 
 6876      45434B5F 
 6876      55415254 
 6876      00
 6877              	.LASF47:
 6878 011d 41435449 		.ascii	"ACTION_CHECK_NETWORK\000"
 6878      4F4E5F43 
 6878      4845434B 
 6878      5F4E4554 
 6878      574F524B 
 6879              	.LASF94:
 6880 0132 6D6F6465 		.ascii	"modem_scheduler_receive_send_echo\000"
 6880      6D5F7363 
 6880      68656475 
 6880      6C65725F 
 6880      72656365 
 6881              	.LASF181:
 6882 0154 474E5520 		.ascii	"GNU C11 5.4.1 20160609 (release) [ARM/embedded-5-br"
 6882      43313120 
 6882      352E342E 
 6882      31203230 
 6882      31363036 
 6883 0187 616E6368 		.ascii	"anch revision 237715] -mcpu=cortex-m3 -mthumb -g -O"
 6883      20726576 
 6883      6973696F 
 6883      6E203233 
 6883      37373135 
 6884 01ba 30202D66 		.ascii	"0 -ffunction-sections -ffat-lto-objects\000"
 6884      66756E63 
 6884      74696F6E 
 6884      2D736563 
 6884      74696F6E 
 6885              	.LASF114:
 6886 01e2 70617273 		.ascii	"parse_meid\000"
 6886      655F6D65 
 6886      696400
ARM GAS  C:\Users\bk\AppData\Local\Temp\ccq38zU3.s 			page 147


 6887              	.LASF88:
 6888 01ed 6D6F6465 		.ascii	"modem_scheduler_send_message\000"
 6888      6D5F7363 
 6888      68656475 
 6888      6C65725F 
 6888      73656E64 
 6889              	.LASF59:
 6890 020a 41435449 		.ascii	"ACTION_PARSE_MESSAGE\000"
 6890      4F4E5F50 
 6890      41525345 
 6890      5F4D4553 
 6890      53414745 
 6891              	.LASF58:
 6892 021f 41435449 		.ascii	"ACTION_RECEIVE_MESSAGE\000"
 6892      4F4E5F52 
 6892      45434549 
 6892      56455F4D 
 6892      45535341 
 6893              	.LASF118:
 6894 0236 6D6F6465 		.ascii	"modem_report_hardware_identification\000"
 6894      6D5F7265 
 6894      706F7274 
 6894      5F686172 
 6894      64776172 
 6895              	.LASF26:
 6896 025b 4556454E 		.ascii	"EVENT_CHECK_PDP\000"
 6896      545F4348 
 6896      45434B5F 
 6896      50445000 
 6897              	.LASF28:
 6898 026b 4556454E 		.ascii	"EVENT_REQUEST_MEID\000"
 6898      545F5245 
 6898      51554553 
 6898      545F4D45 
 6898      494400
 6899              	.LASF168:
 6900 027e 6D6F6465 		.ascii	"modem_get_ccid\000"
 6900      6D5F6765 
 6900      745F6363 
 6900      696400
 6901              	.LASF110:
 6902 028d 61745F77 		.ascii	"at_write_command\000"
 6902      72697465 
 6902      5F636F6D 
 6902      6D616E64 
 6902      00
 6903              	.LASF164:
 6904 029e 61745F63 		.ascii	"at_command\000"
 6904      6F6D6D61 
 6904      6E6400
 6905              	.LASF79:
 6906 02a9 6D6F6465 		.ascii	"modem_scheduler_request_time\000"
 6906      6D5F7363 
 6906      68656475 
 6906      6C65725F 
 6906      72657175 
 6907              	.LASF136:
ARM GAS  C:\Users\bk\AppData\Local\Temp\ccq38zU3.s 			page 148


 6908 02c6 68747470 		.ascii	"http_status\000"
 6908      5F737461 
 6908      74757300 
 6909              	.LASF40:
 6910 02d2 53544154 		.ascii	"STATE_AT_CMD_SENT\000"
 6910      455F4154 
 6910      5F434D44 
 6910      5F53454E 
 6910      5400
 6911              	.LASF125:
 6912 02e4 6D6F6465 		.ascii	"modem_set_flow_control\000"
 6912      6D5F7365 
 6912      745F666C 
 6912      6F775F63 
 6912      6F6E7472 
 6913              	.LASF75:
 6914 02fb 636F6D70 		.ascii	"compare_location\000"
 6914      6172655F 
 6914      6C6F6361 
 6914      74696F6E 
 6914      00
 6915              	.LASF62:
 6916 030c 6D6F6465 		.ascii	"modem_event\000"
 6916      6D5F6576 
 6916      656E7400 
 6917              	.LASF16:
 6918 0318 75696E74 		.ascii	"uint32_t\000"
 6918      33325F74 
 6918      00
 6919              	.LASF133:
 6920 0321 6E657477 		.ascii	"network_status\000"
 6920      6F726B5F 
 6920      73746174 
 6920      757300
 6921              	.LASF71:
 6922 0330 6D6F6465 		.ascii	"modem_scheduler_adjust_system_time\000"
 6922      6D5F7363 
 6922      68656475 
 6922      6C65725F 
 6922      61646A75 
 6923              	.LASF19:
 6924 0353 666C6F61 		.ascii	"float\000"
 6924      7400
 6925              	.LASF78:
 6926 0359 6D6F6465 		.ascii	"modem_check_device_index\000"
 6926      6D5F6368 
 6926      65636B5F 
 6926      64657669 
 6926      63655F69 
 6927              	.LASF53:
 6928 0372 41435449 		.ascii	"ACTION_INQUIRE_INDEX\000"
 6928      4F4E5F49 
 6928      4E515549 
 6928      52455F49 
 6928      4E444558 
 6929              	.LASF149:
 6930 0387 6D6F6465 		.ascii	"modem_stop\000"
ARM GAS  C:\Users\bk\AppData\Local\Temp\ccq38zU3.s 			page 149


 6930      6D5F7374 
 6930      6F7000
 6931              	.LASF11:
 6932 0392 6C6F6E67 		.ascii	"long long unsigned int\000"
 6932      206C6F6E 
 6932      6720756E 
 6932      7369676E 
 6932      65642069 
 6933              	.LASF49:
 6934 03a9 41435449 		.ascii	"ACTION_ACTIVATE_PDP\000"
 6934      4F4E5F41 
 6934      43544956 
 6934      4154455F 
 6934      50445000 
 6935              	.LASF124:
 6936 03bd 6D6F6465 		.ascii	"modem_define_PDP\000"
 6936      6D5F6465 
 6936      66696E65 
 6936      5F504450 
 6936      00
 6937              	.LASF76:
 6938 03ce 6D6F6465 		.ascii	"modem_scheduler_request_meid\000"
 6938      6D5F7363 
 6938      68656475 
 6938      6C65725F 
 6938      72657175 
 6939              	.LASF100:
 6940 03eb 6D6F6465 		.ascii	"modem_check_action\000"
 6940      6D5F6368 
 6940      65636B5F 
 6940      61637469 
 6940      6F6E00
 6941              	.LASF4:
 6942 03fe 5F5F7569 		.ascii	"__uint16_t\000"
 6942      6E743136 
 6942      5F7400
 6943              	.LASF119:
 6944 0409 6D6F6465 		.ascii	"modem_report_product_identification\000"
 6944      6D5F7265 
 6944      706F7274 
 6944      5F70726F 
 6944      64756374 
 6945              	.LASF141:
 6946 042d 726F7574 		.ascii	"route\000"
 6946      6500
 6947              	.LASF174:
 6948 0433 64617461 		.ascii	"database\000"
 6948      62617365 
 6948      00
 6949              	.LASF95:
 6950 043c 6D6F6465 		.ascii	"modem_scheduler_parse_http_response\000"
 6950      6D5F7363 
 6950      68656475 
 6950      6C65725F 
 6950      70617273 
 6951              	.LASF158:
 6952 0460 74696D65 		.ascii	"time\000"
ARM GAS  C:\Users\bk\AppData\Local\Temp\ccq38zU3.s 			page 150


 6952      00
 6953              	.LASF65:
 6954 0465 6563686F 		.ascii	"echo_counter\000"
 6954      5F636F75 
 6954      6E746572 
 6954      00
 6955              	.LASF41:
 6956 0472 53544154 		.ascii	"STATE_ECHO_CORRECT\000"
 6956      455F4543 
 6956      484F5F43 
 6956      4F525245 
 6956      435400
 6957              	.LASF86:
 6958 0485 70617273 		.ascii	"parse_socket_status\000"
 6958      655F736F 
 6958      636B6574 
 6958      5F737461 
 6958      74757300 
 6959              	.LASF127:
 6960 0499 6D6F6465 		.ascii	"modem_set_error_reports\000"
 6960      6D5F7365 
 6960      745F6572 
 6960      726F725F 
 6960      7265706F 
 6961              	.LASF33:
 6962 04b1 4556454E 		.ascii	"EVENT_PARSE_SOCKET_STATUS\000"
 6962      545F5041 
 6962      5253455F 
 6962      534F434B 
 6962      45545F53 
 6963              	.LASF150:
 6964 04cb 6D6F6465 		.ascii	"modem_power_on\000"
 6964      6D5F706F 
 6964      7765725F 
 6964      6F6E00
 6965              	.LASF134:
 6966 04da 636F756E 		.ascii	"counter\000"
 6966      74657200 
 6967              	.LASF167:
 6968 04e2 70617373 		.ascii	"pass\000"
 6968      00
 6969              	.LASF46:
 6970 04e7 41435449 		.ascii	"ACTION_PARSE_TIME\000"
 6970      4F4E5F50 
 6970      41525345 
 6970      5F54494D 
 6970      4500
 6971              	.LASF145:
 6972 04f9 65787472 		.ascii	"extra_headers\000"
 6972      615F6865 
 6972      61646572 
 6972      7300
 6973              	.LASF113:
 6974 0507 70627566 		.ascii	"pbuf\000"
 6974      00
 6975              	.LASF160:
 6976 050c 6E5F6373 		.ascii	"n_csq\000"
ARM GAS  C:\Users\bk\AppData\Local\Temp\ccq38zU3.s 			page 151


 6976      7100
 6977              	.LASF182:
 6978 0512 74656C69 		.ascii	"telit.c\000"
 6978      742E6300 
 6979              	.LASF172:
 6980 051a 6D61696E 		.ascii	"main_host\000"
 6980      5F686F73 
 6980      7400
 6981              	.LASF128:
 6982 0524 6D6F6465 		.ascii	"modem_setup\000"
 6982      6D5F7365 
 6982      74757000 
 6983              	.LASF30:
 6984 0530 4556454E 		.ascii	"EVENT_PARSE_TIME\000"
 6984      545F5041 
 6984      5253455F 
 6984      54494D45 
 6984      00
 6985              	.LASF51:
 6986 0541 41435449 		.ascii	"ACTION_REQUEST_SOCKET_STATUS\000"
 6986      4F4E5F52 
 6986      45515545 
 6986      53545F53 
 6986      4F434B45 
 6987              	.LASF142:
 6988 055e 706F7274 		.ascii	"port\000"
 6988      00
 6989              	.LASF179:
 6990 0563 6D6F6465 		.ascii	"modem\000"
 6990      6D00
 6991              	.LASF70:
 6992 0569 4556454E 		.ascii	"EVENT_NODE_T\000"
 6992      545F4E4F 
 6992      44455F54 
 6992      00
 6993              	.LASF21:
 6994 0576 63686172 		.ascii	"char\000"
 6994      00
 6995              	.LASF89:
 6996 057b 73656E64 		.ascii	"send_str\000"
 6996      5F737472 
 6996      00
 6997              	.LASF152:
 6998 0584 6D6F6465 		.ascii	"modem_set_interface_style\000"
 6998      6D5F7365 
 6998      745F696E 
 6998      74657266 
 6998      6163655F 
 6999              	.LASF117:
 7000 059e 6D6F6465 		.ascii	"modem_report_software_version\000"
 7000      6D5F7265 
 7000      706F7274 
 7000      5F736F66 
 7000      74776172 
 7001              	.LASF57:
 7002 05bc 41435449 		.ascii	"ACTION_SEND_STRING\000"
 7002      4F4E5F53 
ARM GAS  C:\Users\bk\AppData\Local\Temp\ccq38zU3.s 			page 152


 7002      454E445F 
 7002      53545249 
 7002      4E4700
 7003              	.LASF159:
 7004 05cf 7465726D 		.ascii	"terminator\000"
 7004      696E6174 
 7004      6F7200
 7005              	.LASF111:
 7006 05da 75726C5F 		.ascii	"url_encode\000"
 7006      656E636F 
 7006      646500
 7007              	.LASF13:
 7008 05e5 75696E74 		.ascii	"uint8_t\000"
 7008      385F7400 
 7009              	.LASF131:
 7010 05ed 73746174 		.ascii	"status\000"
 7010      757300
 7011              	.LASF27:
 7012 05f4 4556454E 		.ascii	"EVENT_ACTIVATE_PDP\000"
 7012      545F4143 
 7012      54495641 
 7012      54455F50 
 7012      445000
 7013              	.LASF50:
 7014 0607 41435449 		.ascii	"ACTION_SOCKET_DIAL\000"
 7014      4F4E5F53 
 7014      4F434B45 
 7014      545F4449 
 7014      414C00
 7015              	.LASF68:
 7016 061a 636F6E6E 		.ascii	"connection\000"
 7016      65637469 
 7016      6F6E00
 7017              	.LASF10:
 7018 0625 6C6F6E67 		.ascii	"long long int\000"
 7018      206C6F6E 
 7018      6720696E 
 7018      7400
 7019              	.LASF72:
 7020 0633 75617274 		.ascii	"uart_string_reset\000"
 7020      5F737472 
 7020      696E675F 
 7020      72657365 
 7020      7400
 7021              	.LASF115:
 7022 0645 6D656964 		.ascii	"meid\000"
 7022      00
 7023              	.LASF98:
 7024 064a 70737461 		.ascii	"pstart\000"
 7024      727400
 7025              	.LASF60:
 7026 0651 41435449 		.ascii	"ACTION_CLOSE_SOCKET\000"
 7026      4F4E5F43 
 7026      4C4F5345 
 7026      5F534F43 
 7026      4B455400 
 7027              	.LASF112:
ARM GAS  C:\Users\bk\AppData\Local\Temp\ccq38zU3.s 			page 153


 7028 0665 70737472 		.ascii	"pstr\000"
 7028      00
 7029              	.LASF154:
 7030 066a 6D6F6465 		.ascii	"modem_report_IMSI\000"
 7030      6D5F7265 
 7030      706F7274 
 7030      5F494D53 
 7030      4900
 7031              	.LASF126:
 7032 067c 70617261 		.ascii	"param\000"
 7032      6D00
 7033              	.LASF155:
 7034 0682 6D6F6465 		.ascii	"modem_startup\000"
 7034      6D5F7374 
 7034      61727475 
 7034      7000
 7035              	.LASF43:
 7036 0690 53544154 		.ascii	"STATE_ECHO_TIMEOUT\000"
 7036      455F4543 
 7036      484F5F54 
 7036      494D454F 
 7036      555400
 7037              	.LASF97:
 7038 06a3 70656E64 		.ascii	"pend\000"
 7038      00
 7039              	.LASF18:
 7040 06a8 75696E74 		.ascii	"uint32\000"
 7040      333200
 7041              	.LASF183:
 7042 06af 433A5C55 		.ascii	"C:\\Users\\bk\\Documents\\GitHub\\Open Storm\\notor"
 7042      73657273 
 7042      5C626B5C 
 7042      446F6375 
 7042      6D656E74 
 7043 06dc 694F535C 		.ascii	"iOS\\notoriOS\\notoriOS.cydsn\000"
 7043      6E6F746F 
 7043      72694F53 
 7043      5C6E6F74 
 7043      6F72694F 
 7044              	.LASF38:
 7045 06f8 4556454E 		.ascii	"EVENT_CLOSE_SOCKET\000"
 7045      545F434C 
 7045      4F53455F 
 7045      534F434B 
 7045      455400
 7046              	.LASF121:
 7047 070b 72737369 		.ascii	"rssi\000"
 7047      00
 7048              	.LASF103:
 7049 0710 636F6D6D 		.ascii	"commands\000"
 7049      616E6473 
 7049      00
 7050              	.LASF178:
 7051 0719 4D454944 		.ascii	"MEID\000"
 7051      00
 7052              	.LASF77:
 7053 071e 6D6F6465 		.ascii	"modem_scheduler_init_index\000"
ARM GAS  C:\Users\bk\AppData\Local\Temp\ccq38zU3.s 			page 154


 7053      6D5F7363 
 7053      68656475 
 7053      6C65725F 
 7053      696E6974 
 7054              	.LASF22:
 7055 0739 6C6F6E67 		.ascii	"long double\000"
 7055      20646F75 
 7055      626C6500 
 7056              	.LASF14:
 7057 0745 75696E74 		.ascii	"uint16_t\000"
 7057      31365F74 
 7057      00
 7058              	.LASF64:
 7059 074e 6D6F6465 		.ascii	"modem_action\000"
 7059      6D5F6163 
 7059      74696F6E 
 7059      00
 7060              	.LASF102:
 7061 075b 6D6F6465 		.ascii	"modem_check_state\000"
 7061      6D5F6368 
 7061      65636B5F 
 7061      73746174 
 7061      6500
 7062              	.LASF146:
 7063 076d 65787472 		.ascii	"extra_len\000"
 7063      615F6C65 
 7063      6E00
 7064              	.LASF2:
 7065 0777 73686F72 		.ascii	"short int\000"
 7065      7420696E 
 7065      7400
 7066              	.LASF140:
 7067 0781 686F7374 		.ascii	"host\000"
 7067      00
 7068              	.LASF90:
 7069 0786 6D61696E 		.ascii	"main_query\000"
 7069      5F717565 
 7069      727900
 7070              	.LASF7:
 7071 0791 6C6F6E67 		.ascii	"long int\000"
 7071      20696E74 
 7071      00
 7072              	.LASF170:
 7073 079a 49544D5F 		.ascii	"ITM_RxBuffer\000"
 7073      52784275 
 7073      66666572 
 7073      00
 7074              	.LASF106:
 7075 07a7 64656C61 		.ascii	"delay\000"
 7075      7900
 7076              	.LASF73:
 7077 07ad 61646A75 		.ascii	"adjust_time\000"
 7077      73745F74 
 7077      696D6500 
 7078              	.LASF87:
 7079 07b9 6D6F6465 		.ascii	"modem_scheduler_init_send\000"
 7079      6D5F7363 
ARM GAS  C:\Users\bk\AppData\Local\Temp\ccq38zU3.s 			page 155


 7079      68656475 
 7079      6C65725F 
 7079      696E6974 
 7080              	.LASF156:
 7081 07d3 72656164 		.ascii	"ready\000"
 7081      7900
 7082              	.LASF132:
 7083 07d9 6D6F6465 		.ascii	"modem_connect\000"
 7083      6D5F636F 
 7083      6E6E6563 
 7083      7400
 7084              	.LASF81:
 7085 07e7 6D6F6465 		.ascii	"modem_scheduler_check_PDP\000"
 7085      6D5F7363 
 7085      68656475 
 7085      6C65725F 
 7085      63686563 
 7086              	.LASF93:
 7087 0801 77726974 		.ascii	"write_route\000"
 7087      655F726F 
 7087      75746500 
 7088              	.LASF3:
 7089 080d 5F5F7569 		.ascii	"__uint8_t\000"
 7089      6E74385F 
 7089      7400
 7090              	.LASF99:
 7091 0817 6D6F6465 		.ascii	"modem_scheduler_close_socket\000"
 7091      6D5F7363 
 7091      68656475 
 7091      6C65725F 
 7091      636C6F73 
 7092              	.LASF161:
 7093 0834 73747265 		.ascii	"strength\000"
 7093      6E677468 
 7093      00
 7094              	.LASF116:
 7095 083d 6973725F 		.ascii	"isr_telit_rx\000"
 7095      74656C69 
 7095      745F7278 
 7095      00
 7096              	.LASF109:
 7097 084a 77726974 		.ascii	"write_modem_echo\000"
 7097      655F6D6F 
 7097      64656D5F 
 7097      6563686F 
 7097      00
 7098              	.LASF135:
 7099 085b 70617273 		.ascii	"parse_http_status\000"
 7099      655F6874 
 7099      74705F73 
 7099      74617475 
 7099      7300
 7100              	.LASF162:
 7101 086d 6D6F6465 		.ascii	"modem_post_to_influxdb\000"
 7101      6D5F706F 
 7101      73745F74 
 7101      6F5F696E 
ARM GAS  C:\Users\bk\AppData\Local\Temp\ccq38zU3.s 			page 156


 7101      666C7578 
 7102              	.LASF23:
 7103 0884 73697A65 		.ascii	"sizetype\000"
 7103      74797065 
 7103      00
 7104              	.LASF9:
 7105 088d 6C6F6E67 		.ascii	"long unsigned int\000"
 7105      20756E73 
 7105      69676E65 
 7105      6420696E 
 7105      7400
 7106              	.LASF80:
 7107 089f 6D6F6465 		.ascii	"modem_scheduler_check_network\000"
 7107      6D5F7363 
 7107      68656475 
 7107      6C65725F 
 7107      63686563 
 7108              	.LASF129:
 7109 08bd 6D6F6465 		.ascii	"modem_check_network\000"
 7109      6D5F6368 
 7109      65636B5F 
 7109      6E657477 
 7109      6F726B00 
 7110              	.LASF15:
 7111 08d1 696E7433 		.ascii	"int32_t\000"
 7111      325F7400 
 7112              	.LASF83:
 7113 08d9 6D6F6465 		.ascii	"modem_scheduler_socket_dial\000"
 7113      6D5F7363 
 7113      68656475 
 7113      6C65725F 
 7113      736F636B 
 7114              	.LASF122:
 7115 08f5 72737369 		.ascii	"rssi_str\000"
 7115      5F737472 
 7115      00
 7116              	.LASF180:
 7117 08fe 4556454E 		.ascii	"EVENT_NODE_LIST\000"
 7117      545F4E4F 
 7117      44455F4C 
 7117      49535400 
 7118              	.LASF61:
 7119 090e 4D4F4445 		.ascii	"MODEM_ACTION_T\000"
 7119      4D5F4143 
 7119      54494F4E 
 7119      5F5400
 7120              	.LASF45:
 7121 091d 41435449 		.ascii	"ACTION_REQUEST_TIME\000"
 7121      4F4E5F52 
 7121      45515545 
 7121      53545F54 
 7121      494D4500 
 7122              	.LASF92:
 7123 0931 626F6479 		.ascii	"body\000"
 7123      00
 7124              	.LASF91:
 7125 0936 71756572 		.ascii	"query_encoded\000"
ARM GAS  C:\Users\bk\AppData\Local\Temp\ccq38zU3.s 			page 157


 7125      795F656E 
 7125      636F6465 
 7125      6400
 7126              	.LASF31:
 7127 0944 4556454E 		.ascii	"EVENT_OPEN_SOCKET\000"
 7127      545F4F50 
 7127      454E5F53 
 7127      4F434B45 
 7127      5400
 7128              	.LASF101:
 7129 0956 6D6F6465 		.ascii	"modem_select_action\000"
 7129      6D5F7365 
 7129      6C656374 
 7129      5F616374 
 7129      696F6E00 
 7130              	.LASF1:
 7131 096a 756E7369 		.ascii	"unsigned char\000"
 7131      676E6564 
 7131      20636861 
 7131      7200
 7132              	.LASF148:
 7133 0978 6D6F6465 		.ascii	"modem_start\000"
 7133      6D5F7374 
 7133      61727400 
 7134              	.LASF8:
 7135 0984 5F5F7569 		.ascii	"__uint32_t\000"
 7135      6E743332 
 7135      5F7400
 7136              	.LASF25:
 7137 098f 4556454E 		.ascii	"EVENT_CHECK_NETWORK\000"
 7137      545F4348 
 7137      45434B5F 
 7137      4E455457 
 7137      4F524B00 
 7138              	.LASF35:
 7139 09a3 4556454E 		.ascii	"EVENT_SEND_MESSAGE\000"
 7139      545F5345 
 7139      4E445F4D 
 7139      45535341 
 7139      474500
 7140              	.LASF108:
 7141 09b6 6D6F6465 		.ascii	"modem_send_at_command\000"
 7141      6D5F7365 
 7141      6E645F61 
 7141      745F636F 
 7141      6D6D616E 
 7142              	.LASF104:
 7143 09cc 74696D65 		.ascii	"timeout\000"
 7143      6F757400 
 7144              	.LASF147:
 7145 09d4 68747470 		.ascii	"http_protocol\000"
 7145      5F70726F 
 7145      746F636F 
 7145      6C00
 7146              	.LASF105:
 7147 09e2 61745F61 		.ascii	"at_attempt\000"
 7147      7474656D 
ARM GAS  C:\Users\bk\AppData\Local\Temp\ccq38zU3.s 			page 158


 7147      707400
 7148              	.LASF85:
 7149 09ed 6D6F6465 		.ascii	"modem_scheduler_socket_status\000"
 7149      6D5F7363 
 7149      68656475 
 7149      6C65725F 
 7149      736F636B 
 7150              	.LASF143:
 7151 0a0b 6D657468 		.ascii	"method\000"
 7151      6F6400
 7152              	.LASF39:
 7153 0a12 4D4F4445 		.ascii	"MODEM_EVENTS_T\000"
 7153      4D5F4556 
 7153      454E5453 
 7153      5F5400
 7154              	.LASF120:
 7155 0a21 6D6F6465 		.ascii	"modem_check_signal_quality\000"
 7155      6D5F6368 
 7155      65636B5F 
 7155      7369676E 
 7155      616C5F71 
 7156              	.LASF175:
 7157 0a3c 75617274 		.ascii	"uart_received_string\000"
 7157      5F726563 
 7157      65697665 
 7157      645F7374 
 7157      72696E67 
 7158              	.LASF36:
 7159 0a51 4556454E 		.ascii	"EVENT_RECEIVE_MESSAGE\000"
 7159      545F5245 
 7159      43454956 
 7159      455F4D45 
 7159      53534147 
 7160              	.LASF171:
 7161 0a67 64656275 		.ascii	"debug_string\000"
 7161      675F7374 
 7161      72696E67 
 7161      00
 7162              	.LASF157:
 7163 0a74 69746572 		.ascii	"iter\000"
 7163      00
 7164              	.LASF56:
 7165 0a79 41435449 		.ascii	"ACTION_INIT_SEND\000"
 7165      4F4E5F49 
 7165      4E49545F 
 7165      53454E44 
 7165      00
 7166              	.LASF96:
 7167 0a8a 73746174 		.ascii	"status_code\000"
 7167      75735F63 
 7167      6F646500 
 7168              	.LASF0:
 7169 0a96 7369676E 		.ascii	"signed char\000"
 7169      65642063 
 7169      68617200 
 7170              	.LASF176:
 7171 0aa2 75617274 		.ascii	"uart_string_index\000"
ARM GAS  C:\Users\bk\AppData\Local\Temp\ccq38zU3.s 			page 159


 7171      5F737472 
 7171      696E675F 
 7171      696E6465 
 7171      7800
 7172              	.LASF153:
 7173 0ab4 6D6F6465 		.ascii	"modem_set_LED\000"
 7173      6D5F7365 
 7173      745F4C45 
 7173      4400
 7174              	.LASF5:
 7175 0ac2 73686F72 		.ascii	"short unsigned int\000"
 7175      7420756E 
 7175      7369676E 
 7175      65642069 
 7175      6E7400
 7176              	.LASF177:
 7177 0ad5 64657669 		.ascii	"device_index\000"
 7177      63655F69 
 7177      6E646578 
 7177      00
 7178              	.LASF123:
 7179 0ae2 6665725F 		.ascii	"fer_str\000"
 7179      73747200 
 7180              	.LASF54:
 7181 0aea 41435449 		.ascii	"ACTION_REQUEST_MEID\000"
 7181      4F4E5F52 
 7181      45515545 
 7181      53545F4D 
 7181      45494400 
 7182              	.LASF32:
 7183 0afe 4556454E 		.ascii	"EVENT_REQUEST_SOCKET_STATUS\000"
 7183      545F5245 
 7183      51554553 
 7183      545F534F 
 7183      434B4554 
 7184              	.LASF151:
 7185 0b1a 6D6F6465 		.ascii	"modem_power_off\000"
 7185      6D5F706F 
 7185      7765725F 
 7185      6F666600 
 7186              	.LASF74:
 7187 0b2a 6D6F6465 		.ascii	"modem_compare_echo\000"
 7187      6D5F636F 
 7187      6D706172 
 7187      655F6563 
 7187      686F00
 7188              	.LASF169:
 7189 0b3d 63636964 		.ascii	"ccid\000"
 7189      00
 7190              	.LASF17:
 7191 0b42 75696E74 		.ascii	"uint8\000"
 7191      3800
 7192              	.LASF20:
 7193 0b48 646F7562 		.ascii	"double\000"
 7193      6C6500
 7194              	.LASF63:
 7195 0b4f 6D6F6465 		.ascii	"modem_state\000"
ARM GAS  C:\Users\bk\AppData\Local\Temp\ccq38zU3.s 			page 160


 7195      6D5F7374 
 7195      61746500 
 7196              	.LASF139:
 7197 0b5b 636F6E73 		.ascii	"construct_generic_request\000"
 7197      74727563 
 7197      745F6765 
 7197      6E657269 
 7197      635F7265 
 7198              	.LASF138:
 7199 0b75 70687261 		.ascii	"phrase\000"
 7199      736500
 7200              	.LASF69:
 7201 0b7c 4D4F4445 		.ascii	"MODEM_DESCRIPTOR_T\000"
 7201      4D5F4445 
 7201      53435249 
 7201      50544F52 
 7201      5F5400
 7202              	.LASF166:
 7203 0b8f 75736572 		.ascii	"user\000"
 7203      00
 7204              	.LASF130:
 7205 0b94 6D6F6465 		.ascii	"modem_activate_pdp_context\000"
 7205      6D5F6163 
 7205      74697661 
 7205      74655F70 
 7205      64705F63 
 7206              	.LASF34:
 7207 0baf 4556454E 		.ascii	"EVENT_INIT_SEND\000"
 7207      545F494E 
 7207      49545F53 
 7207      454E4400 
 7208              	.LASF55:
 7209 0bbf 41435449 		.ascii	"ACTION_CHECK_DEVICE_INDEX\000"
 7209      4F4E5F43 
 7209      4845434B 
 7209      5F444556 
 7209      4943455F 
 7210              	.LASF42:
 7211 0bd9 53544154 		.ascii	"STATE_ECHO_NOT_FOUND\000"
 7211      455F4543 
 7211      484F5F4E 
 7211      4F545F46 
 7211      4F554E44 
 7212              		.ident	"GCC: (GNU Tools for ARM Embedded Processors) 5.4.1 20160609 (release) [ARM/embedded-5-bran
