ARM GAS  C:\Users\bk\AppData\Local\Temp\ccJDYvlx.s 			page 1


   1              		.syntax unified
   2              		.cpu cortex-m3
   3              		.fpu softvfp
   4              		.eabi_attribute 20, 1
   5              		.eabi_attribute 21, 1
   6              		.eabi_attribute 23, 3
   7              		.eabi_attribute 24, 1
   8              		.eabi_attribute 25, 1
   9              		.eabi_attribute 26, 1
  10              		.eabi_attribute 30, 6
  11              		.eabi_attribute 34, 1
  12              		.eabi_attribute 18, 4
  13              		.thumb
  14              		.syntax unified
  15              		.file	"telit.c"
  16              		.text
  17              	.Ltext0:
  18              		.cfi_sections	.debug_frame
  19              		.comm	debug_string,100,4
  20              		.syntax unified
  21              		.global _printf_float
  22              		.thumb
  23              		.syntax unified
  24              		.global	main_host
  25              		.data
  26              		.align	2
  27              		.type	main_host, %object
  28              		.size	main_host, 15
  29              	main_host:
  30 0000 35322E32 		.ascii	"52.205.129.200\000"
  30      30352E31 
  30      32392E32 
  30      303000
  31              		.global	main_port
  32 000f 00       		.align	1
  33              		.type	main_port, %object
  34              		.size	main_port, 2
  35              	main_port:
  36 0010 961F     		.short	8086
  37              		.global	database
  38 0012 0000     		.align	2
  39              		.type	database, %object
  40              		.size	database, 4
  41              	database:
  42 0014 4D504D00 		.ascii	"MPM\000"
  43              		.comm	uart_received_string,1024,4
  44              		.global	uart_string_index
  45              		.bss
  46              		.type	uart_string_index, %object
  47              		.size	uart_string_index, 1
  48              	uart_string_index:
  49 0000 00       		.space	1
  50              		.global	device_index
  51 0001 000000   		.align	2
  52              		.type	device_index, %object
  53              		.size	device_index, 3
  54              	device_index:
ARM GAS  C:\Users\bk\AppData\Local\Temp\ccJDYvlx.s 			page 2


  55 0004 000000   		.space	3
  56              		.global	MEID
  57 0007 00       		.align	2
  58              		.type	MEID, %object
  59              		.size	MEID, 16
  60              	MEID:
  61 0008 00000000 		.space	16
  61      00000000 
  61      00000000 
  61      00000000 
  62              		.global	modem
  63              		.data
  64              		.align	2
  65              		.type	modem, %object
  66              		.size	modem, 14
  67              	modem:
  68 0018 00       		.byte	0
  69 0019 01       		.byte	1
  70 001a 02       		.byte	2
  71 001b 00       		.byte	0
  72 001c 00       		.byte	0
  73 001d 00       		.ascii	"\000"
  74 001e 00000000 		.space	7
  74      000000
  75 0025 00       		.byte	0
  76              		.global	EVENT_NODE_LIST
  77 0026 0000     		.align	2
  78              		.type	EVENT_NODE_LIST, %object
  79              		.size	EVENT_NODE_LIST, 81
  80              	EVENT_NODE_LIST:
  81 0028 00       		.byte	0
  82 0029 01       		.byte	1
  83 002a 02       		.byte	2
  84 002b 01       		.byte	1
  85 002c 01       		.byte	1
  86 002d 00       		.byte	0
  87 002e 01       		.byte	1
  88 002f 03       		.byte	3
  89 0030 02       		.byte	2
  90 0031 05       		.byte	5
  91 0032 01       		.byte	1
  92 0033 01       		.byte	1
  93 0034 05       		.byte	5
  94 0035 03       		.byte	3
  95 0036 00       		.byte	0
  96 0037 06       		.byte	6
  97 0038 01       		.byte	1
  98 0039 03       		.byte	3
  99 003a 02       		.byte	2
 100 003b 01       		.byte	1
 101 003c 0A       		.byte	10
 102 003d 02       		.byte	2
 103 003e 03       		.byte	3
 104 003f 04       		.byte	4
 105 0040 03       		.byte	3
 106 0041 01       		.byte	1
 107 0042 0A       		.byte	10
ARM GAS  C:\Users\bk\AppData\Local\Temp\ccJDYvlx.s 			page 3


 108 0043 03       		.byte	3
 109 0044 03       		.byte	3
 110 0045 02       		.byte	2
 111 0046 04       		.byte	4
 112 0047 01       		.byte	1
 113 0048 08       		.byte	8
 114 0049 04       		.byte	4
 115 004a 03       		.byte	3
 116 004b 09       		.byte	9
 117 004c 07       		.byte	7
 118 004d 01       		.byte	1
 119 004e 0B       		.byte	11
 120 004f 07       		.byte	7
 121 0050 03       		.byte	3
 122 0051 06       		.byte	6
 123 0052 08       		.byte	8
 124 0053 01       		.byte	1
 125 0054 07       		.byte	7
 126 0055 08       		.byte	8
 127 0056 03       		.byte	3
 128 0057 02       		.byte	2
 129 0058 09       		.byte	9
 130 0059 01       		.byte	1
 131 005a 0B       		.byte	11
 132 005b 09       		.byte	9
 133 005c 03       		.byte	3
 134 005d 05       		.byte	5
 135 005e 0A       		.byte	10
 136 005f 01       		.byte	1
 137 0060 0C       		.byte	12
 138 0061 0A       		.byte	10
 139 0062 03       		.byte	3
 140 0063 02       		.byte	2
 141 0064 0B       		.byte	11
 142 0065 01       		.byte	1
 143 0066 0D       		.byte	13
 144 0067 0B       		.byte	11
 145 0068 03       		.byte	3
 146 0069 0D       		.byte	13
 147 006a 0C       		.byte	12
 148 006b 01       		.byte	1
 149 006c 0E       		.byte	14
 150 006d 0C       		.byte	12
 151 006e 03       		.byte	3
 152 006f 0E       		.byte	14
 153 0070 0D       		.byte	13
 154 0071 01       		.byte	1
 155 0072 0F       		.byte	15
 156 0073 0E       		.byte	14
 157 0074 01       		.byte	1
 158 0075 00       		.byte	0
 159 0076 0E       		.byte	14
 160 0077 03       		.byte	3
 161 0078 0F       		.byte	15
 162              		.section	.text.isr_telit_rx,"ax",%progbits
 163              		.align	2
 164              		.global	isr_telit_rx
ARM GAS  C:\Users\bk\AppData\Local\Temp\ccJDYvlx.s 			page 4


 165              		.thumb
 166              		.thumb_func
 167              		.type	isr_telit_rx, %function
 168              	isr_telit_rx:
 169              	.LFB64:
 170              		.file 1 "telit.c"
   1:telit.c       **** /* ========================================
   2:telit.c       **** 
   3:telit.c       ****  * ========================================
   4:telit.c       **** */
   5:telit.c       **** 
   6:telit.c       **** #include <telit.h>
   7:telit.c       **** #include <stdlib.h>
   8:telit.c       **** #include <stdio.h>
   9:telit.c       **** #include <string.h>
  10:telit.c       **** #include "debug.h"
  11:telit.c       **** 
  12:telit.c       **** char main_host[]="52.205.129.200";
  13:telit.c       **** uint16_t main_port=8086;
  14:telit.c       **** char database[]="MPM";
  15:telit.c       **** char uart_received_string[1024];
  16:telit.c       **** uint8_t uart_string_index=0;
  17:telit.c       **** char device_index[3]={"\0"};
  18:telit.c       **** char MEID[16]={"\0"};
  19:telit.c       **** MODEM_DESCRIPTOR_T modem={EVENT_CHECK_UART,STATE_ECHO_CORRECT,ACTION_CHECK_NETWORK,0,0,"",0};
  20:telit.c       **** 
  21:telit.c       **** /* This matrix describes what action to execute when the modem returns the
  22:telit.c       ****  * the right response STATE_ECHO_CORRECT, or when the modem never returns the
  23:telit.c       ****  * the right response STATE_ECHO_TIMEOUT, given the current EVENT.
  24:telit.c       ****  * When the modem is at STATE_CMD_SENT or STATE_ECHO_WRONG, it will wait till
  25:telit.c       ****  * the correct response is received or timeout.*/
  26:telit.c       **** EVENT_NODE_T EVENT_NODE_LIST[]={
  27:telit.c       ****        
  28:telit.c       ****     {EVENT_CHECK_UART,STATE_ECHO_CORRECT,ACTION_CHECK_NETWORK},     
  29:telit.c       ****             
  30:telit.c       ****     {EVENT_CHECK_NETWORK,STATE_ECHO_CORRECT,ACTION_REQUEST_TIME},
  31:telit.c       ****     {EVENT_CHECK_NETWORK,STATE_ECHO_TIMEOUT,ACTION_CHECK_NETWORK},     
  32:telit.c       ****     
  33:telit.c       ****     {EVENT_REQUEST_TIME,STATE_ECHO_CORRECT,ACTION_PARSE_TIME},
  34:telit.c       ****     //{EVENT_REQUEST_TIME,STATE_ECHO_TIMEOUT,ACTION_CHECK_NETWORK},
  35:telit.c       ****     {EVENT_REQUEST_TIME,STATE_ECHO_TIMEOUT,ACTION_REQUEST_TIME}, // BPW
  36:telit.c       ****     
  37:telit.c       ****     /* this process doesn't have reponse, so echo is set to CORRECT*/
  38:telit.c       ****     {EVENT_PARSE_TIME,STATE_ECHO_CORRECT,ACTION_CHECK_PDP},   
  39:telit.c       ****     
  40:telit.c       ****     {EVENT_CHECK_PDP,STATE_ECHO_CORRECT,ACTION_CHECK_DEVICE_INDEX},
  41:telit.c       ****     {EVENT_CHECK_PDP,STATE_ECHO_TIMEOUT,ACTION_ACTIVATE_PDP},
  42:telit.c       ****     
  43:telit.c       ****     {EVENT_ACTIVATE_PDP,STATE_ECHO_CORRECT,ACTION_CHECK_DEVICE_INDEX},
  44:telit.c       ****     {EVENT_ACTIVATE_PDP,STATE_ECHO_TIMEOUT,ACTION_CHECK_NETWORK},         
  45:telit.c       ****     
  46:telit.c       ****     {EVENT_REQUEST_MEID,STATE_ECHO_CORRECT,ACTION_INQUIRE_INDEX},
  47:telit.c       ****     {EVENT_REQUEST_MEID,STATE_ECHO_TIMEOUT,ACTION_REQUEST_MEID},    
  48:telit.c       ****     
  49:telit.c       ****     {EVENT_OPEN_SOCKET,STATE_ECHO_CORRECT,ACTION_INIT_SEND},
  50:telit.c       ****     {EVENT_OPEN_SOCKET,STATE_ECHO_TIMEOUT,ACTION_REQUEST_SOCKET_STATUS},
  51:telit.c       ****     
ARM GAS  C:\Users\bk\AppData\Local\Temp\ccJDYvlx.s 			page 5


  52:telit.c       ****     {EVENT_REQUEST_SOCKET_STATUS,STATE_ECHO_CORRECT,ACTION_PARSE_SOCKET_STATUS},
  53:telit.c       ****     {EVENT_REQUEST_SOCKET_STATUS,STATE_ECHO_TIMEOUT,ACTION_CHECK_NETWORK},
  54:telit.c       ****     
  55:telit.c       ****     {EVENT_PARSE_SOCKET_STATUS,STATE_ECHO_CORRECT,ACTION_INIT_SEND},
  56:telit.c       ****     {EVENT_PARSE_SOCKET_STATUS,STATE_ECHO_TIMEOUT,ACTION_SOCKET_DIAL},
  57:telit.c       ****     
  58:telit.c       ****     {EVENT_INIT_SEND,STATE_ECHO_CORRECT,ACTION_SEND_STRING},
  59:telit.c       ****     {EVENT_INIT_SEND,STATE_ECHO_TIMEOUT,ACTION_CHECK_NETWORK},
  60:telit.c       ****         
  61:telit.c       ****     /* proceed to receive messages from server regardless of send status*/
  62:telit.c       ****     {EVENT_SEND_MESSAGE,STATE_ECHO_CORRECT,ACTION_RECEIVE_MESSAGE},
  63:telit.c       ****     {EVENT_SEND_MESSAGE,STATE_ECHO_TIMEOUT,ACTION_RECEIVE_MESSAGE},
  64:telit.c       ****     
  65:telit.c       ****     /* if no message is received, i.e. TIMEOUT, the empty message will
  66:telit.c       ****      * also be parsed as communication error*/    
  67:telit.c       ****     {EVENT_RECEIVE_MESSAGE,STATE_ECHO_CORRECT,ACTION_PARSE_MESSAGE},
  68:telit.c       ****     {EVENT_RECEIVE_MESSAGE,STATE_ECHO_TIMEOUT,ACTION_PARSE_MESSAGE},
  69:telit.c       ****     
  70:telit.c       ****     /* this process doesn't have reponse, so echo is set to correct*/
  71:telit.c       ****     {EVENT_PARSE_MESSAGE,STATE_ECHO_CORRECT,ACTION_CLOSE_SOCKET},
  72:telit.c       ****     
  73:telit.c       ****     {EVENT_CLOSE_SOCKET,STATE_ECHO_CORRECT,ACTION_REQUEST_TIME},
  74:telit.c       ****     {EVENT_CLOSE_SOCKET,STATE_ECHO_TIMEOUT,ACTION_CLOSE_SOCKET}        
  75:telit.c       ****     
  76:telit.c       **** };
  77:telit.c       **** 
  78:telit.c       **** CY_ISR(isr_telit_rx){      
 171              		.loc 1 78 0
 172              		.cfi_startproc
 173              		@ args = 0, pretend = 0, frame = 0
 174              		@ frame_needed = 1, uses_anonymous_args = 0
 175 0000 98B5     		push	{r3, r4, r7, lr}
 176              		.cfi_def_cfa_offset 16
 177              		.cfi_offset 3, -16
 178              		.cfi_offset 4, -12
 179              		.cfi_offset 7, -8
 180              		.cfi_offset 14, -4
 181 0002 00AF     		add	r7, sp, #0
 182              		.cfi_def_cfa_register 7
  79:telit.c       ****     while(UART_Telit_GetRxBufferSize()==1){
 183              		.loc 1 79 0
 184 0004 0EE0     		b	.L2
 185              	.L3:
  80:telit.c       ****         uart_received_string[uart_string_index]=UART_Telit_GetChar();
 186              		.loc 1 80 0
 187 0006 0B4B     		ldr	r3, .L4
 188 0008 1B78     		ldrb	r3, [r3]	@ zero_extendqisi2
 189 000a 1C46     		mov	r4, r3
 190 000c FFF7FEFF 		bl	UART_Telit_GetChar
 191 0010 0346     		mov	r3, r0
 192 0012 1A46     		mov	r2, r3
 193 0014 084B     		ldr	r3, .L4+4
 194 0016 1A55     		strb	r2, [r3, r4]
  81:telit.c       ****         uart_string_index++;
 195              		.loc 1 81 0
 196 0018 064B     		ldr	r3, .L4
 197 001a 1B78     		ldrb	r3, [r3]	@ zero_extendqisi2
ARM GAS  C:\Users\bk\AppData\Local\Temp\ccJDYvlx.s 			page 6


 198 001c 0133     		adds	r3, r3, #1
 199 001e DAB2     		uxtb	r2, r3
 200 0020 044B     		ldr	r3, .L4
 201 0022 1A70     		strb	r2, [r3]
 202              	.L2:
  79:telit.c       ****     while(UART_Telit_GetRxBufferSize()==1){
 203              		.loc 1 79 0
 204 0024 FFF7FEFF 		bl	UART_Telit_GetRxBufferSize
 205 0028 0346     		mov	r3, r0
 206 002a 012B     		cmp	r3, #1
 207 002c EBD0     		beq	.L3
  82:telit.c       ****     }       
  83:telit.c       **** }
 208              		.loc 1 83 0
 209 002e 00BF     		nop
 210 0030 98BD     		pop	{r3, r4, r7, pc}
 211              	.L5:
 212 0032 00BF     		.align	2
 213              	.L4:
 214 0034 00000000 		.word	uart_string_index
 215 0038 00000000 		.word	uart_received_string
 216              		.cfi_endproc
 217              	.LFE64:
 218              		.size	isr_telit_rx, .-isr_telit_rx
 219              		.section	.rodata
 220              		.align	2
 221              	.LC0:
 222 0000 2343434C 		.ascii	"#CCLK: \000"
 222      4B3A2000 
 223              		.section	.text.adjust_time,"ax",%progbits
 224              		.align	2
 225              		.global	adjust_time
 226              		.thumb
 227              		.thumb_func
 228              		.type	adjust_time, %function
 229              	adjust_time:
 230              	.LFB65:
  84:telit.c       **** 
  85:telit.c       **** void adjust_time(){
 231              		.loc 1 85 0
 232              		.cfi_startproc
 233              		@ args = 0, pretend = 0, frame = 16
 234              		@ frame_needed = 1, uses_anonymous_args = 0
 235 0000 80B5     		push	{r7, lr}
 236              		.cfi_def_cfa_offset 8
 237              		.cfi_offset 7, -8
 238              		.cfi_offset 14, -4
 239 0002 84B0     		sub	sp, sp, #16
 240              		.cfi_def_cfa_offset 24
 241 0004 00AF     		add	r7, sp, #0
 242              		.cfi_def_cfa_register 7
  86:telit.c       ****     char  num[10] = {'\0'};
 243              		.loc 1 86 0
 244 0006 3B46     		mov	r3, r7
 245 0008 0022     		movs	r2, #0
 246 000a 1A60     		str	r2, [r3]
 247 000c 5A60     		str	r2, [r3, #4]
ARM GAS  C:\Users\bk\AppData\Local\Temp\ccJDYvlx.s 			page 7


 248 000e 1A81     		strh	r2, [r3, #8]	@ movhi
  87:telit.c       ****     char *ptr=strstr(uart_received_string,"#CCLK: ");
 249              		.loc 1 87 0
 250 0010 0449     		ldr	r1, .L7
 251 0012 0548     		ldr	r0, .L7+4
 252 0014 FFF7FEFF 		bl	strstr
 253 0018 F860     		str	r0, [r7, #12]
  88:telit.c       ****     /*if(ptr!=NULL){
  89:telit.c       ****         
  90:telit.c       ****         ptr+=sizeof("#CCLK: ");
  91:telit.c       ****         
  92:telit.c       ****         strncpy(num,ptr,2);
  93:telit.c       ****         *(num+2)='\0';
  94:telit.c       ****         time.year=atoi(num)+2000;
  95:telit.c       ****         
  96:telit.c       ****         ptr=ptr+3;
  97:telit.c       ****         strncpy(num,ptr,2);
  98:telit.c       ****         *(num+2)='\0';
  99:telit.c       ****         time.month=atoi(num);
 100:telit.c       ****         
 101:telit.c       ****         ptr=ptr+3; 
 102:telit.c       ****         strncpy(num,ptr,2);
 103:telit.c       ****         *(num+2)='\0';
 104:telit.c       ****         time.day=atoi(num);
 105:telit.c       ****         
 106:telit.c       ****         ptr=ptr+3; 
 107:telit.c       ****         strncpy(num,ptr,2);
 108:telit.c       ****         *(num+2)='\0';
 109:telit.c       ****         time.hour=atoi(num);
 110:telit.c       ****         
 111:telit.c       ****         ptr=ptr+3; 
 112:telit.c       ****         strncpy(num,ptr,2);
 113:telit.c       ****         *(num+2)='\0';
 114:telit.c       ****         time.min=atoi(num);
 115:telit.c       ****         
 116:telit.c       ****         ptr=ptr+3; 
 117:telit.c       ****         strncpy(num,ptr,2);
 118:telit.c       ****         *(num+2)='\0';
 119:telit.c       ****         time.sec=atoi(num);
 120:telit.c       ****         memset(uart_received_string,'\0',sizeof(uart_received_string));
 121:telit.c       ****     }*/   
 122:telit.c       **** }
 254              		.loc 1 122 0
 255 001a 00BF     		nop
 256 001c 1037     		adds	r7, r7, #16
 257              		.cfi_def_cfa_offset 8
 258 001e BD46     		mov	sp, r7
 259              		.cfi_def_cfa_register 13
 260              		@ sp needed
 261 0020 80BD     		pop	{r7, pc}
 262              	.L8:
 263 0022 00BF     		.align	2
 264              	.L7:
 265 0024 00000000 		.word	.LC0
 266 0028 00000000 		.word	uart_received_string
 267              		.cfi_endproc
 268              	.LFE65:
ARM GAS  C:\Users\bk\AppData\Local\Temp\ccJDYvlx.s 			page 8


 269              		.size	adjust_time, .-adjust_time
 270              		.section	.text.modem_scheduler_adjust_system_time,"ax",%progbits
 271              		.align	2
 272              		.global	modem_scheduler_adjust_system_time
 273              		.thumb
 274              		.thumb_func
 275              		.type	modem_scheduler_adjust_system_time, %function
 276              	modem_scheduler_adjust_system_time:
 277              	.LFB66:
 123:telit.c       **** 
 124:telit.c       **** void modem_scheduler_adjust_system_time(){
 278              		.loc 1 124 0
 279              		.cfi_startproc
 280              		@ args = 0, pretend = 0, frame = 0
 281              		@ frame_needed = 1, uses_anonymous_args = 0
 282 0000 80B5     		push	{r7, lr}
 283              		.cfi_def_cfa_offset 8
 284              		.cfi_offset 7, -8
 285              		.cfi_offset 14, -4
 286 0002 00AF     		add	r7, sp, #0
 287              		.cfi_def_cfa_register 7
 125:telit.c       ****     modem.modem_event=EVENT_PARSE_TIME;
 288              		.loc 1 125 0
 289 0004 044B     		ldr	r3, .L10
 290 0006 0622     		movs	r2, #6
 291 0008 1A70     		strb	r2, [r3]
 126:telit.c       ****     modem.modem_state=STATE_ECHO_CORRECT;
 292              		.loc 1 126 0
 293 000a 034B     		ldr	r3, .L10
 294 000c 0122     		movs	r2, #1
 295 000e 5A70     		strb	r2, [r3, #1]
 127:telit.c       ****     adjust_time();      
 296              		.loc 1 127 0
 297 0010 FFF7FEFF 		bl	adjust_time
 128:telit.c       **** }
 298              		.loc 1 128 0
 299 0014 00BF     		nop
 300 0016 80BD     		pop	{r7, pc}
 301              	.L11:
 302              		.align	2
 303              	.L10:
 304 0018 00000000 		.word	modem
 305              		.cfi_endproc
 306              	.LFE66:
 307              		.size	modem_scheduler_adjust_system_time, .-modem_scheduler_adjust_system_time
 308              		.section	.text.uart_string_reset,"ax",%progbits
 309              		.align	2
 310              		.global	uart_string_reset
 311              		.thumb
 312              		.thumb_func
 313              		.type	uart_string_reset, %function
 314              	uart_string_reset:
 315              	.LFB67:
 129:telit.c       **** 
 130:telit.c       **** void uart_string_reset(){
 316              		.loc 1 130 0
 317              		.cfi_startproc
ARM GAS  C:\Users\bk\AppData\Local\Temp\ccJDYvlx.s 			page 9


 318              		@ args = 0, pretend = 0, frame = 0
 319              		@ frame_needed = 1, uses_anonymous_args = 0
 320 0000 80B5     		push	{r7, lr}
 321              		.cfi_def_cfa_offset 8
 322              		.cfi_offset 7, -8
 323              		.cfi_offset 14, -4
 324 0002 00AF     		add	r7, sp, #0
 325              		.cfi_def_cfa_register 7
 131:telit.c       ****     uart_string_index=0;
 326              		.loc 1 131 0
 327 0004 064B     		ldr	r3, .L13
 328 0006 0022     		movs	r2, #0
 329 0008 1A70     		strb	r2, [r3]
 132:telit.c       ****     memset(uart_received_string,'\0',sizeof(uart_received_string));
 330              		.loc 1 132 0
 331 000a 4FF48062 		mov	r2, #1024
 332 000e 0021     		movs	r1, #0
 333 0010 0448     		ldr	r0, .L13+4
 334 0012 FFF7FEFF 		bl	memset
 133:telit.c       ****     UART_Telit_ClearRxBuffer();
 335              		.loc 1 133 0
 336 0016 FFF7FEFF 		bl	UART_Telit_ClearRxBuffer
 134:telit.c       **** }
 337              		.loc 1 134 0
 338 001a 00BF     		nop
 339 001c 80BD     		pop	{r7, pc}
 340              	.L14:
 341 001e 00BF     		.align	2
 342              	.L13:
 343 0020 00000000 		.word	uart_string_index
 344 0024 00000000 		.word	uart_received_string
 345              		.cfi_endproc
 346              	.LFE67:
 347              		.size	uart_string_reset, .-uart_string_reset
 348              		.section	.text.modem_send_at_command,"ax",%progbits
 349              		.align	2
 350              		.global	modem_send_at_command
 351              		.thumb
 352              		.thumb_func
 353              		.type	modem_send_at_command, %function
 354              	modem_send_at_command:
 355              	.LFB68:
 135:telit.c       **** 
 136:telit.c       **** // --------------------------------------------
 137:telit.c       **** //
 138:telit.c       **** //
 139:telit.c       **** void modem_send_at_command(char * cmd){
 356              		.loc 1 139 0
 357              		.cfi_startproc
 358              		@ args = 0, pretend = 0, frame = 8
 359              		@ frame_needed = 1, uses_anonymous_args = 0
 360 0000 80B5     		push	{r7, lr}
 361              		.cfi_def_cfa_offset 8
 362              		.cfi_offset 7, -8
 363              		.cfi_offset 14, -4
 364 0002 82B0     		sub	sp, sp, #8
 365              		.cfi_def_cfa_offset 16
ARM GAS  C:\Users\bk\AppData\Local\Temp\ccJDYvlx.s 			page 10


 366 0004 00AF     		add	r7, sp, #0
 367              		.cfi_def_cfa_register 7
 368 0006 7860     		str	r0, [r7, #4]
 140:telit.c       ****     uart_string_reset();
 369              		.loc 1 140 0
 370 0008 FFF7FEFF 		bl	uart_string_reset
 141:telit.c       ****     UART_Telit_PutString(cmd);    
 371              		.loc 1 141 0
 372 000c 7868     		ldr	r0, [r7, #4]
 373 000e FFF7FEFF 		bl	UART_Telit_PutString
 142:telit.c       ****     modem.modem_state=STATE_AT_CMD_SENT;
 374              		.loc 1 142 0
 375 0012 054B     		ldr	r3, .L16
 376 0014 0022     		movs	r2, #0
 377 0016 5A70     		strb	r2, [r3, #1]
 143:telit.c       ****     modem.echo_counter=0;
 378              		.loc 1 143 0
 379 0018 034B     		ldr	r3, .L16
 380 001a 0022     		movs	r2, #0
 381 001c DA70     		strb	r2, [r3, #3]
 144:telit.c       **** }
 382              		.loc 1 144 0
 383 001e 00BF     		nop
 384 0020 0837     		adds	r7, r7, #8
 385              		.cfi_def_cfa_offset 8
 386 0022 BD46     		mov	sp, r7
 387              		.cfi_def_cfa_register 13
 388              		@ sp needed
 389 0024 80BD     		pop	{r7, pc}
 390              	.L17:
 391 0026 00BF     		.align	2
 392              	.L16:
 393 0028 00000000 		.word	modem
 394              		.cfi_endproc
 395              	.LFE68:
 396              		.size	modem_send_at_command, .-modem_send_at_command
 397              		.section	.text.modem_compare_echo,"ax",%progbits
 398              		.align	2
 399              		.global	modem_compare_echo
 400              		.thumb
 401              		.thumb_func
 402              		.type	modem_compare_echo, %function
 403              	modem_compare_echo:
 404              	.LFB69:
 145:telit.c       **** //
 146:telit.c       **** //
 147:telit.c       **** // --------------------------------------------
 148:telit.c       **** 
 149:telit.c       **** void modem_compare_echo(){
 405              		.loc 1 149 0
 406              		.cfi_startproc
 407              		@ args = 0, pretend = 0, frame = 8
 408              		@ frame_needed = 1, uses_anonymous_args = 0
 409 0000 80B5     		push	{r7, lr}
 410              		.cfi_def_cfa_offset 8
 411              		.cfi_offset 7, -8
 412              		.cfi_offset 14, -4
ARM GAS  C:\Users\bk\AppData\Local\Temp\ccJDYvlx.s 			page 11


 413 0002 82B0     		sub	sp, sp, #8
 414              		.cfi_def_cfa_offset 16
 415 0004 00AF     		add	r7, sp, #0
 416              		.cfi_def_cfa_register 7
 150:telit.c       ****     char* compare_location;
 151:telit.c       ****     compare_location=strstr(uart_received_string,modem.expected_response);
 417              		.loc 1 151 0
 418 0006 1049     		ldr	r1, .L22
 419 0008 1048     		ldr	r0, .L22+4
 420 000a FFF7FEFF 		bl	strstr
 421 000e 7860     		str	r0, [r7, #4]
 152:telit.c       ****     if(compare_location!=NULL)modem.modem_state=STATE_ECHO_CORRECT;
 422              		.loc 1 152 0
 423 0010 7B68     		ldr	r3, [r7, #4]
 424 0012 002B     		cmp	r3, #0
 425 0014 03D0     		beq	.L19
 426              		.loc 1 152 0 is_stmt 0 discriminator 1
 427 0016 0E4B     		ldr	r3, .L22+8
 428 0018 0122     		movs	r2, #1
 429 001a 5A70     		strb	r2, [r3, #1]
 153:telit.c       ****     else {
 154:telit.c       ****         modem.modem_state=STATE_ECHO_NOT_FOUND;
 155:telit.c       ****         modem.echo_counter++;
 156:telit.c       ****         if(modem.echo_counter>=MAX_ECHO_COUNT)modem.modem_state=STATE_ECHO_TIMEOUT;
 157:telit.c       ****     }    
 158:telit.c       **** }
 430              		.loc 1 158 0 is_stmt 1 discriminator 1
 431 001c 0FE0     		b	.L21
 432              	.L19:
 154:telit.c       ****         modem.echo_counter++;
 433              		.loc 1 154 0
 434 001e 0C4B     		ldr	r3, .L22+8
 435 0020 0222     		movs	r2, #2
 436 0022 5A70     		strb	r2, [r3, #1]
 155:telit.c       ****         if(modem.echo_counter>=MAX_ECHO_COUNT)modem.modem_state=STATE_ECHO_TIMEOUT;
 437              		.loc 1 155 0
 438 0024 0A4B     		ldr	r3, .L22+8
 439 0026 DB78     		ldrb	r3, [r3, #3]	@ zero_extendqisi2
 440 0028 0133     		adds	r3, r3, #1
 441 002a DAB2     		uxtb	r2, r3
 442 002c 084B     		ldr	r3, .L22+8
 443 002e DA70     		strb	r2, [r3, #3]
 156:telit.c       ****     }    
 444              		.loc 1 156 0
 445 0030 074B     		ldr	r3, .L22+8
 446 0032 DB78     		ldrb	r3, [r3, #3]	@ zero_extendqisi2
 447 0034 F92B     		cmp	r3, #249
 448 0036 02D9     		bls	.L21
 156:telit.c       ****     }    
 449              		.loc 1 156 0 is_stmt 0 discriminator 1
 450 0038 054B     		ldr	r3, .L22+8
 451 003a 0322     		movs	r2, #3
 452 003c 5A70     		strb	r2, [r3, #1]
 453              	.L21:
 454              		.loc 1 158 0 is_stmt 1
 455 003e 00BF     		nop
 456 0040 0837     		adds	r7, r7, #8
ARM GAS  C:\Users\bk\AppData\Local\Temp\ccJDYvlx.s 			page 12


 457              		.cfi_def_cfa_offset 8
 458 0042 BD46     		mov	sp, r7
 459              		.cfi_def_cfa_register 13
 460              		@ sp needed
 461 0044 80BD     		pop	{r7, pc}
 462              	.L23:
 463 0046 00BF     		.align	2
 464              	.L22:
 465 0048 05000000 		.word	modem+5
 466 004c 00000000 		.word	uart_received_string
 467 0050 00000000 		.word	modem
 468              		.cfi_endproc
 469              	.LFE69:
 470              		.size	modem_compare_echo, .-modem_compare_echo
 471              		.section	.rodata
 472              		.align	2
 473              	.LC1:
 474 0008 41542B47 		.ascii	"AT+GSN=1\015\000"
 474      534E3D31 
 474      0D00
 475 0012 0000     		.align	2
 476              	.LC2:
 477 0014 4F4B00   		.ascii	"OK\000"
 478              		.section	.text.modem_scheduler_request_meid,"ax",%progbits
 479              		.align	2
 480              		.global	modem_scheduler_request_meid
 481              		.thumb
 482              		.thumb_func
 483              		.type	modem_scheduler_request_meid, %function
 484              	modem_scheduler_request_meid:
 485              	.LFB70:
 159:telit.c       **** 
 160:telit.c       **** void modem_scheduler_request_meid(){
 486              		.loc 1 160 0
 487              		.cfi_startproc
 488              		@ args = 0, pretend = 0, frame = 0
 489              		@ frame_needed = 1, uses_anonymous_args = 0
 490 0000 80B5     		push	{r7, lr}
 491              		.cfi_def_cfa_offset 8
 492              		.cfi_offset 7, -8
 493              		.cfi_offset 14, -4
 494 0002 00AF     		add	r7, sp, #0
 495              		.cfi_def_cfa_register 7
 161:telit.c       ****     modem_send_at_command("AT+GSN=1\r");
 496              		.loc 1 161 0
 497 0004 0648     		ldr	r0, .L25
 498 0006 FFF7FEFF 		bl	modem_send_at_command
 162:telit.c       ****     sprintf(modem.expected_response,"OK");
 499              		.loc 1 162 0
 500 000a 064B     		ldr	r3, .L25+4
 501 000c 064A     		ldr	r2, .L25+8
 502 000e 1188     		ldrh	r1, [r2]	@ unaligned
 503 0010 9278     		ldrb	r2, [r2, #2]
 504 0012 1980     		strh	r1, [r3]	@ unaligned
 505 0014 9A70     		strb	r2, [r3, #2]
 163:telit.c       ****     modem.modem_event=EVENT_REQUEST_MEID;
 506              		.loc 1 163 0
ARM GAS  C:\Users\bk\AppData\Local\Temp\ccJDYvlx.s 			page 13


 507 0016 054B     		ldr	r3, .L25+12
 508 0018 0422     		movs	r2, #4
 509 001a 1A70     		strb	r2, [r3]
 164:telit.c       **** }
 510              		.loc 1 164 0
 511 001c 00BF     		nop
 512 001e 80BD     		pop	{r7, pc}
 513              	.L26:
 514              		.align	2
 515              	.L25:
 516 0020 08000000 		.word	.LC1
 517 0024 05000000 		.word	modem+5
 518 0028 14000000 		.word	.LC2
 519 002c 00000000 		.word	modem
 520              		.cfi_endproc
 521              	.LFE70:
 522              		.size	modem_scheduler_request_meid, .-modem_scheduler_request_meid
 523              		.section	.text.modem_scheduler_init_index,"ax",%progbits
 524              		.align	2
 525              		.global	modem_scheduler_init_index
 526              		.thumb
 527              		.thumb_func
 528              		.type	modem_scheduler_init_index, %function
 529              	modem_scheduler_init_index:
 530              	.LFB71:
 165:telit.c       **** 
 166:telit.c       **** void modem_scheduler_init_index(){
 531              		.loc 1 166 0
 532              		.cfi_startproc
 533              		@ args = 0, pretend = 0, frame = 0
 534              		@ frame_needed = 1, uses_anonymous_args = 0
 535 0000 80B5     		push	{r7, lr}
 536              		.cfi_def_cfa_offset 8
 537              		.cfi_offset 7, -8
 538              		.cfi_offset 14, -4
 539 0002 00AF     		add	r7, sp, #0
 540              		.cfi_def_cfa_register 7
 167:telit.c       ****     if(parse_meid(MEID)==1)modem_scheduler_socket_dial();
 541              		.loc 1 167 0
 542 0004 0648     		ldr	r0, .L31
 543 0006 FFF7FEFF 		bl	parse_meid
 544 000a 0346     		mov	r3, r0
 545 000c 012B     		cmp	r3, #1
 546 000e 02D1     		bne	.L28
 547              		.loc 1 167 0 is_stmt 0 discriminator 1
 548 0010 FFF7FEFF 		bl	modem_scheduler_socket_dial
 168:telit.c       ****     else modem_scheduler_request_meid();    
 169:telit.c       **** }
 549              		.loc 1 169 0 is_stmt 1 discriminator 1
 550 0014 01E0     		b	.L30
 551              	.L28:
 168:telit.c       ****     else modem_scheduler_request_meid();    
 552              		.loc 1 168 0
 553 0016 FFF7FEFF 		bl	modem_scheduler_request_meid
 554              	.L30:
 555              		.loc 1 169 0
 556 001a 00BF     		nop
ARM GAS  C:\Users\bk\AppData\Local\Temp\ccJDYvlx.s 			page 14


 557 001c 80BD     		pop	{r7, pc}
 558              	.L32:
 559 001e 00BF     		.align	2
 560              	.L31:
 561 0020 00000000 		.word	MEID
 562              		.cfi_endproc
 563              	.LFE71:
 564              		.size	modem_scheduler_init_index, .-modem_scheduler_init_index
 565              		.section	.text.modem_check_device_index,"ax",%progbits
 566              		.align	2
 567              		.global	modem_check_device_index
 568              		.thumb
 569              		.thumb_func
 570              		.type	modem_check_device_index, %function
 571              	modem_check_device_index:
 572              	.LFB72:
 170:telit.c       **** 
 171:telit.c       **** void modem_check_device_index(){
 573              		.loc 1 171 0
 574              		.cfi_startproc
 575              		@ args = 0, pretend = 0, frame = 0
 576              		@ frame_needed = 1, uses_anonymous_args = 0
 577 0000 80B5     		push	{r7, lr}
 578              		.cfi_def_cfa_offset 8
 579              		.cfi_offset 7, -8
 580              		.cfi_offset 14, -4
 581 0002 00AF     		add	r7, sp, #0
 582              		.cfi_def_cfa_register 7
 172:telit.c       ****     modem.connection=1;
 583              		.loc 1 172 0
 584 0004 064B     		ldr	r3, .L37
 585 0006 0122     		movs	r2, #1
 586 0008 5A73     		strb	r2, [r3, #13]
 173:telit.c       ****     if(device_index[0]=='\0'){
 587              		.loc 1 173 0
 588 000a 064B     		ldr	r3, .L37+4
 589 000c 1B78     		ldrb	r3, [r3]	@ zero_extendqisi2
 590 000e 002B     		cmp	r3, #0
 591 0010 02D1     		bne	.L34
 174:telit.c       ****         modem_scheduler_request_meid();
 592              		.loc 1 174 0
 593 0012 FFF7FEFF 		bl	modem_scheduler_request_meid
 175:telit.c       ****     }
 176:telit.c       ****     else modem_scheduler_socket_dial();
 177:telit.c       **** }
 594              		.loc 1 177 0
 595 0016 01E0     		b	.L36
 596              	.L34:
 176:telit.c       **** }
 597              		.loc 1 176 0
 598 0018 FFF7FEFF 		bl	modem_scheduler_socket_dial
 599              	.L36:
 600              		.loc 1 177 0
 601 001c 00BF     		nop
 602 001e 80BD     		pop	{r7, pc}
 603              	.L38:
 604              		.align	2
ARM GAS  C:\Users\bk\AppData\Local\Temp\ccJDYvlx.s 			page 15


 605              	.L37:
 606 0020 00000000 		.word	modem
 607 0024 00000000 		.word	device_index
 608              		.cfi_endproc
 609              	.LFE72:
 610              		.size	modem_check_device_index, .-modem_check_device_index
 611              		.section	.rodata
 612 0017 00       		.align	2
 613              	.LC3:
 614 0018 41542343 		.ascii	"AT#CCLK?\015\000"
 614      434C4B3F 
 614      0D00
 615              		.section	.text.modem_scheduler_request_time,"ax",%progbits
 616              		.align	2
 617              		.global	modem_scheduler_request_time
 618              		.thumb
 619              		.thumb_func
 620              		.type	modem_scheduler_request_time, %function
 621              	modem_scheduler_request_time:
 622              	.LFB73:
 178:telit.c       **** 
 179:telit.c       **** //
 180:telit.c       **** // #######################################
 181:telit.c       **** //
 182:telit.c       **** void modem_scheduler_request_time(){ 
 623              		.loc 1 182 0
 624              		.cfi_startproc
 625              		@ args = 0, pretend = 0, frame = 0
 626              		@ frame_needed = 1, uses_anonymous_args = 0
 627 0000 80B5     		push	{r7, lr}
 628              		.cfi_def_cfa_offset 8
 629              		.cfi_offset 7, -8
 630              		.cfi_offset 14, -4
 631 0002 00AF     		add	r7, sp, #0
 632              		.cfi_def_cfa_register 7
 183:telit.c       ****     modem_send_at_command("AT#CCLK?\r");
 633              		.loc 1 183 0
 634 0004 0648     		ldr	r0, .L40
 635 0006 FFF7FEFF 		bl	modem_send_at_command
 184:telit.c       ****     sprintf(modem.expected_response,"OK");
 636              		.loc 1 184 0
 637 000a 064B     		ldr	r3, .L40+4
 638 000c 064A     		ldr	r2, .L40+8
 639 000e 1188     		ldrh	r1, [r2]	@ unaligned
 640 0010 9278     		ldrb	r2, [r2, #2]
 641 0012 1980     		strh	r1, [r3]	@ unaligned
 642 0014 9A70     		strb	r2, [r3, #2]
 185:telit.c       ****     modem.modem_event=EVENT_REQUEST_TIME;
 643              		.loc 1 185 0
 644 0016 054B     		ldr	r3, .L40+12
 645 0018 0522     		movs	r2, #5
 646 001a 1A70     		strb	r2, [r3]
 186:telit.c       **** }
 647              		.loc 1 186 0
 648 001c 00BF     		nop
 649 001e 80BD     		pop	{r7, pc}
 650              	.L41:
ARM GAS  C:\Users\bk\AppData\Local\Temp\ccJDYvlx.s 			page 16


 651              		.align	2
 652              	.L40:
 653 0020 18000000 		.word	.LC3
 654 0024 05000000 		.word	modem+5
 655 0028 14000000 		.word	.LC2
 656 002c 00000000 		.word	modem
 657              		.cfi_endproc
 658              	.LFE73:
 659              		.size	modem_scheduler_request_time, .-modem_scheduler_request_time
 660              		.section	.rodata
 661 0022 0000     		.align	2
 662              	.LC4:
 663 0024 41542B43 		.ascii	"AT+CGREG?\015\000"
 663      47524547 
 663      3F0D00
 664 002f 00       		.align	2
 665              	.LC5:
 666 0030 2C3100   		.ascii	",1\000"
 667              		.section	.text.modem_scheduler_check_network,"ax",%progbits
 668              		.align	2
 669              		.global	modem_scheduler_check_network
 670              		.thumb
 671              		.thumb_func
 672              		.type	modem_scheduler_check_network, %function
 673              	modem_scheduler_check_network:
 674              	.LFB74:
 187:telit.c       **** 
 188:telit.c       **** 
 189:telit.c       **** void modem_scheduler_check_network(){
 675              		.loc 1 189 0
 676              		.cfi_startproc
 677              		@ args = 0, pretend = 0, frame = 0
 678              		@ frame_needed = 1, uses_anonymous_args = 0
 679 0000 80B5     		push	{r7, lr}
 680              		.cfi_def_cfa_offset 8
 681              		.cfi_offset 7, -8
 682              		.cfi_offset 14, -4
 683 0002 00AF     		add	r7, sp, #0
 684              		.cfi_def_cfa_register 7
 190:telit.c       ****     modem_send_at_command("AT+CGREG?\r");
 685              		.loc 1 190 0
 686 0004 0648     		ldr	r0, .L43
 687 0006 FFF7FEFF 		bl	modem_send_at_command
 191:telit.c       ****     sprintf(modem.expected_response,",1");  
 688              		.loc 1 191 0
 689 000a 064B     		ldr	r3, .L43+4
 690 000c 064A     		ldr	r2, .L43+8
 691 000e 1188     		ldrh	r1, [r2]	@ unaligned
 692 0010 9278     		ldrb	r2, [r2, #2]
 693 0012 1980     		strh	r1, [r3]	@ unaligned
 694 0014 9A70     		strb	r2, [r3, #2]
 192:telit.c       ****     modem.modem_event=EVENT_CHECK_NETWORK;
 695              		.loc 1 192 0
 696 0016 054B     		ldr	r3, .L43+12
 697 0018 0122     		movs	r2, #1
 698 001a 1A70     		strb	r2, [r3]
 193:telit.c       **** }
ARM GAS  C:\Users\bk\AppData\Local\Temp\ccJDYvlx.s 			page 17


 699              		.loc 1 193 0
 700 001c 00BF     		nop
 701 001e 80BD     		pop	{r7, pc}
 702              	.L44:
 703              		.align	2
 704              	.L43:
 705 0020 24000000 		.word	.LC4
 706 0024 05000000 		.word	modem+5
 707 0028 30000000 		.word	.LC5
 708 002c 00000000 		.word	modem
 709              		.cfi_endproc
 710              	.LFE74:
 711              		.size	modem_scheduler_check_network, .-modem_scheduler_check_network
 712              		.section	.rodata
 713 0033 00       		.align	2
 714              	.LC6:
 715 0034 41542353 		.ascii	"AT#SGACT?\015\000"
 715      47414354 
 715      3F0D00
 716              		.section	.text.modem_scheduler_check_PDP,"ax",%progbits
 717              		.align	2
 718              		.global	modem_scheduler_check_PDP
 719              		.thumb
 720              		.thumb_func
 721              		.type	modem_scheduler_check_PDP, %function
 722              	modem_scheduler_check_PDP:
 723              	.LFB75:
 194:telit.c       **** //
 195:telit.c       **** // #######################################
 196:telit.c       **** //
 197:telit.c       **** void modem_scheduler_check_PDP(){
 724              		.loc 1 197 0
 725              		.cfi_startproc
 726              		@ args = 0, pretend = 0, frame = 0
 727              		@ frame_needed = 1, uses_anonymous_args = 0
 728 0000 80B5     		push	{r7, lr}
 729              		.cfi_def_cfa_offset 8
 730              		.cfi_offset 7, -8
 731              		.cfi_offset 14, -4
 732 0002 00AF     		add	r7, sp, #0
 733              		.cfi_def_cfa_register 7
 198:telit.c       ****     modem_send_at_command("AT#SGACT?\r");
 734              		.loc 1 198 0
 735 0004 0648     		ldr	r0, .L46
 736 0006 FFF7FEFF 		bl	modem_send_at_command
 199:telit.c       ****     sprintf(modem.expected_response,",1");   
 737              		.loc 1 199 0
 738 000a 064B     		ldr	r3, .L46+4
 739 000c 064A     		ldr	r2, .L46+8
 740 000e 1188     		ldrh	r1, [r2]	@ unaligned
 741 0010 9278     		ldrb	r2, [r2, #2]
 742 0012 1980     		strh	r1, [r3]	@ unaligned
 743 0014 9A70     		strb	r2, [r3, #2]
 200:telit.c       ****     modem.modem_event=EVENT_CHECK_PDP;
 744              		.loc 1 200 0
 745 0016 054B     		ldr	r3, .L46+12
 746 0018 0222     		movs	r2, #2
ARM GAS  C:\Users\bk\AppData\Local\Temp\ccJDYvlx.s 			page 18


 747 001a 1A70     		strb	r2, [r3]
 201:telit.c       **** }
 748              		.loc 1 201 0
 749 001c 00BF     		nop
 750 001e 80BD     		pop	{r7, pc}
 751              	.L47:
 752              		.align	2
 753              	.L46:
 754 0020 34000000 		.word	.LC6
 755 0024 05000000 		.word	modem+5
 756 0028 30000000 		.word	.LC5
 757 002c 00000000 		.word	modem
 758              		.cfi_endproc
 759              	.LFE75:
 760              		.size	modem_scheduler_check_PDP, .-modem_scheduler_check_PDP
 761              		.section	.rodata
 762 003f 00       		.align	2
 763              	.LC7:
 764 0040 41542353 		.ascii	"AT#SGACT=3,1\015\000"
 764      47414354 
 764      3D332C31 
 764      0D00
 765              		.section	.text.modem_scheduler_activate_PDP,"ax",%progbits
 766              		.align	2
 767              		.global	modem_scheduler_activate_PDP
 768              		.thumb
 769              		.thumb_func
 770              		.type	modem_scheduler_activate_PDP, %function
 771              	modem_scheduler_activate_PDP:
 772              	.LFB76:
 202:telit.c       **** 
 203:telit.c       **** void modem_scheduler_activate_PDP(){
 773              		.loc 1 203 0
 774              		.cfi_startproc
 775              		@ args = 0, pretend = 0, frame = 0
 776              		@ frame_needed = 1, uses_anonymous_args = 0
 777 0000 80B5     		push	{r7, lr}
 778              		.cfi_def_cfa_offset 8
 779              		.cfi_offset 7, -8
 780              		.cfi_offset 14, -4
 781 0002 00AF     		add	r7, sp, #0
 782              		.cfi_def_cfa_register 7
 204:telit.c       ****     modem_send_at_command("AT#SGACT=3,1\r");
 783              		.loc 1 204 0
 784 0004 0648     		ldr	r0, .L49
 785 0006 FFF7FEFF 		bl	modem_send_at_command
 205:telit.c       ****     sprintf(modem.expected_response,"OK"); 
 786              		.loc 1 205 0
 787 000a 064B     		ldr	r3, .L49+4
 788 000c 064A     		ldr	r2, .L49+8
 789 000e 1188     		ldrh	r1, [r2]	@ unaligned
 790 0010 9278     		ldrb	r2, [r2, #2]
 791 0012 1980     		strh	r1, [r3]	@ unaligned
 792 0014 9A70     		strb	r2, [r3, #2]
 206:telit.c       ****     modem.modem_event=EVENT_ACTIVATE_PDP;
 793              		.loc 1 206 0
 794 0016 054B     		ldr	r3, .L49+12
ARM GAS  C:\Users\bk\AppData\Local\Temp\ccJDYvlx.s 			page 19


 795 0018 0322     		movs	r2, #3
 796 001a 1A70     		strb	r2, [r3]
 207:telit.c       **** }
 797              		.loc 1 207 0
 798 001c 00BF     		nop
 799 001e 80BD     		pop	{r7, pc}
 800              	.L50:
 801              		.align	2
 802              	.L49:
 803 0020 40000000 		.word	.LC7
 804 0024 05000000 		.word	modem+5
 805 0028 14000000 		.word	.LC2
 806 002c 00000000 		.word	modem
 807              		.cfi_endproc
 808              	.LFE76:
 809              		.size	modem_scheduler_activate_PDP, .-modem_scheduler_activate_PDP
 810              		.section	.rodata
 811 004e 0000     		.align	2
 812              	.LC8:
 813 0050 41542353 		.ascii	"AT#SD=3,0,%d,%s,0,0,1\015\000"
 813      443D332C 
 813      302C2564 
 813      2C25732C 
 813      302C302C 
 814              		.section	.text.modem_scheduler_socket_dial,"ax",%progbits
 815              		.align	2
 816              		.global	modem_scheduler_socket_dial
 817              		.thumb
 818              		.thumb_func
 819              		.type	modem_scheduler_socket_dial, %function
 820              	modem_scheduler_socket_dial:
 821              	.LFB77:
 208:telit.c       **** 
 209:telit.c       **** void modem_scheduler_socket_dial(){
 822              		.loc 1 209 0
 823              		.cfi_startproc
 824              		@ args = 0, pretend = 0, frame = 128
 825              		@ frame_needed = 1, uses_anonymous_args = 0
 826 0000 80B5     		push	{r7, lr}
 827              		.cfi_def_cfa_offset 8
 828              		.cfi_offset 7, -8
 829              		.cfi_offset 14, -4
 830 0002 A0B0     		sub	sp, sp, #128
 831              		.cfi_def_cfa_offset 136
 832 0004 00AF     		add	r7, sp, #0
 833              		.cfi_def_cfa_register 7
 210:telit.c       ****     /* if no averaged data are available to be sent, return directly*/
 211:telit.c       ****     /*if(avg_data_body.data_avg_status!=1){
 212:telit.c       ****         memset(uart_received_string,'\0',sizeof(uart_received_string));
 213:telit.c       ****         return;
 214:telit.c       ****     }poipoi*/
 215:telit.c       ****     char socket_dial_str[128];
 216:telit.c       ****     /* port and ip address are defined in data.c*/
 217:telit.c       ****     sprintf(socket_dial_str,"AT#SD=3,0,%d,%s,0,0,1\r",main_port,main_host);                    
 834              		.loc 1 217 0
 835 0006 0C4B     		ldr	r3, .L52
 836 0008 1B88     		ldrh	r3, [r3]
ARM GAS  C:\Users\bk\AppData\Local\Temp\ccJDYvlx.s 			page 20


 837 000a 1A46     		mov	r2, r3
 838 000c 3846     		mov	r0, r7
 839 000e 0B4B     		ldr	r3, .L52+4
 840 0010 0B49     		ldr	r1, .L52+8
 841 0012 FFF7FEFF 		bl	sprintf
 218:telit.c       ****         modem_send_at_command(socket_dial_str); 
 842              		.loc 1 218 0
 843 0016 3B46     		mov	r3, r7
 844 0018 1846     		mov	r0, r3
 845 001a FFF7FEFF 		bl	modem_send_at_command
 219:telit.c       ****     sprintf(modem.expected_response,"OK");    
 846              		.loc 1 219 0
 847 001e 094B     		ldr	r3, .L52+12
 848 0020 094A     		ldr	r2, .L52+16
 849 0022 1188     		ldrh	r1, [r2]	@ unaligned
 850 0024 9278     		ldrb	r2, [r2, #2]
 851 0026 1980     		strh	r1, [r3]	@ unaligned
 852 0028 9A70     		strb	r2, [r3, #2]
 220:telit.c       ****     modem.modem_event=EVENT_OPEN_SOCKET;
 853              		.loc 1 220 0
 854 002a 084B     		ldr	r3, .L52+20
 855 002c 0722     		movs	r2, #7
 856 002e 1A70     		strb	r2, [r3]
 221:telit.c       **** }
 857              		.loc 1 221 0
 858 0030 00BF     		nop
 859 0032 8037     		adds	r7, r7, #128
 860              		.cfi_def_cfa_offset 8
 861 0034 BD46     		mov	sp, r7
 862              		.cfi_def_cfa_register 13
 863              		@ sp needed
 864 0036 80BD     		pop	{r7, pc}
 865              	.L53:
 866              		.align	2
 867              	.L52:
 868 0038 00000000 		.word	main_port
 869 003c 00000000 		.word	main_host
 870 0040 50000000 		.word	.LC8
 871 0044 05000000 		.word	modem+5
 872 0048 14000000 		.word	.LC2
 873 004c 00000000 		.word	modem
 874              		.cfi_endproc
 875              	.LFE77:
 876              		.size	modem_scheduler_socket_dial, .-modem_scheduler_socket_dial
 877              		.section	.rodata
 878 0067 00       		.align	2
 879              	.LC9:
 880 0068 41542353 		.ascii	"AT#SS=3\015\000"
 880      533D330D 
 880      00
 881              		.section	.text.modem_scheduler_socket_status,"ax",%progbits
 882              		.align	2
 883              		.global	modem_scheduler_socket_status
 884              		.thumb
 885              		.thumb_func
 886              		.type	modem_scheduler_socket_status, %function
 887              	modem_scheduler_socket_status:
ARM GAS  C:\Users\bk\AppData\Local\Temp\ccJDYvlx.s 			page 21


 888              	.LFB78:
 222:telit.c       **** 
 223:telit.c       **** void modem_scheduler_socket_status(){
 889              		.loc 1 223 0
 890              		.cfi_startproc
 891              		@ args = 0, pretend = 0, frame = 0
 892              		@ frame_needed = 1, uses_anonymous_args = 0
 893 0000 80B5     		push	{r7, lr}
 894              		.cfi_def_cfa_offset 8
 895              		.cfi_offset 7, -8
 896              		.cfi_offset 14, -4
 897 0002 00AF     		add	r7, sp, #0
 898              		.cfi_def_cfa_register 7
 224:telit.c       ****     modem_send_at_command("AT#SS=3\r");
 899              		.loc 1 224 0
 900 0004 0648     		ldr	r0, .L55
 901 0006 FFF7FEFF 		bl	modem_send_at_command
 225:telit.c       ****     sprintf(modem.expected_response,"OK");
 902              		.loc 1 225 0
 903 000a 064B     		ldr	r3, .L55+4
 904 000c 064A     		ldr	r2, .L55+8
 905 000e 1188     		ldrh	r1, [r2]	@ unaligned
 906 0010 9278     		ldrb	r2, [r2, #2]
 907 0012 1980     		strh	r1, [r3]	@ unaligned
 908 0014 9A70     		strb	r2, [r3, #2]
 226:telit.c       ****     modem.modem_event=EVENT_REQUEST_SOCKET_STATUS;
 909              		.loc 1 226 0
 910 0016 054B     		ldr	r3, .L55+12
 911 0018 0822     		movs	r2, #8
 912 001a 1A70     		strb	r2, [r3]
 227:telit.c       **** }
 913              		.loc 1 227 0
 914 001c 00BF     		nop
 915 001e 80BD     		pop	{r7, pc}
 916              	.L56:
 917              		.align	2
 918              	.L55:
 919 0020 68000000 		.word	.LC9
 920 0024 05000000 		.word	modem+5
 921 0028 14000000 		.word	.LC2
 922 002c 00000000 		.word	modem
 923              		.cfi_endproc
 924              	.LFE78:
 925              		.size	modem_scheduler_socket_status, .-modem_scheduler_socket_status
 926              		.section	.rodata
 927 0071 000000   		.align	2
 928              	.LC10:
 929 0074 2353533A 		.ascii	"#SS: 3,\000"
 929      20332C00 
 930              		.section	.text.parse_socket_status,"ax",%progbits
 931              		.align	2
 932              		.global	parse_socket_status
 933              		.thumb
 934              		.thumb_func
 935              		.type	parse_socket_status, %function
 936              	parse_socket_status:
 937              	.LFB79:
ARM GAS  C:\Users\bk\AppData\Local\Temp\ccJDYvlx.s 			page 22


 228:telit.c       **** 
 229:telit.c       **** void parse_socket_status(){
 938              		.loc 1 229 0
 939              		.cfi_startproc
 940              		@ args = 0, pretend = 0, frame = 8
 941              		@ frame_needed = 1, uses_anonymous_args = 0
 942 0000 80B5     		push	{r7, lr}
 943              		.cfi_def_cfa_offset 8
 944              		.cfi_offset 7, -8
 945              		.cfi_offset 14, -4
 946 0002 82B0     		sub	sp, sp, #8
 947              		.cfi_def_cfa_offset 16
 948 0004 00AF     		add	r7, sp, #0
 949              		.cfi_def_cfa_register 7
 230:telit.c       ****     modem.modem_event=EVENT_PARSE_SOCKET_STATUS;
 950              		.loc 1 230 0
 951 0006 114B     		ldr	r3, .L61
 952 0008 0922     		movs	r2, #9
 953 000a 1A70     		strb	r2, [r3]
 231:telit.c       ****     char *a;
 232:telit.c       ****     uint8_t ss;    
 233:telit.c       ****     // Expect the UART to contain something like "\r\n#SS: 1,0\r\n"
 234:telit.c       ****     // - Search for "#SS:".  Place the starting pointer, a, at the resulting index
 235:telit.c       ****     a = strstr(uart_received_string,"#SS: 3,");
 954              		.loc 1 235 0
 955 000c 1049     		ldr	r1, .L61+4
 956 000e 1148     		ldr	r0, .L61+8
 957 0010 FFF7FEFF 		bl	strstr
 958 0014 7860     		str	r0, [r7, #4]
 236:telit.c       ****     if (a == NULL) {
 959              		.loc 1 236 0
 960 0016 7B68     		ldr	r3, [r7, #4]
 961 0018 002B     		cmp	r3, #0
 962 001a 03D1     		bne	.L58
 237:telit.c       ****         modem.modem_state=STATE_ECHO_TIMEOUT;
 963              		.loc 1 237 0
 964 001c 0B4B     		ldr	r3, .L61
 965 001e 0322     		movs	r2, #3
 966 0020 5A70     		strb	r2, [r3, #1]
 238:telit.c       ****         return;
 967              		.loc 1 238 0
 968 0022 0FE0     		b	.L57
 969              	.L58:
 239:telit.c       ****     }
 240:telit.c       ****     a += strlen("#SS: 3,");
 970              		.loc 1 240 0
 971 0024 7B68     		ldr	r3, [r7, #4]
 972 0026 0733     		adds	r3, r3, #7
 973 0028 7B60     		str	r3, [r7, #4]
 241:telit.c       **** 
 242:telit.c       ****     ss = *a-'0';
 974              		.loc 1 242 0
 975 002a 7B68     		ldr	r3, [r7, #4]
 976 002c 1B78     		ldrb	r3, [r3]	@ zero_extendqisi2
 977 002e 303B     		subs	r3, r3, #48
 978 0030 FB70     		strb	r3, [r7, #3]
 243:telit.c       ****     if(ss!=2)modem.modem_state=STATE_ECHO_TIMEOUT;
ARM GAS  C:\Users\bk\AppData\Local\Temp\ccJDYvlx.s 			page 23


 979              		.loc 1 243 0
 980 0032 FB78     		ldrb	r3, [r7, #3]	@ zero_extendqisi2
 981 0034 022B     		cmp	r3, #2
 982 0036 02D0     		beq	.L60
 983              		.loc 1 243 0 is_stmt 0 discriminator 1
 984 0038 044B     		ldr	r3, .L61
 985 003a 0322     		movs	r2, #3
 986 003c 5A70     		strb	r2, [r3, #1]
 987              	.L60:
 244:telit.c       ****     modem.modem_state=STATE_ECHO_CORRECT;
 988              		.loc 1 244 0 is_stmt 1
 989 003e 034B     		ldr	r3, .L61
 990 0040 0122     		movs	r2, #1
 991 0042 5A70     		strb	r2, [r3, #1]
 992              	.L57:
 245:telit.c       **** }
 993              		.loc 1 245 0
 994 0044 0837     		adds	r7, r7, #8
 995              		.cfi_def_cfa_offset 8
 996 0046 BD46     		mov	sp, r7
 997              		.cfi_def_cfa_register 13
 998              		@ sp needed
 999 0048 80BD     		pop	{r7, pc}
 1000              	.L62:
 1001 004a 00BF     		.align	2
 1002              	.L61:
 1003 004c 00000000 		.word	modem
 1004 0050 74000000 		.word	.LC10
 1005 0054 00000000 		.word	uart_received_string
 1006              		.cfi_endproc
 1007              	.LFE79:
 1008              		.size	parse_socket_status, .-parse_socket_status
 1009              		.section	.rodata
 1010              		.align	2
 1011              	.LC11:
 1012 007c 41542353 		.ascii	"AT#SSEND=3\015\000"
 1012      53454E44 
 1012      3D330D00 
 1013              		.align	2
 1014              	.LC12:
 1015 0088 3E00     		.ascii	">\000"
 1016              		.section	.text.modem_scheduler_init_send,"ax",%progbits
 1017              		.align	2
 1018              		.global	modem_scheduler_init_send
 1019              		.thumb
 1020              		.thumb_func
 1021              		.type	modem_scheduler_init_send, %function
 1022              	modem_scheduler_init_send:
 1023              	.LFB80:
 246:telit.c       **** 
 247:telit.c       **** void modem_scheduler_init_send(){    
 1024              		.loc 1 247 0
 1025              		.cfi_startproc
 1026              		@ args = 0, pretend = 0, frame = 0
 1027              		@ frame_needed = 1, uses_anonymous_args = 0
 1028 0000 80B5     		push	{r7, lr}
 1029              		.cfi_def_cfa_offset 8
ARM GAS  C:\Users\bk\AppData\Local\Temp\ccJDYvlx.s 			page 24


 1030              		.cfi_offset 7, -8
 1031              		.cfi_offset 14, -4
 1032 0002 00AF     		add	r7, sp, #0
 1033              		.cfi_def_cfa_register 7
 248:telit.c       ****     modem_send_at_command("AT#SSEND=3\r");
 1034              		.loc 1 248 0
 1035 0004 0548     		ldr	r0, .L64
 1036 0006 FFF7FEFF 		bl	modem_send_at_command
 249:telit.c       ****     sprintf(modem.expected_response,">");
 1037              		.loc 1 249 0
 1038 000a 054A     		ldr	r2, .L64+4
 1039 000c 054B     		ldr	r3, .L64+8
 1040 000e 1B88     		ldrh	r3, [r3]	@ unaligned
 1041 0010 1380     		strh	r3, [r2]	@ unaligned
 250:telit.c       ****     modem.modem_event=EVENT_INIT_SEND;
 1042              		.loc 1 250 0
 1043 0012 054B     		ldr	r3, .L64+12
 1044 0014 0A22     		movs	r2, #10
 1045 0016 1A70     		strb	r2, [r3]
 251:telit.c       **** }
 1046              		.loc 1 251 0
 1047 0018 00BF     		nop
 1048 001a 80BD     		pop	{r7, pc}
 1049              	.L65:
 1050              		.align	2
 1051              	.L64:
 1052 001c 7C000000 		.word	.LC11
 1053 0020 05000000 		.word	modem+5
 1054 0024 88000000 		.word	.LC12
 1055 0028 00000000 		.word	modem
 1056              		.cfi_endproc
 1057              	.LFE80:
 1058              		.size	modem_scheduler_init_send, .-modem_scheduler_init_send
 1059              		.section	.rodata
 1060 008a 0000     		.align	2
 1061              	.LC13:
 1062 008c 71756572 		.ascii	"query?db=%s&q=SELECT index from device where MEID='"
 1062      793F6462 
 1062      3D257326 
 1062      713D5345 
 1062      4C454354 
 1063 00bf 25732700 		.ascii	"%s'\000"
 1064 00c3 00       		.align	2
 1065              	.LC14:
 1066 00c4 00       		.ascii	"\000"
 1067 00c5 000000   		.align	2
 1068              	.LC15:
 1069 00c8 312E3100 		.ascii	"1.1\000"
 1070              		.align	2
 1071              	.LC16:
 1072 00cc 436C6F73 		.ascii	"Close\000"
 1072      6500
 1073 00d2 0000     		.align	2
 1074              	.LC17:
 1075 00d4 47455400 		.ascii	"GET\000"
 1076              		.align	2
 1077              	.LC18:
ARM GAS  C:\Users\bk\AppData\Local\Temp\ccJDYvlx.s 			page 25


 1078 00d8 77726974 		.ascii	"write?db=%s\000"
 1078      653F6462 
 1078      3D257300 
 1079              		.align	2
 1080              	.LC19:
 1081 00e4 504F5354 		.ascii	"POST\000"
 1081      00
 1082 00e9 000000   		.align	2
 1083              	.LC20:
 1084 00ec 5352494E 		.ascii	"SRING: 1\000"
 1084      473A2031 
 1084      00
 1085              		.section	.text.modem_scheduler_send_message,"ax",%progbits
 1086              		.align	2
 1087              		.global	modem_scheduler_send_message
 1088              		.thumb
 1089              		.thumb_func
 1090              		.type	modem_scheduler_send_message, %function
 1091              	modem_scheduler_send_message:
 1092              	.LFB81:
 252:telit.c       **** 
 253:telit.c       **** void modem_scheduler_send_message(){
 1093              		.loc 1 253 0
 1094              		.cfi_startproc
 1095              		@ args = 0, pretend = 0, frame = 2088
 1096              		@ frame_needed = 1, uses_anonymous_args = 0
 1097 0000 90B5     		push	{r4, r7, lr}
 1098              		.cfi_def_cfa_offset 12
 1099              		.cfi_offset 4, -12
 1100              		.cfi_offset 7, -8
 1101              		.cfi_offset 14, -4
 1102 0002 ADF6440D 		subw	sp, sp, #2116
 1103              		.cfi_def_cfa_offset 2128
 1104 0006 06AF     		add	r7, sp, #24
 1105              		.cfi_def_cfa 7, 2104
 254:telit.c       ****     char send_str[1024]={'\0'};
 1106              		.loc 1 254 0
 1107 0008 07F22443 		addw	r3, r7, #1060
 1108 000c 1846     		mov	r0, r3
 1109 000e 4FF48063 		mov	r3, #1024
 1110 0012 1A46     		mov	r2, r3
 1111 0014 0021     		movs	r1, #0
 1112 0016 FFF7FEFF 		bl	memset
 255:telit.c       ****     
 256:telit.c       ****     /*this message is to get device index*/
 257:telit.c       ****     if(device_index[0]=='\0'){        
 1113              		.loc 1 257 0
 1114 001a 394B     		ldr	r3, .L69
 1115 001c 1B78     		ldrb	r3, [r3]	@ zero_extendqisi2
 1116 001e 002B     		cmp	r3, #0
 1117 0020 2CD1     		bne	.L67
 1118              	.LBB2:
 258:telit.c       ****         char main_query[128]={'\0'};
 1119              		.loc 1 258 0
 1120 0022 07F12403 		add	r3, r7, #36
 1121 0026 1846     		mov	r0, r3
 1122 0028 8023     		movs	r3, #128
ARM GAS  C:\Users\bk\AppData\Local\Temp\ccJDYvlx.s 			page 26


 1123 002a 1A46     		mov	r2, r3
 1124 002c 0021     		movs	r1, #0
 1125 002e FFF7FEFF 		bl	memset
 259:telit.c       ****         sprintf(main_query,"query?db=%s&q="
 1126              		.loc 1 259 0
 1127 0032 07F12400 		add	r0, r7, #36
 1128 0036 334B     		ldr	r3, .L69+4
 1129 0038 334A     		ldr	r2, .L69+8
 1130 003a 3449     		ldr	r1, .L69+12
 1131 003c FFF7FEFF 		bl	sprintf
 260:telit.c       ****                 "SELECT index from device where MEID=\'%s\'",database,MEID);
 261:telit.c       ****         char *query_encoded=url_encode(main_query);
 1132              		.loc 1 261 0
 1133 0040 07F12403 		add	r3, r7, #36
 1134 0044 1846     		mov	r0, r3
 1135 0046 FFF7FEFF 		bl	url_encode
 1136 004a C7F82408 		str	r0, [r7, #2084]
 262:telit.c       ****         construct_generic_request(send_str,"",main_host,query_encoded,main_port,
 1137              		.loc 1 262 0
 1138 004e 304B     		ldr	r3, .L69+16
 1139 0050 1B88     		ldrh	r3, [r3]
 1140 0052 1A46     		mov	r2, r3
 1141 0054 07F22440 		addw	r0, r7, #1060
 1142 0058 2E4B     		ldr	r3, .L69+20
 1143 005a 0593     		str	r3, [sp, #20]
 1144 005c 0023     		movs	r3, #0
 1145 005e 0493     		str	r3, [sp, #16]
 1146 0060 2D4B     		ldr	r3, .L69+24
 1147 0062 0393     		str	r3, [sp, #12]
 1148 0064 2D4B     		ldr	r3, .L69+28
 1149 0066 0293     		str	r3, [sp, #8]
 1150 0068 2D4B     		ldr	r3, .L69+32
 1151 006a 0193     		str	r3, [sp, #4]
 1152 006c 0092     		str	r2, [sp]
 1153 006e D7F82438 		ldr	r3, [r7, #2084]
 1154 0072 2C4A     		ldr	r2, .L69+36
 1155 0074 2849     		ldr	r1, .L69+24
 1156 0076 FFF7FEFF 		bl	construct_generic_request
 1157              	.LBE2:
 1158 007a 2CE0     		b	.L68
 1159              	.L67:
 1160              	.LBB3:
 263:telit.c       ****             "GET","Close","",0,"1.1");  
 264:telit.c       ****     }
 265:telit.c       ****     else {
 266:telit.c       ****         char body[1024]={'\0'};
 1161              		.loc 1 266 0
 1162 007c 07F12403 		add	r3, r7, #36
 1163 0080 1846     		mov	r0, r3
 1164 0082 4FF48063 		mov	r3, #1024
 1165 0086 1A46     		mov	r2, r3
 1166 0088 0021     		movs	r1, #0
 1167 008a FFF7FEFF 		bl	memset
 267:telit.c       ****         char write_route[32]={'\0'};
 1168              		.loc 1 267 0
 1169 008e 3B1D     		adds	r3, r7, #4
 1170 0090 1846     		mov	r0, r3
ARM GAS  C:\Users\bk\AppData\Local\Temp\ccJDYvlx.s 			page 27


 1171 0092 2023     		movs	r3, #32
 1172 0094 1A46     		mov	r2, r3
 1173 0096 0021     		movs	r1, #0
 1174 0098 FFF7FEFF 		bl	memset
 268:telit.c       ****         sprintf(write_route,"write?db=%s",database);    
 1175              		.loc 1 268 0
 1176 009c 3B1D     		adds	r3, r7, #4
 1177 009e 1A4A     		ldr	r2, .L69+8
 1178 00a0 2149     		ldr	r1, .L69+40
 1179 00a2 1846     		mov	r0, r3
 1180 00a4 FFF7FEFF 		bl	sprintf
 269:telit.c       ****         construct_generic_request(send_str,body,main_host,write_route,main_port,
 1181              		.loc 1 269 0
 1182 00a8 194B     		ldr	r3, .L69+16
 1183 00aa 1B88     		ldrh	r3, [r3]
 1184 00ac 1C46     		mov	r4, r3
 1185 00ae 3A1D     		adds	r2, r7, #4
 1186 00b0 07F12401 		add	r1, r7, #36
 1187 00b4 07F22440 		addw	r0, r7, #1060
 1188 00b8 164B     		ldr	r3, .L69+20
 1189 00ba 0593     		str	r3, [sp, #20]
 1190 00bc 0023     		movs	r3, #0
 1191 00be 0493     		str	r3, [sp, #16]
 1192 00c0 154B     		ldr	r3, .L69+24
 1193 00c2 0393     		str	r3, [sp, #12]
 1194 00c4 154B     		ldr	r3, .L69+28
 1195 00c6 0293     		str	r3, [sp, #8]
 1196 00c8 184B     		ldr	r3, .L69+44
 1197 00ca 0193     		str	r3, [sp, #4]
 1198 00cc 0094     		str	r4, [sp]
 1199 00ce 1346     		mov	r3, r2
 1200 00d0 144A     		ldr	r2, .L69+36
 1201 00d2 FFF7FEFF 		bl	construct_generic_request
 1202              	.L68:
 1203              	.LBE3:
 270:telit.c       ****             "POST","Close","",0,"1.1");
 271:telit.c       ****         //avg_data_body.data_avg_status=0;        
 272:telit.c       ****     }
 273:telit.c       ****     sprintf(modem.expected_response,"SRING: 1");
 1204              		.loc 1 273 0
 1205 00d6 164A     		ldr	r2, .L69+48
 1206 00d8 164B     		ldr	r3, .L69+52
 1207 00da 03CB     		ldmia	r3!, {r0, r1}
 1208 00dc 1060     		str	r0, [r2]	@ unaligned
 1209 00de 5160     		str	r1, [r2, #4]	@ unaligned
 1210 00e0 1B78     		ldrb	r3, [r3]
 1211 00e2 1372     		strb	r3, [r2, #8]
 274:telit.c       ****     modem_send_at_command(send_str);    
 1212              		.loc 1 274 0
 1213 00e4 07F22443 		addw	r3, r7, #1060
 1214 00e8 1846     		mov	r0, r3
 1215 00ea FFF7FEFF 		bl	modem_send_at_command
 275:telit.c       ****     modem.modem_event=EVENT_SEND_MESSAGE;    
 1216              		.loc 1 275 0
 1217 00ee 124B     		ldr	r3, .L69+56
 1218 00f0 0B22     		movs	r2, #11
 1219 00f2 1A70     		strb	r2, [r3]
ARM GAS  C:\Users\bk\AppData\Local\Temp\ccJDYvlx.s 			page 28


 276:telit.c       **** }
 1220              		.loc 1 276 0
 1221 00f4 00BF     		nop
 1222 00f6 07F62C07 		addw	r7, r7, #2092
 1223              		.cfi_def_cfa_offset 12
 1224 00fa BD46     		mov	sp, r7
 1225              		.cfi_def_cfa_register 13
 1226              		@ sp needed
 1227 00fc 90BD     		pop	{r4, r7, pc}
 1228              	.L70:
 1229 00fe 00BF     		.align	2
 1230              	.L69:
 1231 0100 00000000 		.word	device_index
 1232 0104 00000000 		.word	MEID
 1233 0108 00000000 		.word	database
 1234 010c 8C000000 		.word	.LC13
 1235 0110 00000000 		.word	main_port
 1236 0114 C8000000 		.word	.LC15
 1237 0118 C4000000 		.word	.LC14
 1238 011c CC000000 		.word	.LC16
 1239 0120 D4000000 		.word	.LC17
 1240 0124 00000000 		.word	main_host
 1241 0128 D8000000 		.word	.LC18
 1242 012c E4000000 		.word	.LC19
 1243 0130 05000000 		.word	modem+5
 1244 0134 EC000000 		.word	.LC20
 1245 0138 00000000 		.word	modem
 1246              		.cfi_endproc
 1247              	.LFE81:
 1248              		.size	modem_scheduler_send_message, .-modem_scheduler_send_message
 1249              		.section	.rodata
 1250 00f5 000000   		.align	2
 1251              	.LC21:
 1252 00f8 41542353 		.ascii	"AT#SRECV=3,1500\015\000"
 1252      52454356 
 1252      3D332C31 
 1252      3530300D 
 1252      00
 1253 0109 000000   		.align	2
 1254              	.LC22:
 1255 010c 76616C75 		.ascii	"values\000"
 1255      657300
 1256              		.section	.text.modem_scheduler_receive_send_echo,"ax",%progbits
 1257              		.align	2
 1258              		.global	modem_scheduler_receive_send_echo
 1259              		.thumb
 1260              		.thumb_func
 1261              		.type	modem_scheduler_receive_send_echo, %function
 1262              	modem_scheduler_receive_send_echo:
 1263              	.LFB82:
 277:telit.c       **** 
 278:telit.c       **** void modem_scheduler_receive_send_echo(){
 1264              		.loc 1 278 0
 1265              		.cfi_startproc
 1266              		@ args = 0, pretend = 0, frame = 0
 1267              		@ frame_needed = 1, uses_anonymous_args = 0
 1268 0000 80B5     		push	{r7, lr}
ARM GAS  C:\Users\bk\AppData\Local\Temp\ccJDYvlx.s 			page 29


 1269              		.cfi_def_cfa_offset 8
 1270              		.cfi_offset 7, -8
 1271              		.cfi_offset 14, -4
 1272 0002 00AF     		add	r7, sp, #0
 1273              		.cfi_def_cfa_register 7
 279:telit.c       ****     modem_send_at_command("AT#SRECV=3,1500\r");
 1274              		.loc 1 279 0
 1275 0004 0D48     		ldr	r0, .L74
 1276 0006 FFF7FEFF 		bl	modem_send_at_command
 280:telit.c       ****     if(device_index[0]=='\0') sprintf(modem.expected_response,"values");
 1277              		.loc 1 280 0
 1278 000a 0D4B     		ldr	r3, .L74+4
 1279 000c 1B78     		ldrb	r3, [r3]	@ zero_extendqisi2
 1280 000e 002B     		cmp	r3, #0
 1281 0010 08D1     		bne	.L72
 1282              		.loc 1 280 0 is_stmt 0 discriminator 1
 1283 0012 0C4B     		ldr	r3, .L74+8
 1284 0014 0C4A     		ldr	r2, .L74+12
 1285 0016 1068     		ldr	r0, [r2]	@ unaligned
 1286 0018 1860     		str	r0, [r3]	@ unaligned
 1287 001a 9188     		ldrh	r1, [r2, #4]	@ unaligned
 1288 001c 9279     		ldrb	r2, [r2, #6]
 1289 001e 9980     		strh	r1, [r3, #4]	@ unaligned
 1290 0020 9A71     		strb	r2, [r3, #6]
 1291 0022 05E0     		b	.L73
 1292              	.L72:
 281:telit.c       ****     else sprintf(modem.expected_response,"OK");
 1293              		.loc 1 281 0 is_stmt 1
 1294 0024 074B     		ldr	r3, .L74+8
 1295 0026 094A     		ldr	r2, .L74+16
 1296 0028 1188     		ldrh	r1, [r2]	@ unaligned
 1297 002a 9278     		ldrb	r2, [r2, #2]
 1298 002c 1980     		strh	r1, [r3]	@ unaligned
 1299 002e 9A70     		strb	r2, [r3, #2]
 1300              	.L73:
 282:telit.c       ****     modem.modem_event=EVENT_RECEIVE_MESSAGE;
 1301              		.loc 1 282 0
 1302 0030 074B     		ldr	r3, .L74+20
 1303 0032 0C22     		movs	r2, #12
 1304 0034 1A70     		strb	r2, [r3]
 283:telit.c       **** }
 1305              		.loc 1 283 0
 1306 0036 00BF     		nop
 1307 0038 80BD     		pop	{r7, pc}
 1308              	.L75:
 1309 003a 00BF     		.align	2
 1310              	.L74:
 1311 003c F8000000 		.word	.LC21
 1312 0040 00000000 		.word	device_index
 1313 0044 05000000 		.word	modem+5
 1314 0048 0C010000 		.word	.LC22
 1315 004c 14000000 		.word	.LC2
 1316 0050 00000000 		.word	modem
 1317              		.cfi_endproc
 1318              	.LFE82:
 1319              		.size	modem_scheduler_receive_send_echo, .-modem_scheduler_receive_send_echo
 1320              		.section	.rodata
ARM GAS  C:\Users\bk\AppData\Local\Temp\ccJDYvlx.s 			page 30


 1321 0113 00       		.align	2
 1322              	.LC23:
 1323 0114 5D5D00   		.ascii	"]]\000"
 1324              		.section	.text.modem_scheduler_parse_http_response,"ax",%progbits
 1325              		.align	2
 1326              		.global	modem_scheduler_parse_http_response
 1327              		.thumb
 1328              		.thumb_func
 1329              		.type	modem_scheduler_parse_http_response, %function
 1330              	modem_scheduler_parse_http_response:
 1331              	.LFB83:
 284:telit.c       **** 
 285:telit.c       **** void modem_scheduler_parse_http_response(){
 1332              		.loc 1 285 0
 1333              		.cfi_startproc
 1334              		@ args = 0, pretend = 0, frame = 16
 1335              		@ frame_needed = 1, uses_anonymous_args = 0
 1336 0000 80B5     		push	{r7, lr}
 1337              		.cfi_def_cfa_offset 8
 1338              		.cfi_offset 7, -8
 1339              		.cfi_offset 14, -4
 1340 0002 84B0     		sub	sp, sp, #16
 1341              		.cfi_def_cfa_offset 24
 1342 0004 00AF     		add	r7, sp, #0
 1343              		.cfi_def_cfa_register 7
 286:telit.c       ****     modem.modem_event=EVENT_PARSE_MESSAGE;
 1344              		.loc 1 286 0
 1345 0006 294B     		ldr	r3, .L83
 1346 0008 0D22     		movs	r2, #13
 1347 000a 1A70     		strb	r2, [r3]
 287:telit.c       ****     if(device_index[0]=='\0'){
 1348              		.loc 1 287 0
 1349 000c 284B     		ldr	r3, .L83+4
 1350 000e 1B78     		ldrb	r3, [r3]	@ zero_extendqisi2
 1351 0010 002B     		cmp	r3, #0
 1352 0012 22D1     		bne	.L77
 1353              	.LBB4:
 288:telit.c       ****         char * pend=strstr(uart_received_string,"]]"),*pstart=pend;
 1354              		.loc 1 288 0
 1355 0014 2749     		ldr	r1, .L83+8
 1356 0016 2848     		ldr	r0, .L83+12
 1357 0018 FFF7FEFF 		bl	strstr
 1358 001c B860     		str	r0, [r7, #8]
 1359 001e BB68     		ldr	r3, [r7, #8]
 1360 0020 FB60     		str	r3, [r7, #12]
 289:telit.c       ****         while(*pstart!=',')pstart--;            
 1361              		.loc 1 289 0
 1362 0022 02E0     		b	.L78
 1363              	.L79:
 1364              		.loc 1 289 0 is_stmt 0 discriminator 2
 1365 0024 FB68     		ldr	r3, [r7, #12]
 1366 0026 013B     		subs	r3, r3, #1
 1367 0028 FB60     		str	r3, [r7, #12]
 1368              	.L78:
 1369              		.loc 1 289 0 discriminator 1
 1370 002a FB68     		ldr	r3, [r7, #12]
 1371 002c 1B78     		ldrb	r3, [r3]	@ zero_extendqisi2
ARM GAS  C:\Users\bk\AppData\Local\Temp\ccJDYvlx.s 			page 31


 1372 002e 2C2B     		cmp	r3, #44
 1373 0030 F8D1     		bne	.L79
 290:telit.c       ****         pstart++;
 1374              		.loc 1 290 0 is_stmt 1
 1375 0032 FB68     		ldr	r3, [r7, #12]
 1376 0034 0133     		adds	r3, r3, #1
 1377 0036 FB60     		str	r3, [r7, #12]
 291:telit.c       ****         *pend='\0';            
 1378              		.loc 1 291 0
 1379 0038 BB68     		ldr	r3, [r7, #8]
 1380 003a 0022     		movs	r2, #0
 1381 003c 1A70     		strb	r2, [r3]
 292:telit.c       ****         sprintf(device_index,"%s",pstart);
 1382              		.loc 1 292 0
 1383 003e F968     		ldr	r1, [r7, #12]
 1384 0040 1B48     		ldr	r0, .L83+4
 1385 0042 FFF7FEFF 		bl	strcpy
 293:telit.c       ****         modem.modem_state=STATE_ECHO_CORRECT;
 1386              		.loc 1 293 0
 1387 0046 194B     		ldr	r3, .L83
 1388 0048 0122     		movs	r2, #1
 1389 004a 5A70     		strb	r2, [r3, #1]
 294:telit.c       ****         memset(uart_received_string,'\0',sizeof(uart_received_string));
 1390              		.loc 1 294 0
 1391 004c 4FF48062 		mov	r2, #1024
 1392 0050 0021     		movs	r1, #0
 1393 0052 1948     		ldr	r0, .L83+12
 1394 0054 FFF7FEFF 		bl	memset
 295:telit.c       ****         return;
 1395              		.loc 1 295 0
 1396 0058 25E0     		b	.L76
 1397              	.L77:
 1398              	.LBE4:
 296:telit.c       ****     }
 297:telit.c       ****       
 298:telit.c       ****     char status_code[5]={'\0'};
 1399              		.loc 1 298 0
 1400 005a 3B46     		mov	r3, r7
 1401 005c 0022     		movs	r2, #0
 1402 005e 1A60     		str	r2, [r3]
 1403 0060 1A71     		strb	r2, [r3, #4]
 299:telit.c       ****     parse_http_status(uart_received_string, (char*) NULL, status_code, (char*) NULL);
 1404              		.loc 1 299 0
 1405 0062 3A46     		mov	r2, r7
 1406 0064 0023     		movs	r3, #0
 1407 0066 0021     		movs	r1, #0
 1408 0068 1348     		ldr	r0, .L83+12
 1409 006a FFF7FEFF 		bl	parse_http_status
 300:telit.c       ****     if(status_code[0]!='2'){
 1410              		.loc 1 300 0
 1411 006e 3B78     		ldrb	r3, [r7]	@ zero_extendqisi2
 1412 0070 322B     		cmp	r3, #50
 1413 0072 0FD0     		beq	.L81
 301:telit.c       ****         modem.transaction_error_counter++; 
 1414              		.loc 1 301 0
 1415 0074 0D4B     		ldr	r3, .L83
 1416 0076 1B79     		ldrb	r3, [r3, #4]	@ zero_extendqisi2
ARM GAS  C:\Users\bk\AppData\Local\Temp\ccJDYvlx.s 			page 32


 1417 0078 0133     		adds	r3, r3, #1
 1418 007a DAB2     		uxtb	r2, r3
 1419 007c 0B4B     		ldr	r3, .L83
 1420 007e 1A71     		strb	r2, [r3, #4]
 302:telit.c       ****         if(modem.transaction_error_counter>=3){
 1421              		.loc 1 302 0
 1422 0080 0A4B     		ldr	r3, .L83
 1423 0082 1B79     		ldrb	r3, [r3, #4]	@ zero_extendqisi2
 1424 0084 022B     		cmp	r3, #2
 1425 0086 05D9     		bls	.L81
 303:telit.c       ****             modem.transaction_error_counter=0;
 1426              		.loc 1 303 0
 1427 0088 084B     		ldr	r3, .L83
 1428 008a 0022     		movs	r2, #0
 1429 008c 1A71     		strb	r2, [r3, #4]
 304:telit.c       ****             modem.modem_event=EVENT_CHECK_UART;/* check network again*/
 1430              		.loc 1 304 0
 1431 008e 074B     		ldr	r3, .L83
 1432 0090 0022     		movs	r2, #0
 1433 0092 1A70     		strb	r2, [r3]
 1434              	.L81:
 305:telit.c       ****         }
 306:telit.c       ****     }
 307:telit.c       ****     modem.modem_state=STATE_ECHO_CORRECT;
 1435              		.loc 1 307 0
 1436 0094 054B     		ldr	r3, .L83
 1437 0096 0122     		movs	r2, #1
 1438 0098 5A70     		strb	r2, [r3, #1]
 308:telit.c       ****     memset(uart_received_string,'\0',sizeof(uart_received_string));
 1439              		.loc 1 308 0
 1440 009a 4FF48062 		mov	r2, #1024
 1441 009e 0021     		movs	r1, #0
 1442 00a0 0548     		ldr	r0, .L83+12
 1443 00a2 FFF7FEFF 		bl	memset
 1444              	.L76:
 309:telit.c       **** }
 1445              		.loc 1 309 0
 1446 00a6 1037     		adds	r7, r7, #16
 1447              		.cfi_def_cfa_offset 8
 1448 00a8 BD46     		mov	sp, r7
 1449              		.cfi_def_cfa_register 13
 1450              		@ sp needed
 1451 00aa 80BD     		pop	{r7, pc}
 1452              	.L84:
 1453              		.align	2
 1454              	.L83:
 1455 00ac 00000000 		.word	modem
 1456 00b0 00000000 		.word	device_index
 1457 00b4 14010000 		.word	.LC23
 1458 00b8 00000000 		.word	uart_received_string
 1459              		.cfi_endproc
 1460              	.LFE83:
 1461              		.size	modem_scheduler_parse_http_response, .-modem_scheduler_parse_http_response
 1462              		.section	.rodata
 1463 0117 00       		.align	2
 1464              	.LC24:
 1465 0118 41542353 		.ascii	"AT#SH=3\015\000"
ARM GAS  C:\Users\bk\AppData\Local\Temp\ccJDYvlx.s 			page 33


 1465      483D330D 
 1465      00
 1466              		.section	.text.modem_scheduler_close_socket,"ax",%progbits
 1467              		.align	2
 1468              		.global	modem_scheduler_close_socket
 1469              		.thumb
 1470              		.thumb_func
 1471              		.type	modem_scheduler_close_socket, %function
 1472              	modem_scheduler_close_socket:
 1473              	.LFB84:
 310:telit.c       **** 
 311:telit.c       **** void modem_scheduler_close_socket(){
 1474              		.loc 1 311 0
 1475              		.cfi_startproc
 1476              		@ args = 0, pretend = 0, frame = 0
 1477              		@ frame_needed = 1, uses_anonymous_args = 0
 1478 0000 80B5     		push	{r7, lr}
 1479              		.cfi_def_cfa_offset 8
 1480              		.cfi_offset 7, -8
 1481              		.cfi_offset 14, -4
 1482 0002 00AF     		add	r7, sp, #0
 1483              		.cfi_def_cfa_register 7
 312:telit.c       ****     modem_send_at_command("AT#SH=3\r");
 1484              		.loc 1 312 0
 1485 0004 0B48     		ldr	r0, .L88
 1486 0006 FFF7FEFF 		bl	modem_send_at_command
 313:telit.c       ****     sprintf(modem.expected_response,"OK");
 1487              		.loc 1 313 0
 1488 000a 0B4B     		ldr	r3, .L88+4
 1489 000c 0B4A     		ldr	r2, .L88+8
 1490 000e 1188     		ldrh	r1, [r2]	@ unaligned
 1491 0010 9278     		ldrb	r2, [r2, #2]
 1492 0012 1980     		strh	r1, [r3]	@ unaligned
 1493 0014 9A70     		strb	r2, [r3, #2]
 314:telit.c       ****     modem.modem_event=EVENT_CLOSE_SOCKET;
 1494              		.loc 1 314 0
 1495 0016 0A4B     		ldr	r3, .L88+12
 1496 0018 0E22     		movs	r2, #14
 1497 001a 1A70     		strb	r2, [r3]
 315:telit.c       ****     
 316:telit.c       ****     if(modem.transaction_error_counter>=3){
 1498              		.loc 1 316 0
 1499 001c 084B     		ldr	r3, .L88+12
 1500 001e 1B79     		ldrb	r3, [r3, #4]	@ zero_extendqisi2
 1501 0020 022B     		cmp	r3, #2
 1502 0022 05D9     		bls	.L87
 317:telit.c       ****         modem.transaction_error_counter=0;
 1503              		.loc 1 317 0
 1504 0024 064B     		ldr	r3, .L88+12
 1505 0026 0022     		movs	r2, #0
 1506 0028 1A71     		strb	r2, [r3, #4]
 318:telit.c       ****         modem.modem_event=EVENT_CHECK_NETWORK;       
 1507              		.loc 1 318 0
 1508 002a 054B     		ldr	r3, .L88+12
 1509 002c 0122     		movs	r2, #1
 1510 002e 1A70     		strb	r2, [r3]
 1511              	.L87:
ARM GAS  C:\Users\bk\AppData\Local\Temp\ccJDYvlx.s 			page 34


 319:telit.c       ****     }
 320:telit.c       ****     
 321:telit.c       **** }
 1512              		.loc 1 321 0
 1513 0030 00BF     		nop
 1514 0032 80BD     		pop	{r7, pc}
 1515              	.L89:
 1516              		.align	2
 1517              	.L88:
 1518 0034 18010000 		.word	.LC24
 1519 0038 05000000 		.word	modem+5
 1520 003c 14000000 		.word	.LC2
 1521 0040 00000000 		.word	modem
 1522              		.cfi_endproc
 1523              	.LFE84:
 1524              		.size	modem_scheduler_close_socket, .-modem_scheduler_close_socket
 1525              		.section	.text.modem_check_action,"ax",%progbits
 1526              		.align	2
 1527              		.global	modem_check_action
 1528              		.thumb
 1529              		.thumb_func
 1530              		.type	modem_check_action, %function
 1531              	modem_check_action:
 1532              	.LFB85:
 322:telit.c       **** 
 323:telit.c       **** void modem_check_action(){    
 1533              		.loc 1 323 0
 1534              		.cfi_startproc
 1535              		@ args = 0, pretend = 0, frame = 8
 1536              		@ frame_needed = 1, uses_anonymous_args = 0
 1537              		@ link register save eliminated.
 1538 0000 80B4     		push	{r7}
 1539              		.cfi_def_cfa_offset 4
 1540              		.cfi_offset 7, -4
 1541 0002 83B0     		sub	sp, sp, #12
 1542              		.cfi_def_cfa_offset 16
 1543 0004 00AF     		add	r7, sp, #0
 1544              		.cfi_def_cfa_register 7
 324:telit.c       ****     uint8_t i=0;    
 1545              		.loc 1 324 0
 1546 0006 0023     		movs	r3, #0
 1547 0008 FB71     		strb	r3, [r7, #7]
 325:telit.c       ****     while((modem.modem_event!=EVENT_NODE_LIST[i].modem_event)
 1548              		.loc 1 325 0
 1549 000a 02E0     		b	.L91
 1550              	.L92:
 326:telit.c       ****     ||(modem.modem_state!=EVENT_NODE_LIST[i].modem_state))i++;
 1551              		.loc 1 326 0 discriminator 1
 1552 000c FB79     		ldrb	r3, [r7, #7]	@ zero_extendqisi2
 1553 000e 0133     		adds	r3, r3, #1
 1554 0010 FB71     		strb	r3, [r7, #7]
 1555              	.L91:
 325:telit.c       ****     while((modem.modem_event!=EVENT_NODE_LIST[i].modem_event)
 1556              		.loc 1 325 0
 1557 0012 134B     		ldr	r3, .L93
 1558 0014 1978     		ldrb	r1, [r3]	@ zero_extendqisi2
 1559 0016 FA79     		ldrb	r2, [r7, #7]	@ zero_extendqisi2
ARM GAS  C:\Users\bk\AppData\Local\Temp\ccJDYvlx.s 			page 35


 1560 0018 1248     		ldr	r0, .L93+4
 1561 001a 1346     		mov	r3, r2
 1562 001c 5B00     		lsls	r3, r3, #1
 1563 001e 1344     		add	r3, r3, r2
 1564 0020 0344     		add	r3, r3, r0
 1565 0022 1B78     		ldrb	r3, [r3]	@ zero_extendqisi2
 1566 0024 9942     		cmp	r1, r3
 1567 0026 F1D1     		bne	.L92
 1568              		.loc 1 326 0
 1569 0028 0D4B     		ldr	r3, .L93
 1570 002a 5978     		ldrb	r1, [r3, #1]	@ zero_extendqisi2
 1571 002c FA79     		ldrb	r2, [r7, #7]	@ zero_extendqisi2
 1572 002e 0D48     		ldr	r0, .L93+4
 1573 0030 1346     		mov	r3, r2
 1574 0032 5B00     		lsls	r3, r3, #1
 1575 0034 1344     		add	r3, r3, r2
 1576 0036 0344     		add	r3, r3, r0
 1577 0038 0133     		adds	r3, r3, #1
 1578 003a 1B78     		ldrb	r3, [r3]	@ zero_extendqisi2
 1579 003c 9942     		cmp	r1, r3
 1580 003e E5D1     		bne	.L92
 327:telit.c       ****     modem.modem_action=EVENT_NODE_LIST[i].modem_action;    
 1581              		.loc 1 327 0
 1582 0040 FA79     		ldrb	r2, [r7, #7]	@ zero_extendqisi2
 1583 0042 0849     		ldr	r1, .L93+4
 1584 0044 1346     		mov	r3, r2
 1585 0046 5B00     		lsls	r3, r3, #1
 1586 0048 1344     		add	r3, r3, r2
 1587 004a 0B44     		add	r3, r3, r1
 1588 004c 0233     		adds	r3, r3, #2
 1589 004e 1A78     		ldrb	r2, [r3]	@ zero_extendqisi2
 1590 0050 034B     		ldr	r3, .L93
 1591 0052 9A70     		strb	r2, [r3, #2]
 328:telit.c       **** }
 1592              		.loc 1 328 0
 1593 0054 00BF     		nop
 1594 0056 0C37     		adds	r7, r7, #12
 1595              		.cfi_def_cfa_offset 4
 1596 0058 BD46     		mov	sp, r7
 1597              		.cfi_def_cfa_register 13
 1598              		@ sp needed
 1599 005a 80BC     		pop	{r7}
 1600              		.cfi_restore 7
 1601              		.cfi_def_cfa_offset 0
 1602 005c 7047     		bx	lr
 1603              	.L94:
 1604 005e 00BF     		.align	2
 1605              	.L93:
 1606 0060 00000000 		.word	modem
 1607 0064 00000000 		.word	EVENT_NODE_LIST
 1608              		.cfi_endproc
 1609              	.LFE85:
 1610              		.size	modem_check_action, .-modem_check_action
 1611              		.section	.text.modem_select_action,"ax",%progbits
 1612              		.align	2
 1613              		.global	modem_select_action
 1614              		.thumb
ARM GAS  C:\Users\bk\AppData\Local\Temp\ccJDYvlx.s 			page 36


 1615              		.thumb_func
 1616              		.type	modem_select_action, %function
 1617              	modem_select_action:
 1618              	.LFB86:
 329:telit.c       **** 
 330:telit.c       **** void modem_select_action(){
 1619              		.loc 1 330 0
 1620              		.cfi_startproc
 1621              		@ args = 0, pretend = 0, frame = 0
 1622              		@ frame_needed = 1, uses_anonymous_args = 0
 1623 0000 80B5     		push	{r7, lr}
 1624              		.cfi_def_cfa_offset 8
 1625              		.cfi_offset 7, -8
 1626              		.cfi_offset 14, -4
 1627 0002 00AF     		add	r7, sp, #0
 1628              		.cfi_def_cfa_register 7
 331:telit.c       ****     modem_check_action();
 1629              		.loc 1 331 0
 1630 0004 FFF7FEFF 		bl	modem_check_action
 332:telit.c       ****     switch(modem.modem_action){
 1631              		.loc 1 332 0
 1632 0008 2C4B     		ldr	r3, .L115
 1633 000a 9B78     		ldrb	r3, [r3, #2]	@ zero_extendqisi2
 1634 000c 0F2B     		cmp	r3, #15
 1635 000e 53D8     		bhi	.L114
 1636 0010 01A2     		adr	r2, .L98
 1637 0012 52F823F0 		ldr	pc, [r2, r3, lsl #2]
 1638 0016 00BF     		.p2align 2
 1639              	.L98:
 1640 0018 6B000000 		.word	.L97+1
 1641 001c 71000000 		.word	.L99+1
 1642 0020 77000000 		.word	.L100+1
 1643 0024 7D000000 		.word	.L101+1
 1644 0028 83000000 		.word	.L102+1
 1645 002c 89000000 		.word	.L103+1
 1646 0030 8F000000 		.word	.L104+1
 1647 0034 95000000 		.word	.L105+1
 1648 0038 65000000 		.word	.L106+1
 1649 003c 5F000000 		.word	.L107+1
 1650 0040 59000000 		.word	.L108+1
 1651 0044 9B000000 		.word	.L109+1
 1652 0048 A1000000 		.word	.L110+1
 1653 004c A7000000 		.word	.L111+1
 1654 0050 AD000000 		.word	.L112+1
 1655 0054 B3000000 		.word	.L113+1
 1656              		.p2align 1
 1657              	.L108:
 333:telit.c       ****         
 334:telit.c       ****         case ACTION_CHECK_DEVICE_INDEX:
 335:telit.c       ****         modem_check_device_index();
 1658              		.loc 1 335 0
 1659 0058 FFF7FEFF 		bl	modem_check_device_index
 336:telit.c       ****         break;
 1660              		.loc 1 336 0
 1661 005c 2CE0     		b	.L96
 1662              	.L107:
 337:telit.c       ****         
ARM GAS  C:\Users\bk\AppData\Local\Temp\ccJDYvlx.s 			page 37


 338:telit.c       ****         case ACTION_REQUEST_MEID:
 339:telit.c       ****         modem_scheduler_request_meid();
 1663              		.loc 1 339 0
 1664 005e FFF7FEFF 		bl	modem_scheduler_request_meid
 340:telit.c       ****         break;
 1665              		.loc 1 340 0
 1666 0062 29E0     		b	.L96
 1667              	.L106:
 341:telit.c       ****             
 342:telit.c       ****         case ACTION_INQUIRE_INDEX:
 343:telit.c       ****         modem_scheduler_init_index();
 1668              		.loc 1 343 0
 1669 0064 FFF7FEFF 		bl	modem_scheduler_init_index
 344:telit.c       ****         break;
 1670              		.loc 1 344 0
 1671 0068 26E0     		b	.L96
 1672              	.L97:
 345:telit.c       ****         
 346:telit.c       ****         case ACTION_REQUEST_TIME:
 347:telit.c       ****         modem_scheduler_request_time();
 1673              		.loc 1 347 0
 1674 006a FFF7FEFF 		bl	modem_scheduler_request_time
 348:telit.c       ****         break;
 1675              		.loc 1 348 0
 1676 006e 23E0     		b	.L96
 1677              	.L99:
 349:telit.c       ****         
 350:telit.c       ****         case ACTION_PARSE_TIME:
 351:telit.c       ****         modem_scheduler_adjust_system_time();
 1678              		.loc 1 351 0
 1679 0070 FFF7FEFF 		bl	modem_scheduler_adjust_system_time
 352:telit.c       ****         break;
 1680              		.loc 1 352 0
 1681 0074 20E0     		b	.L96
 1682              	.L100:
 353:telit.c       ****         
 354:telit.c       ****         case ACTION_CHECK_NETWORK:
 355:telit.c       ****         modem_scheduler_check_network();
 1683              		.loc 1 355 0
 1684 0076 FFF7FEFF 		bl	modem_scheduler_check_network
 356:telit.c       ****         break;
 1685              		.loc 1 356 0
 1686 007a 1DE0     		b	.L96
 1687              	.L101:
 357:telit.c       ****         
 358:telit.c       ****         case ACTION_CHECK_PDP:
 359:telit.c       ****         modem_scheduler_check_PDP();
 1688              		.loc 1 359 0
 1689 007c FFF7FEFF 		bl	modem_scheduler_check_PDP
 360:telit.c       ****         break;
 1690              		.loc 1 360 0
 1691 0080 1AE0     		b	.L96
 1692              	.L102:
 361:telit.c       ****      
 362:telit.c       ****         case ACTION_ACTIVATE_PDP:
 363:telit.c       ****         modem_scheduler_activate_PDP();
 1693              		.loc 1 363 0
ARM GAS  C:\Users\bk\AppData\Local\Temp\ccJDYvlx.s 			page 38


 1694 0082 FFF7FEFF 		bl	modem_scheduler_activate_PDP
 364:telit.c       ****         break;                
 1695              		.loc 1 364 0
 1696 0086 17E0     		b	.L96
 1697              	.L103:
 365:telit.c       ****         
 366:telit.c       ****         case ACTION_SOCKET_DIAL:
 367:telit.c       ****         modem_scheduler_socket_dial();
 1698              		.loc 1 367 0
 1699 0088 FFF7FEFF 		bl	modem_scheduler_socket_dial
 368:telit.c       ****         break;
 1700              		.loc 1 368 0
 1701 008c 14E0     		b	.L96
 1702              	.L104:
 369:telit.c       ****         
 370:telit.c       ****         case ACTION_REQUEST_SOCKET_STATUS:
 371:telit.c       ****         modem_scheduler_socket_status();
 1703              		.loc 1 371 0
 1704 008e FFF7FEFF 		bl	modem_scheduler_socket_status
 372:telit.c       ****         break;
 1705              		.loc 1 372 0
 1706 0092 11E0     		b	.L96
 1707              	.L105:
 373:telit.c       ****         
 374:telit.c       ****         case ACTION_PARSE_SOCKET_STATUS:
 375:telit.c       ****         parse_socket_status();
 1708              		.loc 1 375 0
 1709 0094 FFF7FEFF 		bl	parse_socket_status
 376:telit.c       ****         break;
 1710              		.loc 1 376 0
 1711 0098 0EE0     		b	.L96
 1712              	.L109:
 377:telit.c       ****                 
 378:telit.c       ****         case ACTION_INIT_SEND:
 379:telit.c       ****         modem_scheduler_init_send();
 1713              		.loc 1 379 0
 1714 009a FFF7FEFF 		bl	modem_scheduler_init_send
 380:telit.c       ****         break;
 1715              		.loc 1 380 0
 1716 009e 0BE0     		b	.L96
 1717              	.L110:
 381:telit.c       ****         
 382:telit.c       ****         case ACTION_SEND_STRING:
 383:telit.c       ****         modem_scheduler_send_message();
 1718              		.loc 1 383 0
 1719 00a0 FFF7FEFF 		bl	modem_scheduler_send_message
 384:telit.c       ****         break;
 1720              		.loc 1 384 0
 1721 00a4 08E0     		b	.L96
 1722              	.L111:
 385:telit.c       ****         
 386:telit.c       ****         case ACTION_RECEIVE_MESSAGE:
 387:telit.c       ****         modem_scheduler_receive_send_echo();
 1723              		.loc 1 387 0
 1724 00a6 FFF7FEFF 		bl	modem_scheduler_receive_send_echo
 388:telit.c       ****         break;
 1725              		.loc 1 388 0
ARM GAS  C:\Users\bk\AppData\Local\Temp\ccJDYvlx.s 			page 39


 1726 00aa 05E0     		b	.L96
 1727              	.L112:
 389:telit.c       ****         
 390:telit.c       ****         case ACTION_PARSE_MESSAGE:
 391:telit.c       ****         modem_scheduler_parse_http_response();
 1728              		.loc 1 391 0
 1729 00ac FFF7FEFF 		bl	modem_scheduler_parse_http_response
 392:telit.c       ****         break;
 1730              		.loc 1 392 0
 1731 00b0 02E0     		b	.L96
 1732              	.L113:
 393:telit.c       ****         
 394:telit.c       ****         case ACTION_CLOSE_SOCKET:
 395:telit.c       ****         modem_scheduler_close_socket();
 1733              		.loc 1 395 0
 1734 00b2 FFF7FEFF 		bl	modem_scheduler_close_socket
 396:telit.c       ****         break;                
 1735              		.loc 1 396 0
 1736 00b6 00BF     		nop
 1737              	.L96:
 1738              	.L114:
 397:telit.c       ****     }
 398:telit.c       **** }
 1739              		.loc 1 398 0
 1740 00b8 00BF     		nop
 1741 00ba 80BD     		pop	{r7, pc}
 1742              	.L116:
 1743              		.align	2
 1744              	.L115:
 1745 00bc 00000000 		.word	modem
 1746              		.cfi_endproc
 1747              	.LFE86:
 1748              		.size	modem_select_action, .-modem_select_action
 1749              		.section	.text.modem_check_state,"ax",%progbits
 1750              		.align	2
 1751              		.global	modem_check_state
 1752              		.thumb
 1753              		.thumb_func
 1754              		.type	modem_check_state, %function
 1755              	modem_check_state:
 1756              	.LFB87:
 399:telit.c       **** 
 400:telit.c       **** void modem_check_state(){
 1757              		.loc 1 400 0
 1758              		.cfi_startproc
 1759              		@ args = 0, pretend = 0, frame = 0
 1760              		@ frame_needed = 1, uses_anonymous_args = 0
 1761 0000 80B5     		push	{r7, lr}
 1762              		.cfi_def_cfa_offset 8
 1763              		.cfi_offset 7, -8
 1764              		.cfi_offset 14, -4
 1765 0002 00AF     		add	r7, sp, #0
 1766              		.cfi_def_cfa_register 7
 401:telit.c       ****     switch(modem.modem_state){
 1767              		.loc 1 401 0
 1768 0004 0E4B     		ldr	r3, .L125
 1769 0006 5B78     		ldrb	r3, [r3, #1]	@ zero_extendqisi2
ARM GAS  C:\Users\bk\AppData\Local\Temp\ccJDYvlx.s 			page 40


 1770 0008 032B     		cmp	r3, #3
 1771 000a 17D8     		bhi	.L124
 1772 000c 01A2     		adr	r2, .L120
 1773 000e 52F823F0 		ldr	pc, [r2, r3, lsl #2]
 1774 0012 00BF     		.p2align 2
 1775              	.L120:
 1776 0014 25000000 		.word	.L119+1
 1777 0018 37000000 		.word	.L121+1
 1778 001c 2B000000 		.word	.L122+1
 1779 0020 31000000 		.word	.L123+1
 1780              		.p2align 1
 1781              	.L119:
 402:telit.c       ****         case STATE_AT_CMD_SENT:
 403:telit.c       ****         modem_compare_echo();
 1782              		.loc 1 403 0
 1783 0024 FFF7FEFF 		bl	modem_compare_echo
 404:telit.c       ****         break;
 1784              		.loc 1 404 0
 1785 0028 08E0     		b	.L118
 1786              	.L122:
 405:telit.c       ****         
 406:telit.c       ****         case STATE_ECHO_NOT_FOUND:
 407:telit.c       ****         modem_compare_echo();
 1787              		.loc 1 407 0
 1788 002a FFF7FEFF 		bl	modem_compare_echo
 408:telit.c       ****         break;
 1789              		.loc 1 408 0
 1790 002e 05E0     		b	.L118
 1791              	.L123:
 409:telit.c       ****         
 410:telit.c       ****         case STATE_ECHO_TIMEOUT:
 411:telit.c       ****         //sprintf(SD_Buffer,"%s%s",SD_Buffer,uart_received_string);          
 412:telit.c       ****         modem_select_action();
 1792              		.loc 1 412 0
 1793 0030 FFF7FEFF 		bl	modem_select_action
 413:telit.c       ****         break;
 1794              		.loc 1 413 0
 1795 0034 02E0     		b	.L118
 1796              	.L121:
 414:telit.c       ****         
 415:telit.c       ****         case STATE_ECHO_CORRECT:
 416:telit.c       ****         //sprintf(SD_Buffer,"%s%s",SD_Buffer,uart_received_string); 
 417:telit.c       ****         modem_select_action();
 1797              		.loc 1 417 0
 1798 0036 FFF7FEFF 		bl	modem_select_action
 418:telit.c       ****         break;        
 1799              		.loc 1 418 0
 1800 003a 00BF     		nop
 1801              	.L118:
 1802              	.L124:
 419:telit.c       ****     }
 420:telit.c       **** }
 1803              		.loc 1 420 0
 1804 003c 00BF     		nop
 1805 003e 80BD     		pop	{r7, pc}
 1806              	.L126:
 1807              		.align	2
ARM GAS  C:\Users\bk\AppData\Local\Temp\ccJDYvlx.s 			page 41


 1808              	.L125:
 1809 0040 00000000 		.word	modem
 1810              		.cfi_endproc
 1811              	.LFE87:
 1812              		.size	modem_check_state, .-modem_check_state
 1813              		.section	.text.at_write_command,"ax",%progbits
 1814              		.align	2
 1815              		.global	at_write_command
 1816              		.thumb
 1817              		.thumb_func
 1818              		.type	at_write_command, %function
 1819              	at_write_command:
 1820              	.LFB88:
 421:telit.c       **** 
 422:telit.c       **** uint8_t at_write_command(char* commands, char* expected_response,uint32_t timeout){
 1821              		.loc 1 422 0
 1822              		.cfi_startproc
 1823              		@ args = 0, pretend = 0, frame = 40
 1824              		@ frame_needed = 1, uses_anonymous_args = 0
 1825 0000 80B5     		push	{r7, lr}
 1826              		.cfi_def_cfa_offset 8
 1827              		.cfi_offset 7, -8
 1828              		.cfi_offset 14, -4
 1829 0002 8AB0     		sub	sp, sp, #40
 1830              		.cfi_def_cfa_offset 48
 1831 0004 00AF     		add	r7, sp, #0
 1832              		.cfi_def_cfa_register 7
 1833 0006 F860     		str	r0, [r7, #12]
 1834 0008 B960     		str	r1, [r7, #8]
 1835 000a 7A60     		str	r2, [r7, #4]
 423:telit.c       **** 
 424:telit.c       ****     uint32 at_attempt = 0;
 1836              		.loc 1 424 0
 1837 000c 0023     		movs	r3, #0
 1838 000e 7B62     		str	r3, [r7, #36]
 425:telit.c       ****     
 426:telit.c       ****     for(at_attempt = 0; at_attempt < 3; at_attempt++) {
 1839              		.loc 1 426 0
 1840 0010 0023     		movs	r3, #0
 1841 0012 7B62     		str	r3, [r7, #36]
 1842 0014 28E0     		b	.L128
 1843              	.L133:
 1844              	.LBB5:
 427:telit.c       ****         
 428:telit.c       ****         char* compare_location;
 429:telit.c       ****         uint32_t delay=10;
 1845              		.loc 1 429 0
 1846 0016 0A23     		movs	r3, #10
 1847 0018 FB61     		str	r3, [r7, #28]
 430:telit.c       ****         uint32_t i, interval=timeout/delay;        
 1848              		.loc 1 430 0
 1849 001a 7A68     		ldr	r2, [r7, #4]
 1850 001c FB69     		ldr	r3, [r7, #28]
 1851 001e B2FBF3F3 		udiv	r3, r2, r3
 1852 0022 BB61     		str	r3, [r7, #24]
 431:telit.c       ****         
 432:telit.c       ****         uart_string_reset();
ARM GAS  C:\Users\bk\AppData\Local\Temp\ccJDYvlx.s 			page 42


 1853              		.loc 1 432 0
 1854 0024 FFF7FEFF 		bl	uart_string_reset
 433:telit.c       ****         UART_Telit_PutString(commands);
 1855              		.loc 1 433 0
 1856 0028 F868     		ldr	r0, [r7, #12]
 1857 002a FFF7FEFF 		bl	UART_Telit_PutString
 434:telit.c       ****         for(i=0;i<interval;i++){        
 1858              		.loc 1 434 0
 1859 002e 0023     		movs	r3, #0
 1860 0030 3B62     		str	r3, [r7, #32]
 1861 0032 0FE0     		b	.L129
 1862              	.L132:
 435:telit.c       ****             compare_location=strstr(uart_received_string,expected_response);        
 1863              		.loc 1 435 0
 1864 0034 B968     		ldr	r1, [r7, #8]
 1865 0036 1048     		ldr	r0, .L134
 1866 0038 FFF7FEFF 		bl	strstr
 1867 003c 7861     		str	r0, [r7, #20]
 436:telit.c       ****             if(compare_location!=NULL) {
 1868              		.loc 1 436 0
 1869 003e 7B69     		ldr	r3, [r7, #20]
 1870 0040 002B     		cmp	r3, #0
 1871 0042 01D0     		beq	.L130
 437:telit.c       ****                 //sprintf(SD_Buffer,"%s%s",SD_Buffer,uart_received_string); 
 438:telit.c       ****                 //strip newline characters and other stuff
 439:telit.c       ****                 //stripEscapeCharacters(uart_received_string);
 440:telit.c       ****                 //printNotif("Modem Received: %s\r\n", uart_received_string);
 441:telit.c       ****                 return(1);
 1872              		.loc 1 441 0
 1873 0044 0123     		movs	r3, #1
 1874 0046 13E0     		b	.L131
 1875              	.L130:
 442:telit.c       ****             }
 443:telit.c       ****             CyDelay((uint32) delay);
 1876              		.loc 1 443 0 discriminator 2
 1877 0048 F869     		ldr	r0, [r7, #28]
 1878 004a FFF7FEFF 		bl	CyDelay
 434:telit.c       ****             compare_location=strstr(uart_received_string,expected_response);        
 1879              		.loc 1 434 0 discriminator 2
 1880 004e 3B6A     		ldr	r3, [r7, #32]
 1881 0050 0133     		adds	r3, r3, #1
 1882 0052 3B62     		str	r3, [r7, #32]
 1883              	.L129:
 434:telit.c       ****             compare_location=strstr(uart_received_string,expected_response);        
 1884              		.loc 1 434 0 is_stmt 0 discriminator 1
 1885 0054 3A6A     		ldr	r2, [r7, #32]
 1886 0056 BB69     		ldr	r3, [r7, #24]
 1887 0058 9A42     		cmp	r2, r3
 1888 005a EBD3     		bcc	.L132
 444:telit.c       ****         }   
 445:telit.c       ****         CyDelay((uint32) delay);
 1889              		.loc 1 445 0 is_stmt 1 discriminator 2
 1890 005c F869     		ldr	r0, [r7, #28]
 1891 005e FFF7FEFF 		bl	CyDelay
 1892              	.LBE5:
 426:telit.c       ****         
 1893              		.loc 1 426 0 discriminator 2
ARM GAS  C:\Users\bk\AppData\Local\Temp\ccJDYvlx.s 			page 43


 1894 0062 7B6A     		ldr	r3, [r7, #36]
 1895 0064 0133     		adds	r3, r3, #1
 1896 0066 7B62     		str	r3, [r7, #36]
 1897              	.L128:
 426:telit.c       ****         
 1898              		.loc 1 426 0 is_stmt 0 discriminator 1
 1899 0068 7B6A     		ldr	r3, [r7, #36]
 1900 006a 022B     		cmp	r3, #2
 1901 006c D3D9     		bls	.L133
 446:telit.c       ****         //sprintf(SD_Buffer,"%s%s",SD_Buffer,uart_received_string);
 447:telit.c       ****     }
 448:telit.c       ****     return(0);    
 1902              		.loc 1 448 0 is_stmt 1
 1903 006e 0023     		movs	r3, #0
 1904              	.L131:
 449:telit.c       **** }
 1905              		.loc 1 449 0
 1906 0070 1846     		mov	r0, r3
 1907 0072 2837     		adds	r7, r7, #40
 1908              		.cfi_def_cfa_offset 8
 1909 0074 BD46     		mov	sp, r7
 1910              		.cfi_def_cfa_register 13
 1911              		@ sp needed
 1912 0076 80BD     		pop	{r7, pc}
 1913              	.L135:
 1914              		.align	2
 1915              	.L134:
 1916 0078 00000000 		.word	uart_received_string
 1917              		.cfi_endproc
 1918              	.LFE88:
 1919              		.size	at_write_command, .-at_write_command
 1920              		.section	.text.write_modem_echo,"ax",%progbits
 1921              		.align	2
 1922              		.global	write_modem_echo
 1923              		.thumb
 1924              		.thumb_func
 1925              		.type	write_modem_echo, %function
 1926              	write_modem_echo:
 1927              	.LFB89:
 450:telit.c       **** 
 451:telit.c       **** uint8_t write_modem_echo(){
 1928              		.loc 1 451 0
 1929              		.cfi_startproc
 1930              		@ args = 0, pretend = 0, frame = 8
 1931              		@ frame_needed = 1, uses_anonymous_args = 0
 1932 0000 80B5     		push	{r7, lr}
 1933              		.cfi_def_cfa_offset 8
 1934              		.cfi_offset 7, -8
 1935              		.cfi_offset 14, -4
 1936 0002 82B0     		sub	sp, sp, #8
 1937              		.cfi_def_cfa_offset 16
 1938 0004 00AF     		add	r7, sp, #0
 1939              		.cfi_def_cfa_register 7
 452:telit.c       ****     if(uart_received_string[0]=='\0') return 0;
 1940              		.loc 1 452 0
 1941 0006 0F4B     		ldr	r3, .L140
 1942 0008 1B78     		ldrb	r3, [r3]	@ zero_extendqisi2
ARM GAS  C:\Users\bk\AppData\Local\Temp\ccJDYvlx.s 			page 44


 1943 000a 002B     		cmp	r3, #0
 1944 000c 01D1     		bne	.L137
 1945              		.loc 1 452 0 is_stmt 0 discriminator 1
 1946 000e 0023     		movs	r3, #0
 1947 0010 13E0     		b	.L138
 1948              	.L137:
 453:telit.c       ****     char* compare_location=strstr(uart_received_string,"W");
 1949              		.loc 1 453 0 is_stmt 1
 1950 0012 5721     		movs	r1, #87
 1951 0014 0B48     		ldr	r0, .L140
 1952 0016 FFF7FEFF 		bl	strchr
 1953 001a 7860     		str	r0, [r7, #4]
 454:telit.c       ****     uart_string_index=0;
 1954              		.loc 1 454 0
 1955 001c 0A4B     		ldr	r3, .L140+4
 1956 001e 0022     		movs	r2, #0
 1957 0020 1A70     		strb	r2, [r3]
 455:telit.c       ****     memset(uart_received_string,'\0',sizeof(uart_received_string));
 1958              		.loc 1 455 0
 1959 0022 4FF48062 		mov	r2, #1024
 1960 0026 0021     		movs	r1, #0
 1961 0028 0648     		ldr	r0, .L140
 1962 002a FFF7FEFF 		bl	memset
 456:telit.c       ****     if(compare_location!=NULL) return 1; 
 1963              		.loc 1 456 0
 1964 002e 7B68     		ldr	r3, [r7, #4]
 1965 0030 002B     		cmp	r3, #0
 1966 0032 01D0     		beq	.L139
 1967              		.loc 1 456 0 is_stmt 0 discriminator 1
 1968 0034 0123     		movs	r3, #1
 1969 0036 00E0     		b	.L138
 1970              	.L139:
 457:telit.c       ****     else return 0;
 1971              		.loc 1 457 0 is_stmt 1
 1972 0038 0023     		movs	r3, #0
 1973              	.L138:
 458:telit.c       **** }
 1974              		.loc 1 458 0
 1975 003a 1846     		mov	r0, r3
 1976 003c 0837     		adds	r7, r7, #8
 1977              		.cfi_def_cfa_offset 8
 1978 003e BD46     		mov	sp, r7
 1979              		.cfi_def_cfa_register 13
 1980              		@ sp needed
 1981 0040 80BD     		pop	{r7, pc}
 1982              	.L141:
 1983 0042 00BF     		.align	2
 1984              	.L140:
 1985 0044 00000000 		.word	uart_received_string
 1986 0048 00000000 		.word	uart_string_index
 1987              		.cfi_endproc
 1988              	.LFE89:
 1989              		.size	write_modem_echo, .-write_modem_echo
 1990              		.section	.text.url_encode,"ax",%progbits
 1991              		.align	2
 1992              		.global	url_encode
 1993              		.thumb
ARM GAS  C:\Users\bk\AppData\Local\Temp\ccJDYvlx.s 			page 45


 1994              		.thumb_func
 1995              		.type	url_encode, %function
 1996              	url_encode:
 1997              	.LFB90:
 459:telit.c       **** 
 460:telit.c       **** /* Returns a url-encoded version of str */
 461:telit.c       **** /* IMPORTANT: be sure to free() the returned string after use */
 462:telit.c       **** char *url_encode(char *str) {
 1998              		.loc 1 462 0
 1999              		.cfi_startproc
 2000              		@ args = 0, pretend = 0, frame = 24
 2001              		@ frame_needed = 1, uses_anonymous_args = 0
 2002 0000 80B5     		push	{r7, lr}
 2003              		.cfi_def_cfa_offset 8
 2004              		.cfi_offset 7, -8
 2005              		.cfi_offset 14, -4
 2006 0002 86B0     		sub	sp, sp, #24
 2007              		.cfi_def_cfa_offset 32
 2008 0004 00AF     		add	r7, sp, #0
 2009              		.cfi_def_cfa_register 7
 2010 0006 7860     		str	r0, [r7, #4]
 463:telit.c       ****     char *pstr, *buf = (char*) malloc(strlen(str) * 3 + 1), *pbuf = buf;
 2011              		.loc 1 463 0
 2012 0008 7868     		ldr	r0, [r7, #4]
 2013 000a FFF7FEFF 		bl	strlen
 2014 000e 0246     		mov	r2, r0
 2015 0010 1346     		mov	r3, r2
 2016 0012 5B00     		lsls	r3, r3, #1
 2017 0014 1344     		add	r3, r3, r2
 2018 0016 0133     		adds	r3, r3, #1
 2019 0018 1846     		mov	r0, r3
 2020 001a FFF7FEFF 		bl	malloc
 2021 001e 0346     		mov	r3, r0
 2022 0020 FB60     		str	r3, [r7, #12]
 2023 0022 FB68     		ldr	r3, [r7, #12]
 2024 0024 3B61     		str	r3, [r7, #16]
 464:telit.c       ****     for (pstr = str; *pstr != '\0'; pstr++) {
 2025              		.loc 1 464 0
 2026 0026 7B68     		ldr	r3, [r7, #4]
 2027 0028 7B61     		str	r3, [r7, #20]
 2028 002a 1CE0     		b	.L143
 2029              	.L146:
 465:telit.c       ****         if (*pstr == ' ') {
 2030              		.loc 1 465 0
 2031 002c 7B69     		ldr	r3, [r7, #20]
 2032 002e 1B78     		ldrb	r3, [r3]	@ zero_extendqisi2
 2033 0030 202B     		cmp	r3, #32
 2034 0032 0FD1     		bne	.L144
 466:telit.c       ****             *pbuf++ = '%', *pbuf++ = '2', *pbuf++ = '0';
 2035              		.loc 1 466 0
 2036 0034 3B69     		ldr	r3, [r7, #16]
 2037 0036 5A1C     		adds	r2, r3, #1
 2038 0038 3A61     		str	r2, [r7, #16]
 2039 003a 2522     		movs	r2, #37
 2040 003c 1A70     		strb	r2, [r3]
 2041 003e 3B69     		ldr	r3, [r7, #16]
 2042 0040 5A1C     		adds	r2, r3, #1
ARM GAS  C:\Users\bk\AppData\Local\Temp\ccJDYvlx.s 			page 46


 2043 0042 3A61     		str	r2, [r7, #16]
 2044 0044 3222     		movs	r2, #50
 2045 0046 1A70     		strb	r2, [r3]
 2046 0048 3B69     		ldr	r3, [r7, #16]
 2047 004a 5A1C     		adds	r2, r3, #1
 2048 004c 3A61     		str	r2, [r7, #16]
 2049 004e 3022     		movs	r2, #48
 2050 0050 1A70     		strb	r2, [r3]
 2051 0052 05E0     		b	.L145
 2052              	.L144:
 467:telit.c       ****         } else {
 468:telit.c       ****             *pbuf++ = *pstr;
 2053              		.loc 1 468 0
 2054 0054 3B69     		ldr	r3, [r7, #16]
 2055 0056 5A1C     		adds	r2, r3, #1
 2056 0058 3A61     		str	r2, [r7, #16]
 2057 005a 7A69     		ldr	r2, [r7, #20]
 2058 005c 1278     		ldrb	r2, [r2]	@ zero_extendqisi2
 2059 005e 1A70     		strb	r2, [r3]
 2060              	.L145:
 464:telit.c       ****         if (*pstr == ' ') {
 2061              		.loc 1 464 0 discriminator 2
 2062 0060 7B69     		ldr	r3, [r7, #20]
 2063 0062 0133     		adds	r3, r3, #1
 2064 0064 7B61     		str	r3, [r7, #20]
 2065              	.L143:
 464:telit.c       ****         if (*pstr == ' ') {
 2066              		.loc 1 464 0 is_stmt 0 discriminator 1
 2067 0066 7B69     		ldr	r3, [r7, #20]
 2068 0068 1B78     		ldrb	r3, [r3]	@ zero_extendqisi2
 2069 006a 002B     		cmp	r3, #0
 2070 006c DED1     		bne	.L146
 469:telit.c       ****         }
 470:telit.c       ****     }
 471:telit.c       ****     *pbuf = '\0';
 2071              		.loc 1 471 0 is_stmt 1
 2072 006e 3B69     		ldr	r3, [r7, #16]
 2073 0070 0022     		movs	r2, #0
 2074 0072 1A70     		strb	r2, [r3]
 472:telit.c       ****     return buf;
 2075              		.loc 1 472 0
 2076 0074 FB68     		ldr	r3, [r7, #12]
 473:telit.c       **** }                   
 2077              		.loc 1 473 0
 2078 0076 1846     		mov	r0, r3
 2079 0078 1837     		adds	r7, r7, #24
 2080              		.cfi_def_cfa_offset 8
 2081 007a BD46     		mov	sp, r7
 2082              		.cfi_def_cfa_register 13
 2083              		@ sp needed
 2084 007c 80BD     		pop	{r7, pc}
 2085              		.cfi_endproc
 2086              	.LFE90:
 2087              		.size	url_encode, .-url_encode
 2088 007e 00BF     		.section	.rodata
 2089 0121 000000   		.align	2
 2090              	.LC25:
ARM GAS  C:\Users\bk\AppData\Local\Temp\ccJDYvlx.s 			page 47


 2091 0124 2B47534E 		.ascii	"+GSN: \000"
 2091      3A2000
 2092              		.section	.text.parse_meid,"ax",%progbits
 2093              		.align	2
 2094              		.global	parse_meid
 2095              		.thumb
 2096              		.thumb_func
 2097              		.type	parse_meid, %function
 2098              	parse_meid:
 2099              	.LFB91:
 474:telit.c       **** 
 475:telit.c       **** 
 476:telit.c       **** uint8_t parse_meid(char* meid) {
 2100              		.loc 1 476 0
 2101              		.cfi_startproc
 2102              		@ args = 0, pretend = 0, frame = 16
 2103              		@ frame_needed = 1, uses_anonymous_args = 0
 2104 0000 90B5     		push	{r4, r7, lr}
 2105              		.cfi_def_cfa_offset 12
 2106              		.cfi_offset 4, -12
 2107              		.cfi_offset 7, -8
 2108              		.cfi_offset 14, -4
 2109 0002 85B0     		sub	sp, sp, #20
 2110              		.cfi_def_cfa_offset 32
 2111 0004 00AF     		add	r7, sp, #0
 2112              		.cfi_def_cfa_register 7
 2113 0006 7860     		str	r0, [r7, #4]
 477:telit.c       **** /*
 478:telit.c       **** int modem_get_meid(char* meid)
 479:telit.c       **** 
 480:telit.c       **** Return the MEID of the cell module
 481:telit.c       **** - Tested for CC864-DUAL and DE910-DUAL
 482:telit.c       **** 
 483:telit.c       **** Example CC864-DUAL Conversation:
 484:telit.c       **** [Board] AT#MEID?
 485:telit.c       **** [Modem] #MEID: A10000,32B9F1C0
 486:telit.c       **** 
 487:telit.c       ****         OK
 488:telit.c       **** 
 489:telit.c       **** Example DE910-DUAL Conversation:
 490:telit.c       **** [Board] AT#MEID?
 491:telit.c       **** [Modem] #MEID: A1000049AB9082
 492:telit.c       **** 
 493:telit.c       ****         OK
 494:telit.c       **** */
 495:telit.c       ****     
 496:telit.c       ****     // If successful, parse the string received over uart for the meid
 497:telit.c       ****     char *a, *b;
 498:telit.c       ****     
 499:telit.c       ****     // Test case:
 500:telit.c       ****     //char str1[] = "AT#MEID?\r\r\n#MEID: A10000,32B9F1C0\r\n\r\nOK";
 501:telit.c       ****     //strcpy(uart_received_string,str1);
 502:telit.c       **** 
 503:telit.c       ****     // Expect the UART to contain something like "\r\n#MEID: A10000,32B9F1C0\r\n\r\nOK"
 504:telit.c       ****     // - Search for "#MEID:".  Place the starting pointer, a, at the resulting index
 505:telit.c       ****     
 506:telit.c       ****     a = strstr(uart_received_string,"+GSN: ");
ARM GAS  C:\Users\bk\AppData\Local\Temp\ccJDYvlx.s 			page 48


 2114              		.loc 1 506 0
 2115 0008 2249     		ldr	r1, .L153
 2116 000a 2348     		ldr	r0, .L153+4
 2117 000c FFF7FEFF 		bl	strstr
 2118 0010 F860     		str	r0, [r7, #12]
 507:telit.c       ****     if (a == NULL) {
 2119              		.loc 1 507 0
 2120 0012 FB68     		ldr	r3, [r7, #12]
 2121 0014 002B     		cmp	r3, #0
 2122 0016 01D1     		bne	.L149
 508:telit.c       **** 
 509:telit.c       ****         //puts("#MEID: not found in uart_received_string");
 510:telit.c       ****         return 0u;
 2123              		.loc 1 510 0
 2124 0018 0023     		movs	r3, #0
 2125 001a 37E0     		b	.L150
 2126              	.L149:
 511:telit.c       ****     }
 512:telit.c       ****     // - Shift the pointer to the beginning of the MEID, i.e. "A10000,32B9F1C0\r\n\r\nOK"
 513:telit.c       ****     a += strlen("+GSN: ");
 2127              		.loc 1 513 0
 2128 001c FB68     		ldr	r3, [r7, #12]
 2129 001e 0633     		adds	r3, r3, #6
 2130 0020 FB60     		str	r3, [r7, #12]
 514:telit.c       ****     
 515:telit.c       ****     // - Find the carriage return marking after "#MEID: " that follows the MEID
 516:telit.c       ****     b = strstr(a,"\r");
 2131              		.loc 1 516 0
 2132 0022 0D21     		movs	r1, #13
 2133 0024 F868     		ldr	r0, [r7, #12]
 2134 0026 FFF7FEFF 		bl	strchr
 2135 002a B860     		str	r0, [r7, #8]
 517:telit.c       ****     if (b == NULL) {
 2136              		.loc 1 517 0
 2137 002c BB68     		ldr	r3, [r7, #8]
 2138 002e 002B     		cmp	r3, #0
 2139 0030 01D1     		bne	.L151
 518:telit.c       **** 
 519:telit.c       ****         //puts("Carriage return not found in uart_received_string");
 520:telit.c       ****         return 0u;
 2140              		.loc 1 520 0
 2141 0032 0023     		movs	r3, #0
 2142 0034 2AE0     		b	.L150
 2143              	.L151:
 521:telit.c       ****     }
 522:telit.c       ****     
 523:telit.c       ****     // Parse the strings and store the MEID in *meid
 524:telit.c       ****     strncpy(meid,a,b-a);
 2144              		.loc 1 524 0
 2145 0036 BA68     		ldr	r2, [r7, #8]
 2146 0038 FB68     		ldr	r3, [r7, #12]
 2147 003a D31A     		subs	r3, r2, r3
 2148 003c 1A46     		mov	r2, r3
 2149 003e F968     		ldr	r1, [r7, #12]
 2150 0040 7868     		ldr	r0, [r7, #4]
 2151 0042 FFF7FEFF 		bl	strncpy
 525:telit.c       ****     meid[b-a] = '\0';
ARM GAS  C:\Users\bk\AppData\Local\Temp\ccJDYvlx.s 			page 49


 2152              		.loc 1 525 0
 2153 0046 BA68     		ldr	r2, [r7, #8]
 2154 0048 FB68     		ldr	r3, [r7, #12]
 2155 004a D31A     		subs	r3, r2, r3
 2156 004c 1A46     		mov	r2, r3
 2157 004e 7B68     		ldr	r3, [r7, #4]
 2158 0050 1344     		add	r3, r3, r2
 2159 0052 0022     		movs	r2, #0
 2160 0054 1A70     		strb	r2, [r3]
 526:telit.c       ****     
 527:telit.c       ****     // In the case for modules like CC864-DUAL where "," is in the middle of the MEID,
 528:telit.c       ****     // remove the comma
 529:telit.c       ****     // * Assume only 1 comma needs to be removed
 530:telit.c       ****     a = strstr(meid,",");
 2161              		.loc 1 530 0
 2162 0056 2C21     		movs	r1, #44
 2163 0058 7868     		ldr	r0, [r7, #4]
 2164 005a FFF7FEFF 		bl	strchr
 2165 005e F860     		str	r0, [r7, #12]
 531:telit.c       ****     if (a != NULL) {
 2166              		.loc 1 531 0
 2167 0060 FB68     		ldr	r3, [r7, #12]
 2168 0062 002B     		cmp	r3, #0
 2169 0064 0BD0     		beq	.L152
 532:telit.c       ****         memmove(a,a+1,strlen(meid)-1);
 2170              		.loc 1 532 0
 2171 0066 FB68     		ldr	r3, [r7, #12]
 2172 0068 5C1C     		adds	r4, r3, #1
 2173 006a 7868     		ldr	r0, [r7, #4]
 2174 006c FFF7FEFF 		bl	strlen
 2175 0070 0346     		mov	r3, r0
 2176 0072 013B     		subs	r3, r3, #1
 2177 0074 1A46     		mov	r2, r3
 2178 0076 2146     		mov	r1, r4
 2179 0078 F868     		ldr	r0, [r7, #12]
 2180 007a FFF7FEFF 		bl	memmove
 2181              	.L152:
 533:telit.c       ****     } 
 534:telit.c       **** 
 535:telit.c       ****     memset(uart_received_string,'\0',sizeof(uart_received_string));        
 2182              		.loc 1 535 0
 2183 007e 4FF48062 		mov	r2, #1024
 2184 0082 0021     		movs	r1, #0
 2185 0084 0448     		ldr	r0, .L153+4
 2186 0086 FFF7FEFF 		bl	memset
 536:telit.c       ****     return 1;    
 2187              		.loc 1 536 0
 2188 008a 0123     		movs	r3, #1
 2189              	.L150:
 537:telit.c       **** }
 2190              		.loc 1 537 0
 2191 008c 1846     		mov	r0, r3
 2192 008e 1437     		adds	r7, r7, #20
 2193              		.cfi_def_cfa_offset 12
 2194 0090 BD46     		mov	sp, r7
 2195              		.cfi_def_cfa_register 13
 2196              		@ sp needed
ARM GAS  C:\Users\bk\AppData\Local\Temp\ccJDYvlx.s 			page 50


 2197 0092 90BD     		pop	{r4, r7, pc}
 2198              	.L154:
 2199              		.align	2
 2200              	.L153:
 2201 0094 24010000 		.word	.LC25
 2202 0098 00000000 		.word	uart_received_string
 2203              		.cfi_endproc
 2204              	.LFE91:
 2205              		.size	parse_meid, .-parse_meid
 2206              		.section	.rodata
 2207 012b 00       		.align	2
 2208              	.LC26:
 2209 012c 41542B43 		.ascii	"AT+CGMR\015\000"
 2209      474D520D 
 2209      00
 2210              		.section	.text.modem_report_software_version,"ax",%progbits
 2211              		.align	2
 2212              		.global	modem_report_software_version
 2213              		.thumb
 2214              		.thumb_func
 2215              		.type	modem_report_software_version, %function
 2216              	modem_report_software_version:
 2217              	.LFB92:
 538:telit.c       **** 
 539:telit.c       **** uint8_t modem_report_software_version(){
 2218              		.loc 1 539 0
 2219              		.cfi_startproc
 2220              		@ args = 0, pretend = 0, frame = 0
 2221              		@ frame_needed = 1, uses_anonymous_args = 0
 2222 0000 80B5     		push	{r7, lr}
 2223              		.cfi_def_cfa_offset 8
 2224              		.cfi_offset 7, -8
 2225              		.cfi_offset 14, -4
 2226 0002 00AF     		add	r7, sp, #0
 2227              		.cfi_def_cfa_register 7
 540:telit.c       ****     return(at_write_command("AT+CGMR\r","OK",1000));
 2228              		.loc 1 540 0
 2229 0004 4FF47A72 		mov	r2, #1000
 2230 0008 0349     		ldr	r1, .L157
 2231 000a 0448     		ldr	r0, .L157+4
 2232 000c FFF7FEFF 		bl	at_write_command
 2233 0010 0346     		mov	r3, r0
 541:telit.c       **** }
 2234              		.loc 1 541 0
 2235 0012 1846     		mov	r0, r3
 2236 0014 80BD     		pop	{r7, pc}
 2237              	.L158:
 2238 0016 00BF     		.align	2
 2239              	.L157:
 2240 0018 14000000 		.word	.LC2
 2241 001c 2C010000 		.word	.LC26
 2242              		.cfi_endproc
 2243              	.LFE92:
 2244              		.size	modem_report_software_version, .-modem_report_software_version
 2245              		.section	.rodata
 2246 0135 000000   		.align	2
 2247              	.LC27:
ARM GAS  C:\Users\bk\AppData\Local\Temp\ccJDYvlx.s 			page 51


 2248 0138 41542B43 		.ascii	"AT+CGMM\015\000"
 2248      474D4D0D 
 2248      00
 2249              		.section	.text.modem_report_hardware_identification,"ax",%progbits
 2250              		.align	2
 2251              		.global	modem_report_hardware_identification
 2252              		.thumb
 2253              		.thumb_func
 2254              		.type	modem_report_hardware_identification, %function
 2255              	modem_report_hardware_identification:
 2256              	.LFB93:
 542:telit.c       **** 
 543:telit.c       **** uint8_t modem_report_hardware_identification(){
 2257              		.loc 1 543 0
 2258              		.cfi_startproc
 2259              		@ args = 0, pretend = 0, frame = 0
 2260              		@ frame_needed = 1, uses_anonymous_args = 0
 2261 0000 80B5     		push	{r7, lr}
 2262              		.cfi_def_cfa_offset 8
 2263              		.cfi_offset 7, -8
 2264              		.cfi_offset 14, -4
 2265 0002 00AF     		add	r7, sp, #0
 2266              		.cfi_def_cfa_register 7
 544:telit.c       ****     return(at_write_command("AT+CGMM\r","OK",1000));
 2267              		.loc 1 544 0
 2268 0004 4FF47A72 		mov	r2, #1000
 2269 0008 0349     		ldr	r1, .L161
 2270 000a 0448     		ldr	r0, .L161+4
 2271 000c FFF7FEFF 		bl	at_write_command
 2272 0010 0346     		mov	r3, r0
 545:telit.c       **** }
 2273              		.loc 1 545 0
 2274 0012 1846     		mov	r0, r3
 2275 0014 80BD     		pop	{r7, pc}
 2276              	.L162:
 2277 0016 00BF     		.align	2
 2278              	.L161:
 2279 0018 14000000 		.word	.LC2
 2280 001c 38010000 		.word	.LC27
 2281              		.cfi_endproc
 2282              	.LFE93:
 2283              		.size	modem_report_hardware_identification, .-modem_report_hardware_identification
 2284              		.section	.text.modem_report_product_identification,"ax",%progbits
 2285              		.align	2
 2286              		.global	modem_report_product_identification
 2287              		.thumb
 2288              		.thumb_func
 2289              		.type	modem_report_product_identification, %function
 2290              	modem_report_product_identification:
 2291              	.LFB94:
 546:telit.c       **** 
 547:telit.c       **** uint8_t modem_report_product_identification(){
 2292              		.loc 1 547 0
 2293              		.cfi_startproc
 2294              		@ args = 0, pretend = 0, frame = 0
 2295              		@ frame_needed = 1, uses_anonymous_args = 0
 2296 0000 80B5     		push	{r7, lr}
ARM GAS  C:\Users\bk\AppData\Local\Temp\ccJDYvlx.s 			page 52


 2297              		.cfi_def_cfa_offset 8
 2298              		.cfi_offset 7, -8
 2299              		.cfi_offset 14, -4
 2300 0002 00AF     		add	r7, sp, #0
 2301              		.cfi_def_cfa_register 7
 548:telit.c       ****     return(at_write_command("AT+GSN=1\r","OK",1000));
 2302              		.loc 1 548 0
 2303 0004 4FF47A72 		mov	r2, #1000
 2304 0008 0349     		ldr	r1, .L165
 2305 000a 0448     		ldr	r0, .L165+4
 2306 000c FFF7FEFF 		bl	at_write_command
 2307 0010 0346     		mov	r3, r0
 549:telit.c       **** }
 2308              		.loc 1 549 0
 2309 0012 1846     		mov	r0, r3
 2310 0014 80BD     		pop	{r7, pc}
 2311              	.L166:
 2312 0016 00BF     		.align	2
 2313              	.L165:
 2314 0018 14000000 		.word	.LC2
 2315 001c 08000000 		.word	.LC1
 2316              		.cfi_endproc
 2317              	.LFE94:
 2318              		.size	modem_report_product_identification, .-modem_report_product_identification
 2319              		.section	.rodata
 2320 0141 000000   		.align	2
 2321              	.LC28:
 2322 0144 41542B43 		.ascii	"AT+CSQ\015\000"
 2322      53510D00 
 2323              		.align	2
 2324              	.LC29:
 2325 014c 2B435351 		.ascii	"+CSQ: \000"
 2325      3A2000
 2326              		.section	.text.modem_check_signal_quality,"ax",%progbits
 2327              		.align	2
 2328              		.global	modem_check_signal_quality
 2329              		.thumb
 2330              		.thumb_func
 2331              		.type	modem_check_signal_quality, %function
 2332              	modem_check_signal_quality:
 2333              	.LFB95:
 550:telit.c       **** 
 551:telit.c       **** uint8 modem_check_signal_quality(int *rssi, int *fer){
 2334              		.loc 1 551 0
 2335              		.cfi_startproc
 2336              		@ args = 0, pretend = 0, frame = 40
 2337              		@ frame_needed = 1, uses_anonymous_args = 0
 2338 0000 80B5     		push	{r7, lr}
 2339              		.cfi_def_cfa_offset 8
 2340              		.cfi_offset 7, -8
 2341              		.cfi_offset 14, -4
 2342 0002 8AB0     		sub	sp, sp, #40
 2343              		.cfi_def_cfa_offset 48
 2344 0004 00AF     		add	r7, sp, #0
 2345              		.cfi_def_cfa_register 7
 2346 0006 7860     		str	r0, [r7, #4]
 2347 0008 3960     		str	r1, [r7]
ARM GAS  C:\Users\bk\AppData\Local\Temp\ccJDYvlx.s 			page 53


 552:telit.c       **** /* 
 553:telit.c       **** 
 554:telit.c       **** uint8 modem_check_signal_quality(uint8 *rssi)
 555:telit.c       **** 
 556:telit.c       **** Returns the received signal strength indication (rssi) of the modem
 557:telit.c       **** This value ranges from 0-31, or is 99 if unknown/undetectable
 558:telit.c       **** 
 559:telit.c       **** Also returns the frame rate error (fer) of the modem.  
 560:telit.c       **** This value ranges from 0-7, or is 99 if unknown/undetectable.
 561:telit.c       **** (From experience, fer is almost always 99)
 562:telit.c       **** 
 563:telit.c       **** Example conversation:
 564:telit.c       **** [Board] AT+CSQ
 565:telit.c       **** [Modem] +CSQ: 17,99
 566:telit.c       **** 
 567:telit.c       ****         OK
 568:telit.c       **** */
 569:telit.c       ****     
 570:telit.c       ****     // Check for valid response from cellular module
 571:telit.c       ****     if(at_write_command("AT+CSQ\r","OK",1000u) == 1u){                  
 2348              		.loc 1 571 0
 2349 000a 4FF47A72 		mov	r2, #1000
 2350 000e 3C49     		ldr	r1, .L174
 2351 0010 3C48     		ldr	r0, .L174+4
 2352 0012 FFF7FEFF 		bl	at_write_command
 2353 0016 0346     		mov	r3, r0
 2354 0018 012B     		cmp	r3, #1
 2355 001a 6CD1     		bne	.L168
 2356              	.LBB6:
 572:telit.c       ****         
 573:telit.c       ****         // If successful, parse the string received over uart for the rssi value
 574:telit.c       ****         char *a, *b, *c;
 575:telit.c       ****         char rssi_str[5] = {'\0'}, fer_str[5] = {'\0'};
 2357              		.loc 1 575 0
 2358 001c 07F11403 		add	r3, r7, #20
 2359 0020 0022     		movs	r2, #0
 2360 0022 1A60     		str	r2, [r3]
 2361 0024 1A71     		strb	r2, [r3, #4]
 2362 0026 07F10C03 		add	r3, r7, #12
 2363 002a 0022     		movs	r2, #0
 2364 002c 1A60     		str	r2, [r3]
 2365 002e 1A71     		strb	r2, [r3, #4]
 576:telit.c       **** 
 577:telit.c       ****         // Expect the UART to contain something like "+CSQ: 17,99\r\n\r\nOK"
 578:telit.c       ****         // - Search for "+CSQ: ".  Place the starting pointer, a, at the resulting index
 579:telit.c       ****         a = strstr(uart_received_string,"+CSQ: ");
 2366              		.loc 1 579 0
 2367 0030 3549     		ldr	r1, .L174+8
 2368 0032 3648     		ldr	r0, .L174+12
 2369 0034 FFF7FEFF 		bl	strstr
 2370 0038 7862     		str	r0, [r7, #36]
 580:telit.c       ****         if (a == NULL) {
 2371              		.loc 1 580 0
 2372 003a 7B6A     		ldr	r3, [r7, #36]
 2373 003c 002B     		cmp	r3, #0
 2374 003e 01D1     		bne	.L169
 581:telit.c       ****             //puts("+CSQ: not found in uart_received_string");
ARM GAS  C:\Users\bk\AppData\Local\Temp\ccJDYvlx.s 			page 54


 582:telit.c       ****             return 0u;
 2375              		.loc 1 582 0
 2376 0040 0023     		movs	r3, #0
 2377 0042 59E0     		b	.L173
 2378              	.L169:
 583:telit.c       ****         }
 584:telit.c       ****         // - Shift the pointer to the beginning of the rssi value, i.e. "17,99\r\n\r\n\OK"
 585:telit.c       ****         a += strlen("+CSQ: ");
 2379              		.loc 1 585 0
 2380 0044 7B6A     		ldr	r3, [r7, #36]
 2381 0046 0633     		adds	r3, r3, #6
 2382 0048 7B62     		str	r3, [r7, #36]
 586:telit.c       ****         
 587:telit.c       ****         // - Find the comma marking after "+CSQ: " that follows the rssi value
 588:telit.c       ****         b = strstr(a,",");
 2383              		.loc 1 588 0
 2384 004a 2C21     		movs	r1, #44
 2385 004c 786A     		ldr	r0, [r7, #36]
 2386 004e FFF7FEFF 		bl	strchr
 2387 0052 3862     		str	r0, [r7, #32]
 589:telit.c       ****         if (b == NULL) {
 2388              		.loc 1 589 0
 2389 0054 3B6A     		ldr	r3, [r7, #32]
 2390 0056 002B     		cmp	r3, #0
 2391 0058 01D1     		bne	.L171
 590:telit.c       ****             //puts("Comma not found in uart_received_string");
 591:telit.c       ****             return 0u;
 2392              		.loc 1 591 0
 2393 005a 0023     		movs	r3, #0
 2394 005c 4CE0     		b	.L173
 2395              	.L171:
 592:telit.c       ****         }        
 593:telit.c       **** 
 594:telit.c       ****         // - Find the carriage return after the comma that follows the fer value
 595:telit.c       ****         c = strstr(b + strlen(","),"\r");
 2396              		.loc 1 595 0
 2397 005e 3B6A     		ldr	r3, [r7, #32]
 2398 0060 0133     		adds	r3, r3, #1
 2399 0062 0D21     		movs	r1, #13
 2400 0064 1846     		mov	r0, r3
 2401 0066 FFF7FEFF 		bl	strchr
 2402 006a F861     		str	r0, [r7, #28]
 596:telit.c       ****         if (c == NULL) {
 2403              		.loc 1 596 0
 2404 006c FB69     		ldr	r3, [r7, #28]
 2405 006e 002B     		cmp	r3, #0
 2406 0070 01D1     		bne	.L172
 597:telit.c       ****             //puts("\r not found in uart_received_string");
 598:telit.c       ****             return 0u;
 2407              		.loc 1 598 0
 2408 0072 0023     		movs	r3, #0
 2409 0074 40E0     		b	.L173
 2410              	.L172:
 599:telit.c       ****         }
 600:telit.c       ****         
 601:telit.c       ****         // Parse the strings and store the respective rssi and fer values
 602:telit.c       ****         strncpy(rssi_str,a,b-a);
ARM GAS  C:\Users\bk\AppData\Local\Temp\ccJDYvlx.s 			page 55


 2411              		.loc 1 602 0
 2412 0076 3A6A     		ldr	r2, [r7, #32]
 2413 0078 7B6A     		ldr	r3, [r7, #36]
 2414 007a D31A     		subs	r3, r2, r3
 2415 007c 1A46     		mov	r2, r3
 2416 007e 07F11403 		add	r3, r7, #20
 2417 0082 796A     		ldr	r1, [r7, #36]
 2418 0084 1846     		mov	r0, r3
 2419 0086 FFF7FEFF 		bl	strncpy
 603:telit.c       ****         rssi_str[b-a] = '\0';
 2420              		.loc 1 603 0
 2421 008a 3A6A     		ldr	r2, [r7, #32]
 2422 008c 7B6A     		ldr	r3, [r7, #36]
 2423 008e D31A     		subs	r3, r2, r3
 2424 0090 07F12802 		add	r2, r7, #40
 2425 0094 1344     		add	r3, r3, r2
 2426 0096 0022     		movs	r2, #0
 2427 0098 03F8142C 		strb	r2, [r3, #-20]
 604:telit.c       ****         // - Store the rssi value in *rssi
 605:telit.c       ****         *rssi = (uint8) strtol(rssi_str,(char **) NULL, 10); // Base 10
 2428              		.loc 1 605 0
 2429 009c 07F11403 		add	r3, r7, #20
 2430 00a0 0A22     		movs	r2, #10
 2431 00a2 0021     		movs	r1, #0
 2432 00a4 1846     		mov	r0, r3
 2433 00a6 FFF7FEFF 		bl	strtol
 2434 00aa 0346     		mov	r3, r0
 2435 00ac DAB2     		uxtb	r2, r3
 2436 00ae 7B68     		ldr	r3, [r7, #4]
 2437 00b0 1A60     		str	r2, [r3]
 606:telit.c       **** 
 607:telit.c       ****         strncpy(fer_str,b+strlen(","),c-b+strlen(","));
 2438              		.loc 1 607 0
 2439 00b2 3B6A     		ldr	r3, [r7, #32]
 2440 00b4 591C     		adds	r1, r3, #1
 2441 00b6 FA69     		ldr	r2, [r7, #28]
 2442 00b8 3B6A     		ldr	r3, [r7, #32]
 2443 00ba D31A     		subs	r3, r2, r3
 2444 00bc 5A1C     		adds	r2, r3, #1
 2445 00be 07F10C03 		add	r3, r7, #12
 2446 00c2 1846     		mov	r0, r3
 2447 00c4 FFF7FEFF 		bl	strncpy
 608:telit.c       ****         fer_str[c-b+strlen(",")] = '\0';
 2448              		.loc 1 608 0
 2449 00c8 FA69     		ldr	r2, [r7, #28]
 2450 00ca 3B6A     		ldr	r3, [r7, #32]
 2451 00cc D31A     		subs	r3, r2, r3
 2452 00ce 0133     		adds	r3, r3, #1
 2453 00d0 07F12802 		add	r2, r7, #40
 2454 00d4 1344     		add	r3, r3, r2
 2455 00d6 0022     		movs	r2, #0
 2456 00d8 03F81C2C 		strb	r2, [r3, #-28]
 609:telit.c       ****         // - Store the fer value in *fer
 610:telit.c       ****         *fer = (uint8) strtol(fer_str,(char **) NULL, 10); // Base 10
 2457              		.loc 1 610 0
 2458 00dc 07F10C03 		add	r3, r7, #12
 2459 00e0 0A22     		movs	r2, #10
ARM GAS  C:\Users\bk\AppData\Local\Temp\ccJDYvlx.s 			page 56


 2460 00e2 0021     		movs	r1, #0
 2461 00e4 1846     		mov	r0, r3
 2462 00e6 FFF7FEFF 		bl	strtol
 2463 00ea 0346     		mov	r3, r0
 2464 00ec DAB2     		uxtb	r2, r3
 2465 00ee 3B68     		ldr	r3, [r7]
 2466 00f0 1A60     		str	r2, [r3]
 611:telit.c       ****         
 612:telit.c       ****         //printf("rssi: %d\r\n",rssi);
 613:telit.c       ****         //printf("fer: %d\r\n",fer);
 614:telit.c       **** 
 615:telit.c       ****         return 1u;
 2467              		.loc 1 615 0
 2468 00f2 0123     		movs	r3, #1
 2469 00f4 00E0     		b	.L173
 2470              	.L168:
 2471              	.LBE6:
 616:telit.c       ****     }    
 617:telit.c       ****     
 618:telit.c       ****     return 0u;  
 2472              		.loc 1 618 0
 2473 00f6 0023     		movs	r3, #0
 2474              	.L173:
 619:telit.c       **** }
 2475              		.loc 1 619 0 discriminator 1
 2476 00f8 1846     		mov	r0, r3
 2477 00fa 2837     		adds	r7, r7, #40
 2478              		.cfi_def_cfa_offset 8
 2479 00fc BD46     		mov	sp, r7
 2480              		.cfi_def_cfa_register 13
 2481              		@ sp needed
 2482 00fe 80BD     		pop	{r7, pc}
 2483              	.L175:
 2484              		.align	2
 2485              	.L174:
 2486 0100 14000000 		.word	.LC2
 2487 0104 44010000 		.word	.LC28
 2488 0108 4C010000 		.word	.LC29
 2489 010c 00000000 		.word	uart_received_string
 2490              		.cfi_endproc
 2491              	.LFE95:
 2492              		.size	modem_check_signal_quality, .-modem_check_signal_quality
 2493              		.section	.rodata
 2494 0153 00       		.align	2
 2495              	.LC30:
 2496 0154 41542B43 		.ascii	"AT+CGDCONT=3,\"IP\",\"n.ispsn\"\015\000"
 2496      4744434F 
 2496      4E543D33 
 2496      2C224950 
 2496      222C226E 
 2497              		.section	.text.modem_define_PDP,"ax",%progbits
 2498              		.align	2
 2499              		.global	modem_define_PDP
 2500              		.thumb
 2501              		.thumb_func
 2502              		.type	modem_define_PDP, %function
 2503              	modem_define_PDP:
ARM GAS  C:\Users\bk\AppData\Local\Temp\ccJDYvlx.s 			page 57


 2504              	.LFB96:
 620:telit.c       **** 
 621:telit.c       **** uint8_t modem_define_PDP(){
 2505              		.loc 1 621 0
 2506              		.cfi_startproc
 2507              		@ args = 0, pretend = 0, frame = 0
 2508              		@ frame_needed = 1, uses_anonymous_args = 0
 2509 0000 80B5     		push	{r7, lr}
 2510              		.cfi_def_cfa_offset 8
 2511              		.cfi_offset 7, -8
 2512              		.cfi_offset 14, -4
 2513 0002 00AF     		add	r7, sp, #0
 2514              		.cfi_def_cfa_register 7
 622:telit.c       ****     return(at_write_command("AT+CGDCONT=3,\"IP\",\"n.ispsn\"\r","OK",1000)); // BPW
 2515              		.loc 1 622 0
 2516 0004 4FF47A72 		mov	r2, #1000
 2517 0008 0349     		ldr	r1, .L178
 2518 000a 0448     		ldr	r0, .L178+4
 2519 000c FFF7FEFF 		bl	at_write_command
 2520 0010 0346     		mov	r3, r0
 623:telit.c       ****     //return(at_write_command("AT+CGDCONT=1,\"IPV4V6\",\"wholesale\"\r","OK",60000));
 624:telit.c       **** }
 2521              		.loc 1 624 0
 2522 0012 1846     		mov	r0, r3
 2523 0014 80BD     		pop	{r7, pc}
 2524              	.L179:
 2525 0016 00BF     		.align	2
 2526              	.L178:
 2527 0018 14000000 		.word	.LC2
 2528 001c 54010000 		.word	.LC30
 2529              		.cfi_endproc
 2530              	.LFE96:
 2531              		.size	modem_define_PDP, .-modem_define_PDP
 2532              		.section	.rodata
 2533 0171 000000   		.align	2
 2534              	.LC31:
 2535 0174 4154264B 		.ascii	"AT&K%u\015\000"
 2535      25750D00 
 2536              		.section	.text.modem_set_flow_control,"ax",%progbits
 2537              		.align	2
 2538              		.global	modem_set_flow_control
 2539              		.thumb
 2540              		.thumb_func
 2541              		.type	modem_set_flow_control, %function
 2542              	modem_set_flow_control:
 2543              	.LFB97:
 625:telit.c       **** 
 626:telit.c       **** uint8 modem_set_flow_control(uint8 param){
 2544              		.loc 1 626 0
 2545              		.cfi_startproc
 2546              		@ args = 0, pretend = 0, frame = 112
 2547              		@ frame_needed = 1, uses_anonymous_args = 0
 2548 0000 80B5     		push	{r7, lr}
 2549              		.cfi_def_cfa_offset 8
 2550              		.cfi_offset 7, -8
 2551              		.cfi_offset 14, -4
 2552 0002 9CB0     		sub	sp, sp, #112
ARM GAS  C:\Users\bk\AppData\Local\Temp\ccJDYvlx.s 			page 58


 2553              		.cfi_def_cfa_offset 120
 2554 0004 00AF     		add	r7, sp, #0
 2555              		.cfi_def_cfa_register 7
 2556 0006 0346     		mov	r3, r0
 2557 0008 FB71     		strb	r3, [r7, #7]
 627:telit.c       ****     char cmd[100]={'\0'};   
 2558              		.loc 1 627 0
 2559 000a 07F10C03 		add	r3, r7, #12
 2560 000e 6422     		movs	r2, #100
 2561 0010 0021     		movs	r1, #0
 2562 0012 1846     		mov	r0, r3
 2563 0014 FFF7FEFF 		bl	memset
 628:telit.c       ****     sprintf(cmd,"AT&K%u\r",param);
 2564              		.loc 1 628 0
 2565 0018 FA79     		ldrb	r2, [r7, #7]	@ zero_extendqisi2
 2566 001a 07F10C03 		add	r3, r7, #12
 2567 001e 0849     		ldr	r1, .L182
 2568 0020 1846     		mov	r0, r3
 2569 0022 FFF7FEFF 		bl	sprintf
 629:telit.c       ****     return(at_write_command(cmd,"OK",1000u));
 2570              		.loc 1 629 0
 2571 0026 07F10C03 		add	r3, r7, #12
 2572 002a 4FF47A72 		mov	r2, #1000
 2573 002e 0549     		ldr	r1, .L182+4
 2574 0030 1846     		mov	r0, r3
 2575 0032 FFF7FEFF 		bl	at_write_command
 2576 0036 0346     		mov	r3, r0
 630:telit.c       ****     //return(at_write_command("AT&K0\r","OK",1000u));
 631:telit.c       **** }
 2577              		.loc 1 631 0
 2578 0038 1846     		mov	r0, r3
 2579 003a 7037     		adds	r7, r7, #112
 2580              		.cfi_def_cfa_offset 8
 2581 003c BD46     		mov	sp, r7
 2582              		.cfi_def_cfa_register 13
 2583              		@ sp needed
 2584 003e 80BD     		pop	{r7, pc}
 2585              	.L183:
 2586              		.align	2
 2587              	.L182:
 2588 0040 74010000 		.word	.LC31
 2589 0044 14000000 		.word	.LC2
 2590              		.cfi_endproc
 2591              	.LFE97:
 2592              		.size	modem_set_flow_control, .-modem_set_flow_control
 2593              		.section	.rodata
 2594              		.align	2
 2595              	.LC32:
 2596 017c 41542B43 		.ascii	"AT+CMEE=%u\015\000"
 2596      4D45453D 
 2596      25750D00 
 2597              		.section	.text.modem_set_error_reports,"ax",%progbits
 2598              		.align	2
 2599              		.global	modem_set_error_reports
 2600              		.thumb
 2601              		.thumb_func
 2602              		.type	modem_set_error_reports, %function
ARM GAS  C:\Users\bk\AppData\Local\Temp\ccJDYvlx.s 			page 59


 2603              	modem_set_error_reports:
 2604              	.LFB98:
 632:telit.c       **** 
 633:telit.c       **** uint8 modem_set_error_reports(uint8 param){	
 2605              		.loc 1 633 0
 2606              		.cfi_startproc
 2607              		@ args = 0, pretend = 0, frame = 112
 2608              		@ frame_needed = 1, uses_anonymous_args = 0
 2609 0000 80B5     		push	{r7, lr}
 2610              		.cfi_def_cfa_offset 8
 2611              		.cfi_offset 7, -8
 2612              		.cfi_offset 14, -4
 2613 0002 9CB0     		sub	sp, sp, #112
 2614              		.cfi_def_cfa_offset 120
 2615 0004 00AF     		add	r7, sp, #0
 2616              		.cfi_def_cfa_register 7
 2617 0006 0346     		mov	r3, r0
 2618 0008 FB71     		strb	r3, [r7, #7]
 634:telit.c       ****     char cmd[100]={'\0'};    
 2619              		.loc 1 634 0
 2620 000a 07F10C03 		add	r3, r7, #12
 2621 000e 6422     		movs	r2, #100
 2622 0010 0021     		movs	r1, #0
 2623 0012 1846     		mov	r0, r3
 2624 0014 FFF7FEFF 		bl	memset
 635:telit.c       ****     sprintf(cmd,"AT+CMEE=%u\r",param);
 2625              		.loc 1 635 0
 2626 0018 FA79     		ldrb	r2, [r7, #7]	@ zero_extendqisi2
 2627 001a 07F10C03 		add	r3, r7, #12
 2628 001e 0849     		ldr	r1, .L186
 2629 0020 1846     		mov	r0, r3
 2630 0022 FFF7FEFF 		bl	sprintf
 636:telit.c       ****     return(at_write_command(cmd,"OK",1000u));
 2631              		.loc 1 636 0
 2632 0026 07F10C03 		add	r3, r7, #12
 2633 002a 4FF47A72 		mov	r2, #1000
 2634 002e 0549     		ldr	r1, .L186+4
 2635 0030 1846     		mov	r0, r3
 2636 0032 FFF7FEFF 		bl	at_write_command
 2637 0036 0346     		mov	r3, r0
 637:telit.c       ****     //return(at_write_command("AT+CMEE=2\r","OK",1000u));
 638:telit.c       **** }
 2638              		.loc 1 638 0
 2639 0038 1846     		mov	r0, r3
 2640 003a 7037     		adds	r7, r7, #112
 2641              		.cfi_def_cfa_offset 8
 2642 003c BD46     		mov	sp, r7
 2643              		.cfi_def_cfa_register 13
 2644              		@ sp needed
 2645 003e 80BD     		pop	{r7, pc}
 2646              	.L187:
 2647              		.align	2
 2648              	.L186:
 2649 0040 7C010000 		.word	.LC32
 2650 0044 14000000 		.word	.LC2
 2651              		.cfi_endproc
 2652              	.LFE98:
ARM GAS  C:\Users\bk\AppData\Local\Temp\ccJDYvlx.s 			page 60


 2653              		.size	modem_set_error_reports, .-modem_set_error_reports
 2654              		.section	.text.modem_setup,"ax",%progbits
 2655              		.align	2
 2656              		.global	modem_setup
 2657              		.thumb
 2658              		.thumb_func
 2659              		.type	modem_setup, %function
 2660              	modem_setup:
 2661              	.LFB99:
 639:telit.c       **** 
 640:telit.c       **** uint8 modem_setup() {
 2662              		.loc 1 640 0
 2663              		.cfi_startproc
 2664              		@ args = 0, pretend = 0, frame = 0
 2665              		@ frame_needed = 1, uses_anonymous_args = 0
 2666 0000 80B5     		push	{r7, lr}
 2667              		.cfi_def_cfa_offset 8
 2668              		.cfi_offset 7, -8
 2669              		.cfi_offset 14, -4
 2670 0002 00AF     		add	r7, sp, #0
 2671              		.cfi_def_cfa_register 7
 641:telit.c       **** /* Initialize configurations for the modem */
 642:telit.c       **** 	// Set Error Reports to verbose mode
 643:telit.c       **** 	return(modem_set_error_reports(2u));
 2672              		.loc 1 643 0
 2673 0004 0220     		movs	r0, #2
 2674 0006 FFF7FEFF 		bl	modem_set_error_reports
 2675 000a 0346     		mov	r3, r0
 644:telit.c       **** 
 645:telit.c       **** }
 2676              		.loc 1 645 0
 2677 000c 1846     		mov	r0, r3
 2678 000e 80BD     		pop	{r7, pc}
 2679              		.cfi_endproc
 2680              	.LFE99:
 2681              		.size	modem_setup, .-modem_setup
 2682              		.section	.text.modem_check_network,"ax",%progbits
 2683              		.align	2
 2684              		.global	modem_check_network
 2685              		.thumb
 2686              		.thumb_func
 2687              		.type	modem_check_network, %function
 2688              	modem_check_network:
 2689              	.LFB100:
 646:telit.c       **** 
 647:telit.c       **** uint8_t modem_check_network(){
 2690              		.loc 1 647 0
 2691              		.cfi_startproc
 2692              		@ args = 0, pretend = 0, frame = 0
 2693              		@ frame_needed = 1, uses_anonymous_args = 0
 2694 0000 80B5     		push	{r7, lr}
 2695              		.cfi_def_cfa_offset 8
 2696              		.cfi_offset 7, -8
 2697              		.cfi_offset 14, -4
 2698 0002 00AF     		add	r7, sp, #0
 2699              		.cfi_def_cfa_register 7
 648:telit.c       ****     return(at_write_command("AT+CGREG?\r",",1",1000));
ARM GAS  C:\Users\bk\AppData\Local\Temp\ccJDYvlx.s 			page 61


 2700              		.loc 1 648 0
 2701 0004 4FF47A72 		mov	r2, #1000
 2702 0008 0349     		ldr	r1, .L192
 2703 000a 0448     		ldr	r0, .L192+4
 2704 000c FFF7FEFF 		bl	at_write_command
 2705 0010 0346     		mov	r3, r0
 649:telit.c       ****    
 650:telit.c       **** }
 2706              		.loc 1 650 0
 2707 0012 1846     		mov	r0, r3
 2708 0014 80BD     		pop	{r7, pc}
 2709              	.L193:
 2710 0016 00BF     		.align	2
 2711              	.L192:
 2712 0018 30000000 		.word	.LC5
 2713 001c 24000000 		.word	.LC4
 2714              		.cfi_endproc
 2715              	.LFE100:
 2716              		.size	modem_check_network, .-modem_check_network
 2717              		.section	.text.modem_activate_pdp_context,"ax",%progbits
 2718              		.align	2
 2719              		.global	modem_activate_pdp_context
 2720              		.thumb
 2721              		.thumb_func
 2722              		.type	modem_activate_pdp_context, %function
 2723              	modem_activate_pdp_context:
 2724              	.LFB101:
 651:telit.c       **** 
 652:telit.c       **** uint8_t modem_activate_pdp_context(){
 2725              		.loc 1 652 0
 2726              		.cfi_startproc
 2727              		@ args = 0, pretend = 0, frame = 8
 2728              		@ frame_needed = 1, uses_anonymous_args = 0
 2729 0000 80B5     		push	{r7, lr}
 2730              		.cfi_def_cfa_offset 8
 2731              		.cfi_offset 7, -8
 2732              		.cfi_offset 14, -4
 2733 0002 82B0     		sub	sp, sp, #8
 2734              		.cfi_def_cfa_offset 16
 2735 0004 00AF     		add	r7, sp, #0
 2736              		.cfi_def_cfa_register 7
 653:telit.c       ****     
 654:telit.c       ****     uint8_t status=at_write_command("AT#SGACT?\r",",1",1000u);
 2737              		.loc 1 654 0
 2738 0006 4FF47A72 		mov	r2, #1000
 2739 000a 0B49     		ldr	r1, .L197
 2740 000c 0B48     		ldr	r0, .L197+4
 2741 000e FFF7FEFF 		bl	at_write_command
 2742 0012 0346     		mov	r3, r0
 2743 0014 FB71     		strb	r3, [r7, #7]
 655:telit.c       ****     if(status==1) return(1);
 2744              		.loc 1 655 0
 2745 0016 FB79     		ldrb	r3, [r7, #7]	@ zero_extendqisi2
 2746 0018 012B     		cmp	r3, #1
 2747 001a 01D1     		bne	.L195
 2748              		.loc 1 655 0 is_stmt 0 discriminator 1
 2749 001c 0123     		movs	r3, #1
ARM GAS  C:\Users\bk\AppData\Local\Temp\ccJDYvlx.s 			page 62


 2750 001e 06E0     		b	.L196
 2751              	.L195:
 656:telit.c       ****     else return(at_write_command("AT#SGACT=3,1\r","OK",2000u));        
 2752              		.loc 1 656 0 is_stmt 1
 2753 0020 4FF4FA62 		mov	r2, #2000
 2754 0024 0649     		ldr	r1, .L197+8
 2755 0026 0748     		ldr	r0, .L197+12
 2756 0028 FFF7FEFF 		bl	at_write_command
 2757 002c 0346     		mov	r3, r0
 2758              	.L196:
 657:telit.c       **** }
 2759              		.loc 1 657 0
 2760 002e 1846     		mov	r0, r3
 2761 0030 0837     		adds	r7, r7, #8
 2762              		.cfi_def_cfa_offset 8
 2763 0032 BD46     		mov	sp, r7
 2764              		.cfi_def_cfa_register 13
 2765              		@ sp needed
 2766 0034 80BD     		pop	{r7, pc}
 2767              	.L198:
 2768 0036 00BF     		.align	2
 2769              	.L197:
 2770 0038 30000000 		.word	.LC5
 2771 003c 34000000 		.word	.LC6
 2772 0040 14000000 		.word	.LC2
 2773 0044 40000000 		.word	.LC7
 2774              		.cfi_endproc
 2775              	.LFE101:
 2776              		.size	modem_activate_pdp_context, .-modem_activate_pdp_context
 2777              		.section	.text.modem_connect,"ax",%progbits
 2778              		.align	2
 2779              		.global	modem_connect
 2780              		.thumb
 2781              		.thumb_func
 2782              		.type	modem_connect, %function
 2783              	modem_connect:
 2784              	.LFB102:
 658:telit.c       **** 
 659:telit.c       **** 
 660:telit.c       **** uint8_t modem_connect(){
 2785              		.loc 1 660 0
 2786              		.cfi_startproc
 2787              		@ args = 0, pretend = 0, frame = 8
 2788              		@ frame_needed = 1, uses_anonymous_args = 0
 2789 0000 80B5     		push	{r7, lr}
 2790              		.cfi_def_cfa_offset 8
 2791              		.cfi_offset 7, -8
 2792              		.cfi_offset 14, -4
 2793 0002 82B0     		sub	sp, sp, #8
 2794              		.cfi_def_cfa_offset 16
 2795 0004 00AF     		add	r7, sp, #0
 2796              		.cfi_def_cfa_register 7
 661:telit.c       ****     /* check registration*/
 662:telit.c       ****     uint8_t network_status,counter=0;
 2797              		.loc 1 662 0
 2798 0006 0023     		movs	r3, #0
 2799 0008 FB71     		strb	r3, [r7, #7]
ARM GAS  C:\Users\bk\AppData\Local\Temp\ccJDYvlx.s 			page 63


 2800              	.L202:
 663:telit.c       ****     do{
 664:telit.c       ****         network_status=modem_check_network();        
 2801              		.loc 1 664 0
 2802 000a FFF7FEFF 		bl	modem_check_network
 2803 000e 0346     		mov	r3, r0
 2804 0010 BB71     		strb	r3, [r7, #6]
 665:telit.c       ****         if(network_status==1) break;
 2805              		.loc 1 665 0
 2806 0012 BB79     		ldrb	r3, [r7, #6]	@ zero_extendqisi2
 2807 0014 012B     		cmp	r3, #1
 2808 0016 0AD0     		beq	.L207
 666:telit.c       ****         CyDelay(1000);
 2809              		.loc 1 666 0
 2810 0018 4FF47A70 		mov	r0, #1000
 2811 001c FFF7FEFF 		bl	CyDelay
 667:telit.c       ****         counter++;
 2812              		.loc 1 667 0
 2813 0020 FB79     		ldrb	r3, [r7, #7]	@ zero_extendqisi2
 2814 0022 0133     		adds	r3, r3, #1
 2815 0024 FB71     		strb	r3, [r7, #7]
 668:telit.c       ****     }while(counter<3);
 2816              		.loc 1 668 0
 2817 0026 FB79     		ldrb	r3, [r7, #7]	@ zero_extendqisi2
 2818 0028 022B     		cmp	r3, #2
 2819 002a EED9     		bls	.L202
 2820 002c 00E0     		b	.L201
 2821              	.L207:
 665:telit.c       ****         CyDelay(1000);
 2822              		.loc 1 665 0
 2823 002e 00BF     		nop
 2824              	.L201:
 669:telit.c       ****     
 670:telit.c       ****     counter=0;
 2825              		.loc 1 670 0
 2826 0030 0023     		movs	r3, #0
 2827 0032 FB71     		strb	r3, [r7, #7]
 671:telit.c       ****     
 672:telit.c       ****     /* check or activate PDP context*/
 673:telit.c       ****     if(network_status==1){
 2828              		.loc 1 673 0
 2829 0034 BB79     		ldrb	r3, [r7, #6]	@ zero_extendqisi2
 2830 0036 012B     		cmp	r3, #1
 2831 0038 12D1     		bne	.L203
 2832              	.L206:
 674:telit.c       ****         do{
 675:telit.c       ****             network_status=modem_activate_pdp_context();
 2833              		.loc 1 675 0
 2834 003a FFF7FEFF 		bl	modem_activate_pdp_context
 2835 003e 0346     		mov	r3, r0
 2836 0040 BB71     		strb	r3, [r7, #6]
 676:telit.c       ****            if(network_status==1)return(1);           
 2837              		.loc 1 676 0
 2838 0042 BB79     		ldrb	r3, [r7, #6]	@ zero_extendqisi2
 2839 0044 012B     		cmp	r3, #1
 2840 0046 01D1     		bne	.L204
 2841              		.loc 1 676 0 is_stmt 0 discriminator 1
ARM GAS  C:\Users\bk\AppData\Local\Temp\ccJDYvlx.s 			page 64


 2842 0048 0123     		movs	r3, #1
 2843 004a 0AE0     		b	.L205
 2844              	.L204:
 677:telit.c       ****             CyDelay(1000);
 2845              		.loc 1 677 0 is_stmt 1
 2846 004c 4FF47A70 		mov	r0, #1000
 2847 0050 FFF7FEFF 		bl	CyDelay
 678:telit.c       ****             counter++;
 2848              		.loc 1 678 0
 2849 0054 FB79     		ldrb	r3, [r7, #7]	@ zero_extendqisi2
 2850 0056 0133     		adds	r3, r3, #1
 2851 0058 FB71     		strb	r3, [r7, #7]
 679:telit.c       ****         }while(counter<3);      
 2852              		.loc 1 679 0
 2853 005a FB79     		ldrb	r3, [r7, #7]	@ zero_extendqisi2
 2854 005c 022B     		cmp	r3, #2
 2855 005e ECD9     		bls	.L206
 2856              	.L203:
 680:telit.c       ****     }
 681:telit.c       ****     return(0);   
 2857              		.loc 1 681 0
 2858 0060 0023     		movs	r3, #0
 2859              	.L205:
 682:telit.c       **** }
 2860              		.loc 1 682 0
 2861 0062 1846     		mov	r0, r3
 2862 0064 0837     		adds	r7, r7, #8
 2863              		.cfi_def_cfa_offset 8
 2864 0066 BD46     		mov	sp, r7
 2865              		.cfi_def_cfa_register 13
 2866              		@ sp needed
 2867 0068 80BD     		pop	{r7, pc}
 2868              		.cfi_endproc
 2869              	.LFE102:
 2870              		.size	modem_connect, .-modem_connect
 2871 006a 00BF     		.section	.rodata
 2872              		.align	2
 2873              	.LC33:
 2874 0188 48545450 		.ascii	"HTTP/\000"
 2874      2F00
 2875 018e 0000     		.align	2
 2876              	.LC34:
 2877 0190 0D0A00   		.ascii	"\015\012\000"
 2878              		.section	.text.parse_http_status,"ax",%progbits
 2879              		.align	2
 2880              		.global	parse_http_status
 2881              		.thumb
 2882              		.thumb_func
 2883              		.type	parse_http_status, %function
 2884              	parse_http_status:
 2885              	.LFB103:
 683:telit.c       **** 
 684:telit.c       **** 
 685:telit.c       **** /*
 686:telit.c       **** Searches a string "http_status" for and attempts to parse the status line.
 687:telit.c       **** Leverages Status-Line protocol for HTTP/1.0 and HTTP/1.1
 688:telit.c       **** 
ARM GAS  C:\Users\bk\AppData\Local\Temp\ccJDYvlx.s 			page 65


 689:telit.c       ****     Status-Line = HTTP-Version SP Status-Code SP Reason-Phrase CRLF
 690:telit.c       **** 
 691:telit.c       **** (See https://www.w3.org/Protocols/HTTP/1.0/spec.html#Status-Line.
 692:telit.c       ****  SP is a space, CRLF is carriage return line feed)
 693:telit.c       **** 
 694:telit.c       **** Stores the results in "version", "status_code", and "phrase"
 695:telit.c       **** */
 696:telit.c       **** uint8 parse_http_status(char* http_status, char* version, char* status_code, char* phrase) {
 2886              		.loc 1 696 0
 2887              		.cfi_startproc
 2888              		@ args = 0, pretend = 0, frame = 24
 2889              		@ frame_needed = 1, uses_anonymous_args = 0
 2890 0000 80B5     		push	{r7, lr}
 2891              		.cfi_def_cfa_offset 8
 2892              		.cfi_offset 7, -8
 2893              		.cfi_offset 14, -4
 2894 0002 86B0     		sub	sp, sp, #24
 2895              		.cfi_def_cfa_offset 32
 2896 0004 00AF     		add	r7, sp, #0
 2897              		.cfi_def_cfa_register 7
 2898 0006 F860     		str	r0, [r7, #12]
 2899 0008 B960     		str	r1, [r7, #8]
 2900 000a 7A60     		str	r2, [r7, #4]
 2901 000c 3B60     		str	r3, [r7]
 697:telit.c       ****     char *a, *b;
 698:telit.c       ****     
 699:telit.c       ****     // Find the version and copy to "version"
 700:telit.c       ****     a = strstr(http_status,"HTTP/");
 2902              		.loc 1 700 0
 2903 000e 2749     		ldr	r1, .L214
 2904 0010 F868     		ldr	r0, [r7, #12]
 2905 0012 FFF7FEFF 		bl	strstr
 2906 0016 7861     		str	r0, [r7, #20]
 701:telit.c       ****     if (a == NULL) {
 2907              		.loc 1 701 0
 2908 0018 7B69     		ldr	r3, [r7, #20]
 2909 001a 002B     		cmp	r3, #0
 2910 001c 01D1     		bne	.L209
 702:telit.c       ****         return 0u;
 2911              		.loc 1 702 0
 2912 001e 0023     		movs	r3, #0
 2913 0020 3FE0     		b	.L210
 2914              	.L209:
 703:telit.c       ****     }
 704:telit.c       ****     a += strlen("HTTP/");
 2915              		.loc 1 704 0
 2916 0022 7B69     		ldr	r3, [r7, #20]
 2917 0024 0533     		adds	r3, r3, #5
 2918 0026 7B61     		str	r3, [r7, #20]
 705:telit.c       ****     b = strstr(a," ");
 2919              		.loc 1 705 0
 2920 0028 2021     		movs	r1, #32
 2921 002a 7869     		ldr	r0, [r7, #20]
 2922 002c FFF7FEFF 		bl	strchr
 2923 0030 3861     		str	r0, [r7, #16]
 706:telit.c       ****     if (b == NULL) {
 2924              		.loc 1 706 0
ARM GAS  C:\Users\bk\AppData\Local\Temp\ccJDYvlx.s 			page 66


 2925 0032 3B69     		ldr	r3, [r7, #16]
 2926 0034 002B     		cmp	r3, #0
 2927 0036 01D1     		bne	.L211
 707:telit.c       ****         return 0u;
 2928              		.loc 1 707 0
 2929 0038 0023     		movs	r3, #0
 2930 003a 32E0     		b	.L210
 2931              	.L211:
 708:telit.c       ****     }
 709:telit.c       ****     strncpy(version,a,b-a);
 2932              		.loc 1 709 0
 2933 003c 3A69     		ldr	r2, [r7, #16]
 2934 003e 7B69     		ldr	r3, [r7, #20]
 2935 0040 D31A     		subs	r3, r2, r3
 2936 0042 1A46     		mov	r2, r3
 2937 0044 7969     		ldr	r1, [r7, #20]
 2938 0046 B868     		ldr	r0, [r7, #8]
 2939 0048 FFF7FEFF 		bl	strncpy
 710:telit.c       ****     
 711:telit.c       ****     // Find the status code and copy to "status_code"
 712:telit.c       ****     a = b+1;
 2940              		.loc 1 712 0
 2941 004c 3B69     		ldr	r3, [r7, #16]
 2942 004e 0133     		adds	r3, r3, #1
 2943 0050 7B61     		str	r3, [r7, #20]
 713:telit.c       ****     b = strstr(a," ");
 2944              		.loc 1 713 0
 2945 0052 2021     		movs	r1, #32
 2946 0054 7869     		ldr	r0, [r7, #20]
 2947 0056 FFF7FEFF 		bl	strchr
 2948 005a 3861     		str	r0, [r7, #16]
 714:telit.c       ****     if (b == NULL) {
 2949              		.loc 1 714 0
 2950 005c 3B69     		ldr	r3, [r7, #16]
 2951 005e 002B     		cmp	r3, #0
 2952 0060 01D1     		bne	.L212
 715:telit.c       ****         return 0u;
 2953              		.loc 1 715 0
 2954 0062 0023     		movs	r3, #0
 2955 0064 1DE0     		b	.L210
 2956              	.L212:
 716:telit.c       ****     }
 717:telit.c       ****     strncpy(status_code,a,b-a);
 2957              		.loc 1 717 0
 2958 0066 3A69     		ldr	r2, [r7, #16]
 2959 0068 7B69     		ldr	r3, [r7, #20]
 2960 006a D31A     		subs	r3, r2, r3
 2961 006c 1A46     		mov	r2, r3
 2962 006e 7969     		ldr	r1, [r7, #20]
 2963 0070 7868     		ldr	r0, [r7, #4]
 2964 0072 FFF7FEFF 		bl	strncpy
 718:telit.c       ****     //*status_code = (int) strtol(tmp_code,(char **) NULL, 10); 
 719:telit.c       ****     
 720:telit.c       ****     // Find the status phrase and copy to "phrase"
 721:telit.c       ****     a = b+1;
 2965              		.loc 1 721 0
 2966 0076 3B69     		ldr	r3, [r7, #16]
ARM GAS  C:\Users\bk\AppData\Local\Temp\ccJDYvlx.s 			page 67


 2967 0078 0133     		adds	r3, r3, #1
 2968 007a 7B61     		str	r3, [r7, #20]
 722:telit.c       ****     b = strstr(a,"\r\n");
 2969              		.loc 1 722 0
 2970 007c 0C49     		ldr	r1, .L214+4
 2971 007e 7869     		ldr	r0, [r7, #20]
 2972 0080 FFF7FEFF 		bl	strstr
 2973 0084 3861     		str	r0, [r7, #16]
 723:telit.c       ****     if (b == NULL) {
 2974              		.loc 1 723 0
 2975 0086 3B69     		ldr	r3, [r7, #16]
 2976 0088 002B     		cmp	r3, #0
 2977 008a 01D1     		bne	.L213
 724:telit.c       ****         return 0u;
 2978              		.loc 1 724 0
 2979 008c 0023     		movs	r3, #0
 2980 008e 08E0     		b	.L210
 2981              	.L213:
 725:telit.c       ****     }
 726:telit.c       ****     strncpy(phrase,a,b-a);
 2982              		.loc 1 726 0
 2983 0090 3A69     		ldr	r2, [r7, #16]
 2984 0092 7B69     		ldr	r3, [r7, #20]
 2985 0094 D31A     		subs	r3, r2, r3
 2986 0096 1A46     		mov	r2, r3
 2987 0098 7969     		ldr	r1, [r7, #20]
 2988 009a 3868     		ldr	r0, [r7]
 2989 009c FFF7FEFF 		bl	strncpy
 727:telit.c       ****     
 728:telit.c       ****     return 1u;
 2990              		.loc 1 728 0
 2991 00a0 0123     		movs	r3, #1
 2992              	.L210:
 729:telit.c       **** }
 2993              		.loc 1 729 0
 2994 00a2 1846     		mov	r0, r3
 2995 00a4 1837     		adds	r7, r7, #24
 2996              		.cfi_def_cfa_offset 8
 2997 00a6 BD46     		mov	sp, r7
 2998              		.cfi_def_cfa_register 13
 2999              		@ sp needed
 3000 00a8 80BD     		pop	{r7, pc}
 3001              	.L215:
 3002 00aa 00BF     		.align	2
 3003              	.L214:
 3004 00ac 88010000 		.word	.LC33
 3005 00b0 90010000 		.word	.LC34
 3006              		.cfi_endproc
 3007              	.LFE103:
 3008              		.size	parse_http_status, .-parse_http_status
 3009              		.section	.rodata
 3010 0193 00       		.align	2
 3011              	.LC35:
 3012 0194 2573202F 		.ascii	"%s /%s HTTP/%s\015\012\000"
 3012      25732048 
 3012      5454502F 
 3012      25730D0A 
ARM GAS  C:\Users\bk\AppData\Local\Temp\ccJDYvlx.s 			page 68


 3012      00
 3013 01a5 000000   		.align	2
 3014              	.LC36:
 3015 01a8 486F7374 		.ascii	"Host: \000"
 3015      3A2000
 3016 01af 00       		.align	2
 3017              	.LC37:
 3018 01b0 25732573 		.ascii	"%s%s%s%s%d%s%s%s%s\000"
 3018      25732573 
 3018      25642573 
 3018      25732573 
 3018      257300
 3019 01c3 00       		.align	2
 3020              	.LC38:
 3021 01c4 436F6E6E 		.ascii	"Connection: \000"
 3021      65637469 
 3021      6F6E3A20 
 3021      00
 3022 01d1 000000   		.align	2
 3023              	.LC39:
 3024 01d4 3A00     		.ascii	":\000"
 3025 01d6 0000     		.align	2
 3026              	.LC40:
 3027 01d8 25732573 		.ascii	"%s%s\000"
 3027      00
 3028 01dd 000000   		.align	2
 3029              	.LC41:
 3030 01e0 436F6E74 		.ascii	"Content-Type: text/plain\015\012\000"
 3030      656E742D 
 3030      54797065 
 3030      3A207465 
 3030      78742F70 
 3031 01fb 00       		.align	2
 3032              	.LC42:
 3033 01fc 25732573 		.ascii	"%s%s%s%d%s%s\000"
 3033      25732564 
 3033      25732573 
 3033      00
 3034 0209 000000   		.align	2
 3035              	.LC43:
 3036 020c 0D0A0D0A 		.ascii	"\015\012\015\012\000"
 3036      00
 3037 0211 000000   		.align	2
 3038              	.LC44:
 3039 0214 436F6E74 		.ascii	"Content-Length: \000"
 3039      656E742D 
 3039      4C656E67 
 3039      74683A20 
 3039      00
 3040 0225 000000   		.align	2
 3041              	.LC45:
 3042 0228 0D0A1A00 		.ascii	"\015\012\032\000"
 3043              		.section	.text.construct_generic_request,"ax",%progbits
 3044              		.align	2
 3045              		.global	construct_generic_request
 3046              		.thumb
 3047              		.thumb_func
ARM GAS  C:\Users\bk\AppData\Local\Temp\ccJDYvlx.s 			page 69


 3048              		.type	construct_generic_request, %function
 3049              	construct_generic_request:
 3050              	.LFB104:
 730:telit.c       **** 
 731:telit.c       **** void construct_generic_request(char* send_str, char* body, char* host, char* route,
 732:telit.c       ****                                int port, char* method, char* connection_type,
 733:telit.c       **** 	                           char *extra_headers, int extra_len, char* http_protocol){
 3051              		.loc 1 733 0
 3052              		.cfi_startproc
 3053              		@ args = 24, pretend = 0, frame = 16
 3054              		@ frame_needed = 1, uses_anonymous_args = 0
 3055 0000 80B5     		push	{r7, lr}
 3056              		.cfi_def_cfa_offset 8
 3057              		.cfi_offset 7, -8
 3058              		.cfi_offset 14, -4
 3059 0002 8CB0     		sub	sp, sp, #48
 3060              		.cfi_def_cfa_offset 56
 3061 0004 08AF     		add	r7, sp, #32
 3062              		.cfi_def_cfa 7, 24
 3063 0006 F860     		str	r0, [r7, #12]
 3064 0008 B960     		str	r1, [r7, #8]
 3065 000a 7A60     		str	r2, [r7, #4]
 3066 000c 3B60     		str	r3, [r7]
 734:telit.c       **** 
 735:telit.c       ****     sprintf(send_str,"%s /%s HTTP/%s\r\n", method, route, http_protocol);
 3067              		.loc 1 735 0
 3068 000e FB6A     		ldr	r3, [r7, #44]
 3069 0010 0093     		str	r3, [sp]
 3070 0012 3B68     		ldr	r3, [r7]
 3071 0014 FA69     		ldr	r2, [r7, #28]
 3072 0016 2449     		ldr	r1, .L219
 3073 0018 F868     		ldr	r0, [r7, #12]
 3074 001a FFF7FEFF 		bl	sprintf
 736:telit.c       ****     sprintf(send_str,"%s%s%s%s%d%s%s%s%s",
 3075              		.loc 1 736 0
 3076 001e 234B     		ldr	r3, .L219+4
 3077 0020 0693     		str	r3, [sp, #24]
 3078 0022 3B6A     		ldr	r3, [r7, #32]
 3079 0024 0593     		str	r3, [sp, #20]
 3080 0026 224B     		ldr	r3, .L219+8
 3081 0028 0493     		str	r3, [sp, #16]
 3082 002a 204B     		ldr	r3, .L219+4
 3083 002c 0393     		str	r3, [sp, #12]
 3084 002e BB69     		ldr	r3, [r7, #24]
 3085 0030 0293     		str	r3, [sp, #8]
 3086 0032 204B     		ldr	r3, .L219+12
 3087 0034 0193     		str	r3, [sp, #4]
 3088 0036 7B68     		ldr	r3, [r7, #4]
 3089 0038 0093     		str	r3, [sp]
 3090 003a 1F4B     		ldr	r3, .L219+16
 3091 003c FA68     		ldr	r2, [r7, #12]
 3092 003e 1F49     		ldr	r1, .L219+20
 3093 0040 F868     		ldr	r0, [r7, #12]
 3094 0042 FFF7FEFF 		bl	sprintf
 737:telit.c       ****             send_str, // 1
 738:telit.c       ****             "Host: ", host, ":", port, "\r\n", // 2 3 4 5 6
 739:telit.c       ****             "Connection: ", connection_type, "\r\n"); // 7 8 9
ARM GAS  C:\Users\bk\AppData\Local\Temp\ccJDYvlx.s 			page 70


 740:telit.c       **** 	if (extra_headers && strlen(extra_headers) > 0){
 3095              		.loc 1 740 0
 3096 0046 7B6A     		ldr	r3, [r7, #36]
 3097 0048 002B     		cmp	r3, #0
 3098 004a 09D0     		beq	.L217
 3099              		.loc 1 740 0 is_stmt 0 discriminator 1
 3100 004c 7B6A     		ldr	r3, [r7, #36]
 3101 004e 1B78     		ldrb	r3, [r3]	@ zero_extendqisi2
 3102 0050 002B     		cmp	r3, #0
 3103 0052 05D0     		beq	.L217
 741:telit.c       **** 		sprintf(send_str, "%s%s", send_str, extra_headers);
 3104              		.loc 1 741 0 is_stmt 1
 3105 0054 7B6A     		ldr	r3, [r7, #36]
 3106 0056 FA68     		ldr	r2, [r7, #12]
 3107 0058 1949     		ldr	r1, .L219+24
 3108 005a F868     		ldr	r0, [r7, #12]
 3109 005c FFF7FEFF 		bl	sprintf
 3110              	.L217:
 742:telit.c       **** 	}
 743:telit.c       **** 	if (strcmp(method, "GET") != 0){
 3111              		.loc 1 743 0
 3112 0060 1849     		ldr	r1, .L219+28
 3113 0062 F869     		ldr	r0, [r7, #28]
 3114 0064 FFF7FEFF 		bl	strcmp
 3115 0068 0346     		mov	r3, r0
 3116 006a 002B     		cmp	r3, #0
 3117 006c 12D0     		beq	.L218
 744:telit.c       **** 		sprintf(send_str, "%s%s%s%d%s%s",
 745:telit.c       **** 			send_str,
 746:telit.c       ****             "Content-Type: text/plain\r\n", // 10
 747:telit.c       ****             "Content-Length: ", (extra_len + strlen(body)), //11 12 (Extra len should be 2 for flas
 3118              		.loc 1 747 0
 3119 006e B868     		ldr	r0, [r7, #8]
 3120 0070 FFF7FEFF 		bl	strlen
 3121 0074 0246     		mov	r2, r0
 744:telit.c       **** 		sprintf(send_str, "%s%s%s%d%s%s",
 3122              		.loc 1 744 0
 3123 0076 BB6A     		ldr	r3, [r7, #40]
 3124 0078 1344     		add	r3, r3, r2
 3125 007a BA68     		ldr	r2, [r7, #8]
 3126 007c 0392     		str	r2, [sp, #12]
 3127 007e 124A     		ldr	r2, .L219+32
 3128 0080 0292     		str	r2, [sp, #8]
 3129 0082 0193     		str	r3, [sp, #4]
 3130 0084 114B     		ldr	r3, .L219+36
 3131 0086 0093     		str	r3, [sp]
 3132 0088 114B     		ldr	r3, .L219+40
 3133 008a FA68     		ldr	r2, [r7, #12]
 3134 008c 1149     		ldr	r1, .L219+44
 3135 008e F868     		ldr	r0, [r7, #12]
 3136 0090 FFF7FEFF 		bl	sprintf
 3137              	.L218:
 748:telit.c       ****             "\r\n\r\n", body); // 13 14 15
 749:telit.c       **** 	}
 750:telit.c       **** 	sprintf(send_str, "%s%s", send_str, "\r\n\032"); 
 3138              		.loc 1 750 0
 3139 0094 104B     		ldr	r3, .L219+48
ARM GAS  C:\Users\bk\AppData\Local\Temp\ccJDYvlx.s 			page 71


 3140 0096 FA68     		ldr	r2, [r7, #12]
 3141 0098 0949     		ldr	r1, .L219+24
 3142 009a F868     		ldr	r0, [r7, #12]
 3143 009c FFF7FEFF 		bl	sprintf
 751:telit.c       **** }
 3144              		.loc 1 751 0
 3145 00a0 00BF     		nop
 3146 00a2 1037     		adds	r7, r7, #16
 3147              		.cfi_def_cfa_offset 8
 3148 00a4 BD46     		mov	sp, r7
 3149              		.cfi_def_cfa_register 13
 3150              		@ sp needed
 3151 00a6 80BD     		pop	{r7, pc}
 3152              	.L220:
 3153              		.align	2
 3154              	.L219:
 3155 00a8 94010000 		.word	.LC35
 3156 00ac 90010000 		.word	.LC34
 3157 00b0 C4010000 		.word	.LC38
 3158 00b4 D4010000 		.word	.LC39
 3159 00b8 A8010000 		.word	.LC36
 3160 00bc B0010000 		.word	.LC37
 3161 00c0 D8010000 		.word	.LC40
 3162 00c4 D4000000 		.word	.LC17
 3163 00c8 0C020000 		.word	.LC43
 3164 00cc 14020000 		.word	.LC44
 3165 00d0 E0010000 		.word	.LC41
 3166 00d4 FC010000 		.word	.LC42
 3167 00d8 28020000 		.word	.LC45
 3168              		.cfi_endproc
 3169              	.LFE104:
 3170              		.size	construct_generic_request, .-construct_generic_request
 3171              		.section	.text.modem_start,"ax",%progbits
 3172              		.align	2
 3173              		.global	modem_start
 3174              		.thumb
 3175              		.thumb_func
 3176              		.type	modem_start, %function
 3177              	modem_start:
 3178              	.LFB105:
 752:telit.c       ****   
 753:telit.c       **** void modem_start(){    
 3179              		.loc 1 753 0
 3180              		.cfi_startproc
 3181              		@ args = 0, pretend = 0, frame = 0
 3182              		@ frame_needed = 1, uses_anonymous_args = 0
 3183 0000 80B5     		push	{r7, lr}
 3184              		.cfi_def_cfa_offset 8
 3185              		.cfi_offset 7, -8
 3186              		.cfi_offset 14, -4
 3187 0002 00AF     		add	r7, sp, #0
 3188              		.cfi_def_cfa_register 7
 754:telit.c       ****     /*enable UART and interrupts to receive data from the cell module*/ 
 755:telit.c       ****     UART_Telit_Start();
 3189              		.loc 1 755 0
 3190 0004 FFF7FEFF 		bl	UART_Telit_Start
 756:telit.c       ****     
ARM GAS  C:\Users\bk\AppData\Local\Temp\ccJDYvlx.s 			page 72


 757:telit.c       ****     isr_telit_rx_StartEx(isr_telit_rx);
 3191              		.loc 1 757 0
 3192 0008 0248     		ldr	r0, .L222
 3193 000a FFF7FEFF 		bl	isr_telit_rx_StartEx
 758:telit.c       ****    
 759:telit.c       ****     
 760:telit.c       **** }
 3194              		.loc 1 760 0
 3195 000e 00BF     		nop
 3196 0010 80BD     		pop	{r7, pc}
 3197              	.L223:
 3198 0012 00BF     		.align	2
 3199              	.L222:
 3200 0014 00000000 		.word	isr_telit_rx
 3201              		.cfi_endproc
 3202              	.LFE105:
 3203              		.size	modem_start, .-modem_start
 3204              		.section	.text.modem_stop,"ax",%progbits
 3205              		.align	2
 3206              		.global	modem_stop
 3207              		.thumb
 3208              		.thumb_func
 3209              		.type	modem_stop, %function
 3210              	modem_stop:
 3211              	.LFB106:
 761:telit.c       **** 
 762:telit.c       **** // deinitialize modem
 763:telit.c       **** void modem_stop(){
 3212              		.loc 1 763 0
 3213              		.cfi_startproc
 3214              		@ args = 0, pretend = 0, frame = 0
 3215              		@ frame_needed = 1, uses_anonymous_args = 0
 3216 0000 80B5     		push	{r7, lr}
 3217              		.cfi_def_cfa_offset 8
 3218              		.cfi_offset 7, -8
 3219              		.cfi_offset 14, -4
 3220 0002 00AF     		add	r7, sp, #0
 3221              		.cfi_def_cfa_register 7
 764:telit.c       ****     UART_Telit_Stop();
 3222              		.loc 1 764 0
 3223 0004 FFF7FEFF 		bl	UART_Telit_Stop
 765:telit.c       **** 	Pin_Telit_ONOFF_Write(0u);			// Save energy by pulling down "push button"
 3224              		.loc 1 765 0
 3225 0008 0020     		movs	r0, #0
 3226 000a FFF7FEFF 		bl	Pin_Telit_ONOFF_Write
 766:telit.c       ****     Pin_Telit_pwr_Write(0u);
 3227              		.loc 1 766 0
 3228 000e 0020     		movs	r0, #0
 3229 0010 FFF7FEFF 		bl	Pin_Telit_pwr_Write
 767:telit.c       **** 	//Pin_Telit_SHDN_Write(0u);		// Save energy by pulling down "push button"
 768:telit.c       ****     isr_telit_rx_Stop();
 3230              		.loc 1 768 0
 3231 0014 FFF7FEFF 		bl	isr_telit_rx_Stop
 769:telit.c       ****     
 770:telit.c       ****     
 771:telit.c       **** 
 772:telit.c       **** }
ARM GAS  C:\Users\bk\AppData\Local\Temp\ccJDYvlx.s 			page 73


 3232              		.loc 1 772 0
 3233 0018 00BF     		nop
 3234 001a 80BD     		pop	{r7, pc}
 3235              		.cfi_endproc
 3236              	.LFE106:
 3237              		.size	modem_stop, .-modem_stop
 3238              		.section	.rodata
 3239              		.align	2
 3240              	.LC46:
 3241 022c 41542347 		.ascii	"AT#GPIO=2,1,1,1\015\000"
 3241      50494F3D 
 3241      322C312C 
 3241      312C310D 
 3241      00
 3242 023d 000000   		.align	2
 3243              	.LC47:
 3244 0240 41540D00 		.ascii	"AT\015\000"
 3245              		.section	.text.modem_power_on,"ax",%progbits
 3246              		.align	2
 3247              		.global	modem_power_on
 3248              		.thumb
 3249              		.thumb_func
 3250              		.type	modem_power_on, %function
 3251              	modem_power_on:
 3252              	.LFB107:
 773:telit.c       **** 
 774:telit.c       **** uint8_t modem_power_on(){
 3253              		.loc 1 774 0
 3254              		.cfi_startproc
 3255              		@ args = 0, pretend = 0, frame = 8
 3256              		@ frame_needed = 1, uses_anonymous_args = 0
 3257 0000 80B5     		push	{r7, lr}
 3258              		.cfi_def_cfa_offset 8
 3259              		.cfi_offset 7, -8
 3260              		.cfi_offset 14, -4
 3261 0002 82B0     		sub	sp, sp, #8
 3262              		.cfi_def_cfa_offset 16
 3263 0004 00AF     		add	r7, sp, #0
 3264              		.cfi_def_cfa_register 7
 775:telit.c       ****        
 776:telit.c       ****     uint8_t counter=0;
 3265              		.loc 1 776 0
 3266 0006 0023     		movs	r3, #0
 3267 0008 FB71     		strb	r3, [r7, #7]
 777:telit.c       ****     Pin_Telit_ONOFF_Write(1u);
 3268              		.loc 1 777 0
 3269 000a 0120     		movs	r0, #1
 3270 000c FFF7FEFF 		bl	Pin_Telit_ONOFF_Write
 778:telit.c       ****     Pin_Telit_pwr_Write(1u);
 3271              		.loc 1 778 0
 3272 0010 0120     		movs	r0, #1
 3273 0012 FFF7FEFF 		bl	Pin_Telit_pwr_Write
 779:telit.c       ****     CyDelay(2000u);
 3274              		.loc 1 779 0
 3275 0016 4FF4FA60 		mov	r0, #2000
 3276 001a FFF7FEFF 		bl	CyDelay
 780:telit.c       ****     
ARM GAS  C:\Users\bk\AppData\Local\Temp\ccJDYvlx.s 			page 74


 781:telit.c       ****     
 782:telit.c       ****     //ideally, PIN18 on the module is configured a a GPIO
 783:telit.c       ****     //This GPIO should pull low when the modem is pwoered up and ready
 784:telit.c       ****     //This will save time, otherwise, we need to wait for two full seconds
 785:telit.c       ****     if(Pin_Telit_SWRDY_Read()){
 3277              		.loc 1 785 0
 3278 001e FFF7FEFF 		bl	Pin_Telit_SWRDY_Read
 3279 0022 0346     		mov	r3, r0
 3280 0024 002B     		cmp	r3, #0
 3281 0026 16D0     		beq	.L226
 786:telit.c       ****         
 787:telit.c       ****         Pin_Telit_ONOFF_Write(0u);
 3282              		.loc 1 787 0
 3283 0028 0020     		movs	r0, #0
 3284 002a FFF7FEFF 		bl	Pin_Telit_ONOFF_Write
 3285              	.L229:
 788:telit.c       ****                     
 789:telit.c       ****         /* wait till Telit RDY pin goes high, and PSOC SWRDY pin goes low*/
 790:telit.c       ****         do{
 791:telit.c       ****             CyDelay(200);
 3286              		.loc 1 791 0
 3287 002e C820     		movs	r0, #200
 3288 0030 FFF7FEFF 		bl	CyDelay
 792:telit.c       ****             counter++;       
 3289              		.loc 1 792 0
 3290 0034 FB79     		ldrb	r3, [r7, #7]	@ zero_extendqisi2
 3291 0036 0133     		adds	r3, r3, #1
 3292 0038 FB71     		strb	r3, [r7, #7]
 793:telit.c       ****             if(counter>=255)return 0;                
 3293              		.loc 1 793 0
 3294 003a FB79     		ldrb	r3, [r7, #7]	@ zero_extendqisi2
 3295 003c FF2B     		cmp	r3, #255
 3296 003e 01D1     		bne	.L227
 3297              		.loc 1 793 0 is_stmt 0 discriminator 1
 3298 0040 0023     		movs	r3, #0
 3299 0042 33E0     		b	.L228
 3300              	.L227:
 794:telit.c       ****         }while(Pin_Telit_SWRDY_Read());
 3301              		.loc 1 794 0 is_stmt 1
 3302 0044 FFF7FEFF 		bl	Pin_Telit_SWRDY_Read
 3303 0048 0346     		mov	r3, r0
 3304 004a 002B     		cmp	r3, #0
 3305 004c EFD1     		bne	.L229
 795:telit.c       ****         
 796:telit.c       ****         Pin_Telit_ONOFF_Write(1u); /*power on telit cell module*/
 3306              		.loc 1 796 0
 3307 004e 0120     		movs	r0, #1
 3308 0050 FFF7FEFF 		bl	Pin_Telit_ONOFF_Write
 3309 0054 0FE0     		b	.L230
 3310              	.L226:
 797:telit.c       ****             
 798:telit.c       ****     }else{
 799:telit.c       ****          //if the GPIO feature was not configured, wait for 2 full secs and try to enable it for ne
 800:telit.c       ****          Pin_Telit_ONOFF_Write(0u); /*power on telit cell module*/
 3311              		.loc 1 800 0
 3312 0056 0020     		movs	r0, #0
 3313 0058 FFF7FEFF 		bl	Pin_Telit_ONOFF_Write
ARM GAS  C:\Users\bk\AppData\Local\Temp\ccJDYvlx.s 			page 75


 801:telit.c       ****          CyDelay(2000); /*ON must be tied low for >= 1 second*/
 3314              		.loc 1 801 0
 3315 005c 4FF4FA60 		mov	r0, #2000
 3316 0060 FFF7FEFF 		bl	CyDelay
 802:telit.c       ****          Pin_Telit_ONOFF_Write(1u);
 3317              		.loc 1 802 0
 3318 0064 0120     		movs	r0, #1
 3319 0066 FFF7FEFF 		bl	Pin_Telit_ONOFF_Write
 803:telit.c       ****          at_write_command("AT#GPIO=2,1,1,1\r","OK",1000u);
 3320              		.loc 1 803 0
 3321 006a 4FF47A72 		mov	r2, #1000
 3322 006e 1149     		ldr	r1, .L234
 3323 0070 1148     		ldr	r0, .L234+4
 3324 0072 FFF7FEFF 		bl	at_write_command
 3325              	.L230:
 804:telit.c       ****     }
 805:telit.c       ****     
 806:telit.c       ****     
 807:telit.c       ****    
 808:telit.c       ****     for(counter=0;counter<3;counter++){            
 3326              		.loc 1 808 0
 3327 0076 0023     		movs	r3, #0
 3328 0078 FB71     		strb	r3, [r7, #7]
 3329 007a 13E0     		b	.L231
 3330              	.L233:
 809:telit.c       ****     	if(at_write_command("AT\r","OK",1000u)==1){
 3331              		.loc 1 809 0
 3332 007c 4FF47A72 		mov	r2, #1000
 3333 0080 0C49     		ldr	r1, .L234
 3334 0082 0E48     		ldr	r0, .L234+8
 3335 0084 FFF7FEFF 		bl	at_write_command
 3336 0088 0346     		mov	r3, r0
 3337 008a 012B     		cmp	r3, #1
 3338 008c 07D1     		bne	.L232
 810:telit.c       ****             
 811:telit.c       ****             /* set proper parameters for modem 
 812:telit.c       ****              * so it will check network registration next*/
 813:telit.c       ****             modem.modem_event=EVENT_CHECK_UART;
 3339              		.loc 1 813 0
 3340 008e 0C4B     		ldr	r3, .L234+12
 3341 0090 0022     		movs	r2, #0
 3342 0092 1A70     		strb	r2, [r3]
 814:telit.c       ****             modem.modem_state=STATE_ECHO_CORRECT;
 3343              		.loc 1 814 0
 3344 0094 0A4B     		ldr	r3, .L234+12
 3345 0096 0122     		movs	r2, #1
 3346 0098 5A70     		strb	r2, [r3, #1]
 815:telit.c       ****             return 1;
 3347              		.loc 1 815 0
 3348 009a 0123     		movs	r3, #1
 3349 009c 06E0     		b	.L228
 3350              	.L232:
 808:telit.c       ****     	if(at_write_command("AT\r","OK",1000u)==1){
 3351              		.loc 1 808 0 discriminator 2
 3352 009e FB79     		ldrb	r3, [r7, #7]	@ zero_extendqisi2
 3353 00a0 0133     		adds	r3, r3, #1
 3354 00a2 FB71     		strb	r3, [r7, #7]
ARM GAS  C:\Users\bk\AppData\Local\Temp\ccJDYvlx.s 			page 76


 3355              	.L231:
 808:telit.c       ****     	if(at_write_command("AT\r","OK",1000u)==1){
 3356              		.loc 1 808 0 is_stmt 0 discriminator 1
 3357 00a4 FB79     		ldrb	r3, [r7, #7]	@ zero_extendqisi2
 3358 00a6 022B     		cmp	r3, #2
 3359 00a8 E8D9     		bls	.L233
 816:telit.c       ****         }
 817:telit.c       ****     }
 818:telit.c       ****     
 819:telit.c       ****     return 0;
 3360              		.loc 1 819 0 is_stmt 1
 3361 00aa 0023     		movs	r3, #0
 3362              	.L228:
 820:telit.c       **** }
 3363              		.loc 1 820 0
 3364 00ac 1846     		mov	r0, r3
 3365 00ae 0837     		adds	r7, r7, #8
 3366              		.cfi_def_cfa_offset 8
 3367 00b0 BD46     		mov	sp, r7
 3368              		.cfi_def_cfa_register 13
 3369              		@ sp needed
 3370 00b2 80BD     		pop	{r7, pc}
 3371              	.L235:
 3372              		.align	2
 3373              	.L234:
 3374 00b4 14000000 		.word	.LC2
 3375 00b8 2C020000 		.word	.LC46
 3376 00bc 40020000 		.word	.LC47
 3377 00c0 00000000 		.word	modem
 3378              		.cfi_endproc
 3379              	.LFE107:
 3380              		.size	modem_power_on, .-modem_power_on
 3381              		.section	.rodata
 3382              		.align	2
 3383              	.LC48:
 3384 0244 41542353 		.ascii	"AT#SHDN\015\000"
 3384      48444E0D 
 3384      00
 3385              		.section	.text.modem_power_off,"ax",%progbits
 3386              		.align	2
 3387              		.global	modem_power_off
 3388              		.thumb
 3389              		.thumb_func
 3390              		.type	modem_power_off, %function
 3391              	modem_power_off:
 3392              	.LFB108:
 821:telit.c       **** 
 822:telit.c       **** void modem_power_off(){
 3393              		.loc 1 822 0
 3394              		.cfi_startproc
 3395              		@ args = 0, pretend = 0, frame = 0
 3396              		@ frame_needed = 1, uses_anonymous_args = 0
 3397 0000 80B5     		push	{r7, lr}
 3398              		.cfi_def_cfa_offset 8
 3399              		.cfi_offset 7, -8
 3400              		.cfi_offset 14, -4
 3401 0002 00AF     		add	r7, sp, #0
ARM GAS  C:\Users\bk\AppData\Local\Temp\ccJDYvlx.s 			page 77


 3402              		.cfi_def_cfa_register 7
 823:telit.c       ****    
 824:telit.c       ****     if(at_write_command("AT#SHDN\r","OK",1000u) != 1){
 3403              		.loc 1 824 0
 3404 0004 4FF47A72 		mov	r2, #1000
 3405 0008 0B49     		ldr	r1, .L238
 3406 000a 0C48     		ldr	r0, .L238+4
 3407 000c FFF7FEFF 		bl	at_write_command
 3408 0010 0346     		mov	r3, r0
 3409 0012 012B     		cmp	r3, #1
 3410 0014 09D0     		beq	.L237
 825:telit.c       ****         Pin_Telit_ONOFF_Write(1u); /*power off telit cell module*/
 3411              		.loc 1 825 0
 3412 0016 0120     		movs	r0, #1
 3413 0018 FFF7FEFF 		bl	Pin_Telit_ONOFF_Write
 826:telit.c       ****         CyDelay(2500);
 3414              		.loc 1 826 0
 3415 001c 40F6C410 		movw	r0, #2500
 3416 0020 FFF7FEFF 		bl	CyDelay
 827:telit.c       ****         Pin_Telit_ONOFF_Write(0u);        
 3417              		.loc 1 827 0
 3418 0024 0020     		movs	r0, #0
 3419 0026 FFF7FEFF 		bl	Pin_Telit_ONOFF_Write
 3420              	.L237:
 828:telit.c       ****     }   
 829:telit.c       ****     
 830:telit.c       ****     /* it takes >=15s for the unit to shut down completely*/
 831:telit.c       ****     CyDelay(15000);
 3421              		.loc 1 831 0
 3422 002a 43F69820 		movw	r0, #15000
 3423 002e FFF7FEFF 		bl	CyDelay
 832:telit.c       **** 
 833:telit.c       **** }
 3424              		.loc 1 833 0
 3425 0032 00BF     		nop
 3426 0034 80BD     		pop	{r7, pc}
 3427              	.L239:
 3428 0036 00BF     		.align	2
 3429              	.L238:
 3430 0038 14000000 		.word	.LC2
 3431 003c 44020000 		.word	.LC48
 3432              		.cfi_endproc
 3433              	.LFE108:
 3434              		.size	modem_power_off, .-modem_power_off
 3435              		.section	.rodata
 3436 024d 000000   		.align	2
 3437              	.LC49:
 3438 0250 41542353 		.ascii	"AT#SELINT=2\015\000"
 3438      454C494E 
 3438      543D320D 
 3438      00
 3439              		.section	.text.modem_set_interface_style,"ax",%progbits
 3440              		.align	2
 3441              		.global	modem_set_interface_style
 3442              		.thumb
 3443              		.thumb_func
 3444              		.type	modem_set_interface_style, %function
ARM GAS  C:\Users\bk\AppData\Local\Temp\ccJDYvlx.s 			page 78


 3445              	modem_set_interface_style:
 3446              	.LFB109:
 834:telit.c       **** 
 835:telit.c       **** uint8_t modem_set_interface_style(){
 3447              		.loc 1 835 0
 3448              		.cfi_startproc
 3449              		@ args = 0, pretend = 0, frame = 0
 3450              		@ frame_needed = 1, uses_anonymous_args = 0
 3451 0000 80B5     		push	{r7, lr}
 3452              		.cfi_def_cfa_offset 8
 3453              		.cfi_offset 7, -8
 3454              		.cfi_offset 14, -4
 3455 0002 00AF     		add	r7, sp, #0
 3456              		.cfi_def_cfa_register 7
 836:telit.c       ****     return(at_write_command("AT#SELINT=2\r","OK",1000));
 3457              		.loc 1 836 0
 3458 0004 4FF47A72 		mov	r2, #1000
 3459 0008 0349     		ldr	r1, .L242
 3460 000a 0448     		ldr	r0, .L242+4
 3461 000c FFF7FEFF 		bl	at_write_command
 3462 0010 0346     		mov	r3, r0
 837:telit.c       **** }
 3463              		.loc 1 837 0
 3464 0012 1846     		mov	r0, r3
 3465 0014 80BD     		pop	{r7, pc}
 3466              	.L243:
 3467 0016 00BF     		.align	2
 3468              	.L242:
 3469 0018 14000000 		.word	.LC2
 3470 001c 50020000 		.word	.LC49
 3471              		.cfi_endproc
 3472              	.LFE109:
 3473              		.size	modem_set_interface_style, .-modem_set_interface_style
 3474              		.section	.rodata
 3475 025d 000000   		.align	2
 3476              	.LC50:
 3477 0260 41542347 		.ascii	"AT#GPIO=1,0,2\015\000"
 3477      50494F3D 
 3477      312C302C 
 3477      320D00
 3478              		.section	.text.modem_set_LED,"ax",%progbits
 3479              		.align	2
 3480              		.global	modem_set_LED
 3481              		.thumb
 3482              		.thumb_func
 3483              		.type	modem_set_LED, %function
 3484              	modem_set_LED:
 3485              	.LFB110:
 838:telit.c       **** 
 839:telit.c       **** uint8_t modem_set_LED(){
 3486              		.loc 1 839 0
 3487              		.cfi_startproc
 3488              		@ args = 0, pretend = 0, frame = 0
 3489              		@ frame_needed = 1, uses_anonymous_args = 0
 3490 0000 80B5     		push	{r7, lr}
 3491              		.cfi_def_cfa_offset 8
 3492              		.cfi_offset 7, -8
ARM GAS  C:\Users\bk\AppData\Local\Temp\ccJDYvlx.s 			page 79


 3493              		.cfi_offset 14, -4
 3494 0002 00AF     		add	r7, sp, #0
 3495              		.cfi_def_cfa_register 7
 840:telit.c       ****     if(at_write_command("AT#GPIO=1,0,2\r","OK",1000u)==1)return(1);
 3496              		.loc 1 840 0
 3497 0004 4FF47A72 		mov	r2, #1000
 3498 0008 0549     		ldr	r1, .L247
 3499 000a 0648     		ldr	r0, .L247+4
 3500 000c FFF7FEFF 		bl	at_write_command
 3501 0010 0346     		mov	r3, r0
 3502 0012 012B     		cmp	r3, #1
 3503 0014 01D1     		bne	.L245
 3504              		.loc 1 840 0 is_stmt 0 discriminator 1
 3505 0016 0123     		movs	r3, #1
 3506 0018 00E0     		b	.L246
 3507              	.L245:
 841:telit.c       ****     return(2);
 3508              		.loc 1 841 0 is_stmt 1
 3509 001a 0223     		movs	r3, #2
 3510              	.L246:
 842:telit.c       **** }
 3511              		.loc 1 842 0
 3512 001c 1846     		mov	r0, r3
 3513 001e 80BD     		pop	{r7, pc}
 3514              	.L248:
 3515              		.align	2
 3516              	.L247:
 3517 0020 14000000 		.word	.LC2
 3518 0024 60020000 		.word	.LC50
 3519              		.cfi_endproc
 3520              	.LFE110:
 3521              		.size	modem_set_LED, .-modem_set_LED
 3522              		.section	.rodata
 3523 026f 00       		.align	2
 3524              	.LC51:
 3525 0270 41542343 		.ascii	"AT#CIMI\015\000"
 3525      494D490D 
 3525      00
 3526              		.section	.text.modem_report_IMSI,"ax",%progbits
 3527              		.align	2
 3528              		.global	modem_report_IMSI
 3529              		.thumb
 3530              		.thumb_func
 3531              		.type	modem_report_IMSI, %function
 3532              	modem_report_IMSI:
 3533              	.LFB111:
 843:telit.c       **** 
 844:telit.c       **** uint8_t modem_report_IMSI(){
 3534              		.loc 1 844 0
 3535              		.cfi_startproc
 3536              		@ args = 0, pretend = 0, frame = 0
 3537              		@ frame_needed = 1, uses_anonymous_args = 0
 3538 0000 80B5     		push	{r7, lr}
 3539              		.cfi_def_cfa_offset 8
 3540              		.cfi_offset 7, -8
 3541              		.cfi_offset 14, -4
 3542 0002 00AF     		add	r7, sp, #0
ARM GAS  C:\Users\bk\AppData\Local\Temp\ccJDYvlx.s 			page 80


 3543              		.cfi_def_cfa_register 7
 845:telit.c       ****     return(at_write_command("AT#CIMI\r","OK",1000u));
 3544              		.loc 1 845 0
 3545 0004 4FF47A72 		mov	r2, #1000
 3546 0008 0349     		ldr	r1, .L251
 3547 000a 0448     		ldr	r0, .L251+4
 3548 000c FFF7FEFF 		bl	at_write_command
 3549 0010 0346     		mov	r3, r0
 846:telit.c       **** }
 3550              		.loc 1 846 0
 3551 0012 1846     		mov	r0, r3
 3552 0014 80BD     		pop	{r7, pc}
 3553              	.L252:
 3554 0016 00BF     		.align	2
 3555              	.L251:
 3556 0018 14000000 		.word	.LC2
 3557 001c 70020000 		.word	.LC51
 3558              		.cfi_endproc
 3559              	.LFE111:
 3560              		.size	modem_report_IMSI, .-modem_report_IMSI
 3561              		.section	.rodata
 3562 0279 000000   		.align	2
 3563              	.LC52:
 3564 027c 53746172 		.ascii	"Start Modem Test\000"
 3564      74204D6F 
 3564      64656D20 
 3564      54657374 
 3564      00
 3565 028d 000000   		.align	2
 3566              	.LC53:
 3567 0290 5475726E 		.ascii	"Turn Modem On\000"
 3567      204D6F64 
 3567      656D204F 
 3567      6E00
 3568 029e 0000     		.align	2
 3569              	.LC54:
 3570 02a0 4D6F6465 		.ascii	"Modem is On\000"
 3570      6D206973 
 3570      204F6E00 
 3571              		.align	2
 3572              	.LC55:
 3573 02ac 41542353 		.ascii	"AT#SIMDET=0\015\000"
 3573      494D4445 
 3573      543D300D 
 3573      00
 3574 02b9 000000   		.align	2
 3575              	.LC56:
 3576 02bc 41542353 		.ascii	"AT#SIMDET=1\015\000"
 3576      494D4445 
 3576      543D310D 
 3576      00
 3577 02c9 000000   		.align	2
 3578              	.LC57:
 3579 02cc 41542353 		.ascii	"AT#SCFG=1,3,300,90,600,50\015\000"
 3579      4346473D 
 3579      312C332C 
 3579      3330302C 
ARM GAS  C:\Users\bk\AppData\Local\Temp\ccJDYvlx.s 			page 81


 3579      39302C36 
 3580 02e7 00       		.align	2
 3581              	.LC58:
 3582 02e8 4D6F6465 		.ascii	"Modem CREG STatus: %s\000"
 3582      6D204352 
 3582      45472053 
 3582      54617475 
 3582      733A2025 
 3583 02fe 0000     		.align	2
 3584              	.LC59:
 3585 0300 4D6F6465 		.ascii	"Modem MEID received: %s\000"
 3585      6D204D45 
 3585      49442072 
 3585      65636569 
 3585      7665643A 
 3586              		.align	2
 3587              	.LC60:
 3588 0318 25730A0A 		.ascii	"%s\012\012\000"
 3588      00
 3589 031d 000000   		.align	2
 3590              	.LC61:
 3591 0320 41542341 		.ascii	"AT#AUTOATT=0\015\000"
 3591      55544F41 
 3591      54543D30 
 3591      0D00
 3592 032e 0000     		.align	2
 3593              	.LC62:
 3594 0330 41542B43 		.ascii	"AT+CGATT=1\015\000"
 3594      47415454 
 3594      3D310D00 
 3595              		.align	2
 3596              	.LC63:
 3597 033c 4D6F6465 		.ascii	"Modem RSSI %d, FER %d: %s\000"
 3597      6D205253 
 3597      53492025 
 3597      642C2046 
 3597      45522025 
 3598 0356 0000     		.align	2
 3599              	.LC64:
 3600 0358 4E657477 		.ascii	"Network Check: Status=%d\000"
 3600      6F726B20 
 3600      43686563 
 3600      6B3A2053 
 3600      74617475 
 3601 0371 000000   		.align	2
 3602              	.LC65:
 3603 0374 2C3000   		.ascii	",0\000"
 3604 0377 00       		.align	2
 3605              	.LC66:
 3606 0378 41542353 		.ascii	"AT#SCFG?\015\000"
 3606      4346473F 
 3606      0D00
 3607 0382 0000     		.align	2
 3608              	.LC67:
 3609 0384 41542353 		.ascii	"AT#SD=3,0,8086,\"data.open-storm.org\",0,0,1\015\000"
 3609      443D332C 
 3609      302C3830 
ARM GAS  C:\Users\bk\AppData\Local\Temp\ccJDYvlx.s 			page 82


 3609      38362C22 
 3609      64617461 
 3610              		.align	2
 3611              	.LC68:
 3612 03b0 436F6E6E 		.ascii	"Connect to Open Storm: Status=%d\000"
 3612      65637420 
 3612      746F204F 
 3612      70656E20 
 3612      53746F72 
 3613 03d1 000000   		.align	2
 3614              	.LC69:
 3615 03d4 41542353 		.ascii	"AT#SSEND=3\015\012\000"
 3615      53454E44 
 3615      3D330D0A 
 3615      00
 3616 03e1 000000   		.align	2
 3617              	.LC70:
 3618 03e4 48545450 		.ascii	"HTTP/1.1 204\000"
 3618      2F312E31 
 3618      20323034 
 3618      00
 3619 03f1 000000   		.align	2
 3620              	.LC71:
 3621 03f4 504F5354 		.ascii	"POST /write?db=ARB&u=generic_node&p=MakeFloodsCurre"
 3621      202F7772 
 3621      6974653F 
 3621      64623D41 
 3621      52422675 
 3622 0427 6E747320 		.ascii	"nts HTTP/1.1\015\012Host: data.open-storm.org:8086\015"
 3622      48545450 
 3622      2F312E31 
 3622      0D0A486F 
 3622      73743A20 
 3623 0454 0A436F6E 		.ascii	"\012Connection: close\015\012Content-Length: 30\015"
 3623      6E656374 
 3623      696F6E3A 
 3623      20636C6F 
 3623      73650D0A 
 3624 047b 0A0D0A76 		.ascii	"\012\015\012v_bat,node_id=GGB003 value=8.5\015\012\015"
 3624      5F626174 
 3624      2C6E6F64 
 3624      655F6964 
 3624      3D474742 
 3625 049f 0A1A00   		.ascii	"\012\032\000"
 3626 04a2 0000     		.align	2
 3627              	.LC72:
 3628 04a4 456E6420 		.ascii	"End Modem Test: Status=%d\000"
 3628      4D6F6465 
 3628      6D205465 
 3628      73743A20 
 3628      53746174 
 3629              		.section	.text.modem_startup,"ax",%progbits
 3630              		.align	2
 3631              		.global	modem_startup
 3632              		.thumb
 3633              		.thumb_func
 3634              		.type	modem_startup, %function
ARM GAS  C:\Users\bk\AppData\Local\Temp\ccJDYvlx.s 			page 83


 3635              	modem_startup:
 3636              	.LFB112:
 847:telit.c       **** 
 848:telit.c       **** uint8_t modem_startup(){
 3637              		.loc 1 848 0
 3638              		.cfi_startproc
 3639              		@ args = 0, pretend = 0, frame = 16
 3640              		@ frame_needed = 1, uses_anonymous_args = 0
 3641 0000 80B5     		push	{r7, lr}
 3642              		.cfi_def_cfa_offset 8
 3643              		.cfi_offset 7, -8
 3644              		.cfi_offset 14, -4
 3645 0002 84B0     		sub	sp, sp, #16
 3646              		.cfi_def_cfa_offset 24
 3647 0004 00AF     		add	r7, sp, #0
 3648              		.cfi_def_cfa_register 7
 849:telit.c       ****     
 850:telit.c       ****     printNotif("Start Modem Test");
 3649              		.loc 1 850 0
 3650 0006 7C48     		ldr	r0, .L278
 3651 0008 FFF7FEFF 		bl	printNotif
 851:telit.c       ****     int rssi = 0, fer = 0;
 3652              		.loc 1 851 0
 3653 000c 0023     		movs	r3, #0
 3654 000e BB60     		str	r3, [r7, #8]
 3655 0010 0023     		movs	r3, #0
 3656 0012 7B60     		str	r3, [r7, #4]
 852:telit.c       ****     uint8_t ready=0, iter=0;
 3657              		.loc 1 852 0
 3658 0014 0023     		movs	r3, #0
 3659 0016 FB73     		strb	r3, [r7, #15]
 3660 0018 0023     		movs	r3, #0
 3661 001a BB73     		strb	r3, [r7, #14]
 853:telit.c       ****     
 854:telit.c       ****     /*enable UART communication with Telit module*/
 855:telit.c       ****     printNotif("Turn Modem On");
 3662              		.loc 1 855 0
 3663 001c 7748     		ldr	r0, .L278+4
 3664 001e FFF7FEFF 		bl	printNotif
 856:telit.c       ****     modem_start();
 3665              		.loc 1 856 0
 3666 0022 FFF7FEFF 		bl	modem_start
 857:telit.c       ****     
 858:telit.c       ****     while(iter<3){
 3667              		.loc 1 858 0
 3668 0026 0BE0     		b	.L254
 3669              	.L257:
 859:telit.c       ****         ready=modem_power_on();
 3670              		.loc 1 859 0
 3671 0028 FFF7FEFF 		bl	modem_power_on
 3672 002c 0346     		mov	r3, r0
 3673 002e FB73     		strb	r3, [r7, #15]
 860:telit.c       ****         if(ready) break;
 3674              		.loc 1 860 0
 3675 0030 FB7B     		ldrb	r3, [r7, #15]	@ zero_extendqisi2
 3676 0032 002B     		cmp	r3, #0
 3677 0034 08D1     		bne	.L274
ARM GAS  C:\Users\bk\AppData\Local\Temp\ccJDYvlx.s 			page 84


 861:telit.c       ****         modem_power_off();
 3678              		.loc 1 861 0
 3679 0036 FFF7FEFF 		bl	modem_power_off
 862:telit.c       ****         iter++;
 3680              		.loc 1 862 0
 3681 003a BB7B     		ldrb	r3, [r7, #14]	@ zero_extendqisi2
 3682 003c 0133     		adds	r3, r3, #1
 3683 003e BB73     		strb	r3, [r7, #14]
 3684              	.L254:
 858:telit.c       ****         ready=modem_power_on();
 3685              		.loc 1 858 0
 3686 0040 BB7B     		ldrb	r3, [r7, #14]	@ zero_extendqisi2
 3687 0042 022B     		cmp	r3, #2
 3688 0044 F0D9     		bls	.L257
 3689 0046 00E0     		b	.L256
 3690              	.L274:
 860:telit.c       ****         modem_power_off();
 3691              		.loc 1 860 0
 3692 0048 00BF     		nop
 3693              	.L256:
 863:telit.c       ****     }
 864:telit.c       ****     
 865:telit.c       ****     if(!ready) return 0;
 3694              		.loc 1 865 0
 3695 004a FB7B     		ldrb	r3, [r7, #15]	@ zero_extendqisi2
 3696 004c 002B     		cmp	r3, #0
 3697 004e 01D1     		bne	.L258
 3698              		.loc 1 865 0 is_stmt 0 discriminator 1
 3699 0050 0023     		movs	r3, #0
 3700 0052 CCE0     		b	.L273
 3701              	.L258:
 866:telit.c       ****     
 867:telit.c       ****     printNotif("Modem is On");
 3702              		.loc 1 867 0 is_stmt 1
 3703 0054 6A48     		ldr	r0, .L278+8
 3704 0056 FFF7FEFF 		bl	printNotif
 868:telit.c       ****     
 869:telit.c       ****     uint8_t i=0;
 3705              		.loc 1 869 0
 3706 005a 0023     		movs	r3, #0
 3707 005c 7B73     		strb	r3, [r7, #13]
 870:telit.c       ****     for(i=0;i<3;i++){
 3708              		.loc 1 870 0
 3709 005e 0023     		movs	r3, #0
 3710 0060 7B73     		strb	r3, [r7, #13]
 3711 0062 0BE0     		b	.L260
 3712              	.L263:
 871:telit.c       ****         if(at_write_command("AT#SIMDET=0\r","OK",1000))break;
 3713              		.loc 1 871 0
 3714 0064 4FF47A72 		mov	r2, #1000
 3715 0068 6649     		ldr	r1, .L278+12
 3716 006a 6748     		ldr	r0, .L278+16
 3717 006c FFF7FEFF 		bl	at_write_command
 3718 0070 0346     		mov	r3, r0
 3719 0072 002B     		cmp	r3, #0
 3720 0074 06D1     		bne	.L275
 870:telit.c       ****     for(i=0;i<3;i++){
ARM GAS  C:\Users\bk\AppData\Local\Temp\ccJDYvlx.s 			page 85


 3721              		.loc 1 870 0 discriminator 2
 3722 0076 7B7B     		ldrb	r3, [r7, #13]	@ zero_extendqisi2
 3723 0078 0133     		adds	r3, r3, #1
 3724 007a 7B73     		strb	r3, [r7, #13]
 3725              	.L260:
 870:telit.c       ****     for(i=0;i<3;i++){
 3726              		.loc 1 870 0 is_stmt 0 discriminator 1
 3727 007c 7B7B     		ldrb	r3, [r7, #13]	@ zero_extendqisi2
 3728 007e 022B     		cmp	r3, #2
 3729 0080 F0D9     		bls	.L263
 3730 0082 00E0     		b	.L262
 3731              	.L275:
 3732              		.loc 1 871 0 is_stmt 1
 3733 0084 00BF     		nop
 3734              	.L262:
 872:telit.c       ****     }
 873:telit.c       ****     CyDelay(5000);
 3735              		.loc 1 873 0
 3736 0086 41F28830 		movw	r0, #5000
 3737 008a FFF7FEFF 		bl	CyDelay
 874:telit.c       ****     
 875:telit.c       ****     /* the SIM card connector doesn't have the SIMIN pin.
 876:telit.c       ****      * hence, the SIM card presence status is manually set to ignore
 877:telit.c       ****      * SIMIN pin, and act as "SIM inserted"*/    
 878:telit.c       ****     for(i=0;i<3;i++){
 3738              		.loc 1 878 0
 3739 008e 0023     		movs	r3, #0
 3740 0090 7B73     		strb	r3, [r7, #13]
 3741 0092 0BE0     		b	.L264
 3742              	.L267:
 879:telit.c       ****         if(at_write_command("AT#SIMDET=1\r","OK",1000))break;
 3743              		.loc 1 879 0
 3744 0094 4FF47A72 		mov	r2, #1000
 3745 0098 5A49     		ldr	r1, .L278+12
 3746 009a 5C48     		ldr	r0, .L278+20
 3747 009c FFF7FEFF 		bl	at_write_command
 3748 00a0 0346     		mov	r3, r0
 3749 00a2 002B     		cmp	r3, #0
 3750 00a4 06D1     		bne	.L276
 878:telit.c       ****         if(at_write_command("AT#SIMDET=1\r","OK",1000))break;
 3751              		.loc 1 878 0 discriminator 2
 3752 00a6 7B7B     		ldrb	r3, [r7, #13]	@ zero_extendqisi2
 3753 00a8 0133     		adds	r3, r3, #1
 3754 00aa 7B73     		strb	r3, [r7, #13]
 3755              	.L264:
 878:telit.c       ****         if(at_write_command("AT#SIMDET=1\r","OK",1000))break;
 3756              		.loc 1 878 0 is_stmt 0 discriminator 1
 3757 00ac 7B7B     		ldrb	r3, [r7, #13]	@ zero_extendqisi2
 3758 00ae 022B     		cmp	r3, #2
 3759 00b0 F0D9     		bls	.L267
 3760 00b2 00E0     		b	.L266
 3761              	.L276:
 3762              		.loc 1 879 0 is_stmt 1
 3763 00b4 00BF     		nop
 3764              	.L266:
 880:telit.c       ****     }   
 881:telit.c       ****     
ARM GAS  C:\Users\bk\AppData\Local\Temp\ccJDYvlx.s 			page 86


 882:telit.c       ****     modem_define_PDP();                       //modem_define_PDP();/* set this parameter for first-
 3765              		.loc 1 882 0
 3766 00b6 FFF7FEFF 		bl	modem_define_PDP
 883:telit.c       ****     
 884:telit.c       ****     at_write_command("AT#SCFG=1,3,300,90,600,50\r","OK",1000);
 3767              		.loc 1 884 0
 3768 00ba 4FF47A72 		mov	r2, #1000
 3769 00be 5149     		ldr	r1, .L278+12
 3770 00c0 5348     		ldr	r0, .L278+24
 3771 00c2 FFF7FEFF 		bl	at_write_command
 885:telit.c       ****          
 886:telit.c       ****     modem_check_network();
 3772              		.loc 1 886 0
 3773 00c6 FFF7FEFF 		bl	modem_check_network
 887:telit.c       ****     printNotif("Modem CREG STatus: %s", uart_received_string);
 3774              		.loc 1 887 0
 3775 00ca 5249     		ldr	r1, .L278+28
 3776 00cc 5248     		ldr	r0, .L278+32
 3777 00ce FFF7FEFF 		bl	printNotif
 888:telit.c       ****                                 // BPW: Appears the modem either doesn't receive or respond every o
 889:telit.c       ****                                 //      First I tried repeating each command,
 890:telit.c       ****                                 //      then I edited at_write_command and added an outer loop.
 891:telit.c       ****                                 //      It appears to be a bandaid that fixes the problem, but perh
 892:telit.c       ****                                 //      not the best solution for the long term
 893:telit.c       ****                                 //
 894:telit.c       ****                                 //      The state machine currently relies on each
 895:telit.c       ****                                 //      response successfully being transmitted back from the modem
 896:telit.c       ****                                 //      It may be a hardware issue?
 897:telit.c       ****                                 //
 898:telit.c       ****                                 //      The bandaid fix could be to update EVENT_NODE_LIST[]
 899:telit.c       ****                                 //      so that the state machine doesn't always go back to the sta
 900:telit.c       ****                                 //      whenever it received a blank response instead of the expect
 901:telit.c       ****                                 //      - Related functions to the state machine are:
 902:telit.c       ****                                 //        modem_check_action(), modem_select_action(), and modem_ch
 903:telit.c       ****     modem_set_LED();            //modem_set_LED();
 3778              		.loc 1 903 0
 3779 00d2 FFF7FEFF 		bl	modem_set_LED
 904:telit.c       ****     modem_set_flow_control(0);  //modem_set_flow_control(0);
 3780              		.loc 1 904 0
 3781 00d6 0020     		movs	r0, #0
 3782 00d8 FFF7FEFF 		bl	modem_set_flow_control
 905:telit.c       ****     modem_setup();              //modem_setup();
 3783              		.loc 1 905 0
 3784 00dc FFF7FEFF 		bl	modem_setup
 906:telit.c       ****     modem_set_interface_style();//modem_set_interface_style();
 3785              		.loc 1 906 0
 3786 00e0 FFF7FEFF 		bl	modem_set_interface_style
 907:telit.c       ****     //modem_report_hardware_identification();
 908:telit.c       ****     modem_report_product_identification(); //modem_report_product_identification();
 3787              		.loc 1 908 0
 3788 00e4 FFF7FEFF 		bl	modem_report_product_identification
 909:telit.c       ****     
 910:telit.c       ****     parse_meid(MEID);
 3789              		.loc 1 910 0
 3790 00e8 4C48     		ldr	r0, .L278+36
 3791 00ea FFF7FEFF 		bl	parse_meid
 911:telit.c       ****     printNotif("Modem MEID received: %s", MEID);
ARM GAS  C:\Users\bk\AppData\Local\Temp\ccJDYvlx.s 			page 87


 3792              		.loc 1 911 0
 3793 00ee 4B49     		ldr	r1, .L278+36
 3794 00f0 4B48     		ldr	r0, .L278+40
 3795 00f2 FFF7FEFF 		bl	printNotif
 912:telit.c       ****     printf("%s\n\n",MEID);
 3796              		.loc 1 912 0
 3797 00f6 4949     		ldr	r1, .L278+36
 3798 00f8 4A48     		ldr	r0, .L278+44
 3799 00fa FFF7FEFF 		bl	printf
 913:telit.c       ****     //modem_report_software_version();
 914:telit.c       ****        
 915:telit.c       ****     /* it usually takes two queries to the SIM card before
 916:telit.c       ****      * its existence is acknowledged*/
 917:telit.c       ****     for(i=0;i<3;i++){
 3800              		.loc 1 917 0
 3801 00fe 0023     		movs	r3, #0
 3802 0100 7B73     		strb	r3, [r7, #13]
 3803 0102 07E0     		b	.L268
 3804              	.L271:
 918:telit.c       ****         if(modem_report_IMSI())break;
 3805              		.loc 1 918 0
 3806 0104 FFF7FEFF 		bl	modem_report_IMSI
 3807 0108 0346     		mov	r3, r0
 3808 010a 002B     		cmp	r3, #0
 3809 010c 06D1     		bne	.L277
 917:telit.c       ****         if(modem_report_IMSI())break;
 3810              		.loc 1 917 0 discriminator 2
 3811 010e 7B7B     		ldrb	r3, [r7, #13]	@ zero_extendqisi2
 3812 0110 0133     		adds	r3, r3, #1
 3813 0112 7B73     		strb	r3, [r7, #13]
 3814              	.L268:
 917:telit.c       ****         if(modem_report_IMSI())break;
 3815              		.loc 1 917 0 is_stmt 0 discriminator 1
 3816 0114 7B7B     		ldrb	r3, [r7, #13]	@ zero_extendqisi2
 3817 0116 022B     		cmp	r3, #2
 3818 0118 F4D9     		bls	.L271
 3819 011a 00E0     		b	.L270
 3820              	.L277:
 3821              		.loc 1 918 0 is_stmt 1
 3822 011c 00BF     		nop
 3823              	.L270:
 919:telit.c       ****     }     
 920:telit.c       ****     
 921:telit.c       ****     at_write_command("AT#AUTOATT=0\r","OK",1000);
 3824              		.loc 1 921 0
 3825 011e 4FF47A72 		mov	r2, #1000
 3826 0122 3849     		ldr	r1, .L278+12
 3827 0124 4048     		ldr	r0, .L278+48
 3828 0126 FFF7FEFF 		bl	at_write_command
 922:telit.c       ****     at_write_command("AT+CGATT=1\r","",1000); // doesn't respond
 3829              		.loc 1 922 0
 3830 012a 4FF47A72 		mov	r2, #1000
 3831 012e 3F49     		ldr	r1, .L278+52
 3832 0130 3F48     		ldr	r0, .L278+56
 3833 0132 FFF7FEFF 		bl	at_write_command
 923:telit.c       ****     
 924:telit.c       ****     rssi = 0;
ARM GAS  C:\Users\bk\AppData\Local\Temp\ccJDYvlx.s 			page 88


 3834              		.loc 1 924 0
 3835 0136 0023     		movs	r3, #0
 3836 0138 BB60     		str	r3, [r7, #8]
 925:telit.c       ****     fer = 0;
 3837              		.loc 1 925 0
 3838 013a 0023     		movs	r3, #0
 3839 013c 7B60     		str	r3, [r7, #4]
 926:telit.c       ****     modem_check_signal_quality(&rssi,&fer);
 3840              		.loc 1 926 0
 3841 013e 3A1D     		adds	r2, r7, #4
 3842 0140 07F10803 		add	r3, r7, #8
 3843 0144 1146     		mov	r1, r2
 3844 0146 1846     		mov	r0, r3
 3845 0148 FFF7FEFF 		bl	modem_check_signal_quality
 927:telit.c       ****     printNotif("Modem RSSI %d, FER %d: %s", rssi, fer);
 3846              		.loc 1 927 0
 3847 014c BB68     		ldr	r3, [r7, #8]
 3848 014e 7A68     		ldr	r2, [r7, #4]
 3849 0150 1946     		mov	r1, r3
 3850 0152 3848     		ldr	r0, .L278+60
 3851 0154 FFF7FEFF 		bl	printNotif
 928:telit.c       ****     
 929:telit.c       ****     
 930:telit.c       ****     uint8 status = 0;
 3852              		.loc 1 930 0
 3853 0158 0023     		movs	r3, #0
 3854 015a 3B73     		strb	r3, [r7, #12]
 931:telit.c       ****     status = modem_check_network();                    //modem_check_network(); 
 3855              		.loc 1 931 0
 3856 015c FFF7FEFF 		bl	modem_check_network
 3857 0160 0346     		mov	r3, r0
 3858 0162 3B73     		strb	r3, [r7, #12]
 932:telit.c       ****     printNotif("Network Check: Status=%d", status);
 3859              		.loc 1 932 0
 3860 0164 3B7B     		ldrb	r3, [r7, #12]	@ zero_extendqisi2
 3861 0166 1946     		mov	r1, r3
 3862 0168 3348     		ldr	r0, .L278+64
 3863 016a FFF7FEFF 		bl	printNotif
 933:telit.c       ****     
 934:telit.c       ****     at_write_command("AT#CCLK?\r","OK",1000); //at_write_command("AT#CCLK?\r","OK",1000);
 3864              		.loc 1 934 0
 3865 016e 4FF47A72 		mov	r2, #1000
 3866 0172 2449     		ldr	r1, .L278+12
 3867 0174 3148     		ldr	r0, .L278+68
 3868 0176 FFF7FEFF 		bl	at_write_command
 935:telit.c       ****     //at_write_command("AT#GPRS=1\r","OK",1000);
 936:telit.c       ****     if (at_write_command("AT#SGACT?\r",",0",1000)){
 3869              		.loc 1 936 0
 3870 017a 4FF47A72 		mov	r2, #1000
 3871 017e 3049     		ldr	r1, .L278+72
 3872 0180 3048     		ldr	r0, .L278+76
 3873 0182 FFF7FEFF 		bl	at_write_command
 3874 0186 0346     		mov	r3, r0
 3875 0188 002B     		cmp	r3, #0
 3876 018a 0BD0     		beq	.L272
 937:telit.c       ****         at_write_command("AT#SCFG?\r","OK",1000);
 3877              		.loc 1 937 0
ARM GAS  C:\Users\bk\AppData\Local\Temp\ccJDYvlx.s 			page 89


 3878 018c 4FF47A72 		mov	r2, #1000
 3879 0190 1C49     		ldr	r1, .L278+12
 3880 0192 2D48     		ldr	r0, .L278+80
 3881 0194 FFF7FEFF 		bl	at_write_command
 938:telit.c       ****         at_write_command("AT#SGACT=3,1\r","OK",1000);   
 3882              		.loc 1 938 0
 3883 0198 4FF47A72 		mov	r2, #1000
 3884 019c 1949     		ldr	r1, .L278+12
 3885 019e 2B48     		ldr	r0, .L278+84
 3886 01a0 FFF7FEFF 		bl	at_write_command
 3887              	.L272:
 939:telit.c       ****     }
 940:telit.c       ****     //at_write_command("AT#SCFG?\r","OK",1000);
 941:telit.c       ****     
 942:telit.c       ****     
 943:telit.c       ****     status = at_write_command("AT#SD=3,0,8086,\"data.open-storm.org\",0,0,1\r","OK",5000);
 3888              		.loc 1 943 0
 3889 01a4 41F28832 		movw	r2, #5000
 3890 01a8 1649     		ldr	r1, .L278+12
 3891 01aa 2948     		ldr	r0, .L278+88
 3892 01ac FFF7FEFF 		bl	at_write_command
 3893 01b0 0346     		mov	r3, r0
 3894 01b2 3B73     		strb	r3, [r7, #12]
 944:telit.c       ****     printNotif("Connect to Open Storm: Status=%d", status);
 3895              		.loc 1 944 0
 3896 01b4 3B7B     		ldrb	r3, [r7, #12]	@ zero_extendqisi2
 3897 01b6 1946     		mov	r1, r3
 3898 01b8 2648     		ldr	r0, .L278+92
 3899 01ba FFF7FEFF 		bl	printNotif
 945:telit.c       ****     
 946:telit.c       ****     status = at_write_command("AT#SSEND=3\r\n",   ">", 1000);
 3900              		.loc 1 946 0
 3901 01be 4FF47A72 		mov	r2, #1000
 3902 01c2 2549     		ldr	r1, .L278+96
 3903 01c4 2548     		ldr	r0, .L278+100
 3904 01c6 FFF7FEFF 		bl	at_write_command
 3905 01ca 0346     		mov	r3, r0
 3906 01cc 3B73     		strb	r3, [r7, #12]
 947:telit.c       ****     
 948:telit.c       ****     status = at_write_command("POST /write?db=ARB&u=generic_node&p=MakeFloodsCurrents HTTP/1.1\r\nH
 3907              		.loc 1 948 0
 3908 01ce 4FF47A72 		mov	r2, #1000
 3909 01d2 2349     		ldr	r1, .L278+104
 3910 01d4 2348     		ldr	r0, .L278+108
 3911 01d6 FFF7FEFF 		bl	at_write_command
 3912 01da 0346     		mov	r3, r0
 3913 01dc 3B73     		strb	r3, [r7, #12]
 949:telit.c       ****     
 950:telit.c       ****     printNotif("End Modem Test: Status=%d", status);
 3914              		.loc 1 950 0
 3915 01de 3B7B     		ldrb	r3, [r7, #12]	@ zero_extendqisi2
 3916 01e0 1946     		mov	r1, r3
 3917 01e2 2148     		ldr	r0, .L278+112
 3918 01e4 FFF7FEFF 		bl	printNotif
 951:telit.c       ****     //at_write_command("AT#SRECV=3,1000","OK",1000);
 952:telit.c       **** 
 953:telit.c       **** 
ARM GAS  C:\Users\bk\AppData\Local\Temp\ccJDYvlx.s 			page 90


 954:telit.c       ****     
 955:telit.c       ****     adjust_time();
 3919              		.loc 1 955 0
 3920 01e8 FFF7FEFF 		bl	adjust_time
 956:telit.c       ****     
 957:telit.c       ****     return 1;           
 3921              		.loc 1 957 0
 3922 01ec 0123     		movs	r3, #1
 3923              	.L273:
 958:telit.c       **** }
 3924              		.loc 1 958 0 discriminator 1
 3925 01ee 1846     		mov	r0, r3
 3926 01f0 1037     		adds	r7, r7, #16
 3927              		.cfi_def_cfa_offset 8
 3928 01f2 BD46     		mov	sp, r7
 3929              		.cfi_def_cfa_register 13
 3930              		@ sp needed
 3931 01f4 80BD     		pop	{r7, pc}
 3932              	.L279:
 3933 01f6 00BF     		.align	2
 3934              	.L278:
 3935 01f8 7C020000 		.word	.LC52
 3936 01fc 90020000 		.word	.LC53
 3937 0200 A0020000 		.word	.LC54
 3938 0204 14000000 		.word	.LC2
 3939 0208 AC020000 		.word	.LC55
 3940 020c BC020000 		.word	.LC56
 3941 0210 CC020000 		.word	.LC57
 3942 0214 00000000 		.word	uart_received_string
 3943 0218 E8020000 		.word	.LC58
 3944 021c 00000000 		.word	MEID
 3945 0220 00030000 		.word	.LC59
 3946 0224 18030000 		.word	.LC60
 3947 0228 20030000 		.word	.LC61
 3948 022c C4000000 		.word	.LC14
 3949 0230 30030000 		.word	.LC62
 3950 0234 3C030000 		.word	.LC63
 3951 0238 58030000 		.word	.LC64
 3952 023c 18000000 		.word	.LC3
 3953 0240 74030000 		.word	.LC65
 3954 0244 34000000 		.word	.LC6
 3955 0248 78030000 		.word	.LC66
 3956 024c 40000000 		.word	.LC7
 3957 0250 84030000 		.word	.LC67
 3958 0254 B0030000 		.word	.LC68
 3959 0258 88000000 		.word	.LC12
 3960 025c D4030000 		.word	.LC69
 3961 0260 E4030000 		.word	.LC70
 3962 0264 F4030000 		.word	.LC71
 3963 0268 A4040000 		.word	.LC72
 3964              		.cfi_endproc
 3965              	.LFE112:
 3966              		.size	modem_startup, .-modem_startup
 3967              		.text
 3968              	.Letext0:
 3969              		.file 2 "c:\\program files (x86)\\cypress\\psoc creator\\4.2\\psoc creator\\import\\gnu\\arm\\5.4.
 3970              		.file 3 "c:\\program files (x86)\\cypress\\psoc creator\\4.2\\psoc creator\\import\\gnu\\arm\\5.4.
ARM GAS  C:\Users\bk\AppData\Local\Temp\ccJDYvlx.s 			page 91


 3971              		.file 4 "Generated_Source\\PSoC5/cytypes.h"
 3972              		.file 5 "./telit.h"
 3973              		.file 6 "Generated_Source\\PSoC5/core_cm3.h"
 3974              		.file 7 "debug.h"