ARM GAS  C:\Users\hail\AppData\Local\Temp\ccTBLrfv.s 			page 1


   1              		.syntax unified
   2              		.cpu cortex-m3
   3              		.fpu softvfp
   4              		.eabi_attribute 20, 1
   5              		.eabi_attribute 21, 1
   6              		.eabi_attribute 23, 3
   7              		.eabi_attribute 24, 1
   8              		.eabi_attribute 25, 1
   9              		.eabi_attribute 26, 1
  10              		.eabi_attribute 30, 6
  11              		.eabi_attribute 34, 1
  12              		.eabi_attribute 18, 4
  13              		.thumb
  14              		.syntax unified
  15              		.file	"voltages.c"
  16              		.text
  17              	.Ltext0:
  18              		.cfi_sections	.debug_frame
  19              		.syntax unified
  20              		.global _printf_float
  21              		.thumb
  22              		.syntax unified
  23              		.comm	modem_state,1,1
  24              		.comm	modem_start_time_stamp,4,4
  25              		.comm	modem_info,60,4
  26              		.comm	modem_stats,12,4
  27              		.comm	dataPointsInStack,2,2
  28              		.comm	dataPointsInStackPointer,4,4
  29              		.comm	data,2200,4
  30              		.comm	http_request,4000,4
  31              		.comm	http_body,4000,4
  32              		.comm	http_route,200,4
  33              		.comm	system_info,28,4
  34              		.comm	system_settings,324,4
  35              		.global	__aeabi_f2d
  36              		.global	__aeabi_dsub
  37              		.global	__aeabi_d2f
  38              		.global	__aeabi_fmul
  39              		.global	__aeabi_fsub
  40              		.section	.text.voltage_take_readings,"ax",%progbits
  41              		.align	2
  42              		.global	voltage_take_readings
  43              		.thumb
  44              		.thumb_func
  45              		.type	voltage_take_readings, %function
  46              	voltage_take_readings:
  47              	.LFB64:
  48              		.file 1 "voltages.c"
   1:voltages.c    **** #include "voltages.h"
   2:voltages.c    **** #include "notoriOS.h"
   3:voltages.c    **** #include <stdio.h>
   4:voltages.c    **** #include <string.h>
   5:voltages.c    **** 
   6:voltages.c    **** 
   7:voltages.c    **** 
   8:voltages.c    **** voltage_t voltage_take_readings(){
  49              		.loc 1 8 0
ARM GAS  C:\Users\hail\AppData\Local\Temp\ccTBLrfv.s 			page 2


  50              		.cfi_startproc
  51              		@ args = 0, pretend = 0, frame = 96
  52              		@ frame_needed = 1, uses_anonymous_args = 0
  53 0000 90B5     		push	{r4, r7, lr}
  54              		.cfi_def_cfa_offset 12
  55              		.cfi_offset 4, -12
  56              		.cfi_offset 7, -8
  57              		.cfi_offset 14, -4
  58 0002 99B0     		sub	sp, sp, #100
  59              		.cfi_def_cfa_offset 112
  60 0004 00AF     		add	r7, sp, #0
  61              		.cfi_def_cfa_register 7
  62 0006 7860     		str	r0, [r7, #4]
   9:voltages.c    ****     
  10:voltages.c    ****     voltage_t voltage;  // Create variable voltage of data structure voltage_t.
  11:voltages.c    ****     
  12:voltages.c    **** 	Battery_Voltage_Enable_Write(ON);   // Flip on the ADC pin high (turns it on).
  63              		.loc 1 12 0
  64 0008 0120     		movs	r0, #1
  65 000a FFF7FEFF 		bl	Battery_Voltage_Enable_Write
  13:voltages.c    ****     
  14:voltages.c    **** 	CyDelay(10u);	    // 10 seconds delay to give time to flip on ADC pin.
  66              		.loc 1 14 0
  67 000e 0A20     		movs	r0, #10
  68 0010 FFF7FEFF 		bl	CyDelay
  15:voltages.c    ****     
  16:voltages.c    ****     ADC_RestoreConfig();// Have to call this and save (See below). Otherwise ADC won't work through
  69              		.loc 1 16 0
  70 0014 FFF7FEFF 		bl	ADC_RestoreConfig
  17:voltages.c    **** 	
  18:voltages.c    **** 	ADC_Start();        // Start the ADC
  71              		.loc 1 18 0
  72 0018 FFF7FEFF 		bl	ADC_Start
  19:voltages.c    ****     
  20:voltages.c    ****     ADC_StartConvert(); // Forces the ADC to initiate a conversion. If in the "Single Sample" mode,
  73              		.loc 1 20 0
  74 001c FFF7FEFF 		bl	ADC_StartConvert
  21:voltages.c    ****     AMux_Start();       // Start the Analog Multiplexer
  75              		.loc 1 21 0
  76 0020 FFF7FEFF 		bl	AMux_Start
  22:voltages.c    ****     
  23:voltages.c    ****     
  24:voltages.c    ****     float v_offset = 0; //read ADCvoltage offset 1st (relative to GND).
  77              		.loc 1 24 0
  78 0024 4FF00003 		mov	r3, #0
  79 0028 BB65     		str	r3, [r7, #88]	@ float
  80              	.LBB2:
  25:voltages.c    ****     
  26:voltages.c    ****     float channels[AMux_CHANNELS];
  27:voltages.c    ****     
  28:voltages.c    ****     for(uint8 c = 0; c< AMux_CHANNELS + 1; c++) // Sweep the MUX Channels
  81              		.loc 1 28 0
  82 002a 0023     		movs	r3, #0
  83 002c 87F85F30 		strb	r3, [r7, #95]
  84 0030 34E0     		b	.L2
  85              	.L5:
  86              	.LBB3:
ARM GAS  C:\Users\hail\AppData\Local\Temp\ccTBLrfv.s 			page 3


  29:voltages.c    ****     {
  30:voltages.c    ****         
  31:voltages.c    ****         int32 readings[N_SAMPLES];  // Creates new int32 array called readings of size N_SAMPLES = 
  32:voltages.c    ****         
  33:voltages.c    ****         AMux_Select(c); // This functions first disconnects all channels then connects the given ch
  87              		.loc 1 33 0
  88 0032 97F85F30 		ldrb	r3, [r7, #95]	@ zero_extendqisi2
  89 0036 1846     		mov	r0, r3
  90 0038 FFF7FEFF 		bl	AMux_Select
  91              	.LBB4:
  34:voltages.c    ****         for(uint16 i=0; i< N_SAMPLES; i++){
  92              		.loc 1 34 0
  93 003c 0023     		movs	r3, #0
  94 003e A7F85C30 		strh	r3, [r7, #92]	@ movhi
  95 0042 0FE0     		b	.L3
  96              	.L4:
  35:voltages.c    ****             
  36:voltages.c    ****             readings[i] = ADC_Read32(); // When called, it will start ADC conversions, wait for the
  97              		.loc 1 36 0 discriminator 3
  98 0044 B7F85C40 		ldrh	r4, [r7, #92]
  99 0048 FFF7FEFF 		bl	ADC_Read32
 100 004c 0246     		mov	r2, r0
 101 004e A300     		lsls	r3, r4, #2
 102 0050 07F16001 		add	r1, r7, #96
 103 0054 0B44     		add	r3, r3, r1
 104 0056 43F8542C 		str	r2, [r3, #-84]
  34:voltages.c    ****         for(uint16 i=0; i< N_SAMPLES; i++){
 105              		.loc 1 34 0 discriminator 3
 106 005a B7F85C30 		ldrh	r3, [r7, #92]
 107 005e 0133     		adds	r3, r3, #1
 108 0060 A7F85C30 		strh	r3, [r7, #92]	@ movhi
 109              	.L3:
  34:voltages.c    ****         for(uint16 i=0; i< N_SAMPLES; i++){
 110              		.loc 1 34 0 is_stmt 0 discriminator 1
 111 0064 B7F85C30 		ldrh	r3, [r7, #92]
 112 0068 0A2B     		cmp	r3, #10
 113 006a EBD9     		bls	.L4
 114              	.LBE4:
  37:voltages.c    ****         }
  38:voltages.c    ****         // Converts the ADC output to Volts as a floating point number. 
  39:voltages.c    ****         // Get the median of readings and return that.
  40:voltages.c    ****         channels[c] = ADC_CountsTo_Volts(find_median32(readings,N_SAMPLES));    //get median of rea
 115              		.loc 1 40 0 is_stmt 1 discriminator 2
 116 006c 97F85F40 		ldrb	r4, [r7, #95]	@ zero_extendqisi2
 117 0070 07F10C03 		add	r3, r7, #12
 118 0074 0B21     		movs	r1, #11
 119 0076 1846     		mov	r0, r3
 120 0078 FFF7FEFF 		bl	find_median32
 121 007c 0346     		mov	r3, r0
 122 007e 1846     		mov	r0, r3
 123 0080 FFF7FEFF 		bl	ADC_CountsTo_Volts
 124 0084 0246     		mov	r2, r0
 125 0086 A300     		lsls	r3, r4, #2
 126 0088 07F16001 		add	r1, r7, #96
 127 008c 0B44     		add	r3, r3, r1
 128 008e 43F8282C 		str	r2, [r3, #-40]	@ float
 129              	.LBE3:
ARM GAS  C:\Users\hail\AppData\Local\Temp\ccTBLrfv.s 			page 4


  28:voltages.c    ****     {
 130              		.loc 1 28 0 discriminator 2
 131 0092 97F85F30 		ldrb	r3, [r7, #95]	@ zero_extendqisi2
 132 0096 0133     		adds	r3, r3, #1
 133 0098 87F85F30 		strb	r3, [r7, #95]
 134              	.L2:
  28:voltages.c    ****     {
 135              		.loc 1 28 0 is_stmt 0 discriminator 1
 136 009c 97F85F30 		ldrb	r3, [r7, #95]	@ zero_extendqisi2
 137 00a0 032B     		cmp	r3, #3
 138 00a2 C6D9     		bls	.L5
 139              	.LBE2:
  41:voltages.c    ****         
  42:voltages.c    ****     }
  43:voltages.c    ****     
  44:voltages.c    ****     AMux_Stop();        // Disconnects all Analog Multiplex channels.
 140              		.loc 1 44 0 is_stmt 1
 141 00a4 FFF7FEFF 		bl	AMux_Start
  45:voltages.c    ****     ADC_StopConvert();  // Forces the ADC to stop all conversions.
 142              		.loc 1 45 0
 143 00a8 FFF7FEFF 		bl	ADC_StopConvert
  46:voltages.c    ****     ADC_SaveConfig();   // Save the register configuration which are not retention.
 144              		.loc 1 46 0
 145 00ac FFF7FEFF 		bl	ADC_SaveConfig
  47:voltages.c    ****     ADC_Stop();         // Stops and powers down the ADC component and the internal clock if the ex
 146              		.loc 1 47 0
 147 00b0 FFF7FEFF 		bl	ADC_Stop
  48:voltages.c    ****     
  49:voltages.c    ****     Battery_Voltage_Enable_Write(OFF);  // Pulls ADC pin low (turns it off).
 148              		.loc 1 49 0
 149 00b4 0020     		movs	r0, #0
 150 00b6 FFF7FEFF 		bl	Battery_Voltage_Enable_Write
  50:voltages.c    ****     float offset = channels[0] - 1.024; // Should be 1.024 exactly. BK saw an offset when measuring
 151              		.loc 1 50 0
 152 00ba BB6B     		ldr	r3, [r7, #56]	@ float
 153 00bc 1846     		mov	r0, r3
 154 00be FFF7FEFF 		bl	__aeabi_f2d
 155 00c2 17A3     		adr	r3, .L7
 156 00c4 D3E90023 		ldrd	r2, [r3]
 157 00c8 FFF7FEFF 		bl	__aeabi_dsub
 158 00cc 0346     		mov	r3, r0
 159 00ce 0C46     		mov	r4, r1
 160 00d0 1846     		mov	r0, r3
 161 00d2 2146     		mov	r1, r4
 162 00d4 FFF7FEFF 		bl	__aeabi_d2f
 163 00d8 0346     		mov	r3, r0
 164 00da 7B65     		str	r3, [r7, #84]	@ float
  51:voltages.c    ****     voltage.voltage_battery = (channels[ADC_MUX_VBAT] * 11) - offset; // Voltage divider is (1/10) 
 165              		.loc 1 51 0
 166 00dc FB6B     		ldr	r3, [r7, #60]	@ float
 167 00de 1249     		ldr	r1, .L7+8
 168 00e0 1846     		mov	r0, r3
 169 00e2 FFF7FEFF 		bl	__aeabi_fmul
 170 00e6 0346     		mov	r3, r0
 171 00e8 796D     		ldr	r1, [r7, #84]	@ float
 172 00ea 1846     		mov	r0, r3
 173 00ec FFF7FEFF 		bl	__aeabi_fsub
ARM GAS  C:\Users\hail\AppData\Local\Temp\ccTBLrfv.s 			page 5


 174 00f0 0346     		mov	r3, r0
 175 00f2 7B64     		str	r3, [r7, #68]	@ float
  52:voltages.c    ****     voltage.voltage_solar = channels[ADC_MUX_VSOL] - offset; // Just want voltage here
 176              		.loc 1 52 0
 177 00f4 3B6C     		ldr	r3, [r7, #64]	@ float
 178 00f6 796D     		ldr	r1, [r7, #84]	@ float
 179 00f8 1846     		mov	r0, r3
 180 00fa FFF7FEFF 		bl	__aeabi_fsub
 181 00fe 0346     		mov	r3, r0
 182 0100 BB64     		str	r3, [r7, #72]	@ float
  53:voltages.c    ****     // Voltage across sensor resistor gives 100mV drop for max current, which is 800mA
  54:voltages.c    ****     //voltage.voltage_charge_current = 0.1*(channels[ADC_MUX_CHRG] - voltage.voltage_battery);
  55:voltages.c    ****     
  56:voltages.c    ****     voltage.valid = 1;
 183              		.loc 1 56 0
 184 0102 0123     		movs	r3, #1
 185 0104 87F85030 		strb	r3, [r7, #80]
  57:voltages.c    ****     
  58:voltages.c    ****     return voltage;
 186              		.loc 1 58 0
 187 0108 7B68     		ldr	r3, [r7, #4]
 188 010a 1C46     		mov	r4, r3
 189 010c 07F14403 		add	r3, r7, #68
 190 0110 0FCB     		ldmia	r3, {r0, r1, r2, r3}
 191 0112 84E80F00 		stmia	r4, {r0, r1, r2, r3}
  59:voltages.c    **** }
 192              		.loc 1 59 0
 193 0116 7868     		ldr	r0, [r7, #4]
 194 0118 6437     		adds	r7, r7, #100
 195              		.cfi_def_cfa_offset 12
 196 011a BD46     		mov	sp, r7
 197              		.cfi_def_cfa_register 13
 198              		@ sp needed
 199 011c 90BD     		pop	{r4, r7, pc}
 200              	.L8:
 201 011e 00BF     		.align	3
 202              	.L7:
 203 0120 FCA9F1D2 		.word	-755914244
 204 0124 4D62F03F 		.word	1072718413
 205 0128 00003041 		.word	1093664768
 206              		.cfi_endproc
 207              	.LFE64:
 208              		.size	voltage_take_readings, .-voltage_take_readings
 209              		.section	.text.sort32,"ax",%progbits
 210              		.align	2
 211              		.global	sort32
 212              		.thumb
 213              		.thumb_func
 214              		.type	sort32, %function
 215              	sort32:
 216              	.LFB65:
  60:voltages.c    **** 
  61:voltages.c    **** // Function to sort the elements in the level readings array
  62:voltages.c    **** void sort32(int32 a[],int32 n) { 
 217              		.loc 1 62 0
 218              		.cfi_startproc
 219              		@ args = 0, pretend = 0, frame = 16
ARM GAS  C:\Users\hail\AppData\Local\Temp\ccTBLrfv.s 			page 6


 220              		@ frame_needed = 1, uses_anonymous_args = 0
 221 0000 80B5     		push	{r7, lr}
 222              		.cfi_def_cfa_offset 8
 223              		.cfi_offset 7, -8
 224              		.cfi_offset 14, -4
 225 0002 84B0     		sub	sp, sp, #16
 226              		.cfi_def_cfa_offset 24
 227 0004 00AF     		add	r7, sp, #0
 228              		.cfi_def_cfa_register 7
 229 0006 7860     		str	r0, [r7, #4]
 230 0008 3960     		str	r1, [r7]
  63:voltages.c    ****    int32 i,j;
  64:voltages.c    **** 
  65:voltages.c    ****    for(i = 0;i < n-1;i++) {
 231              		.loc 1 65 0
 232 000a 0023     		movs	r3, #0
 233 000c FB60     		str	r3, [r7, #12]
 234 000e 28E0     		b	.L10
 235              	.L14:
  66:voltages.c    ****       for(j = 0;j < n-i-1;j++) {
 236              		.loc 1 66 0
 237 0010 0023     		movs	r3, #0
 238 0012 BB60     		str	r3, [r7, #8]
 239 0014 1BE0     		b	.L11
 240              	.L13:
  67:voltages.c    ****          if(a[j] > a[j+1])
 241              		.loc 1 67 0
 242 0016 BB68     		ldr	r3, [r7, #8]
 243 0018 9B00     		lsls	r3, r3, #2
 244 001a 7A68     		ldr	r2, [r7, #4]
 245 001c 1344     		add	r3, r3, r2
 246 001e 1A68     		ldr	r2, [r3]
 247 0020 BB68     		ldr	r3, [r7, #8]
 248 0022 0133     		adds	r3, r3, #1
 249 0024 9B00     		lsls	r3, r3, #2
 250 0026 7968     		ldr	r1, [r7, #4]
 251 0028 0B44     		add	r3, r3, r1
 252 002a 1B68     		ldr	r3, [r3]
 253 002c 9A42     		cmp	r2, r3
 254 002e 0BDD     		ble	.L12
  68:voltages.c    ****             swap32(&a[j],&a[j+1]);  // Swap the address of a[j] and a[j+1]
 255              		.loc 1 68 0
 256 0030 BB68     		ldr	r3, [r7, #8]
 257 0032 9B00     		lsls	r3, r3, #2
 258 0034 7A68     		ldr	r2, [r7, #4]
 259 0036 D018     		adds	r0, r2, r3
 260 0038 BB68     		ldr	r3, [r7, #8]
 261 003a 0133     		adds	r3, r3, #1
 262 003c 9B00     		lsls	r3, r3, #2
 263 003e 7A68     		ldr	r2, [r7, #4]
 264 0040 1344     		add	r3, r3, r2
 265 0042 1946     		mov	r1, r3
 266 0044 FFF7FEFF 		bl	swap32
 267              	.L12:
  66:voltages.c    ****       for(j = 0;j < n-i-1;j++) {
 268              		.loc 1 66 0 discriminator 2
 269 0048 BB68     		ldr	r3, [r7, #8]
ARM GAS  C:\Users\hail\AppData\Local\Temp\ccTBLrfv.s 			page 7


 270 004a 0133     		adds	r3, r3, #1
 271 004c BB60     		str	r3, [r7, #8]
 272              	.L11:
  66:voltages.c    ****       for(j = 0;j < n-i-1;j++) {
 273              		.loc 1 66 0 is_stmt 0 discriminator 1
 274 004e 3A68     		ldr	r2, [r7]
 275 0050 FB68     		ldr	r3, [r7, #12]
 276 0052 D31A     		subs	r3, r2, r3
 277 0054 5A1E     		subs	r2, r3, #1
 278 0056 BB68     		ldr	r3, [r7, #8]
 279 0058 9A42     		cmp	r2, r3
 280 005a DCDC     		bgt	.L13
  65:voltages.c    ****       for(j = 0;j < n-i-1;j++) {
 281              		.loc 1 65 0 is_stmt 1 discriminator 2
 282 005c FB68     		ldr	r3, [r7, #12]
 283 005e 0133     		adds	r3, r3, #1
 284 0060 FB60     		str	r3, [r7, #12]
 285              	.L10:
  65:voltages.c    ****       for(j = 0;j < n-i-1;j++) {
 286              		.loc 1 65 0 is_stmt 0 discriminator 1
 287 0062 3B68     		ldr	r3, [r7]
 288 0064 5A1E     		subs	r2, r3, #1
 289 0066 FB68     		ldr	r3, [r7, #12]
 290 0068 9A42     		cmp	r2, r3
 291 006a D1DC     		bgt	.L14
  69:voltages.c    ****       }
  70:voltages.c    ****    }
  71:voltages.c    **** }
 292              		.loc 1 71 0 is_stmt 1
 293 006c 00BF     		nop
 294 006e 1037     		adds	r7, r7, #16
 295              		.cfi_def_cfa_offset 8
 296 0070 BD46     		mov	sp, r7
 297              		.cfi_def_cfa_register 13
 298              		@ sp needed
 299 0072 80BD     		pop	{r7, pc}
 300              		.cfi_endproc
 301              	.LFE65:
 302              		.size	sort32, .-sort32
 303              		.section	.text.swap32,"ax",%progbits
 304              		.align	2
 305              		.global	swap32
 306              		.thumb
 307              		.thumb_func
 308              		.type	swap32, %function
 309              	swap32:
 310              	.LFB66:
  72:voltages.c    **** 
  73:voltages.c    **** // Function to swap elements in the level readings array in order to sort them
  74:voltages.c    **** void swap32(int32 *p,int32 *q){
 311              		.loc 1 74 0
 312              		.cfi_startproc
 313              		@ args = 0, pretend = 0, frame = 16
 314              		@ frame_needed = 1, uses_anonymous_args = 0
 315              		@ link register save eliminated.
 316 0000 80B4     		push	{r7}
 317              		.cfi_def_cfa_offset 4
ARM GAS  C:\Users\hail\AppData\Local\Temp\ccTBLrfv.s 			page 8


 318              		.cfi_offset 7, -4
 319 0002 85B0     		sub	sp, sp, #20
 320              		.cfi_def_cfa_offset 24
 321 0004 00AF     		add	r7, sp, #0
 322              		.cfi_def_cfa_register 7
 323 0006 7860     		str	r0, [r7, #4]
 324 0008 3960     		str	r1, [r7]
  75:voltages.c    ****    int32 t;
  76:voltages.c    ****    
  77:voltages.c    ****    t=*p; 
 325              		.loc 1 77 0
 326 000a 7B68     		ldr	r3, [r7, #4]
 327 000c 1B68     		ldr	r3, [r3]
 328 000e FB60     		str	r3, [r7, #12]
  78:voltages.c    ****    *p=*q; 
 329              		.loc 1 78 0
 330 0010 3B68     		ldr	r3, [r7]
 331 0012 1A68     		ldr	r2, [r3]
 332 0014 7B68     		ldr	r3, [r7, #4]
 333 0016 1A60     		str	r2, [r3]
  79:voltages.c    ****    *q=t;
 334              		.loc 1 79 0
 335 0018 3B68     		ldr	r3, [r7]
 336 001a FA68     		ldr	r2, [r7, #12]
 337 001c 1A60     		str	r2, [r3]
  80:voltages.c    **** }
 338              		.loc 1 80 0
 339 001e 00BF     		nop
 340 0020 1437     		adds	r7, r7, #20
 341              		.cfi_def_cfa_offset 4
 342 0022 BD46     		mov	sp, r7
 343              		.cfi_def_cfa_register 13
 344              		@ sp needed
 345 0024 80BC     		pop	{r7}
 346              		.cfi_restore 7
 347              		.cfi_def_cfa_offset 0
 348 0026 7047     		bx	lr
 349              		.cfi_endproc
 350              	.LFE66:
 351              		.size	swap32, .-swap32
 352              		.global	__aeabi_i2d
 353              		.global	__aeabi_ddiv
 354              		.global	__aeabi_d2iz
 355              		.section	.text.find_median32,"ax",%progbits
 356              		.align	2
 357              		.global	find_median32
 358              		.thumb
 359              		.thumb_func
 360              		.type	find_median32, %function
 361              	find_median32:
 362              	.LFB67:
  81:voltages.c    **** 
  82:voltages.c    **** // Function to calculate the median of the array, after array is sorted
  83:voltages.c    **** int32 find_median32(int32 array[] , int32 n)
  84:voltages.c    **** {
 363              		.loc 1 84 0
 364              		.cfi_startproc
ARM GAS  C:\Users\hail\AppData\Local\Temp\ccTBLrfv.s 			page 9


 365              		@ args = 0, pretend = 0, frame = 16
 366              		@ frame_needed = 1, uses_anonymous_args = 0
 367 0000 90B5     		push	{r4, r7, lr}
 368              		.cfi_def_cfa_offset 12
 369              		.cfi_offset 4, -12
 370              		.cfi_offset 7, -8
 371              		.cfi_offset 14, -4
 372 0002 85B0     		sub	sp, sp, #20
 373              		.cfi_def_cfa_offset 32
 374 0004 00AF     		add	r7, sp, #0
 375              		.cfi_def_cfa_register 7
 376 0006 7860     		str	r0, [r7, #4]
 377 0008 3960     		str	r1, [r7]
  85:voltages.c    ****     int32 median=0;
 378              		.loc 1 85 0
 379 000a 0023     		movs	r3, #0
 380 000c FB60     		str	r3, [r7, #12]
  86:voltages.c    ****     sort32(array,n);
 381              		.loc 1 86 0
 382 000e 3968     		ldr	r1, [r7]
 383 0010 7868     		ldr	r0, [r7, #4]
 384 0012 FFF7FEFF 		bl	sort32
  87:voltages.c    ****     
  88:voltages.c    ****     // If number of elements are even
  89:voltages.c    ****     if(n%2 == 0)
 385              		.loc 1 89 0
 386 0016 3B68     		ldr	r3, [r7]
 387 0018 03F00103 		and	r3, r3, #1
 388 001c 002B     		cmp	r3, #0
 389 001e 23D1     		bne	.L17
  90:voltages.c    ****         // Median is the average of the  two middle sorted numbers
  91:voltages.c    ****         median = (array[(n-1)/2] + array[n/2])/2.0;
 390              		.loc 1 91 0
 391 0020 3B68     		ldr	r3, [r7]
 392 0022 013B     		subs	r3, r3, #1
 393 0024 DA0F     		lsrs	r2, r3, #31
 394 0026 1344     		add	r3, r3, r2
 395 0028 5B10     		asrs	r3, r3, #1
 396 002a 9B00     		lsls	r3, r3, #2
 397 002c 7A68     		ldr	r2, [r7, #4]
 398 002e 1344     		add	r3, r3, r2
 399 0030 1A68     		ldr	r2, [r3]
 400 0032 3B68     		ldr	r3, [r7]
 401 0034 D90F     		lsrs	r1, r3, #31
 402 0036 0B44     		add	r3, r3, r1
 403 0038 5B10     		asrs	r3, r3, #1
 404 003a 9B00     		lsls	r3, r3, #2
 405 003c 7968     		ldr	r1, [r7, #4]
 406 003e 0B44     		add	r3, r3, r1
 407 0040 1B68     		ldr	r3, [r3]
 408 0042 1344     		add	r3, r3, r2
 409 0044 1846     		mov	r0, r3
 410 0046 FFF7FEFF 		bl	__aeabi_i2d
 411 004a 4FF00002 		mov	r2, #0
 412 004e 4FF08043 		mov	r3, #1073741824
 413 0052 FFF7FEFF 		bl	__aeabi_ddiv
 414 0056 0346     		mov	r3, r0
ARM GAS  C:\Users\hail\AppData\Local\Temp\ccTBLrfv.s 			page 10


 415 0058 0C46     		mov	r4, r1
 416 005a 1846     		mov	r0, r3
 417 005c 2146     		mov	r1, r4
 418 005e FFF7FEFF 		bl	__aeabi_d2iz
 419 0062 0346     		mov	r3, r0
 420 0064 FB60     		str	r3, [r7, #12]
 421 0066 08E0     		b	.L18
 422              	.L17:
  92:voltages.c    ****     // If number of elements are odd
  93:voltages.c    ****     else
  94:voltages.c    ****         // Median is the the middle sorted number. 
  95:voltages.c    ****         median = array[n/2];
 423              		.loc 1 95 0
 424 0068 3B68     		ldr	r3, [r7]
 425 006a DA0F     		lsrs	r2, r3, #31
 426 006c 1344     		add	r3, r3, r2
 427 006e 5B10     		asrs	r3, r3, #1
 428 0070 9B00     		lsls	r3, r3, #2
 429 0072 7A68     		ldr	r2, [r7, #4]
 430 0074 1344     		add	r3, r3, r2
 431 0076 1B68     		ldr	r3, [r3]
 432 0078 FB60     		str	r3, [r7, #12]
 433              	.L18:
  96:voltages.c    ****     
  97:voltages.c    ****     return median;
 434              		.loc 1 97 0
 435 007a FB68     		ldr	r3, [r7, #12]
  98:voltages.c    **** }
 436              		.loc 1 98 0
 437 007c 1846     		mov	r0, r3
 438 007e 1437     		adds	r7, r7, #20
 439              		.cfi_def_cfa_offset 12
 440 0080 BD46     		mov	sp, r7
 441              		.cfi_def_cfa_register 13
 442              		@ sp needed
 443 0082 90BD     		pop	{r4, r7, pc}
 444              		.cfi_endproc
 445              	.LFE67:
 446              		.size	find_median32, .-find_median32
 447              		.section	.rodata
 448              		.align	2
 449              	.LC0:
 450 0000 54455354 		.ascii	"TEST_ANALOG_VOLTAGES\000"
 450      5F414E41 
 450      4C4F475F 
 450      564F4C54 
 450      41474553 
 451 0015 000000   		.align	2
 452              	.LC1:
 453 0018 56424154 		.ascii	"VBAT=%.3f,VSOL=%.3f,CHRG=%.3f\000"
 453      3D252E33 
 453      662C5653 
 453      4F4C3D25 
 453      2E33662C 
 454              		.section	.text.voltages_test,"ax",%progbits
 455              		.align	2
 456              		.global	voltages_test
ARM GAS  C:\Users\hail\AppData\Local\Temp\ccTBLrfv.s 			page 11


 457              		.thumb
 458              		.thumb_func
 459              		.type	voltages_test, %function
 460              	voltages_test:
 461              	.LFB68:
  99:voltages.c    **** 
 100:voltages.c    **** // Test the voltage readings
 101:voltages.c    **** test_t voltages_test(){
 462              		.loc 1 101 0
 463              		.cfi_startproc
 464              		@ args = 0, pretend = 0, frame = 416
 465              		@ frame_needed = 1, uses_anonymous_args = 0
 466 0000 2DE9B043 		push	{r4, r5, r7, r8, r9, lr}
 467              		.cfi_def_cfa_offset 24
 468              		.cfi_offset 4, -24
 469              		.cfi_offset 5, -20
 470              		.cfi_offset 7, -16
 471              		.cfi_offset 8, -12
 472              		.cfi_offset 9, -8
 473              		.cfi_offset 14, -4
 474 0004 EEB0     		sub	sp, sp, #440
 475              		.cfi_def_cfa_offset 464
 476 0006 06AF     		add	r7, sp, #24
 477              		.cfi_def_cfa 7, 440
 478 0008 3B1D     		adds	r3, r7, #4
 479 000a 1860     		str	r0, [r3]
 102:voltages.c    ****     // Create variable test of the data structure test_t
 103:voltages.c    ****     test_t test;
 104:voltages.c    ****     test.status = 0;
 480              		.loc 1 104 0
 481 000c 07F11C03 		add	r3, r7, #28
 482 0010 0022     		movs	r2, #0
 483 0012 83F88020 		strb	r2, [r3, #128]
 105:voltages.c    ****     snprintf(test.test_name,sizeof(test.test_name),"TEST_ANALOG_VOLTAGES");
 484              		.loc 1 105 0
 485 0016 07F11C03 		add	r3, r7, #28
 486 001a 264A     		ldr	r2, .L22
 487 001c 1C46     		mov	r4, r3
 488 001e 1546     		mov	r5, r2
 489 0020 0FCD     		ldmia	r5!, {r0, r1, r2, r3}
 490 0022 0FC4     		stmia	r4!, {r0, r1, r2, r3}
 491 0024 95E80300 		ldmia	r5, {r0, r1}
 492 0028 2060     		str	r0, [r4]
 493 002a 0434     		adds	r4, r4, #4
 494 002c 2170     		strb	r1, [r4]
 106:voltages.c    ****     
 107:voltages.c    ****     voltage_t voltage = voltage_take_readings();
 495              		.loc 1 107 0
 496 002e 07F10C03 		add	r3, r7, #12
 497 0032 1846     		mov	r0, r3
 498 0034 FFF7FEFF 		bl	voltage_take_readings
 108:voltages.c    ****     
 109:voltages.c    ****     //do some checks here if you want the test to meet some voltage requrement
 110:voltages.c    ****     //poipoi
 111:voltages.c    ****     
 112:voltages.c    ****     snprintf(test.reason,sizeof(test.reason),"VBAT=%.3f,VSOL=%.3f,CHRG=%.3f",
 113:voltages.c    ****             voltage.voltage_battery,
ARM GAS  C:\Users\hail\AppData\Local\Temp\ccTBLrfv.s 			page 12


 499              		.loc 1 113 0
 500 0038 07F10C03 		add	r3, r7, #12
 501 003c 1B68     		ldr	r3, [r3]	@ float
 112:voltages.c    ****             voltage.voltage_battery,
 502              		.loc 1 112 0
 503 003e 1846     		mov	r0, r3
 504 0040 FFF7FEFF 		bl	__aeabi_f2d
 505 0044 0446     		mov	r4, r0
 506 0046 0D46     		mov	r5, r1
 114:voltages.c    ****             voltage.voltage_solar,
 507              		.loc 1 114 0
 508 0048 07F10C03 		add	r3, r7, #12
 509 004c 5B68     		ldr	r3, [r3, #4]	@ float
 112:voltages.c    ****             voltage.voltage_battery,
 510              		.loc 1 112 0
 511 004e 1846     		mov	r0, r3
 512 0050 FFF7FEFF 		bl	__aeabi_f2d
 513 0054 8046     		mov	r8, r0
 514 0056 8946     		mov	r9, r1
 115:voltages.c    ****             voltage.voltage_charge_current);
 515              		.loc 1 115 0
 516 0058 07F10C03 		add	r3, r7, #12
 517 005c 9B68     		ldr	r3, [r3, #8]	@ float
 112:voltages.c    ****             voltage.voltage_battery,
 518              		.loc 1 112 0
 519 005e 1846     		mov	r0, r3
 520 0060 FFF7FEFF 		bl	__aeabi_f2d
 521 0064 0246     		mov	r2, r0
 522 0066 0B46     		mov	r3, r1
 523 0068 07F11C01 		add	r1, r7, #28
 524 006c 01F18100 		add	r0, r1, #129
 525 0070 CDE90423 		strd	r2, [sp, #16]
 526 0074 CDE90289 		strd	r8, [sp, #8]
 527 0078 CDE90045 		strd	r4, [sp]
 528 007c 0E4A     		ldr	r2, .L22+4
 529 007e 4FF48071 		mov	r1, #256
 530 0082 FFF7FEFF 		bl	snprintf
 116:voltages.c    ****     
 117:voltages.c    ****     test.status = 1;
 531              		.loc 1 117 0
 532 0086 07F11C03 		add	r3, r7, #28
 533 008a 0122     		movs	r2, #1
 534 008c 83F88020 		strb	r2, [r3, #128]
 118:voltages.c    ****         
 119:voltages.c    ****     return test;
 535              		.loc 1 119 0
 536 0090 3B1D     		adds	r3, r7, #4
 537 0092 1A68     		ldr	r2, [r3]
 538 0094 07F11C03 		add	r3, r7, #28
 539 0098 1046     		mov	r0, r2
 540 009a 1946     		mov	r1, r3
 541 009c 40F28113 		movw	r3, #385
 542 00a0 1A46     		mov	r2, r3
 543 00a2 FFF7FEFF 		bl	memcpy
 120:voltages.c    **** }
 544              		.loc 1 120 0
 545 00a6 3B1D     		adds	r3, r7, #4
ARM GAS  C:\Users\hail\AppData\Local\Temp\ccTBLrfv.s 			page 13


 546 00a8 1868     		ldr	r0, [r3]
 547 00aa 07F5D077 		add	r7, r7, #416
 548              		.cfi_def_cfa_offset 24
 549 00ae BD46     		mov	sp, r7
 550              		.cfi_def_cfa_register 13
 551              		@ sp needed
 552 00b0 BDE8B083 		pop	{r4, r5, r7, r8, r9, pc}
 553              	.L23:
 554              		.align	2
 555              	.L22:
 556 00b4 00000000 		.word	.LC0
 557 00b8 18000000 		.word	.LC1
 558              		.cfi_endproc
 559              	.LFE68:
 560              		.size	voltages_test, .-voltages_test
 561              		.text
 562              	.Letext0:
 563              		.file 2 "c:\\program files (x86)\\cypress\\psoc creator\\4.1\\psoc creator\\import\\gnu\\arm\\5.4.
 564              		.file 3 "c:\\program files (x86)\\cypress\\psoc creator\\4.1\\psoc creator\\import\\gnu\\arm\\5.4.
 565              		.file 4 "Generated_Source\\PSoC5/cytypes.h"
 566              		.file 5 "testing.h"
 567              		.file 6 "voltages.h"
 568              		.file 7 "modem.h"
 569              		.file 8 "data.h"
 570              		.file 9 "notoriOS.h"
 571              		.file 10 "Generated_Source\\PSoC5/core_cm3.h"